ARM GAS  C:\Users\BLACK_~1\AppData\Local\Temp\cciEiKtC.s 			page 1


   1              		.cpu cortex-m4
   2              		.arch armv7e-m
   3              		.fpu fpv4-sp-d16
   4              		.eabi_attribute 27, 1
   5              		.eabi_attribute 28, 1
   6              		.eabi_attribute 20, 1
   7              		.eabi_attribute 21, 1
   8              		.eabi_attribute 23, 3
   9              		.eabi_attribute 24, 1
  10              		.eabi_attribute 25, 1
  11              		.eabi_attribute 26, 1
  12              		.eabi_attribute 30, 1
  13              		.eabi_attribute 34, 1
  14              		.eabi_attribute 18, 4
  15              		.file	"can.c"
  16              		.text
  17              	.Ltext0:
  18              		.cfi_sections	.debug_frame
  19              		.section	.text.MX_CAN1_Init,"ax",%progbits
  20              		.align	1
  21              		.global	MX_CAN1_Init
  22              		.syntax unified
  23              		.thumb
  24              		.thumb_func
  26              	MX_CAN1_Init:
  27              	.LFB130:
  28              		.file 1 "Src/can.c"
   1:Src/can.c     **** /**
   2:Src/can.c     ****   ******************************************************************************
   3:Src/can.c     ****   * @file    can.c
   4:Src/can.c     ****   * @brief   This file provides code for the configuration
   5:Src/can.c     ****   *          of the CAN instances.
   6:Src/can.c     ****   ******************************************************************************
   7:Src/can.c     ****   * @attention
   8:Src/can.c     ****   *
   9:Src/can.c     ****   * <h2><center>&copy; Copyright (c) 2021 STMicroelectronics.
  10:Src/can.c     ****   * All rights reserved.</center></h2>
  11:Src/can.c     ****   *
  12:Src/can.c     ****   * This software component is licensed by ST under Ultimate Liberty license
  13:Src/can.c     ****   * SLA0044, the "License"; You may not use this file except in compliance with
  14:Src/can.c     ****   * the License. You may obtain a copy of the License at:
  15:Src/can.c     ****   *                             www.st.com/SLA0044
  16:Src/can.c     ****   *
  17:Src/can.c     ****   ******************************************************************************
  18:Src/can.c     ****   */
  19:Src/can.c     **** 
  20:Src/can.c     **** /* Includes ------------------------------------------------------------------*/
  21:Src/can.c     **** #include "can.h"
  22:Src/can.c     **** 
  23:Src/can.c     **** /* USER CODE BEGIN 0 */
  24:Src/can.c     **** 
  25:Src/can.c     **** /* USER CODE END 0 */
  26:Src/can.c     **** 
  27:Src/can.c     **** CAN_HandleTypeDef hcan1;
  28:Src/can.c     **** 
  29:Src/can.c     **** /* CAN1 init function */
  30:Src/can.c     **** void MX_CAN1_Init(void)
ARM GAS  C:\Users\BLACK_~1\AppData\Local\Temp\cciEiKtC.s 			page 2


  31:Src/can.c     **** {
  29              		.loc 1 31 1 view -0
  30              		.cfi_startproc
  31              		@ args = 0, pretend = 0, frame = 0
  32              		@ frame_needed = 0, uses_anonymous_args = 0
  33 0000 08B5     		push	{r3, lr}
  34              	.LCFI0:
  35              		.cfi_def_cfa_offset 8
  36              		.cfi_offset 3, -8
  37              		.cfi_offset 14, -4
  32:Src/can.c     **** 
  33:Src/can.c     ****   hcan1.Instance = CAN1;
  38              		.loc 1 33 3 view .LVU1
  39              		.loc 1 33 18 is_stmt 0 view .LVU2
  40 0002 0B48     		ldr	r0, .L5
  41 0004 0B4B     		ldr	r3, .L5+4
  42 0006 0360     		str	r3, [r0]
  34:Src/can.c     ****   hcan1.Init.Prescaler = 16;
  43              		.loc 1 34 3 is_stmt 1 view .LVU3
  44              		.loc 1 34 24 is_stmt 0 view .LVU4
  45 0008 1023     		movs	r3, #16
  46 000a 4360     		str	r3, [r0, #4]
  35:Src/can.c     ****   hcan1.Init.Mode = CAN_MODE_NORMAL;
  47              		.loc 1 35 3 is_stmt 1 view .LVU5
  48              		.loc 1 35 19 is_stmt 0 view .LVU6
  49 000c 0023     		movs	r3, #0
  50 000e 8360     		str	r3, [r0, #8]
  36:Src/can.c     ****   hcan1.Init.SyncJumpWidth = CAN_SJW_1TQ;
  51              		.loc 1 36 3 is_stmt 1 view .LVU7
  52              		.loc 1 36 28 is_stmt 0 view .LVU8
  53 0010 C360     		str	r3, [r0, #12]
  37:Src/can.c     ****   hcan1.Init.TimeSeg1 = CAN_BS1_1TQ;
  54              		.loc 1 37 3 is_stmt 1 view .LVU9
  55              		.loc 1 37 23 is_stmt 0 view .LVU10
  56 0012 0361     		str	r3, [r0, #16]
  38:Src/can.c     ****   hcan1.Init.TimeSeg2 = CAN_BS2_1TQ;
  57              		.loc 1 38 3 is_stmt 1 view .LVU11
  58              		.loc 1 38 23 is_stmt 0 view .LVU12
  59 0014 4361     		str	r3, [r0, #20]
  39:Src/can.c     ****   hcan1.Init.TimeTriggeredMode = DISABLE;
  60              		.loc 1 39 3 is_stmt 1 view .LVU13
  61              		.loc 1 39 32 is_stmt 0 view .LVU14
  62 0016 0376     		strb	r3, [r0, #24]
  40:Src/can.c     ****   hcan1.Init.AutoBusOff = DISABLE;
  63              		.loc 1 40 3 is_stmt 1 view .LVU15
  64              		.loc 1 40 25 is_stmt 0 view .LVU16
  65 0018 4376     		strb	r3, [r0, #25]
  41:Src/can.c     ****   hcan1.Init.AutoWakeUp = DISABLE;
  66              		.loc 1 41 3 is_stmt 1 view .LVU17
  67              		.loc 1 41 25 is_stmt 0 view .LVU18
  68 001a 8376     		strb	r3, [r0, #26]
  42:Src/can.c     ****   hcan1.Init.AutoRetransmission = DISABLE;
  69              		.loc 1 42 3 is_stmt 1 view .LVU19
  70              		.loc 1 42 33 is_stmt 0 view .LVU20
  71 001c C376     		strb	r3, [r0, #27]
  43:Src/can.c     ****   hcan1.Init.ReceiveFifoLocked = DISABLE;
  72              		.loc 1 43 3 is_stmt 1 view .LVU21
ARM GAS  C:\Users\BLACK_~1\AppData\Local\Temp\cciEiKtC.s 			page 3


  73              		.loc 1 43 32 is_stmt 0 view .LVU22
  74 001e 0377     		strb	r3, [r0, #28]
  44:Src/can.c     ****   hcan1.Init.TransmitFifoPriority = DISABLE;
  75              		.loc 1 44 3 is_stmt 1 view .LVU23
  76              		.loc 1 44 35 is_stmt 0 view .LVU24
  77 0020 4377     		strb	r3, [r0, #29]
  45:Src/can.c     ****   if (HAL_CAN_Init(&hcan1) != HAL_OK)
  78              		.loc 1 45 3 is_stmt 1 view .LVU25
  79              		.loc 1 45 7 is_stmt 0 view .LVU26
  80 0022 FFF7FEFF 		bl	HAL_CAN_Init
  81              	.LVL0:
  82              		.loc 1 45 6 view .LVU27
  83 0026 00B9     		cbnz	r0, .L4
  84              	.L1:
  46:Src/can.c     ****   {
  47:Src/can.c     ****     Error_Handler();
  48:Src/can.c     ****   }
  49:Src/can.c     **** 
  50:Src/can.c     **** }
  85              		.loc 1 50 1 view .LVU28
  86 0028 08BD     		pop	{r3, pc}
  87              	.L4:
  47:Src/can.c     ****   }
  88              		.loc 1 47 5 is_stmt 1 view .LVU29
  89 002a FFF7FEFF 		bl	Error_Handler
  90              	.LVL1:
  91              		.loc 1 50 1 is_stmt 0 view .LVU30
  92 002e FBE7     		b	.L1
  93              	.L6:
  94              		.align	2
  95              	.L5:
  96 0030 00000000 		.word	.LANCHOR0
  97 0034 00640040 		.word	1073767424
  98              		.cfi_endproc
  99              	.LFE130:
 101              		.section	.text.HAL_CAN_MspInit,"ax",%progbits
 102              		.align	1
 103              		.global	HAL_CAN_MspInit
 104              		.syntax unified
 105              		.thumb
 106              		.thumb_func
 108              	HAL_CAN_MspInit:
 109              	.LVL2:
 110              	.LFB131:
  51:Src/can.c     **** 
  52:Src/can.c     **** void HAL_CAN_MspInit(CAN_HandleTypeDef* canHandle)
  53:Src/can.c     **** {
 111              		.loc 1 53 1 is_stmt 1 view -0
 112              		.cfi_startproc
 113              		@ args = 0, pretend = 0, frame = 32
 114              		@ frame_needed = 0, uses_anonymous_args = 0
 115              		.loc 1 53 1 is_stmt 0 view .LVU32
 116 0000 00B5     		push	{lr}
 117              	.LCFI1:
 118              		.cfi_def_cfa_offset 4
 119              		.cfi_offset 14, -4
 120 0002 89B0     		sub	sp, sp, #36
ARM GAS  C:\Users\BLACK_~1\AppData\Local\Temp\cciEiKtC.s 			page 4


 121              	.LCFI2:
 122              		.cfi_def_cfa_offset 40
  54:Src/can.c     **** 
  55:Src/can.c     ****   GPIO_InitTypeDef GPIO_InitStruct = {0};
 123              		.loc 1 55 3 is_stmt 1 view .LVU33
 124              		.loc 1 55 20 is_stmt 0 view .LVU34
 125 0004 0023     		movs	r3, #0
 126 0006 0393     		str	r3, [sp, #12]
 127 0008 0493     		str	r3, [sp, #16]
 128 000a 0593     		str	r3, [sp, #20]
 129 000c 0693     		str	r3, [sp, #24]
 130 000e 0793     		str	r3, [sp, #28]
  56:Src/can.c     ****   if(canHandle->Instance==CAN1)
 131              		.loc 1 56 3 is_stmt 1 view .LVU35
 132              		.loc 1 56 15 is_stmt 0 view .LVU36
 133 0010 0268     		ldr	r2, [r0]
 134              		.loc 1 56 5 view .LVU37
 135 0012 154B     		ldr	r3, .L11
 136 0014 9A42     		cmp	r2, r3
 137 0016 02D0     		beq	.L10
 138              	.LVL3:
 139              	.L7:
  57:Src/can.c     ****   {
  58:Src/can.c     ****   /* USER CODE BEGIN CAN1_MspInit 0 */
  59:Src/can.c     **** 
  60:Src/can.c     ****   /* USER CODE END CAN1_MspInit 0 */
  61:Src/can.c     ****     /* CAN1 clock enable */
  62:Src/can.c     ****     __HAL_RCC_CAN1_CLK_ENABLE();
  63:Src/can.c     **** 
  64:Src/can.c     ****     __HAL_RCC_GPIOB_CLK_ENABLE();
  65:Src/can.c     ****     /**CAN1 GPIO Configuration
  66:Src/can.c     ****     PB8     ------> CAN1_RX
  67:Src/can.c     ****     PB9     ------> CAN1_TX
  68:Src/can.c     ****     */
  69:Src/can.c     ****     GPIO_InitStruct.Pin = GPIO_PIN_8|GPIO_PIN_9;
  70:Src/can.c     ****     GPIO_InitStruct.Mode = GPIO_MODE_AF_PP;
  71:Src/can.c     ****     GPIO_InitStruct.Pull = GPIO_NOPULL;
  72:Src/can.c     ****     GPIO_InitStruct.Speed = GPIO_SPEED_FREQ_VERY_HIGH;
  73:Src/can.c     ****     GPIO_InitStruct.Alternate = GPIO_AF9_CAN1;
  74:Src/can.c     ****     HAL_GPIO_Init(GPIOB, &GPIO_InitStruct);
  75:Src/can.c     **** 
  76:Src/can.c     ****   /* USER CODE BEGIN CAN1_MspInit 1 */
  77:Src/can.c     **** 
  78:Src/can.c     ****   /* USER CODE END CAN1_MspInit 1 */
  79:Src/can.c     ****   }
  80:Src/can.c     **** }
 140              		.loc 1 80 1 view .LVU38
 141 0018 09B0     		add	sp, sp, #36
 142              	.LCFI3:
 143              		.cfi_remember_state
 144              		.cfi_def_cfa_offset 4
 145              		@ sp needed
 146 001a 5DF804FB 		ldr	pc, [sp], #4
 147              	.LVL4:
 148              	.L10:
 149              	.LCFI4:
 150              		.cfi_restore_state
ARM GAS  C:\Users\BLACK_~1\AppData\Local\Temp\cciEiKtC.s 			page 5


  62:Src/can.c     **** 
 151              		.loc 1 62 5 is_stmt 1 view .LVU39
 152              	.LBB2:
  62:Src/can.c     **** 
 153              		.loc 1 62 5 view .LVU40
 154 001e 0021     		movs	r1, #0
 155 0020 0191     		str	r1, [sp, #4]
  62:Src/can.c     **** 
 156              		.loc 1 62 5 view .LVU41
 157 0022 03F5EA33 		add	r3, r3, #119808
 158 0026 1A6C     		ldr	r2, [r3, #64]
 159 0028 42F00072 		orr	r2, r2, #33554432
 160 002c 1A64     		str	r2, [r3, #64]
  62:Src/can.c     **** 
 161              		.loc 1 62 5 view .LVU42
 162 002e 1A6C     		ldr	r2, [r3, #64]
 163 0030 02F00072 		and	r2, r2, #33554432
 164 0034 0192     		str	r2, [sp, #4]
  62:Src/can.c     **** 
 165              		.loc 1 62 5 view .LVU43
 166 0036 019A     		ldr	r2, [sp, #4]
 167              	.LBE2:
  62:Src/can.c     **** 
 168              		.loc 1 62 5 view .LVU44
  64:Src/can.c     ****     /**CAN1 GPIO Configuration
 169              		.loc 1 64 5 view .LVU45
 170              	.LBB3:
  64:Src/can.c     ****     /**CAN1 GPIO Configuration
 171              		.loc 1 64 5 view .LVU46
 172 0038 0291     		str	r1, [sp, #8]
  64:Src/can.c     ****     /**CAN1 GPIO Configuration
 173              		.loc 1 64 5 view .LVU47
 174 003a 1A6B     		ldr	r2, [r3, #48]
 175 003c 42F00202 		orr	r2, r2, #2
 176 0040 1A63     		str	r2, [r3, #48]
  64:Src/can.c     ****     /**CAN1 GPIO Configuration
 177              		.loc 1 64 5 view .LVU48
 178 0042 1B6B     		ldr	r3, [r3, #48]
 179 0044 03F00203 		and	r3, r3, #2
 180 0048 0293     		str	r3, [sp, #8]
  64:Src/can.c     ****     /**CAN1 GPIO Configuration
 181              		.loc 1 64 5 view .LVU49
 182 004a 029B     		ldr	r3, [sp, #8]
 183              	.LBE3:
  64:Src/can.c     ****     /**CAN1 GPIO Configuration
 184              		.loc 1 64 5 view .LVU50
  69:Src/can.c     ****     GPIO_InitStruct.Mode = GPIO_MODE_AF_PP;
 185              		.loc 1 69 5 view .LVU51
  69:Src/can.c     ****     GPIO_InitStruct.Mode = GPIO_MODE_AF_PP;
 186              		.loc 1 69 25 is_stmt 0 view .LVU52
 187 004c 4FF44073 		mov	r3, #768
 188 0050 0393     		str	r3, [sp, #12]
  70:Src/can.c     ****     GPIO_InitStruct.Pull = GPIO_NOPULL;
 189              		.loc 1 70 5 is_stmt 1 view .LVU53
  70:Src/can.c     ****     GPIO_InitStruct.Pull = GPIO_NOPULL;
 190              		.loc 1 70 26 is_stmt 0 view .LVU54
 191 0052 0223     		movs	r3, #2
ARM GAS  C:\Users\BLACK_~1\AppData\Local\Temp\cciEiKtC.s 			page 6


 192 0054 0493     		str	r3, [sp, #16]
  71:Src/can.c     ****     GPIO_InitStruct.Speed = GPIO_SPEED_FREQ_VERY_HIGH;
 193              		.loc 1 71 5 is_stmt 1 view .LVU55
  72:Src/can.c     ****     GPIO_InitStruct.Alternate = GPIO_AF9_CAN1;
 194              		.loc 1 72 5 view .LVU56
  72:Src/can.c     ****     GPIO_InitStruct.Alternate = GPIO_AF9_CAN1;
 195              		.loc 1 72 27 is_stmt 0 view .LVU57
 196 0056 0323     		movs	r3, #3
 197 0058 0693     		str	r3, [sp, #24]
  73:Src/can.c     ****     HAL_GPIO_Init(GPIOB, &GPIO_InitStruct);
 198              		.loc 1 73 5 is_stmt 1 view .LVU58
  73:Src/can.c     ****     HAL_GPIO_Init(GPIOB, &GPIO_InitStruct);
 199              		.loc 1 73 31 is_stmt 0 view .LVU59
 200 005a 0923     		movs	r3, #9
 201 005c 0793     		str	r3, [sp, #28]
  74:Src/can.c     **** 
 202              		.loc 1 74 5 is_stmt 1 view .LVU60
 203 005e 03A9     		add	r1, sp, #12
 204 0060 0248     		ldr	r0, .L11+4
 205              	.LVL5:
  74:Src/can.c     **** 
 206              		.loc 1 74 5 is_stmt 0 view .LVU61
 207 0062 FFF7FEFF 		bl	HAL_GPIO_Init
 208              	.LVL6:
 209              		.loc 1 80 1 view .LVU62
 210 0066 D7E7     		b	.L7
 211              	.L12:
 212              		.align	2
 213              	.L11:
 214 0068 00640040 		.word	1073767424
 215 006c 00040240 		.word	1073873920
 216              		.cfi_endproc
 217              	.LFE131:
 219              		.section	.text.HAL_CAN_MspDeInit,"ax",%progbits
 220              		.align	1
 221              		.global	HAL_CAN_MspDeInit
 222              		.syntax unified
 223              		.thumb
 224              		.thumb_func
 226              	HAL_CAN_MspDeInit:
 227              	.LVL7:
 228              	.LFB132:
  81:Src/can.c     **** 
  82:Src/can.c     **** void HAL_CAN_MspDeInit(CAN_HandleTypeDef* canHandle)
  83:Src/can.c     **** {
 229              		.loc 1 83 1 is_stmt 1 view -0
 230              		.cfi_startproc
 231              		@ args = 0, pretend = 0, frame = 0
 232              		@ frame_needed = 0, uses_anonymous_args = 0
 233              		.loc 1 83 1 is_stmt 0 view .LVU64
 234 0000 08B5     		push	{r3, lr}
 235              	.LCFI5:
 236              		.cfi_def_cfa_offset 8
 237              		.cfi_offset 3, -8
 238              		.cfi_offset 14, -4
  84:Src/can.c     **** 
  85:Src/can.c     ****   if(canHandle->Instance==CAN1)
ARM GAS  C:\Users\BLACK_~1\AppData\Local\Temp\cciEiKtC.s 			page 7


 239              		.loc 1 85 3 is_stmt 1 view .LVU65
 240              		.loc 1 85 15 is_stmt 0 view .LVU66
 241 0002 0268     		ldr	r2, [r0]
 242              		.loc 1 85 5 view .LVU67
 243 0004 074B     		ldr	r3, .L17
 244 0006 9A42     		cmp	r2, r3
 245 0008 00D0     		beq	.L16
 246              	.LVL8:
 247              	.L13:
  86:Src/can.c     ****   {
  87:Src/can.c     ****   /* USER CODE BEGIN CAN1_MspDeInit 0 */
  88:Src/can.c     **** 
  89:Src/can.c     ****   /* USER CODE END CAN1_MspDeInit 0 */
  90:Src/can.c     ****     /* Peripheral clock disable */
  91:Src/can.c     ****     __HAL_RCC_CAN1_CLK_DISABLE();
  92:Src/can.c     **** 
  93:Src/can.c     ****     /**CAN1 GPIO Configuration
  94:Src/can.c     ****     PB8     ------> CAN1_RX
  95:Src/can.c     ****     PB9     ------> CAN1_TX
  96:Src/can.c     ****     */
  97:Src/can.c     ****     HAL_GPIO_DeInit(GPIOB, GPIO_PIN_8|GPIO_PIN_9);
  98:Src/can.c     **** 
  99:Src/can.c     ****   /* USER CODE BEGIN CAN1_MspDeInit 1 */
 100:Src/can.c     **** 
 101:Src/can.c     ****   /* USER CODE END CAN1_MspDeInit 1 */
 102:Src/can.c     ****   }
 103:Src/can.c     **** }
 248              		.loc 1 103 1 view .LVU68
 249 000a 08BD     		pop	{r3, pc}
 250              	.LVL9:
 251              	.L16:
  91:Src/can.c     **** 
 252              		.loc 1 91 5 is_stmt 1 view .LVU69
 253 000c 064A     		ldr	r2, .L17+4
 254 000e 136C     		ldr	r3, [r2, #64]
 255 0010 23F00073 		bic	r3, r3, #33554432
 256 0014 1364     		str	r3, [r2, #64]
  97:Src/can.c     **** 
 257              		.loc 1 97 5 view .LVU70
 258 0016 4FF44071 		mov	r1, #768
 259 001a 0448     		ldr	r0, .L17+8
 260              	.LVL10:
  97:Src/can.c     **** 
 261              		.loc 1 97 5 is_stmt 0 view .LVU71
 262 001c FFF7FEFF 		bl	HAL_GPIO_DeInit
 263              	.LVL11:
 264              		.loc 1 103 1 view .LVU72
 265 0020 F3E7     		b	.L13
 266              	.L18:
 267 0022 00BF     		.align	2
 268              	.L17:
 269 0024 00640040 		.word	1073767424
 270 0028 00380240 		.word	1073887232
 271 002c 00040240 		.word	1073873920
 272              		.cfi_endproc
 273              	.LFE132:
 275              		.global	hcan1
ARM GAS  C:\Users\BLACK_~1\AppData\Local\Temp\cciEiKtC.s 			page 8


 276              		.section	.bss.hcan1,"aw",%nobits
 277              		.align	2
 278              		.set	.LANCHOR0,. + 0
 281              	hcan1:
 282 0000 00000000 		.space	40
 282      00000000 
 282      00000000 
 282      00000000 
 282      00000000 
 283              		.text
 284              	.Letext0:
 285              		.file 2 "e:\\gnu arm embedded toolchain\\10 2021.10\\arm-none-eabi\\include\\machine\\_default_typ
 286              		.file 3 "e:\\gnu arm embedded toolchain\\10 2021.10\\arm-none-eabi\\include\\sys\\_stdint.h"
 287              		.file 4 "c:/Users/Black_Life/STM32Cube/Repository/STM32Cube_FW_F4_V1.26.2/Drivers/CMSIS/Device/ST/
 288              		.file 5 "c:/Users/Black_Life/STM32Cube/Repository/STM32Cube_FW_F4_V1.26.2/Drivers/CMSIS/Device/ST/
 289              		.file 6 "c:/Users/Black_Life/STM32Cube/Repository/STM32Cube_FW_F4_V1.26.2/Drivers/STM32F4xx_HAL_Dr
 290              		.file 7 "c:/Users/Black_Life/STM32Cube/Repository/STM32Cube_FW_F4_V1.26.2/Drivers/STM32F4xx_HAL_Dr
 291              		.file 8 "c:/Users/Black_Life/STM32Cube/Repository/STM32Cube_FW_F4_V1.26.2/Drivers/STM32F4xx_HAL_Dr
 292              		.file 9 "Inc/main.h"
 293              		.file 10 "Inc/can.h"
ARM GAS  C:\Users\BLACK_~1\AppData\Local\Temp\cciEiKtC.s 			page 9

