ARM GAS  C:\Users\BLACK_~1\AppData\Local\Temp\ccrhXwwe.s 			page 1


   1              		.cpu cortex-m4
   2              		.arch armv7e-m
   3              		.fpu fpv4-sp-d16
   4              		.eabi_attribute 27, 1
   5              		.eabi_attribute 28, 1
   6              		.eabi_attribute 20, 1
   7              		.eabi_attribute 21, 1
   8              		.eabi_attribute 23, 3
   9              		.eabi_attribute 24, 1
  10              		.eabi_attribute 25, 1
  11              		.eabi_attribute 26, 1
  12              		.eabi_attribute 30, 1
  13              		.eabi_attribute 34, 1
  14              		.eabi_attribute 18, 4
  15              		.file	"etharp.c"
  16              		.text
  17              	.Ltext0:
  18              		.cfi_sections	.debug_frame
  19              		.section	.text.etharp_free_entry,"ax",%progbits
  20              		.align	1
  21              		.syntax unified
  22              		.thumb
  23              		.thumb_func
  25              	etharp_free_entry:
  26              	.LVL0:
  27              	.LFB156:
  28              		.file 1 "c:/Users/Black_Life/STM32Cube/Repository/STM32Cube_FW_F4_V1.26.2/Middlewares/Third_Party/
   1:c:/Users/Black_Life/STM32Cube/Repository/STM32Cube_FW_F4_V1.26.2/Middlewares/Third_Party/LwIP/src/core/ipv4\etharp.c **** /**
   2:c:/Users/Black_Life/STM32Cube/Repository/STM32Cube_FW_F4_V1.26.2/Middlewares/Third_Party/LwIP/src/core/ipv4\etharp.c ****  * @file
   3:c:/Users/Black_Life/STM32Cube/Repository/STM32Cube_FW_F4_V1.26.2/Middlewares/Third_Party/LwIP/src/core/ipv4\etharp.c ****  * Address Resolution Protocol module for IP over Ethernet
   4:c:/Users/Black_Life/STM32Cube/Repository/STM32Cube_FW_F4_V1.26.2/Middlewares/Third_Party/LwIP/src/core/ipv4\etharp.c ****  *
   5:c:/Users/Black_Life/STM32Cube/Repository/STM32Cube_FW_F4_V1.26.2/Middlewares/Third_Party/LwIP/src/core/ipv4\etharp.c ****  * Functionally, ARP is divided into two parts. The first maps an IP address
   6:c:/Users/Black_Life/STM32Cube/Repository/STM32Cube_FW_F4_V1.26.2/Middlewares/Third_Party/LwIP/src/core/ipv4\etharp.c ****  * to a physical address when sending a packet, and the second part answers
   7:c:/Users/Black_Life/STM32Cube/Repository/STM32Cube_FW_F4_V1.26.2/Middlewares/Third_Party/LwIP/src/core/ipv4\etharp.c ****  * requests from other machines for our physical address.
   8:c:/Users/Black_Life/STM32Cube/Repository/STM32Cube_FW_F4_V1.26.2/Middlewares/Third_Party/LwIP/src/core/ipv4\etharp.c ****  *
   9:c:/Users/Black_Life/STM32Cube/Repository/STM32Cube_FW_F4_V1.26.2/Middlewares/Third_Party/LwIP/src/core/ipv4\etharp.c ****  * This implementation complies with RFC 826 (Ethernet ARP). It supports
  10:c:/Users/Black_Life/STM32Cube/Repository/STM32Cube_FW_F4_V1.26.2/Middlewares/Third_Party/LwIP/src/core/ipv4\etharp.c ****  * Gratuitious ARP from RFC3220 (IP Mobility Support for IPv4) section 4.6
  11:c:/Users/Black_Life/STM32Cube/Repository/STM32Cube_FW_F4_V1.26.2/Middlewares/Third_Party/LwIP/src/core/ipv4\etharp.c ****  * if an interface calls etharp_gratuitous(our_netif) upon address change.
  12:c:/Users/Black_Life/STM32Cube/Repository/STM32Cube_FW_F4_V1.26.2/Middlewares/Third_Party/LwIP/src/core/ipv4\etharp.c ****  */
  13:c:/Users/Black_Life/STM32Cube/Repository/STM32Cube_FW_F4_V1.26.2/Middlewares/Third_Party/LwIP/src/core/ipv4\etharp.c **** 
  14:c:/Users/Black_Life/STM32Cube/Repository/STM32Cube_FW_F4_V1.26.2/Middlewares/Third_Party/LwIP/src/core/ipv4\etharp.c **** /*
  15:c:/Users/Black_Life/STM32Cube/Repository/STM32Cube_FW_F4_V1.26.2/Middlewares/Third_Party/LwIP/src/core/ipv4\etharp.c ****  * Copyright (c) 2001-2003 Swedish Institute of Computer Science.
  16:c:/Users/Black_Life/STM32Cube/Repository/STM32Cube_FW_F4_V1.26.2/Middlewares/Third_Party/LwIP/src/core/ipv4\etharp.c ****  * Copyright (c) 2003-2004 Leon Woestenberg <leon.woestenberg@axon.tv>
  17:c:/Users/Black_Life/STM32Cube/Repository/STM32Cube_FW_F4_V1.26.2/Middlewares/Third_Party/LwIP/src/core/ipv4\etharp.c ****  * Copyright (c) 2003-2004 Axon Digital Design B.V., The Netherlands.
  18:c:/Users/Black_Life/STM32Cube/Repository/STM32Cube_FW_F4_V1.26.2/Middlewares/Third_Party/LwIP/src/core/ipv4\etharp.c ****  * All rights reserved.
  19:c:/Users/Black_Life/STM32Cube/Repository/STM32Cube_FW_F4_V1.26.2/Middlewares/Third_Party/LwIP/src/core/ipv4\etharp.c ****  *
  20:c:/Users/Black_Life/STM32Cube/Repository/STM32Cube_FW_F4_V1.26.2/Middlewares/Third_Party/LwIP/src/core/ipv4\etharp.c ****  * Redistribution and use in source and binary forms, with or without modification,
  21:c:/Users/Black_Life/STM32Cube/Repository/STM32Cube_FW_F4_V1.26.2/Middlewares/Third_Party/LwIP/src/core/ipv4\etharp.c ****  * are permitted provided that the following conditions are met:
  22:c:/Users/Black_Life/STM32Cube/Repository/STM32Cube_FW_F4_V1.26.2/Middlewares/Third_Party/LwIP/src/core/ipv4\etharp.c ****  *
  23:c:/Users/Black_Life/STM32Cube/Repository/STM32Cube_FW_F4_V1.26.2/Middlewares/Third_Party/LwIP/src/core/ipv4\etharp.c ****  * 1. Redistributions of source code must retain the above copyright notice,
  24:c:/Users/Black_Life/STM32Cube/Repository/STM32Cube_FW_F4_V1.26.2/Middlewares/Third_Party/LwIP/src/core/ipv4\etharp.c ****  *    this list of conditions and the following disclaimer.
  25:c:/Users/Black_Life/STM32Cube/Repository/STM32Cube_FW_F4_V1.26.2/Middlewares/Third_Party/LwIP/src/core/ipv4\etharp.c ****  * 2. Redistributions in binary form must reproduce the above copyright notice,
  26:c:/Users/Black_Life/STM32Cube/Repository/STM32Cube_FW_F4_V1.26.2/Middlewares/Third_Party/LwIP/src/core/ipv4\etharp.c ****  *    this list of conditions and the following disclaimer in the documentation
  27:c:/Users/Black_Life/STM32Cube/Repository/STM32Cube_FW_F4_V1.26.2/Middlewares/Third_Party/LwIP/src/core/ipv4\etharp.c ****  *    and/or other materials provided with the distribution.
  28:c:/Users/Black_Life/STM32Cube/Repository/STM32Cube_FW_F4_V1.26.2/Middlewares/Third_Party/LwIP/src/core/ipv4\etharp.c ****  * 3. The name of the author may not be used to endorse or promote products
  29:c:/Users/Black_Life/STM32Cube/Repository/STM32Cube_FW_F4_V1.26.2/Middlewares/Third_Party/LwIP/src/core/ipv4\etharp.c ****  *    derived from this software without specific prior written permission.
  30:c:/Users/Black_Life/STM32Cube/Repository/STM32Cube_FW_F4_V1.26.2/Middlewares/Third_Party/LwIP/src/core/ipv4\etharp.c ****  *
ARM GAS  C:\Users\BLACK_~1\AppData\Local\Temp\ccrhXwwe.s 			page 2


  31:c:/Users/Black_Life/STM32Cube/Repository/STM32Cube_FW_F4_V1.26.2/Middlewares/Third_Party/LwIP/src/core/ipv4\etharp.c ****  * THIS SOFTWARE IS PROVIDED BY THE AUTHOR ``AS IS'' AND ANY EXPRESS OR IMPLIED
  32:c:/Users/Black_Life/STM32Cube/Repository/STM32Cube_FW_F4_V1.26.2/Middlewares/Third_Party/LwIP/src/core/ipv4\etharp.c ****  * WARRANTIES, INCLUDING, BUT NOT LIMITED TO, THE IMPLIED WARRANTIES OF
  33:c:/Users/Black_Life/STM32Cube/Repository/STM32Cube_FW_F4_V1.26.2/Middlewares/Third_Party/LwIP/src/core/ipv4\etharp.c ****  * MERCHANTABILITY AND FITNESS FOR A PARTICULAR PURPOSE ARE DISCLAIMED. IN NO EVENT
  34:c:/Users/Black_Life/STM32Cube/Repository/STM32Cube_FW_F4_V1.26.2/Middlewares/Third_Party/LwIP/src/core/ipv4\etharp.c ****  * SHALL THE AUTHOR BE LIABLE FOR ANY DIRECT, INDIRECT, INCIDENTAL, SPECIAL,
  35:c:/Users/Black_Life/STM32Cube/Repository/STM32Cube_FW_F4_V1.26.2/Middlewares/Third_Party/LwIP/src/core/ipv4\etharp.c ****  * EXEMPLARY, OR CONSEQUENTIAL DAMAGES (INCLUDING, BUT NOT LIMITED TO, PROCUREMENT
  36:c:/Users/Black_Life/STM32Cube/Repository/STM32Cube_FW_F4_V1.26.2/Middlewares/Third_Party/LwIP/src/core/ipv4\etharp.c ****  * OF SUBSTITUTE GOODS OR SERVICES; LOSS OF USE, DATA, OR PROFITS; OR BUSINESS
  37:c:/Users/Black_Life/STM32Cube/Repository/STM32Cube_FW_F4_V1.26.2/Middlewares/Third_Party/LwIP/src/core/ipv4\etharp.c ****  * INTERRUPTION) HOWEVER CAUSED AND ON ANY THEORY OF LIABILITY, WHETHER IN
  38:c:/Users/Black_Life/STM32Cube/Repository/STM32Cube_FW_F4_V1.26.2/Middlewares/Third_Party/LwIP/src/core/ipv4\etharp.c ****  * CONTRACT, STRICT LIABILITY, OR TORT (INCLUDING NEGLIGENCE OR OTHERWISE) ARISING
  39:c:/Users/Black_Life/STM32Cube/Repository/STM32Cube_FW_F4_V1.26.2/Middlewares/Third_Party/LwIP/src/core/ipv4\etharp.c ****  * IN ANY WAY OUT OF THE USE OF THIS SOFTWARE, EVEN IF ADVISED OF THE POSSIBILITY
  40:c:/Users/Black_Life/STM32Cube/Repository/STM32Cube_FW_F4_V1.26.2/Middlewares/Third_Party/LwIP/src/core/ipv4\etharp.c ****  * OF SUCH DAMAGE.
  41:c:/Users/Black_Life/STM32Cube/Repository/STM32Cube_FW_F4_V1.26.2/Middlewares/Third_Party/LwIP/src/core/ipv4\etharp.c ****  *
  42:c:/Users/Black_Life/STM32Cube/Repository/STM32Cube_FW_F4_V1.26.2/Middlewares/Third_Party/LwIP/src/core/ipv4\etharp.c ****  * This file is part of the lwIP TCP/IP stack.
  43:c:/Users/Black_Life/STM32Cube/Repository/STM32Cube_FW_F4_V1.26.2/Middlewares/Third_Party/LwIP/src/core/ipv4\etharp.c ****  *
  44:c:/Users/Black_Life/STM32Cube/Repository/STM32Cube_FW_F4_V1.26.2/Middlewares/Third_Party/LwIP/src/core/ipv4\etharp.c ****  */
  45:c:/Users/Black_Life/STM32Cube/Repository/STM32Cube_FW_F4_V1.26.2/Middlewares/Third_Party/LwIP/src/core/ipv4\etharp.c **** 
  46:c:/Users/Black_Life/STM32Cube/Repository/STM32Cube_FW_F4_V1.26.2/Middlewares/Third_Party/LwIP/src/core/ipv4\etharp.c **** #include "lwip/opt.h"
  47:c:/Users/Black_Life/STM32Cube/Repository/STM32Cube_FW_F4_V1.26.2/Middlewares/Third_Party/LwIP/src/core/ipv4\etharp.c **** 
  48:c:/Users/Black_Life/STM32Cube/Repository/STM32Cube_FW_F4_V1.26.2/Middlewares/Third_Party/LwIP/src/core/ipv4\etharp.c **** #if LWIP_IPV4 && LWIP_ARP /* don't build if not configured for use in lwipopts.h */
  49:c:/Users/Black_Life/STM32Cube/Repository/STM32Cube_FW_F4_V1.26.2/Middlewares/Third_Party/LwIP/src/core/ipv4\etharp.c **** 
  50:c:/Users/Black_Life/STM32Cube/Repository/STM32Cube_FW_F4_V1.26.2/Middlewares/Third_Party/LwIP/src/core/ipv4\etharp.c **** #include "lwip/etharp.h"
  51:c:/Users/Black_Life/STM32Cube/Repository/STM32Cube_FW_F4_V1.26.2/Middlewares/Third_Party/LwIP/src/core/ipv4\etharp.c **** #include "lwip/stats.h"
  52:c:/Users/Black_Life/STM32Cube/Repository/STM32Cube_FW_F4_V1.26.2/Middlewares/Third_Party/LwIP/src/core/ipv4\etharp.c **** #include "lwip/snmp.h"
  53:c:/Users/Black_Life/STM32Cube/Repository/STM32Cube_FW_F4_V1.26.2/Middlewares/Third_Party/LwIP/src/core/ipv4\etharp.c **** #include "lwip/dhcp.h"
  54:c:/Users/Black_Life/STM32Cube/Repository/STM32Cube_FW_F4_V1.26.2/Middlewares/Third_Party/LwIP/src/core/ipv4\etharp.c **** #include "lwip/autoip.h"
  55:c:/Users/Black_Life/STM32Cube/Repository/STM32Cube_FW_F4_V1.26.2/Middlewares/Third_Party/LwIP/src/core/ipv4\etharp.c **** #include "lwip/prot/iana.h"
  56:c:/Users/Black_Life/STM32Cube/Repository/STM32Cube_FW_F4_V1.26.2/Middlewares/Third_Party/LwIP/src/core/ipv4\etharp.c **** #include "netif/ethernet.h"
  57:c:/Users/Black_Life/STM32Cube/Repository/STM32Cube_FW_F4_V1.26.2/Middlewares/Third_Party/LwIP/src/core/ipv4\etharp.c **** 
  58:c:/Users/Black_Life/STM32Cube/Repository/STM32Cube_FW_F4_V1.26.2/Middlewares/Third_Party/LwIP/src/core/ipv4\etharp.c **** #include <string.h>
  59:c:/Users/Black_Life/STM32Cube/Repository/STM32Cube_FW_F4_V1.26.2/Middlewares/Third_Party/LwIP/src/core/ipv4\etharp.c **** 
  60:c:/Users/Black_Life/STM32Cube/Repository/STM32Cube_FW_F4_V1.26.2/Middlewares/Third_Party/LwIP/src/core/ipv4\etharp.c **** #ifdef LWIP_HOOK_FILENAME
  61:c:/Users/Black_Life/STM32Cube/Repository/STM32Cube_FW_F4_V1.26.2/Middlewares/Third_Party/LwIP/src/core/ipv4\etharp.c **** #include LWIP_HOOK_FILENAME
  62:c:/Users/Black_Life/STM32Cube/Repository/STM32Cube_FW_F4_V1.26.2/Middlewares/Third_Party/LwIP/src/core/ipv4\etharp.c **** #endif
  63:c:/Users/Black_Life/STM32Cube/Repository/STM32Cube_FW_F4_V1.26.2/Middlewares/Third_Party/LwIP/src/core/ipv4\etharp.c **** 
  64:c:/Users/Black_Life/STM32Cube/Repository/STM32Cube_FW_F4_V1.26.2/Middlewares/Third_Party/LwIP/src/core/ipv4\etharp.c **** /** Re-request a used ARP entry 1 minute before it would expire to prevent
  65:c:/Users/Black_Life/STM32Cube/Repository/STM32Cube_FW_F4_V1.26.2/Middlewares/Third_Party/LwIP/src/core/ipv4\etharp.c ****  *  breaking a steadily used connection because the ARP entry timed out. */
  66:c:/Users/Black_Life/STM32Cube/Repository/STM32Cube_FW_F4_V1.26.2/Middlewares/Third_Party/LwIP/src/core/ipv4\etharp.c **** #define ARP_AGE_REREQUEST_USED_UNICAST   (ARP_MAXAGE - 30)
  67:c:/Users/Black_Life/STM32Cube/Repository/STM32Cube_FW_F4_V1.26.2/Middlewares/Third_Party/LwIP/src/core/ipv4\etharp.c **** #define ARP_AGE_REREQUEST_USED_BROADCAST (ARP_MAXAGE - 15)
  68:c:/Users/Black_Life/STM32Cube/Repository/STM32Cube_FW_F4_V1.26.2/Middlewares/Third_Party/LwIP/src/core/ipv4\etharp.c **** 
  69:c:/Users/Black_Life/STM32Cube/Repository/STM32Cube_FW_F4_V1.26.2/Middlewares/Third_Party/LwIP/src/core/ipv4\etharp.c **** /** the time an ARP entry stays pending after first request,
  70:c:/Users/Black_Life/STM32Cube/Repository/STM32Cube_FW_F4_V1.26.2/Middlewares/Third_Party/LwIP/src/core/ipv4\etharp.c ****  *  for ARP_TMR_INTERVAL = 1000, this is
  71:c:/Users/Black_Life/STM32Cube/Repository/STM32Cube_FW_F4_V1.26.2/Middlewares/Third_Party/LwIP/src/core/ipv4\etharp.c ****  *  10 seconds.
  72:c:/Users/Black_Life/STM32Cube/Repository/STM32Cube_FW_F4_V1.26.2/Middlewares/Third_Party/LwIP/src/core/ipv4\etharp.c ****  *
  73:c:/Users/Black_Life/STM32Cube/Repository/STM32Cube_FW_F4_V1.26.2/Middlewares/Third_Party/LwIP/src/core/ipv4\etharp.c ****  *  @internal Keep this number at least 2, otherwise it might
  74:c:/Users/Black_Life/STM32Cube/Repository/STM32Cube_FW_F4_V1.26.2/Middlewares/Third_Party/LwIP/src/core/ipv4\etharp.c ****  *  run out instantly if the timeout occurs directly after a request.
  75:c:/Users/Black_Life/STM32Cube/Repository/STM32Cube_FW_F4_V1.26.2/Middlewares/Third_Party/LwIP/src/core/ipv4\etharp.c ****  */
  76:c:/Users/Black_Life/STM32Cube/Repository/STM32Cube_FW_F4_V1.26.2/Middlewares/Third_Party/LwIP/src/core/ipv4\etharp.c **** #define ARP_MAXPENDING 5
  77:c:/Users/Black_Life/STM32Cube/Repository/STM32Cube_FW_F4_V1.26.2/Middlewares/Third_Party/LwIP/src/core/ipv4\etharp.c **** 
  78:c:/Users/Black_Life/STM32Cube/Repository/STM32Cube_FW_F4_V1.26.2/Middlewares/Third_Party/LwIP/src/core/ipv4\etharp.c **** /** ARP states */
  79:c:/Users/Black_Life/STM32Cube/Repository/STM32Cube_FW_F4_V1.26.2/Middlewares/Third_Party/LwIP/src/core/ipv4\etharp.c **** enum etharp_state {
  80:c:/Users/Black_Life/STM32Cube/Repository/STM32Cube_FW_F4_V1.26.2/Middlewares/Third_Party/LwIP/src/core/ipv4\etharp.c ****   ETHARP_STATE_EMPTY = 0,
  81:c:/Users/Black_Life/STM32Cube/Repository/STM32Cube_FW_F4_V1.26.2/Middlewares/Third_Party/LwIP/src/core/ipv4\etharp.c ****   ETHARP_STATE_PENDING,
  82:c:/Users/Black_Life/STM32Cube/Repository/STM32Cube_FW_F4_V1.26.2/Middlewares/Third_Party/LwIP/src/core/ipv4\etharp.c ****   ETHARP_STATE_STABLE,
  83:c:/Users/Black_Life/STM32Cube/Repository/STM32Cube_FW_F4_V1.26.2/Middlewares/Third_Party/LwIP/src/core/ipv4\etharp.c ****   ETHARP_STATE_STABLE_REREQUESTING_1,
  84:c:/Users/Black_Life/STM32Cube/Repository/STM32Cube_FW_F4_V1.26.2/Middlewares/Third_Party/LwIP/src/core/ipv4\etharp.c ****   ETHARP_STATE_STABLE_REREQUESTING_2
  85:c:/Users/Black_Life/STM32Cube/Repository/STM32Cube_FW_F4_V1.26.2/Middlewares/Third_Party/LwIP/src/core/ipv4\etharp.c **** #if ETHARP_SUPPORT_STATIC_ENTRIES
  86:c:/Users/Black_Life/STM32Cube/Repository/STM32Cube_FW_F4_V1.26.2/Middlewares/Third_Party/LwIP/src/core/ipv4\etharp.c ****   , ETHARP_STATE_STATIC
  87:c:/Users/Black_Life/STM32Cube/Repository/STM32Cube_FW_F4_V1.26.2/Middlewares/Third_Party/LwIP/src/core/ipv4\etharp.c **** #endif /* ETHARP_SUPPORT_STATIC_ENTRIES */
ARM GAS  C:\Users\BLACK_~1\AppData\Local\Temp\ccrhXwwe.s 			page 3


  88:c:/Users/Black_Life/STM32Cube/Repository/STM32Cube_FW_F4_V1.26.2/Middlewares/Third_Party/LwIP/src/core/ipv4\etharp.c **** };
  89:c:/Users/Black_Life/STM32Cube/Repository/STM32Cube_FW_F4_V1.26.2/Middlewares/Third_Party/LwIP/src/core/ipv4\etharp.c **** 
  90:c:/Users/Black_Life/STM32Cube/Repository/STM32Cube_FW_F4_V1.26.2/Middlewares/Third_Party/LwIP/src/core/ipv4\etharp.c **** struct etharp_entry {
  91:c:/Users/Black_Life/STM32Cube/Repository/STM32Cube_FW_F4_V1.26.2/Middlewares/Third_Party/LwIP/src/core/ipv4\etharp.c **** #if ARP_QUEUEING
  92:c:/Users/Black_Life/STM32Cube/Repository/STM32Cube_FW_F4_V1.26.2/Middlewares/Third_Party/LwIP/src/core/ipv4\etharp.c ****   /** Pointer to queue of pending outgoing packets on this ARP entry. */
  93:c:/Users/Black_Life/STM32Cube/Repository/STM32Cube_FW_F4_V1.26.2/Middlewares/Third_Party/LwIP/src/core/ipv4\etharp.c ****   struct etharp_q_entry *q;
  94:c:/Users/Black_Life/STM32Cube/Repository/STM32Cube_FW_F4_V1.26.2/Middlewares/Third_Party/LwIP/src/core/ipv4\etharp.c **** #else /* ARP_QUEUEING */
  95:c:/Users/Black_Life/STM32Cube/Repository/STM32Cube_FW_F4_V1.26.2/Middlewares/Third_Party/LwIP/src/core/ipv4\etharp.c ****   /** Pointer to a single pending outgoing packet on this ARP entry. */
  96:c:/Users/Black_Life/STM32Cube/Repository/STM32Cube_FW_F4_V1.26.2/Middlewares/Third_Party/LwIP/src/core/ipv4\etharp.c ****   struct pbuf *q;
  97:c:/Users/Black_Life/STM32Cube/Repository/STM32Cube_FW_F4_V1.26.2/Middlewares/Third_Party/LwIP/src/core/ipv4\etharp.c **** #endif /* ARP_QUEUEING */
  98:c:/Users/Black_Life/STM32Cube/Repository/STM32Cube_FW_F4_V1.26.2/Middlewares/Third_Party/LwIP/src/core/ipv4\etharp.c ****   ip4_addr_t ipaddr;
  99:c:/Users/Black_Life/STM32Cube/Repository/STM32Cube_FW_F4_V1.26.2/Middlewares/Third_Party/LwIP/src/core/ipv4\etharp.c ****   struct netif *netif;
 100:c:/Users/Black_Life/STM32Cube/Repository/STM32Cube_FW_F4_V1.26.2/Middlewares/Third_Party/LwIP/src/core/ipv4\etharp.c ****   struct eth_addr ethaddr;
 101:c:/Users/Black_Life/STM32Cube/Repository/STM32Cube_FW_F4_V1.26.2/Middlewares/Third_Party/LwIP/src/core/ipv4\etharp.c ****   u16_t ctime;
 102:c:/Users/Black_Life/STM32Cube/Repository/STM32Cube_FW_F4_V1.26.2/Middlewares/Third_Party/LwIP/src/core/ipv4\etharp.c ****   u8_t state;
 103:c:/Users/Black_Life/STM32Cube/Repository/STM32Cube_FW_F4_V1.26.2/Middlewares/Third_Party/LwIP/src/core/ipv4\etharp.c **** };
 104:c:/Users/Black_Life/STM32Cube/Repository/STM32Cube_FW_F4_V1.26.2/Middlewares/Third_Party/LwIP/src/core/ipv4\etharp.c **** 
 105:c:/Users/Black_Life/STM32Cube/Repository/STM32Cube_FW_F4_V1.26.2/Middlewares/Third_Party/LwIP/src/core/ipv4\etharp.c **** static struct etharp_entry arp_table[ARP_TABLE_SIZE];
 106:c:/Users/Black_Life/STM32Cube/Repository/STM32Cube_FW_F4_V1.26.2/Middlewares/Third_Party/LwIP/src/core/ipv4\etharp.c **** 
 107:c:/Users/Black_Life/STM32Cube/Repository/STM32Cube_FW_F4_V1.26.2/Middlewares/Third_Party/LwIP/src/core/ipv4\etharp.c **** #if !LWIP_NETIF_HWADDRHINT
 108:c:/Users/Black_Life/STM32Cube/Repository/STM32Cube_FW_F4_V1.26.2/Middlewares/Third_Party/LwIP/src/core/ipv4\etharp.c **** static netif_addr_idx_t etharp_cached_entry;
 109:c:/Users/Black_Life/STM32Cube/Repository/STM32Cube_FW_F4_V1.26.2/Middlewares/Third_Party/LwIP/src/core/ipv4\etharp.c **** #endif /* !LWIP_NETIF_HWADDRHINT */
 110:c:/Users/Black_Life/STM32Cube/Repository/STM32Cube_FW_F4_V1.26.2/Middlewares/Third_Party/LwIP/src/core/ipv4\etharp.c **** 
 111:c:/Users/Black_Life/STM32Cube/Repository/STM32Cube_FW_F4_V1.26.2/Middlewares/Third_Party/LwIP/src/core/ipv4\etharp.c **** /** Try hard to create a new entry - we want the IP address to appear in
 112:c:/Users/Black_Life/STM32Cube/Repository/STM32Cube_FW_F4_V1.26.2/Middlewares/Third_Party/LwIP/src/core/ipv4\etharp.c ****     the cache (even if this means removing an active entry or so). */
 113:c:/Users/Black_Life/STM32Cube/Repository/STM32Cube_FW_F4_V1.26.2/Middlewares/Third_Party/LwIP/src/core/ipv4\etharp.c **** #define ETHARP_FLAG_TRY_HARD     1
 114:c:/Users/Black_Life/STM32Cube/Repository/STM32Cube_FW_F4_V1.26.2/Middlewares/Third_Party/LwIP/src/core/ipv4\etharp.c **** #define ETHARP_FLAG_FIND_ONLY    2
 115:c:/Users/Black_Life/STM32Cube/Repository/STM32Cube_FW_F4_V1.26.2/Middlewares/Third_Party/LwIP/src/core/ipv4\etharp.c **** #if ETHARP_SUPPORT_STATIC_ENTRIES
 116:c:/Users/Black_Life/STM32Cube/Repository/STM32Cube_FW_F4_V1.26.2/Middlewares/Third_Party/LwIP/src/core/ipv4\etharp.c **** #define ETHARP_FLAG_STATIC_ENTRY 4
 117:c:/Users/Black_Life/STM32Cube/Repository/STM32Cube_FW_F4_V1.26.2/Middlewares/Third_Party/LwIP/src/core/ipv4\etharp.c **** #endif /* ETHARP_SUPPORT_STATIC_ENTRIES */
 118:c:/Users/Black_Life/STM32Cube/Repository/STM32Cube_FW_F4_V1.26.2/Middlewares/Third_Party/LwIP/src/core/ipv4\etharp.c **** 
 119:c:/Users/Black_Life/STM32Cube/Repository/STM32Cube_FW_F4_V1.26.2/Middlewares/Third_Party/LwIP/src/core/ipv4\etharp.c **** #if LWIP_NETIF_HWADDRHINT
 120:c:/Users/Black_Life/STM32Cube/Repository/STM32Cube_FW_F4_V1.26.2/Middlewares/Third_Party/LwIP/src/core/ipv4\etharp.c **** #define ETHARP_SET_ADDRHINT(netif, addrhint)  do { if (((netif) != NULL) && ((netif)->hints != NULL
 121:c:/Users/Black_Life/STM32Cube/Repository/STM32Cube_FW_F4_V1.26.2/Middlewares/Third_Party/LwIP/src/core/ipv4\etharp.c ****                                               (netif)->hints->addr_hint = (addrhint); }} while(0)
 122:c:/Users/Black_Life/STM32Cube/Repository/STM32Cube_FW_F4_V1.26.2/Middlewares/Third_Party/LwIP/src/core/ipv4\etharp.c **** #else /* LWIP_NETIF_HWADDRHINT */
 123:c:/Users/Black_Life/STM32Cube/Repository/STM32Cube_FW_F4_V1.26.2/Middlewares/Third_Party/LwIP/src/core/ipv4\etharp.c **** #define ETHARP_SET_ADDRHINT(netif, addrhint)  (etharp_cached_entry = (addrhint))
 124:c:/Users/Black_Life/STM32Cube/Repository/STM32Cube_FW_F4_V1.26.2/Middlewares/Third_Party/LwIP/src/core/ipv4\etharp.c **** #endif /* LWIP_NETIF_HWADDRHINT */
 125:c:/Users/Black_Life/STM32Cube/Repository/STM32Cube_FW_F4_V1.26.2/Middlewares/Third_Party/LwIP/src/core/ipv4\etharp.c **** 
 126:c:/Users/Black_Life/STM32Cube/Repository/STM32Cube_FW_F4_V1.26.2/Middlewares/Third_Party/LwIP/src/core/ipv4\etharp.c **** 
 127:c:/Users/Black_Life/STM32Cube/Repository/STM32Cube_FW_F4_V1.26.2/Middlewares/Third_Party/LwIP/src/core/ipv4\etharp.c **** /* Check for maximum ARP_TABLE_SIZE */
 128:c:/Users/Black_Life/STM32Cube/Repository/STM32Cube_FW_F4_V1.26.2/Middlewares/Third_Party/LwIP/src/core/ipv4\etharp.c **** #if (ARP_TABLE_SIZE > NETIF_ADDR_IDX_MAX)
 129:c:/Users/Black_Life/STM32Cube/Repository/STM32Cube_FW_F4_V1.26.2/Middlewares/Third_Party/LwIP/src/core/ipv4\etharp.c **** #error "ARP_TABLE_SIZE must fit in an s16_t, you have to reduce it in your lwipopts.h"
 130:c:/Users/Black_Life/STM32Cube/Repository/STM32Cube_FW_F4_V1.26.2/Middlewares/Third_Party/LwIP/src/core/ipv4\etharp.c **** #endif
 131:c:/Users/Black_Life/STM32Cube/Repository/STM32Cube_FW_F4_V1.26.2/Middlewares/Third_Party/LwIP/src/core/ipv4\etharp.c **** 
 132:c:/Users/Black_Life/STM32Cube/Repository/STM32Cube_FW_F4_V1.26.2/Middlewares/Third_Party/LwIP/src/core/ipv4\etharp.c **** 
 133:c:/Users/Black_Life/STM32Cube/Repository/STM32Cube_FW_F4_V1.26.2/Middlewares/Third_Party/LwIP/src/core/ipv4\etharp.c **** static err_t etharp_request_dst(struct netif *netif, const ip4_addr_t *ipaddr, const struct eth_add
 134:c:/Users/Black_Life/STM32Cube/Repository/STM32Cube_FW_F4_V1.26.2/Middlewares/Third_Party/LwIP/src/core/ipv4\etharp.c **** static err_t etharp_raw(struct netif *netif,
 135:c:/Users/Black_Life/STM32Cube/Repository/STM32Cube_FW_F4_V1.26.2/Middlewares/Third_Party/LwIP/src/core/ipv4\etharp.c ****                         const struct eth_addr *ethsrc_addr, const struct eth_addr *ethdst_addr,
 136:c:/Users/Black_Life/STM32Cube/Repository/STM32Cube_FW_F4_V1.26.2/Middlewares/Third_Party/LwIP/src/core/ipv4\etharp.c ****                         const struct eth_addr *hwsrc_addr, const ip4_addr_t *ipsrc_addr,
 137:c:/Users/Black_Life/STM32Cube/Repository/STM32Cube_FW_F4_V1.26.2/Middlewares/Third_Party/LwIP/src/core/ipv4\etharp.c ****                         const struct eth_addr *hwdst_addr, const ip4_addr_t *ipdst_addr,
 138:c:/Users/Black_Life/STM32Cube/Repository/STM32Cube_FW_F4_V1.26.2/Middlewares/Third_Party/LwIP/src/core/ipv4\etharp.c ****                         const u16_t opcode);
 139:c:/Users/Black_Life/STM32Cube/Repository/STM32Cube_FW_F4_V1.26.2/Middlewares/Third_Party/LwIP/src/core/ipv4\etharp.c **** 
 140:c:/Users/Black_Life/STM32Cube/Repository/STM32Cube_FW_F4_V1.26.2/Middlewares/Third_Party/LwIP/src/core/ipv4\etharp.c **** #if ARP_QUEUEING
 141:c:/Users/Black_Life/STM32Cube/Repository/STM32Cube_FW_F4_V1.26.2/Middlewares/Third_Party/LwIP/src/core/ipv4\etharp.c **** /**
 142:c:/Users/Black_Life/STM32Cube/Repository/STM32Cube_FW_F4_V1.26.2/Middlewares/Third_Party/LwIP/src/core/ipv4\etharp.c ****  * Free a complete queue of etharp entries
 143:c:/Users/Black_Life/STM32Cube/Repository/STM32Cube_FW_F4_V1.26.2/Middlewares/Third_Party/LwIP/src/core/ipv4\etharp.c ****  *
 144:c:/Users/Black_Life/STM32Cube/Repository/STM32Cube_FW_F4_V1.26.2/Middlewares/Third_Party/LwIP/src/core/ipv4\etharp.c ****  * @param q a qeueue of etharp_q_entry's to free
ARM GAS  C:\Users\BLACK_~1\AppData\Local\Temp\ccrhXwwe.s 			page 4


 145:c:/Users/Black_Life/STM32Cube/Repository/STM32Cube_FW_F4_V1.26.2/Middlewares/Third_Party/LwIP/src/core/ipv4\etharp.c ****  */
 146:c:/Users/Black_Life/STM32Cube/Repository/STM32Cube_FW_F4_V1.26.2/Middlewares/Third_Party/LwIP/src/core/ipv4\etharp.c **** static void
 147:c:/Users/Black_Life/STM32Cube/Repository/STM32Cube_FW_F4_V1.26.2/Middlewares/Third_Party/LwIP/src/core/ipv4\etharp.c **** free_etharp_q(struct etharp_q_entry *q)
 148:c:/Users/Black_Life/STM32Cube/Repository/STM32Cube_FW_F4_V1.26.2/Middlewares/Third_Party/LwIP/src/core/ipv4\etharp.c **** {
 149:c:/Users/Black_Life/STM32Cube/Repository/STM32Cube_FW_F4_V1.26.2/Middlewares/Third_Party/LwIP/src/core/ipv4\etharp.c ****   struct etharp_q_entry *r;
 150:c:/Users/Black_Life/STM32Cube/Repository/STM32Cube_FW_F4_V1.26.2/Middlewares/Third_Party/LwIP/src/core/ipv4\etharp.c ****   LWIP_ASSERT("q != NULL", q != NULL);
 151:c:/Users/Black_Life/STM32Cube/Repository/STM32Cube_FW_F4_V1.26.2/Middlewares/Third_Party/LwIP/src/core/ipv4\etharp.c ****   while (q) {
 152:c:/Users/Black_Life/STM32Cube/Repository/STM32Cube_FW_F4_V1.26.2/Middlewares/Third_Party/LwIP/src/core/ipv4\etharp.c ****     r = q;
 153:c:/Users/Black_Life/STM32Cube/Repository/STM32Cube_FW_F4_V1.26.2/Middlewares/Third_Party/LwIP/src/core/ipv4\etharp.c ****     q = q->next;
 154:c:/Users/Black_Life/STM32Cube/Repository/STM32Cube_FW_F4_V1.26.2/Middlewares/Third_Party/LwIP/src/core/ipv4\etharp.c ****     LWIP_ASSERT("r->p != NULL", (r->p != NULL));
 155:c:/Users/Black_Life/STM32Cube/Repository/STM32Cube_FW_F4_V1.26.2/Middlewares/Third_Party/LwIP/src/core/ipv4\etharp.c ****     pbuf_free(r->p);
 156:c:/Users/Black_Life/STM32Cube/Repository/STM32Cube_FW_F4_V1.26.2/Middlewares/Third_Party/LwIP/src/core/ipv4\etharp.c ****     memp_free(MEMP_ARP_QUEUE, r);
 157:c:/Users/Black_Life/STM32Cube/Repository/STM32Cube_FW_F4_V1.26.2/Middlewares/Third_Party/LwIP/src/core/ipv4\etharp.c ****   }
 158:c:/Users/Black_Life/STM32Cube/Repository/STM32Cube_FW_F4_V1.26.2/Middlewares/Third_Party/LwIP/src/core/ipv4\etharp.c **** }
 159:c:/Users/Black_Life/STM32Cube/Repository/STM32Cube_FW_F4_V1.26.2/Middlewares/Third_Party/LwIP/src/core/ipv4\etharp.c **** #else /* ARP_QUEUEING */
 160:c:/Users/Black_Life/STM32Cube/Repository/STM32Cube_FW_F4_V1.26.2/Middlewares/Third_Party/LwIP/src/core/ipv4\etharp.c **** 
 161:c:/Users/Black_Life/STM32Cube/Repository/STM32Cube_FW_F4_V1.26.2/Middlewares/Third_Party/LwIP/src/core/ipv4\etharp.c **** /** Compatibility define: free the queued pbuf */
 162:c:/Users/Black_Life/STM32Cube/Repository/STM32Cube_FW_F4_V1.26.2/Middlewares/Third_Party/LwIP/src/core/ipv4\etharp.c **** #define free_etharp_q(q) pbuf_free(q)
 163:c:/Users/Black_Life/STM32Cube/Repository/STM32Cube_FW_F4_V1.26.2/Middlewares/Third_Party/LwIP/src/core/ipv4\etharp.c **** 
 164:c:/Users/Black_Life/STM32Cube/Repository/STM32Cube_FW_F4_V1.26.2/Middlewares/Third_Party/LwIP/src/core/ipv4\etharp.c **** #endif /* ARP_QUEUEING */
 165:c:/Users/Black_Life/STM32Cube/Repository/STM32Cube_FW_F4_V1.26.2/Middlewares/Third_Party/LwIP/src/core/ipv4\etharp.c **** 
 166:c:/Users/Black_Life/STM32Cube/Repository/STM32Cube_FW_F4_V1.26.2/Middlewares/Third_Party/LwIP/src/core/ipv4\etharp.c **** /** Clean up ARP table entries */
 167:c:/Users/Black_Life/STM32Cube/Repository/STM32Cube_FW_F4_V1.26.2/Middlewares/Third_Party/LwIP/src/core/ipv4\etharp.c **** static void
 168:c:/Users/Black_Life/STM32Cube/Repository/STM32Cube_FW_F4_V1.26.2/Middlewares/Third_Party/LwIP/src/core/ipv4\etharp.c **** etharp_free_entry(int i)
 169:c:/Users/Black_Life/STM32Cube/Repository/STM32Cube_FW_F4_V1.26.2/Middlewares/Third_Party/LwIP/src/core/ipv4\etharp.c **** {
  29              		.loc 1 169 1 view -0
  30              		.cfi_startproc
  31              		@ args = 0, pretend = 0, frame = 0
  32              		@ frame_needed = 0, uses_anonymous_args = 0
  33              		.loc 1 169 1 is_stmt 0 view .LVU1
  34 0000 10B5     		push	{r4, lr}
  35              	.LCFI0:
  36              		.cfi_def_cfa_offset 8
  37              		.cfi_offset 4, -8
  38              		.cfi_offset 14, -4
  39 0002 0446     		mov	r4, r0
 170:c:/Users/Black_Life/STM32Cube/Repository/STM32Cube_FW_F4_V1.26.2/Middlewares/Third_Party/LwIP/src/core/ipv4\etharp.c ****   /* remove from SNMP ARP index tree */
 171:c:/Users/Black_Life/STM32Cube/Repository/STM32Cube_FW_F4_V1.26.2/Middlewares/Third_Party/LwIP/src/core/ipv4\etharp.c ****   mib2_remove_arp_entry(arp_table[i].netif, &arp_table[i].ipaddr);
  40              		.loc 1 171 66 is_stmt 1 view .LVU2
 172:c:/Users/Black_Life/STM32Cube/Repository/STM32Cube_FW_F4_V1.26.2/Middlewares/Third_Party/LwIP/src/core/ipv4\etharp.c ****   /* and empty packet queue */
 173:c:/Users/Black_Life/STM32Cube/Repository/STM32Cube_FW_F4_V1.26.2/Middlewares/Third_Party/LwIP/src/core/ipv4\etharp.c ****   if (arp_table[i].q != NULL) {
  41              		.loc 1 173 3 view .LVU3
  42              		.loc 1 173 19 is_stmt 0 view .LVU4
  43 0004 00EB4002 		add	r2, r0, r0, lsl #1
  44 0008 094B     		ldr	r3, .L4
  45 000a 53F83200 		ldr	r0, [r3, r2, lsl #3]
  46              	.LVL1:
  47              		.loc 1 173 6 view .LVU5
  48 000e 38B1     		cbz	r0, .L2
 174:c:/Users/Black_Life/STM32Cube/Repository/STM32Cube_FW_F4_V1.26.2/Middlewares/Third_Party/LwIP/src/core/ipv4\etharp.c ****     /* remove all queued packets */
 175:c:/Users/Black_Life/STM32Cube/Repository/STM32Cube_FW_F4_V1.26.2/Middlewares/Third_Party/LwIP/src/core/ipv4\etharp.c ****     LWIP_DEBUGF(ETHARP_DEBUG, ("etharp_free_entry: freeing entry %"U16_F", packet queue %p.\n", (u1
  49              		.loc 1 175 133 is_stmt 1 view .LVU6
 176:c:/Users/Black_Life/STM32Cube/Repository/STM32Cube_FW_F4_V1.26.2/Middlewares/Third_Party/LwIP/src/core/ipv4\etharp.c ****     free_etharp_q(arp_table[i].q);
  50              		.loc 1 176 5 view .LVU7
  51 0010 FFF7FEFF 		bl	pbuf_free
  52              	.LVL2:
 177:c:/Users/Black_Life/STM32Cube/Repository/STM32Cube_FW_F4_V1.26.2/Middlewares/Third_Party/LwIP/src/core/ipv4\etharp.c ****     arp_table[i].q = NULL;
ARM GAS  C:\Users\BLACK_~1\AppData\Local\Temp\ccrhXwwe.s 			page 5


  53              		.loc 1 177 5 view .LVU8
  54              		.loc 1 177 20 is_stmt 0 view .LVU9
  55 0014 04EB4403 		add	r3, r4, r4, lsl #1
  56 0018 DB00     		lsls	r3, r3, #3
  57 001a 054A     		ldr	r2, .L4
  58 001c 0021     		movs	r1, #0
  59 001e D150     		str	r1, [r2, r3]
  60              	.L2:
 178:c:/Users/Black_Life/STM32Cube/Repository/STM32Cube_FW_F4_V1.26.2/Middlewares/Third_Party/LwIP/src/core/ipv4\etharp.c ****   }
 179:c:/Users/Black_Life/STM32Cube/Repository/STM32Cube_FW_F4_V1.26.2/Middlewares/Third_Party/LwIP/src/core/ipv4\etharp.c ****   /* recycle entry for re-use */
 180:c:/Users/Black_Life/STM32Cube/Repository/STM32Cube_FW_F4_V1.26.2/Middlewares/Third_Party/LwIP/src/core/ipv4\etharp.c ****   arp_table[i].state = ETHARP_STATE_EMPTY;
  61              		.loc 1 180 3 is_stmt 1 view .LVU10
  62              		.loc 1 180 22 is_stmt 0 view .LVU11
  63 0020 04EB4404 		add	r4, r4, r4, lsl #1
  64              	.LVL3:
  65              		.loc 1 180 22 view .LVU12
  66 0024 0248     		ldr	r0, .L4
  67 0026 00EBC404 		add	r4, r0, r4, lsl #3
  68 002a 0023     		movs	r3, #0
  69 002c 2375     		strb	r3, [r4, #20]
 181:c:/Users/Black_Life/STM32Cube/Repository/STM32Cube_FW_F4_V1.26.2/Middlewares/Third_Party/LwIP/src/core/ipv4\etharp.c **** #ifdef LWIP_DEBUG
 182:c:/Users/Black_Life/STM32Cube/Repository/STM32Cube_FW_F4_V1.26.2/Middlewares/Third_Party/LwIP/src/core/ipv4\etharp.c ****   /* for debugging, clean out the complete entry */
 183:c:/Users/Black_Life/STM32Cube/Repository/STM32Cube_FW_F4_V1.26.2/Middlewares/Third_Party/LwIP/src/core/ipv4\etharp.c ****   arp_table[i].ctime = 0;
 184:c:/Users/Black_Life/STM32Cube/Repository/STM32Cube_FW_F4_V1.26.2/Middlewares/Third_Party/LwIP/src/core/ipv4\etharp.c ****   arp_table[i].netif = NULL;
 185:c:/Users/Black_Life/STM32Cube/Repository/STM32Cube_FW_F4_V1.26.2/Middlewares/Third_Party/LwIP/src/core/ipv4\etharp.c ****   ip4_addr_set_zero(&arp_table[i].ipaddr);
 186:c:/Users/Black_Life/STM32Cube/Repository/STM32Cube_FW_F4_V1.26.2/Middlewares/Third_Party/LwIP/src/core/ipv4\etharp.c ****   arp_table[i].ethaddr = ethzero;
 187:c:/Users/Black_Life/STM32Cube/Repository/STM32Cube_FW_F4_V1.26.2/Middlewares/Third_Party/LwIP/src/core/ipv4\etharp.c **** #endif /* LWIP_DEBUG */
 188:c:/Users/Black_Life/STM32Cube/Repository/STM32Cube_FW_F4_V1.26.2/Middlewares/Third_Party/LwIP/src/core/ipv4\etharp.c **** }
  70              		.loc 1 188 1 view .LVU13
  71 002e 10BD     		pop	{r4, pc}
  72              	.L5:
  73              		.align	2
  74              	.L4:
  75 0030 00000000 		.word	.LANCHOR0
  76              		.cfi_endproc
  77              	.LFE156:
  79              		.section	.rodata.etharp_find_entry.str1.4,"aMS",%progbits,1
  80              		.align	2
  81              	.LC0:
  82 0000 633A2F55 		.ascii	"c:/Users/Black_Life/STM32Cube/Repository/STM32Cube_"
  82      73657273 
  82      2F426C61 
  82      636B5F4C 
  82      6966652F 
  83 0033 46575F46 		.ascii	"FW_F4_V1.26.2/Middlewares/Third_Party/LwIP/src/core"
  83      345F5631 
  83      2E32362E 
  83      322F4D69 
  83      64646C65 
  84 0066 2F697076 		.ascii	"/ipv4/etharp.c\000"
  84      342F6574 
  84      68617270 
  84      2E6300
  85 0075 000000   		.align	2
  86              	.LC1:
  87 0078 6172705F 		.ascii	"arp_table[i].q == NULL\000"
  87      7461626C 
ARM GAS  C:\Users\BLACK_~1\AppData\Local\Temp\ccrhXwwe.s 			page 6


  87      655B695D 
  87      2E71203D 
  87      3D204E55 
  88 008f 00       		.align	2
  89              	.LC2:
  90 0090 41737365 		.ascii	"Assertion \"%s\" failed at line %d in %s\012\000"
  90      7274696F 
  90      6E202225 
  90      73222066 
  90      61696C65 
  91              		.align	2
  92              	.LC3:
  93 00b8 69203C20 		.ascii	"i < ARP_TABLE_SIZE\000"
  93      4152505F 
  93      5441424C 
  93      455F5349 
  93      5A4500
  94 00cb 00       		.align	2
  95              	.LC4:
  96 00cc 6172705F 		.ascii	"arp_table[i].state == ETHARP_STATE_EMPTY\000"
  96      7461626C 
  96      655B695D 
  96      2E737461 
  96      7465203D 
  97              		.section	.text.etharp_find_entry,"ax",%progbits
  98              		.align	1
  99              		.syntax unified
 100              		.thumb
 101              		.thumb_func
 103              	etharp_find_entry:
 104              	.LVL4:
 105              	.LFB158:
 189:c:/Users/Black_Life/STM32Cube/Repository/STM32Cube_FW_F4_V1.26.2/Middlewares/Third_Party/LwIP/src/core/ipv4\etharp.c **** 
 190:c:/Users/Black_Life/STM32Cube/Repository/STM32Cube_FW_F4_V1.26.2/Middlewares/Third_Party/LwIP/src/core/ipv4\etharp.c **** /**
 191:c:/Users/Black_Life/STM32Cube/Repository/STM32Cube_FW_F4_V1.26.2/Middlewares/Third_Party/LwIP/src/core/ipv4\etharp.c ****  * Clears expired entries in the ARP table.
 192:c:/Users/Black_Life/STM32Cube/Repository/STM32Cube_FW_F4_V1.26.2/Middlewares/Third_Party/LwIP/src/core/ipv4\etharp.c ****  *
 193:c:/Users/Black_Life/STM32Cube/Repository/STM32Cube_FW_F4_V1.26.2/Middlewares/Third_Party/LwIP/src/core/ipv4\etharp.c ****  * This function should be called every ARP_TMR_INTERVAL milliseconds (1 second),
 194:c:/Users/Black_Life/STM32Cube/Repository/STM32Cube_FW_F4_V1.26.2/Middlewares/Third_Party/LwIP/src/core/ipv4\etharp.c ****  * in order to expire entries in the ARP table.
 195:c:/Users/Black_Life/STM32Cube/Repository/STM32Cube_FW_F4_V1.26.2/Middlewares/Third_Party/LwIP/src/core/ipv4\etharp.c ****  */
 196:c:/Users/Black_Life/STM32Cube/Repository/STM32Cube_FW_F4_V1.26.2/Middlewares/Third_Party/LwIP/src/core/ipv4\etharp.c **** void
 197:c:/Users/Black_Life/STM32Cube/Repository/STM32Cube_FW_F4_V1.26.2/Middlewares/Third_Party/LwIP/src/core/ipv4\etharp.c **** etharp_tmr(void)
 198:c:/Users/Black_Life/STM32Cube/Repository/STM32Cube_FW_F4_V1.26.2/Middlewares/Third_Party/LwIP/src/core/ipv4\etharp.c **** {
 199:c:/Users/Black_Life/STM32Cube/Repository/STM32Cube_FW_F4_V1.26.2/Middlewares/Third_Party/LwIP/src/core/ipv4\etharp.c ****   int i;
 200:c:/Users/Black_Life/STM32Cube/Repository/STM32Cube_FW_F4_V1.26.2/Middlewares/Third_Party/LwIP/src/core/ipv4\etharp.c **** 
 201:c:/Users/Black_Life/STM32Cube/Repository/STM32Cube_FW_F4_V1.26.2/Middlewares/Third_Party/LwIP/src/core/ipv4\etharp.c ****   LWIP_DEBUGF(ETHARP_DEBUG, ("etharp_timer\n"));
 202:c:/Users/Black_Life/STM32Cube/Repository/STM32Cube_FW_F4_V1.26.2/Middlewares/Third_Party/LwIP/src/core/ipv4\etharp.c ****   /* remove expired entries from the ARP table */
 203:c:/Users/Black_Life/STM32Cube/Repository/STM32Cube_FW_F4_V1.26.2/Middlewares/Third_Party/LwIP/src/core/ipv4\etharp.c ****   for (i = 0; i < ARP_TABLE_SIZE; ++i) {
 204:c:/Users/Black_Life/STM32Cube/Repository/STM32Cube_FW_F4_V1.26.2/Middlewares/Third_Party/LwIP/src/core/ipv4\etharp.c ****     u8_t state = arp_table[i].state;
 205:c:/Users/Black_Life/STM32Cube/Repository/STM32Cube_FW_F4_V1.26.2/Middlewares/Third_Party/LwIP/src/core/ipv4\etharp.c ****     if (state != ETHARP_STATE_EMPTY
 206:c:/Users/Black_Life/STM32Cube/Repository/STM32Cube_FW_F4_V1.26.2/Middlewares/Third_Party/LwIP/src/core/ipv4\etharp.c **** #if ETHARP_SUPPORT_STATIC_ENTRIES
 207:c:/Users/Black_Life/STM32Cube/Repository/STM32Cube_FW_F4_V1.26.2/Middlewares/Third_Party/LwIP/src/core/ipv4\etharp.c ****         && (state != ETHARP_STATE_STATIC)
 208:c:/Users/Black_Life/STM32Cube/Repository/STM32Cube_FW_F4_V1.26.2/Middlewares/Third_Party/LwIP/src/core/ipv4\etharp.c **** #endif /* ETHARP_SUPPORT_STATIC_ENTRIES */
 209:c:/Users/Black_Life/STM32Cube/Repository/STM32Cube_FW_F4_V1.26.2/Middlewares/Third_Party/LwIP/src/core/ipv4\etharp.c ****        ) {
 210:c:/Users/Black_Life/STM32Cube/Repository/STM32Cube_FW_F4_V1.26.2/Middlewares/Third_Party/LwIP/src/core/ipv4\etharp.c ****       arp_table[i].ctime++;
 211:c:/Users/Black_Life/STM32Cube/Repository/STM32Cube_FW_F4_V1.26.2/Middlewares/Third_Party/LwIP/src/core/ipv4\etharp.c ****       if ((arp_table[i].ctime >= ARP_MAXAGE) ||
 212:c:/Users/Black_Life/STM32Cube/Repository/STM32Cube_FW_F4_V1.26.2/Middlewares/Third_Party/LwIP/src/core/ipv4\etharp.c ****           ((arp_table[i].state == ETHARP_STATE_PENDING)  &&
 213:c:/Users/Black_Life/STM32Cube/Repository/STM32Cube_FW_F4_V1.26.2/Middlewares/Third_Party/LwIP/src/core/ipv4\etharp.c ****            (arp_table[i].ctime >= ARP_MAXPENDING))) {
ARM GAS  C:\Users\BLACK_~1\AppData\Local\Temp\ccrhXwwe.s 			page 7


 214:c:/Users/Black_Life/STM32Cube/Repository/STM32Cube_FW_F4_V1.26.2/Middlewares/Third_Party/LwIP/src/core/ipv4\etharp.c ****         /* pending or stable entry has become old! */
 215:c:/Users/Black_Life/STM32Cube/Repository/STM32Cube_FW_F4_V1.26.2/Middlewares/Third_Party/LwIP/src/core/ipv4\etharp.c ****         LWIP_DEBUGF(ETHARP_DEBUG, ("etharp_timer: expired %s entry %d.\n",
 216:c:/Users/Black_Life/STM32Cube/Repository/STM32Cube_FW_F4_V1.26.2/Middlewares/Third_Party/LwIP/src/core/ipv4\etharp.c ****                                    arp_table[i].state >= ETHARP_STATE_STABLE ? "stable" : "pending"
 217:c:/Users/Black_Life/STM32Cube/Repository/STM32Cube_FW_F4_V1.26.2/Middlewares/Third_Party/LwIP/src/core/ipv4\etharp.c ****         /* clean up entries that have just been expired */
 218:c:/Users/Black_Life/STM32Cube/Repository/STM32Cube_FW_F4_V1.26.2/Middlewares/Third_Party/LwIP/src/core/ipv4\etharp.c ****         etharp_free_entry(i);
 219:c:/Users/Black_Life/STM32Cube/Repository/STM32Cube_FW_F4_V1.26.2/Middlewares/Third_Party/LwIP/src/core/ipv4\etharp.c ****       } else if (arp_table[i].state == ETHARP_STATE_STABLE_REREQUESTING_1) {
 220:c:/Users/Black_Life/STM32Cube/Repository/STM32Cube_FW_F4_V1.26.2/Middlewares/Third_Party/LwIP/src/core/ipv4\etharp.c ****         /* Don't send more than one request every 2 seconds. */
 221:c:/Users/Black_Life/STM32Cube/Repository/STM32Cube_FW_F4_V1.26.2/Middlewares/Third_Party/LwIP/src/core/ipv4\etharp.c ****         arp_table[i].state = ETHARP_STATE_STABLE_REREQUESTING_2;
 222:c:/Users/Black_Life/STM32Cube/Repository/STM32Cube_FW_F4_V1.26.2/Middlewares/Third_Party/LwIP/src/core/ipv4\etharp.c ****       } else if (arp_table[i].state == ETHARP_STATE_STABLE_REREQUESTING_2) {
 223:c:/Users/Black_Life/STM32Cube/Repository/STM32Cube_FW_F4_V1.26.2/Middlewares/Third_Party/LwIP/src/core/ipv4\etharp.c ****         /* Reset state to stable, so that the next transmitted packet will
 224:c:/Users/Black_Life/STM32Cube/Repository/STM32Cube_FW_F4_V1.26.2/Middlewares/Third_Party/LwIP/src/core/ipv4\etharp.c ****            re-send an ARP request. */
 225:c:/Users/Black_Life/STM32Cube/Repository/STM32Cube_FW_F4_V1.26.2/Middlewares/Third_Party/LwIP/src/core/ipv4\etharp.c ****         arp_table[i].state = ETHARP_STATE_STABLE;
 226:c:/Users/Black_Life/STM32Cube/Repository/STM32Cube_FW_F4_V1.26.2/Middlewares/Third_Party/LwIP/src/core/ipv4\etharp.c ****       } else if (arp_table[i].state == ETHARP_STATE_PENDING) {
 227:c:/Users/Black_Life/STM32Cube/Repository/STM32Cube_FW_F4_V1.26.2/Middlewares/Third_Party/LwIP/src/core/ipv4\etharp.c ****         /* still pending, resend an ARP query */
 228:c:/Users/Black_Life/STM32Cube/Repository/STM32Cube_FW_F4_V1.26.2/Middlewares/Third_Party/LwIP/src/core/ipv4\etharp.c ****         etharp_request(arp_table[i].netif, &arp_table[i].ipaddr);
 229:c:/Users/Black_Life/STM32Cube/Repository/STM32Cube_FW_F4_V1.26.2/Middlewares/Third_Party/LwIP/src/core/ipv4\etharp.c ****       }
 230:c:/Users/Black_Life/STM32Cube/Repository/STM32Cube_FW_F4_V1.26.2/Middlewares/Third_Party/LwIP/src/core/ipv4\etharp.c ****     }
 231:c:/Users/Black_Life/STM32Cube/Repository/STM32Cube_FW_F4_V1.26.2/Middlewares/Third_Party/LwIP/src/core/ipv4\etharp.c ****   }
 232:c:/Users/Black_Life/STM32Cube/Repository/STM32Cube_FW_F4_V1.26.2/Middlewares/Third_Party/LwIP/src/core/ipv4\etharp.c **** }
 233:c:/Users/Black_Life/STM32Cube/Repository/STM32Cube_FW_F4_V1.26.2/Middlewares/Third_Party/LwIP/src/core/ipv4\etharp.c **** 
 234:c:/Users/Black_Life/STM32Cube/Repository/STM32Cube_FW_F4_V1.26.2/Middlewares/Third_Party/LwIP/src/core/ipv4\etharp.c **** /**
 235:c:/Users/Black_Life/STM32Cube/Repository/STM32Cube_FW_F4_V1.26.2/Middlewares/Third_Party/LwIP/src/core/ipv4\etharp.c ****  * Search the ARP table for a matching or new entry.
 236:c:/Users/Black_Life/STM32Cube/Repository/STM32Cube_FW_F4_V1.26.2/Middlewares/Third_Party/LwIP/src/core/ipv4\etharp.c ****  *
 237:c:/Users/Black_Life/STM32Cube/Repository/STM32Cube_FW_F4_V1.26.2/Middlewares/Third_Party/LwIP/src/core/ipv4\etharp.c ****  * If an IP address is given, return a pending or stable ARP entry that matches
 238:c:/Users/Black_Life/STM32Cube/Repository/STM32Cube_FW_F4_V1.26.2/Middlewares/Third_Party/LwIP/src/core/ipv4\etharp.c ****  * the address. If no match is found, create a new entry with this address set,
 239:c:/Users/Black_Life/STM32Cube/Repository/STM32Cube_FW_F4_V1.26.2/Middlewares/Third_Party/LwIP/src/core/ipv4\etharp.c ****  * but in state ETHARP_EMPTY. The caller must check and possibly change the
 240:c:/Users/Black_Life/STM32Cube/Repository/STM32Cube_FW_F4_V1.26.2/Middlewares/Third_Party/LwIP/src/core/ipv4\etharp.c ****  * state of the returned entry.
 241:c:/Users/Black_Life/STM32Cube/Repository/STM32Cube_FW_F4_V1.26.2/Middlewares/Third_Party/LwIP/src/core/ipv4\etharp.c ****  *
 242:c:/Users/Black_Life/STM32Cube/Repository/STM32Cube_FW_F4_V1.26.2/Middlewares/Third_Party/LwIP/src/core/ipv4\etharp.c ****  * If ipaddr is NULL, return a initialized new entry in state ETHARP_EMPTY.
 243:c:/Users/Black_Life/STM32Cube/Repository/STM32Cube_FW_F4_V1.26.2/Middlewares/Third_Party/LwIP/src/core/ipv4\etharp.c ****  *
 244:c:/Users/Black_Life/STM32Cube/Repository/STM32Cube_FW_F4_V1.26.2/Middlewares/Third_Party/LwIP/src/core/ipv4\etharp.c ****  * In all cases, attempt to create new entries from an empty entry. If no
 245:c:/Users/Black_Life/STM32Cube/Repository/STM32Cube_FW_F4_V1.26.2/Middlewares/Third_Party/LwIP/src/core/ipv4\etharp.c ****  * empty entries are available and ETHARP_FLAG_TRY_HARD flag is set, recycle
 246:c:/Users/Black_Life/STM32Cube/Repository/STM32Cube_FW_F4_V1.26.2/Middlewares/Third_Party/LwIP/src/core/ipv4\etharp.c ****  * old entries. Heuristic choose the least important entry for recycling.
 247:c:/Users/Black_Life/STM32Cube/Repository/STM32Cube_FW_F4_V1.26.2/Middlewares/Third_Party/LwIP/src/core/ipv4\etharp.c ****  *
 248:c:/Users/Black_Life/STM32Cube/Repository/STM32Cube_FW_F4_V1.26.2/Middlewares/Third_Party/LwIP/src/core/ipv4\etharp.c ****  * @param ipaddr IP address to find in ARP cache, or to add if not found.
 249:c:/Users/Black_Life/STM32Cube/Repository/STM32Cube_FW_F4_V1.26.2/Middlewares/Third_Party/LwIP/src/core/ipv4\etharp.c ****  * @param flags See @ref etharp_state
 250:c:/Users/Black_Life/STM32Cube/Repository/STM32Cube_FW_F4_V1.26.2/Middlewares/Third_Party/LwIP/src/core/ipv4\etharp.c ****  * @param netif netif related to this address (used for NETIF_HWADDRHINT)
 251:c:/Users/Black_Life/STM32Cube/Repository/STM32Cube_FW_F4_V1.26.2/Middlewares/Third_Party/LwIP/src/core/ipv4\etharp.c ****  *
 252:c:/Users/Black_Life/STM32Cube/Repository/STM32Cube_FW_F4_V1.26.2/Middlewares/Third_Party/LwIP/src/core/ipv4\etharp.c ****  * @return The ARP entry index that matched or is created, ERR_MEM if no
 253:c:/Users/Black_Life/STM32Cube/Repository/STM32Cube_FW_F4_V1.26.2/Middlewares/Third_Party/LwIP/src/core/ipv4\etharp.c ****  * entry is found or could be recycled.
 254:c:/Users/Black_Life/STM32Cube/Repository/STM32Cube_FW_F4_V1.26.2/Middlewares/Third_Party/LwIP/src/core/ipv4\etharp.c ****  */
 255:c:/Users/Black_Life/STM32Cube/Repository/STM32Cube_FW_F4_V1.26.2/Middlewares/Third_Party/LwIP/src/core/ipv4\etharp.c **** static s16_t
 256:c:/Users/Black_Life/STM32Cube/Repository/STM32Cube_FW_F4_V1.26.2/Middlewares/Third_Party/LwIP/src/core/ipv4\etharp.c **** etharp_find_entry(const ip4_addr_t *ipaddr, u8_t flags, struct netif *netif)
 257:c:/Users/Black_Life/STM32Cube/Repository/STM32Cube_FW_F4_V1.26.2/Middlewares/Third_Party/LwIP/src/core/ipv4\etharp.c **** {
 106              		.loc 1 257 1 is_stmt 1 view -0
 107              		.cfi_startproc
 108              		@ args = 0, pretend = 0, frame = 8
 109              		@ frame_needed = 0, uses_anonymous_args = 0
 110              		.loc 1 257 1 is_stmt 0 view .LVU15
 111 0000 2DE9F04F 		push	{r4, r5, r6, r7, r8, r9, r10, fp, lr}
 112              	.LCFI1:
 113              		.cfi_def_cfa_offset 36
 114              		.cfi_offset 4, -36
 115              		.cfi_offset 5, -32
 116              		.cfi_offset 6, -28
 117              		.cfi_offset 7, -24
 118              		.cfi_offset 8, -20
ARM GAS  C:\Users\BLACK_~1\AppData\Local\Temp\ccrhXwwe.s 			page 8


 119              		.cfi_offset 9, -16
 120              		.cfi_offset 10, -12
 121              		.cfi_offset 11, -8
 122              		.cfi_offset 14, -4
 123 0004 83B0     		sub	sp, sp, #12
 124              	.LCFI2:
 125              		.cfi_def_cfa_offset 48
 126 0006 0646     		mov	r6, r0
 127 0008 1746     		mov	r7, r2
 258:c:/Users/Black_Life/STM32Cube/Repository/STM32Cube_FW_F4_V1.26.2/Middlewares/Third_Party/LwIP/src/core/ipv4\etharp.c ****   s16_t old_pending = ARP_TABLE_SIZE, old_stable = ARP_TABLE_SIZE;
 128              		.loc 1 258 3 is_stmt 1 view .LVU16
 129              	.LVL5:
 259:c:/Users/Black_Life/STM32Cube/Repository/STM32Cube_FW_F4_V1.26.2/Middlewares/Third_Party/LwIP/src/core/ipv4\etharp.c ****   s16_t empty = ARP_TABLE_SIZE;
 130              		.loc 1 259 3 view .LVU17
 260:c:/Users/Black_Life/STM32Cube/Repository/STM32Cube_FW_F4_V1.26.2/Middlewares/Third_Party/LwIP/src/core/ipv4\etharp.c ****   s16_t i = 0;
 131              		.loc 1 260 3 view .LVU18
 261:c:/Users/Black_Life/STM32Cube/Repository/STM32Cube_FW_F4_V1.26.2/Middlewares/Third_Party/LwIP/src/core/ipv4\etharp.c ****   /* oldest entry with packets on queue */
 262:c:/Users/Black_Life/STM32Cube/Repository/STM32Cube_FW_F4_V1.26.2/Middlewares/Third_Party/LwIP/src/core/ipv4\etharp.c ****   s16_t old_queue = ARP_TABLE_SIZE;
 132              		.loc 1 262 3 view .LVU19
 263:c:/Users/Black_Life/STM32Cube/Repository/STM32Cube_FW_F4_V1.26.2/Middlewares/Third_Party/LwIP/src/core/ipv4\etharp.c ****   /* its age */
 264:c:/Users/Black_Life/STM32Cube/Repository/STM32Cube_FW_F4_V1.26.2/Middlewares/Third_Party/LwIP/src/core/ipv4\etharp.c ****   u16_t age_queue = 0, age_pending = 0, age_stable = 0;
 133              		.loc 1 264 3 view .LVU20
 265:c:/Users/Black_Life/STM32Cube/Repository/STM32Cube_FW_F4_V1.26.2/Middlewares/Third_Party/LwIP/src/core/ipv4\etharp.c **** 
 266:c:/Users/Black_Life/STM32Cube/Repository/STM32Cube_FW_F4_V1.26.2/Middlewares/Third_Party/LwIP/src/core/ipv4\etharp.c ****   LWIP_UNUSED_ARG(netif);
 134              		.loc 1 266 3 view .LVU21
 267:c:/Users/Black_Life/STM32Cube/Repository/STM32Cube_FW_F4_V1.26.2/Middlewares/Third_Party/LwIP/src/core/ipv4\etharp.c **** 
 268:c:/Users/Black_Life/STM32Cube/Repository/STM32Cube_FW_F4_V1.26.2/Middlewares/Third_Party/LwIP/src/core/ipv4\etharp.c ****   /**
 269:c:/Users/Black_Life/STM32Cube/Repository/STM32Cube_FW_F4_V1.26.2/Middlewares/Third_Party/LwIP/src/core/ipv4\etharp.c ****    * a) do a search through the cache, remember candidates
 270:c:/Users/Black_Life/STM32Cube/Repository/STM32Cube_FW_F4_V1.26.2/Middlewares/Third_Party/LwIP/src/core/ipv4\etharp.c ****    * b) select candidate entry
 271:c:/Users/Black_Life/STM32Cube/Repository/STM32Cube_FW_F4_V1.26.2/Middlewares/Third_Party/LwIP/src/core/ipv4\etharp.c ****    * c) create new entry
 272:c:/Users/Black_Life/STM32Cube/Repository/STM32Cube_FW_F4_V1.26.2/Middlewares/Third_Party/LwIP/src/core/ipv4\etharp.c ****    */
 273:c:/Users/Black_Life/STM32Cube/Repository/STM32Cube_FW_F4_V1.26.2/Middlewares/Third_Party/LwIP/src/core/ipv4\etharp.c **** 
 274:c:/Users/Black_Life/STM32Cube/Repository/STM32Cube_FW_F4_V1.26.2/Middlewares/Third_Party/LwIP/src/core/ipv4\etharp.c ****   /* a) in a single search sweep, do all of this
 275:c:/Users/Black_Life/STM32Cube/Repository/STM32Cube_FW_F4_V1.26.2/Middlewares/Third_Party/LwIP/src/core/ipv4\etharp.c ****    * 1) remember the first empty entry (if any)
 276:c:/Users/Black_Life/STM32Cube/Repository/STM32Cube_FW_F4_V1.26.2/Middlewares/Third_Party/LwIP/src/core/ipv4\etharp.c ****    * 2) remember the oldest stable entry (if any)
 277:c:/Users/Black_Life/STM32Cube/Repository/STM32Cube_FW_F4_V1.26.2/Middlewares/Third_Party/LwIP/src/core/ipv4\etharp.c ****    * 3) remember the oldest pending entry without queued packets (if any)
 278:c:/Users/Black_Life/STM32Cube/Repository/STM32Cube_FW_F4_V1.26.2/Middlewares/Third_Party/LwIP/src/core/ipv4\etharp.c ****    * 4) remember the oldest pending entry with queued packets (if any)
 279:c:/Users/Black_Life/STM32Cube/Repository/STM32Cube_FW_F4_V1.26.2/Middlewares/Third_Party/LwIP/src/core/ipv4\etharp.c ****    * 5) search for a matching IP entry, either pending or stable
 280:c:/Users/Black_Life/STM32Cube/Repository/STM32Cube_FW_F4_V1.26.2/Middlewares/Third_Party/LwIP/src/core/ipv4\etharp.c ****    *    until 5 matches, or all entries are searched for.
 281:c:/Users/Black_Life/STM32Cube/Repository/STM32Cube_FW_F4_V1.26.2/Middlewares/Third_Party/LwIP/src/core/ipv4\etharp.c ****    */
 282:c:/Users/Black_Life/STM32Cube/Repository/STM32Cube_FW_F4_V1.26.2/Middlewares/Third_Party/LwIP/src/core/ipv4\etharp.c **** 
 283:c:/Users/Black_Life/STM32Cube/Repository/STM32Cube_FW_F4_V1.26.2/Middlewares/Third_Party/LwIP/src/core/ipv4\etharp.c ****   for (i = 0; i < ARP_TABLE_SIZE; ++i) {
 135              		.loc 1 283 3 view .LVU22
 264:c:/Users/Black_Life/STM32Cube/Repository/STM32Cube_FW_F4_V1.26.2/Middlewares/Third_Party/LwIP/src/core/ipv4\etharp.c **** 
 136              		.loc 1 264 41 is_stmt 0 view .LVU23
 137 000a 4FF00009 		mov	r9, #0
 264:c:/Users/Black_Life/STM32Cube/Repository/STM32Cube_FW_F4_V1.26.2/Middlewares/Third_Party/LwIP/src/core/ipv4\etharp.c **** 
 138              		.loc 1 264 24 view .LVU24
 139 000e CDF80090 		str	r9, [sp]
 264:c:/Users/Black_Life/STM32Cube/Repository/STM32Cube_FW_F4_V1.26.2/Middlewares/Third_Party/LwIP/src/core/ipv4\etharp.c **** 
 140              		.loc 1 264 9 view .LVU25
 141 0012 CB46     		mov	fp, r9
 262:c:/Users/Black_Life/STM32Cube/Repository/STM32Cube_FW_F4_V1.26.2/Middlewares/Third_Party/LwIP/src/core/ipv4\etharp.c ****   /* its age */
 142              		.loc 1 262 9 view .LVU26
 143 0014 4FF00A0A 		mov	r10, #10
 144              		.loc 1 283 10 view .LVU27
 145 0018 4B46     		mov	r3, r9
ARM GAS  C:\Users\BLACK_~1\AppData\Local\Temp\ccrhXwwe.s 			page 9


 259:c:/Users/Black_Life/STM32Cube/Repository/STM32Cube_FW_F4_V1.26.2/Middlewares/Third_Party/LwIP/src/core/ipv4\etharp.c ****   s16_t i = 0;
 146              		.loc 1 259 9 view .LVU28
 147 001a 5546     		mov	r5, r10
 258:c:/Users/Black_Life/STM32Cube/Repository/STM32Cube_FW_F4_V1.26.2/Middlewares/Third_Party/LwIP/src/core/ipv4\etharp.c ****   s16_t empty = ARP_TABLE_SIZE;
 148              		.loc 1 258 39 view .LVU29
 149 001c D046     		mov	r8, r10
 258:c:/Users/Black_Life/STM32Cube/Repository/STM32Cube_FW_F4_V1.26.2/Middlewares/Third_Party/LwIP/src/core/ipv4\etharp.c ****   s16_t empty = ARP_TABLE_SIZE;
 150              		.loc 1 258 9 view .LVU30
 151 001e CDF804A0 		str	r10, [sp, #4]
 152 0022 8E46     		mov	lr, r1
 153              		.loc 1 283 3 view .LVU31
 154 0024 03E0     		b	.L7
 155              	.LVL6:
 156              	.L36:
 157              	.LBB2:
 284:c:/Users/Black_Life/STM32Cube/Repository/STM32Cube_FW_F4_V1.26.2/Middlewares/Third_Party/LwIP/src/core/ipv4\etharp.c ****     u8_t state = arp_table[i].state;
 285:c:/Users/Black_Life/STM32Cube/Repository/STM32Cube_FW_F4_V1.26.2/Middlewares/Third_Party/LwIP/src/core/ipv4\etharp.c ****     /* no empty entry found yet and now we do find one? */
 286:c:/Users/Black_Life/STM32Cube/Repository/STM32Cube_FW_F4_V1.26.2/Middlewares/Third_Party/LwIP/src/core/ipv4\etharp.c ****     if ((empty == ARP_TABLE_SIZE) && (state == ETHARP_STATE_EMPTY)) {
 158              		.loc 1 286 35 discriminator 1 view .LVU32
 159 0026 68B9     		cbnz	r0, .L8
 287:c:/Users/Black_Life/STM32Cube/Repository/STM32Cube_FW_F4_V1.26.2/Middlewares/Third_Party/LwIP/src/core/ipv4\etharp.c ****       LWIP_DEBUGF(ETHARP_DEBUG, ("etharp_find_entry: found empty entry %d\n", (int)i));
 288:c:/Users/Black_Life/STM32Cube/Repository/STM32Cube_FW_F4_V1.26.2/Middlewares/Third_Party/LwIP/src/core/ipv4\etharp.c ****       /* remember first empty entry */
 289:c:/Users/Black_Life/STM32Cube/Repository/STM32Cube_FW_F4_V1.26.2/Middlewares/Third_Party/LwIP/src/core/ipv4\etharp.c ****       empty = i;
 160              		.loc 1 289 13 view .LVU33
 161 0028 1D46     		mov	r5, r3
 162              	.LVL7:
 163              	.L9:
 164              		.loc 1 289 13 view .LVU34
 165              	.LBE2:
 283:c:/Users/Black_Life/STM32Cube/Repository/STM32Cube_FW_F4_V1.26.2/Middlewares/Third_Party/LwIP/src/core/ipv4\etharp.c ****     u8_t state = arp_table[i].state;
 166              		.loc 1 283 35 is_stmt 1 discriminator 2 view .LVU35
 167 002a 0133     		adds	r3, r3, #1
 168              	.LVL8:
 283:c:/Users/Black_Life/STM32Cube/Repository/STM32Cube_FW_F4_V1.26.2/Middlewares/Third_Party/LwIP/src/core/ipv4\etharp.c ****     u8_t state = arp_table[i].state;
 169              		.loc 1 283 35 is_stmt 0 discriminator 2 view .LVU36
 170 002c 1BB2     		sxth	r3, r3
 171              	.LVL9:
 172              	.L7:
 283:c:/Users/Black_Life/STM32Cube/Repository/STM32Cube_FW_F4_V1.26.2/Middlewares/Third_Party/LwIP/src/core/ipv4\etharp.c ****     u8_t state = arp_table[i].state;
 173              		.loc 1 283 15 is_stmt 1 discriminator 1 view .LVU37
 283:c:/Users/Black_Life/STM32Cube/Repository/STM32Cube_FW_F4_V1.26.2/Middlewares/Third_Party/LwIP/src/core/ipv4\etharp.c ****     u8_t state = arp_table[i].state;
 174              		.loc 1 283 3 is_stmt 0 discriminator 1 view .LVU38
 175 002e 092B     		cmp	r3, #9
 176 0030 4DDC     		bgt	.L35
 177              	.LBB3:
 284:c:/Users/Black_Life/STM32Cube/Repository/STM32Cube_FW_F4_V1.26.2/Middlewares/Third_Party/LwIP/src/core/ipv4\etharp.c ****     u8_t state = arp_table[i].state;
 178              		.loc 1 284 5 is_stmt 1 view .LVU39
 284:c:/Users/Black_Life/STM32Cube/Repository/STM32Cube_FW_F4_V1.26.2/Middlewares/Third_Party/LwIP/src/core/ipv4\etharp.c ****     u8_t state = arp_table[i].state;
 179              		.loc 1 284 30 is_stmt 0 view .LVU40
 180 0032 1C46     		mov	r4, r3
 284:c:/Users/Black_Life/STM32Cube/Repository/STM32Cube_FW_F4_V1.26.2/Middlewares/Third_Party/LwIP/src/core/ipv4\etharp.c ****     u8_t state = arp_table[i].state;
 181              		.loc 1 284 10 view .LVU41
 182 0034 03EB4302 		add	r2, r3, r3, lsl #1
 183 0038 5C48     		ldr	r0, .L43
 184 003a 00EBC202 		add	r2, r0, r2, lsl #3
 185 003e 107D     		ldrb	r0, [r2, #20]	@ zero_extendqisi2
 186              	.LVL10:
ARM GAS  C:\Users\BLACK_~1\AppData\Local\Temp\ccrhXwwe.s 			page 10


 286:c:/Users/Black_Life/STM32Cube/Repository/STM32Cube_FW_F4_V1.26.2/Middlewares/Third_Party/LwIP/src/core/ipv4\etharp.c ****       LWIP_DEBUGF(ETHARP_DEBUG, ("etharp_find_entry: found empty entry %d\n", (int)i));
 187              		.loc 1 286 5 is_stmt 1 view .LVU42
 286:c:/Users/Black_Life/STM32Cube/Repository/STM32Cube_FW_F4_V1.26.2/Middlewares/Third_Party/LwIP/src/core/ipv4\etharp.c ****       LWIP_DEBUGF(ETHARP_DEBUG, ("etharp_find_entry: found empty entry %d\n", (int)i));
 188              		.loc 1 286 8 is_stmt 0 view .LVU43
 189 0040 0A2D     		cmp	r5, #10
 190 0042 F0D0     		beq	.L36
 191              	.L8:
 290:c:/Users/Black_Life/STM32Cube/Repository/STM32Cube_FW_F4_V1.26.2/Middlewares/Third_Party/LwIP/src/core/ipv4\etharp.c ****     } else if (state != ETHARP_STATE_EMPTY) {
 192              		.loc 1 290 12 is_stmt 1 view .LVU44
 193              		.loc 1 290 15 is_stmt 0 view .LVU45
 194 0044 0028     		cmp	r0, #0
 195 0046 F0D0     		beq	.L9
 291:c:/Users/Black_Life/STM32Cube/Repository/STM32Cube_FW_F4_V1.26.2/Middlewares/Third_Party/LwIP/src/core/ipv4\etharp.c ****       LWIP_ASSERT("state == ETHARP_STATE_PENDING || state >= ETHARP_STATE_STABLE",
 196              		.loc 1 291 7 is_stmt 1 discriminator 3 view .LVU46
 197              		.loc 1 291 7 discriminator 3 view .LVU47
 198              		.loc 1 291 7 discriminator 3 view .LVU48
 199              		.loc 1 291 7 discriminator 3 view .LVU49
 292:c:/Users/Black_Life/STM32Cube/Repository/STM32Cube_FW_F4_V1.26.2/Middlewares/Third_Party/LwIP/src/core/ipv4\etharp.c ****                   state == ETHARP_STATE_PENDING || state >= ETHARP_STATE_STABLE);
 293:c:/Users/Black_Life/STM32Cube/Repository/STM32Cube_FW_F4_V1.26.2/Middlewares/Third_Party/LwIP/src/core/ipv4\etharp.c ****       /* if given, does IP address match IP address in ARP entry? */
 294:c:/Users/Black_Life/STM32Cube/Repository/STM32Cube_FW_F4_V1.26.2/Middlewares/Third_Party/LwIP/src/core/ipv4\etharp.c ****       if (ipaddr && ip4_addr_cmp(ipaddr, &arp_table[i].ipaddr)
 200              		.loc 1 294 7 discriminator 3 view .LVU50
 201              		.loc 1 294 10 is_stmt 0 discriminator 3 view .LVU51
 202 0048 4EB1     		cbz	r6, .L10
 203              		.loc 1 294 21 discriminator 1 view .LVU52
 204 004a 04EB440C 		add	ip, r4, r4, lsl #1
 205 004e 574A     		ldr	r2, .L43
 206 0050 02EBCC0C 		add	ip, r2, ip, lsl #3
 207 0054 DCF80420 		ldr	r2, [ip, #4]
 208              		.loc 1 294 18 discriminator 1 view .LVU53
 209 0058 3168     		ldr	r1, [r6]
 210 005a 9142     		cmp	r1, r2
 211 005c 0ED0     		beq	.L37
 212              	.L10:
 295:c:/Users/Black_Life/STM32Cube/Repository/STM32Cube_FW_F4_V1.26.2/Middlewares/Third_Party/LwIP/src/core/ipv4\etharp.c **** #if ETHARP_TABLE_MATCH_NETIF
 296:c:/Users/Black_Life/STM32Cube/Repository/STM32Cube_FW_F4_V1.26.2/Middlewares/Third_Party/LwIP/src/core/ipv4\etharp.c ****           && ((netif == NULL) || (netif == arp_table[i].netif))
 297:c:/Users/Black_Life/STM32Cube/Repository/STM32Cube_FW_F4_V1.26.2/Middlewares/Third_Party/LwIP/src/core/ipv4\etharp.c **** #endif /* ETHARP_TABLE_MATCH_NETIF */
 298:c:/Users/Black_Life/STM32Cube/Repository/STM32Cube_FW_F4_V1.26.2/Middlewares/Third_Party/LwIP/src/core/ipv4\etharp.c ****          ) {
 299:c:/Users/Black_Life/STM32Cube/Repository/STM32Cube_FW_F4_V1.26.2/Middlewares/Third_Party/LwIP/src/core/ipv4\etharp.c ****         LWIP_DEBUGF(ETHARP_DEBUG | LWIP_DBG_TRACE, ("etharp_find_entry: found matching entry %d\n",
 300:c:/Users/Black_Life/STM32Cube/Repository/STM32Cube_FW_F4_V1.26.2/Middlewares/Third_Party/LwIP/src/core/ipv4\etharp.c ****         /* found exact IP address match, simply bail out */
 301:c:/Users/Black_Life/STM32Cube/Repository/STM32Cube_FW_F4_V1.26.2/Middlewares/Third_Party/LwIP/src/core/ipv4\etharp.c ****         return i;
 302:c:/Users/Black_Life/STM32Cube/Repository/STM32Cube_FW_F4_V1.26.2/Middlewares/Third_Party/LwIP/src/core/ipv4\etharp.c ****       }
 303:c:/Users/Black_Life/STM32Cube/Repository/STM32Cube_FW_F4_V1.26.2/Middlewares/Third_Party/LwIP/src/core/ipv4\etharp.c ****       /* pending entry? */
 304:c:/Users/Black_Life/STM32Cube/Repository/STM32Cube_FW_F4_V1.26.2/Middlewares/Third_Party/LwIP/src/core/ipv4\etharp.c ****       if (state == ETHARP_STATE_PENDING) {
 213              		.loc 1 304 7 is_stmt 1 view .LVU54
 214              		.loc 1 304 10 is_stmt 0 view .LVU55
 215 005e 0128     		cmp	r0, #1
 216 0060 19D0     		beq	.L38
 305:c:/Users/Black_Life/STM32Cube/Repository/STM32Cube_FW_F4_V1.26.2/Middlewares/Third_Party/LwIP/src/core/ipv4\etharp.c ****         /* pending with queued packets? */
 306:c:/Users/Black_Life/STM32Cube/Repository/STM32Cube_FW_F4_V1.26.2/Middlewares/Third_Party/LwIP/src/core/ipv4\etharp.c ****         if (arp_table[i].q != NULL) {
 307:c:/Users/Black_Life/STM32Cube/Repository/STM32Cube_FW_F4_V1.26.2/Middlewares/Third_Party/LwIP/src/core/ipv4\etharp.c ****           if (arp_table[i].ctime >= age_queue) {
 308:c:/Users/Black_Life/STM32Cube/Repository/STM32Cube_FW_F4_V1.26.2/Middlewares/Third_Party/LwIP/src/core/ipv4\etharp.c ****             old_queue = i;
 309:c:/Users/Black_Life/STM32Cube/Repository/STM32Cube_FW_F4_V1.26.2/Middlewares/Third_Party/LwIP/src/core/ipv4\etharp.c ****             age_queue = arp_table[i].ctime;
 310:c:/Users/Black_Life/STM32Cube/Repository/STM32Cube_FW_F4_V1.26.2/Middlewares/Third_Party/LwIP/src/core/ipv4\etharp.c ****           }
 311:c:/Users/Black_Life/STM32Cube/Repository/STM32Cube_FW_F4_V1.26.2/Middlewares/Third_Party/LwIP/src/core/ipv4\etharp.c ****         } else
 312:c:/Users/Black_Life/STM32Cube/Repository/STM32Cube_FW_F4_V1.26.2/Middlewares/Third_Party/LwIP/src/core/ipv4\etharp.c ****           /* pending without queued packets? */
 313:c:/Users/Black_Life/STM32Cube/Repository/STM32Cube_FW_F4_V1.26.2/Middlewares/Third_Party/LwIP/src/core/ipv4\etharp.c ****         {
 314:c:/Users/Black_Life/STM32Cube/Repository/STM32Cube_FW_F4_V1.26.2/Middlewares/Third_Party/LwIP/src/core/ipv4\etharp.c ****           if (arp_table[i].ctime >= age_pending) {
ARM GAS  C:\Users\BLACK_~1\AppData\Local\Temp\ccrhXwwe.s 			page 11


 315:c:/Users/Black_Life/STM32Cube/Repository/STM32Cube_FW_F4_V1.26.2/Middlewares/Third_Party/LwIP/src/core/ipv4\etharp.c ****             old_pending = i;
 316:c:/Users/Black_Life/STM32Cube/Repository/STM32Cube_FW_F4_V1.26.2/Middlewares/Third_Party/LwIP/src/core/ipv4\etharp.c ****             age_pending = arp_table[i].ctime;
 317:c:/Users/Black_Life/STM32Cube/Repository/STM32Cube_FW_F4_V1.26.2/Middlewares/Third_Party/LwIP/src/core/ipv4\etharp.c ****           }
 318:c:/Users/Black_Life/STM32Cube/Repository/STM32Cube_FW_F4_V1.26.2/Middlewares/Third_Party/LwIP/src/core/ipv4\etharp.c ****         }
 319:c:/Users/Black_Life/STM32Cube/Repository/STM32Cube_FW_F4_V1.26.2/Middlewares/Third_Party/LwIP/src/core/ipv4\etharp.c ****         /* stable entry? */
 320:c:/Users/Black_Life/STM32Cube/Repository/STM32Cube_FW_F4_V1.26.2/Middlewares/Third_Party/LwIP/src/core/ipv4\etharp.c ****       } else if (state >= ETHARP_STATE_STABLE) {
 217              		.loc 1 320 14 is_stmt 1 view .LVU56
 218              		.loc 1 320 17 is_stmt 0 view .LVU57
 219 0062 0128     		cmp	r0, #1
 220 0064 E1D9     		bls	.L9
 321:c:/Users/Black_Life/STM32Cube/Repository/STM32Cube_FW_F4_V1.26.2/Middlewares/Third_Party/LwIP/src/core/ipv4\etharp.c **** #if ETHARP_SUPPORT_STATIC_ENTRIES
 322:c:/Users/Black_Life/STM32Cube/Repository/STM32Cube_FW_F4_V1.26.2/Middlewares/Third_Party/LwIP/src/core/ipv4\etharp.c ****         /* don't record old_stable for static entries since they never expire */
 323:c:/Users/Black_Life/STM32Cube/Repository/STM32Cube_FW_F4_V1.26.2/Middlewares/Third_Party/LwIP/src/core/ipv4\etharp.c ****         if (state < ETHARP_STATE_STATIC)
 324:c:/Users/Black_Life/STM32Cube/Repository/STM32Cube_FW_F4_V1.26.2/Middlewares/Third_Party/LwIP/src/core/ipv4\etharp.c **** #endif /* ETHARP_SUPPORT_STATIC_ENTRIES */
 325:c:/Users/Black_Life/STM32Cube/Repository/STM32Cube_FW_F4_V1.26.2/Middlewares/Third_Party/LwIP/src/core/ipv4\etharp.c ****         {
 326:c:/Users/Black_Life/STM32Cube/Repository/STM32Cube_FW_F4_V1.26.2/Middlewares/Third_Party/LwIP/src/core/ipv4\etharp.c ****           /* remember entry with oldest stable entry in oldest, its age in maxtime */
 327:c:/Users/Black_Life/STM32Cube/Repository/STM32Cube_FW_F4_V1.26.2/Middlewares/Third_Party/LwIP/src/core/ipv4\etharp.c ****           if (arp_table[i].ctime >= age_stable) {
 221              		.loc 1 327 11 is_stmt 1 view .LVU58
 222              		.loc 1 327 27 is_stmt 0 view .LVU59
 223 0066 04EB4404 		add	r4, r4, r4, lsl #1
 224 006a 504A     		ldr	r2, .L43
 225 006c 02EBC404 		add	r4, r2, r4, lsl #3
 226 0070 628A     		ldrh	r2, [r4, #18]
 227              		.loc 1 327 14 view .LVU60
 228 0072 4A45     		cmp	r2, r9
 229 0074 D9D3     		bcc	.L9
 328:c:/Users/Black_Life/STM32Cube/Repository/STM32Cube_FW_F4_V1.26.2/Middlewares/Third_Party/LwIP/src/core/ipv4\etharp.c ****             old_stable = i;
 329:c:/Users/Black_Life/STM32Cube/Repository/STM32Cube_FW_F4_V1.26.2/Middlewares/Third_Party/LwIP/src/core/ipv4\etharp.c ****             age_stable = arp_table[i].ctime;
 230              		.loc 1 329 24 view .LVU61
 231 0076 9146     		mov	r9, r2
 232              	.LVL11:
 328:c:/Users/Black_Life/STM32Cube/Repository/STM32Cube_FW_F4_V1.26.2/Middlewares/Third_Party/LwIP/src/core/ipv4\etharp.c ****             old_stable = i;
 233              		.loc 1 328 24 view .LVU62
 234 0078 9846     		mov	r8, r3
 235              	.LVL12:
 328:c:/Users/Black_Life/STM32Cube/Repository/STM32Cube_FW_F4_V1.26.2/Middlewares/Third_Party/LwIP/src/core/ipv4\etharp.c ****             old_stable = i;
 236              		.loc 1 328 24 view .LVU63
 237 007a D6E7     		b	.L9
 238              	.LVL13:
 239              	.L37:
 296:c:/Users/Black_Life/STM32Cube/Repository/STM32Cube_FW_F4_V1.26.2/Middlewares/Third_Party/LwIP/src/core/ipv4\etharp.c **** #endif /* ETHARP_TABLE_MATCH_NETIF */
 240              		.loc 1 296 11 view .LVU64
 241 007c 002F     		cmp	r7, #0
 242 007e 00F08D80 		beq	.L24
 296:c:/Users/Black_Life/STM32Cube/Repository/STM32Cube_FW_F4_V1.26.2/Middlewares/Third_Party/LwIP/src/core/ipv4\etharp.c **** #endif /* ETHARP_TABLE_MATCH_NETIF */
 243              		.loc 1 296 56 discriminator 1 view .LVU65
 244 0082 04EB440C 		add	ip, r4, r4, lsl #1
 245 0086 494A     		ldr	r2, .L43
 246 0088 02EBCC02 		add	r2, r2, ip, lsl #3
 247 008c 9268     		ldr	r2, [r2, #8]
 296:c:/Users/Black_Life/STM32Cube/Repository/STM32Cube_FW_F4_V1.26.2/Middlewares/Third_Party/LwIP/src/core/ipv4\etharp.c **** #endif /* ETHARP_TABLE_MATCH_NETIF */
 248              		.loc 1 296 31 discriminator 1 view .LVU66
 249 008e BA42     		cmp	r2, r7
 250 0090 E5D1     		bne	.L10
 301:c:/Users/Black_Life/STM32Cube/Repository/STM32Cube_FW_F4_V1.26.2/Middlewares/Third_Party/LwIP/src/core/ipv4\etharp.c ****       }
 251              		.loc 1 301 16 view .LVU67
 252 0092 1D46     		mov	r5, r3
ARM GAS  C:\Users\BLACK_~1\AppData\Local\Temp\ccrhXwwe.s 			page 12


 253              	.LVL14:
 301:c:/Users/Black_Life/STM32Cube/Repository/STM32Cube_FW_F4_V1.26.2/Middlewares/Third_Party/LwIP/src/core/ipv4\etharp.c ****       }
 254              		.loc 1 301 16 view .LVU68
 255 0094 54E0     		b	.L11
 256              	.LVL15:
 257              	.L38:
 306:c:/Users/Black_Life/STM32Cube/Repository/STM32Cube_FW_F4_V1.26.2/Middlewares/Third_Party/LwIP/src/core/ipv4\etharp.c ****           if (arp_table[i].ctime >= age_queue) {
 258              		.loc 1 306 9 is_stmt 1 view .LVU69
 306:c:/Users/Black_Life/STM32Cube/Repository/STM32Cube_FW_F4_V1.26.2/Middlewares/Third_Party/LwIP/src/core/ipv4\etharp.c ****           if (arp_table[i].ctime >= age_queue) {
 259              		.loc 1 306 25 is_stmt 0 view .LVU70
 260 0096 04EB4402 		add	r2, r4, r4, lsl #1
 261 009a 4448     		ldr	r0, .L43
 262              	.LVL16:
 306:c:/Users/Black_Life/STM32Cube/Repository/STM32Cube_FW_F4_V1.26.2/Middlewares/Third_Party/LwIP/src/core/ipv4\etharp.c ****           if (arp_table[i].ctime >= age_queue) {
 263              		.loc 1 306 25 view .LVU71
 264 009c 50F83220 		ldr	r2, [r0, r2, lsl #3]
 306:c:/Users/Black_Life/STM32Cube/Repository/STM32Cube_FW_F4_V1.26.2/Middlewares/Third_Party/LwIP/src/core/ipv4\etharp.c ****           if (arp_table[i].ctime >= age_queue) {
 265              		.loc 1 306 12 view .LVU72
 266 00a0 4AB1     		cbz	r2, .L13
 307:c:/Users/Black_Life/STM32Cube/Repository/STM32Cube_FW_F4_V1.26.2/Middlewares/Third_Party/LwIP/src/core/ipv4\etharp.c ****             old_queue = i;
 267              		.loc 1 307 11 is_stmt 1 view .LVU73
 307:c:/Users/Black_Life/STM32Cube/Repository/STM32Cube_FW_F4_V1.26.2/Middlewares/Third_Party/LwIP/src/core/ipv4\etharp.c ****             old_queue = i;
 268              		.loc 1 307 27 is_stmt 0 view .LVU74
 269 00a2 04EB4404 		add	r4, r4, r4, lsl #1
 270 00a6 00EBC404 		add	r4, r0, r4, lsl #3
 271 00aa 628A     		ldrh	r2, [r4, #18]
 307:c:/Users/Black_Life/STM32Cube/Repository/STM32Cube_FW_F4_V1.26.2/Middlewares/Third_Party/LwIP/src/core/ipv4\etharp.c ****             old_queue = i;
 272              		.loc 1 307 14 view .LVU75
 273 00ac 5A45     		cmp	r2, fp
 274 00ae BCD3     		bcc	.L9
 309:c:/Users/Black_Life/STM32Cube/Repository/STM32Cube_FW_F4_V1.26.2/Middlewares/Third_Party/LwIP/src/core/ipv4\etharp.c ****           }
 275              		.loc 1 309 23 view .LVU76
 276 00b0 9346     		mov	fp, r2
 277              	.LVL17:
 308:c:/Users/Black_Life/STM32Cube/Repository/STM32Cube_FW_F4_V1.26.2/Middlewares/Third_Party/LwIP/src/core/ipv4\etharp.c ****             age_queue = arp_table[i].ctime;
 278              		.loc 1 308 23 view .LVU77
 279 00b2 9A46     		mov	r10, r3
 280              	.LVL18:
 308:c:/Users/Black_Life/STM32Cube/Repository/STM32Cube_FW_F4_V1.26.2/Middlewares/Third_Party/LwIP/src/core/ipv4\etharp.c ****             age_queue = arp_table[i].ctime;
 281              		.loc 1 308 23 view .LVU78
 282 00b4 B9E7     		b	.L9
 283              	.LVL19:
 284              	.L13:
 314:c:/Users/Black_Life/STM32Cube/Repository/STM32Cube_FW_F4_V1.26.2/Middlewares/Third_Party/LwIP/src/core/ipv4\etharp.c ****             old_pending = i;
 285              		.loc 1 314 11 is_stmt 1 view .LVU79
 314:c:/Users/Black_Life/STM32Cube/Repository/STM32Cube_FW_F4_V1.26.2/Middlewares/Third_Party/LwIP/src/core/ipv4\etharp.c ****             old_pending = i;
 286              		.loc 1 314 27 is_stmt 0 view .LVU80
 287 00b6 04EB4404 		add	r4, r4, r4, lsl #1
 288 00ba 3C4A     		ldr	r2, .L43
 289 00bc 02EBC404 		add	r4, r2, r4, lsl #3
 290 00c0 628A     		ldrh	r2, [r4, #18]
 314:c:/Users/Black_Life/STM32Cube/Repository/STM32Cube_FW_F4_V1.26.2/Middlewares/Third_Party/LwIP/src/core/ipv4\etharp.c ****             old_pending = i;
 291              		.loc 1 314 14 view .LVU81
 292 00c2 0099     		ldr	r1, [sp]
 293 00c4 8A42     		cmp	r2, r1
 294 00c6 B0D3     		bcc	.L9
 316:c:/Users/Black_Life/STM32Cube/Repository/STM32Cube_FW_F4_V1.26.2/Middlewares/Third_Party/LwIP/src/core/ipv4\etharp.c ****           }
ARM GAS  C:\Users\BLACK_~1\AppData\Local\Temp\ccrhXwwe.s 			page 13


 295              		.loc 1 316 25 view .LVU82
 296 00c8 0092     		str	r2, [sp]
 297              	.LVL20:
 315:c:/Users/Black_Life/STM32Cube/Repository/STM32Cube_FW_F4_V1.26.2/Middlewares/Third_Party/LwIP/src/core/ipv4\etharp.c ****             age_pending = arp_table[i].ctime;
 298              		.loc 1 315 25 view .LVU83
 299 00ca 0193     		str	r3, [sp, #4]
 300              	.LVL21:
 315:c:/Users/Black_Life/STM32Cube/Repository/STM32Cube_FW_F4_V1.26.2/Middlewares/Third_Party/LwIP/src/core/ipv4\etharp.c ****             age_pending = arp_table[i].ctime;
 301              		.loc 1 315 25 view .LVU84
 302 00cc ADE7     		b	.L9
 303              	.LVL22:
 304              	.L35:
 315:c:/Users/Black_Life/STM32Cube/Repository/STM32Cube_FW_F4_V1.26.2/Middlewares/Third_Party/LwIP/src/core/ipv4\etharp.c ****             age_pending = arp_table[i].ctime;
 305              		.loc 1 315 25 view .LVU85
 306              	.LBE3:
 330:c:/Users/Black_Life/STM32Cube/Repository/STM32Cube_FW_F4_V1.26.2/Middlewares/Third_Party/LwIP/src/core/ipv4\etharp.c ****           }
 331:c:/Users/Black_Life/STM32Cube/Repository/STM32Cube_FW_F4_V1.26.2/Middlewares/Third_Party/LwIP/src/core/ipv4\etharp.c ****         }
 332:c:/Users/Black_Life/STM32Cube/Repository/STM32Cube_FW_F4_V1.26.2/Middlewares/Third_Party/LwIP/src/core/ipv4\etharp.c ****       }
 333:c:/Users/Black_Life/STM32Cube/Repository/STM32Cube_FW_F4_V1.26.2/Middlewares/Third_Party/LwIP/src/core/ipv4\etharp.c ****     }
 334:c:/Users/Black_Life/STM32Cube/Repository/STM32Cube_FW_F4_V1.26.2/Middlewares/Third_Party/LwIP/src/core/ipv4\etharp.c ****   }
 335:c:/Users/Black_Life/STM32Cube/Repository/STM32Cube_FW_F4_V1.26.2/Middlewares/Third_Party/LwIP/src/core/ipv4\etharp.c ****   /* { we have no match } => try to create a new entry */
 336:c:/Users/Black_Life/STM32Cube/Repository/STM32Cube_FW_F4_V1.26.2/Middlewares/Third_Party/LwIP/src/core/ipv4\etharp.c **** 
 337:c:/Users/Black_Life/STM32Cube/Repository/STM32Cube_FW_F4_V1.26.2/Middlewares/Third_Party/LwIP/src/core/ipv4\etharp.c ****   /* don't create new entry, only search? */
 338:c:/Users/Black_Life/STM32Cube/Repository/STM32Cube_FW_F4_V1.26.2/Middlewares/Third_Party/LwIP/src/core/ipv4\etharp.c ****   if (((flags & ETHARP_FLAG_FIND_ONLY) != 0) ||
 307              		.loc 1 338 3 is_stmt 1 view .LVU86
 308              		.loc 1 338 6 is_stmt 0 view .LVU87
 309 00ce 1EF0020F 		tst	lr, #2
 310 00d2 65D1     		bne	.L29
 311              		.loc 1 338 46 discriminator 1 view .LVU88
 312 00d4 0A2D     		cmp	r5, #10
 313 00d6 37D0     		beq	.L39
 314              	.L15:
 339:c:/Users/Black_Life/STM32Cube/Repository/STM32Cube_FW_F4_V1.26.2/Middlewares/Third_Party/LwIP/src/core/ipv4\etharp.c ****       /* or no empty entry found and not allowed to recycle? */
 340:c:/Users/Black_Life/STM32Cube/Repository/STM32Cube_FW_F4_V1.26.2/Middlewares/Third_Party/LwIP/src/core/ipv4\etharp.c ****       ((empty == ARP_TABLE_SIZE) && ((flags & ETHARP_FLAG_TRY_HARD) == 0))) {
 341:c:/Users/Black_Life/STM32Cube/Repository/STM32Cube_FW_F4_V1.26.2/Middlewares/Third_Party/LwIP/src/core/ipv4\etharp.c ****     LWIP_DEBUGF(ETHARP_DEBUG | LWIP_DBG_TRACE, ("etharp_find_entry: no empty entry found and not al
 342:c:/Users/Black_Life/STM32Cube/Repository/STM32Cube_FW_F4_V1.26.2/Middlewares/Third_Party/LwIP/src/core/ipv4\etharp.c ****     return (s16_t)ERR_MEM;
 343:c:/Users/Black_Life/STM32Cube/Repository/STM32Cube_FW_F4_V1.26.2/Middlewares/Third_Party/LwIP/src/core/ipv4\etharp.c ****   }
 344:c:/Users/Black_Life/STM32Cube/Repository/STM32Cube_FW_F4_V1.26.2/Middlewares/Third_Party/LwIP/src/core/ipv4\etharp.c **** 
 345:c:/Users/Black_Life/STM32Cube/Repository/STM32Cube_FW_F4_V1.26.2/Middlewares/Third_Party/LwIP/src/core/ipv4\etharp.c ****   /* b) choose the least destructive entry to recycle:
 346:c:/Users/Black_Life/STM32Cube/Repository/STM32Cube_FW_F4_V1.26.2/Middlewares/Third_Party/LwIP/src/core/ipv4\etharp.c ****    * 1) empty entry
 347:c:/Users/Black_Life/STM32Cube/Repository/STM32Cube_FW_F4_V1.26.2/Middlewares/Third_Party/LwIP/src/core/ipv4\etharp.c ****    * 2) oldest stable entry
 348:c:/Users/Black_Life/STM32Cube/Repository/STM32Cube_FW_F4_V1.26.2/Middlewares/Third_Party/LwIP/src/core/ipv4\etharp.c ****    * 3) oldest pending entry without queued packets
 349:c:/Users/Black_Life/STM32Cube/Repository/STM32Cube_FW_F4_V1.26.2/Middlewares/Third_Party/LwIP/src/core/ipv4\etharp.c ****    * 4) oldest pending entry with queued packets
 350:c:/Users/Black_Life/STM32Cube/Repository/STM32Cube_FW_F4_V1.26.2/Middlewares/Third_Party/LwIP/src/core/ipv4\etharp.c ****    *
 351:c:/Users/Black_Life/STM32Cube/Repository/STM32Cube_FW_F4_V1.26.2/Middlewares/Third_Party/LwIP/src/core/ipv4\etharp.c ****    * { ETHARP_FLAG_TRY_HARD is set at this point }
 352:c:/Users/Black_Life/STM32Cube/Repository/STM32Cube_FW_F4_V1.26.2/Middlewares/Third_Party/LwIP/src/core/ipv4\etharp.c ****    */
 353:c:/Users/Black_Life/STM32Cube/Repository/STM32Cube_FW_F4_V1.26.2/Middlewares/Third_Party/LwIP/src/core/ipv4\etharp.c **** 
 354:c:/Users/Black_Life/STM32Cube/Repository/STM32Cube_FW_F4_V1.26.2/Middlewares/Third_Party/LwIP/src/core/ipv4\etharp.c ****   /* 1) empty entry available? */
 355:c:/Users/Black_Life/STM32Cube/Repository/STM32Cube_FW_F4_V1.26.2/Middlewares/Third_Party/LwIP/src/core/ipv4\etharp.c ****   if (empty < ARP_TABLE_SIZE) {
 315              		.loc 1 355 3 is_stmt 1 view .LVU89
 316              		.loc 1 355 6 is_stmt 0 view .LVU90
 317 00d8 092D     		cmp	r5, #9
 318 00da 16DD     		ble	.L16
 356:c:/Users/Black_Life/STM32Cube/Repository/STM32Cube_FW_F4_V1.26.2/Middlewares/Third_Party/LwIP/src/core/ipv4\etharp.c ****     i = empty;
 357:c:/Users/Black_Life/STM32Cube/Repository/STM32Cube_FW_F4_V1.26.2/Middlewares/Third_Party/LwIP/src/core/ipv4\etharp.c ****     LWIP_DEBUGF(ETHARP_DEBUG | LWIP_DBG_TRACE, ("etharp_find_entry: selecting empty entry %d\n", (i
 358:c:/Users/Black_Life/STM32Cube/Repository/STM32Cube_FW_F4_V1.26.2/Middlewares/Third_Party/LwIP/src/core/ipv4\etharp.c ****   } else {
 359:c:/Users/Black_Life/STM32Cube/Repository/STM32Cube_FW_F4_V1.26.2/Middlewares/Third_Party/LwIP/src/core/ipv4\etharp.c ****     /* 2) found recyclable stable entry? */
ARM GAS  C:\Users\BLACK_~1\AppData\Local\Temp\ccrhXwwe.s 			page 14


 360:c:/Users/Black_Life/STM32Cube/Repository/STM32Cube_FW_F4_V1.26.2/Middlewares/Third_Party/LwIP/src/core/ipv4\etharp.c ****     if (old_stable < ARP_TABLE_SIZE) {
 319              		.loc 1 360 5 is_stmt 1 view .LVU91
 320              		.loc 1 360 8 is_stmt 0 view .LVU92
 321 00dc B8F1090F 		cmp	r8, #9
 322 00e0 38DC     		bgt	.L17
 361:c:/Users/Black_Life/STM32Cube/Repository/STM32Cube_FW_F4_V1.26.2/Middlewares/Third_Party/LwIP/src/core/ipv4\etharp.c ****       /* recycle oldest stable*/
 362:c:/Users/Black_Life/STM32Cube/Repository/STM32Cube_FW_F4_V1.26.2/Middlewares/Third_Party/LwIP/src/core/ipv4\etharp.c ****       i = old_stable;
 323              		.loc 1 362 7 is_stmt 1 view .LVU93
 324              	.LVL23:
 363:c:/Users/Black_Life/STM32Cube/Repository/STM32Cube_FW_F4_V1.26.2/Middlewares/Third_Party/LwIP/src/core/ipv4\etharp.c ****       LWIP_DEBUGF(ETHARP_DEBUG | LWIP_DBG_TRACE, ("etharp_find_entry: selecting oldest stable entry
 325              		.loc 1 363 116 view .LVU94
 364:c:/Users/Black_Life/STM32Cube/Repository/STM32Cube_FW_F4_V1.26.2/Middlewares/Third_Party/LwIP/src/core/ipv4\etharp.c ****       /* no queued packets should exist on stable entries */
 365:c:/Users/Black_Life/STM32Cube/Repository/STM32Cube_FW_F4_V1.26.2/Middlewares/Third_Party/LwIP/src/core/ipv4\etharp.c ****       LWIP_ASSERT("arp_table[i].q == NULL", arp_table[i].q == NULL);
 326              		.loc 1 365 7 view .LVU95
 327              		.loc 1 365 7 view .LVU96
 328 00e2 08EB4803 		add	r3, r8, r8, lsl #1
 329 00e6 314A     		ldr	r2, .L43
 330 00e8 52F83330 		ldr	r3, [r2, r3, lsl #3]
 331 00ec 002B     		cmp	r3, #0
 332 00ee 39D0     		beq	.L31
 333              		.loc 1 365 7 discriminator 1 view .LVU97
 334              		.loc 1 365 7 discriminator 1 view .LVU98
 335 00f0 2F4B     		ldr	r3, .L43+4
 336 00f2 40F26D12 		movw	r2, #365
 337 00f6 2F49     		ldr	r1, .L43+8
 338 00f8 2F48     		ldr	r0, .L43+12
 339 00fa FFF7FEFF 		bl	printf
 340              	.LVL24:
 362:c:/Users/Black_Life/STM32Cube/Repository/STM32Cube_FW_F4_V1.26.2/Middlewares/Third_Party/LwIP/src/core/ipv4\etharp.c ****       LWIP_DEBUGF(ETHARP_DEBUG | LWIP_DBG_TRACE, ("etharp_find_entry: selecting oldest stable entry
 341              		.loc 1 362 9 is_stmt 0 discriminator 1 view .LVU99
 342 00fe 4546     		mov	r5, r8
 343              	.LVL25:
 344              	.L18:
 366:c:/Users/Black_Life/STM32Cube/Repository/STM32Cube_FW_F4_V1.26.2/Middlewares/Third_Party/LwIP/src/core/ipv4\etharp.c ****       /* 3) found recyclable pending entry without queued packets? */
 367:c:/Users/Black_Life/STM32Cube/Repository/STM32Cube_FW_F4_V1.26.2/Middlewares/Third_Party/LwIP/src/core/ipv4\etharp.c ****     } else if (old_pending < ARP_TABLE_SIZE) {
 368:c:/Users/Black_Life/STM32Cube/Repository/STM32Cube_FW_F4_V1.26.2/Middlewares/Third_Party/LwIP/src/core/ipv4\etharp.c ****       /* recycle oldest pending */
 369:c:/Users/Black_Life/STM32Cube/Repository/STM32Cube_FW_F4_V1.26.2/Middlewares/Third_Party/LwIP/src/core/ipv4\etharp.c ****       i = old_pending;
 370:c:/Users/Black_Life/STM32Cube/Repository/STM32Cube_FW_F4_V1.26.2/Middlewares/Third_Party/LwIP/src/core/ipv4\etharp.c ****       LWIP_DEBUGF(ETHARP_DEBUG | LWIP_DBG_TRACE, ("etharp_find_entry: selecting oldest pending entr
 371:c:/Users/Black_Life/STM32Cube/Repository/STM32Cube_FW_F4_V1.26.2/Middlewares/Third_Party/LwIP/src/core/ipv4\etharp.c ****       /* 4) found recyclable pending entry with queued packets? */
 372:c:/Users/Black_Life/STM32Cube/Repository/STM32Cube_FW_F4_V1.26.2/Middlewares/Third_Party/LwIP/src/core/ipv4\etharp.c ****     } else if (old_queue < ARP_TABLE_SIZE) {
 373:c:/Users/Black_Life/STM32Cube/Repository/STM32Cube_FW_F4_V1.26.2/Middlewares/Third_Party/LwIP/src/core/ipv4\etharp.c ****       /* recycle oldest pending (queued packets are free in etharp_free_entry) */
 374:c:/Users/Black_Life/STM32Cube/Repository/STM32Cube_FW_F4_V1.26.2/Middlewares/Third_Party/LwIP/src/core/ipv4\etharp.c ****       i = old_queue;
 375:c:/Users/Black_Life/STM32Cube/Repository/STM32Cube_FW_F4_V1.26.2/Middlewares/Third_Party/LwIP/src/core/ipv4\etharp.c ****       LWIP_DEBUGF(ETHARP_DEBUG | LWIP_DBG_TRACE, ("etharp_find_entry: selecting oldest pending entr
 376:c:/Users/Black_Life/STM32Cube/Repository/STM32Cube_FW_F4_V1.26.2/Middlewares/Third_Party/LwIP/src/core/ipv4\etharp.c ****       /* no empty or recyclable entries found */
 377:c:/Users/Black_Life/STM32Cube/Repository/STM32Cube_FW_F4_V1.26.2/Middlewares/Third_Party/LwIP/src/core/ipv4\etharp.c ****     } else {
 378:c:/Users/Black_Life/STM32Cube/Repository/STM32Cube_FW_F4_V1.26.2/Middlewares/Third_Party/LwIP/src/core/ipv4\etharp.c ****       LWIP_DEBUGF(ETHARP_DEBUG | LWIP_DBG_TRACE, ("etharp_find_entry: no empty or recyclable entrie
 379:c:/Users/Black_Life/STM32Cube/Repository/STM32Cube_FW_F4_V1.26.2/Middlewares/Third_Party/LwIP/src/core/ipv4\etharp.c ****       return (s16_t)ERR_MEM;
 380:c:/Users/Black_Life/STM32Cube/Repository/STM32Cube_FW_F4_V1.26.2/Middlewares/Third_Party/LwIP/src/core/ipv4\etharp.c ****     }
 381:c:/Users/Black_Life/STM32Cube/Repository/STM32Cube_FW_F4_V1.26.2/Middlewares/Third_Party/LwIP/src/core/ipv4\etharp.c **** 
 382:c:/Users/Black_Life/STM32Cube/Repository/STM32Cube_FW_F4_V1.26.2/Middlewares/Third_Party/LwIP/src/core/ipv4\etharp.c ****     /* { empty or recyclable entry found } */
 383:c:/Users/Black_Life/STM32Cube/Repository/STM32Cube_FW_F4_V1.26.2/Middlewares/Third_Party/LwIP/src/core/ipv4\etharp.c ****     LWIP_ASSERT("i < ARP_TABLE_SIZE", i < ARP_TABLE_SIZE);
 345              		.loc 1 383 5 is_stmt 1 view .LVU100
 346              		.loc 1 383 5 view .LVU101
 347 0100 092D     		cmp	r5, #9
 348 0102 33DC     		bgt	.L40
 349              	.L19:
 350              		.loc 1 383 5 discriminator 3 view .LVU102
ARM GAS  C:\Users\BLACK_~1\AppData\Local\Temp\ccrhXwwe.s 			page 15


 351              		.loc 1 383 5 discriminator 3 view .LVU103
 384:c:/Users/Black_Life/STM32Cube/Repository/STM32Cube_FW_F4_V1.26.2/Middlewares/Third_Party/LwIP/src/core/ipv4\etharp.c ****     etharp_free_entry(i);
 352              		.loc 1 384 5 discriminator 3 view .LVU104
 353 0104 2846     		mov	r0, r5
 354 0106 FFF7FEFF 		bl	etharp_free_entry
 355              	.LVL26:
 356              	.L16:
 385:c:/Users/Black_Life/STM32Cube/Repository/STM32Cube_FW_F4_V1.26.2/Middlewares/Third_Party/LwIP/src/core/ipv4\etharp.c ****   }
 386:c:/Users/Black_Life/STM32Cube/Repository/STM32Cube_FW_F4_V1.26.2/Middlewares/Third_Party/LwIP/src/core/ipv4\etharp.c **** 
 387:c:/Users/Black_Life/STM32Cube/Repository/STM32Cube_FW_F4_V1.26.2/Middlewares/Third_Party/LwIP/src/core/ipv4\etharp.c ****   LWIP_ASSERT("i < ARP_TABLE_SIZE", i < ARP_TABLE_SIZE);
 357              		.loc 1 387 3 view .LVU105
 358              		.loc 1 387 3 view .LVU106
 359 010a 092D     		cmp	r5, #9
 360 010c 36DC     		bgt	.L41
 361              	.L20:
 362              		.loc 1 387 3 discriminator 3 view .LVU107
 363              		.loc 1 387 3 discriminator 3 view .LVU108
 388:c:/Users/Black_Life/STM32Cube/Repository/STM32Cube_FW_F4_V1.26.2/Middlewares/Third_Party/LwIP/src/core/ipv4\etharp.c ****   LWIP_ASSERT("arp_table[i].state == ETHARP_STATE_EMPTY",
 364              		.loc 1 388 3 discriminator 3 view .LVU109
 365              		.loc 1 388 3 discriminator 3 view .LVU110
 366 010e 2C46     		mov	r4, r5
 367 0110 05EB4503 		add	r3, r5, r5, lsl #1
 368 0114 254A     		ldr	r2, .L43
 369 0116 02EBC303 		add	r3, r2, r3, lsl #3
 370 011a 1B7D     		ldrb	r3, [r3, #20]	@ zero_extendqisi2
 371 011c 002B     		cmp	r3, #0
 372 011e 35D1     		bne	.L42
 373              	.L21:
 374              		.loc 1 388 3 discriminator 3 view .LVU111
 375              		.loc 1 388 3 discriminator 3 view .LVU112
 389:c:/Users/Black_Life/STM32Cube/Repository/STM32Cube_FW_F4_V1.26.2/Middlewares/Third_Party/LwIP/src/core/ipv4\etharp.c ****               arp_table[i].state == ETHARP_STATE_EMPTY);
 390:c:/Users/Black_Life/STM32Cube/Repository/STM32Cube_FW_F4_V1.26.2/Middlewares/Third_Party/LwIP/src/core/ipv4\etharp.c **** 
 391:c:/Users/Black_Life/STM32Cube/Repository/STM32Cube_FW_F4_V1.26.2/Middlewares/Third_Party/LwIP/src/core/ipv4\etharp.c ****   /* IP address given? */
 392:c:/Users/Black_Life/STM32Cube/Repository/STM32Cube_FW_F4_V1.26.2/Middlewares/Third_Party/LwIP/src/core/ipv4\etharp.c ****   if (ipaddr != NULL) {
 376              		.loc 1 392 3 discriminator 3 view .LVU113
 377              		.loc 1 392 6 is_stmt 0 discriminator 3 view .LVU114
 378 0120 36B1     		cbz	r6, .L22
 393:c:/Users/Black_Life/STM32Cube/Repository/STM32Cube_FW_F4_V1.26.2/Middlewares/Third_Party/LwIP/src/core/ipv4\etharp.c ****     /* set IP address */
 394:c:/Users/Black_Life/STM32Cube/Repository/STM32Cube_FW_F4_V1.26.2/Middlewares/Third_Party/LwIP/src/core/ipv4\etharp.c ****     ip4_addr_copy(arp_table[i].ipaddr, *ipaddr);
 379              		.loc 1 394 5 is_stmt 1 view .LVU115
 380 0122 3168     		ldr	r1, [r6]
 381 0124 04EB4403 		add	r3, r4, r4, lsl #1
 382 0128 204A     		ldr	r2, .L43
 383 012a 02EBC303 		add	r3, r2, r3, lsl #3
 384 012e 5960     		str	r1, [r3, #4]
 385              	.L22:
 395:c:/Users/Black_Life/STM32Cube/Repository/STM32Cube_FW_F4_V1.26.2/Middlewares/Third_Party/LwIP/src/core/ipv4\etharp.c ****   }
 396:c:/Users/Black_Life/STM32Cube/Repository/STM32Cube_FW_F4_V1.26.2/Middlewares/Third_Party/LwIP/src/core/ipv4\etharp.c ****   arp_table[i].ctime = 0;
 386              		.loc 1 396 3 view .LVU116
 387              		.loc 1 396 22 is_stmt 0 view .LVU117
 388 0130 1E4B     		ldr	r3, .L43
 389 0132 04EB4402 		add	r2, r4, r4, lsl #1
 390 0136 03EBC202 		add	r2, r3, r2, lsl #3
 391 013a 0021     		movs	r1, #0
 392 013c 5182     		strh	r1, [r2, #18]	@ movhi
 397:c:/Users/Black_Life/STM32Cube/Repository/STM32Cube_FW_F4_V1.26.2/Middlewares/Third_Party/LwIP/src/core/ipv4\etharp.c **** #if ETHARP_TABLE_MATCH_NETIF
 398:c:/Users/Black_Life/STM32Cube/Repository/STM32Cube_FW_F4_V1.26.2/Middlewares/Third_Party/LwIP/src/core/ipv4\etharp.c ****   arp_table[i].netif = netif;
ARM GAS  C:\Users\BLACK_~1\AppData\Local\Temp\ccrhXwwe.s 			page 16


 393              		.loc 1 398 3 is_stmt 1 view .LVU118
 394              		.loc 1 398 22 is_stmt 0 view .LVU119
 395 013e 9760     		str	r7, [r2, #8]
 399:c:/Users/Black_Life/STM32Cube/Repository/STM32Cube_FW_F4_V1.26.2/Middlewares/Third_Party/LwIP/src/core/ipv4\etharp.c **** #endif /* ETHARP_TABLE_MATCH_NETIF */
 400:c:/Users/Black_Life/STM32Cube/Repository/STM32Cube_FW_F4_V1.26.2/Middlewares/Third_Party/LwIP/src/core/ipv4\etharp.c ****   return (s16_t)i;
 396              		.loc 1 400 3 is_stmt 1 view .LVU120
 397              	.LVL27:
 398              	.L11:
 401:c:/Users/Black_Life/STM32Cube/Repository/STM32Cube_FW_F4_V1.26.2/Middlewares/Third_Party/LwIP/src/core/ipv4\etharp.c **** }
 399              		.loc 1 401 1 is_stmt 0 view .LVU121
 400 0140 2846     		mov	r0, r5
 401 0142 03B0     		add	sp, sp, #12
 402              	.LCFI3:
 403              		.cfi_remember_state
 404              		.cfi_def_cfa_offset 36
 405              	.LVL28:
 406              		.loc 1 401 1 view .LVU122
 407              		@ sp needed
 408 0144 BDE8F08F 		pop	{r4, r5, r6, r7, r8, r9, r10, fp, pc}
 409              	.LVL29:
 410              	.L39:
 411              	.LCFI4:
 412              		.cfi_restore_state
 340:c:/Users/Black_Life/STM32Cube/Repository/STM32Cube_FW_F4_V1.26.2/Middlewares/Third_Party/LwIP/src/core/ipv4\etharp.c ****     LWIP_DEBUGF(ETHARP_DEBUG | LWIP_DBG_TRACE, ("etharp_find_entry: no empty entry found and not al
 413              		.loc 1 340 34 view .LVU123
 414 0148 1EF0010F 		tst	lr, #1
 415 014c C4D1     		bne	.L15
 342:c:/Users/Black_Life/STM32Cube/Repository/STM32Cube_FW_F4_V1.26.2/Middlewares/Third_Party/LwIP/src/core/ipv4\etharp.c ****   }
 416              		.loc 1 342 12 view .LVU124
 417 014e 4FF0FF35 		mov	r5, #-1
 418              	.LVL30:
 342:c:/Users/Black_Life/STM32Cube/Repository/STM32Cube_FW_F4_V1.26.2/Middlewares/Third_Party/LwIP/src/core/ipv4\etharp.c ****   }
 419              		.loc 1 342 12 view .LVU125
 420 0152 F5E7     		b	.L11
 421              	.LVL31:
 422              	.L17:
 367:c:/Users/Black_Life/STM32Cube/Repository/STM32Cube_FW_F4_V1.26.2/Middlewares/Third_Party/LwIP/src/core/ipv4\etharp.c ****       /* recycle oldest pending */
 423              		.loc 1 367 12 is_stmt 1 view .LVU126
 367:c:/Users/Black_Life/STM32Cube/Repository/STM32Cube_FW_F4_V1.26.2/Middlewares/Third_Party/LwIP/src/core/ipv4\etharp.c ****       /* recycle oldest pending */
 424              		.loc 1 367 15 is_stmt 0 view .LVU127
 425 0154 019B     		ldr	r3, [sp, #4]
 426              	.LVL32:
 367:c:/Users/Black_Life/STM32Cube/Repository/STM32Cube_FW_F4_V1.26.2/Middlewares/Third_Party/LwIP/src/core/ipv4\etharp.c ****       /* recycle oldest pending */
 427              		.loc 1 367 15 view .LVU128
 428 0156 092B     		cmp	r3, #9
 429 0158 06DD     		ble	.L32
 372:c:/Users/Black_Life/STM32Cube/Repository/STM32Cube_FW_F4_V1.26.2/Middlewares/Third_Party/LwIP/src/core/ipv4\etharp.c ****       /* recycle oldest pending (queued packets are free in etharp_free_entry) */
 430              		.loc 1 372 12 is_stmt 1 view .LVU129
 372:c:/Users/Black_Life/STM32Cube/Repository/STM32Cube_FW_F4_V1.26.2/Middlewares/Third_Party/LwIP/src/core/ipv4\etharp.c ****       /* recycle oldest pending (queued packets are free in etharp_free_entry) */
 431              		.loc 1 372 15 is_stmt 0 view .LVU130
 432 015a BAF1090F 		cmp	r10, #9
 433 015e 22DC     		bgt	.L33
 374:c:/Users/Black_Life/STM32Cube/Repository/STM32Cube_FW_F4_V1.26.2/Middlewares/Third_Party/LwIP/src/core/ipv4\etharp.c ****       LWIP_DEBUGF(ETHARP_DEBUG | LWIP_DBG_TRACE, ("etharp_find_entry: selecting oldest pending entr
 434              		.loc 1 374 9 view .LVU131
 435 0160 5546     		mov	r5, r10
 436              	.LVL33:
 374:c:/Users/Black_Life/STM32Cube/Repository/STM32Cube_FW_F4_V1.26.2/Middlewares/Third_Party/LwIP/src/core/ipv4\etharp.c ****       LWIP_DEBUGF(ETHARP_DEBUG | LWIP_DBG_TRACE, ("etharp_find_entry: selecting oldest pending entr
ARM GAS  C:\Users\BLACK_~1\AppData\Local\Temp\ccrhXwwe.s 			page 17


 437              		.loc 1 374 9 view .LVU132
 438 0162 CDE7     		b	.L18
 439              	.LVL34:
 440              	.L31:
 362:c:/Users/Black_Life/STM32Cube/Repository/STM32Cube_FW_F4_V1.26.2/Middlewares/Third_Party/LwIP/src/core/ipv4\etharp.c ****       LWIP_DEBUGF(ETHARP_DEBUG | LWIP_DBG_TRACE, ("etharp_find_entry: selecting oldest stable entry
 441              		.loc 1 362 9 view .LVU133
 442 0164 4546     		mov	r5, r8
 443              	.LVL35:
 362:c:/Users/Black_Life/STM32Cube/Repository/STM32Cube_FW_F4_V1.26.2/Middlewares/Third_Party/LwIP/src/core/ipv4\etharp.c ****       LWIP_DEBUGF(ETHARP_DEBUG | LWIP_DBG_TRACE, ("etharp_find_entry: selecting oldest stable entry
 444              		.loc 1 362 9 view .LVU134
 445 0166 CBE7     		b	.L18
 446              	.LVL36:
 447              	.L32:
 369:c:/Users/Black_Life/STM32Cube/Repository/STM32Cube_FW_F4_V1.26.2/Middlewares/Third_Party/LwIP/src/core/ipv4\etharp.c ****       LWIP_DEBUGF(ETHARP_DEBUG | LWIP_DBG_TRACE, ("etharp_find_entry: selecting oldest pending entr
 448              		.loc 1 369 9 view .LVU135
 449 0168 019D     		ldr	r5, [sp, #4]
 450              	.LVL37:
 369:c:/Users/Black_Life/STM32Cube/Repository/STM32Cube_FW_F4_V1.26.2/Middlewares/Third_Party/LwIP/src/core/ipv4\etharp.c ****       LWIP_DEBUGF(ETHARP_DEBUG | LWIP_DBG_TRACE, ("etharp_find_entry: selecting oldest pending entr
 451              		.loc 1 369 9 view .LVU136
 452 016a C9E7     		b	.L18
 453              	.LVL38:
 454              	.L40:
 383:c:/Users/Black_Life/STM32Cube/Repository/STM32Cube_FW_F4_V1.26.2/Middlewares/Third_Party/LwIP/src/core/ipv4\etharp.c ****     etharp_free_entry(i);
 455              		.loc 1 383 5 is_stmt 1 discriminator 1 view .LVU137
 383:c:/Users/Black_Life/STM32Cube/Repository/STM32Cube_FW_F4_V1.26.2/Middlewares/Third_Party/LwIP/src/core/ipv4\etharp.c ****     etharp_free_entry(i);
 456              		.loc 1 383 5 discriminator 1 view .LVU138
 457 016c 104B     		ldr	r3, .L43+4
 458 016e 40F27F12 		movw	r2, #383
 459 0172 1249     		ldr	r1, .L43+16
 460 0174 1048     		ldr	r0, .L43+12
 461 0176 FFF7FEFF 		bl	printf
 462              	.LVL39:
 463 017a C3E7     		b	.L19
 464              	.L41:
 387:c:/Users/Black_Life/STM32Cube/Repository/STM32Cube_FW_F4_V1.26.2/Middlewares/Third_Party/LwIP/src/core/ipv4\etharp.c ****   LWIP_ASSERT("arp_table[i].state == ETHARP_STATE_EMPTY",
 465              		.loc 1 387 3 discriminator 1 view .LVU139
 387:c:/Users/Black_Life/STM32Cube/Repository/STM32Cube_FW_F4_V1.26.2/Middlewares/Third_Party/LwIP/src/core/ipv4\etharp.c ****   LWIP_ASSERT("arp_table[i].state == ETHARP_STATE_EMPTY",
 466              		.loc 1 387 3 discriminator 1 view .LVU140
 467 017c 0C4B     		ldr	r3, .L43+4
 468 017e 40F28312 		movw	r2, #387
 469 0182 0E49     		ldr	r1, .L43+16
 470 0184 0C48     		ldr	r0, .L43+12
 471 0186 FFF7FEFF 		bl	printf
 472              	.LVL40:
 473 018a C0E7     		b	.L20
 474              	.L42:
 388:c:/Users/Black_Life/STM32Cube/Repository/STM32Cube_FW_F4_V1.26.2/Middlewares/Third_Party/LwIP/src/core/ipv4\etharp.c ****               arp_table[i].state == ETHARP_STATE_EMPTY);
 475              		.loc 1 388 3 discriminator 1 view .LVU141
 388:c:/Users/Black_Life/STM32Cube/Repository/STM32Cube_FW_F4_V1.26.2/Middlewares/Third_Party/LwIP/src/core/ipv4\etharp.c ****               arp_table[i].state == ETHARP_STATE_EMPTY);
 476              		.loc 1 388 3 discriminator 1 view .LVU142
 477 018c 084B     		ldr	r3, .L43+4
 478 018e 4FF4C272 		mov	r2, #388
 479 0192 0B49     		ldr	r1, .L43+20
 480 0194 0848     		ldr	r0, .L43+12
 481 0196 FFF7FEFF 		bl	printf
 482              	.LVL41:
 483 019a C1E7     		b	.L21
ARM GAS  C:\Users\BLACK_~1\AppData\Local\Temp\ccrhXwwe.s 			page 18


 484              	.LVL42:
 485              	.L24:
 486              	.LBB4:
 301:c:/Users/Black_Life/STM32Cube/Repository/STM32Cube_FW_F4_V1.26.2/Middlewares/Third_Party/LwIP/src/core/ipv4\etharp.c ****       }
 487              		.loc 1 301 16 is_stmt 0 view .LVU143
 488 019c 1D46     		mov	r5, r3
 489              	.LVL43:
 301:c:/Users/Black_Life/STM32Cube/Repository/STM32Cube_FW_F4_V1.26.2/Middlewares/Third_Party/LwIP/src/core/ipv4\etharp.c ****       }
 490              		.loc 1 301 16 view .LVU144
 491 019e CFE7     		b	.L11
 492              	.LVL44:
 493              	.L29:
 301:c:/Users/Black_Life/STM32Cube/Repository/STM32Cube_FW_F4_V1.26.2/Middlewares/Third_Party/LwIP/src/core/ipv4\etharp.c ****       }
 494              		.loc 1 301 16 view .LVU145
 495              	.LBE4:
 342:c:/Users/Black_Life/STM32Cube/Repository/STM32Cube_FW_F4_V1.26.2/Middlewares/Third_Party/LwIP/src/core/ipv4\etharp.c ****   }
 496              		.loc 1 342 12 view .LVU146
 497 01a0 4FF0FF35 		mov	r5, #-1
 498              	.LVL45:
 342:c:/Users/Black_Life/STM32Cube/Repository/STM32Cube_FW_F4_V1.26.2/Middlewares/Third_Party/LwIP/src/core/ipv4\etharp.c ****   }
 499              		.loc 1 342 12 view .LVU147
 500 01a4 CCE7     		b	.L11
 501              	.LVL46:
 502              	.L33:
 379:c:/Users/Black_Life/STM32Cube/Repository/STM32Cube_FW_F4_V1.26.2/Middlewares/Third_Party/LwIP/src/core/ipv4\etharp.c ****     }
 503              		.loc 1 379 14 view .LVU148
 504 01a6 4FF0FF35 		mov	r5, #-1
 505              	.LVL47:
 379:c:/Users/Black_Life/STM32Cube/Repository/STM32Cube_FW_F4_V1.26.2/Middlewares/Third_Party/LwIP/src/core/ipv4\etharp.c ****     }
 506              		.loc 1 379 14 view .LVU149
 507 01aa C9E7     		b	.L11
 508              	.L44:
 509              		.align	2
 510              	.L43:
 511 01ac 00000000 		.word	.LANCHOR0
 512 01b0 00000000 		.word	.LC0
 513 01b4 78000000 		.word	.LC1
 514 01b8 90000000 		.word	.LC2
 515 01bc B8000000 		.word	.LC3
 516 01c0 CC000000 		.word	.LC4
 517              		.cfi_endproc
 518              	.LFE158:
 520              		.section	.rodata.etharp_update_arp_entry.str1.4,"aMS",%progbits,1
 521              		.align	2
 522              	.LC5:
 523 0000 6E657469 		.ascii	"netif->hwaddr_len == ETH_HWADDR_LEN\000"
 523      662D3E68 
 523      77616464 
 523      725F6C65 
 523      6E203D3D 
 524              		.section	.text.etharp_update_arp_entry,"ax",%progbits
 525              		.align	1
 526              		.syntax unified
 527              		.thumb
 528              		.thumb_func
 530              	etharp_update_arp_entry:
 531              	.LVL48:
ARM GAS  C:\Users\BLACK_~1\AppData\Local\Temp\ccrhXwwe.s 			page 19


 532              	.LFB159:
 402:c:/Users/Black_Life/STM32Cube/Repository/STM32Cube_FW_F4_V1.26.2/Middlewares/Third_Party/LwIP/src/core/ipv4\etharp.c **** 
 403:c:/Users/Black_Life/STM32Cube/Repository/STM32Cube_FW_F4_V1.26.2/Middlewares/Third_Party/LwIP/src/core/ipv4\etharp.c **** /**
 404:c:/Users/Black_Life/STM32Cube/Repository/STM32Cube_FW_F4_V1.26.2/Middlewares/Third_Party/LwIP/src/core/ipv4\etharp.c ****  * Update (or insert) a IP/MAC address pair in the ARP cache.
 405:c:/Users/Black_Life/STM32Cube/Repository/STM32Cube_FW_F4_V1.26.2/Middlewares/Third_Party/LwIP/src/core/ipv4\etharp.c ****  *
 406:c:/Users/Black_Life/STM32Cube/Repository/STM32Cube_FW_F4_V1.26.2/Middlewares/Third_Party/LwIP/src/core/ipv4\etharp.c ****  * If a pending entry is resolved, any queued packets will be sent
 407:c:/Users/Black_Life/STM32Cube/Repository/STM32Cube_FW_F4_V1.26.2/Middlewares/Third_Party/LwIP/src/core/ipv4\etharp.c ****  * at this point.
 408:c:/Users/Black_Life/STM32Cube/Repository/STM32Cube_FW_F4_V1.26.2/Middlewares/Third_Party/LwIP/src/core/ipv4\etharp.c ****  *
 409:c:/Users/Black_Life/STM32Cube/Repository/STM32Cube_FW_F4_V1.26.2/Middlewares/Third_Party/LwIP/src/core/ipv4\etharp.c ****  * @param netif netif related to this entry (used for NETIF_ADDRHINT)
 410:c:/Users/Black_Life/STM32Cube/Repository/STM32Cube_FW_F4_V1.26.2/Middlewares/Third_Party/LwIP/src/core/ipv4\etharp.c ****  * @param ipaddr IP address of the inserted ARP entry.
 411:c:/Users/Black_Life/STM32Cube/Repository/STM32Cube_FW_F4_V1.26.2/Middlewares/Third_Party/LwIP/src/core/ipv4\etharp.c ****  * @param ethaddr Ethernet address of the inserted ARP entry.
 412:c:/Users/Black_Life/STM32Cube/Repository/STM32Cube_FW_F4_V1.26.2/Middlewares/Third_Party/LwIP/src/core/ipv4\etharp.c ****  * @param flags See @ref etharp_state
 413:c:/Users/Black_Life/STM32Cube/Repository/STM32Cube_FW_F4_V1.26.2/Middlewares/Third_Party/LwIP/src/core/ipv4\etharp.c ****  *
 414:c:/Users/Black_Life/STM32Cube/Repository/STM32Cube_FW_F4_V1.26.2/Middlewares/Third_Party/LwIP/src/core/ipv4\etharp.c ****  * @return
 415:c:/Users/Black_Life/STM32Cube/Repository/STM32Cube_FW_F4_V1.26.2/Middlewares/Third_Party/LwIP/src/core/ipv4\etharp.c ****  * - ERR_OK Successfully updated ARP cache.
 416:c:/Users/Black_Life/STM32Cube/Repository/STM32Cube_FW_F4_V1.26.2/Middlewares/Third_Party/LwIP/src/core/ipv4\etharp.c ****  * - ERR_MEM If we could not add a new ARP entry when ETHARP_FLAG_TRY_HARD was set.
 417:c:/Users/Black_Life/STM32Cube/Repository/STM32Cube_FW_F4_V1.26.2/Middlewares/Third_Party/LwIP/src/core/ipv4\etharp.c ****  * - ERR_ARG Non-unicast address given, those will not appear in ARP cache.
 418:c:/Users/Black_Life/STM32Cube/Repository/STM32Cube_FW_F4_V1.26.2/Middlewares/Third_Party/LwIP/src/core/ipv4\etharp.c ****  *
 419:c:/Users/Black_Life/STM32Cube/Repository/STM32Cube_FW_F4_V1.26.2/Middlewares/Third_Party/LwIP/src/core/ipv4\etharp.c ****  * @see pbuf_free()
 420:c:/Users/Black_Life/STM32Cube/Repository/STM32Cube_FW_F4_V1.26.2/Middlewares/Third_Party/LwIP/src/core/ipv4\etharp.c ****  */
 421:c:/Users/Black_Life/STM32Cube/Repository/STM32Cube_FW_F4_V1.26.2/Middlewares/Third_Party/LwIP/src/core/ipv4\etharp.c **** static err_t
 422:c:/Users/Black_Life/STM32Cube/Repository/STM32Cube_FW_F4_V1.26.2/Middlewares/Third_Party/LwIP/src/core/ipv4\etharp.c **** etharp_update_arp_entry(struct netif *netif, const ip4_addr_t *ipaddr, struct eth_addr *ethaddr, u8
 423:c:/Users/Black_Life/STM32Cube/Repository/STM32Cube_FW_F4_V1.26.2/Middlewares/Third_Party/LwIP/src/core/ipv4\etharp.c **** {
 533              		.loc 1 423 1 is_stmt 1 view -0
 534              		.cfi_startproc
 535              		@ args = 0, pretend = 0, frame = 0
 536              		@ frame_needed = 0, uses_anonymous_args = 0
 537              		.loc 1 423 1 is_stmt 0 view .LVU151
 538 0000 F0B5     		push	{r4, r5, r6, r7, lr}
 539              	.LCFI5:
 540              		.cfi_def_cfa_offset 20
 541              		.cfi_offset 4, -20
 542              		.cfi_offset 5, -16
 543              		.cfi_offset 6, -12
 544              		.cfi_offset 7, -8
 545              		.cfi_offset 14, -4
 546 0002 83B0     		sub	sp, sp, #12
 547              	.LCFI6:
 548              		.cfi_def_cfa_offset 32
 549 0004 0546     		mov	r5, r0
 550 0006 0C46     		mov	r4, r1
 551 0008 1646     		mov	r6, r2
 552 000a 1F46     		mov	r7, r3
 424:c:/Users/Black_Life/STM32Cube/Repository/STM32Cube_FW_F4_V1.26.2/Middlewares/Third_Party/LwIP/src/core/ipv4\etharp.c ****   s16_t i;
 553              		.loc 1 424 3 is_stmt 1 view .LVU152
 425:c:/Users/Black_Life/STM32Cube/Repository/STM32Cube_FW_F4_V1.26.2/Middlewares/Third_Party/LwIP/src/core/ipv4\etharp.c ****   LWIP_ASSERT("netif->hwaddr_len == ETH_HWADDR_LEN", netif->hwaddr_len == ETH_HWADDR_LEN);
 554              		.loc 1 425 3 view .LVU153
 555              		.loc 1 425 3 view .LVU154
 556 000c 90F83020 		ldrb	r2, [r0, #48]	@ zero_extendqisi2
 557              	.LVL49:
 558              		.loc 1 425 3 is_stmt 0 view .LVU155
 559 0010 062A     		cmp	r2, #6
 560 0012 3ED1     		bne	.L53
 561              	.LVL50:
 562              	.L46:
 563              		.loc 1 425 3 is_stmt 1 discriminator 3 view .LVU156
 564              		.loc 1 425 3 discriminator 3 view .LVU157
ARM GAS  C:\Users\BLACK_~1\AppData\Local\Temp\ccrhXwwe.s 			page 20


 426:c:/Users/Black_Life/STM32Cube/Repository/STM32Cube_FW_F4_V1.26.2/Middlewares/Third_Party/LwIP/src/core/ipv4\etharp.c ****   LWIP_DEBUGF(ETHARP_DEBUG | LWIP_DBG_TRACE, ("etharp_update_arp_entry: %"U16_F".%"U16_F".%"U16_F".
 427:c:/Users/Black_Life/STM32Cube/Repository/STM32Cube_FW_F4_V1.26.2/Middlewares/Third_Party/LwIP/src/core/ipv4\etharp.c ****               ip4_addr1_16(ipaddr), ip4_addr2_16(ipaddr), ip4_addr3_16(ipaddr), ip4_addr4_16(ipaddr
 428:c:/Users/Black_Life/STM32Cube/Repository/STM32Cube_FW_F4_V1.26.2/Middlewares/Third_Party/LwIP/src/core/ipv4\etharp.c ****               (u16_t)ethaddr->addr[0], (u16_t)ethaddr->addr[1], (u16_t)ethaddr->addr[2],
 429:c:/Users/Black_Life/STM32Cube/Repository/STM32Cube_FW_F4_V1.26.2/Middlewares/Third_Party/LwIP/src/core/ipv4\etharp.c ****               (u16_t)ethaddr->addr[3], (u16_t)ethaddr->addr[4], (u16_t)ethaddr->addr[5]));
 565              		.loc 1 429 90 discriminator 3 view .LVU158
 430:c:/Users/Black_Life/STM32Cube/Repository/STM32Cube_FW_F4_V1.26.2/Middlewares/Third_Party/LwIP/src/core/ipv4\etharp.c ****   /* non-unicast address? */
 431:c:/Users/Black_Life/STM32Cube/Repository/STM32Cube_FW_F4_V1.26.2/Middlewares/Third_Party/LwIP/src/core/ipv4\etharp.c ****   if (ip4_addr_isany(ipaddr) ||
 566              		.loc 1 431 3 discriminator 3 view .LVU159
 567              		.loc 1 431 6 is_stmt 0 discriminator 3 view .LVU160
 568 0014 002C     		cmp	r4, #0
 569 0016 44D0     		beq	.L47
 570              		.loc 1 431 7 discriminator 1 view .LVU161
 571 0018 2068     		ldr	r0, [r4]
 572 001a 0028     		cmp	r0, #0
 573 001c 41D0     		beq	.L47
 432:c:/Users/Black_Life/STM32Cube/Repository/STM32Cube_FW_F4_V1.26.2/Middlewares/Third_Party/LwIP/src/core/ipv4\etharp.c ****       ip4_addr_isbroadcast(ipaddr, netif) ||
 574              		.loc 1 432 7 discriminator 2 view .LVU162
 575 001e 2946     		mov	r1, r5
 576 0020 FFF7FEFF 		bl	ip4_addr_isbroadcast_u32
 577              	.LVL51:
 431:c:/Users/Black_Life/STM32Cube/Repository/STM32Cube_FW_F4_V1.26.2/Middlewares/Third_Party/LwIP/src/core/ipv4\etharp.c ****       ip4_addr_isbroadcast(ipaddr, netif) ||
 578              		.loc 1 431 30 discriminator 2 view .LVU163
 579 0024 0028     		cmp	r0, #0
 580 0026 3CD1     		bne	.L47
 433:c:/Users/Black_Life/STM32Cube/Repository/STM32Cube_FW_F4_V1.26.2/Middlewares/Third_Party/LwIP/src/core/ipv4\etharp.c ****       ip4_addr_ismulticast(ipaddr)) {
 581              		.loc 1 433 7 view .LVU164
 582 0028 2268     		ldr	r2, [r4]
 583 002a 02F0F002 		and	r2, r2, #240
 432:c:/Users/Black_Life/STM32Cube/Repository/STM32Cube_FW_F4_V1.26.2/Middlewares/Third_Party/LwIP/src/core/ipv4\etharp.c ****       ip4_addr_isbroadcast(ipaddr, netif) ||
 584              		.loc 1 432 43 view .LVU165
 585 002e E02A     		cmp	r2, #224
 586 0030 37D0     		beq	.L47
 434:c:/Users/Black_Life/STM32Cube/Repository/STM32Cube_FW_F4_V1.26.2/Middlewares/Third_Party/LwIP/src/core/ipv4\etharp.c ****     LWIP_DEBUGF(ETHARP_DEBUG | LWIP_DBG_TRACE, ("etharp_update_arp_entry: will not add non-unicast 
 435:c:/Users/Black_Life/STM32Cube/Repository/STM32Cube_FW_F4_V1.26.2/Middlewares/Third_Party/LwIP/src/core/ipv4\etharp.c ****     return ERR_ARG;
 436:c:/Users/Black_Life/STM32Cube/Repository/STM32Cube_FW_F4_V1.26.2/Middlewares/Third_Party/LwIP/src/core/ipv4\etharp.c ****   }
 437:c:/Users/Black_Life/STM32Cube/Repository/STM32Cube_FW_F4_V1.26.2/Middlewares/Third_Party/LwIP/src/core/ipv4\etharp.c ****   /* find or create ARP entry */
 438:c:/Users/Black_Life/STM32Cube/Repository/STM32Cube_FW_F4_V1.26.2/Middlewares/Third_Party/LwIP/src/core/ipv4\etharp.c ****   i = etharp_find_entry(ipaddr, flags, netif);
 587              		.loc 1 438 3 is_stmt 1 view .LVU166
 588              		.loc 1 438 7 is_stmt 0 view .LVU167
 589 0032 2A46     		mov	r2, r5
 590 0034 3946     		mov	r1, r7
 591 0036 2046     		mov	r0, r4
 592 0038 FFF7FEFF 		bl	etharp_find_entry
 593              	.LVL52:
 439:c:/Users/Black_Life/STM32Cube/Repository/STM32Cube_FW_F4_V1.26.2/Middlewares/Third_Party/LwIP/src/core/ipv4\etharp.c ****   /* bail out if no entry could be found */
 440:c:/Users/Black_Life/STM32Cube/Repository/STM32Cube_FW_F4_V1.26.2/Middlewares/Third_Party/LwIP/src/core/ipv4\etharp.c ****   if (i < 0) {
 594              		.loc 1 440 3 is_stmt 1 view .LVU168
 595              		.loc 1 440 6 is_stmt 0 view .LVU169
 596 003c B0F1000C 		subs	ip, r0, #0
 597 0040 32DB     		blt	.L54
 441:c:/Users/Black_Life/STM32Cube/Repository/STM32Cube_FW_F4_V1.26.2/Middlewares/Third_Party/LwIP/src/core/ipv4\etharp.c ****     return (err_t)i;
 442:c:/Users/Black_Life/STM32Cube/Repository/STM32Cube_FW_F4_V1.26.2/Middlewares/Third_Party/LwIP/src/core/ipv4\etharp.c ****   }
 443:c:/Users/Black_Life/STM32Cube/Repository/STM32Cube_FW_F4_V1.26.2/Middlewares/Third_Party/LwIP/src/core/ipv4\etharp.c **** 
 444:c:/Users/Black_Life/STM32Cube/Repository/STM32Cube_FW_F4_V1.26.2/Middlewares/Third_Party/LwIP/src/core/ipv4\etharp.c **** #if ETHARP_SUPPORT_STATIC_ENTRIES
 445:c:/Users/Black_Life/STM32Cube/Repository/STM32Cube_FW_F4_V1.26.2/Middlewares/Third_Party/LwIP/src/core/ipv4\etharp.c ****   if (flags & ETHARP_FLAG_STATIC_ENTRY) {
 446:c:/Users/Black_Life/STM32Cube/Repository/STM32Cube_FW_F4_V1.26.2/Middlewares/Third_Party/LwIP/src/core/ipv4\etharp.c ****     /* record static type */
 447:c:/Users/Black_Life/STM32Cube/Repository/STM32Cube_FW_F4_V1.26.2/Middlewares/Third_Party/LwIP/src/core/ipv4\etharp.c ****     arp_table[i].state = ETHARP_STATE_STATIC;
ARM GAS  C:\Users\BLACK_~1\AppData\Local\Temp\ccrhXwwe.s 			page 21


 448:c:/Users/Black_Life/STM32Cube/Repository/STM32Cube_FW_F4_V1.26.2/Middlewares/Third_Party/LwIP/src/core/ipv4\etharp.c ****   } else if (arp_table[i].state == ETHARP_STATE_STATIC) {
 449:c:/Users/Black_Life/STM32Cube/Repository/STM32Cube_FW_F4_V1.26.2/Middlewares/Third_Party/LwIP/src/core/ipv4\etharp.c ****     /* found entry is a static type, don't overwrite it */
 450:c:/Users/Black_Life/STM32Cube/Repository/STM32Cube_FW_F4_V1.26.2/Middlewares/Third_Party/LwIP/src/core/ipv4\etharp.c ****     return ERR_VAL;
 451:c:/Users/Black_Life/STM32Cube/Repository/STM32Cube_FW_F4_V1.26.2/Middlewares/Third_Party/LwIP/src/core/ipv4\etharp.c ****   } else
 452:c:/Users/Black_Life/STM32Cube/Repository/STM32Cube_FW_F4_V1.26.2/Middlewares/Third_Party/LwIP/src/core/ipv4\etharp.c **** #endif /* ETHARP_SUPPORT_STATIC_ENTRIES */
 453:c:/Users/Black_Life/STM32Cube/Repository/STM32Cube_FW_F4_V1.26.2/Middlewares/Third_Party/LwIP/src/core/ipv4\etharp.c ****   {
 454:c:/Users/Black_Life/STM32Cube/Repository/STM32Cube_FW_F4_V1.26.2/Middlewares/Third_Party/LwIP/src/core/ipv4\etharp.c ****     /* mark it stable */
 455:c:/Users/Black_Life/STM32Cube/Repository/STM32Cube_FW_F4_V1.26.2/Middlewares/Third_Party/LwIP/src/core/ipv4\etharp.c ****     arp_table[i].state = ETHARP_STATE_STABLE;
 598              		.loc 1 455 5 is_stmt 1 view .LVU170
 599              		.loc 1 455 24 is_stmt 0 view .LVU171
 600 0042 1C4B     		ldr	r3, .L55
 601 0044 0CEB4C00 		add	r0, ip, ip, lsl #1
 602              	.LVL53:
 603              		.loc 1 455 24 view .LVU172
 604 0048 03EBC002 		add	r2, r3, r0, lsl #3
 605 004c 0221     		movs	r1, #2
 606 004e 1175     		strb	r1, [r2, #20]
 456:c:/Users/Black_Life/STM32Cube/Repository/STM32Cube_FW_F4_V1.26.2/Middlewares/Third_Party/LwIP/src/core/ipv4\etharp.c ****   }
 457:c:/Users/Black_Life/STM32Cube/Repository/STM32Cube_FW_F4_V1.26.2/Middlewares/Third_Party/LwIP/src/core/ipv4\etharp.c **** 
 458:c:/Users/Black_Life/STM32Cube/Repository/STM32Cube_FW_F4_V1.26.2/Middlewares/Third_Party/LwIP/src/core/ipv4\etharp.c ****   /* record network interface */
 459:c:/Users/Black_Life/STM32Cube/Repository/STM32Cube_FW_F4_V1.26.2/Middlewares/Third_Party/LwIP/src/core/ipv4\etharp.c ****   arp_table[i].netif = netif;
 607              		.loc 1 459 3 is_stmt 1 view .LVU173
 608              		.loc 1 459 22 is_stmt 0 view .LVU174
 609 0050 9560     		str	r5, [r2, #8]
 460:c:/Users/Black_Life/STM32Cube/Repository/STM32Cube_FW_F4_V1.26.2/Middlewares/Third_Party/LwIP/src/core/ipv4\etharp.c ****   /* insert in SNMP ARP index tree */
 461:c:/Users/Black_Life/STM32Cube/Repository/STM32Cube_FW_F4_V1.26.2/Middlewares/Third_Party/LwIP/src/core/ipv4\etharp.c ****   mib2_add_arp_entry(netif, &arp_table[i].ipaddr);
 610              		.loc 1 461 50 is_stmt 1 view .LVU175
 462:c:/Users/Black_Life/STM32Cube/Repository/STM32Cube_FW_F4_V1.26.2/Middlewares/Third_Party/LwIP/src/core/ipv4\etharp.c **** 
 463:c:/Users/Black_Life/STM32Cube/Repository/STM32Cube_FW_F4_V1.26.2/Middlewares/Third_Party/LwIP/src/core/ipv4\etharp.c ****   LWIP_DEBUGF(ETHARP_DEBUG | LWIP_DBG_TRACE, ("etharp_update_arp_entry: updating stable entry %"S16
 611              		.loc 1 463 111 view .LVU176
 464:c:/Users/Black_Life/STM32Cube/Repository/STM32Cube_FW_F4_V1.26.2/Middlewares/Third_Party/LwIP/src/core/ipv4\etharp.c ****   /* update address */
 465:c:/Users/Black_Life/STM32Cube/Repository/STM32Cube_FW_F4_V1.26.2/Middlewares/Third_Party/LwIP/src/core/ipv4\etharp.c ****   SMEMCPY(&arp_table[i].ethaddr, ethaddr, ETH_HWADDR_LEN);
 612              		.loc 1 465 3 view .LVU177
 613 0052 C100     		lsls	r1, r0, #3
 614 0054 0831     		adds	r1, r1, #8
 615 0056 1944     		add	r1, r1, r3
 616 0058 3468     		ldr	r4, [r6]	@ unaligned
 617              	.LVL54:
 618              		.loc 1 465 3 is_stmt 0 view .LVU178
 619 005a 4C60     		str	r4, [r1, #4]	@ unaligned
 620 005c B488     		ldrh	r4, [r6, #4]	@ unaligned
 621 005e 0C81     		strh	r4, [r1, #8]	@ unaligned
 466:c:/Users/Black_Life/STM32Cube/Repository/STM32Cube_FW_F4_V1.26.2/Middlewares/Third_Party/LwIP/src/core/ipv4\etharp.c ****   /* reset time stamp */
 467:c:/Users/Black_Life/STM32Cube/Repository/STM32Cube_FW_F4_V1.26.2/Middlewares/Third_Party/LwIP/src/core/ipv4\etharp.c ****   arp_table[i].ctime = 0;
 622              		.loc 1 467 3 is_stmt 1 view .LVU179
 623              		.loc 1 467 22 is_stmt 0 view .LVU180
 624 0060 0021     		movs	r1, #0
 625 0062 5182     		strh	r1, [r2, #18]	@ movhi
 468:c:/Users/Black_Life/STM32Cube/Repository/STM32Cube_FW_F4_V1.26.2/Middlewares/Third_Party/LwIP/src/core/ipv4\etharp.c ****   /* this is where we will send out queued packets! */
 469:c:/Users/Black_Life/STM32Cube/Repository/STM32Cube_FW_F4_V1.26.2/Middlewares/Third_Party/LwIP/src/core/ipv4\etharp.c **** #if ARP_QUEUEING
 470:c:/Users/Black_Life/STM32Cube/Repository/STM32Cube_FW_F4_V1.26.2/Middlewares/Third_Party/LwIP/src/core/ipv4\etharp.c ****   while (arp_table[i].q != NULL) {
 471:c:/Users/Black_Life/STM32Cube/Repository/STM32Cube_FW_F4_V1.26.2/Middlewares/Third_Party/LwIP/src/core/ipv4\etharp.c ****     struct pbuf *p;
 472:c:/Users/Black_Life/STM32Cube/Repository/STM32Cube_FW_F4_V1.26.2/Middlewares/Third_Party/LwIP/src/core/ipv4\etharp.c ****     /* remember remainder of queue */
 473:c:/Users/Black_Life/STM32Cube/Repository/STM32Cube_FW_F4_V1.26.2/Middlewares/Third_Party/LwIP/src/core/ipv4\etharp.c ****     struct etharp_q_entry *q = arp_table[i].q;
 474:c:/Users/Black_Life/STM32Cube/Repository/STM32Cube_FW_F4_V1.26.2/Middlewares/Third_Party/LwIP/src/core/ipv4\etharp.c ****     /* pop first item off the queue */
 475:c:/Users/Black_Life/STM32Cube/Repository/STM32Cube_FW_F4_V1.26.2/Middlewares/Third_Party/LwIP/src/core/ipv4\etharp.c ****     arp_table[i].q = q->next;
 476:c:/Users/Black_Life/STM32Cube/Repository/STM32Cube_FW_F4_V1.26.2/Middlewares/Third_Party/LwIP/src/core/ipv4\etharp.c ****     /* get the packet pointer */
ARM GAS  C:\Users\BLACK_~1\AppData\Local\Temp\ccrhXwwe.s 			page 22


 477:c:/Users/Black_Life/STM32Cube/Repository/STM32Cube_FW_F4_V1.26.2/Middlewares/Third_Party/LwIP/src/core/ipv4\etharp.c ****     p = q->p;
 478:c:/Users/Black_Life/STM32Cube/Repository/STM32Cube_FW_F4_V1.26.2/Middlewares/Third_Party/LwIP/src/core/ipv4\etharp.c ****     /* now queue entry can be freed */
 479:c:/Users/Black_Life/STM32Cube/Repository/STM32Cube_FW_F4_V1.26.2/Middlewares/Third_Party/LwIP/src/core/ipv4\etharp.c ****     memp_free(MEMP_ARP_QUEUE, q);
 480:c:/Users/Black_Life/STM32Cube/Repository/STM32Cube_FW_F4_V1.26.2/Middlewares/Third_Party/LwIP/src/core/ipv4\etharp.c **** #else /* ARP_QUEUEING */
 481:c:/Users/Black_Life/STM32Cube/Repository/STM32Cube_FW_F4_V1.26.2/Middlewares/Third_Party/LwIP/src/core/ipv4\etharp.c ****   if (arp_table[i].q != NULL) {
 626              		.loc 1 481 3 is_stmt 1 view .LVU181
 627              		.loc 1 481 19 is_stmt 0 view .LVU182
 628 0064 53F83070 		ldr	r7, [r3, r0, lsl #3]
 629              		.loc 1 481 6 view .LVU183
 630 0068 17B3     		cbz	r7, .L51
 631              	.LBB5:
 482:c:/Users/Black_Life/STM32Cube/Repository/STM32Cube_FW_F4_V1.26.2/Middlewares/Third_Party/LwIP/src/core/ipv4\etharp.c ****     struct pbuf *p = arp_table[i].q;
 632              		.loc 1 482 5 is_stmt 1 view .LVU184
 633              	.LVL55:
 483:c:/Users/Black_Life/STM32Cube/Repository/STM32Cube_FW_F4_V1.26.2/Middlewares/Third_Party/LwIP/src/core/ipv4\etharp.c ****     arp_table[i].q = NULL;
 634              		.loc 1 483 5 view .LVU185
 635              		.loc 1 483 20 is_stmt 0 view .LVU186
 636 006a 4FEAC00C 		lsl	ip, r0, #3
 637 006e 0C46     		mov	r4, r1
 638 0070 43F80C10 		str	r1, [r3, ip]
 484:c:/Users/Black_Life/STM32Cube/Repository/STM32Cube_FW_F4_V1.26.2/Middlewares/Third_Party/LwIP/src/core/ipv4\etharp.c **** #endif /* ARP_QUEUEING */
 485:c:/Users/Black_Life/STM32Cube/Repository/STM32Cube_FW_F4_V1.26.2/Middlewares/Third_Party/LwIP/src/core/ipv4\etharp.c ****     /* send the queued IP packet */
 486:c:/Users/Black_Life/STM32Cube/Repository/STM32Cube_FW_F4_V1.26.2/Middlewares/Third_Party/LwIP/src/core/ipv4\etharp.c ****     ethernet_output(netif, p, (struct eth_addr *)(netif->hwaddr), ethaddr, ETHTYPE_IP);
 639              		.loc 1 486 5 is_stmt 1 view .LVU187
 640 0074 4FF40063 		mov	r3, #2048
 641 0078 0093     		str	r3, [sp]
 642 007a 3346     		mov	r3, r6
 643 007c 05F12A02 		add	r2, r5, #42
 644 0080 3946     		mov	r1, r7
 645 0082 2846     		mov	r0, r5
 646 0084 FFF7FEFF 		bl	ethernet_output
 647              	.LVL56:
 487:c:/Users/Black_Life/STM32Cube/Repository/STM32Cube_FW_F4_V1.26.2/Middlewares/Third_Party/LwIP/src/core/ipv4\etharp.c ****     /* free the queued IP packet */
 488:c:/Users/Black_Life/STM32Cube/Repository/STM32Cube_FW_F4_V1.26.2/Middlewares/Third_Party/LwIP/src/core/ipv4\etharp.c ****     pbuf_free(p);
 648              		.loc 1 488 5 view .LVU188
 649 0088 3846     		mov	r0, r7
 650 008a FFF7FEFF 		bl	pbuf_free
 651              	.LVL57:
 652              	.LBE5:
 489:c:/Users/Black_Life/STM32Cube/Repository/STM32Cube_FW_F4_V1.26.2/Middlewares/Third_Party/LwIP/src/core/ipv4\etharp.c ****   }
 490:c:/Users/Black_Life/STM32Cube/Repository/STM32Cube_FW_F4_V1.26.2/Middlewares/Third_Party/LwIP/src/core/ipv4\etharp.c ****   return ERR_OK;
 653              		.loc 1 490 10 is_stmt 0 view .LVU189
 654 008e 2046     		mov	r0, r4
 655 0090 0CE0     		b	.L49
 656              	.LVL58:
 657              	.L53:
 425:c:/Users/Black_Life/STM32Cube/Repository/STM32Cube_FW_F4_V1.26.2/Middlewares/Third_Party/LwIP/src/core/ipv4\etharp.c ****   LWIP_DEBUGF(ETHARP_DEBUG | LWIP_DBG_TRACE, ("etharp_update_arp_entry: %"U16_F".%"U16_F".%"U16_F".
 658              		.loc 1 425 3 is_stmt 1 discriminator 1 view .LVU190
 425:c:/Users/Black_Life/STM32Cube/Repository/STM32Cube_FW_F4_V1.26.2/Middlewares/Third_Party/LwIP/src/core/ipv4\etharp.c ****   LWIP_DEBUGF(ETHARP_DEBUG | LWIP_DBG_TRACE, ("etharp_update_arp_entry: %"U16_F".%"U16_F".%"U16_F".
 659              		.loc 1 425 3 discriminator 1 view .LVU191
 660 0092 094B     		ldr	r3, .L55+4
 661              	.LVL59:
 425:c:/Users/Black_Life/STM32Cube/Repository/STM32Cube_FW_F4_V1.26.2/Middlewares/Third_Party/LwIP/src/core/ipv4\etharp.c ****   LWIP_DEBUGF(ETHARP_DEBUG | LWIP_DBG_TRACE, ("etharp_update_arp_entry: %"U16_F".%"U16_F".%"U16_F".
 662              		.loc 1 425 3 is_stmt 0 discriminator 1 view .LVU192
 663 0094 40F2A912 		movw	r2, #425
 664 0098 0849     		ldr	r1, .L55+8
 665              	.LVL60:
ARM GAS  C:\Users\BLACK_~1\AppData\Local\Temp\ccrhXwwe.s 			page 23


 425:c:/Users/Black_Life/STM32Cube/Repository/STM32Cube_FW_F4_V1.26.2/Middlewares/Third_Party/LwIP/src/core/ipv4\etharp.c ****   LWIP_DEBUGF(ETHARP_DEBUG | LWIP_DBG_TRACE, ("etharp_update_arp_entry: %"U16_F".%"U16_F".%"U16_F".
 666              		.loc 1 425 3 discriminator 1 view .LVU193
 667 009a 0948     		ldr	r0, .L55+12
 668              	.LVL61:
 425:c:/Users/Black_Life/STM32Cube/Repository/STM32Cube_FW_F4_V1.26.2/Middlewares/Third_Party/LwIP/src/core/ipv4\etharp.c ****   LWIP_DEBUGF(ETHARP_DEBUG | LWIP_DBG_TRACE, ("etharp_update_arp_entry: %"U16_F".%"U16_F".%"U16_F".
 669              		.loc 1 425 3 discriminator 1 view .LVU194
 670 009c FFF7FEFF 		bl	printf
 671              	.LVL62:
 672 00a0 B8E7     		b	.L46
 673              	.L47:
 434:c:/Users/Black_Life/STM32Cube/Repository/STM32Cube_FW_F4_V1.26.2/Middlewares/Third_Party/LwIP/src/core/ipv4\etharp.c ****     return ERR_ARG;
 674              		.loc 1 434 128 is_stmt 1 view .LVU195
 435:c:/Users/Black_Life/STM32Cube/Repository/STM32Cube_FW_F4_V1.26.2/Middlewares/Third_Party/LwIP/src/core/ipv4\etharp.c ****   }
 675              		.loc 1 435 5 view .LVU196
 435:c:/Users/Black_Life/STM32Cube/Repository/STM32Cube_FW_F4_V1.26.2/Middlewares/Third_Party/LwIP/src/core/ipv4\etharp.c ****   }
 676              		.loc 1 435 12 is_stmt 0 view .LVU197
 677 00a2 6FF00F00 		mvn	r0, #15
 678 00a6 01E0     		b	.L49
 679              	.LVL63:
 680              	.L54:
 441:c:/Users/Black_Life/STM32Cube/Repository/STM32Cube_FW_F4_V1.26.2/Middlewares/Third_Party/LwIP/src/core/ipv4\etharp.c ****   }
 681              		.loc 1 441 5 is_stmt 1 view .LVU198
 441:c:/Users/Black_Life/STM32Cube/Repository/STM32Cube_FW_F4_V1.26.2/Middlewares/Third_Party/LwIP/src/core/ipv4\etharp.c ****   }
 682              		.loc 1 441 12 is_stmt 0 view .LVU199
 683 00a8 4FFA8CF0 		sxtb	r0, ip
 684              	.LVL64:
 685              	.L49:
 491:c:/Users/Black_Life/STM32Cube/Repository/STM32Cube_FW_F4_V1.26.2/Middlewares/Third_Party/LwIP/src/core/ipv4\etharp.c **** }
 686              		.loc 1 491 1 view .LVU200
 687 00ac 03B0     		add	sp, sp, #12
 688              	.LCFI7:
 689              		.cfi_remember_state
 690              		.cfi_def_cfa_offset 20
 691              		@ sp needed
 692 00ae F0BD     		pop	{r4, r5, r6, r7, pc}
 693              	.LVL65:
 694              	.L51:
 695              	.LCFI8:
 696              		.cfi_restore_state
 490:c:/Users/Black_Life/STM32Cube/Repository/STM32Cube_FW_F4_V1.26.2/Middlewares/Third_Party/LwIP/src/core/ipv4\etharp.c **** }
 697              		.loc 1 490 10 view .LVU201
 698 00b0 0020     		movs	r0, #0
 699 00b2 FBE7     		b	.L49
 700              	.L56:
 701              		.align	2
 702              	.L55:
 703 00b4 00000000 		.word	.LANCHOR0
 704 00b8 00000000 		.word	.LC0
 705 00bc 00000000 		.word	.LC5
 706 00c0 90000000 		.word	.LC2
 707              		.cfi_endproc
 708              	.LFE159:
 710              		.section	.rodata.etharp_raw.str1.4,"aMS",%progbits,1
 711              		.align	2
 712              	.LC6:
 713 0000 6E657469 		.ascii	"netif != NULL\000"
 713      6620213D 
ARM GAS  C:\Users\BLACK_~1\AppData\Local\Temp\ccrhXwwe.s 			page 24


 713      204E554C 
 713      4C00
 714 000e 0000     		.align	2
 715              	.LC7:
 716 0010 63686563 		.ascii	"check that first pbuf can hold struct etharp_hdr\000"
 716      6B207468 
 716      61742066 
 716      69727374 
 716      20706275 
 717 0041 000000   		.align	2
 718              	.LC8:
 719 0044 6E657469 		.ascii	"netif->hwaddr_len must be the same as ETH_HWADDR_LE"
 719      662D3E68 
 719      77616464 
 719      725F6C65 
 719      6E206D75 
 720 0077 4E20666F 		.ascii	"N for etharp!\000"
 720      72206574 
 720      68617270 
 720      2100
 721              		.section	.text.etharp_raw,"ax",%progbits
 722              		.align	1
 723              		.syntax unified
 724              		.thumb
 725              		.thumb_func
 727              	etharp_raw:
 728              	.LVL66:
 729              	.LFB167:
 492:c:/Users/Black_Life/STM32Cube/Repository/STM32Cube_FW_F4_V1.26.2/Middlewares/Third_Party/LwIP/src/core/ipv4\etharp.c **** 
 493:c:/Users/Black_Life/STM32Cube/Repository/STM32Cube_FW_F4_V1.26.2/Middlewares/Third_Party/LwIP/src/core/ipv4\etharp.c **** #if ETHARP_SUPPORT_STATIC_ENTRIES
 494:c:/Users/Black_Life/STM32Cube/Repository/STM32Cube_FW_F4_V1.26.2/Middlewares/Third_Party/LwIP/src/core/ipv4\etharp.c **** /** Add a new static entry to the ARP table. If an entry exists for the
 495:c:/Users/Black_Life/STM32Cube/Repository/STM32Cube_FW_F4_V1.26.2/Middlewares/Third_Party/LwIP/src/core/ipv4\etharp.c ****  * specified IP address, this entry is overwritten.
 496:c:/Users/Black_Life/STM32Cube/Repository/STM32Cube_FW_F4_V1.26.2/Middlewares/Third_Party/LwIP/src/core/ipv4\etharp.c ****  * If packets are queued for the specified IP address, they are sent out.
 497:c:/Users/Black_Life/STM32Cube/Repository/STM32Cube_FW_F4_V1.26.2/Middlewares/Third_Party/LwIP/src/core/ipv4\etharp.c ****  *
 498:c:/Users/Black_Life/STM32Cube/Repository/STM32Cube_FW_F4_V1.26.2/Middlewares/Third_Party/LwIP/src/core/ipv4\etharp.c ****  * @param ipaddr IP address for the new static entry
 499:c:/Users/Black_Life/STM32Cube/Repository/STM32Cube_FW_F4_V1.26.2/Middlewares/Third_Party/LwIP/src/core/ipv4\etharp.c ****  * @param ethaddr ethernet address for the new static entry
 500:c:/Users/Black_Life/STM32Cube/Repository/STM32Cube_FW_F4_V1.26.2/Middlewares/Third_Party/LwIP/src/core/ipv4\etharp.c ****  * @return See return values of etharp_add_static_entry
 501:c:/Users/Black_Life/STM32Cube/Repository/STM32Cube_FW_F4_V1.26.2/Middlewares/Third_Party/LwIP/src/core/ipv4\etharp.c ****  */
 502:c:/Users/Black_Life/STM32Cube/Repository/STM32Cube_FW_F4_V1.26.2/Middlewares/Third_Party/LwIP/src/core/ipv4\etharp.c **** err_t
 503:c:/Users/Black_Life/STM32Cube/Repository/STM32Cube_FW_F4_V1.26.2/Middlewares/Third_Party/LwIP/src/core/ipv4\etharp.c **** etharp_add_static_entry(const ip4_addr_t *ipaddr, struct eth_addr *ethaddr)
 504:c:/Users/Black_Life/STM32Cube/Repository/STM32Cube_FW_F4_V1.26.2/Middlewares/Third_Party/LwIP/src/core/ipv4\etharp.c **** {
 505:c:/Users/Black_Life/STM32Cube/Repository/STM32Cube_FW_F4_V1.26.2/Middlewares/Third_Party/LwIP/src/core/ipv4\etharp.c ****   struct netif *netif;
 506:c:/Users/Black_Life/STM32Cube/Repository/STM32Cube_FW_F4_V1.26.2/Middlewares/Third_Party/LwIP/src/core/ipv4\etharp.c ****   LWIP_ASSERT_CORE_LOCKED();
 507:c:/Users/Black_Life/STM32Cube/Repository/STM32Cube_FW_F4_V1.26.2/Middlewares/Third_Party/LwIP/src/core/ipv4\etharp.c ****   LWIP_DEBUGF(ETHARP_DEBUG | LWIP_DBG_TRACE, ("etharp_add_static_entry: %"U16_F".%"U16_F".%"U16_F".
 508:c:/Users/Black_Life/STM32Cube/Repository/STM32Cube_FW_F4_V1.26.2/Middlewares/Third_Party/LwIP/src/core/ipv4\etharp.c ****               ip4_addr1_16(ipaddr), ip4_addr2_16(ipaddr), ip4_addr3_16(ipaddr), ip4_addr4_16(ipaddr
 509:c:/Users/Black_Life/STM32Cube/Repository/STM32Cube_FW_F4_V1.26.2/Middlewares/Third_Party/LwIP/src/core/ipv4\etharp.c ****               (u16_t)ethaddr->addr[0], (u16_t)ethaddr->addr[1], (u16_t)ethaddr->addr[2],
 510:c:/Users/Black_Life/STM32Cube/Repository/STM32Cube_FW_F4_V1.26.2/Middlewares/Third_Party/LwIP/src/core/ipv4\etharp.c ****               (u16_t)ethaddr->addr[3], (u16_t)ethaddr->addr[4], (u16_t)ethaddr->addr[5]));
 511:c:/Users/Black_Life/STM32Cube/Repository/STM32Cube_FW_F4_V1.26.2/Middlewares/Third_Party/LwIP/src/core/ipv4\etharp.c **** 
 512:c:/Users/Black_Life/STM32Cube/Repository/STM32Cube_FW_F4_V1.26.2/Middlewares/Third_Party/LwIP/src/core/ipv4\etharp.c ****   netif = ip4_route(ipaddr);
 513:c:/Users/Black_Life/STM32Cube/Repository/STM32Cube_FW_F4_V1.26.2/Middlewares/Third_Party/LwIP/src/core/ipv4\etharp.c ****   if (netif == NULL) {
 514:c:/Users/Black_Life/STM32Cube/Repository/STM32Cube_FW_F4_V1.26.2/Middlewares/Third_Party/LwIP/src/core/ipv4\etharp.c ****     return ERR_RTE;
 515:c:/Users/Black_Life/STM32Cube/Repository/STM32Cube_FW_F4_V1.26.2/Middlewares/Third_Party/LwIP/src/core/ipv4\etharp.c ****   }
 516:c:/Users/Black_Life/STM32Cube/Repository/STM32Cube_FW_F4_V1.26.2/Middlewares/Third_Party/LwIP/src/core/ipv4\etharp.c **** 
 517:c:/Users/Black_Life/STM32Cube/Repository/STM32Cube_FW_F4_V1.26.2/Middlewares/Third_Party/LwIP/src/core/ipv4\etharp.c ****   return etharp_update_arp_entry(netif, ipaddr, ethaddr, ETHARP_FLAG_TRY_HARD | ETHARP_FLAG_STATIC_
 518:c:/Users/Black_Life/STM32Cube/Repository/STM32Cube_FW_F4_V1.26.2/Middlewares/Third_Party/LwIP/src/core/ipv4\etharp.c **** }
 519:c:/Users/Black_Life/STM32Cube/Repository/STM32Cube_FW_F4_V1.26.2/Middlewares/Third_Party/LwIP/src/core/ipv4\etharp.c **** 
 520:c:/Users/Black_Life/STM32Cube/Repository/STM32Cube_FW_F4_V1.26.2/Middlewares/Third_Party/LwIP/src/core/ipv4\etharp.c **** /** Remove a static entry from the ARP table previously added with a call to
ARM GAS  C:\Users\BLACK_~1\AppData\Local\Temp\ccrhXwwe.s 			page 25


 521:c:/Users/Black_Life/STM32Cube/Repository/STM32Cube_FW_F4_V1.26.2/Middlewares/Third_Party/LwIP/src/core/ipv4\etharp.c ****  * etharp_add_static_entry.
 522:c:/Users/Black_Life/STM32Cube/Repository/STM32Cube_FW_F4_V1.26.2/Middlewares/Third_Party/LwIP/src/core/ipv4\etharp.c ****  *
 523:c:/Users/Black_Life/STM32Cube/Repository/STM32Cube_FW_F4_V1.26.2/Middlewares/Third_Party/LwIP/src/core/ipv4\etharp.c ****  * @param ipaddr IP address of the static entry to remove
 524:c:/Users/Black_Life/STM32Cube/Repository/STM32Cube_FW_F4_V1.26.2/Middlewares/Third_Party/LwIP/src/core/ipv4\etharp.c ****  * @return ERR_OK: entry removed
 525:c:/Users/Black_Life/STM32Cube/Repository/STM32Cube_FW_F4_V1.26.2/Middlewares/Third_Party/LwIP/src/core/ipv4\etharp.c ****  *         ERR_MEM: entry wasn't found
 526:c:/Users/Black_Life/STM32Cube/Repository/STM32Cube_FW_F4_V1.26.2/Middlewares/Third_Party/LwIP/src/core/ipv4\etharp.c ****  *         ERR_ARG: entry wasn't a static entry but a dynamic one
 527:c:/Users/Black_Life/STM32Cube/Repository/STM32Cube_FW_F4_V1.26.2/Middlewares/Third_Party/LwIP/src/core/ipv4\etharp.c ****  */
 528:c:/Users/Black_Life/STM32Cube/Repository/STM32Cube_FW_F4_V1.26.2/Middlewares/Third_Party/LwIP/src/core/ipv4\etharp.c **** err_t
 529:c:/Users/Black_Life/STM32Cube/Repository/STM32Cube_FW_F4_V1.26.2/Middlewares/Third_Party/LwIP/src/core/ipv4\etharp.c **** etharp_remove_static_entry(const ip4_addr_t *ipaddr)
 530:c:/Users/Black_Life/STM32Cube/Repository/STM32Cube_FW_F4_V1.26.2/Middlewares/Third_Party/LwIP/src/core/ipv4\etharp.c **** {
 531:c:/Users/Black_Life/STM32Cube/Repository/STM32Cube_FW_F4_V1.26.2/Middlewares/Third_Party/LwIP/src/core/ipv4\etharp.c ****   s16_t i;
 532:c:/Users/Black_Life/STM32Cube/Repository/STM32Cube_FW_F4_V1.26.2/Middlewares/Third_Party/LwIP/src/core/ipv4\etharp.c ****   LWIP_ASSERT_CORE_LOCKED();
 533:c:/Users/Black_Life/STM32Cube/Repository/STM32Cube_FW_F4_V1.26.2/Middlewares/Third_Party/LwIP/src/core/ipv4\etharp.c ****   LWIP_DEBUGF(ETHARP_DEBUG | LWIP_DBG_TRACE, ("etharp_remove_static_entry: %"U16_F".%"U16_F".%"U16_
 534:c:/Users/Black_Life/STM32Cube/Repository/STM32Cube_FW_F4_V1.26.2/Middlewares/Third_Party/LwIP/src/core/ipv4\etharp.c ****               ip4_addr1_16(ipaddr), ip4_addr2_16(ipaddr), ip4_addr3_16(ipaddr), ip4_addr4_16(ipaddr
 535:c:/Users/Black_Life/STM32Cube/Repository/STM32Cube_FW_F4_V1.26.2/Middlewares/Third_Party/LwIP/src/core/ipv4\etharp.c **** 
 536:c:/Users/Black_Life/STM32Cube/Repository/STM32Cube_FW_F4_V1.26.2/Middlewares/Third_Party/LwIP/src/core/ipv4\etharp.c ****   /* find or create ARP entry */
 537:c:/Users/Black_Life/STM32Cube/Repository/STM32Cube_FW_F4_V1.26.2/Middlewares/Third_Party/LwIP/src/core/ipv4\etharp.c ****   i = etharp_find_entry(ipaddr, ETHARP_FLAG_FIND_ONLY, NULL);
 538:c:/Users/Black_Life/STM32Cube/Repository/STM32Cube_FW_F4_V1.26.2/Middlewares/Third_Party/LwIP/src/core/ipv4\etharp.c ****   /* bail out if no entry could be found */
 539:c:/Users/Black_Life/STM32Cube/Repository/STM32Cube_FW_F4_V1.26.2/Middlewares/Third_Party/LwIP/src/core/ipv4\etharp.c ****   if (i < 0) {
 540:c:/Users/Black_Life/STM32Cube/Repository/STM32Cube_FW_F4_V1.26.2/Middlewares/Third_Party/LwIP/src/core/ipv4\etharp.c ****     return (err_t)i;
 541:c:/Users/Black_Life/STM32Cube/Repository/STM32Cube_FW_F4_V1.26.2/Middlewares/Third_Party/LwIP/src/core/ipv4\etharp.c ****   }
 542:c:/Users/Black_Life/STM32Cube/Repository/STM32Cube_FW_F4_V1.26.2/Middlewares/Third_Party/LwIP/src/core/ipv4\etharp.c **** 
 543:c:/Users/Black_Life/STM32Cube/Repository/STM32Cube_FW_F4_V1.26.2/Middlewares/Third_Party/LwIP/src/core/ipv4\etharp.c ****   if (arp_table[i].state != ETHARP_STATE_STATIC) {
 544:c:/Users/Black_Life/STM32Cube/Repository/STM32Cube_FW_F4_V1.26.2/Middlewares/Third_Party/LwIP/src/core/ipv4\etharp.c ****     /* entry wasn't a static entry, cannot remove it */
 545:c:/Users/Black_Life/STM32Cube/Repository/STM32Cube_FW_F4_V1.26.2/Middlewares/Third_Party/LwIP/src/core/ipv4\etharp.c ****     return ERR_ARG;
 546:c:/Users/Black_Life/STM32Cube/Repository/STM32Cube_FW_F4_V1.26.2/Middlewares/Third_Party/LwIP/src/core/ipv4\etharp.c ****   }
 547:c:/Users/Black_Life/STM32Cube/Repository/STM32Cube_FW_F4_V1.26.2/Middlewares/Third_Party/LwIP/src/core/ipv4\etharp.c ****   /* entry found, free it */
 548:c:/Users/Black_Life/STM32Cube/Repository/STM32Cube_FW_F4_V1.26.2/Middlewares/Third_Party/LwIP/src/core/ipv4\etharp.c ****   etharp_free_entry(i);
 549:c:/Users/Black_Life/STM32Cube/Repository/STM32Cube_FW_F4_V1.26.2/Middlewares/Third_Party/LwIP/src/core/ipv4\etharp.c ****   return ERR_OK;
 550:c:/Users/Black_Life/STM32Cube/Repository/STM32Cube_FW_F4_V1.26.2/Middlewares/Third_Party/LwIP/src/core/ipv4\etharp.c **** }
 551:c:/Users/Black_Life/STM32Cube/Repository/STM32Cube_FW_F4_V1.26.2/Middlewares/Third_Party/LwIP/src/core/ipv4\etharp.c **** #endif /* ETHARP_SUPPORT_STATIC_ENTRIES */
 552:c:/Users/Black_Life/STM32Cube/Repository/STM32Cube_FW_F4_V1.26.2/Middlewares/Third_Party/LwIP/src/core/ipv4\etharp.c **** 
 553:c:/Users/Black_Life/STM32Cube/Repository/STM32Cube_FW_F4_V1.26.2/Middlewares/Third_Party/LwIP/src/core/ipv4\etharp.c **** /**
 554:c:/Users/Black_Life/STM32Cube/Repository/STM32Cube_FW_F4_V1.26.2/Middlewares/Third_Party/LwIP/src/core/ipv4\etharp.c ****  * Remove all ARP table entries of the specified netif.
 555:c:/Users/Black_Life/STM32Cube/Repository/STM32Cube_FW_F4_V1.26.2/Middlewares/Third_Party/LwIP/src/core/ipv4\etharp.c ****  *
 556:c:/Users/Black_Life/STM32Cube/Repository/STM32Cube_FW_F4_V1.26.2/Middlewares/Third_Party/LwIP/src/core/ipv4\etharp.c ****  * @param netif points to a network interface
 557:c:/Users/Black_Life/STM32Cube/Repository/STM32Cube_FW_F4_V1.26.2/Middlewares/Third_Party/LwIP/src/core/ipv4\etharp.c ****  */
 558:c:/Users/Black_Life/STM32Cube/Repository/STM32Cube_FW_F4_V1.26.2/Middlewares/Third_Party/LwIP/src/core/ipv4\etharp.c **** void
 559:c:/Users/Black_Life/STM32Cube/Repository/STM32Cube_FW_F4_V1.26.2/Middlewares/Third_Party/LwIP/src/core/ipv4\etharp.c **** etharp_cleanup_netif(struct netif *netif)
 560:c:/Users/Black_Life/STM32Cube/Repository/STM32Cube_FW_F4_V1.26.2/Middlewares/Third_Party/LwIP/src/core/ipv4\etharp.c **** {
 561:c:/Users/Black_Life/STM32Cube/Repository/STM32Cube_FW_F4_V1.26.2/Middlewares/Third_Party/LwIP/src/core/ipv4\etharp.c ****   int i;
 562:c:/Users/Black_Life/STM32Cube/Repository/STM32Cube_FW_F4_V1.26.2/Middlewares/Third_Party/LwIP/src/core/ipv4\etharp.c **** 
 563:c:/Users/Black_Life/STM32Cube/Repository/STM32Cube_FW_F4_V1.26.2/Middlewares/Third_Party/LwIP/src/core/ipv4\etharp.c ****   for (i = 0; i < ARP_TABLE_SIZE; ++i) {
 564:c:/Users/Black_Life/STM32Cube/Repository/STM32Cube_FW_F4_V1.26.2/Middlewares/Third_Party/LwIP/src/core/ipv4\etharp.c ****     u8_t state = arp_table[i].state;
 565:c:/Users/Black_Life/STM32Cube/Repository/STM32Cube_FW_F4_V1.26.2/Middlewares/Third_Party/LwIP/src/core/ipv4\etharp.c ****     if ((state != ETHARP_STATE_EMPTY) && (arp_table[i].netif == netif)) {
 566:c:/Users/Black_Life/STM32Cube/Repository/STM32Cube_FW_F4_V1.26.2/Middlewares/Third_Party/LwIP/src/core/ipv4\etharp.c ****       etharp_free_entry(i);
 567:c:/Users/Black_Life/STM32Cube/Repository/STM32Cube_FW_F4_V1.26.2/Middlewares/Third_Party/LwIP/src/core/ipv4\etharp.c ****     }
 568:c:/Users/Black_Life/STM32Cube/Repository/STM32Cube_FW_F4_V1.26.2/Middlewares/Third_Party/LwIP/src/core/ipv4\etharp.c ****   }
 569:c:/Users/Black_Life/STM32Cube/Repository/STM32Cube_FW_F4_V1.26.2/Middlewares/Third_Party/LwIP/src/core/ipv4\etharp.c **** }
 570:c:/Users/Black_Life/STM32Cube/Repository/STM32Cube_FW_F4_V1.26.2/Middlewares/Third_Party/LwIP/src/core/ipv4\etharp.c **** 
 571:c:/Users/Black_Life/STM32Cube/Repository/STM32Cube_FW_F4_V1.26.2/Middlewares/Third_Party/LwIP/src/core/ipv4\etharp.c **** /**
 572:c:/Users/Black_Life/STM32Cube/Repository/STM32Cube_FW_F4_V1.26.2/Middlewares/Third_Party/LwIP/src/core/ipv4\etharp.c ****  * Finds (stable) ethernet/IP address pair from ARP table
 573:c:/Users/Black_Life/STM32Cube/Repository/STM32Cube_FW_F4_V1.26.2/Middlewares/Third_Party/LwIP/src/core/ipv4\etharp.c ****  * using interface and IP address index.
 574:c:/Users/Black_Life/STM32Cube/Repository/STM32Cube_FW_F4_V1.26.2/Middlewares/Third_Party/LwIP/src/core/ipv4\etharp.c ****  * @note the addresses in the ARP table are in network order!
 575:c:/Users/Black_Life/STM32Cube/Repository/STM32Cube_FW_F4_V1.26.2/Middlewares/Third_Party/LwIP/src/core/ipv4\etharp.c ****  *
 576:c:/Users/Black_Life/STM32Cube/Repository/STM32Cube_FW_F4_V1.26.2/Middlewares/Third_Party/LwIP/src/core/ipv4\etharp.c ****  * @param netif points to interface index
 577:c:/Users/Black_Life/STM32Cube/Repository/STM32Cube_FW_F4_V1.26.2/Middlewares/Third_Party/LwIP/src/core/ipv4\etharp.c ****  * @param ipaddr points to the (network order) IP address index
ARM GAS  C:\Users\BLACK_~1\AppData\Local\Temp\ccrhXwwe.s 			page 26


 578:c:/Users/Black_Life/STM32Cube/Repository/STM32Cube_FW_F4_V1.26.2/Middlewares/Third_Party/LwIP/src/core/ipv4\etharp.c ****  * @param eth_ret points to return pointer
 579:c:/Users/Black_Life/STM32Cube/Repository/STM32Cube_FW_F4_V1.26.2/Middlewares/Third_Party/LwIP/src/core/ipv4\etharp.c ****  * @param ip_ret points to return pointer
 580:c:/Users/Black_Life/STM32Cube/Repository/STM32Cube_FW_F4_V1.26.2/Middlewares/Third_Party/LwIP/src/core/ipv4\etharp.c ****  * @return table index if found, -1 otherwise
 581:c:/Users/Black_Life/STM32Cube/Repository/STM32Cube_FW_F4_V1.26.2/Middlewares/Third_Party/LwIP/src/core/ipv4\etharp.c ****  */
 582:c:/Users/Black_Life/STM32Cube/Repository/STM32Cube_FW_F4_V1.26.2/Middlewares/Third_Party/LwIP/src/core/ipv4\etharp.c **** ssize_t
 583:c:/Users/Black_Life/STM32Cube/Repository/STM32Cube_FW_F4_V1.26.2/Middlewares/Third_Party/LwIP/src/core/ipv4\etharp.c **** etharp_find_addr(struct netif *netif, const ip4_addr_t *ipaddr,
 584:c:/Users/Black_Life/STM32Cube/Repository/STM32Cube_FW_F4_V1.26.2/Middlewares/Third_Party/LwIP/src/core/ipv4\etharp.c ****                  struct eth_addr **eth_ret, const ip4_addr_t **ip_ret)
 585:c:/Users/Black_Life/STM32Cube/Repository/STM32Cube_FW_F4_V1.26.2/Middlewares/Third_Party/LwIP/src/core/ipv4\etharp.c **** {
 586:c:/Users/Black_Life/STM32Cube/Repository/STM32Cube_FW_F4_V1.26.2/Middlewares/Third_Party/LwIP/src/core/ipv4\etharp.c ****   s16_t i;
 587:c:/Users/Black_Life/STM32Cube/Repository/STM32Cube_FW_F4_V1.26.2/Middlewares/Third_Party/LwIP/src/core/ipv4\etharp.c **** 
 588:c:/Users/Black_Life/STM32Cube/Repository/STM32Cube_FW_F4_V1.26.2/Middlewares/Third_Party/LwIP/src/core/ipv4\etharp.c ****   LWIP_ASSERT("eth_ret != NULL && ip_ret != NULL",
 589:c:/Users/Black_Life/STM32Cube/Repository/STM32Cube_FW_F4_V1.26.2/Middlewares/Third_Party/LwIP/src/core/ipv4\etharp.c ****               eth_ret != NULL && ip_ret != NULL);
 590:c:/Users/Black_Life/STM32Cube/Repository/STM32Cube_FW_F4_V1.26.2/Middlewares/Third_Party/LwIP/src/core/ipv4\etharp.c **** 
 591:c:/Users/Black_Life/STM32Cube/Repository/STM32Cube_FW_F4_V1.26.2/Middlewares/Third_Party/LwIP/src/core/ipv4\etharp.c ****   LWIP_UNUSED_ARG(netif);
 592:c:/Users/Black_Life/STM32Cube/Repository/STM32Cube_FW_F4_V1.26.2/Middlewares/Third_Party/LwIP/src/core/ipv4\etharp.c **** 
 593:c:/Users/Black_Life/STM32Cube/Repository/STM32Cube_FW_F4_V1.26.2/Middlewares/Third_Party/LwIP/src/core/ipv4\etharp.c ****   i = etharp_find_entry(ipaddr, ETHARP_FLAG_FIND_ONLY, netif);
 594:c:/Users/Black_Life/STM32Cube/Repository/STM32Cube_FW_F4_V1.26.2/Middlewares/Third_Party/LwIP/src/core/ipv4\etharp.c ****   if ((i >= 0) && (arp_table[i].state >= ETHARP_STATE_STABLE)) {
 595:c:/Users/Black_Life/STM32Cube/Repository/STM32Cube_FW_F4_V1.26.2/Middlewares/Third_Party/LwIP/src/core/ipv4\etharp.c ****     *eth_ret = &arp_table[i].ethaddr;
 596:c:/Users/Black_Life/STM32Cube/Repository/STM32Cube_FW_F4_V1.26.2/Middlewares/Third_Party/LwIP/src/core/ipv4\etharp.c ****     *ip_ret = &arp_table[i].ipaddr;
 597:c:/Users/Black_Life/STM32Cube/Repository/STM32Cube_FW_F4_V1.26.2/Middlewares/Third_Party/LwIP/src/core/ipv4\etharp.c ****     return i;
 598:c:/Users/Black_Life/STM32Cube/Repository/STM32Cube_FW_F4_V1.26.2/Middlewares/Third_Party/LwIP/src/core/ipv4\etharp.c ****   }
 599:c:/Users/Black_Life/STM32Cube/Repository/STM32Cube_FW_F4_V1.26.2/Middlewares/Third_Party/LwIP/src/core/ipv4\etharp.c ****   return -1;
 600:c:/Users/Black_Life/STM32Cube/Repository/STM32Cube_FW_F4_V1.26.2/Middlewares/Third_Party/LwIP/src/core/ipv4\etharp.c **** }
 601:c:/Users/Black_Life/STM32Cube/Repository/STM32Cube_FW_F4_V1.26.2/Middlewares/Third_Party/LwIP/src/core/ipv4\etharp.c **** 
 602:c:/Users/Black_Life/STM32Cube/Repository/STM32Cube_FW_F4_V1.26.2/Middlewares/Third_Party/LwIP/src/core/ipv4\etharp.c **** /**
 603:c:/Users/Black_Life/STM32Cube/Repository/STM32Cube_FW_F4_V1.26.2/Middlewares/Third_Party/LwIP/src/core/ipv4\etharp.c ****  * Possibility to iterate over stable ARP table entries
 604:c:/Users/Black_Life/STM32Cube/Repository/STM32Cube_FW_F4_V1.26.2/Middlewares/Third_Party/LwIP/src/core/ipv4\etharp.c ****  *
 605:c:/Users/Black_Life/STM32Cube/Repository/STM32Cube_FW_F4_V1.26.2/Middlewares/Third_Party/LwIP/src/core/ipv4\etharp.c ****  * @param i entry number, 0 to ARP_TABLE_SIZE
 606:c:/Users/Black_Life/STM32Cube/Repository/STM32Cube_FW_F4_V1.26.2/Middlewares/Third_Party/LwIP/src/core/ipv4\etharp.c ****  * @param ipaddr return value: IP address
 607:c:/Users/Black_Life/STM32Cube/Repository/STM32Cube_FW_F4_V1.26.2/Middlewares/Third_Party/LwIP/src/core/ipv4\etharp.c ****  * @param netif return value: points to interface
 608:c:/Users/Black_Life/STM32Cube/Repository/STM32Cube_FW_F4_V1.26.2/Middlewares/Third_Party/LwIP/src/core/ipv4\etharp.c ****  * @param eth_ret return value: ETH address
 609:c:/Users/Black_Life/STM32Cube/Repository/STM32Cube_FW_F4_V1.26.2/Middlewares/Third_Party/LwIP/src/core/ipv4\etharp.c ****  * @return 1 on valid index, 0 otherwise
 610:c:/Users/Black_Life/STM32Cube/Repository/STM32Cube_FW_F4_V1.26.2/Middlewares/Third_Party/LwIP/src/core/ipv4\etharp.c ****  */
 611:c:/Users/Black_Life/STM32Cube/Repository/STM32Cube_FW_F4_V1.26.2/Middlewares/Third_Party/LwIP/src/core/ipv4\etharp.c **** int
 612:c:/Users/Black_Life/STM32Cube/Repository/STM32Cube_FW_F4_V1.26.2/Middlewares/Third_Party/LwIP/src/core/ipv4\etharp.c **** etharp_get_entry(size_t i, ip4_addr_t **ipaddr, struct netif **netif, struct eth_addr **eth_ret)
 613:c:/Users/Black_Life/STM32Cube/Repository/STM32Cube_FW_F4_V1.26.2/Middlewares/Third_Party/LwIP/src/core/ipv4\etharp.c **** {
 614:c:/Users/Black_Life/STM32Cube/Repository/STM32Cube_FW_F4_V1.26.2/Middlewares/Third_Party/LwIP/src/core/ipv4\etharp.c ****   LWIP_ASSERT("ipaddr != NULL", ipaddr != NULL);
 615:c:/Users/Black_Life/STM32Cube/Repository/STM32Cube_FW_F4_V1.26.2/Middlewares/Third_Party/LwIP/src/core/ipv4\etharp.c ****   LWIP_ASSERT("netif != NULL", netif != NULL);
 616:c:/Users/Black_Life/STM32Cube/Repository/STM32Cube_FW_F4_V1.26.2/Middlewares/Third_Party/LwIP/src/core/ipv4\etharp.c ****   LWIP_ASSERT("eth_ret != NULL", eth_ret != NULL);
 617:c:/Users/Black_Life/STM32Cube/Repository/STM32Cube_FW_F4_V1.26.2/Middlewares/Third_Party/LwIP/src/core/ipv4\etharp.c **** 
 618:c:/Users/Black_Life/STM32Cube/Repository/STM32Cube_FW_F4_V1.26.2/Middlewares/Third_Party/LwIP/src/core/ipv4\etharp.c ****   if ((i < ARP_TABLE_SIZE) && (arp_table[i].state >= ETHARP_STATE_STABLE)) {
 619:c:/Users/Black_Life/STM32Cube/Repository/STM32Cube_FW_F4_V1.26.2/Middlewares/Third_Party/LwIP/src/core/ipv4\etharp.c ****     *ipaddr  = &arp_table[i].ipaddr;
 620:c:/Users/Black_Life/STM32Cube/Repository/STM32Cube_FW_F4_V1.26.2/Middlewares/Third_Party/LwIP/src/core/ipv4\etharp.c ****     *netif   = arp_table[i].netif;
 621:c:/Users/Black_Life/STM32Cube/Repository/STM32Cube_FW_F4_V1.26.2/Middlewares/Third_Party/LwIP/src/core/ipv4\etharp.c ****     *eth_ret = &arp_table[i].ethaddr;
 622:c:/Users/Black_Life/STM32Cube/Repository/STM32Cube_FW_F4_V1.26.2/Middlewares/Third_Party/LwIP/src/core/ipv4\etharp.c ****     return 1;
 623:c:/Users/Black_Life/STM32Cube/Repository/STM32Cube_FW_F4_V1.26.2/Middlewares/Third_Party/LwIP/src/core/ipv4\etharp.c ****   } else {
 624:c:/Users/Black_Life/STM32Cube/Repository/STM32Cube_FW_F4_V1.26.2/Middlewares/Third_Party/LwIP/src/core/ipv4\etharp.c ****     return 0;
 625:c:/Users/Black_Life/STM32Cube/Repository/STM32Cube_FW_F4_V1.26.2/Middlewares/Third_Party/LwIP/src/core/ipv4\etharp.c ****   }
 626:c:/Users/Black_Life/STM32Cube/Repository/STM32Cube_FW_F4_V1.26.2/Middlewares/Third_Party/LwIP/src/core/ipv4\etharp.c **** }
 627:c:/Users/Black_Life/STM32Cube/Repository/STM32Cube_FW_F4_V1.26.2/Middlewares/Third_Party/LwIP/src/core/ipv4\etharp.c **** 
 628:c:/Users/Black_Life/STM32Cube/Repository/STM32Cube_FW_F4_V1.26.2/Middlewares/Third_Party/LwIP/src/core/ipv4\etharp.c **** /**
 629:c:/Users/Black_Life/STM32Cube/Repository/STM32Cube_FW_F4_V1.26.2/Middlewares/Third_Party/LwIP/src/core/ipv4\etharp.c ****  * Responds to ARP requests to us. Upon ARP replies to us, add entry to cache
 630:c:/Users/Black_Life/STM32Cube/Repository/STM32Cube_FW_F4_V1.26.2/Middlewares/Third_Party/LwIP/src/core/ipv4\etharp.c ****  * send out queued IP packets. Updates cache with snooped address pairs.
 631:c:/Users/Black_Life/STM32Cube/Repository/STM32Cube_FW_F4_V1.26.2/Middlewares/Third_Party/LwIP/src/core/ipv4\etharp.c ****  *
 632:c:/Users/Black_Life/STM32Cube/Repository/STM32Cube_FW_F4_V1.26.2/Middlewares/Third_Party/LwIP/src/core/ipv4\etharp.c ****  * Should be called for incoming ARP packets. The pbuf in the argument
 633:c:/Users/Black_Life/STM32Cube/Repository/STM32Cube_FW_F4_V1.26.2/Middlewares/Third_Party/LwIP/src/core/ipv4\etharp.c ****  * is freed by this function.
 634:c:/Users/Black_Life/STM32Cube/Repository/STM32Cube_FW_F4_V1.26.2/Middlewares/Third_Party/LwIP/src/core/ipv4\etharp.c ****  *
ARM GAS  C:\Users\BLACK_~1\AppData\Local\Temp\ccrhXwwe.s 			page 27


 635:c:/Users/Black_Life/STM32Cube/Repository/STM32Cube_FW_F4_V1.26.2/Middlewares/Third_Party/LwIP/src/core/ipv4\etharp.c ****  * @param p The ARP packet that arrived on netif. Is freed by this function.
 636:c:/Users/Black_Life/STM32Cube/Repository/STM32Cube_FW_F4_V1.26.2/Middlewares/Third_Party/LwIP/src/core/ipv4\etharp.c ****  * @param netif The lwIP network interface on which the ARP packet pbuf arrived.
 637:c:/Users/Black_Life/STM32Cube/Repository/STM32Cube_FW_F4_V1.26.2/Middlewares/Third_Party/LwIP/src/core/ipv4\etharp.c ****  *
 638:c:/Users/Black_Life/STM32Cube/Repository/STM32Cube_FW_F4_V1.26.2/Middlewares/Third_Party/LwIP/src/core/ipv4\etharp.c ****  * @see pbuf_free()
 639:c:/Users/Black_Life/STM32Cube/Repository/STM32Cube_FW_F4_V1.26.2/Middlewares/Third_Party/LwIP/src/core/ipv4\etharp.c ****  */
 640:c:/Users/Black_Life/STM32Cube/Repository/STM32Cube_FW_F4_V1.26.2/Middlewares/Third_Party/LwIP/src/core/ipv4\etharp.c **** void
 641:c:/Users/Black_Life/STM32Cube/Repository/STM32Cube_FW_F4_V1.26.2/Middlewares/Third_Party/LwIP/src/core/ipv4\etharp.c **** etharp_input(struct pbuf *p, struct netif *netif)
 642:c:/Users/Black_Life/STM32Cube/Repository/STM32Cube_FW_F4_V1.26.2/Middlewares/Third_Party/LwIP/src/core/ipv4\etharp.c **** {
 643:c:/Users/Black_Life/STM32Cube/Repository/STM32Cube_FW_F4_V1.26.2/Middlewares/Third_Party/LwIP/src/core/ipv4\etharp.c ****   struct etharp_hdr *hdr;
 644:c:/Users/Black_Life/STM32Cube/Repository/STM32Cube_FW_F4_V1.26.2/Middlewares/Third_Party/LwIP/src/core/ipv4\etharp.c ****   /* these are aligned properly, whereas the ARP header fields might not be */
 645:c:/Users/Black_Life/STM32Cube/Repository/STM32Cube_FW_F4_V1.26.2/Middlewares/Third_Party/LwIP/src/core/ipv4\etharp.c ****   ip4_addr_t sipaddr, dipaddr;
 646:c:/Users/Black_Life/STM32Cube/Repository/STM32Cube_FW_F4_V1.26.2/Middlewares/Third_Party/LwIP/src/core/ipv4\etharp.c ****   u8_t for_us;
 647:c:/Users/Black_Life/STM32Cube/Repository/STM32Cube_FW_F4_V1.26.2/Middlewares/Third_Party/LwIP/src/core/ipv4\etharp.c **** 
 648:c:/Users/Black_Life/STM32Cube/Repository/STM32Cube_FW_F4_V1.26.2/Middlewares/Third_Party/LwIP/src/core/ipv4\etharp.c ****   LWIP_ASSERT_CORE_LOCKED();
 649:c:/Users/Black_Life/STM32Cube/Repository/STM32Cube_FW_F4_V1.26.2/Middlewares/Third_Party/LwIP/src/core/ipv4\etharp.c **** 
 650:c:/Users/Black_Life/STM32Cube/Repository/STM32Cube_FW_F4_V1.26.2/Middlewares/Third_Party/LwIP/src/core/ipv4\etharp.c ****   LWIP_ERROR("netif != NULL", (netif != NULL), return;);
 651:c:/Users/Black_Life/STM32Cube/Repository/STM32Cube_FW_F4_V1.26.2/Middlewares/Third_Party/LwIP/src/core/ipv4\etharp.c **** 
 652:c:/Users/Black_Life/STM32Cube/Repository/STM32Cube_FW_F4_V1.26.2/Middlewares/Third_Party/LwIP/src/core/ipv4\etharp.c ****   hdr = (struct etharp_hdr *)p->payload;
 653:c:/Users/Black_Life/STM32Cube/Repository/STM32Cube_FW_F4_V1.26.2/Middlewares/Third_Party/LwIP/src/core/ipv4\etharp.c **** 
 654:c:/Users/Black_Life/STM32Cube/Repository/STM32Cube_FW_F4_V1.26.2/Middlewares/Third_Party/LwIP/src/core/ipv4\etharp.c ****   /* RFC 826 "Packet Reception": */
 655:c:/Users/Black_Life/STM32Cube/Repository/STM32Cube_FW_F4_V1.26.2/Middlewares/Third_Party/LwIP/src/core/ipv4\etharp.c ****   if ((hdr->hwtype != PP_HTONS(LWIP_IANA_HWTYPE_ETHERNET)) ||
 656:c:/Users/Black_Life/STM32Cube/Repository/STM32Cube_FW_F4_V1.26.2/Middlewares/Third_Party/LwIP/src/core/ipv4\etharp.c ****       (hdr->hwlen != ETH_HWADDR_LEN) ||
 657:c:/Users/Black_Life/STM32Cube/Repository/STM32Cube_FW_F4_V1.26.2/Middlewares/Third_Party/LwIP/src/core/ipv4\etharp.c ****       (hdr->protolen != sizeof(ip4_addr_t)) ||
 658:c:/Users/Black_Life/STM32Cube/Repository/STM32Cube_FW_F4_V1.26.2/Middlewares/Third_Party/LwIP/src/core/ipv4\etharp.c ****       (hdr->proto != PP_HTONS(ETHTYPE_IP)))  {
 659:c:/Users/Black_Life/STM32Cube/Repository/STM32Cube_FW_F4_V1.26.2/Middlewares/Third_Party/LwIP/src/core/ipv4\etharp.c ****     LWIP_DEBUGF(ETHARP_DEBUG | LWIP_DBG_TRACE | LWIP_DBG_LEVEL_WARNING,
 660:c:/Users/Black_Life/STM32Cube/Repository/STM32Cube_FW_F4_V1.26.2/Middlewares/Third_Party/LwIP/src/core/ipv4\etharp.c ****                 ("etharp_input: packet dropped, wrong hw type, hwlen, proto, protolen or ethernet t
 661:c:/Users/Black_Life/STM32Cube/Repository/STM32Cube_FW_F4_V1.26.2/Middlewares/Third_Party/LwIP/src/core/ipv4\etharp.c ****                  hdr->hwtype, (u16_t)hdr->hwlen, hdr->proto, (u16_t)hdr->protolen));
 662:c:/Users/Black_Life/STM32Cube/Repository/STM32Cube_FW_F4_V1.26.2/Middlewares/Third_Party/LwIP/src/core/ipv4\etharp.c ****     ETHARP_STATS_INC(etharp.proterr);
 663:c:/Users/Black_Life/STM32Cube/Repository/STM32Cube_FW_F4_V1.26.2/Middlewares/Third_Party/LwIP/src/core/ipv4\etharp.c ****     ETHARP_STATS_INC(etharp.drop);
 664:c:/Users/Black_Life/STM32Cube/Repository/STM32Cube_FW_F4_V1.26.2/Middlewares/Third_Party/LwIP/src/core/ipv4\etharp.c ****     pbuf_free(p);
 665:c:/Users/Black_Life/STM32Cube/Repository/STM32Cube_FW_F4_V1.26.2/Middlewares/Third_Party/LwIP/src/core/ipv4\etharp.c ****     return;
 666:c:/Users/Black_Life/STM32Cube/Repository/STM32Cube_FW_F4_V1.26.2/Middlewares/Third_Party/LwIP/src/core/ipv4\etharp.c ****   }
 667:c:/Users/Black_Life/STM32Cube/Repository/STM32Cube_FW_F4_V1.26.2/Middlewares/Third_Party/LwIP/src/core/ipv4\etharp.c ****   ETHARP_STATS_INC(etharp.recv);
 668:c:/Users/Black_Life/STM32Cube/Repository/STM32Cube_FW_F4_V1.26.2/Middlewares/Third_Party/LwIP/src/core/ipv4\etharp.c **** 
 669:c:/Users/Black_Life/STM32Cube/Repository/STM32Cube_FW_F4_V1.26.2/Middlewares/Third_Party/LwIP/src/core/ipv4\etharp.c **** #if LWIP_AUTOIP
 670:c:/Users/Black_Life/STM32Cube/Repository/STM32Cube_FW_F4_V1.26.2/Middlewares/Third_Party/LwIP/src/core/ipv4\etharp.c ****   /* We have to check if a host already has configured our random
 671:c:/Users/Black_Life/STM32Cube/Repository/STM32Cube_FW_F4_V1.26.2/Middlewares/Third_Party/LwIP/src/core/ipv4\etharp.c ****    * created link local address and continuously check if there is
 672:c:/Users/Black_Life/STM32Cube/Repository/STM32Cube_FW_F4_V1.26.2/Middlewares/Third_Party/LwIP/src/core/ipv4\etharp.c ****    * a host with this IP-address so we can detect collisions */
 673:c:/Users/Black_Life/STM32Cube/Repository/STM32Cube_FW_F4_V1.26.2/Middlewares/Third_Party/LwIP/src/core/ipv4\etharp.c ****   autoip_arp_reply(netif, hdr);
 674:c:/Users/Black_Life/STM32Cube/Repository/STM32Cube_FW_F4_V1.26.2/Middlewares/Third_Party/LwIP/src/core/ipv4\etharp.c **** #endif /* LWIP_AUTOIP */
 675:c:/Users/Black_Life/STM32Cube/Repository/STM32Cube_FW_F4_V1.26.2/Middlewares/Third_Party/LwIP/src/core/ipv4\etharp.c **** 
 676:c:/Users/Black_Life/STM32Cube/Repository/STM32Cube_FW_F4_V1.26.2/Middlewares/Third_Party/LwIP/src/core/ipv4\etharp.c ****   /* Copy struct ip4_addr_wordaligned to aligned ip4_addr, to support compilers without
 677:c:/Users/Black_Life/STM32Cube/Repository/STM32Cube_FW_F4_V1.26.2/Middlewares/Third_Party/LwIP/src/core/ipv4\etharp.c ****    * structure packing (not using structure copy which breaks strict-aliasing rules). */
 678:c:/Users/Black_Life/STM32Cube/Repository/STM32Cube_FW_F4_V1.26.2/Middlewares/Third_Party/LwIP/src/core/ipv4\etharp.c ****   IPADDR_WORDALIGNED_COPY_TO_IP4_ADDR_T(&sipaddr, &hdr->sipaddr);
 679:c:/Users/Black_Life/STM32Cube/Repository/STM32Cube_FW_F4_V1.26.2/Middlewares/Third_Party/LwIP/src/core/ipv4\etharp.c ****   IPADDR_WORDALIGNED_COPY_TO_IP4_ADDR_T(&dipaddr, &hdr->dipaddr);
 680:c:/Users/Black_Life/STM32Cube/Repository/STM32Cube_FW_F4_V1.26.2/Middlewares/Third_Party/LwIP/src/core/ipv4\etharp.c **** 
 681:c:/Users/Black_Life/STM32Cube/Repository/STM32Cube_FW_F4_V1.26.2/Middlewares/Third_Party/LwIP/src/core/ipv4\etharp.c ****   /* this interface is not configured? */
 682:c:/Users/Black_Life/STM32Cube/Repository/STM32Cube_FW_F4_V1.26.2/Middlewares/Third_Party/LwIP/src/core/ipv4\etharp.c ****   if (ip4_addr_isany_val(*netif_ip4_addr(netif))) {
 683:c:/Users/Black_Life/STM32Cube/Repository/STM32Cube_FW_F4_V1.26.2/Middlewares/Third_Party/LwIP/src/core/ipv4\etharp.c ****     for_us = 0;
 684:c:/Users/Black_Life/STM32Cube/Repository/STM32Cube_FW_F4_V1.26.2/Middlewares/Third_Party/LwIP/src/core/ipv4\etharp.c ****   } else {
 685:c:/Users/Black_Life/STM32Cube/Repository/STM32Cube_FW_F4_V1.26.2/Middlewares/Third_Party/LwIP/src/core/ipv4\etharp.c ****     /* ARP packet directed to us? */
 686:c:/Users/Black_Life/STM32Cube/Repository/STM32Cube_FW_F4_V1.26.2/Middlewares/Third_Party/LwIP/src/core/ipv4\etharp.c ****     for_us = (u8_t)ip4_addr_cmp(&dipaddr, netif_ip4_addr(netif));
 687:c:/Users/Black_Life/STM32Cube/Repository/STM32Cube_FW_F4_V1.26.2/Middlewares/Third_Party/LwIP/src/core/ipv4\etharp.c ****   }
 688:c:/Users/Black_Life/STM32Cube/Repository/STM32Cube_FW_F4_V1.26.2/Middlewares/Third_Party/LwIP/src/core/ipv4\etharp.c **** 
 689:c:/Users/Black_Life/STM32Cube/Repository/STM32Cube_FW_F4_V1.26.2/Middlewares/Third_Party/LwIP/src/core/ipv4\etharp.c ****   /* ARP message directed to us?
 690:c:/Users/Black_Life/STM32Cube/Repository/STM32Cube_FW_F4_V1.26.2/Middlewares/Third_Party/LwIP/src/core/ipv4\etharp.c ****       -> add IP address in ARP cache; assume requester wants to talk to us,
 691:c:/Users/Black_Life/STM32Cube/Repository/STM32Cube_FW_F4_V1.26.2/Middlewares/Third_Party/LwIP/src/core/ipv4\etharp.c ****          can result in directly sending the queued packets for this host.
ARM GAS  C:\Users\BLACK_~1\AppData\Local\Temp\ccrhXwwe.s 			page 28


 692:c:/Users/Black_Life/STM32Cube/Repository/STM32Cube_FW_F4_V1.26.2/Middlewares/Third_Party/LwIP/src/core/ipv4\etharp.c ****      ARP message not directed to us?
 693:c:/Users/Black_Life/STM32Cube/Repository/STM32Cube_FW_F4_V1.26.2/Middlewares/Third_Party/LwIP/src/core/ipv4\etharp.c ****       ->  update the source IP address in the cache, if present */
 694:c:/Users/Black_Life/STM32Cube/Repository/STM32Cube_FW_F4_V1.26.2/Middlewares/Third_Party/LwIP/src/core/ipv4\etharp.c ****   etharp_update_arp_entry(netif, &sipaddr, &(hdr->shwaddr),
 695:c:/Users/Black_Life/STM32Cube/Repository/STM32Cube_FW_F4_V1.26.2/Middlewares/Third_Party/LwIP/src/core/ipv4\etharp.c ****                           for_us ? ETHARP_FLAG_TRY_HARD : ETHARP_FLAG_FIND_ONLY);
 696:c:/Users/Black_Life/STM32Cube/Repository/STM32Cube_FW_F4_V1.26.2/Middlewares/Third_Party/LwIP/src/core/ipv4\etharp.c **** 
 697:c:/Users/Black_Life/STM32Cube/Repository/STM32Cube_FW_F4_V1.26.2/Middlewares/Third_Party/LwIP/src/core/ipv4\etharp.c ****   /* now act on the message itself */
 698:c:/Users/Black_Life/STM32Cube/Repository/STM32Cube_FW_F4_V1.26.2/Middlewares/Third_Party/LwIP/src/core/ipv4\etharp.c ****   switch (hdr->opcode) {
 699:c:/Users/Black_Life/STM32Cube/Repository/STM32Cube_FW_F4_V1.26.2/Middlewares/Third_Party/LwIP/src/core/ipv4\etharp.c ****     /* ARP request? */
 700:c:/Users/Black_Life/STM32Cube/Repository/STM32Cube_FW_F4_V1.26.2/Middlewares/Third_Party/LwIP/src/core/ipv4\etharp.c ****     case PP_HTONS(ARP_REQUEST):
 701:c:/Users/Black_Life/STM32Cube/Repository/STM32Cube_FW_F4_V1.26.2/Middlewares/Third_Party/LwIP/src/core/ipv4\etharp.c ****       /* ARP request. If it asked for our address, we send out a
 702:c:/Users/Black_Life/STM32Cube/Repository/STM32Cube_FW_F4_V1.26.2/Middlewares/Third_Party/LwIP/src/core/ipv4\etharp.c ****        * reply. In any case, we time-stamp any existing ARP entry,
 703:c:/Users/Black_Life/STM32Cube/Repository/STM32Cube_FW_F4_V1.26.2/Middlewares/Third_Party/LwIP/src/core/ipv4\etharp.c ****        * and possibly send out an IP packet that was queued on it. */
 704:c:/Users/Black_Life/STM32Cube/Repository/STM32Cube_FW_F4_V1.26.2/Middlewares/Third_Party/LwIP/src/core/ipv4\etharp.c **** 
 705:c:/Users/Black_Life/STM32Cube/Repository/STM32Cube_FW_F4_V1.26.2/Middlewares/Third_Party/LwIP/src/core/ipv4\etharp.c ****       LWIP_DEBUGF (ETHARP_DEBUG | LWIP_DBG_TRACE, ("etharp_input: incoming ARP request\n"));
 706:c:/Users/Black_Life/STM32Cube/Repository/STM32Cube_FW_F4_V1.26.2/Middlewares/Third_Party/LwIP/src/core/ipv4\etharp.c ****       /* ARP request for our address? */
 707:c:/Users/Black_Life/STM32Cube/Repository/STM32Cube_FW_F4_V1.26.2/Middlewares/Third_Party/LwIP/src/core/ipv4\etharp.c ****       if (for_us) {
 708:c:/Users/Black_Life/STM32Cube/Repository/STM32Cube_FW_F4_V1.26.2/Middlewares/Third_Party/LwIP/src/core/ipv4\etharp.c ****         /* send ARP response */
 709:c:/Users/Black_Life/STM32Cube/Repository/STM32Cube_FW_F4_V1.26.2/Middlewares/Third_Party/LwIP/src/core/ipv4\etharp.c ****         etharp_raw(netif,
 710:c:/Users/Black_Life/STM32Cube/Repository/STM32Cube_FW_F4_V1.26.2/Middlewares/Third_Party/LwIP/src/core/ipv4\etharp.c ****                    (struct eth_addr *)netif->hwaddr, &hdr->shwaddr,
 711:c:/Users/Black_Life/STM32Cube/Repository/STM32Cube_FW_F4_V1.26.2/Middlewares/Third_Party/LwIP/src/core/ipv4\etharp.c ****                    (struct eth_addr *)netif->hwaddr, netif_ip4_addr(netif),
 712:c:/Users/Black_Life/STM32Cube/Repository/STM32Cube_FW_F4_V1.26.2/Middlewares/Third_Party/LwIP/src/core/ipv4\etharp.c ****                    &hdr->shwaddr, &sipaddr,
 713:c:/Users/Black_Life/STM32Cube/Repository/STM32Cube_FW_F4_V1.26.2/Middlewares/Third_Party/LwIP/src/core/ipv4\etharp.c ****                    ARP_REPLY);
 714:c:/Users/Black_Life/STM32Cube/Repository/STM32Cube_FW_F4_V1.26.2/Middlewares/Third_Party/LwIP/src/core/ipv4\etharp.c ****         /* we are not configured? */
 715:c:/Users/Black_Life/STM32Cube/Repository/STM32Cube_FW_F4_V1.26.2/Middlewares/Third_Party/LwIP/src/core/ipv4\etharp.c ****       } else if (ip4_addr_isany_val(*netif_ip4_addr(netif))) {
 716:c:/Users/Black_Life/STM32Cube/Repository/STM32Cube_FW_F4_V1.26.2/Middlewares/Third_Party/LwIP/src/core/ipv4\etharp.c ****         /* { for_us == 0 and netif->ip_addr.addr == 0 } */
 717:c:/Users/Black_Life/STM32Cube/Repository/STM32Cube_FW_F4_V1.26.2/Middlewares/Third_Party/LwIP/src/core/ipv4\etharp.c ****         LWIP_DEBUGF(ETHARP_DEBUG | LWIP_DBG_TRACE, ("etharp_input: we are unconfigured, ARP request
 718:c:/Users/Black_Life/STM32Cube/Repository/STM32Cube_FW_F4_V1.26.2/Middlewares/Third_Party/LwIP/src/core/ipv4\etharp.c ****         /* request was not directed to us */
 719:c:/Users/Black_Life/STM32Cube/Repository/STM32Cube_FW_F4_V1.26.2/Middlewares/Third_Party/LwIP/src/core/ipv4\etharp.c ****       } else {
 720:c:/Users/Black_Life/STM32Cube/Repository/STM32Cube_FW_F4_V1.26.2/Middlewares/Third_Party/LwIP/src/core/ipv4\etharp.c ****         /* { for_us == 0 and netif->ip_addr.addr != 0 } */
 721:c:/Users/Black_Life/STM32Cube/Repository/STM32Cube_FW_F4_V1.26.2/Middlewares/Third_Party/LwIP/src/core/ipv4\etharp.c ****         LWIP_DEBUGF(ETHARP_DEBUG | LWIP_DBG_TRACE, ("etharp_input: ARP request was not for us.\n"))
 722:c:/Users/Black_Life/STM32Cube/Repository/STM32Cube_FW_F4_V1.26.2/Middlewares/Third_Party/LwIP/src/core/ipv4\etharp.c ****       }
 723:c:/Users/Black_Life/STM32Cube/Repository/STM32Cube_FW_F4_V1.26.2/Middlewares/Third_Party/LwIP/src/core/ipv4\etharp.c ****       break;
 724:c:/Users/Black_Life/STM32Cube/Repository/STM32Cube_FW_F4_V1.26.2/Middlewares/Third_Party/LwIP/src/core/ipv4\etharp.c ****     case PP_HTONS(ARP_REPLY):
 725:c:/Users/Black_Life/STM32Cube/Repository/STM32Cube_FW_F4_V1.26.2/Middlewares/Third_Party/LwIP/src/core/ipv4\etharp.c ****       /* ARP reply. We already updated the ARP cache earlier. */
 726:c:/Users/Black_Life/STM32Cube/Repository/STM32Cube_FW_F4_V1.26.2/Middlewares/Third_Party/LwIP/src/core/ipv4\etharp.c ****       LWIP_DEBUGF(ETHARP_DEBUG | LWIP_DBG_TRACE, ("etharp_input: incoming ARP reply\n"));
 727:c:/Users/Black_Life/STM32Cube/Repository/STM32Cube_FW_F4_V1.26.2/Middlewares/Third_Party/LwIP/src/core/ipv4\etharp.c **** #if (LWIP_DHCP && DHCP_DOES_ARP_CHECK)
 728:c:/Users/Black_Life/STM32Cube/Repository/STM32Cube_FW_F4_V1.26.2/Middlewares/Third_Party/LwIP/src/core/ipv4\etharp.c ****       /* DHCP wants to know about ARP replies from any host with an
 729:c:/Users/Black_Life/STM32Cube/Repository/STM32Cube_FW_F4_V1.26.2/Middlewares/Third_Party/LwIP/src/core/ipv4\etharp.c ****        * IP address also offered to us by the DHCP server. We do not
 730:c:/Users/Black_Life/STM32Cube/Repository/STM32Cube_FW_F4_V1.26.2/Middlewares/Third_Party/LwIP/src/core/ipv4\etharp.c ****        * want to take a duplicate IP address on a single network.
 731:c:/Users/Black_Life/STM32Cube/Repository/STM32Cube_FW_F4_V1.26.2/Middlewares/Third_Party/LwIP/src/core/ipv4\etharp.c ****        * @todo How should we handle redundant (fail-over) interfaces? */
 732:c:/Users/Black_Life/STM32Cube/Repository/STM32Cube_FW_F4_V1.26.2/Middlewares/Third_Party/LwIP/src/core/ipv4\etharp.c ****       dhcp_arp_reply(netif, &sipaddr);
 733:c:/Users/Black_Life/STM32Cube/Repository/STM32Cube_FW_F4_V1.26.2/Middlewares/Third_Party/LwIP/src/core/ipv4\etharp.c **** #endif /* (LWIP_DHCP && DHCP_DOES_ARP_CHECK) */
 734:c:/Users/Black_Life/STM32Cube/Repository/STM32Cube_FW_F4_V1.26.2/Middlewares/Third_Party/LwIP/src/core/ipv4\etharp.c ****       break;
 735:c:/Users/Black_Life/STM32Cube/Repository/STM32Cube_FW_F4_V1.26.2/Middlewares/Third_Party/LwIP/src/core/ipv4\etharp.c ****     default:
 736:c:/Users/Black_Life/STM32Cube/Repository/STM32Cube_FW_F4_V1.26.2/Middlewares/Third_Party/LwIP/src/core/ipv4\etharp.c ****       LWIP_DEBUGF(ETHARP_DEBUG | LWIP_DBG_TRACE, ("etharp_input: ARP unknown opcode type %"S16_F"\n
 737:c:/Users/Black_Life/STM32Cube/Repository/STM32Cube_FW_F4_V1.26.2/Middlewares/Third_Party/LwIP/src/core/ipv4\etharp.c ****       ETHARP_STATS_INC(etharp.err);
 738:c:/Users/Black_Life/STM32Cube/Repository/STM32Cube_FW_F4_V1.26.2/Middlewares/Third_Party/LwIP/src/core/ipv4\etharp.c ****       break;
 739:c:/Users/Black_Life/STM32Cube/Repository/STM32Cube_FW_F4_V1.26.2/Middlewares/Third_Party/LwIP/src/core/ipv4\etharp.c ****   }
 740:c:/Users/Black_Life/STM32Cube/Repository/STM32Cube_FW_F4_V1.26.2/Middlewares/Third_Party/LwIP/src/core/ipv4\etharp.c ****   /* free ARP packet */
 741:c:/Users/Black_Life/STM32Cube/Repository/STM32Cube_FW_F4_V1.26.2/Middlewares/Third_Party/LwIP/src/core/ipv4\etharp.c ****   pbuf_free(p);
 742:c:/Users/Black_Life/STM32Cube/Repository/STM32Cube_FW_F4_V1.26.2/Middlewares/Third_Party/LwIP/src/core/ipv4\etharp.c **** }
 743:c:/Users/Black_Life/STM32Cube/Repository/STM32Cube_FW_F4_V1.26.2/Middlewares/Third_Party/LwIP/src/core/ipv4\etharp.c **** 
 744:c:/Users/Black_Life/STM32Cube/Repository/STM32Cube_FW_F4_V1.26.2/Middlewares/Third_Party/LwIP/src/core/ipv4\etharp.c **** /** Just a small helper function that sends a pbuf to an ethernet address
 745:c:/Users/Black_Life/STM32Cube/Repository/STM32Cube_FW_F4_V1.26.2/Middlewares/Third_Party/LwIP/src/core/ipv4\etharp.c ****  * in the arp_table specified by the index 'arp_idx'.
 746:c:/Users/Black_Life/STM32Cube/Repository/STM32Cube_FW_F4_V1.26.2/Middlewares/Third_Party/LwIP/src/core/ipv4\etharp.c ****  */
 747:c:/Users/Black_Life/STM32Cube/Repository/STM32Cube_FW_F4_V1.26.2/Middlewares/Third_Party/LwIP/src/core/ipv4\etharp.c **** static err_t
 748:c:/Users/Black_Life/STM32Cube/Repository/STM32Cube_FW_F4_V1.26.2/Middlewares/Third_Party/LwIP/src/core/ipv4\etharp.c **** etharp_output_to_arp_index(struct netif *netif, struct pbuf *q, netif_addr_idx_t arp_idx)
ARM GAS  C:\Users\BLACK_~1\AppData\Local\Temp\ccrhXwwe.s 			page 29


 749:c:/Users/Black_Life/STM32Cube/Repository/STM32Cube_FW_F4_V1.26.2/Middlewares/Third_Party/LwIP/src/core/ipv4\etharp.c **** {
 750:c:/Users/Black_Life/STM32Cube/Repository/STM32Cube_FW_F4_V1.26.2/Middlewares/Third_Party/LwIP/src/core/ipv4\etharp.c ****   LWIP_ASSERT("arp_table[arp_idx].state >= ETHARP_STATE_STABLE",
 751:c:/Users/Black_Life/STM32Cube/Repository/STM32Cube_FW_F4_V1.26.2/Middlewares/Third_Party/LwIP/src/core/ipv4\etharp.c ****               arp_table[arp_idx].state >= ETHARP_STATE_STABLE);
 752:c:/Users/Black_Life/STM32Cube/Repository/STM32Cube_FW_F4_V1.26.2/Middlewares/Third_Party/LwIP/src/core/ipv4\etharp.c ****   /* if arp table entry is about to expire: re-request it,
 753:c:/Users/Black_Life/STM32Cube/Repository/STM32Cube_FW_F4_V1.26.2/Middlewares/Third_Party/LwIP/src/core/ipv4\etharp.c ****      but only if its state is ETHARP_STATE_STABLE to prevent flooding the
 754:c:/Users/Black_Life/STM32Cube/Repository/STM32Cube_FW_F4_V1.26.2/Middlewares/Third_Party/LwIP/src/core/ipv4\etharp.c ****      network with ARP requests if this address is used frequently. */
 755:c:/Users/Black_Life/STM32Cube/Repository/STM32Cube_FW_F4_V1.26.2/Middlewares/Third_Party/LwIP/src/core/ipv4\etharp.c ****   if (arp_table[arp_idx].state == ETHARP_STATE_STABLE) {
 756:c:/Users/Black_Life/STM32Cube/Repository/STM32Cube_FW_F4_V1.26.2/Middlewares/Third_Party/LwIP/src/core/ipv4\etharp.c ****     if (arp_table[arp_idx].ctime >= ARP_AGE_REREQUEST_USED_BROADCAST) {
 757:c:/Users/Black_Life/STM32Cube/Repository/STM32Cube_FW_F4_V1.26.2/Middlewares/Third_Party/LwIP/src/core/ipv4\etharp.c ****       /* issue a standard request using broadcast */
 758:c:/Users/Black_Life/STM32Cube/Repository/STM32Cube_FW_F4_V1.26.2/Middlewares/Third_Party/LwIP/src/core/ipv4\etharp.c ****       if (etharp_request(netif, &arp_table[arp_idx].ipaddr) == ERR_OK) {
 759:c:/Users/Black_Life/STM32Cube/Repository/STM32Cube_FW_F4_V1.26.2/Middlewares/Third_Party/LwIP/src/core/ipv4\etharp.c ****         arp_table[arp_idx].state = ETHARP_STATE_STABLE_REREQUESTING_1;
 760:c:/Users/Black_Life/STM32Cube/Repository/STM32Cube_FW_F4_V1.26.2/Middlewares/Third_Party/LwIP/src/core/ipv4\etharp.c ****       }
 761:c:/Users/Black_Life/STM32Cube/Repository/STM32Cube_FW_F4_V1.26.2/Middlewares/Third_Party/LwIP/src/core/ipv4\etharp.c ****     } else if (arp_table[arp_idx].ctime >= ARP_AGE_REREQUEST_USED_UNICAST) {
 762:c:/Users/Black_Life/STM32Cube/Repository/STM32Cube_FW_F4_V1.26.2/Middlewares/Third_Party/LwIP/src/core/ipv4\etharp.c ****       /* issue a unicast request (for 15 seconds) to prevent unnecessary broadcast */
 763:c:/Users/Black_Life/STM32Cube/Repository/STM32Cube_FW_F4_V1.26.2/Middlewares/Third_Party/LwIP/src/core/ipv4\etharp.c ****       if (etharp_request_dst(netif, &arp_table[arp_idx].ipaddr, &arp_table[arp_idx].ethaddr) == ERR
 764:c:/Users/Black_Life/STM32Cube/Repository/STM32Cube_FW_F4_V1.26.2/Middlewares/Third_Party/LwIP/src/core/ipv4\etharp.c ****         arp_table[arp_idx].state = ETHARP_STATE_STABLE_REREQUESTING_1;
 765:c:/Users/Black_Life/STM32Cube/Repository/STM32Cube_FW_F4_V1.26.2/Middlewares/Third_Party/LwIP/src/core/ipv4\etharp.c ****       }
 766:c:/Users/Black_Life/STM32Cube/Repository/STM32Cube_FW_F4_V1.26.2/Middlewares/Third_Party/LwIP/src/core/ipv4\etharp.c ****     }
 767:c:/Users/Black_Life/STM32Cube/Repository/STM32Cube_FW_F4_V1.26.2/Middlewares/Third_Party/LwIP/src/core/ipv4\etharp.c ****   }
 768:c:/Users/Black_Life/STM32Cube/Repository/STM32Cube_FW_F4_V1.26.2/Middlewares/Third_Party/LwIP/src/core/ipv4\etharp.c **** 
 769:c:/Users/Black_Life/STM32Cube/Repository/STM32Cube_FW_F4_V1.26.2/Middlewares/Third_Party/LwIP/src/core/ipv4\etharp.c ****   return ethernet_output(netif, q, (struct eth_addr *)(netif->hwaddr), &arp_table[arp_idx].ethaddr,
 770:c:/Users/Black_Life/STM32Cube/Repository/STM32Cube_FW_F4_V1.26.2/Middlewares/Third_Party/LwIP/src/core/ipv4\etharp.c **** }
 771:c:/Users/Black_Life/STM32Cube/Repository/STM32Cube_FW_F4_V1.26.2/Middlewares/Third_Party/LwIP/src/core/ipv4\etharp.c **** 
 772:c:/Users/Black_Life/STM32Cube/Repository/STM32Cube_FW_F4_V1.26.2/Middlewares/Third_Party/LwIP/src/core/ipv4\etharp.c **** /**
 773:c:/Users/Black_Life/STM32Cube/Repository/STM32Cube_FW_F4_V1.26.2/Middlewares/Third_Party/LwIP/src/core/ipv4\etharp.c ****  * Resolve and fill-in Ethernet address header for outgoing IP packet.
 774:c:/Users/Black_Life/STM32Cube/Repository/STM32Cube_FW_F4_V1.26.2/Middlewares/Third_Party/LwIP/src/core/ipv4\etharp.c ****  *
 775:c:/Users/Black_Life/STM32Cube/Repository/STM32Cube_FW_F4_V1.26.2/Middlewares/Third_Party/LwIP/src/core/ipv4\etharp.c ****  * For IP multicast and broadcast, corresponding Ethernet addresses
 776:c:/Users/Black_Life/STM32Cube/Repository/STM32Cube_FW_F4_V1.26.2/Middlewares/Third_Party/LwIP/src/core/ipv4\etharp.c ****  * are selected and the packet is transmitted on the link.
 777:c:/Users/Black_Life/STM32Cube/Repository/STM32Cube_FW_F4_V1.26.2/Middlewares/Third_Party/LwIP/src/core/ipv4\etharp.c ****  *
 778:c:/Users/Black_Life/STM32Cube/Repository/STM32Cube_FW_F4_V1.26.2/Middlewares/Third_Party/LwIP/src/core/ipv4\etharp.c ****  * For unicast addresses, the packet is submitted to etharp_query(). In
 779:c:/Users/Black_Life/STM32Cube/Repository/STM32Cube_FW_F4_V1.26.2/Middlewares/Third_Party/LwIP/src/core/ipv4\etharp.c ****  * case the IP address is outside the local network, the IP address of
 780:c:/Users/Black_Life/STM32Cube/Repository/STM32Cube_FW_F4_V1.26.2/Middlewares/Third_Party/LwIP/src/core/ipv4\etharp.c ****  * the gateway is used.
 781:c:/Users/Black_Life/STM32Cube/Repository/STM32Cube_FW_F4_V1.26.2/Middlewares/Third_Party/LwIP/src/core/ipv4\etharp.c ****  *
 782:c:/Users/Black_Life/STM32Cube/Repository/STM32Cube_FW_F4_V1.26.2/Middlewares/Third_Party/LwIP/src/core/ipv4\etharp.c ****  * @param netif The lwIP network interface which the IP packet will be sent on.
 783:c:/Users/Black_Life/STM32Cube/Repository/STM32Cube_FW_F4_V1.26.2/Middlewares/Third_Party/LwIP/src/core/ipv4\etharp.c ****  * @param q The pbuf(s) containing the IP packet to be sent.
 784:c:/Users/Black_Life/STM32Cube/Repository/STM32Cube_FW_F4_V1.26.2/Middlewares/Third_Party/LwIP/src/core/ipv4\etharp.c ****  * @param ipaddr The IP address of the packet destination.
 785:c:/Users/Black_Life/STM32Cube/Repository/STM32Cube_FW_F4_V1.26.2/Middlewares/Third_Party/LwIP/src/core/ipv4\etharp.c ****  *
 786:c:/Users/Black_Life/STM32Cube/Repository/STM32Cube_FW_F4_V1.26.2/Middlewares/Third_Party/LwIP/src/core/ipv4\etharp.c ****  * @return
 787:c:/Users/Black_Life/STM32Cube/Repository/STM32Cube_FW_F4_V1.26.2/Middlewares/Third_Party/LwIP/src/core/ipv4\etharp.c ****  * - ERR_RTE No route to destination (no gateway to external networks),
 788:c:/Users/Black_Life/STM32Cube/Repository/STM32Cube_FW_F4_V1.26.2/Middlewares/Third_Party/LwIP/src/core/ipv4\etharp.c ****  * or the return type of either etharp_query() or ethernet_output().
 789:c:/Users/Black_Life/STM32Cube/Repository/STM32Cube_FW_F4_V1.26.2/Middlewares/Third_Party/LwIP/src/core/ipv4\etharp.c ****  */
 790:c:/Users/Black_Life/STM32Cube/Repository/STM32Cube_FW_F4_V1.26.2/Middlewares/Third_Party/LwIP/src/core/ipv4\etharp.c **** err_t
 791:c:/Users/Black_Life/STM32Cube/Repository/STM32Cube_FW_F4_V1.26.2/Middlewares/Third_Party/LwIP/src/core/ipv4\etharp.c **** etharp_output(struct netif *netif, struct pbuf *q, const ip4_addr_t *ipaddr)
 792:c:/Users/Black_Life/STM32Cube/Repository/STM32Cube_FW_F4_V1.26.2/Middlewares/Third_Party/LwIP/src/core/ipv4\etharp.c **** {
 793:c:/Users/Black_Life/STM32Cube/Repository/STM32Cube_FW_F4_V1.26.2/Middlewares/Third_Party/LwIP/src/core/ipv4\etharp.c ****   const struct eth_addr *dest;
 794:c:/Users/Black_Life/STM32Cube/Repository/STM32Cube_FW_F4_V1.26.2/Middlewares/Third_Party/LwIP/src/core/ipv4\etharp.c ****   struct eth_addr mcastaddr;
 795:c:/Users/Black_Life/STM32Cube/Repository/STM32Cube_FW_F4_V1.26.2/Middlewares/Third_Party/LwIP/src/core/ipv4\etharp.c ****   const ip4_addr_t *dst_addr = ipaddr;
 796:c:/Users/Black_Life/STM32Cube/Repository/STM32Cube_FW_F4_V1.26.2/Middlewares/Third_Party/LwIP/src/core/ipv4\etharp.c **** 
 797:c:/Users/Black_Life/STM32Cube/Repository/STM32Cube_FW_F4_V1.26.2/Middlewares/Third_Party/LwIP/src/core/ipv4\etharp.c ****   LWIP_ASSERT_CORE_LOCKED();
 798:c:/Users/Black_Life/STM32Cube/Repository/STM32Cube_FW_F4_V1.26.2/Middlewares/Third_Party/LwIP/src/core/ipv4\etharp.c ****   LWIP_ASSERT("netif != NULL", netif != NULL);
 799:c:/Users/Black_Life/STM32Cube/Repository/STM32Cube_FW_F4_V1.26.2/Middlewares/Third_Party/LwIP/src/core/ipv4\etharp.c ****   LWIP_ASSERT("q != NULL", q != NULL);
 800:c:/Users/Black_Life/STM32Cube/Repository/STM32Cube_FW_F4_V1.26.2/Middlewares/Third_Party/LwIP/src/core/ipv4\etharp.c ****   LWIP_ASSERT("ipaddr != NULL", ipaddr != NULL);
 801:c:/Users/Black_Life/STM32Cube/Repository/STM32Cube_FW_F4_V1.26.2/Middlewares/Third_Party/LwIP/src/core/ipv4\etharp.c **** 
 802:c:/Users/Black_Life/STM32Cube/Repository/STM32Cube_FW_F4_V1.26.2/Middlewares/Third_Party/LwIP/src/core/ipv4\etharp.c ****   /* Determine on destination hardware address. Broadcasts and multicasts
 803:c:/Users/Black_Life/STM32Cube/Repository/STM32Cube_FW_F4_V1.26.2/Middlewares/Third_Party/LwIP/src/core/ipv4\etharp.c ****    * are special, other IP addresses are looked up in the ARP table. */
 804:c:/Users/Black_Life/STM32Cube/Repository/STM32Cube_FW_F4_V1.26.2/Middlewares/Third_Party/LwIP/src/core/ipv4\etharp.c **** 
 805:c:/Users/Black_Life/STM32Cube/Repository/STM32Cube_FW_F4_V1.26.2/Middlewares/Third_Party/LwIP/src/core/ipv4\etharp.c ****   /* broadcast destination IP address? */
ARM GAS  C:\Users\BLACK_~1\AppData\Local\Temp\ccrhXwwe.s 			page 30


 806:c:/Users/Black_Life/STM32Cube/Repository/STM32Cube_FW_F4_V1.26.2/Middlewares/Third_Party/LwIP/src/core/ipv4\etharp.c ****   if (ip4_addr_isbroadcast(ipaddr, netif)) {
 807:c:/Users/Black_Life/STM32Cube/Repository/STM32Cube_FW_F4_V1.26.2/Middlewares/Third_Party/LwIP/src/core/ipv4\etharp.c ****     /* broadcast on Ethernet also */
 808:c:/Users/Black_Life/STM32Cube/Repository/STM32Cube_FW_F4_V1.26.2/Middlewares/Third_Party/LwIP/src/core/ipv4\etharp.c ****     dest = (const struct eth_addr *)&ethbroadcast;
 809:c:/Users/Black_Life/STM32Cube/Repository/STM32Cube_FW_F4_V1.26.2/Middlewares/Third_Party/LwIP/src/core/ipv4\etharp.c ****     /* multicast destination IP address? */
 810:c:/Users/Black_Life/STM32Cube/Repository/STM32Cube_FW_F4_V1.26.2/Middlewares/Third_Party/LwIP/src/core/ipv4\etharp.c ****   } else if (ip4_addr_ismulticast(ipaddr)) {
 811:c:/Users/Black_Life/STM32Cube/Repository/STM32Cube_FW_F4_V1.26.2/Middlewares/Third_Party/LwIP/src/core/ipv4\etharp.c ****     /* Hash IP multicast address to MAC address.*/
 812:c:/Users/Black_Life/STM32Cube/Repository/STM32Cube_FW_F4_V1.26.2/Middlewares/Third_Party/LwIP/src/core/ipv4\etharp.c ****     mcastaddr.addr[0] = LL_IP4_MULTICAST_ADDR_0;
 813:c:/Users/Black_Life/STM32Cube/Repository/STM32Cube_FW_F4_V1.26.2/Middlewares/Third_Party/LwIP/src/core/ipv4\etharp.c ****     mcastaddr.addr[1] = LL_IP4_MULTICAST_ADDR_1;
 814:c:/Users/Black_Life/STM32Cube/Repository/STM32Cube_FW_F4_V1.26.2/Middlewares/Third_Party/LwIP/src/core/ipv4\etharp.c ****     mcastaddr.addr[2] = LL_IP4_MULTICAST_ADDR_2;
 815:c:/Users/Black_Life/STM32Cube/Repository/STM32Cube_FW_F4_V1.26.2/Middlewares/Third_Party/LwIP/src/core/ipv4\etharp.c ****     mcastaddr.addr[3] = ip4_addr2(ipaddr) & 0x7f;
 816:c:/Users/Black_Life/STM32Cube/Repository/STM32Cube_FW_F4_V1.26.2/Middlewares/Third_Party/LwIP/src/core/ipv4\etharp.c ****     mcastaddr.addr[4] = ip4_addr3(ipaddr);
 817:c:/Users/Black_Life/STM32Cube/Repository/STM32Cube_FW_F4_V1.26.2/Middlewares/Third_Party/LwIP/src/core/ipv4\etharp.c ****     mcastaddr.addr[5] = ip4_addr4(ipaddr);
 818:c:/Users/Black_Life/STM32Cube/Repository/STM32Cube_FW_F4_V1.26.2/Middlewares/Third_Party/LwIP/src/core/ipv4\etharp.c ****     /* destination Ethernet address is multicast */
 819:c:/Users/Black_Life/STM32Cube/Repository/STM32Cube_FW_F4_V1.26.2/Middlewares/Third_Party/LwIP/src/core/ipv4\etharp.c ****     dest = &mcastaddr;
 820:c:/Users/Black_Life/STM32Cube/Repository/STM32Cube_FW_F4_V1.26.2/Middlewares/Third_Party/LwIP/src/core/ipv4\etharp.c ****     /* unicast destination IP address? */
 821:c:/Users/Black_Life/STM32Cube/Repository/STM32Cube_FW_F4_V1.26.2/Middlewares/Third_Party/LwIP/src/core/ipv4\etharp.c ****   } else {
 822:c:/Users/Black_Life/STM32Cube/Repository/STM32Cube_FW_F4_V1.26.2/Middlewares/Third_Party/LwIP/src/core/ipv4\etharp.c ****     netif_addr_idx_t i;
 823:c:/Users/Black_Life/STM32Cube/Repository/STM32Cube_FW_F4_V1.26.2/Middlewares/Third_Party/LwIP/src/core/ipv4\etharp.c ****     /* outside local network? if so, this can neither be a global broadcast nor
 824:c:/Users/Black_Life/STM32Cube/Repository/STM32Cube_FW_F4_V1.26.2/Middlewares/Third_Party/LwIP/src/core/ipv4\etharp.c ****        a subnet broadcast. */
 825:c:/Users/Black_Life/STM32Cube/Repository/STM32Cube_FW_F4_V1.26.2/Middlewares/Third_Party/LwIP/src/core/ipv4\etharp.c ****     if (!ip4_addr_netcmp(ipaddr, netif_ip4_addr(netif), netif_ip4_netmask(netif)) &&
 826:c:/Users/Black_Life/STM32Cube/Repository/STM32Cube_FW_F4_V1.26.2/Middlewares/Third_Party/LwIP/src/core/ipv4\etharp.c ****         !ip4_addr_islinklocal(ipaddr)) {
 827:c:/Users/Black_Life/STM32Cube/Repository/STM32Cube_FW_F4_V1.26.2/Middlewares/Third_Party/LwIP/src/core/ipv4\etharp.c **** #if LWIP_AUTOIP
 828:c:/Users/Black_Life/STM32Cube/Repository/STM32Cube_FW_F4_V1.26.2/Middlewares/Third_Party/LwIP/src/core/ipv4\etharp.c ****       struct ip_hdr *iphdr = LWIP_ALIGNMENT_CAST(struct ip_hdr *, q->payload);
 829:c:/Users/Black_Life/STM32Cube/Repository/STM32Cube_FW_F4_V1.26.2/Middlewares/Third_Party/LwIP/src/core/ipv4\etharp.c ****       /* According to RFC 3297, chapter 2.6.2 (Forwarding Rules), a packet with
 830:c:/Users/Black_Life/STM32Cube/Repository/STM32Cube_FW_F4_V1.26.2/Middlewares/Third_Party/LwIP/src/core/ipv4\etharp.c ****          a link-local source address must always be "directly to its destination
 831:c:/Users/Black_Life/STM32Cube/Repository/STM32Cube_FW_F4_V1.26.2/Middlewares/Third_Party/LwIP/src/core/ipv4\etharp.c ****          on the same physical link. The host MUST NOT send the packet to any
 832:c:/Users/Black_Life/STM32Cube/Repository/STM32Cube_FW_F4_V1.26.2/Middlewares/Third_Party/LwIP/src/core/ipv4\etharp.c ****          router for forwarding". */
 833:c:/Users/Black_Life/STM32Cube/Repository/STM32Cube_FW_F4_V1.26.2/Middlewares/Third_Party/LwIP/src/core/ipv4\etharp.c ****       if (!ip4_addr_islinklocal(&iphdr->src))
 834:c:/Users/Black_Life/STM32Cube/Repository/STM32Cube_FW_F4_V1.26.2/Middlewares/Third_Party/LwIP/src/core/ipv4\etharp.c **** #endif /* LWIP_AUTOIP */
 835:c:/Users/Black_Life/STM32Cube/Repository/STM32Cube_FW_F4_V1.26.2/Middlewares/Third_Party/LwIP/src/core/ipv4\etharp.c ****       {
 836:c:/Users/Black_Life/STM32Cube/Repository/STM32Cube_FW_F4_V1.26.2/Middlewares/Third_Party/LwIP/src/core/ipv4\etharp.c **** #ifdef LWIP_HOOK_ETHARP_GET_GW
 837:c:/Users/Black_Life/STM32Cube/Repository/STM32Cube_FW_F4_V1.26.2/Middlewares/Third_Party/LwIP/src/core/ipv4\etharp.c ****         /* For advanced routing, a single default gateway might not be enough, so get
 838:c:/Users/Black_Life/STM32Cube/Repository/STM32Cube_FW_F4_V1.26.2/Middlewares/Third_Party/LwIP/src/core/ipv4\etharp.c ****            the IP address of the gateway to handle the current destination address. */
 839:c:/Users/Black_Life/STM32Cube/Repository/STM32Cube_FW_F4_V1.26.2/Middlewares/Third_Party/LwIP/src/core/ipv4\etharp.c ****         dst_addr = LWIP_HOOK_ETHARP_GET_GW(netif, ipaddr);
 840:c:/Users/Black_Life/STM32Cube/Repository/STM32Cube_FW_F4_V1.26.2/Middlewares/Third_Party/LwIP/src/core/ipv4\etharp.c ****         if (dst_addr == NULL)
 841:c:/Users/Black_Life/STM32Cube/Repository/STM32Cube_FW_F4_V1.26.2/Middlewares/Third_Party/LwIP/src/core/ipv4\etharp.c **** #endif /* LWIP_HOOK_ETHARP_GET_GW */
 842:c:/Users/Black_Life/STM32Cube/Repository/STM32Cube_FW_F4_V1.26.2/Middlewares/Third_Party/LwIP/src/core/ipv4\etharp.c ****         {
 843:c:/Users/Black_Life/STM32Cube/Repository/STM32Cube_FW_F4_V1.26.2/Middlewares/Third_Party/LwIP/src/core/ipv4\etharp.c ****           /* interface has default gateway? */
 844:c:/Users/Black_Life/STM32Cube/Repository/STM32Cube_FW_F4_V1.26.2/Middlewares/Third_Party/LwIP/src/core/ipv4\etharp.c ****           if (!ip4_addr_isany_val(*netif_ip4_gw(netif))) {
 845:c:/Users/Black_Life/STM32Cube/Repository/STM32Cube_FW_F4_V1.26.2/Middlewares/Third_Party/LwIP/src/core/ipv4\etharp.c ****             /* send to hardware address of default gateway IP address */
 846:c:/Users/Black_Life/STM32Cube/Repository/STM32Cube_FW_F4_V1.26.2/Middlewares/Third_Party/LwIP/src/core/ipv4\etharp.c ****             dst_addr = netif_ip4_gw(netif);
 847:c:/Users/Black_Life/STM32Cube/Repository/STM32Cube_FW_F4_V1.26.2/Middlewares/Third_Party/LwIP/src/core/ipv4\etharp.c ****             /* no default gateway available */
 848:c:/Users/Black_Life/STM32Cube/Repository/STM32Cube_FW_F4_V1.26.2/Middlewares/Third_Party/LwIP/src/core/ipv4\etharp.c ****           } else {
 849:c:/Users/Black_Life/STM32Cube/Repository/STM32Cube_FW_F4_V1.26.2/Middlewares/Third_Party/LwIP/src/core/ipv4\etharp.c ****             /* no route to destination error (default gateway missing) */
 850:c:/Users/Black_Life/STM32Cube/Repository/STM32Cube_FW_F4_V1.26.2/Middlewares/Third_Party/LwIP/src/core/ipv4\etharp.c ****             return ERR_RTE;
 851:c:/Users/Black_Life/STM32Cube/Repository/STM32Cube_FW_F4_V1.26.2/Middlewares/Third_Party/LwIP/src/core/ipv4\etharp.c ****           }
 852:c:/Users/Black_Life/STM32Cube/Repository/STM32Cube_FW_F4_V1.26.2/Middlewares/Third_Party/LwIP/src/core/ipv4\etharp.c ****         }
 853:c:/Users/Black_Life/STM32Cube/Repository/STM32Cube_FW_F4_V1.26.2/Middlewares/Third_Party/LwIP/src/core/ipv4\etharp.c ****       }
 854:c:/Users/Black_Life/STM32Cube/Repository/STM32Cube_FW_F4_V1.26.2/Middlewares/Third_Party/LwIP/src/core/ipv4\etharp.c ****     }
 855:c:/Users/Black_Life/STM32Cube/Repository/STM32Cube_FW_F4_V1.26.2/Middlewares/Third_Party/LwIP/src/core/ipv4\etharp.c **** #if LWIP_NETIF_HWADDRHINT
 856:c:/Users/Black_Life/STM32Cube/Repository/STM32Cube_FW_F4_V1.26.2/Middlewares/Third_Party/LwIP/src/core/ipv4\etharp.c ****     if (netif->hints != NULL) {
 857:c:/Users/Black_Life/STM32Cube/Repository/STM32Cube_FW_F4_V1.26.2/Middlewares/Third_Party/LwIP/src/core/ipv4\etharp.c ****       /* per-pcb cached entry was given */
 858:c:/Users/Black_Life/STM32Cube/Repository/STM32Cube_FW_F4_V1.26.2/Middlewares/Third_Party/LwIP/src/core/ipv4\etharp.c ****       netif_addr_idx_t etharp_cached_entry = netif->hints->addr_hint;
 859:c:/Users/Black_Life/STM32Cube/Repository/STM32Cube_FW_F4_V1.26.2/Middlewares/Third_Party/LwIP/src/core/ipv4\etharp.c ****       if (etharp_cached_entry < ARP_TABLE_SIZE) {
 860:c:/Users/Black_Life/STM32Cube/Repository/STM32Cube_FW_F4_V1.26.2/Middlewares/Third_Party/LwIP/src/core/ipv4\etharp.c **** #endif /* LWIP_NETIF_HWADDRHINT */
 861:c:/Users/Black_Life/STM32Cube/Repository/STM32Cube_FW_F4_V1.26.2/Middlewares/Third_Party/LwIP/src/core/ipv4\etharp.c ****         if ((arp_table[etharp_cached_entry].state >= ETHARP_STATE_STABLE) &&
 862:c:/Users/Black_Life/STM32Cube/Repository/STM32Cube_FW_F4_V1.26.2/Middlewares/Third_Party/LwIP/src/core/ipv4\etharp.c **** #if ETHARP_TABLE_MATCH_NETIF
ARM GAS  C:\Users\BLACK_~1\AppData\Local\Temp\ccrhXwwe.s 			page 31


 863:c:/Users/Black_Life/STM32Cube/Repository/STM32Cube_FW_F4_V1.26.2/Middlewares/Third_Party/LwIP/src/core/ipv4\etharp.c ****             (arp_table[etharp_cached_entry].netif == netif) &&
 864:c:/Users/Black_Life/STM32Cube/Repository/STM32Cube_FW_F4_V1.26.2/Middlewares/Third_Party/LwIP/src/core/ipv4\etharp.c **** #endif
 865:c:/Users/Black_Life/STM32Cube/Repository/STM32Cube_FW_F4_V1.26.2/Middlewares/Third_Party/LwIP/src/core/ipv4\etharp.c ****             (ip4_addr_cmp(dst_addr, &arp_table[etharp_cached_entry].ipaddr))) {
 866:c:/Users/Black_Life/STM32Cube/Repository/STM32Cube_FW_F4_V1.26.2/Middlewares/Third_Party/LwIP/src/core/ipv4\etharp.c ****           /* the per-pcb-cached entry is stable and the right one! */
 867:c:/Users/Black_Life/STM32Cube/Repository/STM32Cube_FW_F4_V1.26.2/Middlewares/Third_Party/LwIP/src/core/ipv4\etharp.c ****           ETHARP_STATS_INC(etharp.cachehit);
 868:c:/Users/Black_Life/STM32Cube/Repository/STM32Cube_FW_F4_V1.26.2/Middlewares/Third_Party/LwIP/src/core/ipv4\etharp.c ****           return etharp_output_to_arp_index(netif, q, etharp_cached_entry);
 869:c:/Users/Black_Life/STM32Cube/Repository/STM32Cube_FW_F4_V1.26.2/Middlewares/Third_Party/LwIP/src/core/ipv4\etharp.c ****         }
 870:c:/Users/Black_Life/STM32Cube/Repository/STM32Cube_FW_F4_V1.26.2/Middlewares/Third_Party/LwIP/src/core/ipv4\etharp.c **** #if LWIP_NETIF_HWADDRHINT
 871:c:/Users/Black_Life/STM32Cube/Repository/STM32Cube_FW_F4_V1.26.2/Middlewares/Third_Party/LwIP/src/core/ipv4\etharp.c ****       }
 872:c:/Users/Black_Life/STM32Cube/Repository/STM32Cube_FW_F4_V1.26.2/Middlewares/Third_Party/LwIP/src/core/ipv4\etharp.c ****     }
 873:c:/Users/Black_Life/STM32Cube/Repository/STM32Cube_FW_F4_V1.26.2/Middlewares/Third_Party/LwIP/src/core/ipv4\etharp.c **** #endif /* LWIP_NETIF_HWADDRHINT */
 874:c:/Users/Black_Life/STM32Cube/Repository/STM32Cube_FW_F4_V1.26.2/Middlewares/Third_Party/LwIP/src/core/ipv4\etharp.c **** 
 875:c:/Users/Black_Life/STM32Cube/Repository/STM32Cube_FW_F4_V1.26.2/Middlewares/Third_Party/LwIP/src/core/ipv4\etharp.c ****     /* find stable entry: do this here since this is a critical path for
 876:c:/Users/Black_Life/STM32Cube/Repository/STM32Cube_FW_F4_V1.26.2/Middlewares/Third_Party/LwIP/src/core/ipv4\etharp.c ****        throughput and etharp_find_entry() is kind of slow */
 877:c:/Users/Black_Life/STM32Cube/Repository/STM32Cube_FW_F4_V1.26.2/Middlewares/Third_Party/LwIP/src/core/ipv4\etharp.c ****     for (i = 0; i < ARP_TABLE_SIZE; i++) {
 878:c:/Users/Black_Life/STM32Cube/Repository/STM32Cube_FW_F4_V1.26.2/Middlewares/Third_Party/LwIP/src/core/ipv4\etharp.c ****       if ((arp_table[i].state >= ETHARP_STATE_STABLE) &&
 879:c:/Users/Black_Life/STM32Cube/Repository/STM32Cube_FW_F4_V1.26.2/Middlewares/Third_Party/LwIP/src/core/ipv4\etharp.c **** #if ETHARP_TABLE_MATCH_NETIF
 880:c:/Users/Black_Life/STM32Cube/Repository/STM32Cube_FW_F4_V1.26.2/Middlewares/Third_Party/LwIP/src/core/ipv4\etharp.c ****           (arp_table[i].netif == netif) &&
 881:c:/Users/Black_Life/STM32Cube/Repository/STM32Cube_FW_F4_V1.26.2/Middlewares/Third_Party/LwIP/src/core/ipv4\etharp.c **** #endif
 882:c:/Users/Black_Life/STM32Cube/Repository/STM32Cube_FW_F4_V1.26.2/Middlewares/Third_Party/LwIP/src/core/ipv4\etharp.c ****           (ip4_addr_cmp(dst_addr, &arp_table[i].ipaddr))) {
 883:c:/Users/Black_Life/STM32Cube/Repository/STM32Cube_FW_F4_V1.26.2/Middlewares/Third_Party/LwIP/src/core/ipv4\etharp.c ****         /* found an existing, stable entry */
 884:c:/Users/Black_Life/STM32Cube/Repository/STM32Cube_FW_F4_V1.26.2/Middlewares/Third_Party/LwIP/src/core/ipv4\etharp.c ****         ETHARP_SET_ADDRHINT(netif, i);
 885:c:/Users/Black_Life/STM32Cube/Repository/STM32Cube_FW_F4_V1.26.2/Middlewares/Third_Party/LwIP/src/core/ipv4\etharp.c ****         return etharp_output_to_arp_index(netif, q, i);
 886:c:/Users/Black_Life/STM32Cube/Repository/STM32Cube_FW_F4_V1.26.2/Middlewares/Third_Party/LwIP/src/core/ipv4\etharp.c ****       }
 887:c:/Users/Black_Life/STM32Cube/Repository/STM32Cube_FW_F4_V1.26.2/Middlewares/Third_Party/LwIP/src/core/ipv4\etharp.c ****     }
 888:c:/Users/Black_Life/STM32Cube/Repository/STM32Cube_FW_F4_V1.26.2/Middlewares/Third_Party/LwIP/src/core/ipv4\etharp.c ****     /* no stable entry found, use the (slower) query function:
 889:c:/Users/Black_Life/STM32Cube/Repository/STM32Cube_FW_F4_V1.26.2/Middlewares/Third_Party/LwIP/src/core/ipv4\etharp.c ****        queue on destination Ethernet address belonging to ipaddr */
 890:c:/Users/Black_Life/STM32Cube/Repository/STM32Cube_FW_F4_V1.26.2/Middlewares/Third_Party/LwIP/src/core/ipv4\etharp.c ****     return etharp_query(netif, dst_addr, q);
 891:c:/Users/Black_Life/STM32Cube/Repository/STM32Cube_FW_F4_V1.26.2/Middlewares/Third_Party/LwIP/src/core/ipv4\etharp.c ****   }
 892:c:/Users/Black_Life/STM32Cube/Repository/STM32Cube_FW_F4_V1.26.2/Middlewares/Third_Party/LwIP/src/core/ipv4\etharp.c **** 
 893:c:/Users/Black_Life/STM32Cube/Repository/STM32Cube_FW_F4_V1.26.2/Middlewares/Third_Party/LwIP/src/core/ipv4\etharp.c ****   /* continuation for multicast/broadcast destinations */
 894:c:/Users/Black_Life/STM32Cube/Repository/STM32Cube_FW_F4_V1.26.2/Middlewares/Third_Party/LwIP/src/core/ipv4\etharp.c ****   /* obtain source Ethernet address of the given interface */
 895:c:/Users/Black_Life/STM32Cube/Repository/STM32Cube_FW_F4_V1.26.2/Middlewares/Third_Party/LwIP/src/core/ipv4\etharp.c ****   /* send packet directly on the link */
 896:c:/Users/Black_Life/STM32Cube/Repository/STM32Cube_FW_F4_V1.26.2/Middlewares/Third_Party/LwIP/src/core/ipv4\etharp.c ****   return ethernet_output(netif, q, (struct eth_addr *)(netif->hwaddr), dest, ETHTYPE_IP);
 897:c:/Users/Black_Life/STM32Cube/Repository/STM32Cube_FW_F4_V1.26.2/Middlewares/Third_Party/LwIP/src/core/ipv4\etharp.c **** }
 898:c:/Users/Black_Life/STM32Cube/Repository/STM32Cube_FW_F4_V1.26.2/Middlewares/Third_Party/LwIP/src/core/ipv4\etharp.c **** 
 899:c:/Users/Black_Life/STM32Cube/Repository/STM32Cube_FW_F4_V1.26.2/Middlewares/Third_Party/LwIP/src/core/ipv4\etharp.c **** /**
 900:c:/Users/Black_Life/STM32Cube/Repository/STM32Cube_FW_F4_V1.26.2/Middlewares/Third_Party/LwIP/src/core/ipv4\etharp.c ****  * Send an ARP request for the given IP address and/or queue a packet.
 901:c:/Users/Black_Life/STM32Cube/Repository/STM32Cube_FW_F4_V1.26.2/Middlewares/Third_Party/LwIP/src/core/ipv4\etharp.c ****  *
 902:c:/Users/Black_Life/STM32Cube/Repository/STM32Cube_FW_F4_V1.26.2/Middlewares/Third_Party/LwIP/src/core/ipv4\etharp.c ****  * If the IP address was not yet in the cache, a pending ARP cache entry
 903:c:/Users/Black_Life/STM32Cube/Repository/STM32Cube_FW_F4_V1.26.2/Middlewares/Third_Party/LwIP/src/core/ipv4\etharp.c ****  * is added and an ARP request is sent for the given address. The packet
 904:c:/Users/Black_Life/STM32Cube/Repository/STM32Cube_FW_F4_V1.26.2/Middlewares/Third_Party/LwIP/src/core/ipv4\etharp.c ****  * is queued on this entry.
 905:c:/Users/Black_Life/STM32Cube/Repository/STM32Cube_FW_F4_V1.26.2/Middlewares/Third_Party/LwIP/src/core/ipv4\etharp.c ****  *
 906:c:/Users/Black_Life/STM32Cube/Repository/STM32Cube_FW_F4_V1.26.2/Middlewares/Third_Party/LwIP/src/core/ipv4\etharp.c ****  * If the IP address was already pending in the cache, a new ARP request
 907:c:/Users/Black_Life/STM32Cube/Repository/STM32Cube_FW_F4_V1.26.2/Middlewares/Third_Party/LwIP/src/core/ipv4\etharp.c ****  * is sent for the given address. The packet is queued on this entry.
 908:c:/Users/Black_Life/STM32Cube/Repository/STM32Cube_FW_F4_V1.26.2/Middlewares/Third_Party/LwIP/src/core/ipv4\etharp.c ****  *
 909:c:/Users/Black_Life/STM32Cube/Repository/STM32Cube_FW_F4_V1.26.2/Middlewares/Third_Party/LwIP/src/core/ipv4\etharp.c ****  * If the IP address was already stable in the cache, and a packet is
 910:c:/Users/Black_Life/STM32Cube/Repository/STM32Cube_FW_F4_V1.26.2/Middlewares/Third_Party/LwIP/src/core/ipv4\etharp.c ****  * given, it is directly sent and no ARP request is sent out.
 911:c:/Users/Black_Life/STM32Cube/Repository/STM32Cube_FW_F4_V1.26.2/Middlewares/Third_Party/LwIP/src/core/ipv4\etharp.c ****  *
 912:c:/Users/Black_Life/STM32Cube/Repository/STM32Cube_FW_F4_V1.26.2/Middlewares/Third_Party/LwIP/src/core/ipv4\etharp.c ****  * If the IP address was already stable in the cache, and no packet is
 913:c:/Users/Black_Life/STM32Cube/Repository/STM32Cube_FW_F4_V1.26.2/Middlewares/Third_Party/LwIP/src/core/ipv4\etharp.c ****  * given, an ARP request is sent out.
 914:c:/Users/Black_Life/STM32Cube/Repository/STM32Cube_FW_F4_V1.26.2/Middlewares/Third_Party/LwIP/src/core/ipv4\etharp.c ****  *
 915:c:/Users/Black_Life/STM32Cube/Repository/STM32Cube_FW_F4_V1.26.2/Middlewares/Third_Party/LwIP/src/core/ipv4\etharp.c ****  * @param netif The lwIP network interface on which ipaddr
 916:c:/Users/Black_Life/STM32Cube/Repository/STM32Cube_FW_F4_V1.26.2/Middlewares/Third_Party/LwIP/src/core/ipv4\etharp.c ****  * must be queried for.
 917:c:/Users/Black_Life/STM32Cube/Repository/STM32Cube_FW_F4_V1.26.2/Middlewares/Third_Party/LwIP/src/core/ipv4\etharp.c ****  * @param ipaddr The IP address to be resolved.
 918:c:/Users/Black_Life/STM32Cube/Repository/STM32Cube_FW_F4_V1.26.2/Middlewares/Third_Party/LwIP/src/core/ipv4\etharp.c ****  * @param q If non-NULL, a pbuf that must be delivered to the IP address.
 919:c:/Users/Black_Life/STM32Cube/Repository/STM32Cube_FW_F4_V1.26.2/Middlewares/Third_Party/LwIP/src/core/ipv4\etharp.c ****  * q is not freed by this function.
ARM GAS  C:\Users\BLACK_~1\AppData\Local\Temp\ccrhXwwe.s 			page 32


 920:c:/Users/Black_Life/STM32Cube/Repository/STM32Cube_FW_F4_V1.26.2/Middlewares/Third_Party/LwIP/src/core/ipv4\etharp.c ****  *
 921:c:/Users/Black_Life/STM32Cube/Repository/STM32Cube_FW_F4_V1.26.2/Middlewares/Third_Party/LwIP/src/core/ipv4\etharp.c ****  * @note q must only be ONE packet, not a packet queue!
 922:c:/Users/Black_Life/STM32Cube/Repository/STM32Cube_FW_F4_V1.26.2/Middlewares/Third_Party/LwIP/src/core/ipv4\etharp.c ****  *
 923:c:/Users/Black_Life/STM32Cube/Repository/STM32Cube_FW_F4_V1.26.2/Middlewares/Third_Party/LwIP/src/core/ipv4\etharp.c ****  * @return
 924:c:/Users/Black_Life/STM32Cube/Repository/STM32Cube_FW_F4_V1.26.2/Middlewares/Third_Party/LwIP/src/core/ipv4\etharp.c ****  * - ERR_BUF Could not make room for Ethernet header.
 925:c:/Users/Black_Life/STM32Cube/Repository/STM32Cube_FW_F4_V1.26.2/Middlewares/Third_Party/LwIP/src/core/ipv4\etharp.c ****  * - ERR_MEM Hardware address unknown, and no more ARP entries available
 926:c:/Users/Black_Life/STM32Cube/Repository/STM32Cube_FW_F4_V1.26.2/Middlewares/Third_Party/LwIP/src/core/ipv4\etharp.c ****  *   to query for address or queue the packet.
 927:c:/Users/Black_Life/STM32Cube/Repository/STM32Cube_FW_F4_V1.26.2/Middlewares/Third_Party/LwIP/src/core/ipv4\etharp.c ****  * - ERR_MEM Could not queue packet due to memory shortage.
 928:c:/Users/Black_Life/STM32Cube/Repository/STM32Cube_FW_F4_V1.26.2/Middlewares/Third_Party/LwIP/src/core/ipv4\etharp.c ****  * - ERR_RTE No route to destination (no gateway to external networks).
 929:c:/Users/Black_Life/STM32Cube/Repository/STM32Cube_FW_F4_V1.26.2/Middlewares/Third_Party/LwIP/src/core/ipv4\etharp.c ****  * - ERR_ARG Non-unicast address given, those will not appear in ARP cache.
 930:c:/Users/Black_Life/STM32Cube/Repository/STM32Cube_FW_F4_V1.26.2/Middlewares/Third_Party/LwIP/src/core/ipv4\etharp.c ****  *
 931:c:/Users/Black_Life/STM32Cube/Repository/STM32Cube_FW_F4_V1.26.2/Middlewares/Third_Party/LwIP/src/core/ipv4\etharp.c ****  */
 932:c:/Users/Black_Life/STM32Cube/Repository/STM32Cube_FW_F4_V1.26.2/Middlewares/Third_Party/LwIP/src/core/ipv4\etharp.c **** err_t
 933:c:/Users/Black_Life/STM32Cube/Repository/STM32Cube_FW_F4_V1.26.2/Middlewares/Third_Party/LwIP/src/core/ipv4\etharp.c **** etharp_query(struct netif *netif, const ip4_addr_t *ipaddr, struct pbuf *q)
 934:c:/Users/Black_Life/STM32Cube/Repository/STM32Cube_FW_F4_V1.26.2/Middlewares/Third_Party/LwIP/src/core/ipv4\etharp.c **** {
 935:c:/Users/Black_Life/STM32Cube/Repository/STM32Cube_FW_F4_V1.26.2/Middlewares/Third_Party/LwIP/src/core/ipv4\etharp.c ****   struct eth_addr *srcaddr = (struct eth_addr *)netif->hwaddr;
 936:c:/Users/Black_Life/STM32Cube/Repository/STM32Cube_FW_F4_V1.26.2/Middlewares/Third_Party/LwIP/src/core/ipv4\etharp.c ****   err_t result = ERR_MEM;
 937:c:/Users/Black_Life/STM32Cube/Repository/STM32Cube_FW_F4_V1.26.2/Middlewares/Third_Party/LwIP/src/core/ipv4\etharp.c ****   int is_new_entry = 0;
 938:c:/Users/Black_Life/STM32Cube/Repository/STM32Cube_FW_F4_V1.26.2/Middlewares/Third_Party/LwIP/src/core/ipv4\etharp.c ****   s16_t i_err;
 939:c:/Users/Black_Life/STM32Cube/Repository/STM32Cube_FW_F4_V1.26.2/Middlewares/Third_Party/LwIP/src/core/ipv4\etharp.c ****   netif_addr_idx_t i;
 940:c:/Users/Black_Life/STM32Cube/Repository/STM32Cube_FW_F4_V1.26.2/Middlewares/Third_Party/LwIP/src/core/ipv4\etharp.c **** 
 941:c:/Users/Black_Life/STM32Cube/Repository/STM32Cube_FW_F4_V1.26.2/Middlewares/Third_Party/LwIP/src/core/ipv4\etharp.c ****   /* non-unicast address? */
 942:c:/Users/Black_Life/STM32Cube/Repository/STM32Cube_FW_F4_V1.26.2/Middlewares/Third_Party/LwIP/src/core/ipv4\etharp.c ****   if (ip4_addr_isbroadcast(ipaddr, netif) ||
 943:c:/Users/Black_Life/STM32Cube/Repository/STM32Cube_FW_F4_V1.26.2/Middlewares/Third_Party/LwIP/src/core/ipv4\etharp.c ****       ip4_addr_ismulticast(ipaddr) ||
 944:c:/Users/Black_Life/STM32Cube/Repository/STM32Cube_FW_F4_V1.26.2/Middlewares/Third_Party/LwIP/src/core/ipv4\etharp.c ****       ip4_addr_isany(ipaddr)) {
 945:c:/Users/Black_Life/STM32Cube/Repository/STM32Cube_FW_F4_V1.26.2/Middlewares/Third_Party/LwIP/src/core/ipv4\etharp.c ****     LWIP_DEBUGF(ETHARP_DEBUG | LWIP_DBG_TRACE, ("etharp_query: will not add non-unicast IP address 
 946:c:/Users/Black_Life/STM32Cube/Repository/STM32Cube_FW_F4_V1.26.2/Middlewares/Third_Party/LwIP/src/core/ipv4\etharp.c ****     return ERR_ARG;
 947:c:/Users/Black_Life/STM32Cube/Repository/STM32Cube_FW_F4_V1.26.2/Middlewares/Third_Party/LwIP/src/core/ipv4\etharp.c ****   }
 948:c:/Users/Black_Life/STM32Cube/Repository/STM32Cube_FW_F4_V1.26.2/Middlewares/Third_Party/LwIP/src/core/ipv4\etharp.c **** 
 949:c:/Users/Black_Life/STM32Cube/Repository/STM32Cube_FW_F4_V1.26.2/Middlewares/Third_Party/LwIP/src/core/ipv4\etharp.c ****   /* find entry in ARP cache, ask to create entry if queueing packet */
 950:c:/Users/Black_Life/STM32Cube/Repository/STM32Cube_FW_F4_V1.26.2/Middlewares/Third_Party/LwIP/src/core/ipv4\etharp.c ****   i_err = etharp_find_entry(ipaddr, ETHARP_FLAG_TRY_HARD, netif);
 951:c:/Users/Black_Life/STM32Cube/Repository/STM32Cube_FW_F4_V1.26.2/Middlewares/Third_Party/LwIP/src/core/ipv4\etharp.c **** 
 952:c:/Users/Black_Life/STM32Cube/Repository/STM32Cube_FW_F4_V1.26.2/Middlewares/Third_Party/LwIP/src/core/ipv4\etharp.c ****   /* could not find or create entry? */
 953:c:/Users/Black_Life/STM32Cube/Repository/STM32Cube_FW_F4_V1.26.2/Middlewares/Third_Party/LwIP/src/core/ipv4\etharp.c ****   if (i_err < 0) {
 954:c:/Users/Black_Life/STM32Cube/Repository/STM32Cube_FW_F4_V1.26.2/Middlewares/Third_Party/LwIP/src/core/ipv4\etharp.c ****     LWIP_DEBUGF(ETHARP_DEBUG | LWIP_DBG_TRACE, ("etharp_query: could not create ARP entry\n"));
 955:c:/Users/Black_Life/STM32Cube/Repository/STM32Cube_FW_F4_V1.26.2/Middlewares/Third_Party/LwIP/src/core/ipv4\etharp.c ****     if (q) {
 956:c:/Users/Black_Life/STM32Cube/Repository/STM32Cube_FW_F4_V1.26.2/Middlewares/Third_Party/LwIP/src/core/ipv4\etharp.c ****       LWIP_DEBUGF(ETHARP_DEBUG | LWIP_DBG_TRACE, ("etharp_query: packet dropped\n"));
 957:c:/Users/Black_Life/STM32Cube/Repository/STM32Cube_FW_F4_V1.26.2/Middlewares/Third_Party/LwIP/src/core/ipv4\etharp.c ****       ETHARP_STATS_INC(etharp.memerr);
 958:c:/Users/Black_Life/STM32Cube/Repository/STM32Cube_FW_F4_V1.26.2/Middlewares/Third_Party/LwIP/src/core/ipv4\etharp.c ****     }
 959:c:/Users/Black_Life/STM32Cube/Repository/STM32Cube_FW_F4_V1.26.2/Middlewares/Third_Party/LwIP/src/core/ipv4\etharp.c ****     return (err_t)i_err;
 960:c:/Users/Black_Life/STM32Cube/Repository/STM32Cube_FW_F4_V1.26.2/Middlewares/Third_Party/LwIP/src/core/ipv4\etharp.c ****   }
 961:c:/Users/Black_Life/STM32Cube/Repository/STM32Cube_FW_F4_V1.26.2/Middlewares/Third_Party/LwIP/src/core/ipv4\etharp.c ****   LWIP_ASSERT("type overflow", (size_t)i_err < NETIF_ADDR_IDX_MAX);
 962:c:/Users/Black_Life/STM32Cube/Repository/STM32Cube_FW_F4_V1.26.2/Middlewares/Third_Party/LwIP/src/core/ipv4\etharp.c ****   i = (netif_addr_idx_t)i_err;
 963:c:/Users/Black_Life/STM32Cube/Repository/STM32Cube_FW_F4_V1.26.2/Middlewares/Third_Party/LwIP/src/core/ipv4\etharp.c **** 
 964:c:/Users/Black_Life/STM32Cube/Repository/STM32Cube_FW_F4_V1.26.2/Middlewares/Third_Party/LwIP/src/core/ipv4\etharp.c ****   /* mark a fresh entry as pending (we just sent a request) */
 965:c:/Users/Black_Life/STM32Cube/Repository/STM32Cube_FW_F4_V1.26.2/Middlewares/Third_Party/LwIP/src/core/ipv4\etharp.c ****   if (arp_table[i].state == ETHARP_STATE_EMPTY) {
 966:c:/Users/Black_Life/STM32Cube/Repository/STM32Cube_FW_F4_V1.26.2/Middlewares/Third_Party/LwIP/src/core/ipv4\etharp.c ****     is_new_entry = 1;
 967:c:/Users/Black_Life/STM32Cube/Repository/STM32Cube_FW_F4_V1.26.2/Middlewares/Third_Party/LwIP/src/core/ipv4\etharp.c ****     arp_table[i].state = ETHARP_STATE_PENDING;
 968:c:/Users/Black_Life/STM32Cube/Repository/STM32Cube_FW_F4_V1.26.2/Middlewares/Third_Party/LwIP/src/core/ipv4\etharp.c ****     /* record network interface for re-sending arp request in etharp_tmr */
 969:c:/Users/Black_Life/STM32Cube/Repository/STM32Cube_FW_F4_V1.26.2/Middlewares/Third_Party/LwIP/src/core/ipv4\etharp.c ****     arp_table[i].netif = netif;
 970:c:/Users/Black_Life/STM32Cube/Repository/STM32Cube_FW_F4_V1.26.2/Middlewares/Third_Party/LwIP/src/core/ipv4\etharp.c ****   }
 971:c:/Users/Black_Life/STM32Cube/Repository/STM32Cube_FW_F4_V1.26.2/Middlewares/Third_Party/LwIP/src/core/ipv4\etharp.c **** 
 972:c:/Users/Black_Life/STM32Cube/Repository/STM32Cube_FW_F4_V1.26.2/Middlewares/Third_Party/LwIP/src/core/ipv4\etharp.c ****   /* { i is either a STABLE or (new or existing) PENDING entry } */
 973:c:/Users/Black_Life/STM32Cube/Repository/STM32Cube_FW_F4_V1.26.2/Middlewares/Third_Party/LwIP/src/core/ipv4\etharp.c ****   LWIP_ASSERT("arp_table[i].state == PENDING or STABLE",
 974:c:/Users/Black_Life/STM32Cube/Repository/STM32Cube_FW_F4_V1.26.2/Middlewares/Third_Party/LwIP/src/core/ipv4\etharp.c ****               ((arp_table[i].state == ETHARP_STATE_PENDING) ||
 975:c:/Users/Black_Life/STM32Cube/Repository/STM32Cube_FW_F4_V1.26.2/Middlewares/Third_Party/LwIP/src/core/ipv4\etharp.c ****                (arp_table[i].state >= ETHARP_STATE_STABLE)));
 976:c:/Users/Black_Life/STM32Cube/Repository/STM32Cube_FW_F4_V1.26.2/Middlewares/Third_Party/LwIP/src/core/ipv4\etharp.c **** 
ARM GAS  C:\Users\BLACK_~1\AppData\Local\Temp\ccrhXwwe.s 			page 33


 977:c:/Users/Black_Life/STM32Cube/Repository/STM32Cube_FW_F4_V1.26.2/Middlewares/Third_Party/LwIP/src/core/ipv4\etharp.c ****   /* do we have a new entry? or an implicit query request? */
 978:c:/Users/Black_Life/STM32Cube/Repository/STM32Cube_FW_F4_V1.26.2/Middlewares/Third_Party/LwIP/src/core/ipv4\etharp.c ****   if (is_new_entry || (q == NULL)) {
 979:c:/Users/Black_Life/STM32Cube/Repository/STM32Cube_FW_F4_V1.26.2/Middlewares/Third_Party/LwIP/src/core/ipv4\etharp.c ****     /* try to resolve it; send out ARP request */
 980:c:/Users/Black_Life/STM32Cube/Repository/STM32Cube_FW_F4_V1.26.2/Middlewares/Third_Party/LwIP/src/core/ipv4\etharp.c ****     result = etharp_request(netif, ipaddr);
 981:c:/Users/Black_Life/STM32Cube/Repository/STM32Cube_FW_F4_V1.26.2/Middlewares/Third_Party/LwIP/src/core/ipv4\etharp.c ****     if (result != ERR_OK) {
 982:c:/Users/Black_Life/STM32Cube/Repository/STM32Cube_FW_F4_V1.26.2/Middlewares/Third_Party/LwIP/src/core/ipv4\etharp.c ****       /* ARP request couldn't be sent */
 983:c:/Users/Black_Life/STM32Cube/Repository/STM32Cube_FW_F4_V1.26.2/Middlewares/Third_Party/LwIP/src/core/ipv4\etharp.c ****       /* We don't re-send arp request in etharp_tmr, but we still queue packets,
 984:c:/Users/Black_Life/STM32Cube/Repository/STM32Cube_FW_F4_V1.26.2/Middlewares/Third_Party/LwIP/src/core/ipv4\etharp.c ****          since this failure could be temporary, and the next packet calling
 985:c:/Users/Black_Life/STM32Cube/Repository/STM32Cube_FW_F4_V1.26.2/Middlewares/Third_Party/LwIP/src/core/ipv4\etharp.c ****          etharp_query again could lead to sending the queued packets. */
 986:c:/Users/Black_Life/STM32Cube/Repository/STM32Cube_FW_F4_V1.26.2/Middlewares/Third_Party/LwIP/src/core/ipv4\etharp.c ****     }
 987:c:/Users/Black_Life/STM32Cube/Repository/STM32Cube_FW_F4_V1.26.2/Middlewares/Third_Party/LwIP/src/core/ipv4\etharp.c ****     if (q == NULL) {
 988:c:/Users/Black_Life/STM32Cube/Repository/STM32Cube_FW_F4_V1.26.2/Middlewares/Third_Party/LwIP/src/core/ipv4\etharp.c ****       return result;
 989:c:/Users/Black_Life/STM32Cube/Repository/STM32Cube_FW_F4_V1.26.2/Middlewares/Third_Party/LwIP/src/core/ipv4\etharp.c ****     }
 990:c:/Users/Black_Life/STM32Cube/Repository/STM32Cube_FW_F4_V1.26.2/Middlewares/Third_Party/LwIP/src/core/ipv4\etharp.c ****   }
 991:c:/Users/Black_Life/STM32Cube/Repository/STM32Cube_FW_F4_V1.26.2/Middlewares/Third_Party/LwIP/src/core/ipv4\etharp.c **** 
 992:c:/Users/Black_Life/STM32Cube/Repository/STM32Cube_FW_F4_V1.26.2/Middlewares/Third_Party/LwIP/src/core/ipv4\etharp.c ****   /* packet given? */
 993:c:/Users/Black_Life/STM32Cube/Repository/STM32Cube_FW_F4_V1.26.2/Middlewares/Third_Party/LwIP/src/core/ipv4\etharp.c ****   LWIP_ASSERT("q != NULL", q != NULL);
 994:c:/Users/Black_Life/STM32Cube/Repository/STM32Cube_FW_F4_V1.26.2/Middlewares/Third_Party/LwIP/src/core/ipv4\etharp.c ****   /* stable entry? */
 995:c:/Users/Black_Life/STM32Cube/Repository/STM32Cube_FW_F4_V1.26.2/Middlewares/Third_Party/LwIP/src/core/ipv4\etharp.c ****   if (arp_table[i].state >= ETHARP_STATE_STABLE) {
 996:c:/Users/Black_Life/STM32Cube/Repository/STM32Cube_FW_F4_V1.26.2/Middlewares/Third_Party/LwIP/src/core/ipv4\etharp.c ****     /* we have a valid IP->Ethernet address mapping */
 997:c:/Users/Black_Life/STM32Cube/Repository/STM32Cube_FW_F4_V1.26.2/Middlewares/Third_Party/LwIP/src/core/ipv4\etharp.c ****     ETHARP_SET_ADDRHINT(netif, i);
 998:c:/Users/Black_Life/STM32Cube/Repository/STM32Cube_FW_F4_V1.26.2/Middlewares/Third_Party/LwIP/src/core/ipv4\etharp.c ****     /* send the packet */
 999:c:/Users/Black_Life/STM32Cube/Repository/STM32Cube_FW_F4_V1.26.2/Middlewares/Third_Party/LwIP/src/core/ipv4\etharp.c ****     result = ethernet_output(netif, q, srcaddr, &(arp_table[i].ethaddr), ETHTYPE_IP);
1000:c:/Users/Black_Life/STM32Cube/Repository/STM32Cube_FW_F4_V1.26.2/Middlewares/Third_Party/LwIP/src/core/ipv4\etharp.c ****     /* pending entry? (either just created or already pending */
1001:c:/Users/Black_Life/STM32Cube/Repository/STM32Cube_FW_F4_V1.26.2/Middlewares/Third_Party/LwIP/src/core/ipv4\etharp.c ****   } else if (arp_table[i].state == ETHARP_STATE_PENDING) {
1002:c:/Users/Black_Life/STM32Cube/Repository/STM32Cube_FW_F4_V1.26.2/Middlewares/Third_Party/LwIP/src/core/ipv4\etharp.c ****     /* entry is still pending, queue the given packet 'q' */
1003:c:/Users/Black_Life/STM32Cube/Repository/STM32Cube_FW_F4_V1.26.2/Middlewares/Third_Party/LwIP/src/core/ipv4\etharp.c ****     struct pbuf *p;
1004:c:/Users/Black_Life/STM32Cube/Repository/STM32Cube_FW_F4_V1.26.2/Middlewares/Third_Party/LwIP/src/core/ipv4\etharp.c ****     int copy_needed = 0;
1005:c:/Users/Black_Life/STM32Cube/Repository/STM32Cube_FW_F4_V1.26.2/Middlewares/Third_Party/LwIP/src/core/ipv4\etharp.c ****     /* IF q includes a pbuf that must be copied, copy the whole chain into a
1006:c:/Users/Black_Life/STM32Cube/Repository/STM32Cube_FW_F4_V1.26.2/Middlewares/Third_Party/LwIP/src/core/ipv4\etharp.c ****      * new PBUF_RAM. See the definition of PBUF_NEEDS_COPY for details. */
1007:c:/Users/Black_Life/STM32Cube/Repository/STM32Cube_FW_F4_V1.26.2/Middlewares/Third_Party/LwIP/src/core/ipv4\etharp.c ****     p = q;
1008:c:/Users/Black_Life/STM32Cube/Repository/STM32Cube_FW_F4_V1.26.2/Middlewares/Third_Party/LwIP/src/core/ipv4\etharp.c ****     while (p) {
1009:c:/Users/Black_Life/STM32Cube/Repository/STM32Cube_FW_F4_V1.26.2/Middlewares/Third_Party/LwIP/src/core/ipv4\etharp.c ****       LWIP_ASSERT("no packet queues allowed!", (p->len != p->tot_len) || (p->next == 0));
1010:c:/Users/Black_Life/STM32Cube/Repository/STM32Cube_FW_F4_V1.26.2/Middlewares/Third_Party/LwIP/src/core/ipv4\etharp.c ****       if (PBUF_NEEDS_COPY(p)) {
1011:c:/Users/Black_Life/STM32Cube/Repository/STM32Cube_FW_F4_V1.26.2/Middlewares/Third_Party/LwIP/src/core/ipv4\etharp.c ****         copy_needed = 1;
1012:c:/Users/Black_Life/STM32Cube/Repository/STM32Cube_FW_F4_V1.26.2/Middlewares/Third_Party/LwIP/src/core/ipv4\etharp.c ****         break;
1013:c:/Users/Black_Life/STM32Cube/Repository/STM32Cube_FW_F4_V1.26.2/Middlewares/Third_Party/LwIP/src/core/ipv4\etharp.c ****       }
1014:c:/Users/Black_Life/STM32Cube/Repository/STM32Cube_FW_F4_V1.26.2/Middlewares/Third_Party/LwIP/src/core/ipv4\etharp.c ****       p = p->next;
1015:c:/Users/Black_Life/STM32Cube/Repository/STM32Cube_FW_F4_V1.26.2/Middlewares/Third_Party/LwIP/src/core/ipv4\etharp.c ****     }
1016:c:/Users/Black_Life/STM32Cube/Repository/STM32Cube_FW_F4_V1.26.2/Middlewares/Third_Party/LwIP/src/core/ipv4\etharp.c ****     if (copy_needed) {
1017:c:/Users/Black_Life/STM32Cube/Repository/STM32Cube_FW_F4_V1.26.2/Middlewares/Third_Party/LwIP/src/core/ipv4\etharp.c ****       /* copy the whole packet into new pbufs */
1018:c:/Users/Black_Life/STM32Cube/Repository/STM32Cube_FW_F4_V1.26.2/Middlewares/Third_Party/LwIP/src/core/ipv4\etharp.c ****       p = pbuf_clone(PBUF_LINK, PBUF_RAM, q);
1019:c:/Users/Black_Life/STM32Cube/Repository/STM32Cube_FW_F4_V1.26.2/Middlewares/Third_Party/LwIP/src/core/ipv4\etharp.c ****     } else {
1020:c:/Users/Black_Life/STM32Cube/Repository/STM32Cube_FW_F4_V1.26.2/Middlewares/Third_Party/LwIP/src/core/ipv4\etharp.c ****       /* referencing the old pbuf is enough */
1021:c:/Users/Black_Life/STM32Cube/Repository/STM32Cube_FW_F4_V1.26.2/Middlewares/Third_Party/LwIP/src/core/ipv4\etharp.c ****       p = q;
1022:c:/Users/Black_Life/STM32Cube/Repository/STM32Cube_FW_F4_V1.26.2/Middlewares/Third_Party/LwIP/src/core/ipv4\etharp.c ****       pbuf_ref(p);
1023:c:/Users/Black_Life/STM32Cube/Repository/STM32Cube_FW_F4_V1.26.2/Middlewares/Third_Party/LwIP/src/core/ipv4\etharp.c ****     }
1024:c:/Users/Black_Life/STM32Cube/Repository/STM32Cube_FW_F4_V1.26.2/Middlewares/Third_Party/LwIP/src/core/ipv4\etharp.c ****     /* packet could be taken over? */
1025:c:/Users/Black_Life/STM32Cube/Repository/STM32Cube_FW_F4_V1.26.2/Middlewares/Third_Party/LwIP/src/core/ipv4\etharp.c ****     if (p != NULL) {
1026:c:/Users/Black_Life/STM32Cube/Repository/STM32Cube_FW_F4_V1.26.2/Middlewares/Third_Party/LwIP/src/core/ipv4\etharp.c ****       /* queue packet ... */
1027:c:/Users/Black_Life/STM32Cube/Repository/STM32Cube_FW_F4_V1.26.2/Middlewares/Third_Party/LwIP/src/core/ipv4\etharp.c **** #if ARP_QUEUEING
1028:c:/Users/Black_Life/STM32Cube/Repository/STM32Cube_FW_F4_V1.26.2/Middlewares/Third_Party/LwIP/src/core/ipv4\etharp.c ****       struct etharp_q_entry *new_entry;
1029:c:/Users/Black_Life/STM32Cube/Repository/STM32Cube_FW_F4_V1.26.2/Middlewares/Third_Party/LwIP/src/core/ipv4\etharp.c ****       /* allocate a new arp queue entry */
1030:c:/Users/Black_Life/STM32Cube/Repository/STM32Cube_FW_F4_V1.26.2/Middlewares/Third_Party/LwIP/src/core/ipv4\etharp.c ****       new_entry = (struct etharp_q_entry *)memp_malloc(MEMP_ARP_QUEUE);
1031:c:/Users/Black_Life/STM32Cube/Repository/STM32Cube_FW_F4_V1.26.2/Middlewares/Third_Party/LwIP/src/core/ipv4\etharp.c ****       if (new_entry != NULL) {
1032:c:/Users/Black_Life/STM32Cube/Repository/STM32Cube_FW_F4_V1.26.2/Middlewares/Third_Party/LwIP/src/core/ipv4\etharp.c ****         unsigned int qlen = 0;
1033:c:/Users/Black_Life/STM32Cube/Repository/STM32Cube_FW_F4_V1.26.2/Middlewares/Third_Party/LwIP/src/core/ipv4\etharp.c ****         new_entry->next = 0;
ARM GAS  C:\Users\BLACK_~1\AppData\Local\Temp\ccrhXwwe.s 			page 34


1034:c:/Users/Black_Life/STM32Cube/Repository/STM32Cube_FW_F4_V1.26.2/Middlewares/Third_Party/LwIP/src/core/ipv4\etharp.c ****         new_entry->p = p;
1035:c:/Users/Black_Life/STM32Cube/Repository/STM32Cube_FW_F4_V1.26.2/Middlewares/Third_Party/LwIP/src/core/ipv4\etharp.c ****         if (arp_table[i].q != NULL) {
1036:c:/Users/Black_Life/STM32Cube/Repository/STM32Cube_FW_F4_V1.26.2/Middlewares/Third_Party/LwIP/src/core/ipv4\etharp.c ****           /* queue was already existent, append the new entry to the end */
1037:c:/Users/Black_Life/STM32Cube/Repository/STM32Cube_FW_F4_V1.26.2/Middlewares/Third_Party/LwIP/src/core/ipv4\etharp.c ****           struct etharp_q_entry *r;
1038:c:/Users/Black_Life/STM32Cube/Repository/STM32Cube_FW_F4_V1.26.2/Middlewares/Third_Party/LwIP/src/core/ipv4\etharp.c ****           r = arp_table[i].q;
1039:c:/Users/Black_Life/STM32Cube/Repository/STM32Cube_FW_F4_V1.26.2/Middlewares/Third_Party/LwIP/src/core/ipv4\etharp.c ****           qlen++;
1040:c:/Users/Black_Life/STM32Cube/Repository/STM32Cube_FW_F4_V1.26.2/Middlewares/Third_Party/LwIP/src/core/ipv4\etharp.c ****           while (r->next != NULL) {
1041:c:/Users/Black_Life/STM32Cube/Repository/STM32Cube_FW_F4_V1.26.2/Middlewares/Third_Party/LwIP/src/core/ipv4\etharp.c ****             r = r->next;
1042:c:/Users/Black_Life/STM32Cube/Repository/STM32Cube_FW_F4_V1.26.2/Middlewares/Third_Party/LwIP/src/core/ipv4\etharp.c ****             qlen++;
1043:c:/Users/Black_Life/STM32Cube/Repository/STM32Cube_FW_F4_V1.26.2/Middlewares/Third_Party/LwIP/src/core/ipv4\etharp.c ****           }
1044:c:/Users/Black_Life/STM32Cube/Repository/STM32Cube_FW_F4_V1.26.2/Middlewares/Third_Party/LwIP/src/core/ipv4\etharp.c ****           r->next = new_entry;
1045:c:/Users/Black_Life/STM32Cube/Repository/STM32Cube_FW_F4_V1.26.2/Middlewares/Third_Party/LwIP/src/core/ipv4\etharp.c ****         } else {
1046:c:/Users/Black_Life/STM32Cube/Repository/STM32Cube_FW_F4_V1.26.2/Middlewares/Third_Party/LwIP/src/core/ipv4\etharp.c ****           /* queue did not exist, first item in queue */
1047:c:/Users/Black_Life/STM32Cube/Repository/STM32Cube_FW_F4_V1.26.2/Middlewares/Third_Party/LwIP/src/core/ipv4\etharp.c ****           arp_table[i].q = new_entry;
1048:c:/Users/Black_Life/STM32Cube/Repository/STM32Cube_FW_F4_V1.26.2/Middlewares/Third_Party/LwIP/src/core/ipv4\etharp.c ****         }
1049:c:/Users/Black_Life/STM32Cube/Repository/STM32Cube_FW_F4_V1.26.2/Middlewares/Third_Party/LwIP/src/core/ipv4\etharp.c **** #if ARP_QUEUE_LEN
1050:c:/Users/Black_Life/STM32Cube/Repository/STM32Cube_FW_F4_V1.26.2/Middlewares/Third_Party/LwIP/src/core/ipv4\etharp.c ****         if (qlen >= ARP_QUEUE_LEN) {
1051:c:/Users/Black_Life/STM32Cube/Repository/STM32Cube_FW_F4_V1.26.2/Middlewares/Third_Party/LwIP/src/core/ipv4\etharp.c ****           struct etharp_q_entry *old;
1052:c:/Users/Black_Life/STM32Cube/Repository/STM32Cube_FW_F4_V1.26.2/Middlewares/Third_Party/LwIP/src/core/ipv4\etharp.c ****           old = arp_table[i].q;
1053:c:/Users/Black_Life/STM32Cube/Repository/STM32Cube_FW_F4_V1.26.2/Middlewares/Third_Party/LwIP/src/core/ipv4\etharp.c ****           arp_table[i].q = arp_table[i].q->next;
1054:c:/Users/Black_Life/STM32Cube/Repository/STM32Cube_FW_F4_V1.26.2/Middlewares/Third_Party/LwIP/src/core/ipv4\etharp.c ****           pbuf_free(old->p);
1055:c:/Users/Black_Life/STM32Cube/Repository/STM32Cube_FW_F4_V1.26.2/Middlewares/Third_Party/LwIP/src/core/ipv4\etharp.c ****           memp_free(MEMP_ARP_QUEUE, old);
1056:c:/Users/Black_Life/STM32Cube/Repository/STM32Cube_FW_F4_V1.26.2/Middlewares/Third_Party/LwIP/src/core/ipv4\etharp.c ****         }
1057:c:/Users/Black_Life/STM32Cube/Repository/STM32Cube_FW_F4_V1.26.2/Middlewares/Third_Party/LwIP/src/core/ipv4\etharp.c **** #endif
1058:c:/Users/Black_Life/STM32Cube/Repository/STM32Cube_FW_F4_V1.26.2/Middlewares/Third_Party/LwIP/src/core/ipv4\etharp.c ****         LWIP_DEBUGF(ETHARP_DEBUG | LWIP_DBG_TRACE, ("etharp_query: queued packet %p on ARP entry %"
1059:c:/Users/Black_Life/STM32Cube/Repository/STM32Cube_FW_F4_V1.26.2/Middlewares/Third_Party/LwIP/src/core/ipv4\etharp.c ****         result = ERR_OK;
1060:c:/Users/Black_Life/STM32Cube/Repository/STM32Cube_FW_F4_V1.26.2/Middlewares/Third_Party/LwIP/src/core/ipv4\etharp.c ****       } else {
1061:c:/Users/Black_Life/STM32Cube/Repository/STM32Cube_FW_F4_V1.26.2/Middlewares/Third_Party/LwIP/src/core/ipv4\etharp.c ****         /* the pool MEMP_ARP_QUEUE is empty */
1062:c:/Users/Black_Life/STM32Cube/Repository/STM32Cube_FW_F4_V1.26.2/Middlewares/Third_Party/LwIP/src/core/ipv4\etharp.c ****         pbuf_free(p);
1063:c:/Users/Black_Life/STM32Cube/Repository/STM32Cube_FW_F4_V1.26.2/Middlewares/Third_Party/LwIP/src/core/ipv4\etharp.c ****         LWIP_DEBUGF(ETHARP_DEBUG | LWIP_DBG_TRACE, ("etharp_query: could not queue a copy of PBUF_R
1064:c:/Users/Black_Life/STM32Cube/Repository/STM32Cube_FW_F4_V1.26.2/Middlewares/Third_Party/LwIP/src/core/ipv4\etharp.c ****         result = ERR_MEM;
1065:c:/Users/Black_Life/STM32Cube/Repository/STM32Cube_FW_F4_V1.26.2/Middlewares/Third_Party/LwIP/src/core/ipv4\etharp.c ****       }
1066:c:/Users/Black_Life/STM32Cube/Repository/STM32Cube_FW_F4_V1.26.2/Middlewares/Third_Party/LwIP/src/core/ipv4\etharp.c **** #else /* ARP_QUEUEING */
1067:c:/Users/Black_Life/STM32Cube/Repository/STM32Cube_FW_F4_V1.26.2/Middlewares/Third_Party/LwIP/src/core/ipv4\etharp.c ****       /* always queue one packet per ARP request only, freeing a previously queued packet */
1068:c:/Users/Black_Life/STM32Cube/Repository/STM32Cube_FW_F4_V1.26.2/Middlewares/Third_Party/LwIP/src/core/ipv4\etharp.c ****       if (arp_table[i].q != NULL) {
1069:c:/Users/Black_Life/STM32Cube/Repository/STM32Cube_FW_F4_V1.26.2/Middlewares/Third_Party/LwIP/src/core/ipv4\etharp.c ****         LWIP_DEBUGF(ETHARP_DEBUG | LWIP_DBG_TRACE, ("etharp_query: dropped previously queued packet
1070:c:/Users/Black_Life/STM32Cube/Repository/STM32Cube_FW_F4_V1.26.2/Middlewares/Third_Party/LwIP/src/core/ipv4\etharp.c ****         pbuf_free(arp_table[i].q);
1071:c:/Users/Black_Life/STM32Cube/Repository/STM32Cube_FW_F4_V1.26.2/Middlewares/Third_Party/LwIP/src/core/ipv4\etharp.c ****       }
1072:c:/Users/Black_Life/STM32Cube/Repository/STM32Cube_FW_F4_V1.26.2/Middlewares/Third_Party/LwIP/src/core/ipv4\etharp.c ****       arp_table[i].q = p;
1073:c:/Users/Black_Life/STM32Cube/Repository/STM32Cube_FW_F4_V1.26.2/Middlewares/Third_Party/LwIP/src/core/ipv4\etharp.c ****       result = ERR_OK;
1074:c:/Users/Black_Life/STM32Cube/Repository/STM32Cube_FW_F4_V1.26.2/Middlewares/Third_Party/LwIP/src/core/ipv4\etharp.c ****       LWIP_DEBUGF(ETHARP_DEBUG | LWIP_DBG_TRACE, ("etharp_query: queued packet %p on ARP entry %"U1
1075:c:/Users/Black_Life/STM32Cube/Repository/STM32Cube_FW_F4_V1.26.2/Middlewares/Third_Party/LwIP/src/core/ipv4\etharp.c **** #endif /* ARP_QUEUEING */
1076:c:/Users/Black_Life/STM32Cube/Repository/STM32Cube_FW_F4_V1.26.2/Middlewares/Third_Party/LwIP/src/core/ipv4\etharp.c ****     } else {
1077:c:/Users/Black_Life/STM32Cube/Repository/STM32Cube_FW_F4_V1.26.2/Middlewares/Third_Party/LwIP/src/core/ipv4\etharp.c ****       ETHARP_STATS_INC(etharp.memerr);
1078:c:/Users/Black_Life/STM32Cube/Repository/STM32Cube_FW_F4_V1.26.2/Middlewares/Third_Party/LwIP/src/core/ipv4\etharp.c ****       LWIP_DEBUGF(ETHARP_DEBUG | LWIP_DBG_TRACE, ("etharp_query: could not queue a copy of PBUF_REF
1079:c:/Users/Black_Life/STM32Cube/Repository/STM32Cube_FW_F4_V1.26.2/Middlewares/Third_Party/LwIP/src/core/ipv4\etharp.c ****       result = ERR_MEM;
1080:c:/Users/Black_Life/STM32Cube/Repository/STM32Cube_FW_F4_V1.26.2/Middlewares/Third_Party/LwIP/src/core/ipv4\etharp.c ****     }
1081:c:/Users/Black_Life/STM32Cube/Repository/STM32Cube_FW_F4_V1.26.2/Middlewares/Third_Party/LwIP/src/core/ipv4\etharp.c ****   }
1082:c:/Users/Black_Life/STM32Cube/Repository/STM32Cube_FW_F4_V1.26.2/Middlewares/Third_Party/LwIP/src/core/ipv4\etharp.c ****   return result;
1083:c:/Users/Black_Life/STM32Cube/Repository/STM32Cube_FW_F4_V1.26.2/Middlewares/Third_Party/LwIP/src/core/ipv4\etharp.c **** }
1084:c:/Users/Black_Life/STM32Cube/Repository/STM32Cube_FW_F4_V1.26.2/Middlewares/Third_Party/LwIP/src/core/ipv4\etharp.c **** 
1085:c:/Users/Black_Life/STM32Cube/Repository/STM32Cube_FW_F4_V1.26.2/Middlewares/Third_Party/LwIP/src/core/ipv4\etharp.c **** /**
1086:c:/Users/Black_Life/STM32Cube/Repository/STM32Cube_FW_F4_V1.26.2/Middlewares/Third_Party/LwIP/src/core/ipv4\etharp.c ****  * Send a raw ARP packet (opcode and all addresses can be modified)
1087:c:/Users/Black_Life/STM32Cube/Repository/STM32Cube_FW_F4_V1.26.2/Middlewares/Third_Party/LwIP/src/core/ipv4\etharp.c ****  *
1088:c:/Users/Black_Life/STM32Cube/Repository/STM32Cube_FW_F4_V1.26.2/Middlewares/Third_Party/LwIP/src/core/ipv4\etharp.c ****  * @param netif the lwip network interface on which to send the ARP packet
1089:c:/Users/Black_Life/STM32Cube/Repository/STM32Cube_FW_F4_V1.26.2/Middlewares/Third_Party/LwIP/src/core/ipv4\etharp.c ****  * @param ethsrc_addr the source MAC address for the ethernet header
1090:c:/Users/Black_Life/STM32Cube/Repository/STM32Cube_FW_F4_V1.26.2/Middlewares/Third_Party/LwIP/src/core/ipv4\etharp.c ****  * @param ethdst_addr the destination MAC address for the ethernet header
ARM GAS  C:\Users\BLACK_~1\AppData\Local\Temp\ccrhXwwe.s 			page 35


1091:c:/Users/Black_Life/STM32Cube/Repository/STM32Cube_FW_F4_V1.26.2/Middlewares/Third_Party/LwIP/src/core/ipv4\etharp.c ****  * @param hwsrc_addr the source MAC address for the ARP protocol header
1092:c:/Users/Black_Life/STM32Cube/Repository/STM32Cube_FW_F4_V1.26.2/Middlewares/Third_Party/LwIP/src/core/ipv4\etharp.c ****  * @param ipsrc_addr the source IP address for the ARP protocol header
1093:c:/Users/Black_Life/STM32Cube/Repository/STM32Cube_FW_F4_V1.26.2/Middlewares/Third_Party/LwIP/src/core/ipv4\etharp.c ****  * @param hwdst_addr the destination MAC address for the ARP protocol header
1094:c:/Users/Black_Life/STM32Cube/Repository/STM32Cube_FW_F4_V1.26.2/Middlewares/Third_Party/LwIP/src/core/ipv4\etharp.c ****  * @param ipdst_addr the destination IP address for the ARP protocol header
1095:c:/Users/Black_Life/STM32Cube/Repository/STM32Cube_FW_F4_V1.26.2/Middlewares/Third_Party/LwIP/src/core/ipv4\etharp.c ****  * @param opcode the type of the ARP packet
1096:c:/Users/Black_Life/STM32Cube/Repository/STM32Cube_FW_F4_V1.26.2/Middlewares/Third_Party/LwIP/src/core/ipv4\etharp.c ****  * @return ERR_OK if the ARP packet has been sent
1097:c:/Users/Black_Life/STM32Cube/Repository/STM32Cube_FW_F4_V1.26.2/Middlewares/Third_Party/LwIP/src/core/ipv4\etharp.c ****  *         ERR_MEM if the ARP packet couldn't be allocated
1098:c:/Users/Black_Life/STM32Cube/Repository/STM32Cube_FW_F4_V1.26.2/Middlewares/Third_Party/LwIP/src/core/ipv4\etharp.c ****  *         any other err_t on failure
1099:c:/Users/Black_Life/STM32Cube/Repository/STM32Cube_FW_F4_V1.26.2/Middlewares/Third_Party/LwIP/src/core/ipv4\etharp.c ****  */
1100:c:/Users/Black_Life/STM32Cube/Repository/STM32Cube_FW_F4_V1.26.2/Middlewares/Third_Party/LwIP/src/core/ipv4\etharp.c **** static err_t
1101:c:/Users/Black_Life/STM32Cube/Repository/STM32Cube_FW_F4_V1.26.2/Middlewares/Third_Party/LwIP/src/core/ipv4\etharp.c **** etharp_raw(struct netif *netif, const struct eth_addr *ethsrc_addr,
1102:c:/Users/Black_Life/STM32Cube/Repository/STM32Cube_FW_F4_V1.26.2/Middlewares/Third_Party/LwIP/src/core/ipv4\etharp.c ****            const struct eth_addr *ethdst_addr,
1103:c:/Users/Black_Life/STM32Cube/Repository/STM32Cube_FW_F4_V1.26.2/Middlewares/Third_Party/LwIP/src/core/ipv4\etharp.c ****            const struct eth_addr *hwsrc_addr, const ip4_addr_t *ipsrc_addr,
1104:c:/Users/Black_Life/STM32Cube/Repository/STM32Cube_FW_F4_V1.26.2/Middlewares/Third_Party/LwIP/src/core/ipv4\etharp.c ****            const struct eth_addr *hwdst_addr, const ip4_addr_t *ipdst_addr,
1105:c:/Users/Black_Life/STM32Cube/Repository/STM32Cube_FW_F4_V1.26.2/Middlewares/Third_Party/LwIP/src/core/ipv4\etharp.c ****            const u16_t opcode)
1106:c:/Users/Black_Life/STM32Cube/Repository/STM32Cube_FW_F4_V1.26.2/Middlewares/Third_Party/LwIP/src/core/ipv4\etharp.c **** {
 730              		.loc 1 1106 1 is_stmt 1 view -0
 731              		.cfi_startproc
 732              		@ args = 16, pretend = 0, frame = 0
 733              		@ frame_needed = 0, uses_anonymous_args = 0
 734              		.loc 1 1106 1 is_stmt 0 view .LVU203
 735 0000 2DE9F047 		push	{r4, r5, r6, r7, r8, r9, r10, lr}
 736              	.LCFI9:
 737              		.cfi_def_cfa_offset 32
 738              		.cfi_offset 4, -32
 739              		.cfi_offset 5, -28
 740              		.cfi_offset 6, -24
 741              		.cfi_offset 7, -20
 742              		.cfi_offset 8, -16
 743              		.cfi_offset 9, -12
 744              		.cfi_offset 10, -8
 745              		.cfi_offset 14, -4
 746 0004 82B0     		sub	sp, sp, #8
 747              	.LCFI10:
 748              		.cfi_def_cfa_offset 40
 749 0006 0F46     		mov	r7, r1
 750 0008 9046     		mov	r8, r2
 751 000a 1D46     		mov	r5, r3
 752 000c DDF82CA0 		ldr	r10, [sp, #44]
1107:c:/Users/Black_Life/STM32Cube/Repository/STM32Cube_FW_F4_V1.26.2/Middlewares/Third_Party/LwIP/src/core/ipv4\etharp.c ****   struct pbuf *p;
 753              		.loc 1 1107 3 is_stmt 1 view .LVU204
1108:c:/Users/Black_Life/STM32Cube/Repository/STM32Cube_FW_F4_V1.26.2/Middlewares/Third_Party/LwIP/src/core/ipv4\etharp.c ****   err_t result = ERR_OK;
 754              		.loc 1 1108 3 view .LVU205
 755              	.LVL67:
1109:c:/Users/Black_Life/STM32Cube/Repository/STM32Cube_FW_F4_V1.26.2/Middlewares/Third_Party/LwIP/src/core/ipv4\etharp.c ****   struct etharp_hdr *hdr;
 756              		.loc 1 1109 3 view .LVU206
1110:c:/Users/Black_Life/STM32Cube/Repository/STM32Cube_FW_F4_V1.26.2/Middlewares/Third_Party/LwIP/src/core/ipv4\etharp.c **** 
1111:c:/Users/Black_Life/STM32Cube/Repository/STM32Cube_FW_F4_V1.26.2/Middlewares/Third_Party/LwIP/src/core/ipv4\etharp.c ****   LWIP_ASSERT("netif != NULL", netif != NULL);
 757              		.loc 1 1111 3 view .LVU207
 758              		.loc 1 1111 3 view .LVU208
 759 0010 8146     		mov	r9, r0
 760 0012 0028     		cmp	r0, #0
 761 0014 42D0     		beq	.L64
 762              	.LVL68:
 763              	.L58:
 764              		.loc 1 1111 3 discriminator 3 view .LVU209
 765              		.loc 1 1111 3 discriminator 3 view .LVU210
ARM GAS  C:\Users\BLACK_~1\AppData\Local\Temp\ccrhXwwe.s 			page 36


1112:c:/Users/Black_Life/STM32Cube/Repository/STM32Cube_FW_F4_V1.26.2/Middlewares/Third_Party/LwIP/src/core/ipv4\etharp.c **** 
1113:c:/Users/Black_Life/STM32Cube/Repository/STM32Cube_FW_F4_V1.26.2/Middlewares/Third_Party/LwIP/src/core/ipv4\etharp.c ****   /* allocate a pbuf for the outgoing ARP request packet */
1114:c:/Users/Black_Life/STM32Cube/Repository/STM32Cube_FW_F4_V1.26.2/Middlewares/Third_Party/LwIP/src/core/ipv4\etharp.c ****   p = pbuf_alloc(PBUF_LINK, SIZEOF_ETHARP_HDR, PBUF_RAM);
 766              		.loc 1 1114 3 discriminator 3 view .LVU211
 767              		.loc 1 1114 7 is_stmt 0 discriminator 3 view .LVU212
 768 0016 4FF42072 		mov	r2, #640
 769 001a 1C21     		movs	r1, #28
 770 001c 0E20     		movs	r0, #14
 771 001e FFF7FEFF 		bl	pbuf_alloc
 772              	.LVL69:
1115:c:/Users/Black_Life/STM32Cube/Repository/STM32Cube_FW_F4_V1.26.2/Middlewares/Third_Party/LwIP/src/core/ipv4\etharp.c ****   /* could allocate a pbuf for an ARP request? */
1116:c:/Users/Black_Life/STM32Cube/Repository/STM32Cube_FW_F4_V1.26.2/Middlewares/Third_Party/LwIP/src/core/ipv4\etharp.c ****   if (p == NULL) {
 773              		.loc 1 1116 3 is_stmt 1 discriminator 3 view .LVU213
 774              		.loc 1 1116 6 is_stmt 0 discriminator 3 view .LVU214
 775 0022 0646     		mov	r6, r0
 776 0024 0028     		cmp	r0, #0
 777 0026 51D0     		beq	.L62
1117:c:/Users/Black_Life/STM32Cube/Repository/STM32Cube_FW_F4_V1.26.2/Middlewares/Third_Party/LwIP/src/core/ipv4\etharp.c ****     LWIP_DEBUGF(ETHARP_DEBUG | LWIP_DBG_TRACE | LWIP_DBG_LEVEL_SERIOUS,
1118:c:/Users/Black_Life/STM32Cube/Repository/STM32Cube_FW_F4_V1.26.2/Middlewares/Third_Party/LwIP/src/core/ipv4\etharp.c ****                 ("etharp_raw: could not allocate pbuf for ARP request.\n"));
1119:c:/Users/Black_Life/STM32Cube/Repository/STM32Cube_FW_F4_V1.26.2/Middlewares/Third_Party/LwIP/src/core/ipv4\etharp.c ****     ETHARP_STATS_INC(etharp.memerr);
1120:c:/Users/Black_Life/STM32Cube/Repository/STM32Cube_FW_F4_V1.26.2/Middlewares/Third_Party/LwIP/src/core/ipv4\etharp.c ****     return ERR_MEM;
1121:c:/Users/Black_Life/STM32Cube/Repository/STM32Cube_FW_F4_V1.26.2/Middlewares/Third_Party/LwIP/src/core/ipv4\etharp.c ****   }
1122:c:/Users/Black_Life/STM32Cube/Repository/STM32Cube_FW_F4_V1.26.2/Middlewares/Third_Party/LwIP/src/core/ipv4\etharp.c ****   LWIP_ASSERT("check that first pbuf can hold struct etharp_hdr",
 778              		.loc 1 1122 3 is_stmt 1 view .LVU215
 779              		.loc 1 1122 3 view .LVU216
 780 0028 4389     		ldrh	r3, [r0, #10]
 781 002a 1B2B     		cmp	r3, #27
 782 002c 3ED9     		bls	.L65
 783              	.LVL70:
 784              	.L60:
 785              		.loc 1 1122 3 discriminator 3 view .LVU217
 786              		.loc 1 1122 3 discriminator 3 view .LVU218
1123:c:/Users/Black_Life/STM32Cube/Repository/STM32Cube_FW_F4_V1.26.2/Middlewares/Third_Party/LwIP/src/core/ipv4\etharp.c ****               (p->len >= SIZEOF_ETHARP_HDR));
1124:c:/Users/Black_Life/STM32Cube/Repository/STM32Cube_FW_F4_V1.26.2/Middlewares/Third_Party/LwIP/src/core/ipv4\etharp.c **** 
1125:c:/Users/Black_Life/STM32Cube/Repository/STM32Cube_FW_F4_V1.26.2/Middlewares/Third_Party/LwIP/src/core/ipv4\etharp.c ****   hdr = (struct etharp_hdr *)p->payload;
 787              		.loc 1 1125 3 discriminator 3 view .LVU219
 788              		.loc 1 1125 7 is_stmt 0 discriminator 3 view .LVU220
 789 002e 7468     		ldr	r4, [r6, #4]
 790              	.LVL71:
1126:c:/Users/Black_Life/STM32Cube/Repository/STM32Cube_FW_F4_V1.26.2/Middlewares/Third_Party/LwIP/src/core/ipv4\etharp.c ****   LWIP_DEBUGF(ETHARP_DEBUG | LWIP_DBG_TRACE, ("etharp_raw: sending raw ARP packet.\n"));
 791              		.loc 1 1126 88 is_stmt 1 discriminator 3 view .LVU221
1127:c:/Users/Black_Life/STM32Cube/Repository/STM32Cube_FW_F4_V1.26.2/Middlewares/Third_Party/LwIP/src/core/ipv4\etharp.c ****   hdr->opcode = lwip_htons(opcode);
 792              		.loc 1 1127 3 discriminator 3 view .LVU222
 793              		.loc 1 1127 17 is_stmt 0 discriminator 3 view .LVU223
 794 0030 BDF83400 		ldrh	r0, [sp, #52]
 795 0034 FFF7FEFF 		bl	lwip_htons
 796              	.LVL72:
 797              		.loc 1 1127 15 discriminator 3 view .LVU224
 798 0038 E080     		strh	r0, [r4, #6]	@ unaligned
1128:c:/Users/Black_Life/STM32Cube/Repository/STM32Cube_FW_F4_V1.26.2/Middlewares/Third_Party/LwIP/src/core/ipv4\etharp.c **** 
1129:c:/Users/Black_Life/STM32Cube/Repository/STM32Cube_FW_F4_V1.26.2/Middlewares/Third_Party/LwIP/src/core/ipv4\etharp.c ****   LWIP_ASSERT("netif->hwaddr_len must be the same as ETH_HWADDR_LEN for etharp!",
 799              		.loc 1 1129 3 is_stmt 1 discriminator 3 view .LVU225
 800              		.loc 1 1129 3 discriminator 3 view .LVU226
 801 003a 99F83030 		ldrb	r3, [r9, #48]	@ zero_extendqisi2
 802 003e 062B     		cmp	r3, #6
 803 0040 3CD1     		bne	.L66
 804              	.L61:
ARM GAS  C:\Users\BLACK_~1\AppData\Local\Temp\ccrhXwwe.s 			page 37


 805              		.loc 1 1129 3 discriminator 3 view .LVU227
 806              		.loc 1 1129 3 discriminator 3 view .LVU228
1130:c:/Users/Black_Life/STM32Cube/Repository/STM32Cube_FW_F4_V1.26.2/Middlewares/Third_Party/LwIP/src/core/ipv4\etharp.c ****               (netif->hwaddr_len == ETH_HWADDR_LEN));
1131:c:/Users/Black_Life/STM32Cube/Repository/STM32Cube_FW_F4_V1.26.2/Middlewares/Third_Party/LwIP/src/core/ipv4\etharp.c **** 
1132:c:/Users/Black_Life/STM32Cube/Repository/STM32Cube_FW_F4_V1.26.2/Middlewares/Third_Party/LwIP/src/core/ipv4\etharp.c ****   /* Write the ARP MAC-Addresses */
1133:c:/Users/Black_Life/STM32Cube/Repository/STM32Cube_FW_F4_V1.26.2/Middlewares/Third_Party/LwIP/src/core/ipv4\etharp.c ****   SMEMCPY(&hdr->shwaddr, hwsrc_addr, ETH_HWADDR_LEN);
 807              		.loc 1 1133 3 discriminator 3 view .LVU229
 808 0042 2B68     		ldr	r3, [r5]	@ unaligned
 809 0044 A360     		str	r3, [r4, #8]	@ unaligned
 810 0046 AB88     		ldrh	r3, [r5, #4]	@ unaligned
 811 0048 A381     		strh	r3, [r4, #12]	@ unaligned
1134:c:/Users/Black_Life/STM32Cube/Repository/STM32Cube_FW_F4_V1.26.2/Middlewares/Third_Party/LwIP/src/core/ipv4\etharp.c ****   SMEMCPY(&hdr->dhwaddr, hwdst_addr, ETH_HWADDR_LEN);
 812              		.loc 1 1134 3 discriminator 3 view .LVU230
 813 004a DAF80030 		ldr	r3, [r10]	@ unaligned
 814 004e C4F81230 		str	r3, [r4, #18]	@ unaligned
 815 0052 BAF80430 		ldrh	r3, [r10, #4]	@ unaligned
 816 0056 E382     		strh	r3, [r4, #22]	@ unaligned
1135:c:/Users/Black_Life/STM32Cube/Repository/STM32Cube_FW_F4_V1.26.2/Middlewares/Third_Party/LwIP/src/core/ipv4\etharp.c ****   /* Copy struct ip4_addr_wordaligned to aligned ip4_addr, to support compilers without
1136:c:/Users/Black_Life/STM32Cube/Repository/STM32Cube_FW_F4_V1.26.2/Middlewares/Third_Party/LwIP/src/core/ipv4\etharp.c ****    * structure packing. */
1137:c:/Users/Black_Life/STM32Cube/Repository/STM32Cube_FW_F4_V1.26.2/Middlewares/Third_Party/LwIP/src/core/ipv4\etharp.c ****   IPADDR_WORDALIGNED_COPY_FROM_IP4_ADDR_T(&hdr->sipaddr, ipsrc_addr);
 817              		.loc 1 1137 3 discriminator 3 view .LVU231
 818 0058 0A9B     		ldr	r3, [sp, #40]
 819 005a 1B68     		ldr	r3, [r3]	@ unaligned
 820 005c C4F80E30 		str	r3, [r4, #14]	@ unaligned
1138:c:/Users/Black_Life/STM32Cube/Repository/STM32Cube_FW_F4_V1.26.2/Middlewares/Third_Party/LwIP/src/core/ipv4\etharp.c ****   IPADDR_WORDALIGNED_COPY_FROM_IP4_ADDR_T(&hdr->dipaddr, ipdst_addr);
 821              		.loc 1 1138 3 discriminator 3 view .LVU232
 822 0060 0C9B     		ldr	r3, [sp, #48]
 823 0062 1B68     		ldr	r3, [r3]	@ unaligned
 824 0064 A361     		str	r3, [r4, #24]	@ unaligned
1139:c:/Users/Black_Life/STM32Cube/Repository/STM32Cube_FW_F4_V1.26.2/Middlewares/Third_Party/LwIP/src/core/ipv4\etharp.c **** 
1140:c:/Users/Black_Life/STM32Cube/Repository/STM32Cube_FW_F4_V1.26.2/Middlewares/Third_Party/LwIP/src/core/ipv4\etharp.c ****   hdr->hwtype = PP_HTONS(LWIP_IANA_HWTYPE_ETHERNET);
 825              		.loc 1 1140 3 discriminator 3 view .LVU233
 826              		.loc 1 1140 15 is_stmt 0 discriminator 3 view .LVU234
 827 0066 0025     		movs	r5, #0
 828              	.LVL73:
 829              		.loc 1 1140 15 discriminator 3 view .LVU235
 830 0068 2570     		strb	r5, [r4]
 831 006a 0123     		movs	r3, #1
 832 006c 6370     		strb	r3, [r4, #1]
1141:c:/Users/Black_Life/STM32Cube/Repository/STM32Cube_FW_F4_V1.26.2/Middlewares/Third_Party/LwIP/src/core/ipv4\etharp.c ****   hdr->proto = PP_HTONS(ETHTYPE_IP);
 833              		.loc 1 1141 3 is_stmt 1 discriminator 3 view .LVU236
 834              		.loc 1 1141 14 is_stmt 0 discriminator 3 view .LVU237
 835 006e 0823     		movs	r3, #8
 836 0070 A370     		strb	r3, [r4, #2]
 837 0072 E570     		strb	r5, [r4, #3]
1142:c:/Users/Black_Life/STM32Cube/Repository/STM32Cube_FW_F4_V1.26.2/Middlewares/Third_Party/LwIP/src/core/ipv4\etharp.c ****   /* set hwlen and protolen */
1143:c:/Users/Black_Life/STM32Cube/Repository/STM32Cube_FW_F4_V1.26.2/Middlewares/Third_Party/LwIP/src/core/ipv4\etharp.c ****   hdr->hwlen = ETH_HWADDR_LEN;
 838              		.loc 1 1143 3 is_stmt 1 discriminator 3 view .LVU238
 839              		.loc 1 1143 14 is_stmt 0 discriminator 3 view .LVU239
 840 0074 0623     		movs	r3, #6
 841 0076 2371     		strb	r3, [r4, #4]
1144:c:/Users/Black_Life/STM32Cube/Repository/STM32Cube_FW_F4_V1.26.2/Middlewares/Third_Party/LwIP/src/core/ipv4\etharp.c ****   hdr->protolen = sizeof(ip4_addr_t);
 842              		.loc 1 1144 3 is_stmt 1 discriminator 3 view .LVU240
 843              		.loc 1 1144 17 is_stmt 0 discriminator 3 view .LVU241
 844 0078 0423     		movs	r3, #4
 845 007a 6371     		strb	r3, [r4, #5]
1145:c:/Users/Black_Life/STM32Cube/Repository/STM32Cube_FW_F4_V1.26.2/Middlewares/Third_Party/LwIP/src/core/ipv4\etharp.c **** 
ARM GAS  C:\Users\BLACK_~1\AppData\Local\Temp\ccrhXwwe.s 			page 38


1146:c:/Users/Black_Life/STM32Cube/Repository/STM32Cube_FW_F4_V1.26.2/Middlewares/Third_Party/LwIP/src/core/ipv4\etharp.c ****   /* send ARP query */
1147:c:/Users/Black_Life/STM32Cube/Repository/STM32Cube_FW_F4_V1.26.2/Middlewares/Third_Party/LwIP/src/core/ipv4\etharp.c **** #if LWIP_AUTOIP
1148:c:/Users/Black_Life/STM32Cube/Repository/STM32Cube_FW_F4_V1.26.2/Middlewares/Third_Party/LwIP/src/core/ipv4\etharp.c ****   /* If we are using Link-Local, all ARP packets that contain a Link-Local
1149:c:/Users/Black_Life/STM32Cube/Repository/STM32Cube_FW_F4_V1.26.2/Middlewares/Third_Party/LwIP/src/core/ipv4\etharp.c ****    * 'sender IP address' MUST be sent using link-layer broadcast instead of
1150:c:/Users/Black_Life/STM32Cube/Repository/STM32Cube_FW_F4_V1.26.2/Middlewares/Third_Party/LwIP/src/core/ipv4\etharp.c ****    * link-layer unicast. (See RFC3927 Section 2.5, last paragraph) */
1151:c:/Users/Black_Life/STM32Cube/Repository/STM32Cube_FW_F4_V1.26.2/Middlewares/Third_Party/LwIP/src/core/ipv4\etharp.c ****   if (ip4_addr_islinklocal(ipsrc_addr)) {
1152:c:/Users/Black_Life/STM32Cube/Repository/STM32Cube_FW_F4_V1.26.2/Middlewares/Third_Party/LwIP/src/core/ipv4\etharp.c ****     ethernet_output(netif, p, ethsrc_addr, &ethbroadcast, ETHTYPE_ARP);
1153:c:/Users/Black_Life/STM32Cube/Repository/STM32Cube_FW_F4_V1.26.2/Middlewares/Third_Party/LwIP/src/core/ipv4\etharp.c ****   } else
1154:c:/Users/Black_Life/STM32Cube/Repository/STM32Cube_FW_F4_V1.26.2/Middlewares/Third_Party/LwIP/src/core/ipv4\etharp.c **** #endif /* LWIP_AUTOIP */
1155:c:/Users/Black_Life/STM32Cube/Repository/STM32Cube_FW_F4_V1.26.2/Middlewares/Third_Party/LwIP/src/core/ipv4\etharp.c ****   {
1156:c:/Users/Black_Life/STM32Cube/Repository/STM32Cube_FW_F4_V1.26.2/Middlewares/Third_Party/LwIP/src/core/ipv4\etharp.c ****     ethernet_output(netif, p, ethsrc_addr, ethdst_addr, ETHTYPE_ARP);
 846              		.loc 1 1156 5 is_stmt 1 discriminator 3 view .LVU242
 847 007c 40F60603 		movw	r3, #2054
 848 0080 0093     		str	r3, [sp]
 849 0082 4346     		mov	r3, r8
 850 0084 3A46     		mov	r2, r7
 851 0086 3146     		mov	r1, r6
 852 0088 4846     		mov	r0, r9
 853 008a FFF7FEFF 		bl	ethernet_output
 854              	.LVL74:
1157:c:/Users/Black_Life/STM32Cube/Repository/STM32Cube_FW_F4_V1.26.2/Middlewares/Third_Party/LwIP/src/core/ipv4\etharp.c ****   }
1158:c:/Users/Black_Life/STM32Cube/Repository/STM32Cube_FW_F4_V1.26.2/Middlewares/Third_Party/LwIP/src/core/ipv4\etharp.c **** 
1159:c:/Users/Black_Life/STM32Cube/Repository/STM32Cube_FW_F4_V1.26.2/Middlewares/Third_Party/LwIP/src/core/ipv4\etharp.c ****   ETHARP_STATS_INC(etharp.xmit);
 855              		.loc 1 1159 32 discriminator 3 view .LVU243
1160:c:/Users/Black_Life/STM32Cube/Repository/STM32Cube_FW_F4_V1.26.2/Middlewares/Third_Party/LwIP/src/core/ipv4\etharp.c ****   /* free ARP query packet */
1161:c:/Users/Black_Life/STM32Cube/Repository/STM32Cube_FW_F4_V1.26.2/Middlewares/Third_Party/LwIP/src/core/ipv4\etharp.c ****   pbuf_free(p);
 856              		.loc 1 1161 3 discriminator 3 view .LVU244
 857 008e 3046     		mov	r0, r6
 858 0090 FFF7FEFF 		bl	pbuf_free
 859              	.LVL75:
1162:c:/Users/Black_Life/STM32Cube/Repository/STM32Cube_FW_F4_V1.26.2/Middlewares/Third_Party/LwIP/src/core/ipv4\etharp.c ****   p = NULL;
 860              		.loc 1 1162 3 discriminator 3 view .LVU245
1163:c:/Users/Black_Life/STM32Cube/Repository/STM32Cube_FW_F4_V1.26.2/Middlewares/Third_Party/LwIP/src/core/ipv4\etharp.c ****   /* could not allocate pbuf for ARP request */
1164:c:/Users/Black_Life/STM32Cube/Repository/STM32Cube_FW_F4_V1.26.2/Middlewares/Third_Party/LwIP/src/core/ipv4\etharp.c **** 
1165:c:/Users/Black_Life/STM32Cube/Repository/STM32Cube_FW_F4_V1.26.2/Middlewares/Third_Party/LwIP/src/core/ipv4\etharp.c ****   return result;
 861              		.loc 1 1165 3 discriminator 3 view .LVU246
 862              		.loc 1 1165 10 is_stmt 0 discriminator 3 view .LVU247
 863 0094 2846     		mov	r0, r5
 864              	.LVL76:
 865              	.L59:
1166:c:/Users/Black_Life/STM32Cube/Repository/STM32Cube_FW_F4_V1.26.2/Middlewares/Third_Party/LwIP/src/core/ipv4\etharp.c **** }
 866              		.loc 1 1166 1 view .LVU248
 867 0096 02B0     		add	sp, sp, #8
 868              	.LCFI11:
 869              		.cfi_remember_state
 870              		.cfi_def_cfa_offset 32
 871              		@ sp needed
 872 0098 BDE8F087 		pop	{r4, r5, r6, r7, r8, r9, r10, pc}
 873              	.LVL77:
 874              	.L64:
 875              	.LCFI12:
 876              		.cfi_restore_state
1111:c:/Users/Black_Life/STM32Cube/Repository/STM32Cube_FW_F4_V1.26.2/Middlewares/Third_Party/LwIP/src/core/ipv4\etharp.c **** 
 877              		.loc 1 1111 3 is_stmt 1 discriminator 1 view .LVU249
1111:c:/Users/Black_Life/STM32Cube/Repository/STM32Cube_FW_F4_V1.26.2/Middlewares/Third_Party/LwIP/src/core/ipv4\etharp.c **** 
 878              		.loc 1 1111 3 discriminator 1 view .LVU250
 879 009c 0D4B     		ldr	r3, .L67
ARM GAS  C:\Users\BLACK_~1\AppData\Local\Temp\ccrhXwwe.s 			page 39


 880              	.LVL78:
1111:c:/Users/Black_Life/STM32Cube/Repository/STM32Cube_FW_F4_V1.26.2/Middlewares/Third_Party/LwIP/src/core/ipv4\etharp.c **** 
 881              		.loc 1 1111 3 is_stmt 0 discriminator 1 view .LVU251
 882 009e 40F25742 		movw	r2, #1111
 883              	.LVL79:
1111:c:/Users/Black_Life/STM32Cube/Repository/STM32Cube_FW_F4_V1.26.2/Middlewares/Third_Party/LwIP/src/core/ipv4\etharp.c **** 
 884              		.loc 1 1111 3 discriminator 1 view .LVU252
 885 00a2 0D49     		ldr	r1, .L67+4
 886              	.LVL80:
1111:c:/Users/Black_Life/STM32Cube/Repository/STM32Cube_FW_F4_V1.26.2/Middlewares/Third_Party/LwIP/src/core/ipv4\etharp.c **** 
 887              		.loc 1 1111 3 discriminator 1 view .LVU253
 888 00a4 0D48     		ldr	r0, .L67+8
 889              	.LVL81:
1111:c:/Users/Black_Life/STM32Cube/Repository/STM32Cube_FW_F4_V1.26.2/Middlewares/Third_Party/LwIP/src/core/ipv4\etharp.c **** 
 890              		.loc 1 1111 3 discriminator 1 view .LVU254
 891 00a6 FFF7FEFF 		bl	printf
 892              	.LVL82:
 893 00aa B4E7     		b	.L58
 894              	.LVL83:
 895              	.L65:
1122:c:/Users/Black_Life/STM32Cube/Repository/STM32Cube_FW_F4_V1.26.2/Middlewares/Third_Party/LwIP/src/core/ipv4\etharp.c ****               (p->len >= SIZEOF_ETHARP_HDR));
 896              		.loc 1 1122 3 is_stmt 1 discriminator 1 view .LVU255
1122:c:/Users/Black_Life/STM32Cube/Repository/STM32Cube_FW_F4_V1.26.2/Middlewares/Third_Party/LwIP/src/core/ipv4\etharp.c ****               (p->len >= SIZEOF_ETHARP_HDR));
 897              		.loc 1 1122 3 discriminator 1 view .LVU256
 898 00ac 094B     		ldr	r3, .L67
 899 00ae 40F26242 		movw	r2, #1122
 900 00b2 0B49     		ldr	r1, .L67+12
 901 00b4 0948     		ldr	r0, .L67+8
 902              	.LVL84:
1122:c:/Users/Black_Life/STM32Cube/Repository/STM32Cube_FW_F4_V1.26.2/Middlewares/Third_Party/LwIP/src/core/ipv4\etharp.c ****               (p->len >= SIZEOF_ETHARP_HDR));
 903              		.loc 1 1122 3 is_stmt 0 discriminator 1 view .LVU257
 904 00b6 FFF7FEFF 		bl	printf
 905              	.LVL85:
 906 00ba B8E7     		b	.L60
 907              	.LVL86:
 908              	.L66:
1129:c:/Users/Black_Life/STM32Cube/Repository/STM32Cube_FW_F4_V1.26.2/Middlewares/Third_Party/LwIP/src/core/ipv4\etharp.c ****               (netif->hwaddr_len == ETH_HWADDR_LEN));
 909              		.loc 1 1129 3 is_stmt 1 discriminator 1 view .LVU258
1129:c:/Users/Black_Life/STM32Cube/Repository/STM32Cube_FW_F4_V1.26.2/Middlewares/Third_Party/LwIP/src/core/ipv4\etharp.c ****               (netif->hwaddr_len == ETH_HWADDR_LEN));
 910              		.loc 1 1129 3 discriminator 1 view .LVU259
 911 00bc 054B     		ldr	r3, .L67
 912 00be 40F26942 		movw	r2, #1129
 913 00c2 0849     		ldr	r1, .L67+16
 914 00c4 0548     		ldr	r0, .L67+8
 915 00c6 FFF7FEFF 		bl	printf
 916              	.LVL87:
 917 00ca BAE7     		b	.L61
 918              	.LVL88:
 919              	.L62:
1120:c:/Users/Black_Life/STM32Cube/Repository/STM32Cube_FW_F4_V1.26.2/Middlewares/Third_Party/LwIP/src/core/ipv4\etharp.c ****   }
 920              		.loc 1 1120 12 is_stmt 0 view .LVU260
 921 00cc 4FF0FF30 		mov	r0, #-1
 922              	.LVL89:
1120:c:/Users/Black_Life/STM32Cube/Repository/STM32Cube_FW_F4_V1.26.2/Middlewares/Third_Party/LwIP/src/core/ipv4\etharp.c ****   }
 923              		.loc 1 1120 12 view .LVU261
 924 00d0 E1E7     		b	.L59
 925              	.L68:
ARM GAS  C:\Users\BLACK_~1\AppData\Local\Temp\ccrhXwwe.s 			page 40


 926 00d2 00BF     		.align	2
 927              	.L67:
 928 00d4 00000000 		.word	.LC0
 929 00d8 00000000 		.word	.LC6
 930 00dc 90000000 		.word	.LC2
 931 00e0 10000000 		.word	.LC7
 932 00e4 44000000 		.word	.LC8
 933              		.cfi_endproc
 934              	.LFE167:
 936              		.section	.text.etharp_request_dst,"ax",%progbits
 937              		.align	1
 938              		.syntax unified
 939              		.thumb
 940              		.thumb_func
 942              	etharp_request_dst:
 943              	.LVL90:
 944              	.LFB168:
1167:c:/Users/Black_Life/STM32Cube/Repository/STM32Cube_FW_F4_V1.26.2/Middlewares/Third_Party/LwIP/src/core/ipv4\etharp.c **** 
1168:c:/Users/Black_Life/STM32Cube/Repository/STM32Cube_FW_F4_V1.26.2/Middlewares/Third_Party/LwIP/src/core/ipv4\etharp.c **** /**
1169:c:/Users/Black_Life/STM32Cube/Repository/STM32Cube_FW_F4_V1.26.2/Middlewares/Third_Party/LwIP/src/core/ipv4\etharp.c ****  * Send an ARP request packet asking for ipaddr to a specific eth address.
1170:c:/Users/Black_Life/STM32Cube/Repository/STM32Cube_FW_F4_V1.26.2/Middlewares/Third_Party/LwIP/src/core/ipv4\etharp.c ****  * Used to send unicast request to refresh the ARP table just before an entry
1171:c:/Users/Black_Life/STM32Cube/Repository/STM32Cube_FW_F4_V1.26.2/Middlewares/Third_Party/LwIP/src/core/ipv4\etharp.c ****  * times out
1172:c:/Users/Black_Life/STM32Cube/Repository/STM32Cube_FW_F4_V1.26.2/Middlewares/Third_Party/LwIP/src/core/ipv4\etharp.c ****  *
1173:c:/Users/Black_Life/STM32Cube/Repository/STM32Cube_FW_F4_V1.26.2/Middlewares/Third_Party/LwIP/src/core/ipv4\etharp.c ****  * @param netif the lwip network interface on which to send the request
1174:c:/Users/Black_Life/STM32Cube/Repository/STM32Cube_FW_F4_V1.26.2/Middlewares/Third_Party/LwIP/src/core/ipv4\etharp.c ****  * @param ipaddr the IP address for which to ask
1175:c:/Users/Black_Life/STM32Cube/Repository/STM32Cube_FW_F4_V1.26.2/Middlewares/Third_Party/LwIP/src/core/ipv4\etharp.c ****  * @param hw_dst_addr the ethernet address to send this packet to
1176:c:/Users/Black_Life/STM32Cube/Repository/STM32Cube_FW_F4_V1.26.2/Middlewares/Third_Party/LwIP/src/core/ipv4\etharp.c ****  * @return ERR_OK if the request has been sent
1177:c:/Users/Black_Life/STM32Cube/Repository/STM32Cube_FW_F4_V1.26.2/Middlewares/Third_Party/LwIP/src/core/ipv4\etharp.c ****  *         ERR_MEM if the ARP packet couldn't be allocated
1178:c:/Users/Black_Life/STM32Cube/Repository/STM32Cube_FW_F4_V1.26.2/Middlewares/Third_Party/LwIP/src/core/ipv4\etharp.c ****  *         any other err_t on failure
1179:c:/Users/Black_Life/STM32Cube/Repository/STM32Cube_FW_F4_V1.26.2/Middlewares/Third_Party/LwIP/src/core/ipv4\etharp.c ****  */
1180:c:/Users/Black_Life/STM32Cube/Repository/STM32Cube_FW_F4_V1.26.2/Middlewares/Third_Party/LwIP/src/core/ipv4\etharp.c **** static err_t
1181:c:/Users/Black_Life/STM32Cube/Repository/STM32Cube_FW_F4_V1.26.2/Middlewares/Third_Party/LwIP/src/core/ipv4\etharp.c **** etharp_request_dst(struct netif *netif, const ip4_addr_t *ipaddr, const struct eth_addr *hw_dst_add
1182:c:/Users/Black_Life/STM32Cube/Repository/STM32Cube_FW_F4_V1.26.2/Middlewares/Third_Party/LwIP/src/core/ipv4\etharp.c **** {
 945              		.loc 1 1182 1 is_stmt 1 view -0
 946              		.cfi_startproc
 947              		@ args = 0, pretend = 0, frame = 0
 948              		@ frame_needed = 0, uses_anonymous_args = 0
 949              		.loc 1 1182 1 is_stmt 0 view .LVU263
 950 0000 30B5     		push	{r4, r5, lr}
 951              	.LCFI13:
 952              		.cfi_def_cfa_offset 12
 953              		.cfi_offset 4, -12
 954              		.cfi_offset 5, -8
 955              		.cfi_offset 14, -4
 956 0002 85B0     		sub	sp, sp, #20
 957              	.LCFI14:
 958              		.cfi_def_cfa_offset 32
1183:c:/Users/Black_Life/STM32Cube/Repository/STM32Cube_FW_F4_V1.26.2/Middlewares/Third_Party/LwIP/src/core/ipv4\etharp.c ****   return etharp_raw(netif, (struct eth_addr *)netif->hwaddr, hw_dst_addr,
 959              		.loc 1 1183 3 is_stmt 1 view .LVU264
 960              		.loc 1 1183 47 is_stmt 0 view .LVU265
 961 0004 00F12A03 		add	r3, r0, #42
1184:c:/Users/Black_Life/STM32Cube/Repository/STM32Cube_FW_F4_V1.26.2/Middlewares/Third_Party/LwIP/src/core/ipv4\etharp.c ****                     (struct eth_addr *)netif->hwaddr, netif_ip4_addr(netif), &ethzero,
 962              		.loc 1 1184 55 view .LVU266
 963 0008 041D     		adds	r4, r0, #4
1183:c:/Users/Black_Life/STM32Cube/Repository/STM32Cube_FW_F4_V1.26.2/Middlewares/Third_Party/LwIP/src/core/ipv4\etharp.c ****   return etharp_raw(netif, (struct eth_addr *)netif->hwaddr, hw_dst_addr,
 964              		.loc 1 1183 10 view .LVU267
 965 000a 0125     		movs	r5, #1
ARM GAS  C:\Users\BLACK_~1\AppData\Local\Temp\ccrhXwwe.s 			page 41


 966 000c 0395     		str	r5, [sp, #12]
 967 000e 0291     		str	r1, [sp, #8]
 968 0010 0349     		ldr	r1, .L71
 969              	.LVL91:
1183:c:/Users/Black_Life/STM32Cube/Repository/STM32Cube_FW_F4_V1.26.2/Middlewares/Third_Party/LwIP/src/core/ipv4\etharp.c ****   return etharp_raw(netif, (struct eth_addr *)netif->hwaddr, hw_dst_addr,
 970              		.loc 1 1183 10 view .LVU268
 971 0012 0191     		str	r1, [sp, #4]
 972 0014 0094     		str	r4, [sp]
 973 0016 1946     		mov	r1, r3
 974 0018 FFF7FEFF 		bl	etharp_raw
 975              	.LVL92:
1185:c:/Users/Black_Life/STM32Cube/Repository/STM32Cube_FW_F4_V1.26.2/Middlewares/Third_Party/LwIP/src/core/ipv4\etharp.c ****                     ipaddr, ARP_REQUEST);
1186:c:/Users/Black_Life/STM32Cube/Repository/STM32Cube_FW_F4_V1.26.2/Middlewares/Third_Party/LwIP/src/core/ipv4\etharp.c **** }
 976              		.loc 1 1186 1 view .LVU269
 977 001c 05B0     		add	sp, sp, #20
 978              	.LCFI15:
 979              		.cfi_def_cfa_offset 12
 980              		@ sp needed
 981 001e 30BD     		pop	{r4, r5, pc}
 982              	.LVL93:
 983              	.L72:
 984              		.loc 1 1186 1 view .LVU270
 985              		.align	2
 986              	.L71:
 987 0020 00000000 		.word	ethzero
 988              		.cfi_endproc
 989              	.LFE168:
 991              		.section	.text.etharp_cleanup_netif,"ax",%progbits
 992              		.align	1
 993              		.global	etharp_cleanup_netif
 994              		.syntax unified
 995              		.thumb
 996              		.thumb_func
 998              	etharp_cleanup_netif:
 999              	.LVL94:
 1000              	.LFB160:
 560:c:/Users/Black_Life/STM32Cube/Repository/STM32Cube_FW_F4_V1.26.2/Middlewares/Third_Party/LwIP/src/core/ipv4\etharp.c ****   int i;
 1001              		.loc 1 560 1 is_stmt 1 view -0
 1002              		.cfi_startproc
 1003              		@ args = 0, pretend = 0, frame = 0
 1004              		@ frame_needed = 0, uses_anonymous_args = 0
 560:c:/Users/Black_Life/STM32Cube/Repository/STM32Cube_FW_F4_V1.26.2/Middlewares/Third_Party/LwIP/src/core/ipv4\etharp.c ****   int i;
 1005              		.loc 1 560 1 is_stmt 0 view .LVU272
 1006 0000 38B5     		push	{r3, r4, r5, lr}
 1007              	.LCFI16:
 1008              		.cfi_def_cfa_offset 16
 1009              		.cfi_offset 3, -16
 1010              		.cfi_offset 4, -12
 1011              		.cfi_offset 5, -8
 1012              		.cfi_offset 14, -4
 1013 0002 0546     		mov	r5, r0
 561:c:/Users/Black_Life/STM32Cube/Repository/STM32Cube_FW_F4_V1.26.2/Middlewares/Third_Party/LwIP/src/core/ipv4\etharp.c **** 
 1014              		.loc 1 561 3 is_stmt 1 view .LVU273
 563:c:/Users/Black_Life/STM32Cube/Repository/STM32Cube_FW_F4_V1.26.2/Middlewares/Third_Party/LwIP/src/core/ipv4\etharp.c ****     u8_t state = arp_table[i].state;
 1015              		.loc 1 563 3 view .LVU274
 1016              	.LVL95:
 563:c:/Users/Black_Life/STM32Cube/Repository/STM32Cube_FW_F4_V1.26.2/Middlewares/Third_Party/LwIP/src/core/ipv4\etharp.c ****     u8_t state = arp_table[i].state;
ARM GAS  C:\Users\BLACK_~1\AppData\Local\Temp\ccrhXwwe.s 			page 42


 1017              		.loc 1 563 10 is_stmt 0 view .LVU275
 1018 0004 0024     		movs	r4, #0
 563:c:/Users/Black_Life/STM32Cube/Repository/STM32Cube_FW_F4_V1.26.2/Middlewares/Third_Party/LwIP/src/core/ipv4\etharp.c ****     u8_t state = arp_table[i].state;
 1019              		.loc 1 563 3 view .LVU276
 1020 0006 00E0     		b	.L74
 1021              	.LVL96:
 1022              	.L75:
 563:c:/Users/Black_Life/STM32Cube/Repository/STM32Cube_FW_F4_V1.26.2/Middlewares/Third_Party/LwIP/src/core/ipv4\etharp.c ****     u8_t state = arp_table[i].state;
 1023              		.loc 1 563 35 is_stmt 1 discriminator 2 view .LVU277
 1024 0008 0134     		adds	r4, r4, #1
 1025              	.LVL97:
 1026              	.L74:
 563:c:/Users/Black_Life/STM32Cube/Repository/STM32Cube_FW_F4_V1.26.2/Middlewares/Third_Party/LwIP/src/core/ipv4\etharp.c ****     u8_t state = arp_table[i].state;
 1027              		.loc 1 563 15 discriminator 1 view .LVU278
 563:c:/Users/Black_Life/STM32Cube/Repository/STM32Cube_FW_F4_V1.26.2/Middlewares/Third_Party/LwIP/src/core/ipv4\etharp.c ****     u8_t state = arp_table[i].state;
 1028              		.loc 1 563 3 is_stmt 0 discriminator 1 view .LVU279
 1029 000a 092C     		cmp	r4, #9
 1030 000c 12DC     		bgt	.L78
 1031              	.LBB6:
 564:c:/Users/Black_Life/STM32Cube/Repository/STM32Cube_FW_F4_V1.26.2/Middlewares/Third_Party/LwIP/src/core/ipv4\etharp.c ****     if ((state != ETHARP_STATE_EMPTY) && (arp_table[i].netif == netif)) {
 1032              		.loc 1 564 5 is_stmt 1 view .LVU280
 564:c:/Users/Black_Life/STM32Cube/Repository/STM32Cube_FW_F4_V1.26.2/Middlewares/Third_Party/LwIP/src/core/ipv4\etharp.c ****     if ((state != ETHARP_STATE_EMPTY) && (arp_table[i].netif == netif)) {
 1033              		.loc 1 564 10 is_stmt 0 view .LVU281
 1034 000e 04EB4403 		add	r3, r4, r4, lsl #1
 1035 0012 094A     		ldr	r2, .L79
 1036 0014 02EBC303 		add	r3, r2, r3, lsl #3
 1037 0018 1B7D     		ldrb	r3, [r3, #20]	@ zero_extendqisi2
 1038              	.LVL98:
 565:c:/Users/Black_Life/STM32Cube/Repository/STM32Cube_FW_F4_V1.26.2/Middlewares/Third_Party/LwIP/src/core/ipv4\etharp.c ****       etharp_free_entry(i);
 1039              		.loc 1 565 5 is_stmt 1 view .LVU282
 565:c:/Users/Black_Life/STM32Cube/Repository/STM32Cube_FW_F4_V1.26.2/Middlewares/Third_Party/LwIP/src/core/ipv4\etharp.c ****       etharp_free_entry(i);
 1040              		.loc 1 565 8 is_stmt 0 view .LVU283
 1041 001a 002B     		cmp	r3, #0
 1042 001c F4D0     		beq	.L75
 565:c:/Users/Black_Life/STM32Cube/Repository/STM32Cube_FW_F4_V1.26.2/Middlewares/Third_Party/LwIP/src/core/ipv4\etharp.c ****       etharp_free_entry(i);
 1043              		.loc 1 565 55 discriminator 1 view .LVU284
 1044 001e 04EB4403 		add	r3, r4, r4, lsl #1
 1045              	.LVL99:
 565:c:/Users/Black_Life/STM32Cube/Repository/STM32Cube_FW_F4_V1.26.2/Middlewares/Third_Party/LwIP/src/core/ipv4\etharp.c ****       etharp_free_entry(i);
 1046              		.loc 1 565 55 discriminator 1 view .LVU285
 1047 0022 02EBC303 		add	r3, r2, r3, lsl #3
 1048              	.LVL100:
 565:c:/Users/Black_Life/STM32Cube/Repository/STM32Cube_FW_F4_V1.26.2/Middlewares/Third_Party/LwIP/src/core/ipv4\etharp.c ****       etharp_free_entry(i);
 1049              		.loc 1 565 55 discriminator 1 view .LVU286
 1050 0026 9B68     		ldr	r3, [r3, #8]
 1051              	.LVL101:
 565:c:/Users/Black_Life/STM32Cube/Repository/STM32Cube_FW_F4_V1.26.2/Middlewares/Third_Party/LwIP/src/core/ipv4\etharp.c ****       etharp_free_entry(i);
 1052              		.loc 1 565 39 discriminator 1 view .LVU287
 1053 0028 AB42     		cmp	r3, r5
 1054 002a EDD1     		bne	.L75
 566:c:/Users/Black_Life/STM32Cube/Repository/STM32Cube_FW_F4_V1.26.2/Middlewares/Third_Party/LwIP/src/core/ipv4\etharp.c ****     }
 1055              		.loc 1 566 7 is_stmt 1 view .LVU288
 1056 002c 2046     		mov	r0, r4
 1057 002e FFF7FEFF 		bl	etharp_free_entry
 1058              	.LVL102:
 566:c:/Users/Black_Life/STM32Cube/Repository/STM32Cube_FW_F4_V1.26.2/Middlewares/Third_Party/LwIP/src/core/ipv4\etharp.c ****     }
 1059              		.loc 1 566 7 is_stmt 0 view .LVU289
ARM GAS  C:\Users\BLACK_~1\AppData\Local\Temp\ccrhXwwe.s 			page 43


 1060 0032 E9E7     		b	.L75
 1061              	.L78:
 566:c:/Users/Black_Life/STM32Cube/Repository/STM32Cube_FW_F4_V1.26.2/Middlewares/Third_Party/LwIP/src/core/ipv4\etharp.c ****     }
 1062              		.loc 1 566 7 view .LVU290
 1063              	.LBE6:
 569:c:/Users/Black_Life/STM32Cube/Repository/STM32Cube_FW_F4_V1.26.2/Middlewares/Third_Party/LwIP/src/core/ipv4\etharp.c **** 
 1064              		.loc 1 569 1 view .LVU291
 1065 0034 38BD     		pop	{r3, r4, r5, pc}
 1066              	.LVL103:
 1067              	.L80:
 569:c:/Users/Black_Life/STM32Cube/Repository/STM32Cube_FW_F4_V1.26.2/Middlewares/Third_Party/LwIP/src/core/ipv4\etharp.c **** 
 1068              		.loc 1 569 1 view .LVU292
 1069 0036 00BF     		.align	2
 1070              	.L79:
 1071 0038 00000000 		.word	.LANCHOR0
 1072              		.cfi_endproc
 1073              	.LFE160:
 1075              		.section	.rodata.etharp_find_addr.str1.4,"aMS",%progbits,1
 1076              		.align	2
 1077              	.LC9:
 1078 0000 6574685F 		.ascii	"eth_ret != NULL && ip_ret != NULL\000"
 1078      72657420 
 1078      213D204E 
 1078      554C4C20 
 1078      26262069 
 1079              		.section	.text.etharp_find_addr,"ax",%progbits
 1080              		.align	1
 1081              		.global	etharp_find_addr
 1082              		.syntax unified
 1083              		.thumb
 1084              		.thumb_func
 1086              	etharp_find_addr:
 1087              	.LVL104:
 1088              	.LFB161:
 585:c:/Users/Black_Life/STM32Cube/Repository/STM32Cube_FW_F4_V1.26.2/Middlewares/Third_Party/LwIP/src/core/ipv4\etharp.c ****   s16_t i;
 1089              		.loc 1 585 1 is_stmt 1 view -0
 1090              		.cfi_startproc
 1091              		@ args = 0, pretend = 0, frame = 0
 1092              		@ frame_needed = 0, uses_anonymous_args = 0
 585:c:/Users/Black_Life/STM32Cube/Repository/STM32Cube_FW_F4_V1.26.2/Middlewares/Third_Party/LwIP/src/core/ipv4\etharp.c ****   s16_t i;
 1093              		.loc 1 585 1 is_stmt 0 view .LVU294
 1094 0000 F8B5     		push	{r3, r4, r5, r6, r7, lr}
 1095              	.LCFI17:
 1096              		.cfi_def_cfa_offset 24
 1097              		.cfi_offset 3, -24
 1098              		.cfi_offset 4, -20
 1099              		.cfi_offset 5, -16
 1100              		.cfi_offset 6, -12
 1101              		.cfi_offset 7, -8
 1102              		.cfi_offset 14, -4
 1103 0002 0746     		mov	r7, r0
 1104 0004 0E46     		mov	r6, r1
 1105 0006 1C46     		mov	r4, r3
 586:c:/Users/Black_Life/STM32Cube/Repository/STM32Cube_FW_F4_V1.26.2/Middlewares/Third_Party/LwIP/src/core/ipv4\etharp.c **** 
 1106              		.loc 1 586 3 is_stmt 1 view .LVU295
 588:c:/Users/Black_Life/STM32Cube/Repository/STM32Cube_FW_F4_V1.26.2/Middlewares/Third_Party/LwIP/src/core/ipv4\etharp.c ****               eth_ret != NULL && ip_ret != NULL);
 1107              		.loc 1 588 3 view .LVU296
ARM GAS  C:\Users\BLACK_~1\AppData\Local\Temp\ccrhXwwe.s 			page 44


 588:c:/Users/Black_Life/STM32Cube/Repository/STM32Cube_FW_F4_V1.26.2/Middlewares/Third_Party/LwIP/src/core/ipv4\etharp.c ****               eth_ret != NULL && ip_ret != NULL);
 1108              		.loc 1 588 3 view .LVU297
 1109 0008 1546     		mov	r5, r2
 1110 000a FAB1     		cbz	r2, .L82
 588:c:/Users/Black_Life/STM32Cube/Repository/STM32Cube_FW_F4_V1.26.2/Middlewares/Third_Party/LwIP/src/core/ipv4\etharp.c ****               eth_ret != NULL && ip_ret != NULL);
 1111              		.loc 1 588 3 is_stmt 0 discriminator 2 view .LVU298
 1112 000c F3B1     		cbz	r3, .L82
 1113              	.LVL105:
 1114              	.L83:
 588:c:/Users/Black_Life/STM32Cube/Repository/STM32Cube_FW_F4_V1.26.2/Middlewares/Third_Party/LwIP/src/core/ipv4\etharp.c ****               eth_ret != NULL && ip_ret != NULL);
 1115              		.loc 1 588 3 is_stmt 1 discriminator 5 view .LVU299
 588:c:/Users/Black_Life/STM32Cube/Repository/STM32Cube_FW_F4_V1.26.2/Middlewares/Third_Party/LwIP/src/core/ipv4\etharp.c ****               eth_ret != NULL && ip_ret != NULL);
 1116              		.loc 1 588 3 discriminator 5 view .LVU300
 591:c:/Users/Black_Life/STM32Cube/Repository/STM32Cube_FW_F4_V1.26.2/Middlewares/Third_Party/LwIP/src/core/ipv4\etharp.c **** 
 1117              		.loc 1 591 3 discriminator 5 view .LVU301
 593:c:/Users/Black_Life/STM32Cube/Repository/STM32Cube_FW_F4_V1.26.2/Middlewares/Third_Party/LwIP/src/core/ipv4\etharp.c ****   if ((i >= 0) && (arp_table[i].state >= ETHARP_STATE_STABLE)) {
 1118              		.loc 1 593 3 discriminator 5 view .LVU302
 593:c:/Users/Black_Life/STM32Cube/Repository/STM32Cube_FW_F4_V1.26.2/Middlewares/Third_Party/LwIP/src/core/ipv4\etharp.c ****   if ((i >= 0) && (arp_table[i].state >= ETHARP_STATE_STABLE)) {
 1119              		.loc 1 593 7 is_stmt 0 discriminator 5 view .LVU303
 1120 000e 3A46     		mov	r2, r7
 1121 0010 0221     		movs	r1, #2
 1122 0012 3046     		mov	r0, r6
 1123 0014 FFF7FEFF 		bl	etharp_find_entry
 1124              	.LVL106:
 594:c:/Users/Black_Life/STM32Cube/Repository/STM32Cube_FW_F4_V1.26.2/Middlewares/Third_Party/LwIP/src/core/ipv4\etharp.c ****     *eth_ret = &arp_table[i].ethaddr;
 1125              		.loc 1 594 3 is_stmt 1 discriminator 5 view .LVU304
 594:c:/Users/Black_Life/STM32Cube/Repository/STM32Cube_FW_F4_V1.26.2/Middlewares/Third_Party/LwIP/src/core/ipv4\etharp.c ****     *eth_ret = &arp_table[i].ethaddr;
 1126              		.loc 1 594 6 is_stmt 0 discriminator 5 view .LVU305
 1127 0018 021E     		subs	r2, r0, #0
 1128 001a 1FDB     		blt	.L85
 594:c:/Users/Black_Life/STM32Cube/Repository/STM32Cube_FW_F4_V1.26.2/Middlewares/Third_Party/LwIP/src/core/ipv4\etharp.c ****     *eth_ret = &arp_table[i].ethaddr;
 1129              		.loc 1 594 32 discriminator 1 view .LVU306
 1130 001c 1046     		mov	r0, r2
 1131              	.LVL107:
 594:c:/Users/Black_Life/STM32Cube/Repository/STM32Cube_FW_F4_V1.26.2/Middlewares/Third_Party/LwIP/src/core/ipv4\etharp.c ****     *eth_ret = &arp_table[i].ethaddr;
 1132              		.loc 1 594 32 discriminator 1 view .LVU307
 1133 001e 02EB4203 		add	r3, r2, r2, lsl #1
 1134 0022 1149     		ldr	r1, .L88
 1135 0024 01EBC303 		add	r3, r1, r3, lsl #3
 1136 0028 1B7D     		ldrb	r3, [r3, #20]	@ zero_extendqisi2
 594:c:/Users/Black_Life/STM32Cube/Repository/STM32Cube_FW_F4_V1.26.2/Middlewares/Third_Party/LwIP/src/core/ipv4\etharp.c ****     *eth_ret = &arp_table[i].ethaddr;
 1137              		.loc 1 594 16 discriminator 1 view .LVU308
 1138 002a 012B     		cmp	r3, #1
 1139 002c 19D9     		bls	.L86
 595:c:/Users/Black_Life/STM32Cube/Repository/STM32Cube_FW_F4_V1.26.2/Middlewares/Third_Party/LwIP/src/core/ipv4\etharp.c ****     *ip_ret = &arp_table[i].ipaddr;
 1140              		.loc 1 595 5 is_stmt 1 view .LVU309
 595:c:/Users/Black_Life/STM32Cube/Repository/STM32Cube_FW_F4_V1.26.2/Middlewares/Third_Party/LwIP/src/core/ipv4\etharp.c ****     *ip_ret = &arp_table[i].ipaddr;
 1141              		.loc 1 595 16 is_stmt 0 view .LVU310
 1142 002e 0B46     		mov	r3, r1
 1143 0030 02EB4201 		add	r1, r2, r2, lsl #1
 1144 0034 C900     		lsls	r1, r1, #3
 1145 0036 0831     		adds	r1, r1, #8
 1146 0038 1944     		add	r1, r1, r3
 1147 003a 0431     		adds	r1, r1, #4
 595:c:/Users/Black_Life/STM32Cube/Repository/STM32Cube_FW_F4_V1.26.2/Middlewares/Third_Party/LwIP/src/core/ipv4\etharp.c ****     *ip_ret = &arp_table[i].ipaddr;
 1148              		.loc 1 595 14 view .LVU311
 1149 003c 2960     		str	r1, [r5]
ARM GAS  C:\Users\BLACK_~1\AppData\Local\Temp\ccrhXwwe.s 			page 45


 596:c:/Users/Black_Life/STM32Cube/Repository/STM32Cube_FW_F4_V1.26.2/Middlewares/Third_Party/LwIP/src/core/ipv4\etharp.c ****     return i;
 1150              		.loc 1 596 5 is_stmt 1 view .LVU312
 596:c:/Users/Black_Life/STM32Cube/Repository/STM32Cube_FW_F4_V1.26.2/Middlewares/Third_Party/LwIP/src/core/ipv4\etharp.c ****     return i;
 1151              		.loc 1 596 15 is_stmt 0 view .LVU313
 1152 003e 02EB4202 		add	r2, r2, r2, lsl #1
 1153 0042 03EBC202 		add	r2, r3, r2, lsl #3
 1154 0046 0432     		adds	r2, r2, #4
 596:c:/Users/Black_Life/STM32Cube/Repository/STM32Cube_FW_F4_V1.26.2/Middlewares/Third_Party/LwIP/src/core/ipv4\etharp.c ****     return i;
 1155              		.loc 1 596 13 view .LVU314
 1156 0048 2260     		str	r2, [r4]
 597:c:/Users/Black_Life/STM32Cube/Repository/STM32Cube_FW_F4_V1.26.2/Middlewares/Third_Party/LwIP/src/core/ipv4\etharp.c ****   }
 1157              		.loc 1 597 5 is_stmt 1 view .LVU315
 1158              	.L81:
 600:c:/Users/Black_Life/STM32Cube/Repository/STM32Cube_FW_F4_V1.26.2/Middlewares/Third_Party/LwIP/src/core/ipv4\etharp.c **** 
 1159              		.loc 1 600 1 is_stmt 0 view .LVU316
 1160 004a F8BD     		pop	{r3, r4, r5, r6, r7, pc}
 1161              	.LVL108:
 1162              	.L82:
 588:c:/Users/Black_Life/STM32Cube/Repository/STM32Cube_FW_F4_V1.26.2/Middlewares/Third_Party/LwIP/src/core/ipv4\etharp.c ****               eth_ret != NULL && ip_ret != NULL);
 1163              		.loc 1 588 3 is_stmt 1 discriminator 3 view .LVU317
 588:c:/Users/Black_Life/STM32Cube/Repository/STM32Cube_FW_F4_V1.26.2/Middlewares/Third_Party/LwIP/src/core/ipv4\etharp.c ****               eth_ret != NULL && ip_ret != NULL);
 1164              		.loc 1 588 3 discriminator 3 view .LVU318
 1165 004c 074B     		ldr	r3, .L88+4
 1166              	.LVL109:
 588:c:/Users/Black_Life/STM32Cube/Repository/STM32Cube_FW_F4_V1.26.2/Middlewares/Third_Party/LwIP/src/core/ipv4\etharp.c ****               eth_ret != NULL && ip_ret != NULL);
 1167              		.loc 1 588 3 is_stmt 0 discriminator 3 view .LVU319
 1168 004e 4FF41372 		mov	r2, #588
 1169              	.LVL110:
 588:c:/Users/Black_Life/STM32Cube/Repository/STM32Cube_FW_F4_V1.26.2/Middlewares/Third_Party/LwIP/src/core/ipv4\etharp.c ****               eth_ret != NULL && ip_ret != NULL);
 1170              		.loc 1 588 3 discriminator 3 view .LVU320
 1171 0052 0749     		ldr	r1, .L88+8
 1172              	.LVL111:
 588:c:/Users/Black_Life/STM32Cube/Repository/STM32Cube_FW_F4_V1.26.2/Middlewares/Third_Party/LwIP/src/core/ipv4\etharp.c ****               eth_ret != NULL && ip_ret != NULL);
 1173              		.loc 1 588 3 discriminator 3 view .LVU321
 1174 0054 0748     		ldr	r0, .L88+12
 1175              	.LVL112:
 588:c:/Users/Black_Life/STM32Cube/Repository/STM32Cube_FW_F4_V1.26.2/Middlewares/Third_Party/LwIP/src/core/ipv4\etharp.c ****               eth_ret != NULL && ip_ret != NULL);
 1176              		.loc 1 588 3 discriminator 3 view .LVU322
 1177 0056 FFF7FEFF 		bl	printf
 1178              	.LVL113:
 1179 005a D8E7     		b	.L83
 1180              	.LVL114:
 1181              	.L85:
 599:c:/Users/Black_Life/STM32Cube/Repository/STM32Cube_FW_F4_V1.26.2/Middlewares/Third_Party/LwIP/src/core/ipv4\etharp.c **** }
 1182              		.loc 1 599 10 view .LVU323
 1183 005c 4FF0FF30 		mov	r0, #-1
 1184              	.LVL115:
 599:c:/Users/Black_Life/STM32Cube/Repository/STM32Cube_FW_F4_V1.26.2/Middlewares/Third_Party/LwIP/src/core/ipv4\etharp.c **** }
 1185              		.loc 1 599 10 view .LVU324
 1186 0060 F3E7     		b	.L81
 1187              	.L86:
 1188 0062 4FF0FF30 		mov	r0, #-1
 1189 0066 F0E7     		b	.L81
 1190              	.L89:
 1191              		.align	2
 1192              	.L88:
 1193 0068 00000000 		.word	.LANCHOR0
ARM GAS  C:\Users\BLACK_~1\AppData\Local\Temp\ccrhXwwe.s 			page 46


 1194 006c 00000000 		.word	.LC0
 1195 0070 00000000 		.word	.LC9
 1196 0074 90000000 		.word	.LC2
 1197              		.cfi_endproc
 1198              	.LFE161:
 1200              		.section	.rodata.etharp_get_entry.str1.4,"aMS",%progbits,1
 1201              		.align	2
 1202              	.LC10:
 1203 0000 69706164 		.ascii	"ipaddr != NULL\000"
 1203      64722021 
 1203      3D204E55 
 1203      4C4C00
 1204 000f 00       		.align	2
 1205              	.LC11:
 1206 0010 6574685F 		.ascii	"eth_ret != NULL\000"
 1206      72657420 
 1206      213D204E 
 1206      554C4C00 
 1207              		.section	.text.etharp_get_entry,"ax",%progbits
 1208              		.align	1
 1209              		.global	etharp_get_entry
 1210              		.syntax unified
 1211              		.thumb
 1212              		.thumb_func
 1214              	etharp_get_entry:
 1215              	.LVL116:
 1216              	.LFB162:
 613:c:/Users/Black_Life/STM32Cube/Repository/STM32Cube_FW_F4_V1.26.2/Middlewares/Third_Party/LwIP/src/core/ipv4\etharp.c ****   LWIP_ASSERT("ipaddr != NULL", ipaddr != NULL);
 1217              		.loc 1 613 1 is_stmt 1 view -0
 1218              		.cfi_startproc
 1219              		@ args = 0, pretend = 0, frame = 0
 1220              		@ frame_needed = 0, uses_anonymous_args = 0
 613:c:/Users/Black_Life/STM32Cube/Repository/STM32Cube_FW_F4_V1.26.2/Middlewares/Third_Party/LwIP/src/core/ipv4\etharp.c ****   LWIP_ASSERT("ipaddr != NULL", ipaddr != NULL);
 1221              		.loc 1 613 1 is_stmt 0 view .LVU326
 1222 0000 F8B5     		push	{r3, r4, r5, r6, r7, lr}
 1223              	.LCFI18:
 1224              		.cfi_def_cfa_offset 24
 1225              		.cfi_offset 3, -24
 1226              		.cfi_offset 4, -20
 1227              		.cfi_offset 5, -16
 1228              		.cfi_offset 6, -12
 1229              		.cfi_offset 7, -8
 1230              		.cfi_offset 14, -4
 1231 0002 0446     		mov	r4, r0
 1232 0004 1646     		mov	r6, r2
 1233 0006 1D46     		mov	r5, r3
 614:c:/Users/Black_Life/STM32Cube/Repository/STM32Cube_FW_F4_V1.26.2/Middlewares/Third_Party/LwIP/src/core/ipv4\etharp.c ****   LWIP_ASSERT("netif != NULL", netif != NULL);
 1234              		.loc 1 614 3 is_stmt 1 view .LVU327
 614:c:/Users/Black_Life/STM32Cube/Repository/STM32Cube_FW_F4_V1.26.2/Middlewares/Third_Party/LwIP/src/core/ipv4\etharp.c ****   LWIP_ASSERT("netif != NULL", netif != NULL);
 1235              		.loc 1 614 3 view .LVU328
 1236 0008 0F46     		mov	r7, r1
 1237 000a E9B1     		cbz	r1, .L98
 1238              	.LVL117:
 1239              	.L91:
 614:c:/Users/Black_Life/STM32Cube/Repository/STM32Cube_FW_F4_V1.26.2/Middlewares/Third_Party/LwIP/src/core/ipv4\etharp.c ****   LWIP_ASSERT("netif != NULL", netif != NULL);
 1240              		.loc 1 614 3 discriminator 3 view .LVU329
 614:c:/Users/Black_Life/STM32Cube/Repository/STM32Cube_FW_F4_V1.26.2/Middlewares/Third_Party/LwIP/src/core/ipv4\etharp.c ****   LWIP_ASSERT("netif != NULL", netif != NULL);
ARM GAS  C:\Users\BLACK_~1\AppData\Local\Temp\ccrhXwwe.s 			page 47


 1241              		.loc 1 614 3 discriminator 3 view .LVU330
 615:c:/Users/Black_Life/STM32Cube/Repository/STM32Cube_FW_F4_V1.26.2/Middlewares/Third_Party/LwIP/src/core/ipv4\etharp.c ****   LWIP_ASSERT("eth_ret != NULL", eth_ret != NULL);
 1242              		.loc 1 615 3 discriminator 3 view .LVU331
 615:c:/Users/Black_Life/STM32Cube/Repository/STM32Cube_FW_F4_V1.26.2/Middlewares/Third_Party/LwIP/src/core/ipv4\etharp.c ****   LWIP_ASSERT("eth_ret != NULL", eth_ret != NULL);
 1243              		.loc 1 615 3 discriminator 3 view .LVU332
 1244 000c 26B3     		cbz	r6, .L99
 1245              	.L92:
 615:c:/Users/Black_Life/STM32Cube/Repository/STM32Cube_FW_F4_V1.26.2/Middlewares/Third_Party/LwIP/src/core/ipv4\etharp.c ****   LWIP_ASSERT("eth_ret != NULL", eth_ret != NULL);
 1246              		.loc 1 615 3 discriminator 3 view .LVU333
 615:c:/Users/Black_Life/STM32Cube/Repository/STM32Cube_FW_F4_V1.26.2/Middlewares/Third_Party/LwIP/src/core/ipv4\etharp.c ****   LWIP_ASSERT("eth_ret != NULL", eth_ret != NULL);
 1247              		.loc 1 615 3 discriminator 3 view .LVU334
 616:c:/Users/Black_Life/STM32Cube/Repository/STM32Cube_FW_F4_V1.26.2/Middlewares/Third_Party/LwIP/src/core/ipv4\etharp.c **** 
 1248              		.loc 1 616 3 discriminator 3 view .LVU335
 616:c:/Users/Black_Life/STM32Cube/Repository/STM32Cube_FW_F4_V1.26.2/Middlewares/Third_Party/LwIP/src/core/ipv4\etharp.c **** 
 1249              		.loc 1 616 3 discriminator 3 view .LVU336
 1250 000e 5DB3     		cbz	r5, .L100
 1251              	.L93:
 616:c:/Users/Black_Life/STM32Cube/Repository/STM32Cube_FW_F4_V1.26.2/Middlewares/Third_Party/LwIP/src/core/ipv4\etharp.c **** 
 1252              		.loc 1 616 3 discriminator 3 view .LVU337
 616:c:/Users/Black_Life/STM32Cube/Repository/STM32Cube_FW_F4_V1.26.2/Middlewares/Third_Party/LwIP/src/core/ipv4\etharp.c **** 
 1253              		.loc 1 616 3 discriminator 3 view .LVU338
 618:c:/Users/Black_Life/STM32Cube/Repository/STM32Cube_FW_F4_V1.26.2/Middlewares/Third_Party/LwIP/src/core/ipv4\etharp.c ****     *ipaddr  = &arp_table[i].ipaddr;
 1254              		.loc 1 618 3 discriminator 3 view .LVU339
 618:c:/Users/Black_Life/STM32Cube/Repository/STM32Cube_FW_F4_V1.26.2/Middlewares/Third_Party/LwIP/src/core/ipv4\etharp.c ****     *ipaddr  = &arp_table[i].ipaddr;
 1255              		.loc 1 618 6 is_stmt 0 discriminator 3 view .LVU340
 1256 0010 092C     		cmp	r4, #9
 1257 0012 31D8     		bhi	.L95
 618:c:/Users/Black_Life/STM32Cube/Repository/STM32Cube_FW_F4_V1.26.2/Middlewares/Third_Party/LwIP/src/core/ipv4\etharp.c ****     *ipaddr  = &arp_table[i].ipaddr;
 1258              		.loc 1 618 44 discriminator 1 view .LVU341
 1259 0014 04EB4403 		add	r3, r4, r4, lsl #1
 1260 0018 194A     		ldr	r2, .L101
 1261 001a 02EBC303 		add	r3, r2, r3, lsl #3
 1262 001e 1B7D     		ldrb	r3, [r3, #20]	@ zero_extendqisi2
 618:c:/Users/Black_Life/STM32Cube/Repository/STM32Cube_FW_F4_V1.26.2/Middlewares/Third_Party/LwIP/src/core/ipv4\etharp.c ****     *ipaddr  = &arp_table[i].ipaddr;
 1263              		.loc 1 618 28 discriminator 1 view .LVU342
 1264 0020 012B     		cmp	r3, #1
 1265 0022 2BD9     		bls	.L96
 619:c:/Users/Black_Life/STM32Cube/Repository/STM32Cube_FW_F4_V1.26.2/Middlewares/Third_Party/LwIP/src/core/ipv4\etharp.c ****     *netif   = arp_table[i].netif;
 1266              		.loc 1 619 5 is_stmt 1 view .LVU343
 619:c:/Users/Black_Life/STM32Cube/Repository/STM32Cube_FW_F4_V1.26.2/Middlewares/Third_Party/LwIP/src/core/ipv4\etharp.c ****     *netif   = arp_table[i].netif;
 1267              		.loc 1 619 16 is_stmt 0 view .LVU344
 1268 0024 1346     		mov	r3, r2
 1269 0026 04EB4402 		add	r2, r4, r4, lsl #1
 1270 002a 03EBC202 		add	r2, r3, r2, lsl #3
 1271 002e 111D     		adds	r1, r2, #4
 619:c:/Users/Black_Life/STM32Cube/Repository/STM32Cube_FW_F4_V1.26.2/Middlewares/Third_Party/LwIP/src/core/ipv4\etharp.c ****     *netif   = arp_table[i].netif;
 1272              		.loc 1 619 14 view .LVU345
 1273 0030 3960     		str	r1, [r7]
 620:c:/Users/Black_Life/STM32Cube/Repository/STM32Cube_FW_F4_V1.26.2/Middlewares/Third_Party/LwIP/src/core/ipv4\etharp.c ****     *eth_ret = &arp_table[i].ethaddr;
 1274              		.loc 1 620 5 is_stmt 1 view .LVU346
 620:c:/Users/Black_Life/STM32Cube/Repository/STM32Cube_FW_F4_V1.26.2/Middlewares/Third_Party/LwIP/src/core/ipv4\etharp.c ****     *eth_ret = &arp_table[i].ethaddr;
 1275              		.loc 1 620 28 is_stmt 0 view .LVU347
 1276 0032 9268     		ldr	r2, [r2, #8]
 620:c:/Users/Black_Life/STM32Cube/Repository/STM32Cube_FW_F4_V1.26.2/Middlewares/Third_Party/LwIP/src/core/ipv4\etharp.c ****     *eth_ret = &arp_table[i].ethaddr;
 1277              		.loc 1 620 14 view .LVU348
 1278 0034 3260     		str	r2, [r6]
 621:c:/Users/Black_Life/STM32Cube/Repository/STM32Cube_FW_F4_V1.26.2/Middlewares/Third_Party/LwIP/src/core/ipv4\etharp.c ****     return 1;
ARM GAS  C:\Users\BLACK_~1\AppData\Local\Temp\ccrhXwwe.s 			page 48


 1279              		.loc 1 621 5 is_stmt 1 view .LVU349
 621:c:/Users/Black_Life/STM32Cube/Repository/STM32Cube_FW_F4_V1.26.2/Middlewares/Third_Party/LwIP/src/core/ipv4\etharp.c ****     return 1;
 1280              		.loc 1 621 16 is_stmt 0 view .LVU350
 1281 0036 04EB4404 		add	r4, r4, r4, lsl #1
 1282              	.LVL118:
 621:c:/Users/Black_Life/STM32Cube/Repository/STM32Cube_FW_F4_V1.26.2/Middlewares/Third_Party/LwIP/src/core/ipv4\etharp.c ****     return 1;
 1283              		.loc 1 621 16 view .LVU351
 1284 003a E400     		lsls	r4, r4, #3
 1285 003c 0834     		adds	r4, r4, #8
 1286 003e 2344     		add	r3, r3, r4
 1287 0040 0433     		adds	r3, r3, #4
 621:c:/Users/Black_Life/STM32Cube/Repository/STM32Cube_FW_F4_V1.26.2/Middlewares/Third_Party/LwIP/src/core/ipv4\etharp.c ****     return 1;
 1288              		.loc 1 621 14 view .LVU352
 1289 0042 2B60     		str	r3, [r5]
 622:c:/Users/Black_Life/STM32Cube/Repository/STM32Cube_FW_F4_V1.26.2/Middlewares/Third_Party/LwIP/src/core/ipv4\etharp.c ****   } else {
 1290              		.loc 1 622 5 is_stmt 1 view .LVU353
 622:c:/Users/Black_Life/STM32Cube/Repository/STM32Cube_FW_F4_V1.26.2/Middlewares/Third_Party/LwIP/src/core/ipv4\etharp.c ****   } else {
 1291              		.loc 1 622 12 is_stmt 0 view .LVU354
 1292 0044 0120     		movs	r0, #1
 1293              	.L90:
 626:c:/Users/Black_Life/STM32Cube/Repository/STM32Cube_FW_F4_V1.26.2/Middlewares/Third_Party/LwIP/src/core/ipv4\etharp.c **** 
 1294              		.loc 1 626 1 view .LVU355
 1295 0046 F8BD     		pop	{r3, r4, r5, r6, r7, pc}
 1296              	.LVL119:
 1297              	.L98:
 614:c:/Users/Black_Life/STM32Cube/Repository/STM32Cube_FW_F4_V1.26.2/Middlewares/Third_Party/LwIP/src/core/ipv4\etharp.c ****   LWIP_ASSERT("netif != NULL", netif != NULL);
 1298              		.loc 1 614 3 is_stmt 1 discriminator 1 view .LVU356
 614:c:/Users/Black_Life/STM32Cube/Repository/STM32Cube_FW_F4_V1.26.2/Middlewares/Third_Party/LwIP/src/core/ipv4\etharp.c ****   LWIP_ASSERT("netif != NULL", netif != NULL);
 1299              		.loc 1 614 3 discriminator 1 view .LVU357
 1300 0048 0E4B     		ldr	r3, .L101+4
 1301              	.LVL120:
 614:c:/Users/Black_Life/STM32Cube/Repository/STM32Cube_FW_F4_V1.26.2/Middlewares/Third_Party/LwIP/src/core/ipv4\etharp.c ****   LWIP_ASSERT("netif != NULL", netif != NULL);
 1302              		.loc 1 614 3 is_stmt 0 discriminator 1 view .LVU358
 1303 004a 40F26622 		movw	r2, #614
 1304              	.LVL121:
 614:c:/Users/Black_Life/STM32Cube/Repository/STM32Cube_FW_F4_V1.26.2/Middlewares/Third_Party/LwIP/src/core/ipv4\etharp.c ****   LWIP_ASSERT("netif != NULL", netif != NULL);
 1305              		.loc 1 614 3 discriminator 1 view .LVU359
 1306 004e 0E49     		ldr	r1, .L101+8
 1307              	.LVL122:
 614:c:/Users/Black_Life/STM32Cube/Repository/STM32Cube_FW_F4_V1.26.2/Middlewares/Third_Party/LwIP/src/core/ipv4\etharp.c ****   LWIP_ASSERT("netif != NULL", netif != NULL);
 1308              		.loc 1 614 3 discriminator 1 view .LVU360
 1309 0050 0E48     		ldr	r0, .L101+12
 1310              	.LVL123:
 614:c:/Users/Black_Life/STM32Cube/Repository/STM32Cube_FW_F4_V1.26.2/Middlewares/Third_Party/LwIP/src/core/ipv4\etharp.c ****   LWIP_ASSERT("netif != NULL", netif != NULL);
 1311              		.loc 1 614 3 discriminator 1 view .LVU361
 1312 0052 FFF7FEFF 		bl	printf
 1313              	.LVL124:
 1314 0056 D9E7     		b	.L91
 1315              	.L99:
 615:c:/Users/Black_Life/STM32Cube/Repository/STM32Cube_FW_F4_V1.26.2/Middlewares/Third_Party/LwIP/src/core/ipv4\etharp.c ****   LWIP_ASSERT("eth_ret != NULL", eth_ret != NULL);
 1316              		.loc 1 615 3 is_stmt 1 discriminator 1 view .LVU362
 615:c:/Users/Black_Life/STM32Cube/Repository/STM32Cube_FW_F4_V1.26.2/Middlewares/Third_Party/LwIP/src/core/ipv4\etharp.c ****   LWIP_ASSERT("eth_ret != NULL", eth_ret != NULL);
 1317              		.loc 1 615 3 discriminator 1 view .LVU363
 1318 0058 0A4B     		ldr	r3, .L101+4
 1319 005a 40F26722 		movw	r2, #615
 1320 005e 0C49     		ldr	r1, .L101+16
 1321 0060 0A48     		ldr	r0, .L101+12
ARM GAS  C:\Users\BLACK_~1\AppData\Local\Temp\ccrhXwwe.s 			page 49


 1322 0062 FFF7FEFF 		bl	printf
 1323              	.LVL125:
 1324 0066 D2E7     		b	.L92
 1325              	.L100:
 616:c:/Users/Black_Life/STM32Cube/Repository/STM32Cube_FW_F4_V1.26.2/Middlewares/Third_Party/LwIP/src/core/ipv4\etharp.c **** 
 1326              		.loc 1 616 3 discriminator 1 view .LVU364
 616:c:/Users/Black_Life/STM32Cube/Repository/STM32Cube_FW_F4_V1.26.2/Middlewares/Third_Party/LwIP/src/core/ipv4\etharp.c **** 
 1327              		.loc 1 616 3 discriminator 1 view .LVU365
 1328 0068 064B     		ldr	r3, .L101+4
 1329 006a 4FF41A72 		mov	r2, #616
 1330 006e 0949     		ldr	r1, .L101+20
 1331 0070 0648     		ldr	r0, .L101+12
 1332 0072 FFF7FEFF 		bl	printf
 1333              	.LVL126:
 1334 0076 CBE7     		b	.L93
 1335              	.L95:
 624:c:/Users/Black_Life/STM32Cube/Repository/STM32Cube_FW_F4_V1.26.2/Middlewares/Third_Party/LwIP/src/core/ipv4\etharp.c ****   }
 1336              		.loc 1 624 12 is_stmt 0 view .LVU366
 1337 0078 0020     		movs	r0, #0
 1338 007a E4E7     		b	.L90
 1339              	.L96:
 1340 007c 0020     		movs	r0, #0
 1341 007e E2E7     		b	.L90
 1342              	.L102:
 1343              		.align	2
 1344              	.L101:
 1345 0080 00000000 		.word	.LANCHOR0
 1346 0084 00000000 		.word	.LC0
 1347 0088 00000000 		.word	.LC10
 1348 008c 90000000 		.word	.LC2
 1349 0090 00000000 		.word	.LC6
 1350 0094 10000000 		.word	.LC11
 1351              		.cfi_endproc
 1352              	.LFE162:
 1354              		.section	.text.etharp_input,"ax",%progbits
 1355              		.align	1
 1356              		.global	etharp_input
 1357              		.syntax unified
 1358              		.thumb
 1359              		.thumb_func
 1361              	etharp_input:
 1362              	.LVL127:
 1363              	.LFB163:
 642:c:/Users/Black_Life/STM32Cube/Repository/STM32Cube_FW_F4_V1.26.2/Middlewares/Third_Party/LwIP/src/core/ipv4\etharp.c ****   struct etharp_hdr *hdr;
 1364              		.loc 1 642 1 is_stmt 1 view -0
 1365              		.cfi_startproc
 1366              		@ args = 0, pretend = 0, frame = 8
 1367              		@ frame_needed = 0, uses_anonymous_args = 0
 642:c:/Users/Black_Life/STM32Cube/Repository/STM32Cube_FW_F4_V1.26.2/Middlewares/Third_Party/LwIP/src/core/ipv4\etharp.c ****   struct etharp_hdr *hdr;
 1368              		.loc 1 642 1 is_stmt 0 view .LVU368
 1369 0000 2DE9F041 		push	{r4, r5, r6, r7, r8, lr}
 1370              	.LCFI19:
 1371              		.cfi_def_cfa_offset 24
 1372              		.cfi_offset 4, -24
 1373              		.cfi_offset 5, -20
 1374              		.cfi_offset 6, -16
 1375              		.cfi_offset 7, -12
ARM GAS  C:\Users\BLACK_~1\AppData\Local\Temp\ccrhXwwe.s 			page 50


 1376              		.cfi_offset 8, -8
 1377              		.cfi_offset 14, -4
 1378 0004 86B0     		sub	sp, sp, #24
 1379              	.LCFI20:
 1380              		.cfi_def_cfa_offset 48
 643:c:/Users/Black_Life/STM32Cube/Repository/STM32Cube_FW_F4_V1.26.2/Middlewares/Third_Party/LwIP/src/core/ipv4\etharp.c ****   /* these are aligned properly, whereas the ARP header fields might not be */
 1381              		.loc 1 643 3 is_stmt 1 view .LVU369
 645:c:/Users/Black_Life/STM32Cube/Repository/STM32Cube_FW_F4_V1.26.2/Middlewares/Third_Party/LwIP/src/core/ipv4\etharp.c ****   u8_t for_us;
 1382              		.loc 1 645 3 view .LVU370
 646:c:/Users/Black_Life/STM32Cube/Repository/STM32Cube_FW_F4_V1.26.2/Middlewares/Third_Party/LwIP/src/core/ipv4\etharp.c **** 
 1383              		.loc 1 646 3 view .LVU371
 648:c:/Users/Black_Life/STM32Cube/Repository/STM32Cube_FW_F4_V1.26.2/Middlewares/Third_Party/LwIP/src/core/ipv4\etharp.c **** 
 1384              		.loc 1 648 28 view .LVU372
 650:c:/Users/Black_Life/STM32Cube/Repository/STM32Cube_FW_F4_V1.26.2/Middlewares/Third_Party/LwIP/src/core/ipv4\etharp.c **** 
 1385              		.loc 1 650 3 view .LVU373
 650:c:/Users/Black_Life/STM32Cube/Repository/STM32Cube_FW_F4_V1.26.2/Middlewares/Third_Party/LwIP/src/core/ipv4\etharp.c **** 
 1386              		.loc 1 650 3 view .LVU374
 1387 0006 A9B1     		cbz	r1, .L116
 1388 0008 0446     		mov	r4, r0
 1389 000a 0E46     		mov	r6, r1
 650:c:/Users/Black_Life/STM32Cube/Repository/STM32Cube_FW_F4_V1.26.2/Middlewares/Third_Party/LwIP/src/core/ipv4\etharp.c **** 
 1390              		.loc 1 650 3 discriminator 2 view .LVU375
 650:c:/Users/Black_Life/STM32Cube/Repository/STM32Cube_FW_F4_V1.26.2/Middlewares/Third_Party/LwIP/src/core/ipv4\etharp.c **** 
 1391              		.loc 1 650 3 discriminator 2 view .LVU376
 652:c:/Users/Black_Life/STM32Cube/Repository/STM32Cube_FW_F4_V1.26.2/Middlewares/Third_Party/LwIP/src/core/ipv4\etharp.c **** 
 1392              		.loc 1 652 3 discriminator 2 view .LVU377
 652:c:/Users/Black_Life/STM32Cube/Repository/STM32Cube_FW_F4_V1.26.2/Middlewares/Third_Party/LwIP/src/core/ipv4\etharp.c **** 
 1393              		.loc 1 652 7 is_stmt 0 discriminator 2 view .LVU378
 1394 000c 4568     		ldr	r5, [r0, #4]
 1395              	.LVL128:
 655:c:/Users/Black_Life/STM32Cube/Repository/STM32Cube_FW_F4_V1.26.2/Middlewares/Third_Party/LwIP/src/core/ipv4\etharp.c ****       (hdr->hwlen != ETH_HWADDR_LEN) ||
 1396              		.loc 1 655 3 is_stmt 1 discriminator 2 view .LVU379
 655:c:/Users/Black_Life/STM32Cube/Repository/STM32Cube_FW_F4_V1.26.2/Middlewares/Third_Party/LwIP/src/core/ipv4\etharp.c ****       (hdr->hwlen != ETH_HWADDR_LEN) ||
 1397              		.loc 1 655 11 is_stmt 0 discriminator 2 view .LVU380
 1398 000e 2B88     		ldrh	r3, [r5]	@ unaligned
 655:c:/Users/Black_Life/STM32Cube/Repository/STM32Cube_FW_F4_V1.26.2/Middlewares/Third_Party/LwIP/src/core/ipv4\etharp.c ****       (hdr->hwlen != ETH_HWADDR_LEN) ||
 1399              		.loc 1 655 6 discriminator 2 view .LVU381
 1400 0010 B3F5807F 		cmp	r3, #256
 1401 0014 08D1     		bne	.L106
 656:c:/Users/Black_Life/STM32Cube/Repository/STM32Cube_FW_F4_V1.26.2/Middlewares/Third_Party/LwIP/src/core/ipv4\etharp.c ****       (hdr->protolen != sizeof(ip4_addr_t)) ||
 1402              		.loc 1 656 11 discriminator 1 view .LVU382
 1403 0016 2B79     		ldrb	r3, [r5, #4]	@ zero_extendqisi2
 655:c:/Users/Black_Life/STM32Cube/Repository/STM32Cube_FW_F4_V1.26.2/Middlewares/Third_Party/LwIP/src/core/ipv4\etharp.c ****       (hdr->hwlen != ETH_HWADDR_LEN) ||
 1404              		.loc 1 655 60 discriminator 1 view .LVU383
 1405 0018 062B     		cmp	r3, #6
 1406 001a 05D1     		bne	.L106
 657:c:/Users/Black_Life/STM32Cube/Repository/STM32Cube_FW_F4_V1.26.2/Middlewares/Third_Party/LwIP/src/core/ipv4\etharp.c ****       (hdr->proto != PP_HTONS(ETHTYPE_IP)))  {
 1407              		.loc 1 657 11 view .LVU384
 1408 001c 6B79     		ldrb	r3, [r5, #5]	@ zero_extendqisi2
 656:c:/Users/Black_Life/STM32Cube/Repository/STM32Cube_FW_F4_V1.26.2/Middlewares/Third_Party/LwIP/src/core/ipv4\etharp.c ****       (hdr->protolen != sizeof(ip4_addr_t)) ||
 1409              		.loc 1 656 38 view .LVU385
 1410 001e 042B     		cmp	r3, #4
 1411 0020 02D1     		bne	.L106
 658:c:/Users/Black_Life/STM32Cube/Repository/STM32Cube_FW_F4_V1.26.2/Middlewares/Third_Party/LwIP/src/core/ipv4\etharp.c ****     LWIP_DEBUGF(ETHARP_DEBUG | LWIP_DBG_TRACE | LWIP_DBG_LEVEL_WARNING,
 1412              		.loc 1 658 11 view .LVU386
 1413 0022 6B88     		ldrh	r3, [r5, #2]	@ unaligned
 657:c:/Users/Black_Life/STM32Cube/Repository/STM32Cube_FW_F4_V1.26.2/Middlewares/Third_Party/LwIP/src/core/ipv4\etharp.c ****       (hdr->proto != PP_HTONS(ETHTYPE_IP)))  {
ARM GAS  C:\Users\BLACK_~1\AppData\Local\Temp\ccrhXwwe.s 			page 51


 1414              		.loc 1 657 45 view .LVU387
 1415 0024 082B     		cmp	r3, #8
 1416 0026 0DD0     		beq	.L107
 1417              	.L106:
 661:c:/Users/Black_Life/STM32Cube/Repository/STM32Cube_FW_F4_V1.26.2/Middlewares/Third_Party/LwIP/src/core/ipv4\etharp.c ****     ETHARP_STATS_INC(etharp.proterr);
 1418              		.loc 1 661 84 is_stmt 1 view .LVU388
 662:c:/Users/Black_Life/STM32Cube/Repository/STM32Cube_FW_F4_V1.26.2/Middlewares/Third_Party/LwIP/src/core/ipv4\etharp.c ****     ETHARP_STATS_INC(etharp.drop);
 1419              		.loc 1 662 37 view .LVU389
 663:c:/Users/Black_Life/STM32Cube/Repository/STM32Cube_FW_F4_V1.26.2/Middlewares/Third_Party/LwIP/src/core/ipv4\etharp.c ****     pbuf_free(p);
 1420              		.loc 1 663 34 view .LVU390
 664:c:/Users/Black_Life/STM32Cube/Repository/STM32Cube_FW_F4_V1.26.2/Middlewares/Third_Party/LwIP/src/core/ipv4\etharp.c ****     return;
 1421              		.loc 1 664 5 view .LVU391
 1422 0028 2046     		mov	r0, r4
 1423              	.LVL129:
 664:c:/Users/Black_Life/STM32Cube/Repository/STM32Cube_FW_F4_V1.26.2/Middlewares/Third_Party/LwIP/src/core/ipv4\etharp.c ****     return;
 1424              		.loc 1 664 5 is_stmt 0 view .LVU392
 1425 002a FFF7FEFF 		bl	pbuf_free
 1426              	.LVL130:
 665:c:/Users/Black_Life/STM32Cube/Repository/STM32Cube_FW_F4_V1.26.2/Middlewares/Third_Party/LwIP/src/core/ipv4\etharp.c ****   }
 1427              		.loc 1 665 5 is_stmt 1 view .LVU393
 1428              	.L103:
 742:c:/Users/Black_Life/STM32Cube/Repository/STM32Cube_FW_F4_V1.26.2/Middlewares/Third_Party/LwIP/src/core/ipv4\etharp.c **** 
 1429              		.loc 1 742 1 is_stmt 0 view .LVU394
 1430 002e 06B0     		add	sp, sp, #24
 1431              	.LCFI21:
 1432              		.cfi_remember_state
 1433              		.cfi_def_cfa_offset 24
 1434              		@ sp needed
 1435 0030 BDE8F081 		pop	{r4, r5, r6, r7, r8, pc}
 1436              	.LVL131:
 1437              	.L116:
 1438              	.LCFI22:
 1439              		.cfi_restore_state
 650:c:/Users/Black_Life/STM32Cube/Repository/STM32Cube_FW_F4_V1.26.2/Middlewares/Third_Party/LwIP/src/core/ipv4\etharp.c **** 
 1440              		.loc 1 650 3 is_stmt 1 discriminator 1 view .LVU395
 650:c:/Users/Black_Life/STM32Cube/Repository/STM32Cube_FW_F4_V1.26.2/Middlewares/Third_Party/LwIP/src/core/ipv4\etharp.c **** 
 1441              		.loc 1 650 3 discriminator 1 view .LVU396
 1442 0034 214B     		ldr	r3, .L117
 1443 0036 40F28A22 		movw	r2, #650
 1444 003a 2149     		ldr	r1, .L117+4
 1445              	.LVL132:
 650:c:/Users/Black_Life/STM32Cube/Repository/STM32Cube_FW_F4_V1.26.2/Middlewares/Third_Party/LwIP/src/core/ipv4\etharp.c **** 
 1446              		.loc 1 650 3 is_stmt 0 discriminator 1 view .LVU397
 1447 003c 2148     		ldr	r0, .L117+8
 1448              	.LVL133:
 650:c:/Users/Black_Life/STM32Cube/Repository/STM32Cube_FW_F4_V1.26.2/Middlewares/Third_Party/LwIP/src/core/ipv4\etharp.c **** 
 1449              		.loc 1 650 3 discriminator 1 view .LVU398
 1450 003e FFF7FEFF 		bl	printf
 1451              	.LVL134:
 650:c:/Users/Black_Life/STM32Cube/Repository/STM32Cube_FW_F4_V1.26.2/Middlewares/Third_Party/LwIP/src/core/ipv4\etharp.c **** 
 1452              		.loc 1 650 3 is_stmt 1 discriminator 1 view .LVU399
 650:c:/Users/Black_Life/STM32Cube/Repository/STM32Cube_FW_F4_V1.26.2/Middlewares/Third_Party/LwIP/src/core/ipv4\etharp.c **** 
 1453              		.loc 1 650 3 discriminator 1 view .LVU400
 1454 0042 F4E7     		b	.L103
 1455              	.LVL135:
 1456              	.L107:
 667:c:/Users/Black_Life/STM32Cube/Repository/STM32Cube_FW_F4_V1.26.2/Middlewares/Third_Party/LwIP/src/core/ipv4\etharp.c **** 
ARM GAS  C:\Users\BLACK_~1\AppData\Local\Temp\ccrhXwwe.s 			page 52


 1457              		.loc 1 667 32 view .LVU401
 678:c:/Users/Black_Life/STM32Cube/Repository/STM32Cube_FW_F4_V1.26.2/Middlewares/Third_Party/LwIP/src/core/ipv4\etharp.c ****   IPADDR_WORDALIGNED_COPY_TO_IP4_ADDR_T(&dipaddr, &hdr->dipaddr);
 1458              		.loc 1 678 3 view .LVU402
 1459 0044 D5F80E30 		ldr	r3, [r5, #14]	@ unaligned
 1460 0048 0593     		str	r3, [sp, #20]
 679:c:/Users/Black_Life/STM32Cube/Repository/STM32Cube_FW_F4_V1.26.2/Middlewares/Third_Party/LwIP/src/core/ipv4\etharp.c **** 
 1461              		.loc 1 679 3 view .LVU403
 1462 004a AF69     		ldr	r7, [r5, #24]	@ unaligned
 682:c:/Users/Black_Life/STM32Cube/Repository/STM32Cube_FW_F4_V1.26.2/Middlewares/Third_Party/LwIP/src/core/ipv4\etharp.c ****     for_us = 0;
 1463              		.loc 1 682 3 view .LVU404
 682:c:/Users/Black_Life/STM32Cube/Repository/STM32Cube_FW_F4_V1.26.2/Middlewares/Third_Party/LwIP/src/core/ipv4\etharp.c ****     for_us = 0;
 1464              		.loc 1 682 7 is_stmt 0 view .LVU405
 1465 004c 4B68     		ldr	r3, [r1, #4]
 682:c:/Users/Black_Life/STM32Cube/Repository/STM32Cube_FW_F4_V1.26.2/Middlewares/Third_Party/LwIP/src/core/ipv4\etharp.c ****     for_us = 0;
 1466              		.loc 1 682 6 view .LVU406
 1467 004e 9BB9     		cbnz	r3, .L108
 1468              	.LVL136:
 694:c:/Users/Black_Life/STM32Cube/Repository/STM32Cube_FW_F4_V1.26.2/Middlewares/Third_Party/LwIP/src/core/ipv4\etharp.c ****                           for_us ? ETHARP_FLAG_TRY_HARD : ETHARP_FLAG_FIND_ONLY);
 1469              		.loc 1 694 3 is_stmt 1 view .LVU407
 1470 0050 05F10808 		add	r8, r5, #8
 683:c:/Users/Black_Life/STM32Cube/Repository/STM32Cube_FW_F4_V1.26.2/Middlewares/Third_Party/LwIP/src/core/ipv4\etharp.c ****   } else {
 1471              		.loc 1 683 12 is_stmt 0 view .LVU408
 1472 0054 0027     		movs	r7, #0
 694:c:/Users/Black_Life/STM32Cube/Repository/STM32Cube_FW_F4_V1.26.2/Middlewares/Third_Party/LwIP/src/core/ipv4\etharp.c ****                           for_us ? ETHARP_FLAG_TRY_HARD : ETHARP_FLAG_FIND_ONLY);
 1473              		.loc 1 694 3 view .LVU409
 1474 0056 0223     		movs	r3, #2
 1475              	.LVL137:
 1476              	.L109:
 694:c:/Users/Black_Life/STM32Cube/Repository/STM32Cube_FW_F4_V1.26.2/Middlewares/Third_Party/LwIP/src/core/ipv4\etharp.c ****                           for_us ? ETHARP_FLAG_TRY_HARD : ETHARP_FLAG_FIND_ONLY);
 1477              		.loc 1 694 3 discriminator 4 view .LVU410
 1478 0058 4246     		mov	r2, r8
 1479 005a 05A9     		add	r1, sp, #20
 1480              	.LVL138:
 694:c:/Users/Black_Life/STM32Cube/Repository/STM32Cube_FW_F4_V1.26.2/Middlewares/Third_Party/LwIP/src/core/ipv4\etharp.c ****                           for_us ? ETHARP_FLAG_TRY_HARD : ETHARP_FLAG_FIND_ONLY);
 1481              		.loc 1 694 3 discriminator 4 view .LVU411
 1482 005c 3046     		mov	r0, r6
 1483              	.LVL139:
 694:c:/Users/Black_Life/STM32Cube/Repository/STM32Cube_FW_F4_V1.26.2/Middlewares/Third_Party/LwIP/src/core/ipv4\etharp.c ****                           for_us ? ETHARP_FLAG_TRY_HARD : ETHARP_FLAG_FIND_ONLY);
 1484              		.loc 1 694 3 discriminator 4 view .LVU412
 1485 005e FFF7FEFF 		bl	etharp_update_arp_entry
 1486              	.LVL140:
 698:c:/Users/Black_Life/STM32Cube/Repository/STM32Cube_FW_F4_V1.26.2/Middlewares/Third_Party/LwIP/src/core/ipv4\etharp.c ****     /* ARP request? */
 1487              		.loc 1 698 3 is_stmt 1 discriminator 4 view .LVU413
 698:c:/Users/Black_Life/STM32Cube/Repository/STM32Cube_FW_F4_V1.26.2/Middlewares/Third_Party/LwIP/src/core/ipv4\etharp.c ****     /* ARP request? */
 1488              		.loc 1 698 14 is_stmt 0 discriminator 4 view .LVU414
 1489 0062 EB88     		ldrh	r3, [r5, #6]	@ unaligned
 698:c:/Users/Black_Life/STM32Cube/Repository/STM32Cube_FW_F4_V1.26.2/Middlewares/Third_Party/LwIP/src/core/ipv4\etharp.c ****     /* ARP request? */
 1490              		.loc 1 698 3 discriminator 4 view .LVU415
 1491 0064 B3F5807F 		cmp	r3, #256
 1492 0068 11D0     		beq	.L110
 698:c:/Users/Black_Life/STM32Cube/Repository/STM32Cube_FW_F4_V1.26.2/Middlewares/Third_Party/LwIP/src/core/ipv4\etharp.c ****     /* ARP request? */
 1493              		.loc 1 698 3 view .LVU416
 1494 006a B3F5007F 		cmp	r3, #512
 1495 006e 20D0     		beq	.L111
 1496              	.L112:
 741:c:/Users/Black_Life/STM32Cube/Repository/STM32Cube_FW_F4_V1.26.2/Middlewares/Third_Party/LwIP/src/core/ipv4\etharp.c **** }
 1497              		.loc 1 741 3 is_stmt 1 discriminator 2 view .LVU417
ARM GAS  C:\Users\BLACK_~1\AppData\Local\Temp\ccrhXwwe.s 			page 53


 1498 0070 2046     		mov	r0, r4
 1499 0072 FFF7FEFF 		bl	pbuf_free
 1500              	.LVL141:
 1501 0076 DAE7     		b	.L103
 1502              	.LVL142:
 1503              	.L108:
 686:c:/Users/Black_Life/STM32Cube/Repository/STM32Cube_FW_F4_V1.26.2/Middlewares/Third_Party/LwIP/src/core/ipv4\etharp.c ****   }
 1504              		.loc 1 686 5 view .LVU418
 686:c:/Users/Black_Life/STM32Cube/Repository/STM32Cube_FW_F4_V1.26.2/Middlewares/Third_Party/LwIP/src/core/ipv4\etharp.c ****   }
 1505              		.loc 1 686 14 is_stmt 0 view .LVU419
 1506 0078 BB42     		cmp	r3, r7
 1507 007a 14BF     		ite	ne
 1508 007c 0027     		movne	r7, #0
 1509 007e 0127     		moveq	r7, #1
 1510              	.LVL143:
 694:c:/Users/Black_Life/STM32Cube/Repository/STM32Cube_FW_F4_V1.26.2/Middlewares/Third_Party/LwIP/src/core/ipv4\etharp.c ****                           for_us ? ETHARP_FLAG_TRY_HARD : ETHARP_FLAG_FIND_ONLY);
 1511              		.loc 1 694 3 is_stmt 1 view .LVU420
 1512 0080 05F10808 		add	r8, r5, #8
 1513 0084 0FB1     		cbz	r7, .L114
 1514 0086 0123     		movs	r3, #1
 1515 0088 E6E7     		b	.L109
 1516              	.L114:
 1517 008a 0223     		movs	r3, #2
 1518 008c E4E7     		b	.L109
 1519              	.LVL144:
 1520              	.L110:
 705:c:/Users/Black_Life/STM32Cube/Repository/STM32Cube_FW_F4_V1.26.2/Middlewares/Third_Party/LwIP/src/core/ipv4\etharp.c ****       /* ARP request for our address? */
 1521              		.loc 1 705 92 view .LVU421
 707:c:/Users/Black_Life/STM32Cube/Repository/STM32Cube_FW_F4_V1.26.2/Middlewares/Third_Party/LwIP/src/core/ipv4\etharp.c ****         /* send ARP response */
 1522              		.loc 1 707 7 view .LVU422
 707:c:/Users/Black_Life/STM32Cube/Repository/STM32Cube_FW_F4_V1.26.2/Middlewares/Third_Party/LwIP/src/core/ipv4\etharp.c ****         /* send ARP response */
 1523              		.loc 1 707 10 is_stmt 0 view .LVU423
 1524 008e 002F     		cmp	r7, #0
 1525 0090 EED0     		beq	.L112
 709:c:/Users/Black_Life/STM32Cube/Repository/STM32Cube_FW_F4_V1.26.2/Middlewares/Third_Party/LwIP/src/core/ipv4\etharp.c ****                    (struct eth_addr *)netif->hwaddr, &hdr->shwaddr,
 1526              		.loc 1 709 9 is_stmt 1 view .LVU424
 710:c:/Users/Black_Life/STM32Cube/Repository/STM32Cube_FW_F4_V1.26.2/Middlewares/Third_Party/LwIP/src/core/ipv4\etharp.c ****                    (struct eth_addr *)netif->hwaddr, netif_ip4_addr(netif),
 1527              		.loc 1 710 39 is_stmt 0 view .LVU425
 1528 0092 06F12A01 		add	r1, r6, #42
 711:c:/Users/Black_Life/STM32Cube/Repository/STM32Cube_FW_F4_V1.26.2/Middlewares/Third_Party/LwIP/src/core/ipv4\etharp.c ****                    &hdr->shwaddr, &sipaddr,
 1529              		.loc 1 711 54 view .LVU426
 1530 0096 331D     		adds	r3, r6, #4
 709:c:/Users/Black_Life/STM32Cube/Repository/STM32Cube_FW_F4_V1.26.2/Middlewares/Third_Party/LwIP/src/core/ipv4\etharp.c ****                    (struct eth_addr *)netif->hwaddr, &hdr->shwaddr,
 1531              		.loc 1 709 9 view .LVU427
 1532 0098 0222     		movs	r2, #2
 1533 009a 0392     		str	r2, [sp, #12]
 1534 009c 05AA     		add	r2, sp, #20
 1535 009e 0292     		str	r2, [sp, #8]
 1536 00a0 CDF80480 		str	r8, [sp, #4]
 1537 00a4 0093     		str	r3, [sp]
 1538 00a6 0B46     		mov	r3, r1
 1539 00a8 4246     		mov	r2, r8
 1540 00aa 3046     		mov	r0, r6
 1541 00ac FFF7FEFF 		bl	etharp_raw
 1542              	.LVL145:
 1543 00b0 DEE7     		b	.L112
 1544              	.L111:
ARM GAS  C:\Users\BLACK_~1\AppData\Local\Temp\ccrhXwwe.s 			page 54


 726:c:/Users/Black_Life/STM32Cube/Repository/STM32Cube_FW_F4_V1.26.2/Middlewares/Third_Party/LwIP/src/core/ipv4\etharp.c **** #if (LWIP_DHCP && DHCP_DOES_ARP_CHECK)
 1545              		.loc 1 726 89 is_stmt 1 view .LVU428
 732:c:/Users/Black_Life/STM32Cube/Repository/STM32Cube_FW_F4_V1.26.2/Middlewares/Third_Party/LwIP/src/core/ipv4\etharp.c **** #endif /* (LWIP_DHCP && DHCP_DOES_ARP_CHECK) */
 1546              		.loc 1 732 7 view .LVU429
 1547 00b2 05A9     		add	r1, sp, #20
 1548 00b4 3046     		mov	r0, r6
 1549 00b6 FFF7FEFF 		bl	dhcp_arp_reply
 1550              	.LVL146:
 734:c:/Users/Black_Life/STM32Cube/Repository/STM32Cube_FW_F4_V1.26.2/Middlewares/Third_Party/LwIP/src/core/ipv4\etharp.c ****     default:
 1551              		.loc 1 734 7 view .LVU430
 1552 00ba D9E7     		b	.L112
 1553              	.L118:
 1554              		.align	2
 1555              	.L117:
 1556 00bc 00000000 		.word	.LC0
 1557 00c0 00000000 		.word	.LC6
 1558 00c4 90000000 		.word	.LC2
 1559              		.cfi_endproc
 1560              	.LFE163:
 1562              		.section	.text.etharp_request,"ax",%progbits
 1563              		.align	1
 1564              		.global	etharp_request
 1565              		.syntax unified
 1566              		.thumb
 1567              		.thumb_func
 1569              	etharp_request:
 1570              	.LVL147:
 1571              	.LFB169:
1187:c:/Users/Black_Life/STM32Cube/Repository/STM32Cube_FW_F4_V1.26.2/Middlewares/Third_Party/LwIP/src/core/ipv4\etharp.c **** 
1188:c:/Users/Black_Life/STM32Cube/Repository/STM32Cube_FW_F4_V1.26.2/Middlewares/Third_Party/LwIP/src/core/ipv4\etharp.c **** /**
1189:c:/Users/Black_Life/STM32Cube/Repository/STM32Cube_FW_F4_V1.26.2/Middlewares/Third_Party/LwIP/src/core/ipv4\etharp.c ****  * Send an ARP request packet asking for ipaddr.
1190:c:/Users/Black_Life/STM32Cube/Repository/STM32Cube_FW_F4_V1.26.2/Middlewares/Third_Party/LwIP/src/core/ipv4\etharp.c ****  *
1191:c:/Users/Black_Life/STM32Cube/Repository/STM32Cube_FW_F4_V1.26.2/Middlewares/Third_Party/LwIP/src/core/ipv4\etharp.c ****  * @param netif the lwip network interface on which to send the request
1192:c:/Users/Black_Life/STM32Cube/Repository/STM32Cube_FW_F4_V1.26.2/Middlewares/Third_Party/LwIP/src/core/ipv4\etharp.c ****  * @param ipaddr the IP address for which to ask
1193:c:/Users/Black_Life/STM32Cube/Repository/STM32Cube_FW_F4_V1.26.2/Middlewares/Third_Party/LwIP/src/core/ipv4\etharp.c ****  * @return ERR_OK if the request has been sent
1194:c:/Users/Black_Life/STM32Cube/Repository/STM32Cube_FW_F4_V1.26.2/Middlewares/Third_Party/LwIP/src/core/ipv4\etharp.c ****  *         ERR_MEM if the ARP packet couldn't be allocated
1195:c:/Users/Black_Life/STM32Cube/Repository/STM32Cube_FW_F4_V1.26.2/Middlewares/Third_Party/LwIP/src/core/ipv4\etharp.c ****  *         any other err_t on failure
1196:c:/Users/Black_Life/STM32Cube/Repository/STM32Cube_FW_F4_V1.26.2/Middlewares/Third_Party/LwIP/src/core/ipv4\etharp.c ****  */
1197:c:/Users/Black_Life/STM32Cube/Repository/STM32Cube_FW_F4_V1.26.2/Middlewares/Third_Party/LwIP/src/core/ipv4\etharp.c **** err_t
1198:c:/Users/Black_Life/STM32Cube/Repository/STM32Cube_FW_F4_V1.26.2/Middlewares/Third_Party/LwIP/src/core/ipv4\etharp.c **** etharp_request(struct netif *netif, const ip4_addr_t *ipaddr)
1199:c:/Users/Black_Life/STM32Cube/Repository/STM32Cube_FW_F4_V1.26.2/Middlewares/Third_Party/LwIP/src/core/ipv4\etharp.c **** {
 1572              		.loc 1 1199 1 view -0
 1573              		.cfi_startproc
 1574              		@ args = 0, pretend = 0, frame = 0
 1575              		@ frame_needed = 0, uses_anonymous_args = 0
 1576              		.loc 1 1199 1 is_stmt 0 view .LVU432
 1577 0000 08B5     		push	{r3, lr}
 1578              	.LCFI23:
 1579              		.cfi_def_cfa_offset 8
 1580              		.cfi_offset 3, -8
 1581              		.cfi_offset 14, -4
1200:c:/Users/Black_Life/STM32Cube/Repository/STM32Cube_FW_F4_V1.26.2/Middlewares/Third_Party/LwIP/src/core/ipv4\etharp.c ****   LWIP_DEBUGF(ETHARP_DEBUG | LWIP_DBG_TRACE, ("etharp_request: sending ARP request.\n"));
 1582              		.loc 1 1200 89 is_stmt 1 view .LVU433
1201:c:/Users/Black_Life/STM32Cube/Repository/STM32Cube_FW_F4_V1.26.2/Middlewares/Third_Party/LwIP/src/core/ipv4\etharp.c ****   return etharp_request_dst(netif, ipaddr, &ethbroadcast);
 1583              		.loc 1 1201 3 view .LVU434
 1584              		.loc 1 1201 10 is_stmt 0 view .LVU435
 1585 0002 024A     		ldr	r2, .L121
ARM GAS  C:\Users\BLACK_~1\AppData\Local\Temp\ccrhXwwe.s 			page 55


 1586 0004 FFF7FEFF 		bl	etharp_request_dst
 1587              	.LVL148:
1202:c:/Users/Black_Life/STM32Cube/Repository/STM32Cube_FW_F4_V1.26.2/Middlewares/Third_Party/LwIP/src/core/ipv4\etharp.c **** }
 1588              		.loc 1 1202 1 view .LVU436
 1589 0008 08BD     		pop	{r3, pc}
 1590              	.L122:
 1591 000a 00BF     		.align	2
 1592              	.L121:
 1593 000c 00000000 		.word	ethbroadcast
 1594              		.cfi_endproc
 1595              	.LFE169:
 1597              		.section	.text.etharp_tmr,"ax",%progbits
 1598              		.align	1
 1599              		.global	etharp_tmr
 1600              		.syntax unified
 1601              		.thumb
 1602              		.thumb_func
 1604              	etharp_tmr:
 1605              	.LFB157:
 198:c:/Users/Black_Life/STM32Cube/Repository/STM32Cube_FW_F4_V1.26.2/Middlewares/Third_Party/LwIP/src/core/ipv4\etharp.c ****   int i;
 1606              		.loc 1 198 1 is_stmt 1 view -0
 1607              		.cfi_startproc
 1608              		@ args = 0, pretend = 0, frame = 0
 1609              		@ frame_needed = 0, uses_anonymous_args = 0
 1610 0000 10B5     		push	{r4, lr}
 1611              	.LCFI24:
 1612              		.cfi_def_cfa_offset 8
 1613              		.cfi_offset 4, -8
 1614              		.cfi_offset 14, -4
 199:c:/Users/Black_Life/STM32Cube/Repository/STM32Cube_FW_F4_V1.26.2/Middlewares/Third_Party/LwIP/src/core/ipv4\etharp.c **** 
 1615              		.loc 1 199 3 view .LVU438
 201:c:/Users/Black_Life/STM32Cube/Repository/STM32Cube_FW_F4_V1.26.2/Middlewares/Third_Party/LwIP/src/core/ipv4\etharp.c ****   /* remove expired entries from the ARP table */
 1616              		.loc 1 201 48 view .LVU439
 203:c:/Users/Black_Life/STM32Cube/Repository/STM32Cube_FW_F4_V1.26.2/Middlewares/Third_Party/LwIP/src/core/ipv4\etharp.c ****     u8_t state = arp_table[i].state;
 1617              		.loc 1 203 3 view .LVU440
 1618              	.LVL149:
 203:c:/Users/Black_Life/STM32Cube/Repository/STM32Cube_FW_F4_V1.26.2/Middlewares/Third_Party/LwIP/src/core/ipv4\etharp.c ****     u8_t state = arp_table[i].state;
 1619              		.loc 1 203 10 is_stmt 0 view .LVU441
 1620 0002 0024     		movs	r4, #0
 203:c:/Users/Black_Life/STM32Cube/Repository/STM32Cube_FW_F4_V1.26.2/Middlewares/Third_Party/LwIP/src/core/ipv4\etharp.c ****     u8_t state = arp_table[i].state;
 1621              		.loc 1 203 3 view .LVU442
 1622 0004 05E0     		b	.L124
 1623              	.LVL150:
 1624              	.L133:
 1625              	.LBB7:
 212:c:/Users/Black_Life/STM32Cube/Repository/STM32Cube_FW_F4_V1.26.2/Middlewares/Third_Party/LwIP/src/core/ipv4\etharp.c ****            (arp_table[i].ctime >= ARP_MAXPENDING))) {
 1626              		.loc 1 212 58 view .LVU443
 1627 0006 042B     		cmp	r3, #4
 1628 0008 1BD9     		bls	.L127
 1629              	.L126:
 216:c:/Users/Black_Life/STM32Cube/Repository/STM32Cube_FW_F4_V1.26.2/Middlewares/Third_Party/LwIP/src/core/ipv4\etharp.c ****         /* clean up entries that have just been expired */
 1630              		.loc 1 216 105 is_stmt 1 view .LVU444
 218:c:/Users/Black_Life/STM32Cube/Repository/STM32Cube_FW_F4_V1.26.2/Middlewares/Third_Party/LwIP/src/core/ipv4\etharp.c ****       } else if (arp_table[i].state == ETHARP_STATE_STABLE_REREQUESTING_1) {
 1631              		.loc 1 218 9 view .LVU445
 1632 000a 2046     		mov	r0, r4
 1633 000c FFF7FEFF 		bl	etharp_free_entry
 1634              	.LVL151:
ARM GAS  C:\Users\BLACK_~1\AppData\Local\Temp\ccrhXwwe.s 			page 56


 1635              	.L125:
 218:c:/Users/Black_Life/STM32Cube/Repository/STM32Cube_FW_F4_V1.26.2/Middlewares/Third_Party/LwIP/src/core/ipv4\etharp.c ****       } else if (arp_table[i].state == ETHARP_STATE_STABLE_REREQUESTING_1) {
 1636              		.loc 1 218 9 is_stmt 0 view .LVU446
 1637              	.LBE7:
 203:c:/Users/Black_Life/STM32Cube/Repository/STM32Cube_FW_F4_V1.26.2/Middlewares/Third_Party/LwIP/src/core/ipv4\etharp.c ****     u8_t state = arp_table[i].state;
 1638              		.loc 1 203 35 is_stmt 1 discriminator 2 view .LVU447
 1639 0010 0134     		adds	r4, r4, #1
 1640              	.LVL152:
 1641              	.L124:
 203:c:/Users/Black_Life/STM32Cube/Repository/STM32Cube_FW_F4_V1.26.2/Middlewares/Third_Party/LwIP/src/core/ipv4\etharp.c ****     u8_t state = arp_table[i].state;
 1642              		.loc 1 203 15 discriminator 1 view .LVU448
 203:c:/Users/Black_Life/STM32Cube/Repository/STM32Cube_FW_F4_V1.26.2/Middlewares/Third_Party/LwIP/src/core/ipv4\etharp.c ****     u8_t state = arp_table[i].state;
 1643              		.loc 1 203 3 is_stmt 0 discriminator 1 view .LVU449
 1644 0012 092C     		cmp	r4, #9
 1645 0014 35DC     		bgt	.L132
 1646              	.LBB8:
 204:c:/Users/Black_Life/STM32Cube/Repository/STM32Cube_FW_F4_V1.26.2/Middlewares/Third_Party/LwIP/src/core/ipv4\etharp.c ****     if (state != ETHARP_STATE_EMPTY
 1647              		.loc 1 204 5 is_stmt 1 view .LVU450
 204:c:/Users/Black_Life/STM32Cube/Repository/STM32Cube_FW_F4_V1.26.2/Middlewares/Third_Party/LwIP/src/core/ipv4\etharp.c ****     if (state != ETHARP_STATE_EMPTY
 1648              		.loc 1 204 10 is_stmt 0 view .LVU451
 1649 0016 04EB4403 		add	r3, r4, r4, lsl #1
 1650 001a DA00     		lsls	r2, r3, #3
 1651 001c 194B     		ldr	r3, .L136
 1652 001e 1344     		add	r3, r3, r2
 1653 0020 1A7D     		ldrb	r2, [r3, #20]	@ zero_extendqisi2
 1654              	.LVL153:
 205:c:/Users/Black_Life/STM32Cube/Repository/STM32Cube_FW_F4_V1.26.2/Middlewares/Third_Party/LwIP/src/core/ipv4\etharp.c **** #if ETHARP_SUPPORT_STATIC_ENTRIES
 1655              		.loc 1 205 5 is_stmt 1 view .LVU452
 205:c:/Users/Black_Life/STM32Cube/Repository/STM32Cube_FW_F4_V1.26.2/Middlewares/Third_Party/LwIP/src/core/ipv4\etharp.c **** #if ETHARP_SUPPORT_STATIC_ENTRIES
 1656              		.loc 1 205 8 is_stmt 0 view .LVU453
 1657 0022 002A     		cmp	r2, #0
 1658 0024 F4D0     		beq	.L125
 210:c:/Users/Black_Life/STM32Cube/Repository/STM32Cube_FW_F4_V1.26.2/Middlewares/Third_Party/LwIP/src/core/ipv4\etharp.c ****       if ((arp_table[i].ctime >= ARP_MAXAGE) ||
 1659              		.loc 1 210 7 is_stmt 1 view .LVU454
 210:c:/Users/Black_Life/STM32Cube/Repository/STM32Cube_FW_F4_V1.26.2/Middlewares/Third_Party/LwIP/src/core/ipv4\etharp.c ****       if ((arp_table[i].ctime >= ARP_MAXAGE) ||
 1660              		.loc 1 210 19 is_stmt 0 view .LVU455
 1661 0026 04EB4401 		add	r1, r4, r4, lsl #1
 1662 002a CB00     		lsls	r3, r1, #3
 1663 002c 1549     		ldr	r1, .L136
 1664 002e 1944     		add	r1, r1, r3
 1665 0030 4B8A     		ldrh	r3, [r1, #18]
 210:c:/Users/Black_Life/STM32Cube/Repository/STM32Cube_FW_F4_V1.26.2/Middlewares/Third_Party/LwIP/src/core/ipv4\etharp.c ****       if ((arp_table[i].ctime >= ARP_MAXAGE) ||
 1666              		.loc 1 210 25 view .LVU456
 1667 0032 0133     		adds	r3, r3, #1
 1668 0034 9BB2     		uxth	r3, r3
 1669 0036 4B82     		strh	r3, [r1, #18]	@ movhi
 211:c:/Users/Black_Life/STM32Cube/Repository/STM32Cube_FW_F4_V1.26.2/Middlewares/Third_Party/LwIP/src/core/ipv4\etharp.c ****           ((arp_table[i].state == ETHARP_STATE_PENDING)  &&
 1670              		.loc 1 211 7 is_stmt 1 view .LVU457
 211:c:/Users/Black_Life/STM32Cube/Repository/STM32Cube_FW_F4_V1.26.2/Middlewares/Third_Party/LwIP/src/core/ipv4\etharp.c ****           ((arp_table[i].state == ETHARP_STATE_PENDING)  &&
 1671              		.loc 1 211 10 is_stmt 0 view .LVU458
 1672 0038 B3F5967F 		cmp	r3, #300
 1673 003c E5D2     		bcs	.L126
 211:c:/Users/Black_Life/STM32Cube/Repository/STM32Cube_FW_F4_V1.26.2/Middlewares/Third_Party/LwIP/src/core/ipv4\etharp.c ****           ((arp_table[i].state == ETHARP_STATE_PENDING)  &&
 1674              		.loc 1 211 46 discriminator 1 view .LVU459
 1675 003e 012A     		cmp	r2, #1
 1676 0040 E1D0     		beq	.L133
 1677              	.L127:
ARM GAS  C:\Users\BLACK_~1\AppData\Local\Temp\ccrhXwwe.s 			page 57


 219:c:/Users/Black_Life/STM32Cube/Repository/STM32Cube_FW_F4_V1.26.2/Middlewares/Third_Party/LwIP/src/core/ipv4\etharp.c ****         /* Don't send more than one request every 2 seconds. */
 1678              		.loc 1 219 14 is_stmt 1 view .LVU460
 219:c:/Users/Black_Life/STM32Cube/Repository/STM32Cube_FW_F4_V1.26.2/Middlewares/Third_Party/LwIP/src/core/ipv4\etharp.c ****         /* Don't send more than one request every 2 seconds. */
 1679              		.loc 1 219 17 is_stmt 0 view .LVU461
 1680 0042 032A     		cmp	r2, #3
 1681 0044 0DD0     		beq	.L134
 222:c:/Users/Black_Life/STM32Cube/Repository/STM32Cube_FW_F4_V1.26.2/Middlewares/Third_Party/LwIP/src/core/ipv4\etharp.c ****         /* Reset state to stable, so that the next transmitted packet will
 1682              		.loc 1 222 14 is_stmt 1 view .LVU462
 222:c:/Users/Black_Life/STM32Cube/Repository/STM32Cube_FW_F4_V1.26.2/Middlewares/Third_Party/LwIP/src/core/ipv4\etharp.c ****         /* Reset state to stable, so that the next transmitted packet will
 1683              		.loc 1 222 17 is_stmt 0 view .LVU463
 1684 0046 042A     		cmp	r2, #4
 1685 0048 13D0     		beq	.L135
 226:c:/Users/Black_Life/STM32Cube/Repository/STM32Cube_FW_F4_V1.26.2/Middlewares/Third_Party/LwIP/src/core/ipv4\etharp.c ****         /* still pending, resend an ARP query */
 1686              		.loc 1 226 14 is_stmt 1 view .LVU464
 226:c:/Users/Black_Life/STM32Cube/Repository/STM32Cube_FW_F4_V1.26.2/Middlewares/Third_Party/LwIP/src/core/ipv4\etharp.c ****         /* still pending, resend an ARP query */
 1687              		.loc 1 226 17 is_stmt 0 view .LVU465
 1688 004a 012A     		cmp	r2, #1
 1689 004c E0D1     		bne	.L125
 228:c:/Users/Black_Life/STM32Cube/Repository/STM32Cube_FW_F4_V1.26.2/Middlewares/Third_Party/LwIP/src/core/ipv4\etharp.c ****       }
 1690              		.loc 1 228 9 is_stmt 1 view .LVU466
 228:c:/Users/Black_Life/STM32Cube/Repository/STM32Cube_FW_F4_V1.26.2/Middlewares/Third_Party/LwIP/src/core/ipv4\etharp.c ****       }
 1691              		.loc 1 228 44 is_stmt 0 view .LVU467
 1692 004e 04EB4403 		add	r3, r4, r4, lsl #1
 1693 0052 DA00     		lsls	r2, r3, #3
 1694              	.LVL154:
 228:c:/Users/Black_Life/STM32Cube/Repository/STM32Cube_FW_F4_V1.26.2/Middlewares/Third_Party/LwIP/src/core/ipv4\etharp.c ****       }
 1695              		.loc 1 228 44 view .LVU468
 1696 0054 0B4B     		ldr	r3, .L136
 1697 0056 1344     		add	r3, r3, r2
 228:c:/Users/Black_Life/STM32Cube/Repository/STM32Cube_FW_F4_V1.26.2/Middlewares/Third_Party/LwIP/src/core/ipv4\etharp.c ****       }
 1698              		.loc 1 228 9 view .LVU469
 1699 0058 191D     		adds	r1, r3, #4
 1700              	.LVL155:
 228:c:/Users/Black_Life/STM32Cube/Repository/STM32Cube_FW_F4_V1.26.2/Middlewares/Third_Party/LwIP/src/core/ipv4\etharp.c ****       }
 1701              		.loc 1 228 9 view .LVU470
 1702 005a 9868     		ldr	r0, [r3, #8]
 1703 005c FFF7FEFF 		bl	etharp_request
 1704              	.LVL156:
 228:c:/Users/Black_Life/STM32Cube/Repository/STM32Cube_FW_F4_V1.26.2/Middlewares/Third_Party/LwIP/src/core/ipv4\etharp.c ****       }
 1705              		.loc 1 228 9 view .LVU471
 1706 0060 D6E7     		b	.L125
 1707              	.LVL157:
 1708              	.L134:
 221:c:/Users/Black_Life/STM32Cube/Repository/STM32Cube_FW_F4_V1.26.2/Middlewares/Third_Party/LwIP/src/core/ipv4\etharp.c ****       } else if (arp_table[i].state == ETHARP_STATE_STABLE_REREQUESTING_2) {
 1709              		.loc 1 221 9 is_stmt 1 view .LVU472
 221:c:/Users/Black_Life/STM32Cube/Repository/STM32Cube_FW_F4_V1.26.2/Middlewares/Third_Party/LwIP/src/core/ipv4\etharp.c ****       } else if (arp_table[i].state == ETHARP_STATE_STABLE_REREQUESTING_2) {
 1710              		.loc 1 221 28 is_stmt 0 view .LVU473
 1711 0062 04EB4403 		add	r3, r4, r4, lsl #1
 1712 0066 DA00     		lsls	r2, r3, #3
 1713              	.LVL158:
 221:c:/Users/Black_Life/STM32Cube/Repository/STM32Cube_FW_F4_V1.26.2/Middlewares/Third_Party/LwIP/src/core/ipv4\etharp.c ****       } else if (arp_table[i].state == ETHARP_STATE_STABLE_REREQUESTING_2) {
 1714              		.loc 1 221 28 view .LVU474
 1715 0068 064B     		ldr	r3, .L136
 1716 006a 1344     		add	r3, r3, r2
 1717 006c 0422     		movs	r2, #4
 1718 006e 1A75     		strb	r2, [r3, #20]
 1719              	.LVL159:
ARM GAS  C:\Users\BLACK_~1\AppData\Local\Temp\ccrhXwwe.s 			page 58


 221:c:/Users/Black_Life/STM32Cube/Repository/STM32Cube_FW_F4_V1.26.2/Middlewares/Third_Party/LwIP/src/core/ipv4\etharp.c ****       } else if (arp_table[i].state == ETHARP_STATE_STABLE_REREQUESTING_2) {
 1720              		.loc 1 221 28 view .LVU475
 1721 0070 CEE7     		b	.L125
 1722              	.LVL160:
 1723              	.L135:
 225:c:/Users/Black_Life/STM32Cube/Repository/STM32Cube_FW_F4_V1.26.2/Middlewares/Third_Party/LwIP/src/core/ipv4\etharp.c ****       } else if (arp_table[i].state == ETHARP_STATE_PENDING) {
 1724              		.loc 1 225 9 is_stmt 1 view .LVU476
 225:c:/Users/Black_Life/STM32Cube/Repository/STM32Cube_FW_F4_V1.26.2/Middlewares/Third_Party/LwIP/src/core/ipv4\etharp.c ****       } else if (arp_table[i].state == ETHARP_STATE_PENDING) {
 1725              		.loc 1 225 28 is_stmt 0 view .LVU477
 1726 0072 04EB4403 		add	r3, r4, r4, lsl #1
 1727 0076 DA00     		lsls	r2, r3, #3
 1728              	.LVL161:
 225:c:/Users/Black_Life/STM32Cube/Repository/STM32Cube_FW_F4_V1.26.2/Middlewares/Third_Party/LwIP/src/core/ipv4\etharp.c ****       } else if (arp_table[i].state == ETHARP_STATE_PENDING) {
 1729              		.loc 1 225 28 view .LVU478
 1730 0078 024B     		ldr	r3, .L136
 1731 007a 1344     		add	r3, r3, r2
 1732 007c 0222     		movs	r2, #2
 1733 007e 1A75     		strb	r2, [r3, #20]
 1734              	.LVL162:
 225:c:/Users/Black_Life/STM32Cube/Repository/STM32Cube_FW_F4_V1.26.2/Middlewares/Third_Party/LwIP/src/core/ipv4\etharp.c ****       } else if (arp_table[i].state == ETHARP_STATE_PENDING) {
 1735              		.loc 1 225 28 view .LVU479
 1736 0080 C6E7     		b	.L125
 1737              	.L132:
 225:c:/Users/Black_Life/STM32Cube/Repository/STM32Cube_FW_F4_V1.26.2/Middlewares/Third_Party/LwIP/src/core/ipv4\etharp.c ****       } else if (arp_table[i].state == ETHARP_STATE_PENDING) {
 1738              		.loc 1 225 28 view .LVU480
 1739              	.LBE8:
 232:c:/Users/Black_Life/STM32Cube/Repository/STM32Cube_FW_F4_V1.26.2/Middlewares/Third_Party/LwIP/src/core/ipv4\etharp.c **** 
 1740              		.loc 1 232 1 view .LVU481
 1741 0082 10BD     		pop	{r4, pc}
 1742              	.LVL163:
 1743              	.L137:
 232:c:/Users/Black_Life/STM32Cube/Repository/STM32Cube_FW_F4_V1.26.2/Middlewares/Third_Party/LwIP/src/core/ipv4\etharp.c **** 
 1744              		.loc 1 232 1 view .LVU482
 1745              		.align	2
 1746              	.L136:
 1747 0084 00000000 		.word	.LANCHOR0
 1748              		.cfi_endproc
 1749              	.LFE157:
 1751              		.section	.rodata.etharp_output_to_arp_index.str1.4,"aMS",%progbits,1
 1752              		.align	2
 1753              	.LC12:
 1754 0000 6172705F 		.ascii	"arp_table[arp_idx].state >= ETHARP_STATE_STABLE\000"
 1754      7461626C 
 1754      655B6172 
 1754      705F6964 
 1754      785D2E73 
 1755              		.section	.text.etharp_output_to_arp_index,"ax",%progbits
 1756              		.align	1
 1757              		.syntax unified
 1758              		.thumb
 1759              		.thumb_func
 1761              	etharp_output_to_arp_index:
 1762              	.LVL164:
 1763              	.LFB164:
 749:c:/Users/Black_Life/STM32Cube/Repository/STM32Cube_FW_F4_V1.26.2/Middlewares/Third_Party/LwIP/src/core/ipv4\etharp.c ****   LWIP_ASSERT("arp_table[arp_idx].state >= ETHARP_STATE_STABLE",
 1764              		.loc 1 749 1 is_stmt 1 view -0
 1765              		.cfi_startproc
ARM GAS  C:\Users\BLACK_~1\AppData\Local\Temp\ccrhXwwe.s 			page 59


 1766              		@ args = 0, pretend = 0, frame = 0
 1767              		@ frame_needed = 0, uses_anonymous_args = 0
 749:c:/Users/Black_Life/STM32Cube/Repository/STM32Cube_FW_F4_V1.26.2/Middlewares/Third_Party/LwIP/src/core/ipv4\etharp.c ****   LWIP_ASSERT("arp_table[arp_idx].state >= ETHARP_STATE_STABLE",
 1768              		.loc 1 749 1 is_stmt 0 view .LVU484
 1769 0000 70B5     		push	{r4, r5, r6, lr}
 1770              	.LCFI25:
 1771              		.cfi_def_cfa_offset 16
 1772              		.cfi_offset 4, -16
 1773              		.cfi_offset 5, -12
 1774              		.cfi_offset 6, -8
 1775              		.cfi_offset 14, -4
 1776 0002 82B0     		sub	sp, sp, #8
 1777              	.LCFI26:
 1778              		.cfi_def_cfa_offset 24
 1779 0004 0546     		mov	r5, r0
 1780 0006 0E46     		mov	r6, r1
 1781 0008 1446     		mov	r4, r2
 750:c:/Users/Black_Life/STM32Cube/Repository/STM32Cube_FW_F4_V1.26.2/Middlewares/Third_Party/LwIP/src/core/ipv4\etharp.c ****               arp_table[arp_idx].state >= ETHARP_STATE_STABLE);
 1782              		.loc 1 750 3 is_stmt 1 view .LVU485
 750:c:/Users/Black_Life/STM32Cube/Repository/STM32Cube_FW_F4_V1.26.2/Middlewares/Third_Party/LwIP/src/core/ipv4\etharp.c ****               arp_table[arp_idx].state >= ETHARP_STATE_STABLE);
 1783              		.loc 1 750 3 view .LVU486
 1784 000a 02EB4202 		add	r2, r2, r2, lsl #1
 1785              	.LVL165:
 750:c:/Users/Black_Life/STM32Cube/Repository/STM32Cube_FW_F4_V1.26.2/Middlewares/Third_Party/LwIP/src/core/ipv4\etharp.c ****               arp_table[arp_idx].state >= ETHARP_STATE_STABLE);
 1786              		.loc 1 750 3 is_stmt 0 view .LVU487
 1787 000e 2F4B     		ldr	r3, .L146
 1788 0010 03EBC203 		add	r3, r3, r2, lsl #3
 1789 0014 1B7D     		ldrb	r3, [r3, #20]	@ zero_extendqisi2
 1790 0016 012B     		cmp	r3, #1
 1791 0018 19D9     		bls	.L143
 1792              	.LVL166:
 1793              	.L139:
 750:c:/Users/Black_Life/STM32Cube/Repository/STM32Cube_FW_F4_V1.26.2/Middlewares/Third_Party/LwIP/src/core/ipv4\etharp.c ****               arp_table[arp_idx].state >= ETHARP_STATE_STABLE);
 1794              		.loc 1 750 3 is_stmt 1 discriminator 3 view .LVU488
 750:c:/Users/Black_Life/STM32Cube/Repository/STM32Cube_FW_F4_V1.26.2/Middlewares/Third_Party/LwIP/src/core/ipv4\etharp.c ****               arp_table[arp_idx].state >= ETHARP_STATE_STABLE);
 1795              		.loc 1 750 3 discriminator 3 view .LVU489
 755:c:/Users/Black_Life/STM32Cube/Repository/STM32Cube_FW_F4_V1.26.2/Middlewares/Third_Party/LwIP/src/core/ipv4\etharp.c ****     if (arp_table[arp_idx].ctime >= ARP_AGE_REREQUEST_USED_BROADCAST) {
 1796              		.loc 1 755 3 discriminator 3 view .LVU490
 755:c:/Users/Black_Life/STM32Cube/Repository/STM32Cube_FW_F4_V1.26.2/Middlewares/Third_Party/LwIP/src/core/ipv4\etharp.c ****     if (arp_table[arp_idx].ctime >= ARP_AGE_REREQUEST_USED_BROADCAST) {
 1797              		.loc 1 755 25 is_stmt 0 discriminator 3 view .LVU491
 1798 001a 04EB4403 		add	r3, r4, r4, lsl #1
 1799 001e 2B4A     		ldr	r2, .L146
 1800 0020 02EBC303 		add	r3, r2, r3, lsl #3
 1801 0024 1B7D     		ldrb	r3, [r3, #20]	@ zero_extendqisi2
 755:c:/Users/Black_Life/STM32Cube/Repository/STM32Cube_FW_F4_V1.26.2/Middlewares/Third_Party/LwIP/src/core/ipv4\etharp.c ****     if (arp_table[arp_idx].ctime >= ARP_AGE_REREQUEST_USED_BROADCAST) {
 1802              		.loc 1 755 6 discriminator 3 view .LVU492
 1803 0026 022B     		cmp	r3, #2
 1804 0028 19D0     		beq	.L144
 1805              	.L140:
 769:c:/Users/Black_Life/STM32Cube/Repository/STM32Cube_FW_F4_V1.26.2/Middlewares/Third_Party/LwIP/src/core/ipv4\etharp.c **** }
 1806              		.loc 1 769 3 is_stmt 1 view .LVU493
 769:c:/Users/Black_Life/STM32Cube/Repository/STM32Cube_FW_F4_V1.26.2/Middlewares/Third_Party/LwIP/src/core/ipv4\etharp.c **** }
 1807              		.loc 1 769 72 is_stmt 0 view .LVU494
 1808 002a 04EB4403 		add	r3, r4, r4, lsl #1
 1809 002e DB00     		lsls	r3, r3, #3
 1810 0030 0833     		adds	r3, r3, #8
 1811 0032 264C     		ldr	r4, .L146
ARM GAS  C:\Users\BLACK_~1\AppData\Local\Temp\ccrhXwwe.s 			page 60


 1812 0034 2344     		add	r3, r3, r4
 769:c:/Users/Black_Life/STM32Cube/Repository/STM32Cube_FW_F4_V1.26.2/Middlewares/Third_Party/LwIP/src/core/ipv4\etharp.c **** }
 1813              		.loc 1 769 10 view .LVU495
 1814 0036 4FF40062 		mov	r2, #2048
 1815 003a 0092     		str	r2, [sp]
 1816 003c 0433     		adds	r3, r3, #4
 1817 003e 05F12A02 		add	r2, r5, #42
 1818 0042 3146     		mov	r1, r6
 1819 0044 2846     		mov	r0, r5
 1820 0046 FFF7FEFF 		bl	ethernet_output
 1821              	.LVL167:
 770:c:/Users/Black_Life/STM32Cube/Repository/STM32Cube_FW_F4_V1.26.2/Middlewares/Third_Party/LwIP/src/core/ipv4\etharp.c **** 
 1822              		.loc 1 770 1 view .LVU496
 1823 004a 02B0     		add	sp, sp, #8
 1824              	.LCFI27:
 1825              		.cfi_remember_state
 1826              		.cfi_def_cfa_offset 16
 1827              		@ sp needed
 1828 004c 70BD     		pop	{r4, r5, r6, pc}
 1829              	.LVL168:
 1830              	.L143:
 1831              	.LCFI28:
 1832              		.cfi_restore_state
 750:c:/Users/Black_Life/STM32Cube/Repository/STM32Cube_FW_F4_V1.26.2/Middlewares/Third_Party/LwIP/src/core/ipv4\etharp.c ****               arp_table[arp_idx].state >= ETHARP_STATE_STABLE);
 1833              		.loc 1 750 3 is_stmt 1 discriminator 1 view .LVU497
 750:c:/Users/Black_Life/STM32Cube/Repository/STM32Cube_FW_F4_V1.26.2/Middlewares/Third_Party/LwIP/src/core/ipv4\etharp.c ****               arp_table[arp_idx].state >= ETHARP_STATE_STABLE);
 1834              		.loc 1 750 3 discriminator 1 view .LVU498
 1835 004e 204B     		ldr	r3, .L146+4
 1836 0050 40F2EE22 		movw	r2, #750
 1837 0054 1F49     		ldr	r1, .L146+8
 1838              	.LVL169:
 750:c:/Users/Black_Life/STM32Cube/Repository/STM32Cube_FW_F4_V1.26.2/Middlewares/Third_Party/LwIP/src/core/ipv4\etharp.c ****               arp_table[arp_idx].state >= ETHARP_STATE_STABLE);
 1839              		.loc 1 750 3 is_stmt 0 discriminator 1 view .LVU499
 1840 0056 2048     		ldr	r0, .L146+12
 1841              	.LVL170:
 750:c:/Users/Black_Life/STM32Cube/Repository/STM32Cube_FW_F4_V1.26.2/Middlewares/Third_Party/LwIP/src/core/ipv4\etharp.c ****               arp_table[arp_idx].state >= ETHARP_STATE_STABLE);
 1842              		.loc 1 750 3 discriminator 1 view .LVU500
 1843 0058 FFF7FEFF 		bl	printf
 1844              	.LVL171:
 1845 005c DDE7     		b	.L139
 1846              	.L144:
 756:c:/Users/Black_Life/STM32Cube/Repository/STM32Cube_FW_F4_V1.26.2/Middlewares/Third_Party/LwIP/src/core/ipv4\etharp.c ****       /* issue a standard request using broadcast */
 1847              		.loc 1 756 5 is_stmt 1 view .LVU501
 756:c:/Users/Black_Life/STM32Cube/Repository/STM32Cube_FW_F4_V1.26.2/Middlewares/Third_Party/LwIP/src/core/ipv4\etharp.c ****       /* issue a standard request using broadcast */
 1848              		.loc 1 756 27 is_stmt 0 view .LVU502
 1849 005e 04EB4403 		add	r3, r4, r4, lsl #1
 1850 0062 02EBC303 		add	r3, r2, r3, lsl #3
 1851 0066 5B8A     		ldrh	r3, [r3, #18]
 756:c:/Users/Black_Life/STM32Cube/Repository/STM32Cube_FW_F4_V1.26.2/Middlewares/Third_Party/LwIP/src/core/ipv4\etharp.c ****       /* issue a standard request using broadcast */
 1852              		.loc 1 756 8 view .LVU503
 1853 0068 B3F58E7F 		cmp	r3, #284
 1854 006c 1BD8     		bhi	.L145
 761:c:/Users/Black_Life/STM32Cube/Repository/STM32Cube_FW_F4_V1.26.2/Middlewares/Third_Party/LwIP/src/core/ipv4\etharp.c ****       /* issue a unicast request (for 15 seconds) to prevent unnecessary broadcast */
 1855              		.loc 1 761 12 is_stmt 1 view .LVU504
 761:c:/Users/Black_Life/STM32Cube/Repository/STM32Cube_FW_F4_V1.26.2/Middlewares/Third_Party/LwIP/src/core/ipv4\etharp.c ****       /* issue a unicast request (for 15 seconds) to prevent unnecessary broadcast */
 1856              		.loc 1 761 15 is_stmt 0 view .LVU505
 1857 006e B3F5877F 		cmp	r3, #270
ARM GAS  C:\Users\BLACK_~1\AppData\Local\Temp\ccrhXwwe.s 			page 61


 1858 0072 DAD3     		bcc	.L140
 763:c:/Users/Black_Life/STM32Cube/Repository/STM32Cube_FW_F4_V1.26.2/Middlewares/Third_Party/LwIP/src/core/ipv4\etharp.c ****         arp_table[arp_idx].state = ETHARP_STATE_STABLE_REREQUESTING_1;
 1859              		.loc 1 763 7 is_stmt 1 view .LVU506
 763:c:/Users/Black_Life/STM32Cube/Repository/STM32Cube_FW_F4_V1.26.2/Middlewares/Third_Party/LwIP/src/core/ipv4\etharp.c ****         arp_table[arp_idx].state = ETHARP_STATE_STABLE_REREQUESTING_1;
 1860              		.loc 1 763 37 is_stmt 0 view .LVU507
 1861 0074 154B     		ldr	r3, .L146
 1862 0076 04EB4401 		add	r1, r4, r4, lsl #1
 1863 007a 03EBC101 		add	r1, r3, r1, lsl #3
 763:c:/Users/Black_Life/STM32Cube/Repository/STM32Cube_FW_F4_V1.26.2/Middlewares/Third_Party/LwIP/src/core/ipv4\etharp.c ****         arp_table[arp_idx].state = ETHARP_STATE_STABLE_REREQUESTING_1;
 1864              		.loc 1 763 65 view .LVU508
 1865 007e 04EB4402 		add	r2, r4, r4, lsl #1
 1866 0082 D200     		lsls	r2, r2, #3
 1867 0084 0832     		adds	r2, r2, #8
 1868 0086 1A44     		add	r2, r2, r3
 763:c:/Users/Black_Life/STM32Cube/Repository/STM32Cube_FW_F4_V1.26.2/Middlewares/Third_Party/LwIP/src/core/ipv4\etharp.c ****         arp_table[arp_idx].state = ETHARP_STATE_STABLE_REREQUESTING_1;
 1869              		.loc 1 763 11 view .LVU509
 1870 0088 0432     		adds	r2, r2, #4
 1871 008a 0431     		adds	r1, r1, #4
 1872 008c 2846     		mov	r0, r5
 1873 008e FFF7FEFF 		bl	etharp_request_dst
 1874              	.LVL172:
 763:c:/Users/Black_Life/STM32Cube/Repository/STM32Cube_FW_F4_V1.26.2/Middlewares/Third_Party/LwIP/src/core/ipv4\etharp.c ****         arp_table[arp_idx].state = ETHARP_STATE_STABLE_REREQUESTING_1;
 1875              		.loc 1 763 10 view .LVU510
 1876 0092 0028     		cmp	r0, #0
 1877 0094 C9D1     		bne	.L140
 764:c:/Users/Black_Life/STM32Cube/Repository/STM32Cube_FW_F4_V1.26.2/Middlewares/Third_Party/LwIP/src/core/ipv4\etharp.c ****       }
 1878              		.loc 1 764 9 is_stmt 1 view .LVU511
 764:c:/Users/Black_Life/STM32Cube/Repository/STM32Cube_FW_F4_V1.26.2/Middlewares/Third_Party/LwIP/src/core/ipv4\etharp.c ****       }
 1879              		.loc 1 764 34 is_stmt 0 view .LVU512
 1880 0096 04EB4403 		add	r3, r4, r4, lsl #1
 1881 009a 0C4A     		ldr	r2, .L146
 1882 009c 02EBC303 		add	r3, r2, r3, lsl #3
 1883 00a0 0322     		movs	r2, #3
 1884 00a2 1A75     		strb	r2, [r3, #20]
 1885 00a4 C1E7     		b	.L140
 1886              	.L145:
 758:c:/Users/Black_Life/STM32Cube/Repository/STM32Cube_FW_F4_V1.26.2/Middlewares/Third_Party/LwIP/src/core/ipv4\etharp.c ****         arp_table[arp_idx].state = ETHARP_STATE_STABLE_REREQUESTING_1;
 1887              		.loc 1 758 7 is_stmt 1 view .LVU513
 758:c:/Users/Black_Life/STM32Cube/Repository/STM32Cube_FW_F4_V1.26.2/Middlewares/Third_Party/LwIP/src/core/ipv4\etharp.c ****         arp_table[arp_idx].state = ETHARP_STATE_STABLE_REREQUESTING_1;
 1888              		.loc 1 758 33 is_stmt 0 view .LVU514
 1889 00a6 04EB4401 		add	r1, r4, r4, lsl #1
 1890 00aa 02EBC101 		add	r1, r2, r1, lsl #3
 758:c:/Users/Black_Life/STM32Cube/Repository/STM32Cube_FW_F4_V1.26.2/Middlewares/Third_Party/LwIP/src/core/ipv4\etharp.c ****         arp_table[arp_idx].state = ETHARP_STATE_STABLE_REREQUESTING_1;
 1891              		.loc 1 758 11 view .LVU515
 1892 00ae 0431     		adds	r1, r1, #4
 1893 00b0 2846     		mov	r0, r5
 1894 00b2 FFF7FEFF 		bl	etharp_request
 1895              	.LVL173:
 758:c:/Users/Black_Life/STM32Cube/Repository/STM32Cube_FW_F4_V1.26.2/Middlewares/Third_Party/LwIP/src/core/ipv4\etharp.c ****         arp_table[arp_idx].state = ETHARP_STATE_STABLE_REREQUESTING_1;
 1896              		.loc 1 758 10 view .LVU516
 1897 00b6 0028     		cmp	r0, #0
 1898 00b8 B7D1     		bne	.L140
 759:c:/Users/Black_Life/STM32Cube/Repository/STM32Cube_FW_F4_V1.26.2/Middlewares/Third_Party/LwIP/src/core/ipv4\etharp.c ****       }
 1899              		.loc 1 759 9 is_stmt 1 view .LVU517
 759:c:/Users/Black_Life/STM32Cube/Repository/STM32Cube_FW_F4_V1.26.2/Middlewares/Third_Party/LwIP/src/core/ipv4\etharp.c ****       }
 1900              		.loc 1 759 34 is_stmt 0 view .LVU518
 1901 00ba 04EB4403 		add	r3, r4, r4, lsl #1
ARM GAS  C:\Users\BLACK_~1\AppData\Local\Temp\ccrhXwwe.s 			page 62


 1902 00be 034A     		ldr	r2, .L146
 1903 00c0 02EBC303 		add	r3, r2, r3, lsl #3
 1904 00c4 0322     		movs	r2, #3
 1905 00c6 1A75     		strb	r2, [r3, #20]
 1906 00c8 AFE7     		b	.L140
 1907              	.L147:
 1908 00ca 00BF     		.align	2
 1909              	.L146:
 1910 00cc 00000000 		.word	.LANCHOR0
 1911 00d0 00000000 		.word	.LC0
 1912 00d4 00000000 		.word	.LC12
 1913 00d8 90000000 		.word	.LC2
 1914              		.cfi_endproc
 1915              	.LFE164:
 1917              		.section	.rodata.etharp_query.str1.4,"aMS",%progbits,1
 1918              		.align	2
 1919              	.LC13:
 1920 0000 74797065 		.ascii	"type overflow\000"
 1920      206F7665 
 1920      72666C6F 
 1920      7700
 1921 000e 0000     		.align	2
 1922              	.LC14:
 1923 0010 6172705F 		.ascii	"arp_table[i].state == PENDING or STABLE\000"
 1923      7461626C 
 1923      655B695D 
 1923      2E737461 
 1923      7465203D 
 1924              		.align	2
 1925              	.LC15:
 1926 0038 7120213D 		.ascii	"q != NULL\000"
 1926      204E554C 
 1926      4C00
 1927 0042 0000     		.align	2
 1928              	.LC16:
 1929 0044 6E6F2070 		.ascii	"no packet queues allowed!\000"
 1929      61636B65 
 1929      74207175 
 1929      65756573 
 1929      20616C6C 
 1930              		.section	.text.etharp_query,"ax",%progbits
 1931              		.align	1
 1932              		.global	etharp_query
 1933              		.syntax unified
 1934              		.thumb
 1935              		.thumb_func
 1937              	etharp_query:
 1938              	.LVL174:
 1939              	.LFB166:
 934:c:/Users/Black_Life/STM32Cube/Repository/STM32Cube_FW_F4_V1.26.2/Middlewares/Third_Party/LwIP/src/core/ipv4\etharp.c ****   struct eth_addr *srcaddr = (struct eth_addr *)netif->hwaddr;
 1940              		.loc 1 934 1 is_stmt 1 view -0
 1941              		.cfi_startproc
 1942              		@ args = 0, pretend = 0, frame = 0
 1943              		@ frame_needed = 0, uses_anonymous_args = 0
 934:c:/Users/Black_Life/STM32Cube/Repository/STM32Cube_FW_F4_V1.26.2/Middlewares/Third_Party/LwIP/src/core/ipv4\etharp.c ****   struct eth_addr *srcaddr = (struct eth_addr *)netif->hwaddr;
 1944              		.loc 1 934 1 is_stmt 0 view .LVU520
 1945 0000 2DE9F043 		push	{r4, r5, r6, r7, r8, r9, lr}
ARM GAS  C:\Users\BLACK_~1\AppData\Local\Temp\ccrhXwwe.s 			page 63


 1946              	.LCFI29:
 1947              		.cfi_def_cfa_offset 28
 1948              		.cfi_offset 4, -28
 1949              		.cfi_offset 5, -24
 1950              		.cfi_offset 6, -20
 1951              		.cfi_offset 7, -16
 1952              		.cfi_offset 8, -12
 1953              		.cfi_offset 9, -8
 1954              		.cfi_offset 14, -4
 1955 0004 83B0     		sub	sp, sp, #12
 1956              	.LCFI30:
 1957              		.cfi_def_cfa_offset 40
 1958 0006 8046     		mov	r8, r0
 1959 0008 0E46     		mov	r6, r1
 1960 000a 1746     		mov	r7, r2
 935:c:/Users/Black_Life/STM32Cube/Repository/STM32Cube_FW_F4_V1.26.2/Middlewares/Third_Party/LwIP/src/core/ipv4\etharp.c ****   err_t result = ERR_MEM;
 1961              		.loc 1 935 3 is_stmt 1 view .LVU521
 935:c:/Users/Black_Life/STM32Cube/Repository/STM32Cube_FW_F4_V1.26.2/Middlewares/Third_Party/LwIP/src/core/ipv4\etharp.c ****   err_t result = ERR_MEM;
 1962              		.loc 1 935 20 is_stmt 0 view .LVU522
 1963 000c 00F12A09 		add	r9, r0, #42
 1964              	.LVL175:
 936:c:/Users/Black_Life/STM32Cube/Repository/STM32Cube_FW_F4_V1.26.2/Middlewares/Third_Party/LwIP/src/core/ipv4\etharp.c ****   int is_new_entry = 0;
 1965              		.loc 1 936 3 is_stmt 1 view .LVU523
 937:c:/Users/Black_Life/STM32Cube/Repository/STM32Cube_FW_F4_V1.26.2/Middlewares/Third_Party/LwIP/src/core/ipv4\etharp.c ****   s16_t i_err;
 1966              		.loc 1 937 3 view .LVU524
 938:c:/Users/Black_Life/STM32Cube/Repository/STM32Cube_FW_F4_V1.26.2/Middlewares/Third_Party/LwIP/src/core/ipv4\etharp.c ****   netif_addr_idx_t i;
 1967              		.loc 1 938 3 view .LVU525
 939:c:/Users/Black_Life/STM32Cube/Repository/STM32Cube_FW_F4_V1.26.2/Middlewares/Third_Party/LwIP/src/core/ipv4\etharp.c **** 
 1968              		.loc 1 939 3 view .LVU526
 942:c:/Users/Black_Life/STM32Cube/Repository/STM32Cube_FW_F4_V1.26.2/Middlewares/Third_Party/LwIP/src/core/ipv4\etharp.c ****       ip4_addr_ismulticast(ipaddr) ||
 1969              		.loc 1 942 3 view .LVU527
 942:c:/Users/Black_Life/STM32Cube/Repository/STM32Cube_FW_F4_V1.26.2/Middlewares/Third_Party/LwIP/src/core/ipv4\etharp.c ****       ip4_addr_ismulticast(ipaddr) ||
 1970              		.loc 1 942 7 is_stmt 0 view .LVU528
 1971 0010 0146     		mov	r1, r0
 1972              	.LVL176:
 942:c:/Users/Black_Life/STM32Cube/Repository/STM32Cube_FW_F4_V1.26.2/Middlewares/Third_Party/LwIP/src/core/ipv4\etharp.c ****       ip4_addr_ismulticast(ipaddr) ||
 1973              		.loc 1 942 7 view .LVU529
 1974 0012 3068     		ldr	r0, [r6]
 1975              	.LVL177:
 942:c:/Users/Black_Life/STM32Cube/Repository/STM32Cube_FW_F4_V1.26.2/Middlewares/Third_Party/LwIP/src/core/ipv4\etharp.c ****       ip4_addr_ismulticast(ipaddr) ||
 1976              		.loc 1 942 7 view .LVU530
 1977 0014 FFF7FEFF 		bl	ip4_addr_isbroadcast_u32
 1978              	.LVL178:
 942:c:/Users/Black_Life/STM32Cube/Repository/STM32Cube_FW_F4_V1.26.2/Middlewares/Third_Party/LwIP/src/core/ipv4\etharp.c ****       ip4_addr_ismulticast(ipaddr) ||
 1979              		.loc 1 942 6 view .LVU531
 1980 0018 0028     		cmp	r0, #0
 1981 001a 40F0AB80 		bne	.L165
 943:c:/Users/Black_Life/STM32Cube/Repository/STM32Cube_FW_F4_V1.26.2/Middlewares/Third_Party/LwIP/src/core/ipv4\etharp.c ****       ip4_addr_isany(ipaddr)) {
 1982              		.loc 1 943 7 discriminator 1 view .LVU532
 1983 001e 3368     		ldr	r3, [r6]
 1984 0020 03F0F002 		and	r2, r3, #240
 942:c:/Users/Black_Life/STM32Cube/Repository/STM32Cube_FW_F4_V1.26.2/Middlewares/Third_Party/LwIP/src/core/ipv4\etharp.c ****       ip4_addr_ismulticast(ipaddr) ||
 1985              		.loc 1 942 43 discriminator 1 view .LVU533
 1986 0024 E02A     		cmp	r2, #224
 1987 0026 00F0A880 		beq	.L166
 943:c:/Users/Black_Life/STM32Cube/Repository/STM32Cube_FW_F4_V1.26.2/Middlewares/Third_Party/LwIP/src/core/ipv4\etharp.c ****       ip4_addr_isany(ipaddr)) {
 1988              		.loc 1 943 36 view .LVU534
ARM GAS  C:\Users\BLACK_~1\AppData\Local\Temp\ccrhXwwe.s 			page 64


 1989 002a 002E     		cmp	r6, #0
 1990 002c 00F0A880 		beq	.L167
 944:c:/Users/Black_Life/STM32Cube/Repository/STM32Cube_FW_F4_V1.26.2/Middlewares/Third_Party/LwIP/src/core/ipv4\etharp.c ****     LWIP_DEBUGF(ETHARP_DEBUG | LWIP_DBG_TRACE, ("etharp_query: will not add non-unicast IP address 
 1991              		.loc 1 944 7 view .LVU535
 1992 0030 002B     		cmp	r3, #0
 1993 0032 00F0A880 		beq	.L168
 950:c:/Users/Black_Life/STM32Cube/Repository/STM32Cube_FW_F4_V1.26.2/Middlewares/Third_Party/LwIP/src/core/ipv4\etharp.c **** 
 1994              		.loc 1 950 3 is_stmt 1 view .LVU536
 950:c:/Users/Black_Life/STM32Cube/Repository/STM32Cube_FW_F4_V1.26.2/Middlewares/Third_Party/LwIP/src/core/ipv4\etharp.c **** 
 1995              		.loc 1 950 11 is_stmt 0 view .LVU537
 1996 0036 4246     		mov	r2, r8
 1997 0038 0121     		movs	r1, #1
 1998 003a 3046     		mov	r0, r6
 1999 003c FFF7FEFF 		bl	etharp_find_entry
 2000              	.LVL179:
 953:c:/Users/Black_Life/STM32Cube/Repository/STM32Cube_FW_F4_V1.26.2/Middlewares/Third_Party/LwIP/src/core/ipv4\etharp.c ****     LWIP_DEBUGF(ETHARP_DEBUG | LWIP_DBG_TRACE, ("etharp_query: could not create ARP entry\n"));
 2001              		.loc 1 953 3 is_stmt 1 view .LVU538
 953:c:/Users/Black_Life/STM32Cube/Repository/STM32Cube_FW_F4_V1.26.2/Middlewares/Third_Party/LwIP/src/core/ipv4\etharp.c ****     LWIP_DEBUGF(ETHARP_DEBUG | LWIP_DBG_TRACE, ("etharp_query: could not create ARP entry\n"));
 2002              		.loc 1 953 6 is_stmt 0 view .LVU539
 2003 0040 051E     		subs	r5, r0, #0
 2004 0042 2ADB     		blt	.L175
 961:c:/Users/Black_Life/STM32Cube/Repository/STM32Cube_FW_F4_V1.26.2/Middlewares/Third_Party/LwIP/src/core/ipv4\etharp.c ****   i = (netif_addr_idx_t)i_err;
 2005              		.loc 1 961 3 is_stmt 1 view .LVU540
 961:c:/Users/Black_Life/STM32Cube/Repository/STM32Cube_FW_F4_V1.26.2/Middlewares/Third_Party/LwIP/src/core/ipv4\etharp.c ****   i = (netif_addr_idx_t)i_err;
 2006              		.loc 1 961 3 view .LVU541
 2007 0044 ABB2     		uxth	r3, r5
 2008 0046 7E2B     		cmp	r3, #126
 2009 0048 29D8     		bhi	.L176
 2010              	.LVL180:
 2011              	.L151:
 961:c:/Users/Black_Life/STM32Cube/Repository/STM32Cube_FW_F4_V1.26.2/Middlewares/Third_Party/LwIP/src/core/ipv4\etharp.c ****   i = (netif_addr_idx_t)i_err;
 2012              		.loc 1 961 3 discriminator 3 view .LVU542
 961:c:/Users/Black_Life/STM32Cube/Repository/STM32Cube_FW_F4_V1.26.2/Middlewares/Third_Party/LwIP/src/core/ipv4\etharp.c ****   i = (netif_addr_idx_t)i_err;
 2013              		.loc 1 961 3 discriminator 3 view .LVU543
 962:c:/Users/Black_Life/STM32Cube/Repository/STM32Cube_FW_F4_V1.26.2/Middlewares/Third_Party/LwIP/src/core/ipv4\etharp.c **** 
 2014              		.loc 1 962 3 discriminator 3 view .LVU544
 962:c:/Users/Black_Life/STM32Cube/Repository/STM32Cube_FW_F4_V1.26.2/Middlewares/Third_Party/LwIP/src/core/ipv4\etharp.c **** 
 2015              		.loc 1 962 5 is_stmt 0 discriminator 3 view .LVU545
 2016 004a EDB2     		uxtb	r5, r5
 2017              	.LVL181:
 965:c:/Users/Black_Life/STM32Cube/Repository/STM32Cube_FW_F4_V1.26.2/Middlewares/Third_Party/LwIP/src/core/ipv4\etharp.c ****     is_new_entry = 1;
 2018              		.loc 1 965 3 is_stmt 1 discriminator 3 view .LVU546
 965:c:/Users/Black_Life/STM32Cube/Repository/STM32Cube_FW_F4_V1.26.2/Middlewares/Third_Party/LwIP/src/core/ipv4\etharp.c ****     is_new_entry = 1;
 2019              		.loc 1 965 19 is_stmt 0 discriminator 3 view .LVU547
 2020 004c 05EB4502 		add	r2, r5, r5, lsl #1
 2021 0050 504B     		ldr	r3, .L181
 2022 0052 03EBC203 		add	r3, r3, r2, lsl #3
 2023 0056 1B7D     		ldrb	r3, [r3, #20]	@ zero_extendqisi2
 965:c:/Users/Black_Life/STM32Cube/Repository/STM32Cube_FW_F4_V1.26.2/Middlewares/Third_Party/LwIP/src/core/ipv4\etharp.c ****     is_new_entry = 1;
 2024              		.loc 1 965 6 discriminator 3 view .LVU548
 2025 0058 4BBB     		cbnz	r3, .L169
 966:c:/Users/Black_Life/STM32Cube/Repository/STM32Cube_FW_F4_V1.26.2/Middlewares/Third_Party/LwIP/src/core/ipv4\etharp.c ****     arp_table[i].state = ETHARP_STATE_PENDING;
 2026              		.loc 1 966 5 is_stmt 1 view .LVU549
 2027              	.LVL182:
 967:c:/Users/Black_Life/STM32Cube/Repository/STM32Cube_FW_F4_V1.26.2/Middlewares/Third_Party/LwIP/src/core/ipv4\etharp.c ****     /* record network interface for re-sending arp request in etharp_tmr */
 2028              		.loc 1 967 5 view .LVU550
 967:c:/Users/Black_Life/STM32Cube/Repository/STM32Cube_FW_F4_V1.26.2/Middlewares/Third_Party/LwIP/src/core/ipv4\etharp.c ****     /* record network interface for re-sending arp request in etharp_tmr */
ARM GAS  C:\Users\BLACK_~1\AppData\Local\Temp\ccrhXwwe.s 			page 65


 2029              		.loc 1 967 24 is_stmt 0 view .LVU551
 2030 005a 1346     		mov	r3, r2
 2031 005c 4D4A     		ldr	r2, .L181
 2032 005e 02EBC303 		add	r3, r2, r3, lsl #3
 2033 0062 0124     		movs	r4, #1
 2034 0064 1C75     		strb	r4, [r3, #20]
 969:c:/Users/Black_Life/STM32Cube/Repository/STM32Cube_FW_F4_V1.26.2/Middlewares/Third_Party/LwIP/src/core/ipv4\etharp.c ****   }
 2035              		.loc 1 969 5 is_stmt 1 view .LVU552
 969:c:/Users/Black_Life/STM32Cube/Repository/STM32Cube_FW_F4_V1.26.2/Middlewares/Third_Party/LwIP/src/core/ipv4\etharp.c ****   }
 2036              		.loc 1 969 24 is_stmt 0 view .LVU553
 2037 0066 C3F80880 		str	r8, [r3, #8]
 2038              	.LVL183:
 2039              	.L152:
 973:c:/Users/Black_Life/STM32Cube/Repository/STM32Cube_FW_F4_V1.26.2/Middlewares/Third_Party/LwIP/src/core/ipv4\etharp.c ****               ((arp_table[i].state == ETHARP_STATE_PENDING) ||
 2040              		.loc 1 973 3 is_stmt 1 view .LVU554
 973:c:/Users/Black_Life/STM32Cube/Repository/STM32Cube_FW_F4_V1.26.2/Middlewares/Third_Party/LwIP/src/core/ipv4\etharp.c ****               ((arp_table[i].state == ETHARP_STATE_PENDING) ||
 2041              		.loc 1 973 3 view .LVU555
 2042 006a 05EB4503 		add	r3, r5, r5, lsl #1
 2043 006e 494A     		ldr	r2, .L181
 2044 0070 02EBC303 		add	r3, r2, r3, lsl #3
 2045 0074 1B7D     		ldrb	r3, [r3, #20]	@ zero_extendqisi2
 2046 0076 E3B1     		cbz	r3, .L177
 2047              	.L153:
 973:c:/Users/Black_Life/STM32Cube/Repository/STM32Cube_FW_F4_V1.26.2/Middlewares/Third_Party/LwIP/src/core/ipv4\etharp.c ****               ((arp_table[i].state == ETHARP_STATE_PENDING) ||
 2048              		.loc 1 973 3 discriminator 3 view .LVU556
 973:c:/Users/Black_Life/STM32Cube/Repository/STM32Cube_FW_F4_V1.26.2/Middlewares/Third_Party/LwIP/src/core/ipv4\etharp.c ****               ((arp_table[i].state == ETHARP_STATE_PENDING) ||
 2049              		.loc 1 973 3 discriminator 3 view .LVU557
 978:c:/Users/Black_Life/STM32Cube/Repository/STM32Cube_FW_F4_V1.26.2/Middlewares/Third_Party/LwIP/src/core/ipv4\etharp.c ****     /* try to resolve it; send out ARP request */
 2050              		.loc 1 978 3 discriminator 3 view .LVU558
 978:c:/Users/Black_Life/STM32Cube/Repository/STM32Cube_FW_F4_V1.26.2/Middlewares/Third_Party/LwIP/src/core/ipv4\etharp.c ****     /* try to resolve it; send out ARP request */
 2051              		.loc 1 978 6 is_stmt 0 discriminator 3 view .LVU559
 2052 0078 1CBB     		cbnz	r4, .L154
 978:c:/Users/Black_Life/STM32Cube/Repository/STM32Cube_FW_F4_V1.26.2/Middlewares/Third_Party/LwIP/src/core/ipv4\etharp.c ****     /* try to resolve it; send out ARP request */
 2053              		.loc 1 978 20 discriminator 1 view .LVU560
 2054 007a 17B3     		cbz	r7, .L154
 936:c:/Users/Black_Life/STM32Cube/Repository/STM32Cube_FW_F4_V1.26.2/Middlewares/Third_Party/LwIP/src/core/ipv4\etharp.c ****   int is_new_entry = 0;
 2055              		.loc 1 936 9 view .LVU561
 2056 007c 4FF0FF34 		mov	r4, #-1
 2057              	.LVL184:
 2058              	.L155:
 993:c:/Users/Black_Life/STM32Cube/Repository/STM32Cube_FW_F4_V1.26.2/Middlewares/Third_Party/LwIP/src/core/ipv4\etharp.c ****   /* stable entry? */
 2059              		.loc 1 993 3 is_stmt 1 view .LVU562
 993:c:/Users/Black_Life/STM32Cube/Repository/STM32Cube_FW_F4_V1.26.2/Middlewares/Third_Party/LwIP/src/core/ipv4\etharp.c ****   /* stable entry? */
 2060              		.loc 1 993 3 view .LVU563
 2061 0080 3FB3     		cbz	r7, .L178
 2062              	.L156:
 993:c:/Users/Black_Life/STM32Cube/Repository/STM32Cube_FW_F4_V1.26.2/Middlewares/Third_Party/LwIP/src/core/ipv4\etharp.c ****   /* stable entry? */
 2063              		.loc 1 993 3 discriminator 3 view .LVU564
 993:c:/Users/Black_Life/STM32Cube/Repository/STM32Cube_FW_F4_V1.26.2/Middlewares/Third_Party/LwIP/src/core/ipv4\etharp.c ****   /* stable entry? */
 2064              		.loc 1 993 3 discriminator 3 view .LVU565
 995:c:/Users/Black_Life/STM32Cube/Repository/STM32Cube_FW_F4_V1.26.2/Middlewares/Third_Party/LwIP/src/core/ipv4\etharp.c ****     /* we have a valid IP->Ethernet address mapping */
 2065              		.loc 1 995 3 discriminator 3 view .LVU566
 995:c:/Users/Black_Life/STM32Cube/Repository/STM32Cube_FW_F4_V1.26.2/Middlewares/Third_Party/LwIP/src/core/ipv4\etharp.c ****     /* we have a valid IP->Ethernet address mapping */
 2066              		.loc 1 995 19 is_stmt 0 discriminator 3 view .LVU567
 2067 0082 05EB4503 		add	r3, r5, r5, lsl #1
 2068 0086 434A     		ldr	r2, .L181
 2069 0088 02EBC303 		add	r3, r2, r3, lsl #3
ARM GAS  C:\Users\BLACK_~1\AppData\Local\Temp\ccrhXwwe.s 			page 66


 2070 008c 1B7D     		ldrb	r3, [r3, #20]	@ zero_extendqisi2
 995:c:/Users/Black_Life/STM32Cube/Repository/STM32Cube_FW_F4_V1.26.2/Middlewares/Third_Party/LwIP/src/core/ipv4\etharp.c ****     /* we have a valid IP->Ethernet address mapping */
 2071              		.loc 1 995 6 discriminator 3 view .LVU568
 2072 008e 012B     		cmp	r3, #1
 2073 0090 27D8     		bhi	.L179
1001:c:/Users/Black_Life/STM32Cube/Repository/STM32Cube_FW_F4_V1.26.2/Middlewares/Third_Party/LwIP/src/core/ipv4\etharp.c ****     /* entry is still pending, queue the given packet 'q' */
 2074              		.loc 1 1001 10 is_stmt 1 view .LVU569
1001:c:/Users/Black_Life/STM32Cube/Repository/STM32Cube_FW_F4_V1.26.2/Middlewares/Third_Party/LwIP/src/core/ipv4\etharp.c ****     /* entry is still pending, queue the given packet 'q' */
 2075              		.loc 1 1001 13 is_stmt 0 view .LVU570
 2076 0092 012B     		cmp	r3, #1
 2077 0094 36D1     		bne	.L149
 2078              	.LBB9:
1007:c:/Users/Black_Life/STM32Cube/Repository/STM32Cube_FW_F4_V1.26.2/Middlewares/Third_Party/LwIP/src/core/ipv4\etharp.c ****     while (p) {
 2079              		.loc 1 1007 7 view .LVU571
 2080 0096 3C46     		mov	r4, r7
 2081              	.LVL185:
1007:c:/Users/Black_Life/STM32Cube/Repository/STM32Cube_FW_F4_V1.26.2/Middlewares/Third_Party/LwIP/src/core/ipv4\etharp.c ****     while (p) {
 2082              		.loc 1 1007 7 view .LVU572
 2083 0098 3DE0     		b	.L158
 2084              	.LVL186:
 2085              	.L175:
1007:c:/Users/Black_Life/STM32Cube/Repository/STM32Cube_FW_F4_V1.26.2/Middlewares/Third_Party/LwIP/src/core/ipv4\etharp.c ****     while (p) {
 2086              		.loc 1 1007 7 view .LVU573
 2087              	.LBE9:
 954:c:/Users/Black_Life/STM32Cube/Repository/STM32Cube_FW_F4_V1.26.2/Middlewares/Third_Party/LwIP/src/core/ipv4\etharp.c ****     if (q) {
 2088              		.loc 1 954 95 is_stmt 1 view .LVU574
 955:c:/Users/Black_Life/STM32Cube/Repository/STM32Cube_FW_F4_V1.26.2/Middlewares/Third_Party/LwIP/src/core/ipv4\etharp.c ****       LWIP_DEBUGF(ETHARP_DEBUG | LWIP_DBG_TRACE, ("etharp_query: packet dropped\n"));
 2089              		.loc 1 955 5 view .LVU575
 956:c:/Users/Black_Life/STM32Cube/Repository/STM32Cube_FW_F4_V1.26.2/Middlewares/Third_Party/LwIP/src/core/ipv4\etharp.c ****       ETHARP_STATS_INC(etharp.memerr);
 2090              		.loc 1 956 85 view .LVU576
 957:c:/Users/Black_Life/STM32Cube/Repository/STM32Cube_FW_F4_V1.26.2/Middlewares/Third_Party/LwIP/src/core/ipv4\etharp.c ****     }
 2091              		.loc 1 957 38 view .LVU577
 959:c:/Users/Black_Life/STM32Cube/Repository/STM32Cube_FW_F4_V1.26.2/Middlewares/Third_Party/LwIP/src/core/ipv4\etharp.c ****   }
 2092              		.loc 1 959 5 view .LVU578
 959:c:/Users/Black_Life/STM32Cube/Repository/STM32Cube_FW_F4_V1.26.2/Middlewares/Third_Party/LwIP/src/core/ipv4\etharp.c ****   }
 2093              		.loc 1 959 12 is_stmt 0 view .LVU579
 2094 009a 6CB2     		sxtb	r4, r5
 2095 009c 32E0     		b	.L149
 2096              	.L176:
 961:c:/Users/Black_Life/STM32Cube/Repository/STM32Cube_FW_F4_V1.26.2/Middlewares/Third_Party/LwIP/src/core/ipv4\etharp.c ****   i = (netif_addr_idx_t)i_err;
 2097              		.loc 1 961 3 is_stmt 1 discriminator 1 view .LVU580
 961:c:/Users/Black_Life/STM32Cube/Repository/STM32Cube_FW_F4_V1.26.2/Middlewares/Third_Party/LwIP/src/core/ipv4\etharp.c ****   i = (netif_addr_idx_t)i_err;
 2098              		.loc 1 961 3 discriminator 1 view .LVU581
 2099 009e 3E4B     		ldr	r3, .L181+4
 2100 00a0 40F2C132 		movw	r2, #961
 2101 00a4 3D49     		ldr	r1, .L181+8
 2102 00a6 3E48     		ldr	r0, .L181+12
 2103              	.LVL187:
 961:c:/Users/Black_Life/STM32Cube/Repository/STM32Cube_FW_F4_V1.26.2/Middlewares/Third_Party/LwIP/src/core/ipv4\etharp.c ****   i = (netif_addr_idx_t)i_err;
 2104              		.loc 1 961 3 is_stmt 0 discriminator 1 view .LVU582
 2105 00a8 FFF7FEFF 		bl	printf
 2106              	.LVL188:
 2107 00ac CDE7     		b	.L151
 2108              	.LVL189:
 2109              	.L169:
 937:c:/Users/Black_Life/STM32Cube/Repository/STM32Cube_FW_F4_V1.26.2/Middlewares/Third_Party/LwIP/src/core/ipv4\etharp.c ****   s16_t i_err;
 2110              		.loc 1 937 7 view .LVU583
ARM GAS  C:\Users\BLACK_~1\AppData\Local\Temp\ccrhXwwe.s 			page 67


 2111 00ae 0024     		movs	r4, #0
 2112 00b0 DBE7     		b	.L152
 2113              	.LVL190:
 2114              	.L177:
 973:c:/Users/Black_Life/STM32Cube/Repository/STM32Cube_FW_F4_V1.26.2/Middlewares/Third_Party/LwIP/src/core/ipv4\etharp.c ****               ((arp_table[i].state == ETHARP_STATE_PENDING) ||
 2115              		.loc 1 973 3 is_stmt 1 discriminator 1 view .LVU584
 973:c:/Users/Black_Life/STM32Cube/Repository/STM32Cube_FW_F4_V1.26.2/Middlewares/Third_Party/LwIP/src/core/ipv4\etharp.c ****               ((arp_table[i].state == ETHARP_STATE_PENDING) ||
 2116              		.loc 1 973 3 discriminator 1 view .LVU585
 2117 00b2 394B     		ldr	r3, .L181+4
 2118 00b4 40F2CD32 		movw	r2, #973
 2119 00b8 3A49     		ldr	r1, .L181+16
 2120 00ba 3948     		ldr	r0, .L181+12
 2121 00bc FFF7FEFF 		bl	printf
 2122              	.LVL191:
 2123 00c0 DAE7     		b	.L153
 2124              	.L154:
 980:c:/Users/Black_Life/STM32Cube/Repository/STM32Cube_FW_F4_V1.26.2/Middlewares/Third_Party/LwIP/src/core/ipv4\etharp.c ****     if (result != ERR_OK) {
 2125              		.loc 1 980 5 view .LVU586
 980:c:/Users/Black_Life/STM32Cube/Repository/STM32Cube_FW_F4_V1.26.2/Middlewares/Third_Party/LwIP/src/core/ipv4\etharp.c ****     if (result != ERR_OK) {
 2126              		.loc 1 980 14 is_stmt 0 view .LVU587
 2127 00c2 3146     		mov	r1, r6
 2128 00c4 4046     		mov	r0, r8
 2129 00c6 FFF7FEFF 		bl	etharp_request
 2130              	.LVL192:
 2131 00ca 0446     		mov	r4, r0
 2132              	.LVL193:
 981:c:/Users/Black_Life/STM32Cube/Repository/STM32Cube_FW_F4_V1.26.2/Middlewares/Third_Party/LwIP/src/core/ipv4\etharp.c ****       /* ARP request couldn't be sent */
 2133              		.loc 1 981 5 is_stmt 1 view .LVU588
 986:c:/Users/Black_Life/STM32Cube/Repository/STM32Cube_FW_F4_V1.26.2/Middlewares/Third_Party/LwIP/src/core/ipv4\etharp.c ****     if (q == NULL) {
 2134              		.loc 1 986 5 view .LVU589
 987:c:/Users/Black_Life/STM32Cube/Repository/STM32Cube_FW_F4_V1.26.2/Middlewares/Third_Party/LwIP/src/core/ipv4\etharp.c ****       return result;
 2135              		.loc 1 987 5 view .LVU590
 987:c:/Users/Black_Life/STM32Cube/Repository/STM32Cube_FW_F4_V1.26.2/Middlewares/Third_Party/LwIP/src/core/ipv4\etharp.c ****       return result;
 2136              		.loc 1 987 8 is_stmt 0 view .LVU591
 2137 00cc 002F     		cmp	r7, #0
 2138 00ce D7D1     		bne	.L155
 2139 00d0 18E0     		b	.L149
 2140              	.L178:
 993:c:/Users/Black_Life/STM32Cube/Repository/STM32Cube_FW_F4_V1.26.2/Middlewares/Third_Party/LwIP/src/core/ipv4\etharp.c ****   /* stable entry? */
 2141              		.loc 1 993 3 is_stmt 1 discriminator 1 view .LVU592
 993:c:/Users/Black_Life/STM32Cube/Repository/STM32Cube_FW_F4_V1.26.2/Middlewares/Third_Party/LwIP/src/core/ipv4\etharp.c ****   /* stable entry? */
 2142              		.loc 1 993 3 discriminator 1 view .LVU593
 2143 00d2 314B     		ldr	r3, .L181+4
 2144 00d4 40F2E132 		movw	r2, #993
 2145 00d8 3349     		ldr	r1, .L181+20
 2146 00da 3148     		ldr	r0, .L181+12
 2147 00dc FFF7FEFF 		bl	printf
 2148              	.LVL194:
 2149 00e0 CFE7     		b	.L156
 2150              	.L179:
 997:c:/Users/Black_Life/STM32Cube/Repository/STM32Cube_FW_F4_V1.26.2/Middlewares/Third_Party/LwIP/src/core/ipv4\etharp.c ****     /* send the packet */
 2151              		.loc 1 997 5 view .LVU594
 2152 00e2 324B     		ldr	r3, .L181+24
 2153 00e4 1D70     		strb	r5, [r3]
 999:c:/Users/Black_Life/STM32Cube/Repository/STM32Cube_FW_F4_V1.26.2/Middlewares/Third_Party/LwIP/src/core/ipv4\etharp.c ****     /* pending entry? (either just created or already pending */
 2154              		.loc 1 999 5 view .LVU595
 999:c:/Users/Black_Life/STM32Cube/Repository/STM32Cube_FW_F4_V1.26.2/Middlewares/Third_Party/LwIP/src/core/ipv4\etharp.c ****     /* pending entry? (either just created or already pending */
ARM GAS  C:\Users\BLACK_~1\AppData\Local\Temp\ccrhXwwe.s 			page 68


 2155              		.loc 1 999 49 is_stmt 0 view .LVU596
 2156 00e6 05EB4503 		add	r3, r5, r5, lsl #1
 2157 00ea DB00     		lsls	r3, r3, #3
 2158 00ec 0833     		adds	r3, r3, #8
 2159 00ee 1344     		add	r3, r3, r2
 999:c:/Users/Black_Life/STM32Cube/Repository/STM32Cube_FW_F4_V1.26.2/Middlewares/Third_Party/LwIP/src/core/ipv4\etharp.c ****     /* pending entry? (either just created or already pending */
 2160              		.loc 1 999 14 view .LVU597
 2161 00f0 4FF40062 		mov	r2, #2048
 2162 00f4 0092     		str	r2, [sp]
 2163 00f6 0433     		adds	r3, r3, #4
 2164 00f8 4A46     		mov	r2, r9
 2165 00fa 3946     		mov	r1, r7
 2166 00fc 4046     		mov	r0, r8
 2167 00fe FFF7FEFF 		bl	ethernet_output
 2168              	.LVL195:
 2169 0102 0446     		mov	r4, r0
 2170              	.LVL196:
 2171              	.L149:
1083:c:/Users/Black_Life/STM32Cube/Repository/STM32Cube_FW_F4_V1.26.2/Middlewares/Third_Party/LwIP/src/core/ipv4\etharp.c **** 
 2172              		.loc 1 1083 1 view .LVU598
 2173 0104 2046     		mov	r0, r4
 2174 0106 03B0     		add	sp, sp, #12
 2175              	.LCFI31:
 2176              		.cfi_remember_state
 2177              		.cfi_def_cfa_offset 28
 2178              		@ sp needed
 2179 0108 BDE8F083 		pop	{r4, r5, r6, r7, r8, r9, pc}
 2180              	.LVL197:
 2181              	.L159:
 2182              	.LCFI32:
 2183              		.cfi_restore_state
 2184              	.LBB10:
1009:c:/Users/Black_Life/STM32Cube/Repository/STM32Cube_FW_F4_V1.26.2/Middlewares/Third_Party/LwIP/src/core/ipv4\etharp.c ****       if (PBUF_NEEDS_COPY(p)) {
 2185              		.loc 1 1009 7 is_stmt 1 discriminator 5 view .LVU599
1009:c:/Users/Black_Life/STM32Cube/Repository/STM32Cube_FW_F4_V1.26.2/Middlewares/Third_Party/LwIP/src/core/ipv4\etharp.c ****       if (PBUF_NEEDS_COPY(p)) {
 2186              		.loc 1 1009 7 discriminator 5 view .LVU600
1010:c:/Users/Black_Life/STM32Cube/Repository/STM32Cube_FW_F4_V1.26.2/Middlewares/Third_Party/LwIP/src/core/ipv4\etharp.c ****         copy_needed = 1;
 2187              		.loc 1 1010 7 discriminator 5 view .LVU601
1010:c:/Users/Black_Life/STM32Cube/Repository/STM32Cube_FW_F4_V1.26.2/Middlewares/Third_Party/LwIP/src/core/ipv4\etharp.c ****         copy_needed = 1;
 2188              		.loc 1 1010 11 is_stmt 0 discriminator 5 view .LVU602
 2189 010c 237B     		ldrb	r3, [r4, #12]	@ zero_extendqisi2
1010:c:/Users/Black_Life/STM32Cube/Repository/STM32Cube_FW_F4_V1.26.2/Middlewares/Third_Party/LwIP/src/core/ipv4\etharp.c ****         copy_needed = 1;
 2190              		.loc 1 1010 10 discriminator 5 view .LVU603
 2191 010e 13F0400F 		tst	r3, #64
 2192 0112 29D1     		bne	.L172
1014:c:/Users/Black_Life/STM32Cube/Repository/STM32Cube_FW_F4_V1.26.2/Middlewares/Third_Party/LwIP/src/core/ipv4\etharp.c ****     }
 2193              		.loc 1 1014 7 is_stmt 1 view .LVU604
1014:c:/Users/Black_Life/STM32Cube/Repository/STM32Cube_FW_F4_V1.26.2/Middlewares/Third_Party/LwIP/src/core/ipv4\etharp.c ****     }
 2194              		.loc 1 1014 9 is_stmt 0 view .LVU605
 2195 0114 2468     		ldr	r4, [r4]
 2196              	.LVL198:
 2197              	.L158:
1008:c:/Users/Black_Life/STM32Cube/Repository/STM32Cube_FW_F4_V1.26.2/Middlewares/Third_Party/LwIP/src/core/ipv4\etharp.c ****       LWIP_ASSERT("no packet queues allowed!", (p->len != p->tot_len) || (p->next == 0));
 2198              		.loc 1 1008 11 is_stmt 1 view .LVU606
 2199 0116 74B1     		cbz	r4, .L180
1009:c:/Users/Black_Life/STM32Cube/Repository/STM32Cube_FW_F4_V1.26.2/Middlewares/Third_Party/LwIP/src/core/ipv4\etharp.c ****       if (PBUF_NEEDS_COPY(p)) {
 2200              		.loc 1 1009 7 view .LVU607
ARM GAS  C:\Users\BLACK_~1\AppData\Local\Temp\ccrhXwwe.s 			page 69


1009:c:/Users/Black_Life/STM32Cube/Repository/STM32Cube_FW_F4_V1.26.2/Middlewares/Third_Party/LwIP/src/core/ipv4\etharp.c ****       if (PBUF_NEEDS_COPY(p)) {
 2201              		.loc 1 1009 7 view .LVU608
 2202 0118 6289     		ldrh	r2, [r4, #10]
 2203 011a 2389     		ldrh	r3, [r4, #8]
 2204 011c 9A42     		cmp	r2, r3
 2205 011e F5D1     		bne	.L159
1009:c:/Users/Black_Life/STM32Cube/Repository/STM32Cube_FW_F4_V1.26.2/Middlewares/Third_Party/LwIP/src/core/ipv4\etharp.c ****       if (PBUF_NEEDS_COPY(p)) {
 2206              		.loc 1 1009 7 is_stmt 0 discriminator 1 view .LVU609
 2207 0120 2368     		ldr	r3, [r4]
 2208 0122 002B     		cmp	r3, #0
 2209 0124 F2D0     		beq	.L159
1009:c:/Users/Black_Life/STM32Cube/Repository/STM32Cube_FW_F4_V1.26.2/Middlewares/Third_Party/LwIP/src/core/ipv4\etharp.c ****       if (PBUF_NEEDS_COPY(p)) {
 2210              		.loc 1 1009 7 is_stmt 1 discriminator 3 view .LVU610
1009:c:/Users/Black_Life/STM32Cube/Repository/STM32Cube_FW_F4_V1.26.2/Middlewares/Third_Party/LwIP/src/core/ipv4\etharp.c ****       if (PBUF_NEEDS_COPY(p)) {
 2211              		.loc 1 1009 7 discriminator 3 view .LVU611
 2212 0126 1C4B     		ldr	r3, .L181+4
 2213 0128 40F2F132 		movw	r2, #1009
 2214 012c 2049     		ldr	r1, .L181+28
 2215 012e 1C48     		ldr	r0, .L181+12
 2216 0130 FFF7FEFF 		bl	printf
 2217              	.LVL199:
 2218 0134 EAE7     		b	.L159
 2219              	.L180:
1004:c:/Users/Black_Life/STM32Cube/Repository/STM32Cube_FW_F4_V1.26.2/Middlewares/Third_Party/LwIP/src/core/ipv4\etharp.c ****     /* IF q includes a pbuf that must be copied, copy the whole chain into a
 2220              		.loc 1 1004 9 is_stmt 0 view .LVU612
 2221 0136 0023     		movs	r3, #0
 2222              	.L160:
 2223              	.LVL200:
1016:c:/Users/Black_Life/STM32Cube/Repository/STM32Cube_FW_F4_V1.26.2/Middlewares/Third_Party/LwIP/src/core/ipv4\etharp.c ****       /* copy the whole packet into new pbufs */
 2224              		.loc 1 1016 5 is_stmt 1 view .LVU613
1016:c:/Users/Black_Life/STM32Cube/Repository/STM32Cube_FW_F4_V1.26.2/Middlewares/Third_Party/LwIP/src/core/ipv4\etharp.c ****       /* copy the whole packet into new pbufs */
 2225              		.loc 1 1016 8 is_stmt 0 view .LVU614
 2226 0138 C3B1     		cbz	r3, .L162
1018:c:/Users/Black_Life/STM32Cube/Repository/STM32Cube_FW_F4_V1.26.2/Middlewares/Third_Party/LwIP/src/core/ipv4\etharp.c ****     } else {
 2227              		.loc 1 1018 7 is_stmt 1 view .LVU615
1018:c:/Users/Black_Life/STM32Cube/Repository/STM32Cube_FW_F4_V1.26.2/Middlewares/Third_Party/LwIP/src/core/ipv4\etharp.c ****     } else {
 2228              		.loc 1 1018 11 is_stmt 0 view .LVU616
 2229 013a 3A46     		mov	r2, r7
 2230 013c 4FF42071 		mov	r1, #640
 2231 0140 0E20     		movs	r0, #14
 2232 0142 FFF7FEFF 		bl	pbuf_clone
 2233              	.LVL201:
1018:c:/Users/Black_Life/STM32Cube/Repository/STM32Cube_FW_F4_V1.26.2/Middlewares/Third_Party/LwIP/src/core/ipv4\etharp.c ****     } else {
 2234              		.loc 1 1018 11 view .LVU617
 2235 0146 0746     		mov	r7, r0
 2236              	.LVL202:
 2237              	.L163:
1025:c:/Users/Black_Life/STM32Cube/Repository/STM32Cube_FW_F4_V1.26.2/Middlewares/Third_Party/LwIP/src/core/ipv4\etharp.c ****       /* queue packet ... */
 2238              		.loc 1 1025 5 is_stmt 1 view .LVU618
1025:c:/Users/Black_Life/STM32Cube/Repository/STM32Cube_FW_F4_V1.26.2/Middlewares/Third_Party/LwIP/src/core/ipv4\etharp.c ****       /* queue packet ... */
 2239              		.loc 1 1025 8 is_stmt 0 view .LVU619
 2240 0148 07B3     		cbz	r7, .L173
1068:c:/Users/Black_Life/STM32Cube/Repository/STM32Cube_FW_F4_V1.26.2/Middlewares/Third_Party/LwIP/src/core/ipv4\etharp.c ****         LWIP_DEBUGF(ETHARP_DEBUG | LWIP_DBG_TRACE, ("etharp_query: dropped previously queued packet
 2241              		.loc 1 1068 7 is_stmt 1 view .LVU620
1068:c:/Users/Black_Life/STM32Cube/Repository/STM32Cube_FW_F4_V1.26.2/Middlewares/Third_Party/LwIP/src/core/ipv4\etharp.c ****         LWIP_DEBUGF(ETHARP_DEBUG | LWIP_DBG_TRACE, ("etharp_query: dropped previously queued packet
 2242              		.loc 1 1068 23 is_stmt 0 view .LVU621
 2243 014a 05EB4503 		add	r3, r5, r5, lsl #1
ARM GAS  C:\Users\BLACK_~1\AppData\Local\Temp\ccrhXwwe.s 			page 70


 2244 014e 114A     		ldr	r2, .L181
 2245 0150 52F83300 		ldr	r0, [r2, r3, lsl #3]
1068:c:/Users/Black_Life/STM32Cube/Repository/STM32Cube_FW_F4_V1.26.2/Middlewares/Third_Party/LwIP/src/core/ipv4\etharp.c ****         LWIP_DEBUGF(ETHARP_DEBUG | LWIP_DBG_TRACE, ("etharp_query: dropped previously queued packet
 2246              		.loc 1 1068 10 view .LVU622
 2247 0154 08B1     		cbz	r0, .L164
1069:c:/Users/Black_Life/STM32Cube/Repository/STM32Cube_FW_F4_V1.26.2/Middlewares/Third_Party/LwIP/src/core/ipv4\etharp.c ****         pbuf_free(arp_table[i].q);
 2248              		.loc 1 1069 152 is_stmt 1 view .LVU623
1070:c:/Users/Black_Life/STM32Cube/Repository/STM32Cube_FW_F4_V1.26.2/Middlewares/Third_Party/LwIP/src/core/ipv4\etharp.c ****       }
 2249              		.loc 1 1070 9 view .LVU624
 2250 0156 FFF7FEFF 		bl	pbuf_free
 2251              	.LVL203:
 2252              	.L164:
1072:c:/Users/Black_Life/STM32Cube/Repository/STM32Cube_FW_F4_V1.26.2/Middlewares/Third_Party/LwIP/src/core/ipv4\etharp.c ****       result = ERR_OK;
 2253              		.loc 1 1072 7 view .LVU625
1072:c:/Users/Black_Life/STM32Cube/Repository/STM32Cube_FW_F4_V1.26.2/Middlewares/Third_Party/LwIP/src/core/ipv4\etharp.c ****       result = ERR_OK;
 2254              		.loc 1 1072 22 is_stmt 0 view .LVU626
 2255 015a 05EB4503 		add	r3, r5, r5, lsl #1
 2256 015e 0D4A     		ldr	r2, .L181
 2257 0160 42F83370 		str	r7, [r2, r3, lsl #3]
1073:c:/Users/Black_Life/STM32Cube/Repository/STM32Cube_FW_F4_V1.26.2/Middlewares/Third_Party/LwIP/src/core/ipv4\etharp.c ****       LWIP_DEBUGF(ETHARP_DEBUG | LWIP_DBG_TRACE, ("etharp_query: queued packet %p on ARP entry %"U1
 2258              		.loc 1 1073 7 is_stmt 1 view .LVU627
 2259              	.LVL204:
1074:c:/Users/Black_Life/STM32Cube/Repository/STM32Cube_FW_F4_V1.26.2/Middlewares/Third_Party/LwIP/src/core/ipv4\etharp.c **** #endif /* ARP_QUEUEING */
 2260              		.loc 1 1074 130 view .LVU628
1073:c:/Users/Black_Life/STM32Cube/Repository/STM32Cube_FW_F4_V1.26.2/Middlewares/Third_Party/LwIP/src/core/ipv4\etharp.c ****       LWIP_DEBUGF(ETHARP_DEBUG | LWIP_DBG_TRACE, ("etharp_query: queued packet %p on ARP entry %"U1
 2261              		.loc 1 1073 14 is_stmt 0 view .LVU629
 2262 0164 0024     		movs	r4, #0
 2263 0166 CDE7     		b	.L149
 2264              	.LVL205:
 2265              	.L172:
1011:c:/Users/Black_Life/STM32Cube/Repository/STM32Cube_FW_F4_V1.26.2/Middlewares/Third_Party/LwIP/src/core/ipv4\etharp.c ****         break;
 2266              		.loc 1 1011 21 view .LVU630
 2267 0168 0123     		movs	r3, #1
 2268 016a E5E7     		b	.L160
 2269              	.LVL206:
 2270              	.L162:
1021:c:/Users/Black_Life/STM32Cube/Repository/STM32Cube_FW_F4_V1.26.2/Middlewares/Third_Party/LwIP/src/core/ipv4\etharp.c ****       pbuf_ref(p);
 2271              		.loc 1 1021 7 is_stmt 1 view .LVU631
1022:c:/Users/Black_Life/STM32Cube/Repository/STM32Cube_FW_F4_V1.26.2/Middlewares/Third_Party/LwIP/src/core/ipv4\etharp.c ****     }
 2272              		.loc 1 1022 7 view .LVU632
 2273 016c 3846     		mov	r0, r7
 2274 016e FFF7FEFF 		bl	pbuf_ref
 2275              	.LVL207:
1022:c:/Users/Black_Life/STM32Cube/Repository/STM32Cube_FW_F4_V1.26.2/Middlewares/Third_Party/LwIP/src/core/ipv4\etharp.c ****     }
 2276              		.loc 1 1022 7 is_stmt 0 view .LVU633
 2277 0172 E9E7     		b	.L163
 2278              	.LVL208:
 2279              	.L165:
1022:c:/Users/Black_Life/STM32Cube/Repository/STM32Cube_FW_F4_V1.26.2/Middlewares/Third_Party/LwIP/src/core/ipv4\etharp.c ****     }
 2280              		.loc 1 1022 7 view .LVU634
 2281              	.LBE10:
 946:c:/Users/Black_Life/STM32Cube/Repository/STM32Cube_FW_F4_V1.26.2/Middlewares/Third_Party/LwIP/src/core/ipv4\etharp.c ****   }
 2282              		.loc 1 946 12 view .LVU635
 2283 0174 6FF00F04 		mvn	r4, #15
 2284 0178 C4E7     		b	.L149
 2285              	.L166:
 2286 017a 6FF00F04 		mvn	r4, #15
ARM GAS  C:\Users\BLACK_~1\AppData\Local\Temp\ccrhXwwe.s 			page 71


 2287 017e C1E7     		b	.L149
 2288              	.L167:
 2289 0180 6FF00F04 		mvn	r4, #15
 2290 0184 BEE7     		b	.L149
 2291              	.L168:
 2292 0186 6FF00F04 		mvn	r4, #15
 2293 018a BBE7     		b	.L149
 2294              	.LVL209:
 2295              	.L173:
 2296              	.LBB11:
1079:c:/Users/Black_Life/STM32Cube/Repository/STM32Cube_FW_F4_V1.26.2/Middlewares/Third_Party/LwIP/src/core/ipv4\etharp.c ****     }
 2297              		.loc 1 1079 14 view .LVU636
 2298 018c 4FF0FF34 		mov	r4, #-1
 2299 0190 B8E7     		b	.L149
 2300              	.L182:
 2301 0192 00BF     		.align	2
 2302              	.L181:
 2303 0194 00000000 		.word	.LANCHOR0
 2304 0198 00000000 		.word	.LC0
 2305 019c 00000000 		.word	.LC13
 2306 01a0 90000000 		.word	.LC2
 2307 01a4 10000000 		.word	.LC14
 2308 01a8 38000000 		.word	.LC15
 2309 01ac 00000000 		.word	.LANCHOR1
 2310 01b0 44000000 		.word	.LC16
 2311              	.LBE11:
 2312              		.cfi_endproc
 2313              	.LFE166:
 2315              		.section	.text.etharp_output,"ax",%progbits
 2316              		.align	1
 2317              		.global	etharp_output
 2318              		.syntax unified
 2319              		.thumb
 2320              		.thumb_func
 2322              	etharp_output:
 2323              	.LVL210:
 2324              	.LFB165:
 792:c:/Users/Black_Life/STM32Cube/Repository/STM32Cube_FW_F4_V1.26.2/Middlewares/Third_Party/LwIP/src/core/ipv4\etharp.c ****   const struct eth_addr *dest;
 2325              		.loc 1 792 1 is_stmt 1 view -0
 2326              		.cfi_startproc
 2327              		@ args = 0, pretend = 0, frame = 8
 2328              		@ frame_needed = 0, uses_anonymous_args = 0
 792:c:/Users/Black_Life/STM32Cube/Repository/STM32Cube_FW_F4_V1.26.2/Middlewares/Third_Party/LwIP/src/core/ipv4\etharp.c ****   const struct eth_addr *dest;
 2329              		.loc 1 792 1 is_stmt 0 view .LVU638
 2330 0000 F0B5     		push	{r4, r5, r6, r7, lr}
 2331              	.LCFI33:
 2332              		.cfi_def_cfa_offset 20
 2333              		.cfi_offset 4, -20
 2334              		.cfi_offset 5, -16
 2335              		.cfi_offset 6, -12
 2336              		.cfi_offset 7, -8
 2337              		.cfi_offset 14, -4
 2338 0002 85B0     		sub	sp, sp, #20
 2339              	.LCFI34:
 2340              		.cfi_def_cfa_offset 40
 2341 0004 0F46     		mov	r7, r1
 2342 0006 1546     		mov	r5, r2
ARM GAS  C:\Users\BLACK_~1\AppData\Local\Temp\ccrhXwwe.s 			page 72


 793:c:/Users/Black_Life/STM32Cube/Repository/STM32Cube_FW_F4_V1.26.2/Middlewares/Third_Party/LwIP/src/core/ipv4\etharp.c ****   struct eth_addr mcastaddr;
 2343              		.loc 1 793 3 is_stmt 1 view .LVU639
 794:c:/Users/Black_Life/STM32Cube/Repository/STM32Cube_FW_F4_V1.26.2/Middlewares/Third_Party/LwIP/src/core/ipv4\etharp.c ****   const ip4_addr_t *dst_addr = ipaddr;
 2344              		.loc 1 794 3 view .LVU640
 795:c:/Users/Black_Life/STM32Cube/Repository/STM32Cube_FW_F4_V1.26.2/Middlewares/Third_Party/LwIP/src/core/ipv4\etharp.c **** 
 2345              		.loc 1 795 3 view .LVU641
 2346              	.LVL211:
 797:c:/Users/Black_Life/STM32Cube/Repository/STM32Cube_FW_F4_V1.26.2/Middlewares/Third_Party/LwIP/src/core/ipv4\etharp.c ****   LWIP_ASSERT("netif != NULL", netif != NULL);
 2347              		.loc 1 797 28 view .LVU642
 798:c:/Users/Black_Life/STM32Cube/Repository/STM32Cube_FW_F4_V1.26.2/Middlewares/Third_Party/LwIP/src/core/ipv4\etharp.c ****   LWIP_ASSERT("q != NULL", q != NULL);
 2348              		.loc 1 798 3 view .LVU643
 798:c:/Users/Black_Life/STM32Cube/Repository/STM32Cube_FW_F4_V1.26.2/Middlewares/Third_Party/LwIP/src/core/ipv4\etharp.c ****   LWIP_ASSERT("q != NULL", q != NULL);
 2349              		.loc 1 798 3 view .LVU644
 2350 0008 0646     		mov	r6, r0
 2351 000a 0028     		cmp	r0, #0
 2352 000c 3DD0     		beq	.L198
 2353              	.LVL212:
 2354              	.L184:
 798:c:/Users/Black_Life/STM32Cube/Repository/STM32Cube_FW_F4_V1.26.2/Middlewares/Third_Party/LwIP/src/core/ipv4\etharp.c ****   LWIP_ASSERT("q != NULL", q != NULL);
 2355              		.loc 1 798 3 discriminator 3 view .LVU645
 798:c:/Users/Black_Life/STM32Cube/Repository/STM32Cube_FW_F4_V1.26.2/Middlewares/Third_Party/LwIP/src/core/ipv4\etharp.c ****   LWIP_ASSERT("q != NULL", q != NULL);
 2356              		.loc 1 798 3 discriminator 3 view .LVU646
 799:c:/Users/Black_Life/STM32Cube/Repository/STM32Cube_FW_F4_V1.26.2/Middlewares/Third_Party/LwIP/src/core/ipv4\etharp.c ****   LWIP_ASSERT("ipaddr != NULL", ipaddr != NULL);
 2357              		.loc 1 799 3 discriminator 3 view .LVU647
 799:c:/Users/Black_Life/STM32Cube/Repository/STM32Cube_FW_F4_V1.26.2/Middlewares/Third_Party/LwIP/src/core/ipv4\etharp.c ****   LWIP_ASSERT("ipaddr != NULL", ipaddr != NULL);
 2358              		.loc 1 799 3 discriminator 3 view .LVU648
 2359 000e 002F     		cmp	r7, #0
 2360 0010 43D0     		beq	.L199
 2361              	.L185:
 799:c:/Users/Black_Life/STM32Cube/Repository/STM32Cube_FW_F4_V1.26.2/Middlewares/Third_Party/LwIP/src/core/ipv4\etharp.c ****   LWIP_ASSERT("ipaddr != NULL", ipaddr != NULL);
 2362              		.loc 1 799 3 discriminator 3 view .LVU649
 799:c:/Users/Black_Life/STM32Cube/Repository/STM32Cube_FW_F4_V1.26.2/Middlewares/Third_Party/LwIP/src/core/ipv4\etharp.c ****   LWIP_ASSERT("ipaddr != NULL", ipaddr != NULL);
 2363              		.loc 1 799 3 discriminator 3 view .LVU650
 800:c:/Users/Black_Life/STM32Cube/Repository/STM32Cube_FW_F4_V1.26.2/Middlewares/Third_Party/LwIP/src/core/ipv4\etharp.c **** 
 2364              		.loc 1 800 3 discriminator 3 view .LVU651
 800:c:/Users/Black_Life/STM32Cube/Repository/STM32Cube_FW_F4_V1.26.2/Middlewares/Third_Party/LwIP/src/core/ipv4\etharp.c **** 
 2365              		.loc 1 800 3 discriminator 3 view .LVU652
 2366 0012 002D     		cmp	r5, #0
 2367 0014 49D0     		beq	.L200
 2368              	.L186:
 800:c:/Users/Black_Life/STM32Cube/Repository/STM32Cube_FW_F4_V1.26.2/Middlewares/Third_Party/LwIP/src/core/ipv4\etharp.c **** 
 2369              		.loc 1 800 3 discriminator 3 view .LVU653
 800:c:/Users/Black_Life/STM32Cube/Repository/STM32Cube_FW_F4_V1.26.2/Middlewares/Third_Party/LwIP/src/core/ipv4\etharp.c **** 
 2370              		.loc 1 800 3 discriminator 3 view .LVU654
 806:c:/Users/Black_Life/STM32Cube/Repository/STM32Cube_FW_F4_V1.26.2/Middlewares/Third_Party/LwIP/src/core/ipv4\etharp.c ****     /* broadcast on Ethernet also */
 2371              		.loc 1 806 3 discriminator 3 view .LVU655
 806:c:/Users/Black_Life/STM32Cube/Repository/STM32Cube_FW_F4_V1.26.2/Middlewares/Third_Party/LwIP/src/core/ipv4\etharp.c ****     /* broadcast on Ethernet also */
 2372              		.loc 1 806 7 is_stmt 0 discriminator 3 view .LVU656
 2373 0016 3146     		mov	r1, r6
 2374 0018 2868     		ldr	r0, [r5]
 2375 001a FFF7FEFF 		bl	ip4_addr_isbroadcast_u32
 2376              	.LVL213:
 806:c:/Users/Black_Life/STM32Cube/Repository/STM32Cube_FW_F4_V1.26.2/Middlewares/Third_Party/LwIP/src/core/ipv4\etharp.c ****     /* broadcast on Ethernet also */
 2377              		.loc 1 806 6 discriminator 3 view .LVU657
 2378 001e 0346     		mov	r3, r0
 2379 0020 0028     		cmp	r0, #0
 2380 0022 40F08180 		bne	.L195
ARM GAS  C:\Users\BLACK_~1\AppData\Local\Temp\ccrhXwwe.s 			page 73


 810:c:/Users/Black_Life/STM32Cube/Repository/STM32Cube_FW_F4_V1.26.2/Middlewares/Third_Party/LwIP/src/core/ipv4\etharp.c ****     /* Hash IP multicast address to MAC address.*/
 2381              		.loc 1 810 10 is_stmt 1 view .LVU658
 810:c:/Users/Black_Life/STM32Cube/Repository/STM32Cube_FW_F4_V1.26.2/Middlewares/Third_Party/LwIP/src/core/ipv4\etharp.c ****     /* Hash IP multicast address to MAC address.*/
 2382              		.loc 1 810 14 is_stmt 0 view .LVU659
 2383 0026 2A68     		ldr	r2, [r5]
 2384 0028 02F0F001 		and	r1, r2, #240
 810:c:/Users/Black_Life/STM32Cube/Repository/STM32Cube_FW_F4_V1.26.2/Middlewares/Third_Party/LwIP/src/core/ipv4\etharp.c ****     /* Hash IP multicast address to MAC address.*/
 2385              		.loc 1 810 13 view .LVU660
 2386 002c E029     		cmp	r1, #224
 2387 002e 44D0     		beq	.L201
 2388              	.LBB12:
 822:c:/Users/Black_Life/STM32Cube/Repository/STM32Cube_FW_F4_V1.26.2/Middlewares/Third_Party/LwIP/src/core/ipv4\etharp.c ****     /* outside local network? if so, this can neither be a global broadcast nor
 2389              		.loc 1 822 5 is_stmt 1 view .LVU661
 825:c:/Users/Black_Life/STM32Cube/Repository/STM32Cube_FW_F4_V1.26.2/Middlewares/Third_Party/LwIP/src/core/ipv4\etharp.c ****         !ip4_addr_islinklocal(ipaddr)) {
 2390              		.loc 1 825 5 view .LVU662
 825:c:/Users/Black_Life/STM32Cube/Repository/STM32Cube_FW_F4_V1.26.2/Middlewares/Third_Party/LwIP/src/core/ipv4\etharp.c ****         !ip4_addr_islinklocal(ipaddr)) {
 2391              		.loc 1 825 10 is_stmt 0 view .LVU663
 2392 0030 7168     		ldr	r1, [r6, #4]
 2393 0032 B068     		ldr	r0, [r6, #8]
 825:c:/Users/Black_Life/STM32Cube/Repository/STM32Cube_FW_F4_V1.26.2/Middlewares/Third_Party/LwIP/src/core/ipv4\etharp.c ****         !ip4_addr_islinklocal(ipaddr)) {
 2394              		.loc 1 825 9 view .LVU664
 2395 0034 5140     		eors	r1, r1, r2
 825:c:/Users/Black_Life/STM32Cube/Repository/STM32Cube_FW_F4_V1.26.2/Middlewares/Third_Party/LwIP/src/core/ipv4\etharp.c ****         !ip4_addr_islinklocal(ipaddr)) {
 2396              		.loc 1 825 8 view .LVU665
 2397 0036 0142     		tst	r1, r0
 2398 0038 09D0     		beq	.L189
 826:c:/Users/Black_Life/STM32Cube/Repository/STM32Cube_FW_F4_V1.26.2/Middlewares/Third_Party/LwIP/src/core/ipv4\etharp.c **** #if LWIP_AUTOIP
 2399              		.loc 1 826 10 discriminator 1 view .LVU666
 2400 003a 92B2     		uxth	r2, r2
 825:c:/Users/Black_Life/STM32Cube/Repository/STM32Cube_FW_F4_V1.26.2/Middlewares/Third_Party/LwIP/src/core/ipv4\etharp.c ****         !ip4_addr_islinklocal(ipaddr)) {
 2401              		.loc 1 825 83 discriminator 1 view .LVU667
 2402 003c 4FF6A961 		movw	r1, #65193
 2403 0040 8A42     		cmp	r2, r1
 2404 0042 04D0     		beq	.L189
 844:c:/Users/Black_Life/STM32Cube/Repository/STM32Cube_FW_F4_V1.26.2/Middlewares/Third_Party/LwIP/src/core/ipv4\etharp.c ****             /* send to hardware address of default gateway IP address */
 2405              		.loc 1 844 11 is_stmt 1 view .LVU668
 844:c:/Users/Black_Life/STM32Cube/Repository/STM32Cube_FW_F4_V1.26.2/Middlewares/Third_Party/LwIP/src/core/ipv4\etharp.c ****             /* send to hardware address of default gateway IP address */
 2406              		.loc 1 844 16 is_stmt 0 view .LVU669
 2407 0044 F268     		ldr	r2, [r6, #12]
 844:c:/Users/Black_Life/STM32Cube/Repository/STM32Cube_FW_F4_V1.26.2/Middlewares/Third_Party/LwIP/src/core/ipv4\etharp.c ****             /* send to hardware address of default gateway IP address */
 2408              		.loc 1 844 14 view .LVU670
 2409 0046 002A     		cmp	r2, #0
 2410 0048 7AD0     		beq	.L196
 846:c:/Users/Black_Life/STM32Cube/Repository/STM32Cube_FW_F4_V1.26.2/Middlewares/Third_Party/LwIP/src/core/ipv4\etharp.c ****             /* no default gateway available */
 2411              		.loc 1 846 13 is_stmt 1 view .LVU671
 846:c:/Users/Black_Life/STM32Cube/Repository/STM32Cube_FW_F4_V1.26.2/Middlewares/Third_Party/LwIP/src/core/ipv4\etharp.c ****             /* no default gateway available */
 2412              		.loc 1 846 22 is_stmt 0 view .LVU672
 2413 004a 06F10C05 		add	r5, r6, #12
 2414              	.LVL214:
 2415              	.L189:
 861:c:/Users/Black_Life/STM32Cube/Repository/STM32Cube_FW_F4_V1.26.2/Middlewares/Third_Party/LwIP/src/core/ipv4\etharp.c **** #if ETHARP_TABLE_MATCH_NETIF
 2416              		.loc 1 861 9 is_stmt 1 view .LVU673
 861:c:/Users/Black_Life/STM32Cube/Repository/STM32Cube_FW_F4_V1.26.2/Middlewares/Third_Party/LwIP/src/core/ipv4\etharp.c **** #if ETHARP_TABLE_MATCH_NETIF
 2417              		.loc 1 861 44 is_stmt 0 view .LVU674
 2418 004e 3E4A     		ldr	r2, .L203
 2419 0050 1278     		ldrb	r2, [r2]	@ zero_extendqisi2
 2420 0052 02EB4200 		add	r0, r2, r2, lsl #1
ARM GAS  C:\Users\BLACK_~1\AppData\Local\Temp\ccrhXwwe.s 			page 74


 2421 0056 3D49     		ldr	r1, .L203+4
 2422 0058 01EBC001 		add	r1, r1, r0, lsl #3
 2423 005c 097D     		ldrb	r1, [r1, #20]	@ zero_extendqisi2
 861:c:/Users/Black_Life/STM32Cube/Repository/STM32Cube_FW_F4_V1.26.2/Middlewares/Third_Party/LwIP/src/core/ipv4\etharp.c **** #if ETHARP_TABLE_MATCH_NETIF
 2424              		.loc 1 861 12 view .LVU675
 2425 005e 0129     		cmp	r1, #1
 2426 0060 43D9     		bls	.L193
 863:c:/Users/Black_Life/STM32Cube/Repository/STM32Cube_FW_F4_V1.26.2/Middlewares/Third_Party/LwIP/src/core/ipv4\etharp.c **** #endif
 2427              		.loc 1 863 44 discriminator 1 view .LVU676
 2428 0062 0146     		mov	r1, r0
 2429 0064 3948     		ldr	r0, .L203+4
 2430 0066 00EBC101 		add	r1, r0, r1, lsl #3
 2431 006a 8968     		ldr	r1, [r1, #8]
 861:c:/Users/Black_Life/STM32Cube/Repository/STM32Cube_FW_F4_V1.26.2/Middlewares/Third_Party/LwIP/src/core/ipv4\etharp.c **** #if ETHARP_TABLE_MATCH_NETIF
 2432              		.loc 1 861 75 discriminator 1 view .LVU677
 2433 006c B142     		cmp	r1, r6
 2434 006e 3CD1     		bne	.L193
 865:c:/Users/Black_Life/STM32Cube/Repository/STM32Cube_FW_F4_V1.26.2/Middlewares/Third_Party/LwIP/src/core/ipv4\etharp.c ****           /* the per-pcb-cached entry is stable and the right one! */
 2435              		.loc 1 865 14 view .LVU678
 2436 0070 2C68     		ldr	r4, [r5]
 2437 0072 02EB4201 		add	r1, r2, r2, lsl #1
 2438 0076 00EBC101 		add	r1, r0, r1, lsl #3
 2439 007a 4968     		ldr	r1, [r1, #4]
 863:c:/Users/Black_Life/STM32Cube/Repository/STM32Cube_FW_F4_V1.26.2/Middlewares/Third_Party/LwIP/src/core/ipv4\etharp.c **** #endif
 2440              		.loc 1 863 61 view .LVU679
 2441 007c 8C42     		cmp	r4, r1
 2442 007e 34D1     		bne	.L193
 867:c:/Users/Black_Life/STM32Cube/Repository/STM32Cube_FW_F4_V1.26.2/Middlewares/Third_Party/LwIP/src/core/ipv4\etharp.c ****           return etharp_output_to_arp_index(netif, q, etharp_cached_entry);
 2443              		.loc 1 867 44 is_stmt 1 view .LVU680
 868:c:/Users/Black_Life/STM32Cube/Repository/STM32Cube_FW_F4_V1.26.2/Middlewares/Third_Party/LwIP/src/core/ipv4\etharp.c ****         }
 2444              		.loc 1 868 11 view .LVU681
 868:c:/Users/Black_Life/STM32Cube/Repository/STM32Cube_FW_F4_V1.26.2/Middlewares/Third_Party/LwIP/src/core/ipv4\etharp.c ****         }
 2445              		.loc 1 868 18 is_stmt 0 view .LVU682
 2446 0080 3946     		mov	r1, r7
 2447 0082 3046     		mov	r0, r6
 2448 0084 FFF7FEFF 		bl	etharp_output_to_arp_index
 2449              	.LVL215:
 2450 0088 58E0     		b	.L190
 2451              	.LVL216:
 2452              	.L198:
 868:c:/Users/Black_Life/STM32Cube/Repository/STM32Cube_FW_F4_V1.26.2/Middlewares/Third_Party/LwIP/src/core/ipv4\etharp.c ****         }
 2453              		.loc 1 868 18 view .LVU683
 2454              	.LBE12:
 798:c:/Users/Black_Life/STM32Cube/Repository/STM32Cube_FW_F4_V1.26.2/Middlewares/Third_Party/LwIP/src/core/ipv4\etharp.c ****   LWIP_ASSERT("q != NULL", q != NULL);
 2455              		.loc 1 798 3 is_stmt 1 discriminator 1 view .LVU684
 798:c:/Users/Black_Life/STM32Cube/Repository/STM32Cube_FW_F4_V1.26.2/Middlewares/Third_Party/LwIP/src/core/ipv4\etharp.c ****   LWIP_ASSERT("q != NULL", q != NULL);
 2456              		.loc 1 798 3 discriminator 1 view .LVU685
 2457 008a 314B     		ldr	r3, .L203+8
 2458 008c 40F21E32 		movw	r2, #798
 2459              	.LVL217:
 798:c:/Users/Black_Life/STM32Cube/Repository/STM32Cube_FW_F4_V1.26.2/Middlewares/Third_Party/LwIP/src/core/ipv4\etharp.c ****   LWIP_ASSERT("q != NULL", q != NULL);
 2460              		.loc 1 798 3 is_stmt 0 discriminator 1 view .LVU686
 2461 0090 3049     		ldr	r1, .L203+12
 2462              	.LVL218:
 798:c:/Users/Black_Life/STM32Cube/Repository/STM32Cube_FW_F4_V1.26.2/Middlewares/Third_Party/LwIP/src/core/ipv4\etharp.c ****   LWIP_ASSERT("q != NULL", q != NULL);
 2463              		.loc 1 798 3 discriminator 1 view .LVU687
 2464 0092 3148     		ldr	r0, .L203+16
ARM GAS  C:\Users\BLACK_~1\AppData\Local\Temp\ccrhXwwe.s 			page 75


 2465              	.LVL219:
 798:c:/Users/Black_Life/STM32Cube/Repository/STM32Cube_FW_F4_V1.26.2/Middlewares/Third_Party/LwIP/src/core/ipv4\etharp.c ****   LWIP_ASSERT("q != NULL", q != NULL);
 2466              		.loc 1 798 3 discriminator 1 view .LVU688
 2467 0094 FFF7FEFF 		bl	printf
 2468              	.LVL220:
 2469 0098 B9E7     		b	.L184
 2470              	.L199:
 799:c:/Users/Black_Life/STM32Cube/Repository/STM32Cube_FW_F4_V1.26.2/Middlewares/Third_Party/LwIP/src/core/ipv4\etharp.c ****   LWIP_ASSERT("ipaddr != NULL", ipaddr != NULL);
 2471              		.loc 1 799 3 is_stmt 1 discriminator 1 view .LVU689
 799:c:/Users/Black_Life/STM32Cube/Repository/STM32Cube_FW_F4_V1.26.2/Middlewares/Third_Party/LwIP/src/core/ipv4\etharp.c ****   LWIP_ASSERT("ipaddr != NULL", ipaddr != NULL);
 2472              		.loc 1 799 3 discriminator 1 view .LVU690
 2473 009a 2D4B     		ldr	r3, .L203+8
 2474 009c 40F21F32 		movw	r2, #799
 2475 00a0 2E49     		ldr	r1, .L203+20
 2476 00a2 2D48     		ldr	r0, .L203+16
 2477 00a4 FFF7FEFF 		bl	printf
 2478              	.LVL221:
 2479 00a8 B3E7     		b	.L185
 2480              	.L200:
 800:c:/Users/Black_Life/STM32Cube/Repository/STM32Cube_FW_F4_V1.26.2/Middlewares/Third_Party/LwIP/src/core/ipv4\etharp.c **** 
 2481              		.loc 1 800 3 discriminator 1 view .LVU691
 800:c:/Users/Black_Life/STM32Cube/Repository/STM32Cube_FW_F4_V1.26.2/Middlewares/Third_Party/LwIP/src/core/ipv4\etharp.c **** 
 2482              		.loc 1 800 3 discriminator 1 view .LVU692
 2483 00aa 294B     		ldr	r3, .L203+8
 2484 00ac 4FF44872 		mov	r2, #800
 2485 00b0 2B49     		ldr	r1, .L203+24
 2486 00b2 2948     		ldr	r0, .L203+16
 2487 00b4 FFF7FEFF 		bl	printf
 2488              	.LVL222:
 2489 00b8 ADE7     		b	.L186
 2490              	.L201:
 812:c:/Users/Black_Life/STM32Cube/Repository/STM32Cube_FW_F4_V1.26.2/Middlewares/Third_Party/LwIP/src/core/ipv4\etharp.c ****     mcastaddr.addr[1] = LL_IP4_MULTICAST_ADDR_1;
 2491              		.loc 1 812 5 view .LVU693
 812:c:/Users/Black_Life/STM32Cube/Repository/STM32Cube_FW_F4_V1.26.2/Middlewares/Third_Party/LwIP/src/core/ipv4\etharp.c ****     mcastaddr.addr[1] = LL_IP4_MULTICAST_ADDR_1;
 2492              		.loc 1 812 23 is_stmt 0 view .LVU694
 2493 00ba 0123     		movs	r3, #1
 2494 00bc 8DF80830 		strb	r3, [sp, #8]
 813:c:/Users/Black_Life/STM32Cube/Repository/STM32Cube_FW_F4_V1.26.2/Middlewares/Third_Party/LwIP/src/core/ipv4\etharp.c ****     mcastaddr.addr[2] = LL_IP4_MULTICAST_ADDR_2;
 2495              		.loc 1 813 5 is_stmt 1 view .LVU695
 813:c:/Users/Black_Life/STM32Cube/Repository/STM32Cube_FW_F4_V1.26.2/Middlewares/Third_Party/LwIP/src/core/ipv4\etharp.c ****     mcastaddr.addr[2] = LL_IP4_MULTICAST_ADDR_2;
 2496              		.loc 1 813 23 is_stmt 0 view .LVU696
 2497 00c0 0023     		movs	r3, #0
 2498 00c2 8DF80930 		strb	r3, [sp, #9]
 814:c:/Users/Black_Life/STM32Cube/Repository/STM32Cube_FW_F4_V1.26.2/Middlewares/Third_Party/LwIP/src/core/ipv4\etharp.c ****     mcastaddr.addr[3] = ip4_addr2(ipaddr) & 0x7f;
 2499              		.loc 1 814 5 is_stmt 1 view .LVU697
 814:c:/Users/Black_Life/STM32Cube/Repository/STM32Cube_FW_F4_V1.26.2/Middlewares/Third_Party/LwIP/src/core/ipv4\etharp.c ****     mcastaddr.addr[3] = ip4_addr2(ipaddr) & 0x7f;
 2500              		.loc 1 814 23 is_stmt 0 view .LVU698
 2501 00c6 5E23     		movs	r3, #94
 2502 00c8 8DF80A30 		strb	r3, [sp, #10]
 815:c:/Users/Black_Life/STM32Cube/Repository/STM32Cube_FW_F4_V1.26.2/Middlewares/Third_Party/LwIP/src/core/ipv4\etharp.c ****     mcastaddr.addr[4] = ip4_addr3(ipaddr);
 2503              		.loc 1 815 5 is_stmt 1 view .LVU699
 815:c:/Users/Black_Life/STM32Cube/Repository/STM32Cube_FW_F4_V1.26.2/Middlewares/Third_Party/LwIP/src/core/ipv4\etharp.c ****     mcastaddr.addr[4] = ip4_addr3(ipaddr);
 2504              		.loc 1 815 43 is_stmt 0 view .LVU700
 2505 00cc 6B78     		ldrb	r3, [r5, #1]	@ zero_extendqisi2
 2506 00ce 03F07F03 		and	r3, r3, #127
 815:c:/Users/Black_Life/STM32Cube/Repository/STM32Cube_FW_F4_V1.26.2/Middlewares/Third_Party/LwIP/src/core/ipv4\etharp.c ****     mcastaddr.addr[4] = ip4_addr3(ipaddr);
 2507              		.loc 1 815 23 view .LVU701
ARM GAS  C:\Users\BLACK_~1\AppData\Local\Temp\ccrhXwwe.s 			page 76


 2508 00d2 8DF80B30 		strb	r3, [sp, #11]
 816:c:/Users/Black_Life/STM32Cube/Repository/STM32Cube_FW_F4_V1.26.2/Middlewares/Third_Party/LwIP/src/core/ipv4\etharp.c ****     mcastaddr.addr[5] = ip4_addr4(ipaddr);
 2509              		.loc 1 816 5 is_stmt 1 view .LVU702
 816:c:/Users/Black_Life/STM32Cube/Repository/STM32Cube_FW_F4_V1.26.2/Middlewares/Third_Party/LwIP/src/core/ipv4\etharp.c ****     mcastaddr.addr[5] = ip4_addr4(ipaddr);
 2510              		.loc 1 816 25 is_stmt 0 view .LVU703
 2511 00d6 AB78     		ldrb	r3, [r5, #2]	@ zero_extendqisi2
 816:c:/Users/Black_Life/STM32Cube/Repository/STM32Cube_FW_F4_V1.26.2/Middlewares/Third_Party/LwIP/src/core/ipv4\etharp.c ****     mcastaddr.addr[5] = ip4_addr4(ipaddr);
 2512              		.loc 1 816 23 view .LVU704
 2513 00d8 8DF80C30 		strb	r3, [sp, #12]
 817:c:/Users/Black_Life/STM32Cube/Repository/STM32Cube_FW_F4_V1.26.2/Middlewares/Third_Party/LwIP/src/core/ipv4\etharp.c ****     /* destination Ethernet address is multicast */
 2514              		.loc 1 817 5 is_stmt 1 view .LVU705
 817:c:/Users/Black_Life/STM32Cube/Repository/STM32Cube_FW_F4_V1.26.2/Middlewares/Third_Party/LwIP/src/core/ipv4\etharp.c ****     /* destination Ethernet address is multicast */
 2515              		.loc 1 817 25 is_stmt 0 view .LVU706
 2516 00dc EB78     		ldrb	r3, [r5, #3]	@ zero_extendqisi2
 817:c:/Users/Black_Life/STM32Cube/Repository/STM32Cube_FW_F4_V1.26.2/Middlewares/Third_Party/LwIP/src/core/ipv4\etharp.c ****     /* destination Ethernet address is multicast */
 2517              		.loc 1 817 23 view .LVU707
 2518 00de 8DF80D30 		strb	r3, [sp, #13]
 819:c:/Users/Black_Life/STM32Cube/Repository/STM32Cube_FW_F4_V1.26.2/Middlewares/Third_Party/LwIP/src/core/ipv4\etharp.c ****     /* unicast destination IP address? */
 2519              		.loc 1 819 5 is_stmt 1 view .LVU708
 2520              	.LVL223:
 819:c:/Users/Black_Life/STM32Cube/Repository/STM32Cube_FW_F4_V1.26.2/Middlewares/Third_Party/LwIP/src/core/ipv4\etharp.c ****     /* unicast destination IP address? */
 2521              		.loc 1 819 10 is_stmt 0 view .LVU709
 2522 00e2 02AB     		add	r3, sp, #8
 2523              	.LVL224:
 819:c:/Users/Black_Life/STM32Cube/Repository/STM32Cube_FW_F4_V1.26.2/Middlewares/Third_Party/LwIP/src/core/ipv4\etharp.c ****     /* unicast destination IP address? */
 2524              		.loc 1 819 10 view .LVU710
 2525 00e4 21E0     		b	.L187
 2526              	.LVL225:
 2527              	.L192:
 2528              	.LBB13:
 877:c:/Users/Black_Life/STM32Cube/Repository/STM32Cube_FW_F4_V1.26.2/Middlewares/Third_Party/LwIP/src/core/ipv4\etharp.c ****       if ((arp_table[i].state >= ETHARP_STATE_STABLE) &&
 2529              		.loc 1 877 37 is_stmt 1 discriminator 2 view .LVU711
 877:c:/Users/Black_Life/STM32Cube/Repository/STM32Cube_FW_F4_V1.26.2/Middlewares/Third_Party/LwIP/src/core/ipv4\etharp.c ****       if ((arp_table[i].state >= ETHARP_STATE_STABLE) &&
 2530              		.loc 1 877 38 is_stmt 0 discriminator 2 view .LVU712
 2531 00e6 0133     		adds	r3, r3, #1
 2532              	.LVL226:
 877:c:/Users/Black_Life/STM32Cube/Repository/STM32Cube_FW_F4_V1.26.2/Middlewares/Third_Party/LwIP/src/core/ipv4\etharp.c ****       if ((arp_table[i].state >= ETHARP_STATE_STABLE) &&
 2533              		.loc 1 877 38 discriminator 2 view .LVU713
 2534 00e8 DBB2     		uxtb	r3, r3
 2535              	.LVL227:
 2536              	.L193:
 877:c:/Users/Black_Life/STM32Cube/Repository/STM32Cube_FW_F4_V1.26.2/Middlewares/Third_Party/LwIP/src/core/ipv4\etharp.c ****       if ((arp_table[i].state >= ETHARP_STATE_STABLE) &&
 2537              		.loc 1 877 17 is_stmt 1 discriminator 1 view .LVU714
 877:c:/Users/Black_Life/STM32Cube/Repository/STM32Cube_FW_F4_V1.26.2/Middlewares/Third_Party/LwIP/src/core/ipv4\etharp.c ****       if ((arp_table[i].state >= ETHARP_STATE_STABLE) &&
 2538              		.loc 1 877 5 is_stmt 0 discriminator 1 view .LVU715
 2539 00ea 092B     		cmp	r3, #9
 2540 00ec 16D8     		bhi	.L202
 878:c:/Users/Black_Life/STM32Cube/Repository/STM32Cube_FW_F4_V1.26.2/Middlewares/Third_Party/LwIP/src/core/ipv4\etharp.c **** #if ETHARP_TABLE_MATCH_NETIF
 2541              		.loc 1 878 7 is_stmt 1 view .LVU716
 878:c:/Users/Black_Life/STM32Cube/Repository/STM32Cube_FW_F4_V1.26.2/Middlewares/Third_Party/LwIP/src/core/ipv4\etharp.c **** #if ETHARP_TABLE_MATCH_NETIF
 2542              		.loc 1 878 24 is_stmt 0 view .LVU717
 2543 00ee 03EB4300 		add	r0, r3, r3, lsl #1
 2544 00f2 164C     		ldr	r4, .L203+4
 2545 00f4 04EBC000 		add	r0, r4, r0, lsl #3
 2546 00f8 027D     		ldrb	r2, [r0, #20]	@ zero_extendqisi2
 878:c:/Users/Black_Life/STM32Cube/Repository/STM32Cube_FW_F4_V1.26.2/Middlewares/Third_Party/LwIP/src/core/ipv4\etharp.c **** #if ETHARP_TABLE_MATCH_NETIF
 2547              		.loc 1 878 10 view .LVU718
ARM GAS  C:\Users\BLACK_~1\AppData\Local\Temp\ccrhXwwe.s 			page 77


 2548 00fa 012A     		cmp	r2, #1
 2549 00fc F3D9     		bls	.L192
 880:c:/Users/Black_Life/STM32Cube/Repository/STM32Cube_FW_F4_V1.26.2/Middlewares/Third_Party/LwIP/src/core/ipv4\etharp.c **** #endif
 2550              		.loc 1 880 24 discriminator 1 view .LVU719
 2551 00fe 8268     		ldr	r2, [r0, #8]
 878:c:/Users/Black_Life/STM32Cube/Repository/STM32Cube_FW_F4_V1.26.2/Middlewares/Third_Party/LwIP/src/core/ipv4\etharp.c **** #if ETHARP_TABLE_MATCH_NETIF
 2552              		.loc 1 878 55 discriminator 1 view .LVU720
 2553 0100 B242     		cmp	r2, r6
 2554 0102 F0D1     		bne	.L192
 882:c:/Users/Black_Life/STM32Cube/Repository/STM32Cube_FW_F4_V1.26.2/Middlewares/Third_Party/LwIP/src/core/ipv4\etharp.c ****         /* found an existing, stable entry */
 2555              		.loc 1 882 12 view .LVU721
 2556 0104 2A68     		ldr	r2, [r5]
 2557 0106 4168     		ldr	r1, [r0, #4]
 880:c:/Users/Black_Life/STM32Cube/Repository/STM32Cube_FW_F4_V1.26.2/Middlewares/Third_Party/LwIP/src/core/ipv4\etharp.c **** #endif
 2558              		.loc 1 880 41 view .LVU722
 2559 0108 8A42     		cmp	r2, r1
 2560 010a ECD1     		bne	.L192
 884:c:/Users/Black_Life/STM32Cube/Repository/STM32Cube_FW_F4_V1.26.2/Middlewares/Third_Party/LwIP/src/core/ipv4\etharp.c ****         return etharp_output_to_arp_index(netif, q, i);
 2561              		.loc 1 884 9 is_stmt 1 view .LVU723
 2562 010c 0E4A     		ldr	r2, .L203
 2563 010e 1370     		strb	r3, [r2]
 885:c:/Users/Black_Life/STM32Cube/Repository/STM32Cube_FW_F4_V1.26.2/Middlewares/Third_Party/LwIP/src/core/ipv4\etharp.c ****       }
 2564              		.loc 1 885 9 view .LVU724
 885:c:/Users/Black_Life/STM32Cube/Repository/STM32Cube_FW_F4_V1.26.2/Middlewares/Third_Party/LwIP/src/core/ipv4\etharp.c ****       }
 2565              		.loc 1 885 16 is_stmt 0 view .LVU725
 2566 0110 1A46     		mov	r2, r3
 2567 0112 3946     		mov	r1, r7
 2568 0114 3046     		mov	r0, r6
 2569 0116 FFF7FEFF 		bl	etharp_output_to_arp_index
 2570              	.LVL228:
 885:c:/Users/Black_Life/STM32Cube/Repository/STM32Cube_FW_F4_V1.26.2/Middlewares/Third_Party/LwIP/src/core/ipv4\etharp.c ****       }
 2571              		.loc 1 885 16 view .LVU726
 2572 011a 0FE0     		b	.L190
 2573              	.LVL229:
 2574              	.L202:
 890:c:/Users/Black_Life/STM32Cube/Repository/STM32Cube_FW_F4_V1.26.2/Middlewares/Third_Party/LwIP/src/core/ipv4\etharp.c ****   }
 2575              		.loc 1 890 5 is_stmt 1 view .LVU727
 890:c:/Users/Black_Life/STM32Cube/Repository/STM32Cube_FW_F4_V1.26.2/Middlewares/Third_Party/LwIP/src/core/ipv4\etharp.c ****   }
 2576              		.loc 1 890 12 is_stmt 0 view .LVU728
 2577 011c 3A46     		mov	r2, r7
 2578 011e 2946     		mov	r1, r5
 2579 0120 3046     		mov	r0, r6
 2580 0122 FFF7FEFF 		bl	etharp_query
 2581              	.LVL230:
 890:c:/Users/Black_Life/STM32Cube/Repository/STM32Cube_FW_F4_V1.26.2/Middlewares/Third_Party/LwIP/src/core/ipv4\etharp.c ****   }
 2582              		.loc 1 890 12 view .LVU729
 2583 0126 09E0     		b	.L190
 2584              	.LVL231:
 2585              	.L195:
 890:c:/Users/Black_Life/STM32Cube/Repository/STM32Cube_FW_F4_V1.26.2/Middlewares/Third_Party/LwIP/src/core/ipv4\etharp.c ****   }
 2586              		.loc 1 890 12 view .LVU730
 2587              	.LBE13:
 808:c:/Users/Black_Life/STM32Cube/Repository/STM32Cube_FW_F4_V1.26.2/Middlewares/Third_Party/LwIP/src/core/ipv4\etharp.c ****     /* multicast destination IP address? */
 2588              		.loc 1 808 10 view .LVU731
 2589 0128 0E4B     		ldr	r3, .L203+28
 2590              	.L187:
 2591              	.LVL232:
ARM GAS  C:\Users\BLACK_~1\AppData\Local\Temp\ccrhXwwe.s 			page 78


 896:c:/Users/Black_Life/STM32Cube/Repository/STM32Cube_FW_F4_V1.26.2/Middlewares/Third_Party/LwIP/src/core/ipv4\etharp.c **** }
 2592              		.loc 1 896 3 is_stmt 1 view .LVU732
 896:c:/Users/Black_Life/STM32Cube/Repository/STM32Cube_FW_F4_V1.26.2/Middlewares/Third_Party/LwIP/src/core/ipv4\etharp.c **** }
 2593              		.loc 1 896 10 is_stmt 0 view .LVU733
 2594 012a 4FF40062 		mov	r2, #2048
 2595 012e 0092     		str	r2, [sp]
 2596 0130 06F12A02 		add	r2, r6, #42
 2597 0134 3946     		mov	r1, r7
 2598 0136 3046     		mov	r0, r6
 2599 0138 FFF7FEFF 		bl	ethernet_output
 2600              	.LVL233:
 2601              	.L190:
 897:c:/Users/Black_Life/STM32Cube/Repository/STM32Cube_FW_F4_V1.26.2/Middlewares/Third_Party/LwIP/src/core/ipv4\etharp.c **** 
 2602              		.loc 1 897 1 view .LVU734
 2603 013c 05B0     		add	sp, sp, #20
 2604              	.LCFI35:
 2605              		.cfi_remember_state
 2606              		.cfi_def_cfa_offset 20
 2607              		@ sp needed
 2608 013e F0BD     		pop	{r4, r5, r6, r7, pc}
 2609              	.LVL234:
 2610              	.L196:
 2611              	.LCFI36:
 2612              		.cfi_restore_state
 2613              	.LBB14:
 850:c:/Users/Black_Life/STM32Cube/Repository/STM32Cube_FW_F4_V1.26.2/Middlewares/Third_Party/LwIP/src/core/ipv4\etharp.c ****           }
 2614              		.loc 1 850 20 view .LVU735
 2615 0140 6FF00300 		mvn	r0, #3
 2616 0144 FAE7     		b	.L190
 2617              	.L204:
 2618 0146 00BF     		.align	2
 2619              	.L203:
 2620 0148 00000000 		.word	.LANCHOR1
 2621 014c 00000000 		.word	.LANCHOR0
 2622 0150 00000000 		.word	.LC0
 2623 0154 00000000 		.word	.LC6
 2624 0158 90000000 		.word	.LC2
 2625 015c 38000000 		.word	.LC15
 2626 0160 00000000 		.word	.LC10
 2627 0164 00000000 		.word	ethbroadcast
 2628              	.LBE14:
 2629              		.cfi_endproc
 2630              	.LFE165:
 2632              		.section	.bss.arp_table,"aw",%nobits
 2633              		.align	2
 2634              		.set	.LANCHOR0,. + 0
 2637              	arp_table:
 2638 0000 00000000 		.space	240
 2638      00000000 
 2638      00000000 
 2638      00000000 
 2638      00000000 
 2639              		.section	.bss.etharp_cached_entry,"aw",%nobits
 2640              		.set	.LANCHOR1,. + 0
 2643              	etharp_cached_entry:
 2644 0000 00       		.space	1
 2645              		.text
ARM GAS  C:\Users\BLACK_~1\AppData\Local\Temp\ccrhXwwe.s 			page 79


 2646              	.Letext0:
 2647              		.file 2 "e:\\gnu arm embedded toolchain\\10 2021.10\\arm-none-eabi\\include\\machine\\_default_typ
 2648              		.file 3 "e:\\gnu arm embedded toolchain\\10 2021.10\\arm-none-eabi\\include\\sys\\_stdint.h"
 2649              		.file 4 "e:\\gnu arm embedded toolchain\\10 2021.10\\lib\\gcc\\arm-none-eabi\\10.3.1\\include\\std
 2650              		.file 5 "e:\\gnu arm embedded toolchain\\10 2021.10\\arm-none-eabi\\include\\sys\\_types.h"
 2651              		.file 6 "e:\\gnu arm embedded toolchain\\10 2021.10\\arm-none-eabi\\include\\sys\\types.h"
 2652              		.file 7 "c:/Users/Black_Life/STM32Cube/Repository/STM32Cube_FW_F4_V1.26.2/Middlewares/Third_Party/
 2653              		.file 8 "c:/Users/Black_Life/STM32Cube/Repository/STM32Cube_FW_F4_V1.26.2/Middlewares/Third_Party/
 2654              		.file 9 "c:/Users/Black_Life/STM32Cube/Repository/STM32Cube_FW_F4_V1.26.2/Middlewares/Third_Party/
 2655              		.file 10 "c:/Users/Black_Life/STM32Cube/Repository/STM32Cube_FW_F4_V1.26.2/Middlewares/Third_Party
 2656              		.file 11 "c:/Users/Black_Life/STM32Cube/Repository/STM32Cube_FW_F4_V1.26.2/Middlewares/Third_Party
 2657              		.file 12 "c:/Users/Black_Life/STM32Cube/Repository/STM32Cube_FW_F4_V1.26.2/Middlewares/Third_Party
 2658              		.file 13 "c:/Users/Black_Life/STM32Cube/Repository/STM32Cube_FW_F4_V1.26.2/Middlewares/Third_Party
 2659              		.file 14 "c:/Users/Black_Life/STM32Cube/Repository/STM32Cube_FW_F4_V1.26.2/Middlewares/Third_Party
 2660              		.file 15 "c:/Users/Black_Life/STM32Cube/Repository/STM32Cube_FW_F4_V1.26.2/Middlewares/Third_Party
 2661              		.file 16 "c:/Users/Black_Life/STM32Cube/Repository/STM32Cube_FW_F4_V1.26.2/Middlewares/Third_Party
 2662              		.file 17 "c:/Users/Black_Life/STM32Cube/Repository/STM32Cube_FW_F4_V1.26.2/Middlewares/Third_Party
 2663              		.file 18 "c:/Users/Black_Life/STM32Cube/Repository/STM32Cube_FW_F4_V1.26.2/Middlewares/Third_Party
 2664              		.file 19 "c:/Users/Black_Life/STM32Cube/Repository/STM32Cube_FW_F4_V1.26.2/Middlewares/Third_Party
 2665              		.file 20 "e:\\gnu arm embedded toolchain\\10 2021.10\\arm-none-eabi\\include\\stdio.h"
 2666              		.file 21 "c:/Users/Black_Life/STM32Cube/Repository/STM32Cube_FW_F4_V1.26.2/Middlewares/Third_Party
ARM GAS  C:\Users\BLACK_~1\AppData\Local\Temp\ccrhXwwe.s 			page 80


DEFINED SYMBOLS
                            *ABS*:00000000 etharp.c
C:\Users\BLACK_~1\AppData\Local\Temp\ccrhXwwe.s:20     .text.etharp_free_entry:00000000 $t
C:\Users\BLACK_~1\AppData\Local\Temp\ccrhXwwe.s:25     .text.etharp_free_entry:00000000 etharp_free_entry
C:\Users\BLACK_~1\AppData\Local\Temp\ccrhXwwe.s:75     .text.etharp_free_entry:00000030 $d
C:\Users\BLACK_~1\AppData\Local\Temp\ccrhXwwe.s:80     .rodata.etharp_find_entry.str1.4:00000000 $d
C:\Users\BLACK_~1\AppData\Local\Temp\ccrhXwwe.s:98     .text.etharp_find_entry:00000000 $t
C:\Users\BLACK_~1\AppData\Local\Temp\ccrhXwwe.s:103    .text.etharp_find_entry:00000000 etharp_find_entry
C:\Users\BLACK_~1\AppData\Local\Temp\ccrhXwwe.s:511    .text.etharp_find_entry:000001ac $d
C:\Users\BLACK_~1\AppData\Local\Temp\ccrhXwwe.s:521    .rodata.etharp_update_arp_entry.str1.4:00000000 $d
C:\Users\BLACK_~1\AppData\Local\Temp\ccrhXwwe.s:525    .text.etharp_update_arp_entry:00000000 $t
C:\Users\BLACK_~1\AppData\Local\Temp\ccrhXwwe.s:530    .text.etharp_update_arp_entry:00000000 etharp_update_arp_entry
C:\Users\BLACK_~1\AppData\Local\Temp\ccrhXwwe.s:703    .text.etharp_update_arp_entry:000000b4 $d
C:\Users\BLACK_~1\AppData\Local\Temp\ccrhXwwe.s:711    .rodata.etharp_raw.str1.4:00000000 $d
C:\Users\BLACK_~1\AppData\Local\Temp\ccrhXwwe.s:722    .text.etharp_raw:00000000 $t
C:\Users\BLACK_~1\AppData\Local\Temp\ccrhXwwe.s:727    .text.etharp_raw:00000000 etharp_raw
C:\Users\BLACK_~1\AppData\Local\Temp\ccrhXwwe.s:928    .text.etharp_raw:000000d4 $d
C:\Users\BLACK_~1\AppData\Local\Temp\ccrhXwwe.s:937    .text.etharp_request_dst:00000000 $t
C:\Users\BLACK_~1\AppData\Local\Temp\ccrhXwwe.s:942    .text.etharp_request_dst:00000000 etharp_request_dst
C:\Users\BLACK_~1\AppData\Local\Temp\ccrhXwwe.s:987    .text.etharp_request_dst:00000020 $d
C:\Users\BLACK_~1\AppData\Local\Temp\ccrhXwwe.s:992    .text.etharp_cleanup_netif:00000000 $t
C:\Users\BLACK_~1\AppData\Local\Temp\ccrhXwwe.s:998    .text.etharp_cleanup_netif:00000000 etharp_cleanup_netif
C:\Users\BLACK_~1\AppData\Local\Temp\ccrhXwwe.s:1071   .text.etharp_cleanup_netif:00000038 $d
C:\Users\BLACK_~1\AppData\Local\Temp\ccrhXwwe.s:1076   .rodata.etharp_find_addr.str1.4:00000000 $d
C:\Users\BLACK_~1\AppData\Local\Temp\ccrhXwwe.s:1080   .text.etharp_find_addr:00000000 $t
C:\Users\BLACK_~1\AppData\Local\Temp\ccrhXwwe.s:1086   .text.etharp_find_addr:00000000 etharp_find_addr
C:\Users\BLACK_~1\AppData\Local\Temp\ccrhXwwe.s:1193   .text.etharp_find_addr:00000068 $d
C:\Users\BLACK_~1\AppData\Local\Temp\ccrhXwwe.s:1201   .rodata.etharp_get_entry.str1.4:00000000 $d
C:\Users\BLACK_~1\AppData\Local\Temp\ccrhXwwe.s:1208   .text.etharp_get_entry:00000000 $t
C:\Users\BLACK_~1\AppData\Local\Temp\ccrhXwwe.s:1214   .text.etharp_get_entry:00000000 etharp_get_entry
C:\Users\BLACK_~1\AppData\Local\Temp\ccrhXwwe.s:1345   .text.etharp_get_entry:00000080 $d
C:\Users\BLACK_~1\AppData\Local\Temp\ccrhXwwe.s:1355   .text.etharp_input:00000000 $t
C:\Users\BLACK_~1\AppData\Local\Temp\ccrhXwwe.s:1361   .text.etharp_input:00000000 etharp_input
C:\Users\BLACK_~1\AppData\Local\Temp\ccrhXwwe.s:1556   .text.etharp_input:000000bc $d
C:\Users\BLACK_~1\AppData\Local\Temp\ccrhXwwe.s:1563   .text.etharp_request:00000000 $t
C:\Users\BLACK_~1\AppData\Local\Temp\ccrhXwwe.s:1569   .text.etharp_request:00000000 etharp_request
C:\Users\BLACK_~1\AppData\Local\Temp\ccrhXwwe.s:1593   .text.etharp_request:0000000c $d
C:\Users\BLACK_~1\AppData\Local\Temp\ccrhXwwe.s:1598   .text.etharp_tmr:00000000 $t
C:\Users\BLACK_~1\AppData\Local\Temp\ccrhXwwe.s:1604   .text.etharp_tmr:00000000 etharp_tmr
C:\Users\BLACK_~1\AppData\Local\Temp\ccrhXwwe.s:1747   .text.etharp_tmr:00000084 $d
C:\Users\BLACK_~1\AppData\Local\Temp\ccrhXwwe.s:1752   .rodata.etharp_output_to_arp_index.str1.4:00000000 $d
C:\Users\BLACK_~1\AppData\Local\Temp\ccrhXwwe.s:1756   .text.etharp_output_to_arp_index:00000000 $t
C:\Users\BLACK_~1\AppData\Local\Temp\ccrhXwwe.s:1761   .text.etharp_output_to_arp_index:00000000 etharp_output_to_arp_index
C:\Users\BLACK_~1\AppData\Local\Temp\ccrhXwwe.s:1910   .text.etharp_output_to_arp_index:000000cc $d
C:\Users\BLACK_~1\AppData\Local\Temp\ccrhXwwe.s:1918   .rodata.etharp_query.str1.4:00000000 $d
C:\Users\BLACK_~1\AppData\Local\Temp\ccrhXwwe.s:1931   .text.etharp_query:00000000 $t
C:\Users\BLACK_~1\AppData\Local\Temp\ccrhXwwe.s:1937   .text.etharp_query:00000000 etharp_query
C:\Users\BLACK_~1\AppData\Local\Temp\ccrhXwwe.s:2303   .text.etharp_query:00000194 $d
C:\Users\BLACK_~1\AppData\Local\Temp\ccrhXwwe.s:2316   .text.etharp_output:00000000 $t
C:\Users\BLACK_~1\AppData\Local\Temp\ccrhXwwe.s:2322   .text.etharp_output:00000000 etharp_output
C:\Users\BLACK_~1\AppData\Local\Temp\ccrhXwwe.s:2620   .text.etharp_output:00000148 $d
C:\Users\BLACK_~1\AppData\Local\Temp\ccrhXwwe.s:2633   .bss.arp_table:00000000 $d
C:\Users\BLACK_~1\AppData\Local\Temp\ccrhXwwe.s:2637   .bss.arp_table:00000000 arp_table
C:\Users\BLACK_~1\AppData\Local\Temp\ccrhXwwe.s:2643   .bss.etharp_cached_entry:00000000 etharp_cached_entry
C:\Users\BLACK_~1\AppData\Local\Temp\ccrhXwwe.s:2644   .bss.etharp_cached_entry:00000000 $d

UNDEFINED SYMBOLS
ARM GAS  C:\Users\BLACK_~1\AppData\Local\Temp\ccrhXwwe.s 			page 81


pbuf_free
printf
ip4_addr_isbroadcast_u32
ethernet_output
pbuf_alloc
lwip_htons
ethzero
dhcp_arp_reply
ethbroadcast
pbuf_clone
pbuf_ref
