ARM GAS  C:\Users\BLACK_~1\AppData\Local\Temp\ccrhXwwe.s 			page 1


   1              		.cpu cortex-m4
   2              		.arch armv7e-m
   3              		.fpu fpv4-sp-d16
   4              		.eabi_attribute 27, 1
   5              		.eabi_attribute 28, 1
   6              		.eabi_attribute 20, 1
   7              		.eabi_attribute 21, 1
   8              		.eabi_attribute 23, 3
   9              		.eabi_attribute 24, 1
  10              		.eabi_attribute 25, 1
  11              		.eabi_attribute 26, 1
  12              		.eabi_attribute 30, 1
  13              		.eabi_attribute 34, 1
  14              		.eabi_attribute 18, 4
  15              		.file	"etharp.c"
  16              		.text
  17              	.Ltext0:
  18              		.cfi_sections	.debug_frame
  19              		.section	.text.etharp_free_entry,"ax",%progbits
  20              		.align	1
  21              		.syntax unified
  22              		.thumb
  23              		.thumb_func
  25              	etharp_free_entry:
  26              	.LVL0:
  27              	.LFB156:
  28              		.file 1 "c:/Users/Black_Life/STM32Cube/Repository/STM32Cube_FW_F4_V1.26.2/Middlewares/Third_Party/
   1:c:/Users/Black_Life/STM32Cube/Repository/STM32Cube_FW_F4_V1.26.2/Middlewares/Third_Party/LwIP/src/core/ipv4\etharp.c **** /**
   2:c:/Users/Black_Life/STM32Cube/Repository/STM32Cube_FW_F4_V1.26.2/Middlewares/Third_Party/LwIP/src/core/ipv4\etharp.c ****  * @file
   3:c:/Users/Black_Life/STM32Cube/Repository/STM32Cube_FW_F4_V1.26.2/Middlewares/Third_Party/LwIP/src/core/ipv4\etharp.c ****  * Address Resolution Protocol module for IP over Ethernet
   4:c:/Users/Black_Life/STM32Cube/Repository/STM32Cube_FW_F4_V1.26.2/Middlewares/Third_Party/LwIP/src/core/ipv4\etharp.c ****  *
   5:c:/Users/Black_Life/STM32Cube/Repository/STM32Cube_FW_F4_V1.26.2/Middlewares/Third_Party/LwIP/src/core/ipv4\etharp.c ****  * Functionally, ARP is divided into two parts. The first maps an IP address
   6:c:/Users/Black_Life/STM32Cube/Repository/STM32Cube_FW_F4_V1.26.2/Middlewares/Third_Party/LwIP/src/core/ipv4\etharp.c ****  * to a physical address when sending a packet, and the second part answers
   7:c:/Users/Black_Life/STM32Cube/Repository/STM32Cube_FW_F4_V1.26.2/Middlewares/Third_Party/LwIP/src/core/ipv4\etharp.c ****  * requests from other machines for our physical address.
   8:c:/Users/Black_Life/STM32Cube/Repository/STM32Cube_FW_F4_V1.26.2/Middlewares/Third_Party/LwIP/src/core/ipv4\etharp.c ****  *
   9:c:/Users/Black_Life/STM32Cube/Repository/STM32Cube_FW_F4_V1.26.2/Middlewares/Third_Party/LwIP/src/core/ipv4\etharp.c ****  * This implementation complies with RFC 826 (Ethernet ARP). It supports
  10:c:/Users/Black_Life/STM32Cube/Repository/STM32Cube_FW_F4_V1.26.2/Middlewares/Third_Party/LwIP/src/core/ipv4\etharp.c ****  * Gratuitious ARP from RFC3220 (IP Mobility Support for IPv4) section 4.6
  11:c:/Users/Black_Life/STM32Cube/Repository/STM32Cube_FW_F4_V1.26.2/Middlewares/Third_Party/LwIP/src/core/ipv4\etharp.c ****  * if an interface calls etharp_gratuitous(our_netif) upon address change.
  12:c:/Users/Black_Life/STM32Cube/Repository/STM32Cube_FW_F4_V1.26.2/Middlewares/Third_Party/LwIP/src/core/ipv4\etharp.c ****  */
  13:c:/Users/Black_Life/STM32Cube/Repository/STM32Cube_FW_F4_V1.26.2/Middlewares/Third_Party/LwIP/src/core/ipv4\etharp.c **** 
  14:c:/Users/Black_Life/STM32Cube/Repository/STM32Cube_FW_F4_V1.26.2/Middlewares/Third_Party/LwIP/src/core/ipv4\etharp.c **** /*
  15:c:/Users/Black_Life/STM32Cube/Repository/STM32Cube_FW_F4_V1.26.2/Middlewares/Third_Party/LwIP/src/core/ipv4\etharp.c ****  * Copyright (c) 2001-2003 Swedish Institute of Computer Science.
  16:c:/Users/Black_Life/STM32Cube/Repository/STM32Cube_FW_F4_V1.26.2/Middlewares/Third_Party/LwIP/src/core/ipv4\etharp.c ****  * Copyright (c) 2003-2004 Leon Woestenberg <leon.woestenberg@axon.tv>
  17:c:/Users/Black_Life/STM32Cube/Repository/STM32Cube_FW_F4_V1.26.2/Middlewares/Third_Party/LwIP/src/core/ipv4\etharp.c ****  * Copyright (c) 2003-2004 Axon Digital Design B.V., The Netherlands.
  18:c:/Users/Black_Life/STM32Cube/Repository/STM32Cube_FW_F4_V1.26.2/Middlewares/Third_Party/LwIP/src/core/ipv4\etharp.c ****  * All rights reserved.
  19:c:/Users/Black_Life/STM32Cube/Repository/STM32Cube_FW_F4_V1.26.2/Middlewares/Third_Party/LwIP/src/core/ipv4\etharp.c ****  *
  20:c:/Users/Black_Life/STM32Cube/Repository/STM32Cube_FW_F4_V1.26.2/Middlewares/Third_Party/LwIP/src/core/ipv4\etharp.c ****  * Redistribution and use in source and binary forms, with or without modification,
  21:c:/Users/Black_Life/STM32Cube/Repository/STM32Cube_FW_F4_V1.26.2/Middlewares/Third_Party/LwIP/src/core/ipv4\etharp.c ****  * are permitted provided that the following conditions are met:
  22:c:/Users/Black_Life/STM32Cube/Repository/STM32Cube_FW_F4_V1.26.2/Middlewares/Third_Party/LwIP/src/core/ipv4\etharp.c ****  *
  23:c:/Users/Black_Life/STM32Cube/Repository/STM32Cube_FW_F4_V1.26.2/Middlewares/Third_Party/LwIP/src/core/ipv4\etharp.c ****  * 1. Redistributions of source code must retain the above copyright notice,
  24:c:/Users/Black_Life/STM32Cube/Repository/STM32Cube_FW_F4_V1.26.2/Middlewares/Third_Party/LwIP/src/core/ipv4\etharp.c ****  *    this list of conditions and the following disclaimer.
  25:c:/Users/Black_Life/STM32Cube/Repository/STM32Cube_FW_F4_V1.26.2/Middlewares/Third_Party/LwIP/src/core/ipv4\etharp.c ****  * 2. Redistributions in binary form must reproduce the above copyright notice,
  26:c:/Users/Black_Life/STM32Cube/Repository/STM32Cube_FW_F4_V1.26.2/Middlewares/Third_Party/LwIP/src/core/ipv4\etharp.c ****  *    this list of conditions and the following disclaimer in the documentation
  27:c:/Users/Black_Life/STM32Cube/Repository/STM32Cube_FW_F4_V1.26.2/Middlewares/Third_Party/LwIP/src/core/ipv4\etharp.c ****  *    and/or other materials provided with the distribution.
  28:c:/Users/Black_Life/STM32Cube/Repository/STM32Cube_FW_F4_V1.26.2/Middlewares/Third_Party/LwIP/src/core/ipv4\etharp.c ****  * 3. The name of the author may not be used to endorse or promote products
  29:c:/Users/Black_Life/STM32Cube/Repository/STM32Cube_FW_F4_V1.26.2/Middlewares/Third_Party/LwIP/src/core/ipv4\etharp.c ****  *    derived from this software without specific prior written permission.
  30:c:/Users/Black_Life/STM32Cube/Repository/STM32Cube_FW_F4_V1.26.2/Middlewares/Third_Party/LwIP/src/core/ipv4\etharp.c ****  *
ARM GAS  C:\Users\BLACK_~1\AppData\Local\Temp\ccrhXwwe.s 			page 2


  31:c:/Users/Black_Life/STM32Cube/Repository/STM32Cube_FW_F4_V1.26.2/Middlewares/Third_Party/LwIP/src/core/ipv4\etharp.c ****  * THIS SOFTWARE IS PROVIDED BY THE AUTHOR ``AS IS'' AND ANY EXPRESS OR IMPLIED
  32:c:/Users/Black_Life/STM32Cube/Repository/STM32Cube_FW_F4_V1.26.2/Middlewares/Third_Party/LwIP/src/core/ipv4\etharp.c ****  * WARRANTIES, INCLUDING, BUT NOT LIMITED TO, THE IMPLIED WARRANTIES OF
  33:c:/Users/Black_Life/STM32Cube/Repository/STM32Cube_FW_F4_V1.26.2/Middlewares/Third_Party/LwIP/src/core/ipv4\etharp.c ****  * MERCHANTABILITY AND FITNESS FOR A PARTICULAR PURPOSE ARE DISCLAIMED. IN NO EVENT
  34:c:/Users/Black_Life/STM32Cube/Repository/STM32Cube_FW_F4_V1.26.2/Middlewares/Third_Party/LwIP/src/core/ipv4\etharp.c ****  * SHALL THE AUTHOR BE LIABLE FOR ANY DIRECT, INDIRECT, INCIDENTAL, SPECIAL,
  35:c:/Users/Black_Life/STM32Cube/Repository/STM32Cube_FW_F4_V1.26.2/Middlewares/Third_Party/LwIP/src/core/ipv4\etharp.c ****  * EXEMPLARY, OR CONSEQUENTIAL DAMAGES (INCLUDING, BUT NOT LIMITED TO, PROCUREMENT
  36:c:/Users/Black_Life/STM32Cube/Repository/STM32Cube_FW_F4_V1.26.2/Middlewares/Third_Party/LwIP/src/core/ipv4\etharp.c ****  * OF SUBSTITUTE GOODS OR SERVICES; LOSS OF USE, DATA, OR PROFITS; OR BUSINESS
  37:c:/Users/Black_Life/STM32Cube/Repository/STM32Cube_FW_F4_V1.26.2/Middlewares/Third_Party/LwIP/src/core/ipv4\etharp.c ****  * INTERRUPTION) HOWEVER CAUSED AND ON ANY THEORY OF LIABILITY, WHETHER IN
  38:c:/Users/Black_Life/STM32Cube/Repository/STM32Cube_FW_F4_V1.26.2/Middlewares/Third_Party/LwIP/src/core/ipv4\etharp.c ****  * CONTRACT, STRICT LIABILITY, OR TORT (INCLUDING NEGLIGENCE OR OTHERWISE) ARISING
  39:c:/Users/Black_Life/STM32Cube/Repository/STM32Cube_FW_F4_V1.26.2/Middlewares/Third_Party/LwIP/src/core/ipv4\etharp.c ****  * IN ANY WAY OUT OF THE USE OF THIS SOFTWARE, EVEN IF ADVISED OF THE POSSIBILITY
  40:c:/Users/Black_Life/STM32Cube/Repository/STM32Cube_FW_F4_V1.26.2/Middlewares/Third_Party/LwIP/src/core/ipv4\etharp.c ****  * OF SUCH DAMAGE.
  41:c:/Users/Black_Life/STM32Cube/Repository/STM32Cube_FW_F4_V1.26.2/Middlewares/Third_Party/LwIP/src/core/ipv4\etharp.c ****  *
  42:c:/Users/Black_Life/STM32Cube/Repository/STM32Cube_FW_F4_V1.26.2/Middlewares/Third_Party/LwIP/src/core/ipv4\etharp.c ****  * This file is part of the lwIP TCP/IP stack.
  43:c:/Users/Black_Life/STM32Cube/Repository/STM32Cube_FW_F4_V1.26.2/Middlewares/Third_Party/LwIP/src/core/ipv4\etharp.c ****  *
  44:c:/Users/Black_Life/STM32Cube/Repository/STM32Cube_FW_F4_V1.26.2/Middlewares/Third_Party/LwIP/src/core/ipv4\etharp.c ****  */
  45:c:/Users/Black_Life/STM32Cube/Repository/STM32Cube_FW_F4_V1.26.2/Middlewares/Third_Party/LwIP/src/core/ipv4\etharp.c **** 
  46:c:/Users/Black_Life/STM32Cube/Repository/STM32Cube_FW_F4_V1.26.2/Middlewares/Third_Party/LwIP/src/core/ipv4\etharp.c **** #include "lwip/opt.h"
  47:c:/Users/Black_Life/STM32Cube/Repository/STM32Cube_FW_F4_V1.26.2/Middlewares/Third_Party/LwIP/src/core/ipv4\etharp.c **** 
  48:c:/Users/Black_Life/STM32Cube/Repository/STM32Cube_FW_F4_V1.26.2/Middlewares/Third_Party/LwIP/src/core/ipv4\etharp.c **** #if LWIP_IPV4 && LWIP_ARP /* don't build if not configured for use in lwipopts.h */
  49:c:/Users/Black_Life/STM32Cube/Repository/STM32Cube_FW_F4_V1.26.2/Middlewares/Third_Party/LwIP/src/core/ipv4\etharp.c **** 
  50:c:/Users/Black_Life/STM32Cube/Repository/STM32Cube_FW_F4_V1.26.2/Middlewares/Third_Party/LwIP/src/core/ipv4\etharp.c **** #include "lwip/etharp.h"
  51:c:/Users/Black_Life/STM32Cube/Repository/STM32Cube_FW_F4_V1.26.2/Middlewares/Third_Party/LwIP/src/core/ipv4\etharp.c **** #include "lwip/stats.h"
  52:c:/Users/Black_Life/STM32Cube/Repository/STM32Cube_FW_F4_V1.26.2/Middlewares/Third_Party/LwIP/src/core/ipv4\etharp.c **** #include "lwip/snmp.h"
  53:c:/Users/Black_Life/STM32Cube/Repository/STM32Cube_FW_F4_V1.26.2/Middlewares/Third_Party/LwIP/src/core/ipv4\etharp.c **** #include "lwip/dhcp.h"
  54:c:/Users/Black_Life/STM32Cube/Repository/STM32Cube_FW_F4_V1.26.2/Middlewares/Third_Party/LwIP/src/core/ipv4\etharp.c **** #include "lwip/autoip.h"
  55:c:/Users/Black_Life/STM32Cube/Repository/STM32Cube_FW_F4_V1.26.2/Middlewares/Third_Party/LwIP/src/core/ipv4\etharp.c **** #include "lwip/prot/iana.h"
  56:c:/Users/Black_Life/STM32Cube/Repository/STM32Cube_FW_F4_V1.26.2/Middlewares/Third_Party/LwIP/src/core/ipv4\etharp.c **** #include "netif/ethernet.h"
  57:c:/Users/Black_Life/STM32Cube/Repository/STM32Cube_FW_F4_V1.26.2/Middlewares/Third_Party/LwIP/src/core/ipv4\etharp.c **** 
  58:c:/Users/Black_Life/STM32Cube/Repository/STM32Cube_FW_F4_V1.26.2/Middlewares/Third_Party/LwIP/src/core/ipv4\etharp.c **** #include <string.h>
  59:c:/Users/Black_Life/STM32Cube/Repository/STM32Cube_FW_F4_V1.26.2/Middlewares/Third_Party/LwIP/src/core/ipv4\etharp.c **** 
  60:c:/Users/Black_Life/STM32Cube/Repository/STM32Cube_FW_F4_V1.26.2/Middlewares/Third_Party/LwIP/src/core/ipv4\etharp.c **** #ifdef LWIP_HOOK_FILENAME
  61:c:/Users/Black_Life/STM32Cube/Repository/STM32Cube_FW_F4_V1.26.2/Middlewares/Third_Party/LwIP/src/core/ipv4\etharp.c **** #include LWIP_HOOK_FILENAME
  62:c:/Users/Black_Life/STM32Cube/Repository/STM32Cube_FW_F4_V1.26.2/Middlewares/Third_Party/LwIP/src/core/ipv4\etharp.c **** #endif
  63:c:/Users/Black_Life/STM32Cube/Repository/STM32Cube_FW_F4_V1.26.2/Middlewares/Third_Party/LwIP/src/core/ipv4\etharp.c **** 
  64:c:/Users/Black_Life/STM32Cube/Repository/STM32Cube_FW_F4_V1.26.2/Middlewares/Third_Party/LwIP/src/core/ipv4\etharp.c **** /** Re-request a used ARP entry 1 minute before it would expire to prevent
  65:c:/Users/Black_Life/STM32Cube/Repository/STM32Cube_FW_F4_V1.26.2/Middlewares/Third_Party/LwIP/src/core/ipv4\etharp.c ****  *  breaking a steadily used connection because the ARP entry timed out. */
  66:c:/Users/Black_Life/STM32Cube/Repository/STM32Cube_FW_F4_V1.26.2/Middlewares/Third_Party/LwIP/src/core/ipv4\etharp.c **** #define ARP_AGE_REREQUEST_USED_UNICAST   (ARP_MAXAGE - 30)
  67:c:/Users/Black_Life/STM32Cube/Repository/STM32Cube_FW_F4_V1.26.2/Middlewares/Third_Party/LwIP/src/core/ipv4\etharp.c **** #define ARP_AGE_REREQUEST_USED_BROADCAST (ARP_MAXAGE - 15)
  68:c:/Users/Black_Life/STM32Cube/Repository/STM32Cube_FW_F4_V1.26.2/Middlewares/Third_Party/LwIP/src/core/ipv4\etharp.c **** 
  69:c:/Users/Black_Life/STM32Cube/Repository/STM32Cube_FW_F4_V1.26.2/Middlewares/Third_Party/LwIP/src/core/ipv4\etharp.c **** /** the time an ARP entry stays pending after first request,
  70:c:/Users/Black_Life/STM32Cube/Repository/STM32Cube_FW_F4_V1.26.2/Middlewares/Third_Party/LwIP/src/core/ipv4\etharp.c ****  *  for ARP_TMR_INTERVAL = 1000, this is
  71:c:/Users/Black_Life/STM32Cube/Repository/STM32Cube_FW_F4_V1.26.2/Middlewares/Third_Party/LwIP/src/core/ipv4\etharp.c ****  *  10 seconds.
  72:c:/Users/Black_Life/STM32Cube/Repository/STM32Cube_FW_F4_V1.26.2/Middlewares/Third_Party/LwIP/src/core/ipv4\etharp.c ****  *
  73:c:/Users/Black_Life/STM32Cube/Repository/STM32Cube_FW_F4_V1.26.2/Middlewares/Third_Party/LwIP/src/core/ipv4\etharp.c ****  *  @internal Keep this number at least 2, otherwise it might
  74:c:/Users/Black_Life/STM32Cube/Repository/STM32Cube_FW_F4_V1.26.2/Middlewares/Third_Party/LwIP/src/core/ipv4\etharp.c ****  *  run out instantly if the timeout occurs directly after a request.
  75:c:/Users/Black_Life/STM32Cube/Repository/STM32Cube_FW_F4_V1.26.2/Middlewares/Third_Party/LwIP/src/core/ipv4\etharp.c ****  */
  76:c:/Users/Black_Life/STM32Cube/Repository/STM32Cube_FW_F4_V1.26.2/Middlewares/Third_Party/LwIP/src/core/ipv4\etharp.c **** #define ARP_MAXPENDING 5
  77:c:/Users/Black_Life/STM32Cube/Repository/STM32Cube_FW_F4_V1.26.2/Middlewares/Third_Party/LwIP/src/core/ipv4\etharp.c **** 
  78:c:/Users/Black_Life/STM32Cube/Repository/STM32Cube_FW_F4_V1.26.2/Middlewares/Third_Party/LwIP/src/core/ipv4\etharp.c **** /** ARP states */
  79:c:/Users/Black_Life/STM32Cube/Repository/STM32Cube_FW_F4_V1.26.2/Middlewares/Third_Party/LwIP/src/core/ipv4\etharp.c **** enum etharp_state {
  80:c:/Users/Black_Life/STM32Cube/Repository/STM32Cube_FW_F4_V1.26.2/Middlewares/Third_Party/LwIP/src/core/ipv4\etharp.c ****   ETHARP_STATE_EMPTY = 0,
  81:c:/Users/Black_Life/STM32Cube/Repository/STM32Cube_FW_F4_V1.26.2/Middlewares/Third_Party/LwIP/src/core/ipv4\etharp.c ****   ETHARP_STATE_PENDING,
  82:c:/Users/Black_Life/STM32Cube/Repository/STM32Cube_FW_F4_V1.26.2/Middlewares/Third_Party/LwIP/src/core/ipv4\etharp.c ****   ETHARP_STATE_STABLE,
  83:c:/Users/Black_Life/STM32Cube/Repository/STM32Cube_FW_F4_V1.26.2/Middlewares/Third_Party/LwIP/src/core/ipv4\etharp.c ****   ETHARP_STATE_STABLE_REREQUESTING_1,
  84:c:/Users/Black_Life/STM32Cube/Repository/STM32Cube_FW_F4_V1.26.2/Middlewares/Third_Party/LwIP/src/core/ipv4\etharp.c ****   ETHARP_STATE_STABLE_REREQUESTING_2
  85:c:/Users/Black_Life/STM32Cube/Repository/STM32Cube_FW_F4_V1.26.2/Middlewares/Third_Party/LwIP/src/core/ipv4\etharp.c **** #if ETHARP_SUPPORT_STATIC_ENTRIES
  86:c:/Users/Black_Life/STM32Cube/Repository/STM32Cube_FW_F4_V1.26.2/Middlewares/Third_Party/LwIP/src/core/ipv4\etharp.c ****   , ETHARP_STATE_STATIC
  87:c:/Users/Black_Life/STM32Cube/Repository/STM32Cube_FW_F4_V1.26.2/Middlewares/Third_Party/LwIP/src/core/ipv4\etharp.c **** #endif /* ETHARP_SUPPORT_STATIC_ENTRIES */
ARM GAS  C:\Users\BLACK_~1\AppData\Local\Temp\ccrhXwwe.s 			page 3


  88:c:/Users/Black_Life/STM32Cube/Repository/STM32Cube_FW_F4_V1.26.2/Middlewares/Third_Party/LwIP/src/core/ipv4\etharp.c **** };
  89:c:/Users/Black_Life/STM32Cube/Repository/STM32Cube_FW_F4_V1.26.2/Middlewares/Third_Party/LwIP/src/core/ipv4\etharp.c **** 
  90:c:/Users/Black_Life/STM32Cube/Repository/STM32Cube_FW_F4_V1.26.2/Middlewares/Third_Party/LwIP/src/core/ipv4\etharp.c **** struct etharp_entry {
  91:c:/Users/Black_Life/STM32Cube/Repository/STM32Cube_FW_F4_V1.26.2/Middlewares/Third_Party/LwIP/src/core/ipv4\etharp.c **** #if ARP_QUEUEING
  92:c:/Users/Black_Life/STM32Cube/Repository/STM32Cube_FW_F4_V1.26.2/Middlewares/Third_Party/LwIP/src/core/ipv4\etharp.c ****   /** Pointer to queue of pending outgoing packets on this ARP entry. */
  93:c:/Users/Black_Life/STM32Cube/Repository/STM32Cube_FW_F4_V1.26.2/Middlewares/Third_Party/LwIP/src/core/ipv4\etharp.c ****   struct etharp_q_entry *q;
  94:c:/Users/Black_Life/STM32Cube/Repository/STM32Cube_FW_F4_V1.26.2/Middlewares/Third_Party/LwIP/src/core/ipv4\etharp.c **** #else /* ARP_QUEUEING */
  95:c:/Users/Black_Life/STM32Cube/Repository/STM32Cube_FW_F4_V1.26.2/Middlewares/Third_Party/LwIP/src/core/ipv4\etharp.c ****   /** Pointer to a single pending outgoing packet on this ARP entry. */
  96:c:/Users/Black_Life/STM32Cube/Repository/STM32Cube_FW_F4_V1.26.2/Middlewares/Third_Party/LwIP/src/core/ipv4\etharp.c ****   struct pbuf *q;
  97:c:/Users/Black_Life/STM32Cube/Repository/STM32Cube_FW_F4_V1.26.2/Middlewares/Third_Party/LwIP/src/core/ipv4\etharp.c **** #endif /* ARP_QUEUEING */
  98:c:/Users/Black_Life/STM32Cube/Repository/STM32Cube_FW_F4_V1.26.2/Middlewares/Third_Party/LwIP/src/core/ipv4\etharp.c ****   ip4_addr_t ipaddr;
  99:c:/Users/Black_Life/STM32Cube/Repository/STM32Cube_FW_F4_V1.26.2/Middlewares/Third_Party/LwIP/src/core/ipv4\etharp.c ****   struct netif *netif;
 100:c:/Users/Black_Life/STM32Cube/Repository/STM32Cube_FW_F4_V1.26.2/Middlewares/Third_Party/LwIP/src/core/ipv4\etharp.c ****   struct eth_addr ethaddr;
 101:c:/Users/Black_Life/STM32Cube/Repository/STM32Cube_FW_F4_V1.26.2/Middlewares/Third_Party/LwIP/src/core/ipv4\etharp.c ****   u16_t ctime;
 102:c:/Users/Black_Life/STM32Cube/Repository/STM32Cube_FW_F4_V1.26.2/Middlewares/Third_Party/LwIP/src/core/ipv4\etharp.c ****   u8_t state;
 103:c:/Users/Black_Life/STM32Cube/Repository/STM32Cube_FW_F4_V1.26.2/Middlewares/Third_Party/LwIP/src/core/ipv4\etharp.c **** };
 104:c:/Users/Black_Life/STM32Cube/Repository/STM32Cube_FW_F4_V1.26.2/Middlewares/Third_Party/LwIP/src/core/ipv4\etharp.c **** 
 105:c:/Users/Black_Life/STM32Cube/Repository/STM32Cube_FW_F4_V1.26.2/Middlewares/Third_Party/LwIP/src/core/ipv4\etharp.c **** static struct etharp_entry arp_table[ARP_TABLE_SIZE];
 106:c:/Users/Black_Life/STM32Cube/Repository/STM32Cube_FW_F4_V1.26.2/Middlewares/Third_Party/LwIP/src/core/ipv4\etharp.c **** 
 107:c:/Users/Black_Life/STM32Cube/Repository/STM32Cube_FW_F4_V1.26.2/Middlewares/Third_Party/LwIP/src/core/ipv4\etharp.c **** #if !LWIP_NETIF_HWADDRHINT
 108:c:/Users/Black_Life/STM32Cube/Repository/STM32Cube_FW_F4_V1.26.2/Middlewares/Third_Party/LwIP/src/core/ipv4\etharp.c **** static netif_addr_idx_t etharp_cached_entry;
 109:c:/Users/Black_Life/STM32Cube/Repository/STM32Cube_FW_F4_V1.26.2/Middlewares/Third_Party/LwIP/src/core/ipv4\etharp.c **** #endif /* !LWIP_NETIF_HWADDRHINT */
 110:c:/Users/Black_Life/STM32Cube/Repository/STM32Cube_FW_F4_V1.26.2/Middlewares/Third_Party/LwIP/src/core/ipv4\etharp.c **** 
 111:c:/Users/Black_Life/STM32Cube/Repository/STM32Cube_FW_F4_V1.26.2/Middlewares/Third_Party/LwIP/src/core/ipv4\etharp.c **** /** Try hard to create a new entry - we want the IP address to appear in
 112:c:/Users/Black_Life/STM32Cube/Repository/STM32Cube_FW_F4_V1.26.2/Middlewares/Third_Party/LwIP/src/core/ipv4\etharp.c ****     the cache (even if this means removing an active entry or so). */
 113:c:/Users/Black_Life/STM32Cube/Repository/STM32Cube_FW_F4_V1.26.2/Middlewares/Third_Party/LwIP/src/core/ipv4\etharp.c **** #define ETHARP_FLAG_TRY_HARD     1
 114:c:/Users/Black_Life/STM32Cube/Repository/STM32Cube_FW_F4_V1.26.2/Middlewares/Third_Party/LwIP/src/core/ipv4\etharp.c **** #define ETHARP_FLAG_FIND_ONLY    2
 115:c:/Users/Black_Life/STM32Cube/Repository/STM32Cube_FW_F4_V1.26.2/Middlewares/Third_Party/LwIP/src/core/ipv4\etharp.c **** #if ETHARP_SUPPORT_STATIC_ENTRIES
 116:c:/Users/Black_Life/STM32Cube/Repository/STM32Cube_FW_F4_V1.26.2/Middlewares/Third_Party/LwIP/src/core/ipv4\etharp.c **** #define ETHARP_FLAG_STATIC_ENTRY 4
 117:c:/Users/Black_Life/STM32Cube/Repository/STM32Cube_FW_F4_V1.26.2/Middlewares/Third_Party/LwIP/src/core/ipv4\etharp.c **** #endif /* ETHARP_SUPPORT_STATIC_ENTRIES */
 118:c:/Users/Black_Life/STM32Cube/Repository/STM32Cube_FW_F4_V1.26.2/Middlewares/Third_Party/LwIP/src/core/ipv4\etharp.c **** 
 119:c:/Users/Black_Life/STM32Cube/Repository/STM32Cube_FW_F4_V1.26.2/Middlewares/Third_Party/LwIP/src/core/ipv4\etharp.c **** #if LWIP_NETIF_HWADDRHINT
 120:c:/Users/Black_Life/STM32Cube/Repository/STM32Cube_FW_F4_V1.26.2/Middlewares/Third_Party/LwIP/src/core/ipv4\etharp.c **** #define ETHARP_SET_ADDRHINT(netif, addrhint)  do { if (((netif) != NULL) && ((netif)->hints != NULL
 121:c:/Users/Black_Life/STM32Cube/Repository/STM32Cube_FW_F4_V1.26.2/Middlewares/Third_Party/LwIP/src/core/ipv4\etharp.c ****                                               (netif)->hints->addr_hint = (addrhint); }} while(0)
 122:c:/Users/Black_Life/STM32Cube/Repository/STM32Cube_FW_F4_V1.26.2/Middlewares/Third_Party/LwIP/src/core/ipv4\etharp.c **** #else /* LWIP_NETIF_HWADDRHINT */
 123:c:/Users/Black_Life/STM32Cube/Repository/STM32Cube_FW_F4_V1.26.2/Middlewares/Third_Party/LwIP/src/core/ipv4\etharp.c **** #define ETHARP_SET_ADDRHINT(netif, addrhint)  (etharp_cached_entry = (addrhint))
 124:c:/Users/Black_Life/STM32Cube/Repository/STM32Cube_FW_F4_V1.26.2/Middlewares/Third_Party/LwIP/src/core/ipv4\etharp.c **** #endif /* LWIP_NETIF_HWADDRHINT */
 125:c:/Users/Black_Life/STM32Cube/Repository/STM32Cube_FW_F4_V1.26.2/Middlewares/Third_Party/LwIP/src/core/ipv4\etharp.c **** 
 126:c:/Users/Black_Life/STM32Cube/Repository/STM32Cube_FW_F4_V1.26.2/Middlewares/Third_Party/LwIP/src/core/ipv4\etharp.c **** 
 127:c:/Users/Black_Life/STM32Cube/Repository/STM32Cube_FW_F4_V1.26.2/Middlewares/Third_Party/LwIP/src/core/ipv4\etharp.c **** /* Check for maximum ARP_TABLE_SIZE */
 128:c:/Users/Black_Life/STM32Cube/Repository/STM32Cube_FW_F4_V1.26.2/Middlewares/Third_Party/LwIP/src/core/ipv4\etharp.c **** #if (ARP_TABLE_SIZE > NETIF_ADDR_IDX_MAX)
 129:c:/Users/Black_Life/STM32Cube/Repository/STM32Cube_FW_F4_V1.26.2/Middlewares/Third_Party/LwIP/src/core/ipv4\etharp.c **** #error "ARP_TABLE_SIZE must fit in an s16_t, you have to reduce it in your lwipopts.h"
 130:c:/Users/Black_Life/STM32Cube/Repository/STM32Cube_FW_F4_V1.26.2/Middlewares/Third_Party/LwIP/src/core/ipv4\etharp.c **** #endif
 131:c:/Users/Black_Life/STM32Cube/Repository/STM32Cube_FW_F4_V1.26.2/Middlewares/Third_Party/LwIP/src/core/ipv4\etharp.c **** 
 132:c:/Users/Black_Life/STM32Cube/Repository/STM32Cube_FW_F4_V1.26.2/Middlewares/Third_Party/LwIP/src/core/ipv4\etharp.c **** 
 133:c:/Users/Black_Life/STM32Cube/Repository/STM32Cube_FW_F4_V1.26.2/Middlewares/Third_Party/LwIP/src/core/ipv4\etharp.c **** static err_t etharp_request_dst(struct netif *netif, const ip4_addr_t *ipaddr, const struct eth_add
 134:c:/Users/Black_Life/STM32Cube/Repository/STM32Cube_FW_F4_V1.26.2/Middlewares/Third_Party/LwIP/src/core/ipv4\etharp.c **** static err_t etharp_raw(struct netif *netif,
 135:c:/Users/Black_Life/STM32Cube/Repository/STM32Cube_FW_F4_V1.26.2/Middlewares/Third_Party/LwIP/src/core/ipv4\etharp.c ****                         const struct eth_addr *ethsrc_addr, const struct eth_addr *ethdst_addr,
 136:c:/Users/Black_Life/STM32Cube/Repository/STM32Cube_FW_F4_V1.26.2/Middlewares/Third_Party/LwIP/src/core/ipv4\etharp.c ****                         const struct eth_addr *hwsrc_addr, const ip4_addr_t *ipsrc_addr,
 137:c:/Users/Black_Life/STM32Cube/Repository/STM32Cube_FW_F4_V1.26.2/Middlewares/Third_Party/LwIP/src/core/ipv4\etharp.c ****                         const struct eth_addr *hwdst_addr, const ip4_addr_t *ipdst_addr,
 138:c:/Users/Black_Life/STM32Cube/Repository/STM32Cube_FW_F4_V1.26.2/Middlewares/Third_Party/LwIP/src/core/ipv4\etharp.c ****                         const u16_t opcode);
 139:c:/Users/Black_Life/STM32Cube/Repository/STM32Cube_FW_F4_V1.26.2/Middlewares/Third_Party/LwIP/src/core/ipv4\etharp.c **** 
 140:c:/Users/Black_Life/STM32Cube/Repository/STM32Cube_FW_F4_V1.26.2/Middlewares/Third_Party/LwIP/src/core/ipv4\etharp.c **** #if ARP_QUEUEING
 141:c:/Users/Black_Life/STM32Cube/Repository/STM32Cube_FW_F4_V1.26.2/Middlewares/Third_Party/LwIP/src/core/ipv4\etharp.c **** /**
 142:c:/Users/Black_Life/STM32Cube/Repository/STM32Cube_FW_F4_V1.26.2/Middlewares/Third_Party/LwIP/src/core/ipv4\etharp.c ****  * Free a complete queue of etharp entries
 143:c:/Users/Black_Life/STM32Cube/Repository/STM32Cube_FW_F4_V1.26.2/Middlewares/Third_Party/LwIP/src/core/ipv4\etharp.c ****  *
 144:c:/Users/Black_Life/STM32Cube/Repository/STM32Cube_FW_F4_V1.26.2/Middlewares/Third_Party/LwIP/src/core/ipv4\etharp.c ****  * @param q a qeueue of etharp_q_entry's to free
ARM GAS  C:\Users\BLACK_~1\AppData\Local\Temp\ccrhXwwe.s 			page 4


 145:c:/Users/Black_Life/STM32Cube/Repository/STM32Cube_FW_F4_V1.26.2/Middlewares/Third_Party/LwIP/src/core/ipv4\etharp.c ****  */
 146:c:/Users/Black_Life/STM32Cube/Repository/STM32Cube_FW_F4_V1.26.2/Middlewares/Third_Party/LwIP/src/core/ipv4\etharp.c **** static void
 147:c:/Users/Black_Life/STM32Cube/Repository/STM32Cube_FW_F4_V1.26.2/Middlewares/Third_Party/LwIP/src/core/ipv4\etharp.c **** free_etharp_q(struct etharp_q_entry *q)
 148:c:/Users/Black_Life/STM32Cube/Repository/STM32Cube_FW_F4_V1.26.2/Middlewares/Third_Party/LwIP/src/core/ipv4\etharp.c **** {
 149:c:/Users/Black_Life/STM32Cube/Repository/STM32Cube_FW_F4_V1.26.2/Middlewares/Third_Party/LwIP/src/core/ipv4\etharp.c ****   struct etharp_q_entry *r;
 150:c:/Users/Black_Life/STM32Cube/Repository/STM32Cube_FW_F4_V1.26.2/Middlewares/Third_Party/LwIP/src/core/ipv4\etharp.c ****   LWIP_ASSERT("q != NULL", q != NULL);
 151:c:/Users/Black_Life/STM32Cube/Repository/STM32Cube_FW_F4_V1.26.2/Middlewares/Third_Party/LwIP/src/core/ipv4\etharp.c ****   while (q) {
 152:c:/Users/Black_Life/STM32Cube/Repository/STM32Cube_FW_F4_V1.26.2/Middlewares/Third_Party/LwIP/src/core/ipv4\etharp.c ****     r = q;
 153:c:/Users/Black_Life/STM32Cube/Repository/STM32Cube_FW_F4_V1.26.2/Middlewares/Third_Party/LwIP/src/core/ipv4\etharp.c ****     q = q->next;
 154:c:/Users/Black_Life/STM32Cube/Repository/STM32Cube_FW_F4_V1.26.2/Middlewares/Third_Party/LwIP/src/core/ipv4\etharp.c ****     LWIP_ASSERT("r->p != NULL", (r->p != NULL));
 155:c:/Users/Black_Life/STM32Cube/Repository/STM32Cube_FW_F4_V1.26.2/Middlewares/Third_Party/LwIP/src/core/ipv4\etharp.c ****     pbuf_free(r->p);
 156:c:/Users/Black_Life/STM32Cube/Repository/STM32Cube_FW_F4_V1.26.2/Middlewares/Third_Party/LwIP/src/core/ipv4\etharp.c ****     memp_free(MEMP_ARP_QUEUE, r);
 157:c:/Users/Black_Life/STM32Cube/Repository/STM32Cube_FW_F4_V1.26.2/Middlewares/Third_Party/LwIP/src/core/ipv4\etharp.c ****   }
 158:c:/Users/Black_Life/STM32Cube/Repository/STM32Cube_FW_F4_V1.26.2/Middlewares/Third_Party/LwIP/src/core/ipv4\etharp.c **** }
 159:c:/Users/Black_Life/STM32Cube/Repository/STM32Cube_FW_F4_V1.26.2/Middlewares/Third_Party/LwIP/src/core/ipv4\etharp.c **** #else /* ARP_QUEUEING */
 160:c:/Users/Black_Life/STM32Cube/Repository/STM32Cube_FW_F4_V1.26.2/Middlewares/Third_Party/LwIP/src/core/ipv4\etharp.c **** 
 161:c:/Users/Black_Life/STM32Cube/Repository/STM32Cube_FW_F4_V1.26.2/Middlewares/Third_Party/LwIP/src/core/ipv4\etharp.c **** /** Compatibility define: free the queued pbuf */
 162:c:/Users/Black_Life/STM32Cube/Repository/STM32Cube_FW_F4_V1.26.2/Middlewares/Third_Party/LwIP/src/core/ipv4\etharp.c **** #define free_etharp_q(q) pbuf_free(q)
 163:c:/Users/Black_Life/STM32Cube/Repository/STM32Cube_FW_F4_V1.26.2/Middlewares/Third_Party/LwIP/src/core/ipv4\etharp.c **** 
 164:c:/Users/Black_Life/STM32Cube/Repository/STM32Cube_FW_F4_V1.26.2/Middlewares/Third_Party/LwIP/src/core/ipv4\etharp.c **** #endif /* ARP_QUEUEING */
 165:c:/Users/Black_Life/STM32Cube/Repository/STM32Cube_FW_F4_V1.26.2/Middlewares/Third_Party/LwIP/src/core/ipv4\etharp.c **** 
 166:c:/Users/Black_Life/STM32Cube/Repository/STM32Cube_FW_F4_V1.26.2/Middlewares/Third_Party/LwIP/src/core/ipv4\etharp.c **** /** Clean up ARP table entries */
 167:c:/Users/Black_Life/STM32Cube/Repository/STM32Cube_FW_F4_V1.26.2/Middlewares/Third_Party/LwIP/src/core/ipv4\etharp.c **** static void
 168:c:/Users/Black_Life/STM32Cube/Repository/STM32Cube_FW_F4_V1.26.2/Middlewares/Third_Party/LwIP/src/core/ipv4\etharp.c **** etharp_free_entry(int i)
 169:c:/Users/Black_Life/STM32Cube/Repository/STM32Cube_FW_F4_V1.26.2/Middlewares/Third_Party/LwIP/src/core/ipv4\etharp.c **** {
  29              		.loc 1 169 1 view -0
  30              		.cfi_startproc
  31              		@ args = 0, pretend = 0, frame = 0
  32              		@ frame_needed = 0, uses_anonymous_args = 0
  33              		.loc 1 169 1 is_stmt 0 view .LVU1
  34 0000 10B5     		push	{r4, lr}
  35              	.LCFI0:
  36              		.cfi_def_cfa_offset 8
  37              		.cfi_offset 4, -8
  38              		.cfi_offset 14, -4
  39 0002 0446     		mov	r4, r0
 170:c:/Users/Black_Life/STM32Cube/Repository/STM32Cube_FW_F4_V1.26.2/Middlewares/Third_Party/LwIP/src/core/ipv4\etharp.c ****   /* remove from SNMP ARP index tree */
 171:c:/Users/Black_Life/STM32Cube/Repository/STM32Cube_FW_F4_V1.26.2/Middlewares/Third_Party/LwIP/src/core/ipv4\etharp.c ****   mib2_remove_arp_entry(arp_table[i].netif, &arp_table[i].ipaddr);
  40              		.loc 1 171 66 is_stmt 1 view .LVU2
 172:c:/Users/Black_Life/STM32Cube/Repository/STM32Cube_FW_F4_V1.26.2/Middlewares/Third_Party/LwIP/src/core/ipv4\etharp.c ****   /* and empty packet queue */
 173:c:/Users/Black_Life/STM32Cube/Repository/STM32Cube_FW_F4_V1.26.2/Middlewares/Third_Party/LwIP/src/core/ipv4\etharp.c ****   if (arp_table[i].q != NULL) {
  41              		.loc 1 173 3 view .LVU3
  42              		.loc 1 173 19 is_stmt 0 view .LVU4
  43 0004 00EB4002 		add	r2, r0, r0, lsl #1
  44 0008 094B     		ldr	r3, .L4
  45 000a 53F83200 		ldr	r0, [r3, r2, lsl #3]
  46              	.LVL1:
  47              		.loc 1 173 6 view .LVU5
  48 000e 38B1     		cbz	r0, .L2
 174:c:/Users/Black_Life/STM32Cube/Repository/STM32Cube_FW_F4_V1.26.2/Middlewares/Third_Party/LwIP/src/core/ipv4\etharp.c ****     /* remove all queued packets */
 175:c:/Users/Black_Life/STM32Cube/Repository/STM32Cube_FW_F4_V1.26.2/Middlewares/Third_Party/LwIP/src/core/ipv4\etharp.c ****     LWIP_DEBUGF(ETHARP_DEBUG, ("etharp_free_entry: freeing entry %"U16_F", packet queue %p.\n", (u1
  49              		.loc 1 175 133 is_stmt 1 view .LVU6
 176:c:/Users/Black_Life/STM32Cube/Repository/STM32Cube_FW_F4_V1.26.2/Middlewares/Third_Party/LwIP/src/core/ipv4\etharp.c ****     free_etharp_q(arp_table[i].q);
  50              		.loc 1 176 5 view .LVU7
  51 0010 FFF7FEFF 		bl	pbuf_free
  52              	.LVL2:
 177:c:/Users/Black_Life/STM32Cube/Repository/STM32Cube_FW_F4_V1.26.2/Middlewares/Third_Party/LwIP/src/core/ipv4\etharp.c ****     arp_table[i].q = NULL;
ARM GAS  C:\Users\BLACK_~1\AppData\Local\Temp\ccrhXwwe.s 			page 5


  53              		.loc 1 177 5 view .LVU8
  54              		.loc 1 177 20 is_stmt 0 view .LVU9
  55 0014 04EB4403 		add	r3, r4, r4, lsl #1
  56 0018 DB00     		lsls	r3, r3, #3
  57 001a 054A     		ldr	r2, .L4
  58 001c 0021     		movs	r1, #0
  59 001e D150     		str	r1, [r2, r3]
  60              	.L2:
 178:c:/Users/Black_Life/STM32Cube/Repository/STM32Cube_FW_F4_V1.26.2/Middlewares/Third_Party/LwIP/src/core/ipv4\etharp.c ****   }
 179:c:/Users/Black_Life/STM32Cube/Repository/STM32Cube_FW_F4_V1.26.2/Middlewares/Third_Party/LwIP/src/core/ipv4\etharp.c ****   /* recycle entry for re-use */
 180:c:/Users/Black_Life/STM32Cube/Repository/STM32Cube_FW_F4_V1.26.2/Middlewares/Third_Party/LwIP/src/core/ipv4\etharp.c ****   arp_table[i].state = ETHARP_STATE_EMPTY;
  61              		.loc 1 180 3 is_stmt 1 view .LVU10
  62              		.loc 1 180 22 is_stmt 0 view .LVU11
  63 0020 04EB4404 		add	r4, r4, r4, lsl #1
  64              	.LVL3:
  65              		.loc 1 180 22 view .LVU12
  66 0024 0248     		ldr	r0, .L4
  67 0026 00EBC404 		add	r4, r0, r4, lsl #3
  68 002a 0023     		movs	r3, #0
  69 002c 2375     		strb	r3, [r4, #20]
 181:c:/Users/Black_Life/STM32Cube/Repository/STM32Cube_FW_F4_V1.26.2/Middlewares/Third_Party/LwIP/src/core/ipv4\etharp.c **** #ifdef LWIP_DEBUG
 182:c:/Users/Black_Life/STM32Cube/Repository/STM32Cube_FW_F4_V1.26.2/Middlewares/Third_Party/LwIP/src/core/ipv4\etharp.c ****   /* for debugging, clean out the complete entry */
 183:c:/Users/Black_Life/STM32Cube/Repository/STM32Cube_FW_F4_V1.26.2/Middlewares/Third_Party/LwIP/src/core/ipv4\etharp.c ****   arp_table[i].ctime = 0;
 184:c:/Users/Black_Life/STM32Cube/Repository/STM32Cube_FW_F4_V1.26.2/Middlewares/Third_Party/LwIP/src/core/ipv4\etharp.c ****   arp_table[i].netif = NULL;
 185:c:/Users/Black_Life/STM32Cube/Repository/STM32Cube_FW_F4_V1.26.2/Middlewares/Third_Party/LwIP/src/core/ipv4\etharp.c ****   ip4_addr_set_zero(&arp_table[i].ipaddr);
 186:c:/Users/Black_Life/STM32Cube/Repository/STM32Cube_FW_F4_V1.26.2/Middlewares/Third_Party/LwIP/src/core/ipv4\etharp.c ****   arp_table[i].ethaddr = ethzero;
 187:c:/Users/Black_Life/STM32Cube/Repository/STM32Cube_FW_F4_V1.26.2/Middlewares/Third_Party/LwIP/src/core/ipv4\etharp.c **** #endif /* LWIP_DEBUG */
 188:c:/Users/Black_Life/STM32Cube/Repository/STM32Cube_FW_F4_V1.26.2/Middlewares/Third_Party/LwIP/src/core/ipv4\etharp.c **** }
  70              		.loc 1 188 1 view .LVU13
  71 002e 10BD     		pop	{r4, pc}
  72              	.L5:
  73              		.align	2
  74              	.L4:
  75 0030 00000000 		.word	.LANCHOR0
  76              		.cfi_endproc
  77              	.LFE156:
  79              		.section	.rodata.etharp_find_entry.str1.4,"aMS",%progbits,1
  80              		.align	2
  81              	.LC0:
  82 0000 633A2F55 		.ascii	"c:/Users/Black_Life/STM32Cube/Repository/STM32Cube_"
  82      73657273 
  82      2F426C61 
  82      636B5F4C 
  82      6966652F 
  83 0033 46575F46 		.ascii	"FW_F4_V1.26.2/Middlewares/Third_Party/LwIP/src/core"
  83      345F5631 
  83      2E32362E 
  83      322F4D69 
  83      64646C65 
  84 0066 2F697076 		.ascii	"/ipv4/etharp.c\000"
  84      342F6574 
  84      68617270 
  84      2E6300
  85 0075 000000   		.align	2
  86              	.LC1:
  87 0078 6172705F 		.ascii	"arp_table[i].q == NULL\000"
  87      7461626C 
ARM GAS  C:\Users\BLACK_~1\AppData\Local\Temp\ccrhXwwe.s 			page 6


  87      655B695D 
  87      2E71203D 
  87      3D204E55 
  88 008f 00       		.align	2
  89              	.LC2:
  90 0090 41737365 		.ascii	"Assertion \"%s\" failed at line %d in %s\012\000"
  90      7274696F 
  90      6E202225 
  90      73222066 
  90      61696C65 
  91              		.align	2
  92              	.LC3:
  93 00b8 69203C20 		.ascii	"i < ARP_TABLE_SIZE\000"
  93      4152505F 
  93      5441424C 
  93      455F5349 
  93      5A4500
  94 00cb 00       		.align	2
  95              	.LC4:
  96 00cc 6172705F 		.ascii	"arp_table[i].state == ETHARP_STATE_EMPTY\000"
  96      7461626C 
  96      655B695D 
  96      2E737461 
  96      7465203D 
  97              		.section	.text.etharp_find_entry,"ax",%progbits
  98              		.align	1
  99              		.syntax unified
 100              		.thumb
 101              		.thumb_func
 103              	etharp_find_entry:
 104              	.LVL4:
 105              	.LFB158:
 189:c:/Users/Black_Life/STM32Cube/Repository/STM32Cube_FW_F4_V1.26.2/Middlewares/Third_Party/LwIP/src/core/ipv4\etharp.c **** 
 190:c:/Users/Black_Life/STM32Cube/Repository/STM32Cube_FW_F4_V1.26.2/Middlewares/Third_Party/LwIP/src/core/ipv4\etharp.c **** /**
 191:c:/Users/Black_Life/STM32Cube/Repository/STM32Cube_FW_F4_V1.26.2/Middlewares/Third_Party/LwIP/src/core/ipv4\etharp.c ****  * Clears expired entries in the ARP table.
 192:c:/Users/Black_Life/STM32Cube/Repository/STM32Cube_FW_F4_V1.26.2/Middlewares/Third_Party/LwIP/src/core/ipv4\etharp.c ****  *
 193:c:/Users/Black_Life/STM32Cube/Repository/STM32Cube_FW_F4_V1.26.2/Middlewares/Third_Party/LwIP/src/core/ipv4\etharp.c ****  * This function should be called every ARP_TMR_INTERVAL milliseconds (1 second),
 194:c:/Users/Black_Life/STM32Cube/Repository/STM32Cube_FW_F4_V1.26.2/Middlewares/Third_Party/LwIP/src/core/ipv4\etharp.c ****  * in order to expire entries in the ARP table.
 195:c:/Users/Black_Life/STM32Cube/Repository/STM32Cube_FW_F4_V1.26.2/Middlewares/Third_Party/LwIP/src/core/ipv4\etharp.c ****  */
 196:c:/Users/Black_Life/STM32Cube/Repository/STM32Cube_FW_F4_V1.26.2/Middlewares/Third_Party/LwIP/src/core/ipv4\etharp.c **** void
 197:c:/Users/Black_Life/STM32Cube/Repository/STM32Cube_FW_F4_V1.26.2/Middlewares/Third_Party/LwIP/src/core/ipv4\etharp.c **** etharp_tmr(void)
 198:c:/Users/Black_Life/STM32Cube/Repository/STM32Cube_FW_F4_V1.26.2/Middlewares/Third_Party/LwIP/src/core/ipv4\etharp.c **** {
 199:c:/Users/Black_Life/STM32Cube/Repository/STM32Cube_FW_F4_V1.26.2/Middlewares/Third_Party/LwIP/src/core/ipv4\etharp.c ****   int i;
 200:c:/Users/Black_Life/STM32Cube/Repository/STM32Cube_FW_F4_V1.26.2/Middlewares/Third_Party/LwIP/src/core/ipv4\etharp.c **** 
 201:c:/Users/Black_Life/STM32Cube/Repository/STM32Cube_FW_F4_V1.26.2/Middlewares/Third_Party/LwIP/src/core/ipv4\etharp.c ****   LWIP_DEBUGF(ETHARP_DEBUG, ("etharp_timer\n"));
 202:c:/Users/Black_Life/STM32Cube/Repository/STM32Cube_FW_F4_V1.26.2/Middlewares/Third_Party/LwIP/src/core/ipv4\etharp.c ****   /* remove expired entries from the ARP table */
 203:c:/Users/Black_Life/STM32Cube/Repository/STM32Cube_FW_F4_V1.26.2/Middlewares/Third_Party/LwIP/src/core/ipv4\etharp.c ****   for (i = 0; i < ARP_TABLE_SIZE; ++i) {
 204:c:/Users/Black_Life/STM32Cube/Repository/STM32Cube_FW_F4_V1.26.2/Middlewares/Third_Party/LwIP/src/core/ipv4\etharp.c ****     u8_t state = arp_table[i].state;
 205:c:/Users/Black_Life/STM32Cube/Repository/STM32Cube_FW_F4_V1.26.2/Middlewares/Third_Party/LwIP/src/core/ipv4\etharp.c ****     if (state != ETHARP_STATE_EMPTY
 206:c:/Users/Black_Life/STM32Cube/Repository/STM32Cube_FW_F4_V1.26.2/Middlewares/Third_Party/LwIP/src/core/ipv4\etharp.c **** #if ETHARP_SUPPORT_STATIC_ENTRIES
 207:c:/Users/Black_Life/STM32Cube/Repository/STM32Cube_FW_F4_V1.26.2/Middlewares/Third_Party/LwIP/src/core/ipv4\etharp.c ****         && (state != ETHARP_STATE_STATIC)
 208:c:/Users/Black_Life/STM32Cube/Repository/STM32Cube_FW_F4_V1.26.2/Middlewares/Third_Party/LwIP/src/core/ipv4\etharp.c **** #endif /* ETHARP_SUPPORT_STATIC_ENTRIES */
 209:c:/Users/Black_Life/STM32Cube/Repository/STM32Cube_FW_F4_V1.26.2/Middlewares/Third_Party/LwIP/src/core/ipv4\etharp.c ****        ) {
 210:c:/Users/Black_Life/STM32Cube/Repository/STM32Cube_FW_F4_V1.26.2/Middlewares/Third_Party/LwIP/src/core/ipv4\etharp.c ****       arp_table[i].ctime++;
 211:c:/Users/Black_Life/STM32Cube/Repository/STM32Cube_FW_F4_V1.26.2/Middlewares/Third_Party/LwIP/src/core/ipv4\etharp.c ****       if ((arp_table[i].ctime >= ARP_MAXAGE) ||
 212:c:/Users/Black_Life/STM32Cube/Repository/STM32Cube_FW_F4_V1.26.2/Middlewares/Third_Party/LwIP/src/core/ipv4\etharp.c ****           ((arp_table[i].state == ETHARP_STATE_PENDING)  &&
 213:c:/Users/Black_Life/STM32Cube/Repository/STM32Cube_FW_F4_V1.26.2/Middlewares/Third_Party/LwIP/src/core/ipv4\etharp.c ****            (arp_table[i].ctime >= ARP_MAXPENDING))) {
ARM GAS  C:\Users\BLACK_~1\AppData\Local\Temp\ccrhXwwe.s 			page 7


 214:c:/Users/Black_Life/STM32Cube/Repository/STM32Cube_FW_F4_V1.26.2/Middlewares/Third_Party/LwIP/src/core/ipv4\etharp.c ****         /* pending or stable entry has become old! */
 215:c:/Users/Black_Life/STM32Cube/Repository/STM32Cube_FW_F4_V1.26.2/Middlewares/Third_Party/LwIP/src/core/ipv4\etharp.c ****         LWIP_DEBUGF(ETHARP_DEBUG, ("etharp_timer: expired %s entry %d.\n",
 216:c:/Users/Black_Life/STM32Cube/Repository/STM32Cube_FW_F4_V1.26.2/Middlewares/Third_Party/LwIP/src/core/ipv4\etharp.c ****                                    arp_table[i].state >= ETHARP_STATE_STABLE ? "stable" : "pending"
 217:c:/Users/Black_Life/STM32Cube/Repository/STM32Cube_FW_F4_V1.26.2/Middlewares/Third_Party/LwIP/src/core/ipv4\etharp.c ****         /* clean up entries that have just been expired */
 218:c:/Users/Black_Life/STM32Cube/Repository/STM32Cube_FW_F4_V1.26.2/Middlewares/Third_Party/LwIP/src/core/ipv4\etharp.c ****         etharp_free_entry(i);
 219:c:/Users/Black_Life/STM32Cube/Repository/STM32Cube_FW_F4_V1.26.2/Middlewares/Third_Party/LwIP/src/core/ipv4\etharp.c ****       } else if (arp_table[i].state == ETHARP_STATE_STABLE_REREQUESTING_1) {
 220:c:/Users/Black_Life/STM32Cube/Repository/STM32Cube_FW_F4_V1.26.2/Middlewares/Third_Party/LwIP/src/core/ipv4\etharp.c ****         /* Don't send more than one request every 2 seconds. */
 221:c:/Users/Black_Life/STM32Cube/Repository/STM32Cube_FW_F4_V1.26.2/Middlewares/Third_Party/LwIP/src/core/ipv4\etharp.c ****         arp_table[i].state = ETHARP_STATE_STABLE_REREQUESTING_2;
 222:c:/Users/Black_Life/STM32Cube/Repository/STM32Cube_FW_F4_V1.26.2/Middlewares/Third_Party/LwIP/src/core/ipv4\etharp.c ****       } else if (arp_table[i].state == ETHARP_STATE_STABLE_REREQUESTING_2) {
 223:c:/Users/Black_Life/STM32Cube/Repository/STM32Cube_FW_F4_V1.26.2/Middlewares/Third_Party/LwIP/src/core/ipv4\etharp.c ****         /* Reset state to stable, so that the next transmitted packet will
 224:c:/Users/Black_Life/STM32Cube/Repository/STM32Cube_FW_F4_V1.26.2/Middlewares/Third_Party/LwIP/src/core/ipv4\etharp.c ****            re-send an ARP request. */
 225:c:/Users/Black_Life/STM32Cube/Repository/STM32Cube_FW_F4_V1.26.2/Middlewares/Third_Party/LwIP/src/core/ipv4\etharp.c ****         arp_table[i].state = ETHARP_STATE_STABLE;
 226:c:/Users/Black_Life/STM32Cube/Repository/STM32Cube_FW_F4_V1.26.2/Middlewares/Third_Party/LwIP/src/core/ipv4\etharp.c ****       } else if (arp_table[i].state == ETHARP_STATE_PENDING) {
 227:c:/Users/Black_Life/STM32Cube/Repository/STM32Cube_FW_F4_V1.26.2/Middlewares/Third_Party/LwIP/src/core/ipv4\etharp.c ****         /* still pending, resend an ARP query */
 228:c:/Users/Black_Life/STM32Cube/Repository/STM32Cube_FW_F4_V1.26.2/Middlewares/Third_Party/LwIP/src/core/ipv4\etharp.c ****         etharp_request(arp_table[i].netif, &arp_table[i].ipaddr);
 229:c:/Users/Black_Life/STM32Cube/Repository/STM32Cube_FW_F4_V1.26.2/Middlewares/Third_Party/LwIP/src/core/ipv4\etharp.c ****       }
 230:c:/Users/Black_Life/STM32Cube/Repository/STM32Cube_FW_F4_V1.26.2/Middlewares/Third_Party/LwIP/src/core/ipv4\etharp.c ****     }
 231:c:/Users/Black_Life/STM32Cube/Repository/STM32Cube_FW_F4_V1.26.2/Middlewares/Third_Party/LwIP/src/core/ipv4\etharp.c ****   }
 232:c:/Users/Black_Life/STM32Cube/Repository/STM32Cube_FW_F4_V1.26.2/Middlewares/Third_Party/LwIP/src/core/ipv4\etharp.c **** }
 233:c:/Users/Black_Life/STM32Cube/Repository/STM32Cube_FW_F4_V1.26.2/Middlewares/Third_Party/LwIP/src/core/ipv4\etharp.c **** 
 234:c:/Users/Black_Life/STM32Cube/Repository/STM32Cube_FW_F4_V1.26.2/Middlewares/Third_Party/LwIP/src/core/ipv4\etharp.c **** /**
 235:c:/Users/Black_Life/STM32Cube/Repository/STM32Cube_FW_F4_V1.26.2/Middlewares/Third_Party/LwIP/src/core/ipv4\etharp.c ****  * Search the ARP table for a matching or new entry.
 236:c:/Users/Black_Life/STM32Cube/Repository/STM32Cube_FW_F4_V1.26.2/Middlewares/Third_Party/LwIP/src/core/ipv4\etharp.c ****  *
 237:c:/Users/Black_Life/STM32Cube/Repository/STM32Cube_FW_F4_V1.26.2/Middlewares/Third_Party/LwIP/src/core/ipv4\etharp.c ****  * If an IP address is given, return a pending or stable ARP entry that matches
 238:c:/Users/Black_Life/STM32Cube/Repository/STM32Cube_FW_F4_V1.26.2/Middlewares/Third_Party/LwIP/src/core/ipv4\etharp.c ****  * the address. If no match is found, create a new entry with this address set,
 239:c:/Users/Black_Life/STM32Cube/Repository/STM32Cube_FW_F4_V1.26.2/Middlewares/Third_Party/LwIP/src/core/ipv4\etharp.c ****  * but in state ETHARP_EMPTY. The caller must check and possibly change the
 240:c:/Users/Black_Life/STM32Cube/Repository/STM32Cube_FW_F4_V1.26.2/Middlewares/Third_Party/LwIP/src/core/ipv4\etharp.c ****  * state of the returned entry.
 241:c:/Users/Black_Life/STM32Cube/Repository/STM32Cube_FW_F4_V1.26.2/Middlewares/Third_Party/LwIP/src/core/ipv4\etharp.c ****  *
 242:c:/Users/Black_Life/STM32Cube/Repository/STM32Cube_FW_F4_V1.26.2/Middlewares/Third_Party/LwIP/src/core/ipv4\etharp.c ****  * If ipaddr is NULL, return a initialized new entry in state ETHARP_EMPTY.
 243:c:/Users/Black_Life/STM32Cube/Repository/STM32Cube_FW_F4_V1.26.2/Middlewares/Third_Party/LwIP/src/core/ipv4\etharp.c ****  *
 244:c:/Users/Black_Life/STM32Cube/Repository/STM32Cube_FW_F4_V1.26.2/Middlewares/Third_Party/LwIP/src/core/ipv4\etharp.c ****  * In all cases, attempt to create new entries from an empty entry. If no
 245:c:/Users/Black_Life/STM32Cube/Repository/STM32Cube_FW_F4_V1.26.2/Middlewares/Third_Party/LwIP/src/core/ipv4\etharp.c ****  * empty entries are available and ETHARP_FLAG_TRY_HARD flag is set, recycle
 246:c:/Users/Black_Life/STM32Cube/Repository/STM32Cube_FW_F4_V1.26.2/Middlewares/Third_Party/LwIP/src/core/ipv4\etharp.c ****  * old entries. Heuristic choose the least important entry for recycling.
 247:c:/Users/Black_Life/STM32Cube/Repository/STM32Cube_FW_F4_V1.26.2/Middlewares/Third_Party/LwIP/src/core/ipv4\etharp.c ****  *
 248:c:/Users/Black_Life/STM32Cube/Repository/STM32Cube_FW_F4_V1.26.2/Middlewares/Third_Party/LwIP/src/core/ipv4\etharp.c ****  * @param ipaddr IP address to find in ARP cache, or to add if not found.
 249:c:/Users/Black_Life/STM32Cube/Repository/STM32Cube_FW_F4_V1.26.2/Middlewares/Third_Party/LwIP/src/core/ipv4\etharp.c ****  * @param flags See @ref etharp_state
 250:c:/Users/Black_Life/STM32Cube/Repository/STM32Cube_FW_F4_V1.26.2/Middlewares/Third_Party/LwIP/src/core/ipv4\etharp.c ****  * @param netif netif related to this address (used for NETIF_HWADDRHINT)
 251:c:/Users/Black_Life/STM32Cube/Repository/STM32Cube_FW_F4_V1.26.2/Middlewares/Third_Party/LwIP/src/core/ipv4\etharp.c ****  *
 252:c:/Users/Black_Life/STM32Cube/Repository/STM32Cube_FW_F4_V1.26.2/Middlewares/Third_Party/LwIP/src/core/ipv4\etharp.c ****  * @return The ARP entry index that matched or is created, ERR_MEM if no
 253:c:/Users/Black_Life/STM32Cube/Repository/STM32Cube_FW_F4_V1.26.2/Middlewares/Third_Party/LwIP/src/core/ipv4\etharp.c ****  * entry is found or could be recycled.
 254:c:/Users/Black_Life/STM32Cube/Repository/STM32Cube_FW_F4_V1.26.2/Middlewares/Third_Party/LwIP/src/core/ipv4\etharp.c ****  */
 255:c:/Users/Black_Life/STM32Cube/Repository/STM32Cube_FW_F4_V1.26.2/Middlewares/Third_Party/LwIP/src/core/ipv4\etharp.c **** static s16_t
 256:c:/Users/Black_Life/STM32Cube/Repository/STM32Cube_FW_F4_V1.26.2/Middlewares/Third_Party/LwIP/src/core/ipv4\etharp.c **** etharp_find_entry(const ip4_addr_t *ipaddr, u8_t flags, struct netif *netif)
 257:c:/Users/Black_Life/STM32Cube/Repository/STM32Cube_FW_F4_V1.26.2/Middlewares/Third_Party/LwIP/src/core/ipv4\etharp.c **** {
 106              		.loc 1 257 1 is_stmt 1 view -0
 107              		.cfi_startproc
 108              		@ args = 0, pretend = 0, frame = 8
 109              		@ frame_needed = 0, uses_anonymous_args = 0
 110              		.loc 1 257 1 is_stmt 0 view .LVU15
 111 0000 2DE9F04F 		push	{r4, r5, r6, r7, r8, r9, r10, fp, lr}
 112              	.LCFI1:
 113              		.cfi_def_cfa_offset 36
 114              		.cfi_offset 4, -36
 115              		.cfi_offset 5, -32
 116              		.cfi_offset 6, -28
 117              		.cfi_offset 7, -24
 118              		.cfi_offset 8, -20
ARM GAS  C:\Users\BLACK_~1\AppData\Local\Temp\ccrhXwwe.s 			page 8


 119              		.cfi_offset 9, -16
 120              		.cfi_offset 10, -12
 121              		.cfi_offset 11, -8
 122              		.cfi_offset 14, -4
 123 0004 83B0     		sub	sp, sp, #12
 124              	.LCFI2:
 125              		.cfi_def_cfa_offset 48
 126 0006 0646     		mov	r6, r0
 127 0008 1746     		mov	r7, r2
 258:c:/Users/Black_Life/STM32Cube/Repository/STM32Cube_FW_F4_V1.26.2/Middlewares/Third_Party/LwIP/src/core/ipv4\etharp.c ****   s16_t old_pending = ARP_TABLE_SIZE, old_stable = ARP_TABLE_SIZE;
 128              		.loc 1 258 3 is_stmt 1 view .LVU16
 129              	.LVL5:
 259:c:/Users/Black_Life/STM32Cube/Repository/STM32Cube_FW_F4_V1.26.2/Middlewares/Third_Party/LwIP/src/core/ipv4\etharp.c ****   s16_t empty = ARP_TABLE_SIZE;
 130              		.loc 1 259 3 view .LVU17
 260:c:/Users/Black_Life/STM32Cube/Repository/STM32Cube_FW_F4_V1.26.2/Middlewares/Third_Party/LwIP/src/core/ipv4\etharp.c ****   s16_t i = 0;
 131              		.loc 1 260 3 view .LVU18
 261:c:/Users/Black_Life/STM32Cube/Repository/STM32Cube_FW_F4_V1.26.2/Middlewares/Third_Party/LwIP/src/core/ipv4\etharp.c ****   /* oldest entry with packets on queue */
 262:c:/Users/Black_Life/STM32Cube/Repository/STM32Cube_FW_F4_V1.26.2/Middlewares/Third_Party/LwIP/src/core/ipv4\etharp.c ****   s16_t old_queue = ARP_TABLE_SIZE;
 132              		.loc 1 262 3 view .LVU19
 263:c:/Users/Black_Life/STM32Cube/Repository/STM32Cube_FW_F4_V1.26.2/Middlewares/Third_Party/LwIP/src/core/ipv4\etharp.c ****   /* its age */
 264:c:/Users/Black_Life/STM32Cube/Repository/STM32Cube_FW_F4_V1.26.2/Middlewares/Third_Party/LwIP/src/core/ipv4\etharp.c ****   u16_t age_queue = 0, age_pending = 0, age_stable = 0;
 133              		.loc 1 264 3 view .LVU20
 265:c:/Users/Black_Life/STM32Cube/Repository/STM32Cube_FW_F4_V1.26.2/Middlewares/Third_Party/LwIP/src/core/ipv4\etharp.c **** 
 266:c:/Users/Black_Life/STM32Cube/Repository/STM32Cube_FW_F4_V1.26.2/Middlewares/Third_Party/LwIP/src/core/ipv4\etharp.c ****   LWIP_UNUSED_ARG(netif);
 134              		.loc 1 266 3 view .LVU21
 267:c:/Users/Black_Life/STM32Cube/Repository/STM32Cube_FW_F4_V1.26.2/Middlewares/Third_Party/LwIP/src/core/ipv4\etharp.c **** 
 268:c:/Users/Black_Life/STM32Cube/Repository/STM32Cube_FW_F4_V1.26.2/Middlewares/Third_Party/LwIP/src/core/ipv4\etharp.c ****   /**
 269:c:/Users/Black_Life/STM32Cube/Repository/STM32Cube_FW_F4_V1.26.2/Middlewares/Third_Party/LwIP/src/core/ipv4\etharp.c ****    * a) do a search through the cache, remember candidates
 270:c:/Users/Black_Life/STM32Cube/Repository/STM32Cube_FW_F4_V1.26.2/Middlewares/Third_Party/LwIP/src/core/ipv4\etharp.c ****    * b) select candidate entry
 271:c:/Users/Black_Life/STM32Cube/Repository/STM32Cube_FW_F4_V1.26.2/Middlewares/Third_Party/LwIP/src/core/ipv4\etharp.c ****    * c) create new entry
 272:c:/Users/Black_Life/STM32Cube/Repository/STM32Cube_FW_F4_V1.26.2/Middlewares/Third_Party/LwIP/src/core/ipv4\etharp.c ****    */
 273:c:/Users/Black_Life/STM32Cube/Repository/STM32Cube_FW_F4_V1.26.2/Middlewares/Third_Party/LwIP/src/core/ipv4\etharp.c **** 
 274:c:/Users/Black_Life/STM32Cube/Repository/STM32Cube_FW_F4_V1.26.2/Middlewares/Third_Party/LwIP/src/core/ipv4\etharp.c ****   /* a) in a single search sweep, do all of this
 275:c:/Users/Black_Life/STM32Cube/Repository/STM32Cube_FW_F4_V1.26.2/Middlewares/Third_Party/LwIP/src/core/ipv4\etharp.c ****    * 1) remember the first empty entry (if any)
 276:c:/Users/Black_Life/STM32Cube/Repository/STM32Cube_FW_F4_V1.26.2/Middlewares/Third_Party/LwIP/src/core/ipv4\etharp.c ****    * 2) remember the oldest stable entry (if any)
 277:c:/Users/Black_Life/STM32Cube/Repository/STM32Cube_FW_F4_V1.26.2/Middlewares/Third_Party/LwIP/src/core/ipv4\etharp.c ****    * 3) remember the oldest pending entry without queued packets (if any)
 278:c:/Users/Black_Life/STM32Cube/Repository/STM32Cube_FW_F4_V1.26.2/Middlewares/Third_Party/LwIP/src/core/ipv4\etharp.c ****    * 4) remember the oldest pending entry with queued packets (if any)
 279:c:/Users/Black_Life/STM32Cube/Repository/STM32Cube_FW_F4_V1.26.2/Middlewares/Third_Party/LwIP/src/core/ipv4\etharp.c ****    * 5) search for a matching IP entry, either pending or stable
 280:c:/Users/Black_Life/STM32Cube/Repository/STM32Cube_FW_F4_V1.26.2/Middlewares/Third_Party/LwIP/src/core/ipv4\etharp.c ****    *    until 5 matches, or all entries are searched for.
 281:c:/Users/Black_Life/STM32Cube/Repository/STM32Cube_FW_F4_V1.26.2/Middlewares/Third_Party/LwIP/src/core/ipv4\etharp.c ****    */
 282:c:/Users/Black_Life/STM32Cube/Repository/STM32Cube_FW_F4_V1.26.2/Middlewares/Third_Party/LwIP/src/core/ipv4\etharp.c **** 
 283:c:/Users/Black_Life/STM32Cube/Repository/STM32Cube_FW_F4_V1.26.2/Middlewares/Third_Party/LwIP/src/core/ipv4\etharp.c ****   for (i = 0; i < ARP_TABLE_SIZE; ++i) {
 135              		.loc 1 283 3 view .LVU22
 264:c:/Users/Black_Life/STM32Cube/Repository/STM32Cube_FW_F4_V1.26.2/Middlewares/Third_Party/LwIP/src/core/ipv4\etharp.c **** 
 136              		.loc 1 264 41 is_stmt 0 view .LVU23
 137 000a 4FF00009 		mov	r9, #0
 264:c:/Users/Black_Life/STM32Cube/Repository/STM32Cube_FW_F4_V1.26.2/Middlewares/Third_Party/LwIP/src/core/ipv4\etharp.c **** 
 138              		.loc 1 264 24 view .LVU24
 139 000e CDF80090 		str	r9, [sp]
 264:c:/Users/Black_Life/STM32Cube/Repository/STM32Cube_FW_F4_V1.26.2/Middlewares/Third_Party/LwIP/src/core/ipv4\etharp.c **** 
 140              		.loc 1 264 9 view .LVU25
 141 0012 CB46     		mov	fp, r9
 262:c:/Users/Black_Life/STM32Cube/Repository/STM32Cube_FW_F4_V1.26.2/Middlewares/Third_Party/LwIP/src/core/ipv4\etharp.c ****   /* its age */
 142              		.loc 1 262 9 view .LVU26
 143 0014 4FF00A0A 		mov	r10, #10
 144              		.loc 1 283 10 view .LVU27
 145 0018 4B46     		mov	r3, r9
ARM GAS  C:\Users\BLACK_~1\AppData\Local\Temp\ccrhXwwe.s 			page 9


 259:c:/Users/Black_Life/STM32Cube/Repository/STM32Cube_FW_F4_V1.26.2/Middlewares/Third_Party/LwIP/src/core/ipv4\etharp.c ****   s16_t i = 0;
 146              		.loc 1 259 9 view .LVU28
 147 001a 5546     		mov	r5, r10
 258:c:/Users/Black_Life/STM32Cube/Repository/STM32Cube_FW_F4_V1.26.2/Middlewares/Third_Party/LwIP/src/core/ipv4\etharp.c ****   s16_t empty = ARP_TABLE_SIZE;
 148              		.loc 1 258 39 view .LVU29
 149 001c D046     		mov	r8, r10
 258:c:/Users/Black_Life/STM32Cube/Repository/STM32Cube_FW_F4_V1.26.2/Middlewares/Third_Party/LwIP/src/core/ipv4\etharp.c ****   s16_t empty = ARP_TABLE_SIZE;
 150              		.loc 1 258 9 view .LVU30
 151 001e CDF804A0 		str	r10, [sp, #4]
 152 0022 8E46     		mov	lr, r1
 153              		.loc 1 283 3 view .LVU31
 154 0024 03E0     		b	.L7
 155              	.LVL6:
 156              	.L36:
 157              	.LBB2:
 284:c:/Users/Black_Life/STM32Cube/Repository/STM32Cube_FW_F4_V1.26.2/Middlewares/Third_Party/LwIP/src/core/ipv4\etharp.c ****     u8_t state = arp_table[i].state;
 285:c:/Users/Black_Life/STM32Cube/Repository/STM32Cube_FW_F4_V1.26.2/Middlewares/Third_Party/LwIP/src/core/ipv4\etharp.c ****     /* no empty entry found yet and now we do find one? */
 286:c:/Users/Black_Life/STM32Cube/Repository/STM32Cube_FW_F4_V1.26.2/Middlewares/Third_Party/LwIP/src/core/ipv4\etharp.c ****     if ((empty == ARP_TABLE_SIZE) && (state == ETHARP_STATE_EMPTY)) {
 158              		.loc 1 286 35 discriminator 1 view .LVU32
 159 0026 68B9     		cbnz	r0, .L8
 287:c:/Users/Black_Life/STM32Cube/Repository/STM32Cube_FW_F4_V1.26.2/Middlewares/Third_Party/LwIP/src/core/ipv4\etharp.c ****       LWIP_DEBUGF(ETHARP_DEBUG, ("etharp_find_entry: found empty entry %d\n", (int)i));
 288:c:/Users/Black_Life/STM32Cube/Repository/STM32Cube_FW_F4_V1.26.2/Middlewares/Third_Party/LwIP/src/core/ipv4\etharp.c ****       /* remember first empty entry */
 289:c:/Users/Black_Life/STM32Cube/Repository/STM32Cube_FW_F4_V1.26.2/Middlewares/Third_Party/LwIP/src/core/ipv4\etharp.c ****       empty = i;
 160              		.loc 1 289 13 view .LVU33
 161 0028 1D46     		mov	r5, r3
 162              	.LVL7:
 163              	.L9:
 164              		.loc 1 289 13 view .LVU34
 165              	.LBE2:
 283:c:/Users/Black_Life/STM32Cube/Repository/STM32Cube_FW_F4_V1.26.2/Middlewares/Third_Party/LwIP/src/core/ipv4\etharp.c ****     u8_t state = arp_table[i].state;
 166              		.loc 1 283 35 is_stmt 1 discriminator 2 view .LVU35
 167 002a 0133     		adds	r3, r3, #1
 168              	.LVL8:
 283:c:/Users/Black_Life/STM32Cube/Repository/STM32Cube_FW_F4_V1.26.2/Middlewares/Third_Party/LwIP/src/core/ipv4\etharp.c ****     u8_t state = arp_table[i].state;
 169              		.loc 1 283 35 is_stmt 0 discriminator 2 view .LVU36
 170 002c 1BB2     		sxth	r3, r3
 171              	.LVL9:
 172              	.L7:
 283:c:/Users/Black_Life/STM32Cube/Repository/STM32Cube_FW_F4_V1.26.2/Middlewares/Third_Party/LwIP/src/core/ipv4\etharp.c ****     u8_t state = arp_table[i].state;
 173              		.loc 1 283 15 is_stmt 1 discriminator 1 view .LVU37
 283:c:/Users/Black_Life/STM32Cube/Repository/STM32Cube_FW_F4_V1.26.2/Middlewares/Third_Party/LwIP/src/core/ipv4\etharp.c ****     u8_t state = arp_table[i].state;
 174              		.loc 1 283 3 is_stmt 0 discriminator 1 view .LVU38
 175 002e 092B     		cmp	r3, #9
 176 0030 4DDC     		bgt	.L35
 177              	.LBB3:
 284:c:/Users/Black_Life/STM32Cube/Repository/STM32Cube_FW_F4_V1.26.2/Middlewares/Third_Party/LwIP/src/core/ipv4\etharp.c ****     u8_t state = arp_table[i].state;
 178              		.loc 1 284 5 is_stmt 1 view .LVU39
 284:c:/Users/Black_Life/STM32Cube/Repository/STM32Cube_FW_F4_V1.26.2/Middlewares/Third_Party/LwIP/src/core/ipv4\etharp.c ****     u8_t state = arp_table[i].state;
 179              		.loc 1 284 30 is_stmt 0 view .LVU40
 180 0032 1C46     		mov	r4, r3
 284:c:/Users/Black_Life/STM32Cube/Repository/STM32Cube_FW_F4_V1.26.2/Middlewares/Third_Party/LwIP/src/core/ipv4\etharp.c ****     u8_t state = arp_table[i].state;
 181              		.loc 1 284 10 view .LVU41
 182 0034 03EB4302 		add	r2, r3, r3, lsl #1
 183 0038 5C48     		ldr	r0, .L43
 184 003a 00EBC202 		add	r2, r0, r2, lsl #3
 185 003e 107D     		ldrb	r0, [r2, #20]	@ zero_extendqisi2
 186              	.LVL10:
ARM GAS  C:\Users\BLACK_~1\AppData\Local\Temp\ccrhXwwe.s 			page 10


 286:c:/Users/Black_Life/STM32Cube/Repository/STM32Cube_FW_F4_V1.26.2/Middlewares/Third_Party/LwIP/src/core/ipv4\etharp.c ****       LWIP_DEBUGF(ETHARP_DEBUG, ("etharp_find_entry: found empty entry %d\n", (int)i));
 187              		.loc 1 286 5 is_stmt 1 view .LVU42
 286:c:/Users/Black_Life/STM32Cube/Repository/STM32Cube_FW_F4_V1.26.2/Middlewares/Third_Party/LwIP/src/core/ipv4\etharp.c ****       LWIP_DEBUGF(ETHARP_DEBUG, ("etharp_find_entry: found empty entry %d\n", (int)i));
 188              		.loc 1 286 8 is_stmt 0 view .LVU43
 189 0040 0A2D     		cmp	r5, #10
 190 0042 F0D0     		beq	.L36
 191              	.L8:
 290:c:/Users/Black_Life/STM32Cube/Repository/STM32Cube_FW_F4_V1.26.2/Middlewares/Third_Party/LwIP/src/core/ipv4\etharp.c ****     } else if (state != ETHARP_STATE_EMPTY) {
 192              		.loc 1 290 12 is_stmt 1 view .LVU44
 193              		.loc 1 290 15 is_stmt 0 view .LVU45
 194 0044 0028     		cmp	r0, #0
 195 0046 F0D0     		beq	.L9
 291:c:/Users/Black_Life/STM32Cube/Repository/STM32Cube_FW_F4_V1.26.2/Middlewares/Third_Party/LwIP/src/core/ipv4\etharp.c ****       LWIP_ASSERT("state == ETHARP_STATE_PENDING || state >= ETHARP_STATE_STABLE",
 196              		.loc 1 291 7 is_stmt 1 discriminator 3 view .LVU46
 197              		.loc 1 291 7 discriminator 3 view .LVU47
 198              		.loc 1 291 7 discriminator 3 view .LVU48
 199              		.loc 1 291 7 discriminator 3 view .LVU49
 292:c:/Users/Black_Life/STM32Cube/Repository/STM32Cube_FW_F4_V1.26.2/Middlewares/Third_Party/LwIP/src/core/ipv4\etharp.c ****                   state == ETHARP_STATE_PENDING || state >= ETHARP_STATE_STABLE);
 293:c:/Users/Black_Life/STM32Cube/Repository/STM32Cube_FW_F4_V1.26.2/Middlewares/Third_Party/LwIP/src/core/ipv4\etharp.c ****       /* if given, does IP address match IP address in ARP entry? */
 294:c:/Users/Black_Life/STM32Cube/Repository/STM32Cube_FW_F4_V1.26.2/Middlewares/Third_Party/LwIP/src/core/ipv4\etharp.c ****       if (ipaddr && ip4_addr_cmp(ipaddr, &arp_table[i].ipaddr)
 200              		.loc 1 294 7 discriminator 3 view .LVU50
 201              		.loc 1 294 10 is_stmt 0 discriminator 3 view .LVU51
 202 0048 4EB1     		cbz	r6, .L10
 203              		.loc 1 294 21 discriminator 1 view .LVU52
 204 004a 04EB440C 		add	ip, r4, r4, lsl #1
 205 004e 574A     		ldr	r2, .L43
 206 0050 02EBCC0C 		add	ip, r2, ip, lsl #3
 207 0054 DCF80420 		ldr	r2, [ip, #4]
 208              		.loc 1 294 18 discriminator 1 view .LVU53
 209 0058 3168     		ldr	r1, [r6]
 210 005a 9142     		cmp	r1, r2
 211 005c 0ED0     		beq	.L37
 212              	.L10:
 295:c:/Users/Black_Life/STM32Cube/Repository/STM32Cube_FW_F4_V1.26.2/Middlewares/Third_Party/LwIP/src/core/ipv4\etharp.c **** #if ETHARP_TABLE_MATCH_NETIF
 296:c:/Users/Black_Life/STM32Cube/Repository/STM32Cube_FW_F4_V1.26.2/Middlewares/Third_Party/LwIP/src/core/ipv4\etharp.c ****           && ((netif == NULL) || (netif == arp_table[i].netif))
 297:c:/Users/Black_Life/STM32Cube/Repository/STM32Cube_FW_F4_V1.26.2/Middlewares/Third_Party/LwIP/src/core/ipv4\etharp.c **** #endif /* ETHARP_TABLE_MATCH_NETIF */
 298:c:/Users/Black_Life/STM32Cube/Repository/STM32Cube_FW_F4_V1.26.2/Middlewares/Third_Party/LwIP/src/core/ipv4\etharp.c ****          ) {
 299:c:/Users/Black_Life/STM32Cube/Repository/STM32Cube_FW_F4_V1.26.2/Middlewares/Third_Party/LwIP/src/core/ipv4\etharp.c ****         LWIP_DEBUGF(ETHARP_DEBUG | LWIP_DBG_TRACE, ("etharp_find_entry: found matching entry %d\n",
 300:c:/Users/Black_Life/STM32Cube/Repository/STM32Cube_FW_F4_V1.26.2/Middlewares/Third_Party/LwIP/src/core/ipv4\etharp.c ****         /* found exact IP address match, simply bail out */
 301:c:/Users/Black_Life/STM32Cube/Repository/STM32Cube_FW_F4_V1.26.2/Middlewares/Third_Party/LwIP/src/core/ipv4\etharp.c ****         return i;
 302:c:/Users/Black_Life/STM32Cube/Repository/STM32Cube_FW_F4_V1.26.2/Middlewares/Third_Party/LwIP/src/core/ipv4\etharp.c ****       }
 303:c:/Users/Black_Life/STM32Cube/Repository/STM32Cube_FW_F4_V1.26.2/Middlewares/Third_Party/LwIP/src/core/ipv4\etharp.c ****       /* pending entry? */
 304:c:/Users/Black_Life/STM32Cube/Repository/STM32Cube_FW_F4_V1.26.2/Middlewares/Third_Party/LwIP/src/core/ipv4\etharp.c ****       if (state == ETHARP_STATE_PENDING) {
 213              		.loc 1 304 7 is_stmt 1 view .LVU54
 214              		.loc 1 304 10 is_stmt 0 view .LVU55
 215 005e 0128     		cmp	r0, #1
 216 0060 19D0     		beq	.L38
 305:c:/Users/Black_Life/STM32Cube/Repository/STM32Cube_FW_F4_V1.26.2/Middlewares/Third_Party/LwIP/src/core/ipv4\etharp.c ****         /* pending with queued packets? */
 306:c:/Users/Black_Life/STM32Cube/Repository/STM32Cube_FW_F4_V1.26.2/Middlewares/Third_Party/LwIP/src/core/ipv4\etharp.c ****         if (arp_table[i].q != NULL) {
 307:c:/Users/Black_Life/STM32Cube/Repository/STM32Cube_FW_F4_V1.26.2/Middlewares/Third_Party/LwIP/src/core/ipv4\etharp.c ****           if (arp_table[i].ctime >= age_queue) {
 308:c:/Users/Black_Life/STM32Cube/Repository/STM32Cube_FW_F4_V1.26.2/Middlewares/Third_Party/LwIP/src/core/ipv4\etharp.c ****             old_queue = i;
 309:c:/Users/Black_Life/STM32Cube/Repository/STM32Cube_FW_F4_V1.26.2/Middlewares/Third_Party/LwIP/src/core/ipv4\etharp.c ****             age_queue = arp_table[i].ctime;
 310:c:/Users/Black_Life/STM32Cube/Repository/STM32Cube_FW_F4_V1.26.2/Middlewares/Third_Party/LwIP/src/core/ipv4\etharp.c ****           }
 311:c:/Users/Black_Life/STM32Cube/Repository/STM32Cube_FW_F4_V1.26.2/Middlewares/Third_Party/LwIP/src/core/ipv4\etharp.c ****         } else
 312:c:/Users/Black_Life/STM32Cube/Repository/STM32Cube_FW_F4_V1.26.2/Middlewares/Third_Party/LwIP/src/core/ipv4\etharp.c ****           /* pending without queued packets? */
 313:c:/Users/Black_Life/STM32Cube/Repository/STM32Cube_FW_F4_V1.26.2/Middlewares/Third_Party/LwIP/src/core/ipv4\etharp.c ****         {
 314:c:/Users/Black_Life/STM32Cube/Repository/STM32Cube_FW_F4_V1.26.2/Middlewares/Third_Party/LwIP/src/core/ipv4\etharp.c ****           if (arp_table[i].ctime >= age_pending) {
ARM GAS  C:\Users\BLACK_~1\AppData\Local\Temp\ccrhXwwe.s 			page 11


 315:c:/Users/Black_Life/STM32Cube/Repository/STM32Cube_FW_F4_V1.26.2/Middlewares/Third_Party/LwIP/src/core/ipv4\etharp.c ****             old_pending = i;
 316:c:/Users/Black_Life/STM32Cube/Repository/STM32Cube_FW_F4_V1.26.2/Middlewares/Third_Party/LwIP/src/core/ipv4\etharp.c ****             age_pending = arp_table[i].ctime;
 317:c:/Users/Black_Life/STM32Cube/Repository/STM32Cube_FW_F4_V1.26.2/Middlewares/Third_Party/LwIP/src/core/ipv4\etharp.c ****           }
 318:c:/Users/Black_Life/STM32Cube/Repository/STM32Cube_FW_F4_V1.26.2/Middlewares/Third_Party/LwIP/src/core/ipv4\etharp.c ****         }
 319:c:/Users/Black_Life/STM32Cube/Repository/STM32Cube_FW_F4_V1.26.2/Middlewares/Third_Party/LwIP/src/core/ipv4\etharp.c ****         /* stable entry? */
 320:c:/Users/Black_Life/STM32Cube/Repository/STM32Cube_FW_F4_V1.26.2/Middlewares/Third_Party/LwIP/src/core/ipv4\etharp.c ****       } else if (state >= ETHARP_STATE_STABLE) {
 217              		.loc 1 320 14 is_stmt 1 view .LVU56
 218              		.loc 1 320 17 is_stmt 0 view .LVU57
 219 0062 0128     		cmp	r0, #1
 220 0064 E1D9     		bls	.L9
 321:c:/Users/Black_Life/STM32Cube/Repository/STM32Cube_FW_F4_V1.26.2/Middlewares/Third_Party/LwIP/src/core/ipv4\etharp.c **** #if ETHARP_SUPPORT_STATIC_ENTRIES
 322:c:/Users/Black_Life/STM32Cube/Repository/STM32Cube_FW_F4_V1.26.2/Middlewares/Third_Party/LwIP/src/core/ipv4\etharp.c ****         /* don't record old_stable for static entries since they never expire */
 323:c:/Users/Black_Life/STM32Cube/Repository/STM32Cube_FW_F4_V1.26.2/Middlewares/Third_Party/LwIP/src/core/ipv4\etharp.c ****         if (state < ETHARP_STATE_STATIC)
 324:c:/Users/Black_Life/STM32Cube/Repository/STM32Cube_FW_F4_V1.26.2/Middlewares/Third_Party/LwIP/src/core/ipv4\etharp.c **** #endif /* ETHARP_SUPPORT_STATIC_ENTRIES */
 325:c:/Users/Black_Life/STM32Cube/Repository/STM32Cube_FW_F4_V1.26.2/Middlewares/Third_Party/LwIP/src/core/ipv4\etharp.c ****         {
 326:c:/Users/Black_Life/STM32Cube/Repository/STM32Cube_FW_F4_V1.26.2/Middlewares/Third_Party/LwIP/src/core/ipv4\etharp.c ****           /* remember entry with oldest stable entry in oldest, its age in maxtime */
 327:c:/Users/Black_Life/STM32Cube/Repository/STM32Cube_FW_F4_V1.26.2/Middlewares/Third_Party/LwIP/src/core/ipv4\etharp.c ****           if (arp_table[i].ctime >= age_stable) {
 221              		.loc 1 327 11 is_stmt 1 view .LVU58
 222              		.loc 1 327 27 is_stmt 0 view .LVU59
 223 0066 04EB4404 		add	r4, r4, r4, lsl #1
 224 006a 504A     		ldr	r2, .L43
 225 006c 02EBC404 		add	r4, r2, r4, lsl #3
 226 0070 628A     		ldrh	r2, [r4, #18]
 227              		.loc 1 327 14 view .LVU60
 228 0072 4A45     		cmp	r2, r9
 229 0074 D9D3     		bcc	.L9
 328:c:/Users/Black_Life/STM32Cube/Repository/STM32Cube_FW_F4_V1.26.2/Middlewares/Third_Party/LwIP/src/core/ipv4\etharp.c ****             old_stable = i;
 329:c:/Users/Black_Life/STM32Cube/Repository/STM32Cube_FW_F4_V1.26.2/Middlewares/Third_Party/LwIP/src/core/ipv4\etharp.c ****             age_stable = arp_table[i].ctime;
 230              		.loc 1 329 24 view .LVU61
 231 0076 9146     		mov	r9, r2
 232              	.LVL11:
 328:c:/Users/Black_Life/STM32Cube/Repository/STM32Cube_FW_F4_V1.26.2/Middlewares/Third_Party/LwIP/src/core/ipv4\etharp.c ****             old_stable = i;
 233              		.loc 1 328 24 view .LVU62
 234 0078 9846     		mov	r8, r3
 235              	.LVL12:
 328:c:/Users/Black_Life/STM32Cube/Repository/STM32Cube_FW_F4_V1.26.2/Middlewares/Third_Party/LwIP/src/core/ipv4\etharp.c ****             old_stable = i;
 236              		.loc 1 328 24 view .LVU63
 237 007a D6E7     		b	.L9
 238              	.LVL13:
 239              	.L37:
 296:c:/Users/Black_Life/STM32Cube/Repository/STM32Cube_FW_F4_V1.26.2/Middlewares/Third_Party/LwIP/src/core/ipv4\etharp.c **** #endif /* ETHARP_TABLE_MATCH_NETIF */
 240              		.loc 1 296 11 view .LVU64
 241 007c 002F     		cmp	r7, #0
 242 007e 00F08D80 		beq	.L24
 296:c:/Users/Black_Life/STM32Cube/Repository/STM32Cube_FW_F4_V1.26.2/Middlewares/Third_Party/LwIP/src/core/ipv4\etharp.c **** #endif /* ETHARP_TABLE_MATCH_NETIF */
 243              		.loc 1 296 56 discriminator 1 view .LVU65
 244 0082 04EB440C 		add	ip, r4, r4, lsl #1
 245 0086 494A     		ldr	r2, .L43
 246 0088 02EBCC02 		add	r2, r2, ip, lsl #3
 247 008c 9268     		ldr	r2, [r2, #8]
 296:c:/Users/Black_Life/STM32Cube/Repository/STM32Cube_FW_F4_V1.26.2/Middlewares/Third_Party/LwIP/src/core/ipv4\etharp.c **** #endif /* ETHARP_TABLE_MATCH_NETIF */
 248              		.loc 1 296 31 discriminator 1 view .LVU66
 249 008e BA42     		cmp	r2, r7
 250 0090 E5D1     		bne	.L10
 301:c:/Users/Black_Life/STM32Cube/Repository/STM32Cube_FW_F4_V1.26.2/Middlewares/Third_Party/LwIP/src/core/ipv4\etharp.c ****       }
 251              		.loc 1 301 16 view .LVU67
 252 0092 1D46     		mov	r5, r3
ARM GAS  C:\Users\BLACK_~1\AppData\Local\Temp\ccrhXwwe.s 			page 12


 253              	.LVL14:
 301:c:/Users/Black_Life/STM32Cube/Repository/STM32Cube_FW_F4_V1.26.2/Middlewares/Third_Party/LwIP/src/core/ipv4\etharp.c ****       }
 254              		.loc 1 301 16 view .LVU68
 255 0094 54E0     		b	.L11
 256              	.LVL15:
 257              	.L38:
 306:c:/Users/Black_Life/STM32Cube/Repository/STM32Cube_FW_F4_V1.26.2/Middlewares/Third_Party/LwIP/src/core/ipv4\etharp.c ****           if (arp_table[i].ctime >= age_queue) {
 258              		.loc 1 306 9 is_stmt 1 view .LVU69
 306:c:/Users/Black_Life/STM32Cube/Repository/STM32Cube_FW_F4_V1.26.2/Middlewares/Third_Party/LwIP/src/core/ipv4\etharp.c ****           if (arp_table[i].ctime >= age_queue) {
 259              		.loc 1 306 25 is_stmt 0 view .LVU70
 260 0096 04EB4402 		add	r2, r4, r4, lsl #1
 261 009a 4448     		ldr	r0, .L43
 262              	.LVL16:
 306:c:/Users/Black_Life/STM32Cube/Repository/STM32Cube_FW_F4_V1.26.2/Middlewares/Third_Party/LwIP/src/core/ipv4\etharp.c ****           if (arp_table[i].ctime >= age_queue) {
 263              		.loc 1 306 25 view .LVU71
 264 009c 50F83220 		ldr	r2, [r0, r2, lsl #3]
 306:c:/Users/Black_Life/STM32Cube/Repository/STM32Cube_FW_F4_V1.26.2/Middlewares/Third_Party/LwIP/src/core/ipv4\etharp.c ****           if (arp_table[i].ctime >= age_queue) {
 265              		.loc 1 306 12 view .LVU72
 266 00a0 4AB1     		cbz	r2, .L13
 307:c:/Users/Black_Life/STM32Cube/Repository/STM32Cube_FW_F4_V1.26.2/Middlewares/Third_Party/LwIP/src/core/ipv4\etharp.c ****             old_queue = i;
 267              		.loc 1 307 11 is_stmt 1 view .LVU73
 307:c:/Users/Black_Life/STM32Cube/Repository/STM32Cube_FW_F4_V1.26.2/Middlewares/Third_Party/LwIP/src/core/ipv4\etharp.c ****             old_queue = i;
 268              		.loc 1 307 27 is_stmt 0 view .LVU74
 269 00a2 04EB4404 		add	r4, r4, r4, lsl #1
 270 00a6 00EBC404 		add	r4, r0, r4, lsl #3
 271 00aa 628A     		ldrh	r2, [r4, #18]
 307:c:/Users/Black_Life/STM32Cube/Repository/STM32Cube_FW_F4_V1.26.2/Middlewares/Third_Party/LwIP/src/core/ipv4\etharp.c ****             old_queue = i;
 272              		.loc 1 307 14 view .LVU75
 273 00ac 5A45     		cmp	r2, fp
 274 00ae BCD3     		bcc	.L9
 309:c:/Users/Black_Life/STM32Cube/Repository/STM32Cube_FW_F4_V1.26.2/Middlewares/Third_Party/LwIP/src/core/ipv4\etharp.c ****           }
 275              		.loc 1 309 23 view .LVU76
 276 00b0 9346     		mov	fp, r2
 277              	.LVL17:
 308:c:/Users/Black_Life/STM32Cube/Repository/STM32Cube_FW_F4_V1.26.2/Middlewares/Third_Party/LwIP/src/core/ipv4\etharp.c ****             age_queue = arp_table[i].ctime;
 278              		.loc 1 308 23 view .LVU77
 279 00b2 9A46     		mov	r10, r3
 280              	.LVL18:
 308:c:/Users/Black_Life/STM32Cube/Repository/STM32Cube_FW_F4_V1.26.2/Middlewares/Third_Party/LwIP/src/core/ipv4\etharp.c ****             age_queue = arp_table[i].ctime;
 281              		.loc 1 308 23 view .LVU78
 282 00b4 B9E7     		b	.L9
 283              	.LVL19:
 284              	.L13:
 314:c:/Users/Black_Life/STM32Cube/Repository/STM32Cube_FW_F4_V1.26.2/Middlewares/Third_Party/LwIP/src/core/ipv4\etharp.c ****             old_pending = i;
 285              		.loc 1 314 11 is_stmt 1 view .LVU79
 314:c:/Users/Black_Life/STM32Cube/Repository/STM32Cube_FW_F4_V1.26.2/Middlewares/Third_Party/LwIP/src/core/ipv4\etharp.c ****             old_pending = i;
 286              		.loc 1 314 27 is_stmt 0 view .LVU80
 287 00b6 04EB4404 		add	r4, r4, r4, lsl #1
 288 00ba 3C4A     		ldr	r2, .L43
 289 00bc 02EBC404 		add	r4, r2, r4, lsl #3
 290 00c0 628A     		ldrh	r2, [r4, #18]
 314:c:/Users/Black_Life/STM32Cube/Repository/STM32Cube_FW_F4_V1.26.2/Middlewares/Third_Party/LwIP/src/core/ipv4\etharp.c ****             old_pending = i;
 291              		.loc 1 314 14 view .LVU81
 292 00c2 0099     		ldr	r1, [sp]
 293 00c4 8A42     		cmp	r2, r1
 294 00c6 B0D3     		bcc	.L9
 316:c:/Users/Black_Life/STM32Cube/Repository/STM32Cube_FW_F4_V1.26.2/Middlewares/Third_Party/LwIP/src/core/ipv4\etharp.c ****           }
ARM GAS  C:\Users\BLACK_~1\AppData\Local\Temp\ccrhXwwe.s 			page 13


 295              		.loc 1 316 25 view .LVU82
 296 00c8 0092     		str	r2, [sp]
 297              	.LVL20:
 315:c:/Users/Black_Life/STM32Cube/Repository/STM32Cube_FW_F4_V1.26.2/Middlewares/Third_Party/LwIP/src/core/ipv4\etharp.c ****             age_pending = arp_table[i].ctime;
 298              		.loc 1 315 25 view .LVU83
 299 00ca 0193     		str	r3, [sp, #4]
 300              	.LVL21:
 315:c:/Users/Black_Life/STM32Cube/Repository/STM32Cube_FW_F4_V1.26.2/Middlewares/Third_Party/LwIP/src/core/ipv4\etharp.c ****             age_pending = arp_table[i].ctime;
 301              		.loc 1 315 25 view .LVU84
 302 00cc ADE7     		b	.L9
 303              	.LVL22:
 304              	.L35:
 315:c:/Users/Black_Life/STM32Cube/Repository/STM32Cube_FW_F4_V1.26.2/Middlewares/Third_Party/LwIP/src/core/ipv4\etharp.c ****             age_pending = arp_table[i].ctime;
 305              		.loc 1 315 25 view .LVU85
 306              	.LBE3:
 330:c:/Users/Black_Life/STM32Cube/Repository/STM32Cube_FW_F4_V1.26.2/Middlewares/Third_Party/LwIP/src/core/ipv4\etharp.c ****           }
 331:c:/Users/Black_Life/STM32Cube/Repository/STM32Cube_FW_F4_V1.26.2/Middlewares/Third_Party/LwIP/src/core/ipv4\etharp.c ****         }
 332:c:/Users/Black_Life/STM32Cube/Repository/STM32Cube_FW_F4_V1.26.2/Middlewares/Third_Party/LwIP/src/core/ipv4\etharp.c ****       }
 333:c:/Users/Black_Life/STM32Cube/Repository/STM32Cube_FW_F4_V1.26.2/Middlewares/Third_Party/LwIP/src/core/ipv4\etharp.c ****     }
 334:c:/Users/Black_Life/STM32Cube/Repository/STM32Cube_FW_F4_V1.26.2/Middlewares/Third_Party/LwIP/src/core/ipv4\etharp.c ****   }
 335:c:/Users/Black_Life/STM32Cube/Repository/STM32Cube_FW_F4_V1.26.2/Middlewares/Third_Party/LwIP/src/core/ipv4\etharp.c ****   /* { we have no match } => try to create a new entry */
 336:c:/Users/Black_Life/STM32Cube/Repository/STM32Cube_FW_F4_V1.26.2/Middlewares/Third_Party/LwIP/src/core/ipv4\etharp.c **** 
 337:c:/Users/Black_Life/STM32Cube/Repository/STM32Cube_FW_F4_V1.26.2/Middlewares/Third_Party/LwIP/src/core/ipv4\etharp.c ****   /* don't create new entry, only search? */
 338:c:/Users/Black_Life/STM32Cube/Repository/STM32Cube_FW_F4_V1.26.2/Middlewares/Third_Party/LwIP/src/core/ipv4\etharp.c ****   if (((flags & ETHARP_FLAG_FIND_ONLY) != 0) ||
 307              		.loc 1 338 3 is_stmt 1 view .LVU86
 308              		.loc 1 338 6 is_stmt 0 view .LVU87
 309 00ce 1EF0020F 		tst	lr, #2
 310 00d2 65D1     		bne	.L29
 311              		.loc 1 338 46 discriminator 1 view .LVU88
 312 00d4 0A2D     		cmp	r5, #10
 313 00d6 37D0     		beq	.L39
 314              	.L15:
 339:c:/Users/Black_Life/STM32Cube/Repository/STM32Cube_FW_F4_V1.26.2/Middlewares/Third_Party/LwIP/src/core/ipv4\etharp.c ****       /* or no empty entry found and not allowed to recycle? */
 340:c:/Users/Black_Life/STM32Cube/Repository/STM32Cube_FW_F4_V1.26.2/Middlewares/Third_Party/LwIP/src/core/ipv4\etharp.c ****       ((empty == ARP_TABLE_SIZE) && ((flags & ETHARP_FLAG_TRY_HARD) == 0))) {
 341:c:/Users/Black_Life/STM32Cube/Repository/STM32Cube_FW_F4_V1.26.2/Middlewares/Third_Party/LwIP/src/core/ipv4\etharp.c ****     LWIP_DEBUGF(ETHARP_DEBUG | LWIP_DBG_TRACE, ("etharp_find_entry: no empty entry found and not al
 342:c:/Users/Black_Life/STM32Cube/Repository/STM32Cube_FW_F4_V1.26.2/Middlewares/Third_Party/LwIP/src/core/ipv4\etharp.c ****     return (s16_t)ERR_MEM;
 343:c:/Users/Black_Life/STM32Cube/Repository/STM32Cube_FW_F4_V1.26.2/Middlewares/Third_Party/LwIP/src/core/ipv4\etharp.c ****   }
 344:c:/Users/Black_Life/STM32Cube/Repository/STM32Cube_FW_F4_V1.26.2/Middlewares/Third_Party/LwIP/src/core/ipv4\etharp.c **** 
 345:c:/Users/Black_Life/STM32Cube/Repository/STM32Cube_FW_F4_V1.26.2/Middlewares/Third_Party/LwIP/src/core/ipv4\etharp.c ****   /* b) choose the least destructive entry to recycle:
 346:c:/Users/Black_Life/STM32Cube/Repository/STM32Cube_FW_F4_V1.26.2/Middlewares/Third_Party/LwIP/src/core/ipv4\etharp.c ****    * 1) empty entry
 347:c:/Users/Black_Life/STM32Cube/Repository/STM32Cube_FW_F4_V1.26.2/Middlewares/Third_Party/LwIP/src/core/ipv4\etharp.c ****    * 2) oldest stable entry
 348:c:/Users/Black_Life/STM32Cube/Repository/STM32Cube_FW_F4_V1.26.2/Middlewares/Third_Party/LwIP/src/core/ipv4\etharp.c ****    * 3) oldest pending entry without queued packets
 349:c:/Users/Black_Life/STM32Cube/Repository/STM32Cube_FW_F4_V1.26.2/Middlewares/Third_Party/LwIP/src/core/ipv4\etharp.c ****    * 4) oldest pending entry with queued packets
 350:c:/Users/Black_Life/STM32Cube/Repository/STM32Cube_FW_F4_V1.26.2/Middlewares/Third_Party/LwIP/src/core/ipv4\etharp.c ****    *
 351:c:/Users/Black_Life/STM32Cube/Repository/STM32Cube_FW_F4_V1.26.2/Middlewares/Third_Party/LwIP/src/core/ipv4\etharp.c ****    * { ETHARP_FLAG_TRY_HARD is set at this point }
 352:c:/Users/Black_Life/STM32Cube/Repository/STM32Cube_FW_F4_V1.26.2/Middlewares/Third_Party/LwIP/src/core/ipv4\etharp.c ****    */
 353:c:/Users/Black_Life/STM32Cube/Repository/STM32Cube_FW_F4_V1.26.2/Middlewares/Third_Party/LwIP/src/core/ipv4\etharp.c **** 
 354:c:/Users/Black_Life/STM32Cube/Repository/STM32Cube_FW_F4_V1.26.2/Middlewares/Third_Party/LwIP/src/core/ipv4\etharp.c ****   /* 1) empty entry available? */
 355:c:/Users/Black_Life/STM32Cube/Repository/STM32Cube_FW_F4_V1.26.2/Middlewares/Third_Party/LwIP/src/core/ipv4\etharp.c ****   if (empty < ARP_TABLE_SIZE) {
 315              		.loc 1 355 3 is_stmt 1 view .LVU89
 316              		.loc 1 355 6 is_stmt 0 view .LVU90
 317 00d8 092D     		cmp	r5, #9
 318 00da 16DD     		ble	.L16
 356:c:/Users/Black_Life/STM32Cube/Repository/STM32Cube_FW_F4_V1.26.2/Middlewares/Third_Party/LwIP/src/core/ipv4\etharp.c ****     i = empty;
 357:c:/Users/Black_Life/STM32Cube/Repository/STM32Cube_FW_F4_V1.26.2/Middlewares/Third_Party/LwIP/src/core/ipv4\etharp.c ****     LWIP_DEBUGF(ETHARP_DEBUG | LWIP_DBG_TRACE, ("etharp_find_entry: selecting empty entry %d\n", (i
 358:c:/Users/Black_Life/STM32Cube/Repository/STM32Cube_FW_F4_V1.26.2/Middlewares/Third_Party/LwIP/src/core/ipv4\etharp.c ****   } else {
 359:c:/Users/Black_Life/STM32Cube/Repository/STM32Cube_FW_F4_V1.26.2/Middlewares/Third_Party/LwIP/src/core/ipv4\etharp.c ****     /* 2) found recyclable stable entry? */
ARM GAS  C:\Users\BLACK_~1\AppData\Local\Temp\ccrhXwwe.s 			page 14


 360:c:/Users/Black_Life/STM32Cube/Repository/STM32Cube_FW_F4_V1.26.2/Middlewares/Third_Party/LwIP/src/core/ipv4\etharp.c ****     if (old_stable < ARP_TABLE_SIZE) {
 319              		.loc 1 360 5 is_stmt 1 view .LVU91
 320              		.loc 1 360 8 is_stmt 0 view .LVU92
 321 00dc B8F1090F 		cmp	r8, #9
 322 00e0 38DC     		bgt	.L17
 361:c:/Users/Black_Life/STM32Cube/Repository/STM32Cube_FW_F4_V1.26.2/Middlewares/Third_Party/LwIP/src/core/ipv4\etharp.c ****       /* recycle oldest stable*/
 362:c:/Users/Black_Life/STM32Cube/Repository/STM32Cube_FW_F4_V1.26.2/Middlewares/Third_Party/LwIP/src/core/ipv4\etharp.c ****       i = old_stable;
 323              		.loc 1 362 7 is_stmt 1 view .LVU93
 324              	.LVL23:
 363:c:/Users/Black_Life/STM32Cube/Repository/STM32Cube_FW_F4_V1.26.2/Middlewares/Third_Party/LwIP/src/core/ipv4\etharp.c ****       LWIP_DEBUGF(ETHARP_DEBUG | LWIP_DBG_TRACE, ("etharp_find_entry: selecting oldest stable entry
 325              		.loc 1 363 116 view .LVU94
 364:c:/Users/Black_Life/STM32Cube/Repository/STM32Cube_FW_F4_V1.26.2/Middlewares/Third_Party/LwIP/src/core/ipv4\etharp.c ****       /* no queued packets should exist on stable entries */
 365:c:/Users/Black_Life/STM32Cube/Repository/STM32Cube_FW_F4_V1.26.2/Middlewares/Third_Party/LwIP/src/core/ipv4\etharp.c ****       LWIP_ASSERT("arp_table[i].q == NULL", arp_table[i].q == NULL);
 326              		.loc 1 365 7 view .LVU95
 327              		.loc 1 365 7 view .LVU96
 328 00e2 08EB4803 		add	r3, r8, r8, lsl #1
 329 00e6 314A     		ldr	r2, .L43
 330 00e8 52F83330 		ldr	r3, [r2, r3, lsl #3]
 331 00ec 002B     		cmp	r3, #0
 332 00ee 39D0     		beq	.L31
 333              		.loc 1 365 7 discriminator 1 view .LVU97
 334              		.loc 1 365 7 discriminator 1 view .LVU98
 335 00f0 2F4B     		ldr	r3, .L43+4
 336 00f2 40F26D12 		movw	r2, #365
 337 00f6 2F49     		ldr	r1, .L43+8
 338 00f8 2F48     		ldr	r0, .L43+12
 339 00fa FFF7FEFF 		bl	printf
 340              	.LVL24:
 362:c:/Users/Black_Life/STM32Cube/Repository/STM32Cube_FW_F4_V1.26.2/Middlewares/Third_Party/LwIP/src/core/ipv4\etharp.c ****       LWIP_DEBUGF(ETHARP_DEBUG | LWIP_DBG_TRACE, ("etharp_find_entry: selecting oldest stable entry
 341              		.loc 1 362 9 is_stmt 0 discriminator 1 view .LVU99
 342 00fe 4546     		mov	r5, r8
 343              	.LVL25:
 344              	.L18:
 366:c:/Users/Black_Life/STM32Cube/Repository/STM32Cube_FW_F4_V1.26.2/Middlewares/Third_Party/LwIP/src/core/ipv4\etharp.c ****       /* 3) found recyclable pending entry without queued packets? */
 367:c:/Users/Black_Life/STM32Cube/Repository/STM32Cube_FW_F4_V1.26.2/Middlewares/Third_Party/LwIP/src/core/ipv4\etharp.c ****     } else if (old_pending < ARP_TABLE_SIZE) {
 368:c:/Users/Black_Life/STM32Cube/Repository/STM32Cube_FW_F4_V1.26.2/Middlewares/Third_Party/LwIP/src/core/ipv4\etharp.c ****       /* recycle oldest pending */
 369:c:/Users/Black_Life/STM32Cube/Repository/STM32Cube_FW_F4_V1.26.2/Middlewares/Third_Party/LwIP/src/core/ipv4\etharp.c ****       i = old_pending;
 370:c:/Users/Black_Life/STM32Cube/Repository/STM32Cube_FW_F4_V1.26.2/Middlewares/Third_Party/LwIP/src/core/ipv4\etharp.c ****       LWIP_DEBUGF(ETHARP_DEBUG | LWIP_DBG_TRACE, ("etharp_find_entry: selecting oldest pending entr
 371:c:/Users/Black_Life/STM32Cube/Repository/STM32Cube_FW_F4_V1.26.2/Middlewares/Third_Party/LwIP/src/core/ipv4\etharp.c ****       /* 4) found recyclable pending entry with queued packets? */
 372:c:/Users/Black_Life/STM32Cube/Repository/STM32Cube_FW_F4_V1.26.2/Middlewares/Third_Party/LwIP/src/core/ipv4\etharp.c ****     } else if (old_queue < ARP_TABLE_SIZE) {
 373:c:/Users/Black_Life/STM32Cube/Repository/STM32Cube_FW_F4_V1.26.2/Middlewares/Third_Party/LwIP/src/core/ipv4\etharp.c ****       /* recycle oldest pending (queued packets are free in etharp_free_entry) */
 374:c:/Users/Black_Life/STM32Cube/Repository/STM32Cube_FW_F4_V1.26.2/Middlewares/Third_Party/LwIP/src/core/ipv4\etharp.c ****       i = old_queue;
 375:c:/Users/Black_Life/STM32Cube/Repository/STM32Cube_FW_F4_V1.26.2/Middlewares/Third_Party/LwIP/src/core/ipv4\etharp.c ****       LWIP_DEBUGF(ETHARP_DEBUG | LWIP_DBG_TRACE, ("etharp_find_entry: selecting oldest pending entr
 376:c:/Users/Black_Life/STM32Cube/Repository/STM32Cube_FW_F4_V1.26.2/Middlewares/Third_Party/LwIP/src/core/ipv4\etharp.c ****       /* no empty or recyclable entries found */
 377:c:/Users/Black_Life/STM32Cube/Repository/STM32Cube_FW_F4_V1.26.2/Middlewares/Third_Party/LwIP/src/core/ipv4\etharp.c ****     } else {
 378:c:/Users/Black_Life/STM32Cube/Repository/STM32Cube_FW_F4_V1.26.2/Middlewares/Third_Party/LwIP/src/core/ipv4\etharp.c ****       LWIP_DEBUGF(ETHARP_DEBUG | LWIP_DBG_TRACE, ("etharp_find_entry: no empty or recyclable entrie
 379:c:/Users/Black_Life/STM32Cube/Repository/STM32Cube_FW_F4_V1.26.2/Middlewares/Third_Party/LwIP/src/core/ipv4\etharp.c ****       return (s16_t)ERR_MEM;
 380:c:/Users/Black_Life/STM32Cube/Repository/STM32Cube_FW_F4_V1.26.2/Middlewares/Third_Party/LwIP/src/core/ipv4\etharp.c ****     }
 381:c:/Users/Black_Life/STM32Cube/Repository/STM32Cube_FW_F4_V1.26.2/Middlewares/Third_Party/LwIP/src/core/ipv4\etharp.c **** 
 382:c:/Users/Black_Life/STM32Cube/Repository/STM32Cube_FW_F4_V1.26.2/Middlewares/Third_Party/LwIP/src/core/ipv4\etharp.c ****     /* { empty or recyclable entry found } */
 383:c:/Users/Black_Life/STM32Cube/Repository/STM32Cube_FW_F4_V1.26.2/Middlewares/Third_Party/LwIP/src/core/ipv4\etharp.c ****     LWIP_ASSERT("i < ARP_TABLE_SIZE", i < ARP_TABLE_SIZE);
 345              		.loc 1 383 5 is_stmt 1 view .LVU100
 346              		.loc 1 383 5 view .LVU101
 347 0100 092D     		cmp	r5, #9
 348 0102 33DC     		bgt	.L40
 349              	.L19:
 350              		.loc 1 383 5 discriminator 3 view .LVU102
ARM GAS  C:\Users\BLACK_~1\AppData\Local\Temp\ccrhXwwe.s 			page 15


 351              		.loc 1 383 5 discriminator 3 view .LVU103
 384:c:/Users/Black_Life/STM32Cube/Repository/STM32Cube_FW_F4_V1.26.2/Middlewares/Third_Party/LwIP/src/core/ipv4\etharp.c ****     etharp_free_entry(i);
 352              		.loc 1 384 5 discriminator 3 view .LVU104
 353 0104 2846     		mov	r0, r5
 354 0106 FFF7FEFF 		bl	etharp_free_entry
 355              	.LVL26:
 356              	.L16:
 385:c:/Users/Black_Life/STM32Cube/Repository/STM32Cube_FW_F4_V1.26.2/Middlewares/Third_Party/LwIP/src/core/ipv4\etharp.c ****   }
 386:c:/Users/Black_Life/STM32Cube/Repository/STM32Cube_FW_F4_V1.26.2/Middlewares/Third_Party/LwIP/src/core/ipv4\etharp.c **** 
 387:c:/Users/Black_Life/STM32Cube/Repository/STM32Cube_FW_F4_V1.26.2/Middlewares/Third_Party/LwIP/src/core/ipv4\etharp.c ****   LWIP_ASSERT("i < ARP_TABLE_SIZE", i < ARP_TABLE_SIZE);
 357              		.loc 1 387 3 view .LVU105
 358              		.loc 1 387 3 view .LVU106
 359 010a 092D     		cmp	r5, #9
 360 010c 36DC     		bgt	.L41
 361              	.L20:
 362              		.loc 1 387 3 discriminator 3 view .LVU107
 363              		.loc 1 387 3 discriminator 3 view .LVU108
 388:c:/Users/Black_Life/STM32Cube/Repository/STM32Cube_FW_F4_V1.26.2/Middlewares/Third_Party/LwIP/src/core/ipv4\etharp.c ****   LWIP_ASSERT("arp_table[i].state == ETHARP_STATE_EMPTY",
 364              		.loc 1 388 3 discriminator 3 view .LVU109
 365              		.loc 1 388 3 discriminator 3 view .LVU110
 366 010e 2C46     		mov	r4, r5
 367 0110 05EB4503 		add	r3, r5, r5, lsl #1
 368 0114 254A     		ldr	r2, .L43
 369 0116 02EBC303 		add	r3, r2, r3, lsl #3
 370 011a 1B7D     		ldrb	r3, [r3, #20]	@ zero_extendqisi2
 371 011c 002B     		cmp	r3, #0
 372 011e 35D1     		bne	.L42
 373              	.L21:
 374              		.loc 1 388 3 discriminator 3 view .LVU111
 375              		.loc 1 388 3 discriminator 3 view .LVU112
 389:c:/Users/Black_Life/STM32Cube/Repository/STM32Cube_FW_F4_V1.26.2/Middlewares/Third_Party/LwIP/src/core/ipv4\etharp.c ****               arp_table[i].state == ETHARP_STATE_EMPTY);
 390:c:/Users/Black_Life/STM32Cube/Repository/STM32Cube_FW_F4_V1.26.2/Middlewares/Third_Party/LwIP/src/core/ipv4\etharp.c **** 
 391:c:/Users/Black_Life/STM32Cube/Repository/STM32Cube_FW_F4_V1.26.2/Middlewares/Third_Party/LwIP/src/core/ipv4\etharp.c ****   /* IP address given? */
 392:c:/Users/Black_Life/STM32Cube/Repository/STM32Cube_FW_F4_V1.26.2/Middlewares/Third_Party/LwIP/src/core/ipv4\etharp.c ****   if (ipaddr != NULL) {
 376              		.loc 1 392 3 discriminator 3 view .LVU113
 377              		.loc 1 392 6 is_stmt 0 discriminator 3 view .LVU114
 378 0120 36B1     		cbz	r6, .L22
 393:c:/Users/Black_Life/STM32Cube/Repository/STM32Cube_FW_F4_V1.26.2/Middlewares/Third_Party/LwIP/src/core/ipv4\etharp.c ****     /* set IP address */
 394:c:/Users/Black_Life/STM32Cube/Repository/STM32Cube_FW_F4_V1.26.2/Middlewares/Third_Party/LwIP/src/core/ipv4\etharp.c ****     ip4_addr_copy(arp_table[i].ipaddr, *ipaddr);
 379              		.loc 1 394 5 is_stmt 1 view .LVU115
 380 0122 3168     		ldr	r1, [r6]
 381 0124 04EB4403 		add	r3, r4, r4, lsl #1
 382 0128 204A     		ldr	r2, .L43
 383 012a 02EBC303 		add	r3, r2, r3, lsl #3
 384 012e 5960     		str	r1, [r3, #4]
 385              	.L22:
 395:c:/Users/Black_Life/STM32Cube/Repository/STM32Cube_FW_F4_V1.26.2/Middlewares/Third_Party/LwIP/src/core/ipv4\etharp.c ****   }
 396:c:/Users/Black_Life/STM32Cube/Repository/STM32Cube_FW_F4_V1.26.2/Middlewares/Third_Party/LwIP/src/core/ipv4\etharp.c ****   arp_table[i].ctime = 0;
 386              		.loc 1 396 3 view .LVU116
 387              		.loc 1 396 22 is_stmt 0 view .LVU117
 388 0130 1E4B     		ldr	r3, .L43
 389 0132 04EB4402 		add	r2, r4, r4, lsl #1
 390 0136 03EBC202 		add	r2, r3, r2, lsl #3
 391 013a 0021     		movs	r1, #0
 392 013c 5182     		strh	r1, [r2, #18]	@ movhi
 397:c:/Users/Black_Life/STM32Cube/Repository/STM32Cube_FW_F4_V1.26.2/Middlewares/Third_Party/LwIP/src/core/ipv4\etharp.c **** #if ETHARP_TABLE_MATCH_NETIF
 398:c:/Users/Black_Life/STM32Cube/Repository/STM32Cube_FW_F4_V1.26.2/Middlewares/Third_Party/LwIP/src/core/ipv4\etharp.c ****   arp_table[i].netif = netif;
ARM GAS  C:\Users\BLACK_~1\AppData\Local\Temp\ccrhXwwe.s 			page 16


 393              		.loc 1 398 3 is_stmt 1 view .LVU118
 394              		.loc 1 398 22 is_stmt 0 view .LVU119
 395 013e 9760     		str	r7, [r2, #8]
 399:c:/Users/Black_Life/STM32Cube/Repository/STM32Cube_FW_F4_V1.26.2/Middlewares/Third_Party/LwIP/src/core/ipv4\etharp.c **** #endif /* ETHARP_TABLE_MATCH_NETIF */
 400:c:/Users/Black_Life/STM32Cube/Repository/STM32Cube_FW_F4_V1.26.2/Middlewares/Third_Party/LwIP/src/core/ipv4\etharp.c ****   return (s16_t)i;
 396              		.loc 1 400 3 is_stmt 1 view .LVU120
 397              	.LVL27:
 398              	.L11:
 401:c:/Users/Black_Life/STM32Cube/Repository/STM32Cube_FW_F4_V1.26.2/Middlewares/Third_Party/LwIP/src/core/ipv4\etharp.c **** }
 399              		.loc 1 401 1 is_stmt 0 view .LVU121
 400 0140 2846     		mov	r0, r5
 401 0142 03B0     		add	sp, sp, #12
 402              	.LCFI3:
 403              		.cfi_remember_state
 404              		.cfi_def_cfa_offset 36
 405              	.LVL28:
 406              		.loc 1 401 1 view .LVU122
 407              		@ sp needed
 408 0144 BDE8F08F 		pop	{r4, r5, r6, r7, r8, r9, r10, fp, pc}
 409              	.LVL29:
 410              	.L39:
 411              	.LCFI4:
 412              		.cfi_restore_state
 340:c:/Users/Black_Life/STM32Cube/Repository/STM32Cube_FW_F4_V1.26.2/Middlewares/Third_Party/LwIP/src/core/ipv4\etharp.c ****     LWIP_DEBUGF(ETHARP_DEBUG | LWIP_DBG_TRACE, ("etharp_find_entry: no empty entry found and not al
 413              		.loc 1 340 34 view .LVU123
 414 0148 1EF0010F 		tst	lr, #1
 415 014c C4D1     		bne	.L15
 342:c:/Users/Black_Life/STM32Cube/Repository/STM32Cube_FW_F4_V1.26.2/Middlewares/Third_Party/LwIP/src/core/ipv4\etharp.c ****   }
 416              		.loc 1 342 12 view .LVU124
 417 014e 4FF0FF35 		mov	r5, #-1
 418              	.LVL30:
 342:c:/Users/Black_Life/STM32Cube/Repository/STM32Cube_FW_F4_V1.26.2/Middlewares/Third_Party/LwIP/src/core/ipv4\etharp.c ****   }
 419              		.loc 1 342 12 view .LVU125
 420 0152 F5E7     		b	.L11
 421              	.LVL31:
 422              	.L17:
 367:c:/Users/Black_Life/STM32Cube/Repository/STM32Cube_FW_F4_V1.26.2/Middlewares/Third_Party/LwIP/src/core/ipv4\etharp.c ****       /* recycle oldest pending */
 423              		.loc 1 367 12 is_stmt 1 view .LVU126
 367:c:/Users/Black_Life/STM32Cube/Repository/STM32Cube_FW_F4_V1.26.2/Middlewares/Third_Party/LwIP/src/core/ipv4\etharp.c ****       /* recycle oldest pending */
 424              		.loc 1 367 15 is_stmt 0 view .LVU127
 425 0154 019B     		ldr	r3, [sp, #4]
 426              	.LVL32:
 367:c:/Users/Black_Life/STM32Cube/Repository/STM32Cube_FW_F4_V1.26.2/Middlewares/Third_Party/LwIP/src/core/ipv4\etharp.c ****       /* recycle oldest pending */
 427              		.loc 1 367 15 view .LVU128
 428 0156 092B     		cmp	r3, #9
 429 0158 06DD     		ble	.L32
 372:c:/Users/Black_Life/STM32Cube/Repository/STM32Cube_FW_F4_V1.26.2/Middlewares/Third_Party/LwIP/src/core/ipv4\etharp.c ****       /* recycle oldest pending (queued packets are free in etharp_free_entry) */
 430              		.loc 1 372 12 is_stmt 1 view .LVU129
 372:c:/Users/Black_Life/STM32Cube/Repository/STM32Cube_FW_F4_V1.26.2/Middlewares/Third_Party/LwIP/src/core/ipv4\etharp.c ****       /* recycle oldest pending (queued packets are free in etharp_free_entry) */
 431              		.loc 1 372 15 is_stmt 0 view .LVU130
 432 015a BAF1090F 		cmp	r10, #9
 433 015e 22DC     		bgt	.L33
 374:c:/Users/Black_Life/STM32Cube/Repository/STM32Cube_FW_F4_V1.26.2/Middlewares/Third_Party/LwIP/src/core/ipv4\etharp.c ****       LWIP_DEBUGF(ETHARP_DEBUG | LWIP_DBG_TRACE, ("etharp_find_entry: selecting oldest pending entr
 434              		.loc 1 374 9 view .LVU131
 435 0160 5546     		mov	r5, r10
 436              	.LVL33:
 374:c:/Users/Black_Life/STM32Cube/Repository/STM32Cube_FW_F4_V1.26.2/Middlewares/Third_Party/LwIP/src/core/ipv4\etharp.c ****       LWIP_DEBUGF(ETHARP_DEBUG | LWIP_DBG_TRACE, ("etharp_find_entry: selecting oldest pending entr
ARM GAS  C:\Users\BLACK_~1\AppData\Local\Temp\ccrhXwwe.s 			page 17


 437              		.loc 1 374 9 view .LVU132
 438 0162 CDE7     		b	.L18
 439              	.LVL34:
 440              	.L31:
 362:c:/Users/Black_Life/STM32Cube/Repository/STM32Cube_FW_F4_V1.26.2/Middlewares/Third_Party/LwIP/src/core/ipv4\etharp.c ****       LWIP_DEBUGF(ETHARP_DEBUG | LWIP_DBG_TRACE, ("etharp_find_entry: selecting oldest stable entry
 441              		.loc 1 362 9 view .LVU133
 442 0164 4546     		mov	r5, r8
 443              	.LVL35:
 362:c:/Users/Black_Life/STM32Cube/Repository/STM32Cube_FW_F4_V1.26.2/Middlewares/Third_Party/LwIP/src/core/ipv4\etharp.c ****       LWIP_DEBUGF(ETHARP_DEBUG | LWIP_DBG_TRACE, ("etharp_find_entry: selecting oldest stable entry
 444              		.loc 1 362 9 view .LVU134
 445 0166 CBE7     		b	.L18
 446              	.LVL36:
 447              	.L32:
 369:c:/Users/Black_Life/STM32Cube/Repository/STM32Cube_FW_F4_V1.26.2/Middlewares/Third_Party/LwIP/src/core/ipv4\etharp.c ****       LWIP_DEBUGF(ETHARP_DEBUG | LWIP_DBG_TRACE, ("etharp_find_entry: selecting oldest pending entr
 448              		.loc 1 369 9 view .LVU135
 449 0168 019D     		ldr	r5, [sp, #4]
 450              	.LVL37:
 369:c:/Users/Black_Life/STM32Cube/Repository/STM32Cube_FW_F4_V1.26.2/Middlewares/Third_Party/LwIP/src/core/ipv4\etharp.c ****       LWIP_DEBUGF(ETHARP_DEBUG | LWIP_DBG_TRACE, ("etharp_find_entry: selecting oldest pending entr
 451              		.loc 1 369 9 view .LVU136
 452 016a C9E7     		b	.L18
 453              	.LVL38:
 454              	.L40:
 383:c:/Users/Black_Life/STM32Cube/Repository/STM32Cube_FW_F4_V1.26.2/Middlewares/Third_Party/LwIP/src/core/ipv4\etharp.c ****     etharp_free_entry(i);
 455              		.loc 1 383 5 is_stmt 1 discriminator 1 view .LVU137
 383:c:/Users/Black_Life/STM32Cube/Repository/STM32Cube_FW_F4_V1.26.2/Middlewares/Third_Party/LwIP/src/core/ipv4\etharp.c ****     etharp_free_entry(i);
 456              		.loc 1 383 5 discriminator 1 view .LVU138
 457 016c 104B     		ldr	r3, .L43+4
 458 016e 40F27F12 		movw	r2, #383
 459 0172 1249     		ldr	r1, .L43+16
 460 0174 1048     		ldr	r0, .L43+12
 461 0176 FFF7FEFF 		bl	printf
 462              	.LVL39:
 463 017a C3E7     		b	.L19
 464              	.L41:
 387:c:/Users/Black_Life/STM32Cube/Repository/STM32Cube_FW_F4_V1.26.2/Middlewares/Third_Party/LwIP/src/core/ipv4\etharp.c ****   LWIP_ASSERT("arp_table[i].state == ETHARP_STATE_EMPTY",
 465              		.loc 1 387 3 discriminator 1 view .LVU139
 387:c:/Users/Black_Life/STM32Cube/Repository/STM32Cube_FW_F4_V1.26.2/Middlewares/Third_Party/LwIP/src/core/ipv4\etharp.c ****   LWIP_ASSERT("arp_table[i].state == ETHARP_STATE_EMPTY",
 466              		.loc 1 387 3 discriminator 1 view .LVU140
 467 017c 0C4B     		ldr	r3, .L43+4
 468 017e 40F28312 		movw	r2, #387
 469 0182 0E49     		ldr	r1, .L43+16
 470 0184 0C48     		ldr	r0, .L43+12
 471 0186 FFF7FEFF 		bl	printf
 472              	.LVL40:
 473 018a C0E7     		b	.L20
 474              	.L42:
 388:c:/Users/Black_Life/STM32Cube/Repository/STM32Cube_FW_F4_V1.26.2/Middlewares/Third_Party/LwIP/src/core/ipv4\etharp.c ****               arp_table[i].state == ETHARP_STATE_EMPTY);
 475              		.loc 1 388 3 discriminator 1 view .LVU141
 388:c:/Users/Black_Life/STM32Cube/Repository/STM32Cube_FW_F4_V1.26.2/Middlewares/Third_Party/LwIP/src/core/ipv4\etharp.c ****               arp_table[i].state == ETHARP_STATE_EMPTY);
 476              		.loc 1 388 3 discriminator 1 view .LVU142
 477 018c 084B     		ldr	r3, .L43+4
 478 018e 4FF4C272 		mov	r2, #388
 479 0192 0B49     		ldr	r1, .L43+20
 480 0194 0848     		ldr	r0, .L43+12
 481 0196 FFF7FEFF 		bl	printf
 482              	.LVL41:
 483 019a C1E7     		b	.L21
ARM GAS  C:\Users\BLACK_~1\AppData\Local\Temp\ccrhXwwe.s 			page 18


 484              	.LVL42:
 485              	.L24:
 486              	.LBB4:
 301:c:/Users/Black_Life/STM32Cube/Repository/STM32Cube_FW_F4_V1.26.2/Middlewares/Third_Party/LwIP/src/core/ipv4\etharp.c ****       }
 487              		.loc 1 301 16 is_stmt 0 view .LVU143
 488 019c 1D46     		mov	r5, r3
 489              	.LVL43:
 301:c:/Users/Black_Life/STM32Cube/Repository/STM32Cube_FW_F4_V1.26.2/Middlewares/Third_Party/LwIP/src/core/ipv4\etharp.c ****       }
 490              		.loc 1 301 16 view .LVU144
 491 019e CFE7     		b	.L11
 492              	.LVL44:
 493              	.L29:
 301:c:/Users/Black_Life/STM32Cube/Repository/STM32Cube_FW_F4_V1.26.2/Middlewares/Third_Party/LwIP/src/core/ipv4\etharp.c ****       }
 494              		.loc 1 301 16 view .LVU145
 495              	.LBE4:
 342:c:/Users/Black_Life/STM32Cube/Repository/STM32Cube_FW_F4_V1.26.2/Middlewares/Third_Party/LwIP/src/core/ipv4\etharp.c ****   }
 496              		.loc 1 342 12 view .LVU146
 497 01a0 4FF0FF35 		mov	r5, #-1
 498              	.LVL45:
 342:c:/Users/Black_Life/STM32Cube/Repository/STM32Cube_FW_F4_V1.26.2/Middlewares/Third_Party/LwIP/src/core/ipv4\etharp.c ****   }
 499              		.loc 1 342 12 view .LVU147
 500 01a4 CCE7     		b	.L11
 501              	.LVL46:
 502              	.L33:
 379:c:/Users/Black_Life/STM32Cube/Repository/STM32Cube_FW_F4_V1.26.2/Middlewares/Third_Party/LwIP/src/core/ipv4\etharp.c ****     }
 503              		.loc 1 379 14 view .LVU148
 504 01a6 4FF0FF35 		mov	r5, #-1
 505              	.LVL47:
 379:c:/Users/Black_Life/STM32Cube/Repository/STM32Cube_FW_F4_V1.26.2/Middlewares/Third_Party/LwIP/src/core/ipv4\etharp.c ****     }
 506              		.loc 1 379 14 view .LVU149
 507 01aa C9E7     		b	.L11
 508              	.L44:
 509              		.align	2
 510              	.L43:
 511 01ac 00000000 		.word	.LANCHOR0
 512 01b0 00000000 		.word	.LC0
 513 01b4 78000000 		.word	.LC1
 514 01b8 90000000 		.word	.LC2
 515 01bc B8000000 		.word	.LC3
 516 01c0 CC000000 		.word	.LC4
 517              		.cfi_endproc
 518              	.LFE158:
 520              		.section	.rodata.etharp_update_arp_entry.str1.4,"aMS",%progbits,1
 521              		.align	2
 522              	.LC5:
 523 0000 6E657469 		.ascii	"netif->hwaddr_len == ETH_HWADDR_LEN\000"
 523      662D3E68 
 523      77616464 
 523      725F6C65 
 523      6E203D3D 
 524              		.section	.text.etharp_update_arp_entry,"ax",%progbits
 525              		.align	1
 526              		.syntax unified
 527              		.thumb
 528              		.thumb_func
 530              	etharp_update_arp_entry:
 531              	.LVL48:
ARM GAS  C:\Users\BLACK_~1\AppData\Local\Temp\ccrhXwwe.s 			page 19


 532              	.LFB159:
 402:c:/Users/Black_Life/STM32Cube/Repository/STM32Cube_FW_F4_V1.26.2/Middlewares/Third_Party/LwIP/src/core/ipv4\etharp.c **** 
 403:c:/Users/Black_Life/STM32Cube/Repository/STM32Cube_FW_F4_V1.26.2/Middlewares/Third_Party/LwIP/src/core/ipv4\etharp.c **** /**
 404:c:/Users/Black_Life/STM32Cube/Repository/STM32Cube_FW_F4_V1.26.2/Middlewares/Third_Party/LwIP/src/core/ipv4\etharp.c ****  * Update (or insert) a IP/MAC address pair in the ARP cache.
 405:c:/Users/Black_Life/STM32Cube/Repository/STM32Cube_FW_F4_V1.26.2/Middlewares/Third_Party/LwIP/src/core/ipv4\etharp.c ****  *
 406:c:/Users/Black_Life/STM32Cube/Repository/STM32Cube_FW_F4_V1.26.2/Middlewares/Third_Party/LwIP/src/core/ipv4\etharp.c ****  * If a pending entry is resolved, any queued packets will be sent
 407:c:/Users/Black_Life/STM32Cube/Repository/STM32Cube_FW_F4_V1.26.2/Middlewares/Third_Party/LwIP/src/core/ipv4\etharp.c ****  * at this point.
 408:c:/Users/Black_Life/STM32Cube/Repository/STM32Cube_FW_F4_V1.26.2/Middlewares/Third_Party/LwIP/src/core/ipv4\etharp.c ****  *
 409:c:/Users/Black_Life/STM32Cube/Repository/STM32Cube_FW_F4_V1.26.2/Middlewares/Third_Party/LwIP/src/core/ipv4\etharp.c ****  * @param netif netif related to this entry (used for NETIF_ADDRHINT)
 410:c:/Users/Black_Life/STM32Cube/Repository/STM32Cube_FW_F4_V1.26.2/Middlewares/Third_Party/LwIP/src/core/ipv4\etharp.c ****  * @param ipaddr IP address of the inserted ARP entry.
 411:c:/Users/Black_Life/STM32Cube/Repository/STM32Cube_FW_F4_V1.26.2/Middlewares/Third_Party/LwIP/src/core/ipv4\etharp.c ****  * @param ethaddr Ethernet address of the inserted ARP entry.
 412:c:/Users/Black_Life/STM32Cube/Repository/STM32Cube_FW_F4_V1.26.2/Middlewares/Third_Party/LwIP/src/core/ipv4\etharp.c ****  * @param flags See @ref etharp_state
 413:c:/Users/Black_Life/STM32Cube/Repository/STM32Cube_FW_F4_V1.26.2/Middlewares/Third_Party/LwIP/src/core/ipv4\etharp.c ****  *
 414:c:/Users/Black_Life/STM32Cube/Repository/STM32Cube_FW_F4_V1.26.2/Middlewares/Third_Party/LwIP/src/core/ipv4\etharp.c ****  * @return
 415:c:/Users/Black_Life/STM32Cube/Repository/STM32Cube_FW_F4_V1.26.2/Middlewares/Third_Party/LwIP/src/core/ipv4\etharp.c ****  * - ERR_OK Successfully updated ARP cache.
 416:c:/Users/Black_Life/STM32Cube/Repository/STM32Cube_FW_F4_V1.26.2/Middlewares/Third_Party/LwIP/src/core/ipv4\etharp.c ****  * - ERR_MEM If we could not add a new ARP entry when ETHARP_FLAG_TRY_HARD was set.
 417:c:/Users/Black_Life/STM32Cube/Repository/STM32Cube_FW_F4_V1.26.2/Middlewares/Third_Party/LwIP/src/core/ipv4\etharp.c ****  * - ERR_ARG Non-unicast address given, those will not appear in ARP cache.
 418:c:/Users/Black_Life/STM32Cube/Repository/STM32Cube_FW_F4_V1.26.2/Middlewares/Third_Party/LwIP/src/core/ipv4\etharp.c ****  *
 419:c:/Users/Black_Life/STM32Cube/Repository/STM32Cube_FW_F4_V1.26.2/Middlewares/Third_Party/LwIP/src/core/ipv4\etharp.c ****  * @see pbuf_free()
 420:c:/Users/Black_Life/STM32Cube/Repository/STM32Cube_FW_F4_V1.26.2/Middlewares/Third_Party/LwIP/src/core/ipv4\etharp.c ****  */
 421:c:/Users/Black_Life/STM32Cube/Repository/STM32Cube_FW_F4_V1.26.2/Middlewares/Third_Party/LwIP/src/core/ipv4\etharp.c **** static err_t
 422:c:/Users/Black_Life/STM32Cube/Repository/STM32Cube_FW_F4_V1.26.2/Middlewares/Third_Party/LwIP/src/core/ipv4\etharp.c **** etharp_update_arp_entry(struct netif *netif, const ip4_addr_t *ipaddr, struct eth_addr *ethaddr, u8
 423:c:/Users/Black_Life/STM32Cube/Repository/STM32Cube_FW_F4_V1.26.2/Middlewares/Third_Party/LwIP/src/core/ipv4\etharp.c **** {
 533              		.loc 1 423 1 is_stmt 1 view -0
 534              		.cfi_startproc
 535              		@ args = 0, pretend = 0, frame = 0
 536              		@ frame_needed = 0, uses_anonymous_args = 0
 537              		.loc 1 423 1 is_stmt 0 view .LVU151
 538 0000 F0B5     		push	{r4, r5, r6, r7, lr}
 539              	.LCFI5:
 540              		.cfi_def_cfa_offset 20
 541              		.cfi_offset 4, -20
 542              		.cfi_offset 5, -16
 543              		.cfi_offset 6, -12
 544              		.cfi_offset 7, -8
 545              		.cfi_offset 14, -4
 546 0002 83B0     		sub	sp, sp, #12
 547              	.LCFI6:
 548              		.cfi_def_cfa_offset 32
 549 0004 0546     		mov	r5, r0
 550 0006 0C46     		mov	r4, r1
 551 0008 1646     		mov	r6, r2
 552 000a 1F46     		mov	r7, r3
 424:c:/Users/Black_Life/STM32Cube/Repository/STM32Cube_FW_F4_V1.26.2/Middlewares/Third_Party/LwIP/src/core/ipv4\etharp.c ****   s16_t i;
 553              		.loc 1 424 3 is_stmt 1 view .LVU152
 425:c:/Users/Black_Life/STM32Cube/Repository/STM32Cube_FW_F4_V1.26.2/Middlewares/Third_Party/LwIP/src/core/ipv4\etharp.c ****   LWIP_ASSERT("netif->hwaddr_len == ETH_HWADDR_LEN", netif->hwaddr_len == ETH_HWADDR_LEN);
 554              		.loc 1 425 3 view .LVU153
 555              		.loc 1 425 3 view .LVU154
 556 000c 90F83020 		ldrb	r2, [r0, #48]	@ zero_extendqisi2
 557              	.LVL49:
 558              		.loc 1 425 3 is_stmt 0 view .LVU155
 559 0010 062A     		cmp	r2, #6
 560 0012 3ED1     		bne	.L53
 561              	.LVL50:
 562              	.L46:
 563              		.loc 1 425 3 is_stmt 1 discriminator 3 view .LVU156
 564              		.loc 1 425 3 discriminator 3 view .LVU157
ARM GAS  C:\Users\BLACK_~1\AppData\Local\Temp\ccrhXwwe.s 			page 20


 426:c:/Users/Black_Life/STM32Cube/Repository/STM32Cube_FW_F4_V1.26.2/Middlewares/Third_Party/LwIP/src/core/ipv4\etharp.c ****   LWIP_DEBUGF(ETHARP_DEBUG | LWIP_DBG_TRACE, ("etharp_update_arp_entry: %"U16_F".%"U16_F".%"U16_F".
 427:c:/Users/Black_Life/STM32Cube/Repository/STM32Cube_FW_F4_V1.26.2/Middlewares/Third_Party/LwIP/src/core/ipv4\etharp.c ****               ip4_addr1_16(ipaddr), ip4_addr2_16(ipaddr), ip4_addr3_16(ipaddr), ip4_addr4_16(ipaddr
 428:c:/Users/Black_Life/STM32Cube/Repository/STM32Cube_FW_F4_V1.26.2/Middlewares/Third_Party/LwIP/src/core/ipv4\etharp.c ****               (u16_t)ethaddr->addr[0], (u16_t)ethaddr->addr[1], (u16_t)ethaddr->addr[2],
 429:c:/Users/Black_Life/STM32Cube/Repository/STM32Cube_FW_F4_V1.26.2/Middlewares/Third_Party/LwIP/src/core/ipv4\etharp.c ****               (u16_t)ethaddr->addr[3], (u16_t)ethaddr->addr[4], (u16_t)ethaddr->addr[5]));
 565              		.loc 1 429 90 discriminator 3 view .LVU158
 430:c:/Users/Black_Life/STM32Cube/Repository/STM32Cube_FW_F4_V1.26.2/Middlewares/Third_Party/LwIP/src/core/ipv4\etharp.c ****   /* non-unicast address? */
 431:c:/Users/Black_Life/STM32Cube/Repository/STM32Cube_FW_F4_V1.26.2/Middlewares/Third_Party/LwIP/src/core/ipv4\etharp.c ****   if (ip4_addr_isany(ipaddr) ||
 566              		.loc 1 431 3 discriminator 3 view .LVU159
 567              		.loc 1 431 6 is_stmt 0 discriminator 3 view .LVU160
 568 0014 002C     		cmp	r4, #0
 569 0016 44D0     		beq	.L47
 570              		.loc 1 431 7 discriminator 1 view .LVU161
 571 0018 2068     		ldr	r0, [r4]
 572 001a 0028     		cmp	r0, #0
 573 001c 41D0     		beq	.L47
 432:c:/Users/Black_Life/STM32Cube/Repository/STM32Cube_FW_F4_V1.26.2/Middlewares/Third_Party/LwIP/src/core/ipv4\etharp.c ****       ip4_addr_isbroadcast(ipaddr, netif) ||
 574              		.loc 1 432 7 discriminator 2 view .LVU162
 575 001e 2946     		mov	r1, r5
 576 0020 FFF7FEFF 		bl	ip4_addr_isbroadcast_u32
 577              	.LVL51:
 431:c:/Users/Black_Life/STM32Cube/Repository/STM32Cube_FW_F4_V1.26.2/Middlewares/Third_Party/LwIP/src/core/ipv4\etharp.c ****       ip4_addr_isbroadcast(ipaddr, netif) ||
 578              		.loc 1 431 30 discriminator 2 view .LVU163
 579 0024 0028     		cmp	r0, #0
 580 0026 3CD1     		bne	.L47
 433:c:/Users/Black_Life/STM32Cube/Repository/STM32Cube_FW_F4_V1.26.2/Middlewares/Third_Party/LwIP/src/core/ipv4\etharp.c ****       ip4_addr_ismulticast(ipaddr)) {
 581              		.loc 1 433 7 view .LVU164
 582 0028 2268     		ldr	r2, [r4]
 583 002a 02F0F002 		and	r2, r2, #240
 432:c:/Users/Black_Life/STM32Cube/Repository/STM32Cube_FW_F4_V1.26.2/Middlewares/Third_Party/LwIP/src/core/ipv4\etharp.c ****       ip4_addr_isbroadcast(ipaddr, netif) ||
 584              		.loc 1 432 43 view .LVU165
 585 002e E02A     		cmp	r2, #224
 586 0030 37D0     		beq	.L47
 434:c:/Users/Black_Life/STM32Cube/Repository/STM32Cube_FW_F4_V1.26.2/Middlewares/Third_Party/LwIP/src/core/ipv4\etharp.c ****     LWIP_DEBUGF(ETHARP_DEBUG | LWIP_DBG_TRACE, ("etharp_update_arp_entry: will not add non-unicast 
 435:c:/Users/Black_Life/STM32Cube/Repository/STM32Cube_FW_F4_V1.26.2/Middlewares/Third_Party/LwIP/src/core/ipv4\etharp.c ****     return ERR_ARG;
 436:c:/Users/Black_Life/STM32Cube/Repository/STM32Cube_FW_F4_V1.26.2/Middlewares/Third_Party/LwIP/src/core/ipv4\etharp.c ****   }
 437:c:/Users/Black_Life/STM32Cube/Repository/STM32Cube_FW_F4_V1.26.2/Middlewares/Third_Party/LwIP/src/core/ipv4\etharp.c ****   /* find or create ARP entry */
 438:c:/Users/Black_Life/STM32Cube/Repository/STM32Cube_FW_F4_V1.26.2/Middlewares/Third_Party/LwIP/src/core/ipv4\etharp.c ****   i = etharp_find_entry(ipaddr, flags, netif);
 587              		.loc 1 438 3 is_stmt 1 view .LVU166
 588              		.loc 1 438 7 is_stmt 0 view .LVU167
 589 0032 2A46     		mov	r2, r5
 590 0034 3946     		mov	r1, r7
 591 0036 2046     		mov	r0, r4
 592 0038 FFF7FEFF 		bl	etharp_find_entry
 593              	.LVL52:
 439:c:/Users/Black_Life/STM32Cube/Repository/STM32Cube_FW_F4_V1.26.2/Middlewares/Third_Party/LwIP/src/core/ipv4\etharp.c ****   /* bail out if no entry could be found */
 440:c:/Users/Black_Life/STM32Cube/Repository/STM32Cube_FW_F4_V1.26.2/Middlewares/Third_Party/LwIP/src/core/ipv4\etharp.c ****   if (i < 0) {
 594              		.loc 1 440 3 is_stmt 1 view .LVU168
 595              		.loc 1 440 6 is_stmt 0 view .LVU169
 596 003c B0F1000C 		subs	ip, r0, #0
 597 0040 32DB     		blt	.L54
 441:c:/Users/Black_Life/STM32Cube/Repository/STM32Cube_FW_F4_V1.26.2/Middlewares/Third_Party/LwIP/src/core/ipv4\etharp.c ****     return (err_t)i;
 442:c:/Users/Black_Life/STM32Cube/Repository/STM32Cube_FW_F4_V1.26.2/Middlewares/Third_Party/LwIP/src/core/ipv4\etharp.c ****   }
 443:c:/Users/Black_Life/STM32Cube/Repository/STM32Cube_FW_F4_V1.26.2/Middlewares/Third_Party/LwIP/src/core/ipv4\etharp.c **** 
 444:c:/Users/Black_Life/STM32Cube/Repository/STM32Cube_FW_F4_V1.26.2/Middlewares/Third_Party/LwIP/src/core/ipv4\etharp.c **** #if ETHARP_SUPPORT_STATIC_ENTRIES
 445:c:/Users/Black_Life/STM32Cube/Repository/STM32Cube_FW_F4_V1.26.2/Middlewares/Third_Party/LwIP/src/core/ipv4\etharp.c ****   if (flags & ETHARP_FLAG_STATIC_ENTRY) {
 446:c:/Users/Black_Life/STM32Cube/Repository/STM32Cube_FW_F4_V1.26.2/Middlewares/Third_Party/LwIP/src/core/ipv4\etharp.c ****     /* record static type */
 447:c:/Users/Black_Life/STM32Cube/Repository/STM32Cube_FW_F4_V1.26.2/Middlewares/Third_Party/LwIP/src/core/ipv4\etharp.c ****     arp_table[i].state = ETHARP_STATE_STATIC;
ARM GAS  C:\Users\BLACK_~1\AppData\Local\Temp\ccrhXwwe.s 			page 21


 448:c:/Users/Black_Life/STM32Cube/Repository/STM32Cube_FW_F4_V1.26.2/Middlewares/Third_Party/LwIP/src/core/ipv4\etharp.c ****   } else if (arp_table[i].state == ETHARP_STATE_STATIC) {
 449:c:/Users/Black_Life/STM32Cube/Repository/STM32Cube_FW_F4_V1.26.2/Middlewares/Third_Party/LwIP/src/core/ipv4\etharp.c ****     /* found entry is a static type, don't overwrite it */
 450:c:/Users/Black_Life/STM32Cube/Repository/STM32Cube_FW_F4_V1.26.2/Middlewares/Third_Party/LwIP/src/core/ipv4\etharp.c ****     return ERR_VAL;
 451:c:/Users/Black_Life/STM32Cube/Repository/STM32Cube_FW_F4_V1.26.2/Middlewares/Third_Party/LwIP/src/core/ipv4\etharp.c ****   } else
 452:c:/Users/Black_Life/STM32Cube/Repository/STM32Cube_FW_F4_V1.26.2/Middlewares/Third_Party/LwIP/src/core/ipv4\etharp.c **** #endif /* ETHARP_SUPPORT_STATIC_ENTRIES */
 453:c:/Users/Black_Life/STM32Cube/Repository/STM32Cube_FW_F4_V1.26.2/Middlewares/Third_Party/LwIP/src/core/ipv4\etharp.c ****   {
 454:c:/Users/Black_Life/STM32Cube/Repository/STM32Cube_FW_F4_V1.26.2/Middlewares/Third_Party/LwIP/src/core/ipv4\etharp.c ****     /* mark it stable */
 455:c:/Users/Black_Life/STM32Cube/Repository/STM32Cube_FW_F4_V1.26.2/Middlewares/Third_Party/LwIP/src/core/ipv4\etharp.c ****     arp_table[i].state = ETHARP_STATE_STABLE;
 598              		.loc 1 455 5 is_stmt 1 view .LVU170
 599              		.loc 1 455 24 is_stmt 0 view .LVU171
 600 0042 1C4B     		ldr	r3, .L55
 601 0044 0CEB4C00 		add	r0, ip, ip, lsl #1
 602              	.LVL53:
 603              		.loc 1 455 24 view .LVU172
 604 0048 03EBC002 		add	r2, r3, r0, lsl #3
 605 004c 0221     		movs	r1, #2
 606 004e 1175     		strb	r1, [r2, #20]
 456:c:/Users/Black_Life/STM32Cube/Repository/STM32Cube_FW_F4_V1.26.2/Middlewares/Third_Party/LwIP/src/core/ipv4\etharp.c ****   }
 457:c:/Users/Black_Life/STM32Cube/Repository/STM32Cube_FW_F4_V1.26.2/Middlewares/Third_Party/LwIP/src/core/ipv4\etharp.c **** 
 458:c:/Users/Black_Life/STM32Cube/Repository/STM32Cube_FW_F4_V1.26.2/Middlewares/Third_Party/LwIP/src/core/ipv4\etharp.c ****   /* record network interface */
 459:c:/Users/Black_Life/STM32Cube/Repository/STM32Cube_FW_F4_V1.26.2/Middlewares/Third_Party/LwIP/src/core/ipv4\etharp.c ****   arp_table[i].netif = netif;
 607              		.loc 1 459 3 is_stmt 1 view .LVU173
 608              		.loc 1 459 22 is_stmt 0 view .LVU174
 609 0050 9560     		str	r5, [r2, #8]
 460:c:/Users/Black_Life/STM32Cube/Repository/STM32Cube_FW_F4_V1.26.2/Middlewares/Third_Party/LwIP/src/core/ipv4\etharp.c ****   /* insert in SNMP ARP index tree */
 461:c:/Users/Black_Life/STM32Cube/Repository/STM32Cube_FW_F4_V1.26.2/Middlewares/Third_Party/LwIP/src/core/ipv4\etharp.c ****   mib2_add_arp_entry(netif, &arp_table[i].ipaddr);
 610              		.loc 1 461 50 is_stmt 1 view .LVU175
 462:c:/Users/Black_Life/STM32Cube/Repository/STM32Cube_FW_F4_V1.26.2/Middlewares/Third_Party/LwIP/src/core/ipv4\etharp.c **** 
 463:c:/Users/Black_Life/STM32Cube/Repository/STM32Cube_FW_F4_V1.26.2/Middlewares/Third_Party/LwIP/src/core/ipv4\etharp.c ****   LWIP_DEBUGF(ETHARP_DEBUG | LWIP_DBG_TRACE, ("etharp_update_arp_entry: updating stable entry %"S16
 611              		.loc 1 463 111 view .LVU176
 464:c:/Users/Black_Life/STM32Cube/Repository/STM32Cube_FW_F4_V1.26.2/Middlewares/Third_Party/LwIP/src/core/ipv4\etharp.c ****   /* update address */
 465:c:/Users/Black_Life/STM32Cube/Repository/STM32Cube_FW_F4_V1.26.2/Middlewares/Third_Party/LwIP/src/core/ipv4\etharp.c ****   SMEMCPY(&arp_table[i].ethaddr, ethaddr, ETH_HWADDR_LEN);
 612              		.loc 1 465 3 view .LVU177
 613 0052 C100     		lsls	r1, r0, #3
 614 0054 0831     		adds	r1, r1, #8
 615 0056 1944     		add	r1, r1, r3
 616 0058 3468     		ldr	r4, [r6]	@ unaligned
 617              	.LVL54:
 618              		.loc 1 465 3 is_stmt 0 view .LVU178
 619 005a 4C60     		str	r4, [r1, #4]	@ unaligned
 620 005c B488     		ldrh	r4, [r6, #4]	@ unaligned
 621 005e 0C81     		strh	r4, [r1, #8]	@ unaligned
 466:c:/Users/Black_Life/STM32Cube/Repository/STM32Cube_FW_F4_V1.26.2/Middlewares/Third_Party/LwIP/src/core/ipv4\etharp.c ****   /* reset time stamp */
 467:c:/Users/Black_Life/STM32Cube/Repository/STM32Cube_FW_F4_V1.26.2/Middlewares/Third_Party/LwIP/src/core/ipv4\etharp.c ****   arp_table[i].ctime = 0;
 622              		.loc 1 467 3 is_stmt 1 view .LVU179
 623              		.loc 1 467 22 is_stmt 0 view .LVU180
 624 0060 0021     		movs	r1, #0
 625 0062 5182     		strh	r1, [r2, #18]	@ movhi
 468:c:/Users/Black_Life/STM32Cube/Repository/STM32Cube_FW_F4_V1.26.2/Middlewares/Third_Party/LwIP/src/core/ipv4\etharp.c ****   /* this is where we will send out queued packets! */
 469:c:/Users/Black_Life/STM32Cube/Repository/STM32Cube_FW_F4_V1.26.2/Middlewares/Third_Party/LwIP/src/core/ipv4\etharp.c **** #if ARP_QUEUEING
 470:c:/Users/Black_Life/STM32Cube/Repository/STM32Cube_FW_F4_V1.26.2/Middlewares/Third_Party/LwIP/src/core/ipv4\etharp.c ****   while (arp_table[i].q != NULL) {
 471:c:/Users/Black_Life/STM32Cube/Repository/STM32Cube_FW_F4_V1.26.2/Middlewares/Third_Party/LwIP/src/core/ipv4\etharp.c ****     struct pbuf *p;
 472:c:/Users/Black_Life/STM32Cube/Repository/STM32Cube_FW_F4_V1.26.2/Middlewares/Third_Party/LwIP/src/core/ipv4\etharp.c ****     /* remember remainder of queue */
 473:c:/Users/Black_Life/STM32Cube/Repository/STM32Cube_FW_F4_V1.26.2/Middlewares/Third_Party/LwIP/src/core/ipv4\etharp.c ****     struct etharp_q_entry *q = arp_table[i].q;
 474:c:/Users/Black_Life/STM32Cube/Repository/STM32Cube_FW_F4_V1.26.2/Middlewares/Third_Party/LwIP/src/core/ipv4\etharp.c ****     /* pop first item off the queue */
 475:c:/Users/Black_Life/STM32Cube/Repository/STM32Cube_FW_F4_V1.26.2/Middlewares/Third_Party/LwIP/src/core/ipv4\etharp.c ****     arp_table[i].q = q->next;
 476:c:/Users/Black_Life/STM32Cube/Repository/STM32Cube_FW_F4_V1.26.2/Middlewares/Third_Party/LwIP/src/core/ipv4\etharp.c ****     /* get the packet pointer */
ARM GAS  C:\Users\BLACK_~1\AppData\Local\Temp\ccrhXwwe.s 			page 22


 477:c:/Users/Black_Life/STM32Cube/Repository/STM32Cube_FW_F4_V1.26.2/Middlewares/Third_Party/LwIP/src/core/ipv4\etharp.c ****     p = q->p;
 478:c:/Users/Black_Life/STM32Cube/Repository/STM32Cube_FW_F4_V1.26.2/Middlewares/Third_Party/LwIP/src/core/ipv4\etharp.c ****     /* now queue entry can be freed */
 479:c:/Users/Black_Life/STM32Cube/Repository/STM32Cube_FW_F4_V1.26.2/Middlewares/Third_Party/LwIP/src/core/ipv4\etharp.c ****     memp_free(MEMP_ARP_QUEUE, q);
 480:c:/Users/Black_Life/STM32Cube/Repository/STM32Cube_FW_F4_V1.26.2/Middlewares/Third_Party/LwIP/src/core/ipv4\etharp.c **** #else /* ARP_QUEUEING */
 481:c:/Users/Black_Life/STM32Cube/Repository/STM32Cube_FW_F4_V1.26.2/Middlewares/Third_Party/LwIP/src/core/ipv4\etharp.c ****   if (arp_table[i].q != NULL) {
 626              		.loc 1 481 3 is_stmt 1 view .LVU181
 627              		.loc 1 481 19 is_stmt 0 view .LVU182
 628 0064 53F83070 		ldr	r7, [r3, r0, lsl #3]
 629              		.loc 1 481 6 view .LVU183
 630 0068 17B3     		cbz	r7, .L51
 631              	.LBB5:
 482:c:/Users/Black_Life/STM32Cube/Repository/STM32Cube_FW_F4_V1.26.2/Middlewares/Third_Party/LwIP/src/core/ipv4\etharp.c ****     struct pbuf *p = arp_table[i].q;
 632              		.loc 1 482 5 is_stmt 1 view .LVU184
 633              	.LVL55:
 483:c:/Users/Black_Life/STM32Cube/Repository/STM32Cube_FW_F4_V1.26.2/Middlewares/Third_Party/LwIP/src/core/ipv4\etharp.c ****     arp_table[i].q = NULL;
 634              		.loc 1 483 5 view .LVU185
 635              		.loc 1 483 20 is_stmt 0 view .LVU186
 636 006a 4FEAC00C 		lsl	ip, r0, #3
 637 006e 0C46     		mov	r4, r1
 638 0070 43F80C10 		str	r1, [r3, ip]
 484:c:/Users/Black_Life/STM32Cube/Repository/STM32Cube_FW_F4_V1.26.2/Middlewares/Third_Party/LwIP/src/core/ipv4\etharp.c **** #endif /* ARP_QUEUEING */
 485:c:/Users/Black_Life/STM32Cube/Repository/STM32Cube_FW_F4_V1.26.2/Middlewares/Third_Party/LwIP/src/core/ipv4\etharp.c ****     /* send the queued IP packet */
 486:c:/Users/Black_Life/STM32Cube/Repository/STM32Cube_FW_F4_V1.26.2/Middlewares/Third_Party/LwIP/src/core/ipv4\etharp.c ****     ethernet_output(netif, p, (struct eth_addr *)(netif->hwaddr), ethaddr, ETHTYPE_IP);
 639              		.loc 1 486 5 is_stmt 1 view .LVU187
 640 0074 4FF40063 		mov	r3, #2048
 641 0078 0093     		str	r3, [sp]
 642 007a 3346     		mov	r3, r6
 643 007c 05F12A02 		add	r2, r5, #42
 644 0080 3946     		mov	r1, r7
 645 0082 2846     		mov	r0, r5
 646 0084 FFF7FEFF 		bl	ethernet_output
 647              	.LVL56:
 487:c:/Users/Black_Life/STM32Cube/Repository/STM32Cube_FW_F4_V1.26.2/Middlewares/Third_Party/LwIP/src/core/ipv4\etharp.c ****     /* free the queued IP packet */
 488:c:/Users/Black_Life/STM32Cube/Repository/STM32Cube_FW_F4_V1.26.2/Middlewares/Third_Party/LwIP/src/core/ipv4\etharp.c ****     pbuf_free(p);
 648              		.loc 1 488 5 view .LVU188
 649 0088 3846     		mov	r0, r7
 650 008a FFF7FEFF 		bl	pbuf_free
 651              	.LVL57:
 652              	.LBE5:
 489:c:/Users/Black_Life/STM32Cube/Repository/STM32Cube_FW_F4_V1.26.2/Middlewares/Third_Party/LwIP/src/core/ipv4\etharp.c ****   }
 490:c:/Users/Black_Life/STM32Cube/Repository/STM32Cube_FW_F4_V1.26.2/Middlewares/Third_Party/LwIP/src/core/ipv4\etharp.c ****   return ERR_OK;
 653              		.loc 1 490 10 is_stmt 0 view .LVU189
 654 008e 2046     		mov	r0, r4
 655 0090 0CE0     		b	.L49
 656              	.LVL58:
 657              	.L53:
 425:c:/Users/Black_Life/STM32Cube/Repository/STM32Cube_FW_F4_V1.26.2/Middlewares/Third_Party/LwIP/src/core/ipv4\etharp.c ****   LWIP_DEBUGF(ETHARP_DEBUG | LWIP_DBG_TRACE, ("etharp_update_arp_entry: %"U16_F".%"U16_F".%"U16_F".
 658              		.loc 1 425 3 is_stmt 1 discriminator 1 view .LVU190
 425:c:/Users/Black_Life/STM32Cube/Repository/STM32Cube_FW_F4_V1.26.2/Middlewares/Third_Party/LwIP/src/core/ipv4\etharp.c ****   LWIP_DEBUGF(ETHARP_DEBUG | LWIP_DBG_TRACE, ("etharp_update_arp_entry: %"U16_F".%"U16_F".%"U16_F".
 659              		.loc 1 425 3 discriminator 1 view .LVU191
 660 0092 094B     		ldr	r3, .L55+4
 661              	.LVL59:
 425:c:/Users/Black_Life/STM32Cube/Repository/STM32Cube_FW_F4_V1.26.2/Middlewares/Third_Party/LwIP/src/core/ipv4\etharp.c ****   LWIP_DEBUGF(ETHARP_DEBUG | LWIP_DBG_TRACE, ("etharp_update_arp_entry: %"U16_F".%"U16_F".%"U16_F".
 662              		.loc 1 425 3 is_stmt 0 discriminator 1 view .LVU192
 663 0094 40F2A912 		movw	r2, #425
 664 0098 0849     		ldr	r1, .L55+8
 665              	.LVL60:
ARM GAS  C:\Users\BLACK_~1\AppData\Local\Temp\ccrhXwwe.s 			page 23


 425:c:/Users/Black_Life/STM32Cube/Repository/STM32Cube_FW_F4_V1.26.2/Middlewares/Third_Party/LwIP/src/core/ipv4\etharp.c ****   LWIP_DEBUGF(ETHARP_DEBUG | LWIP_DBG_TRACE, ("etharp_update_arp_entry: %"U16_F".%"U16_F".%"U16_F".
 666              		.loc 1 425 3 discriminator 1 view .LVU193
 667 009a 0948     		ldr	r0, .L55+12
 668              	.LVL61:
 425:c:/Users/Black_Life/STM32Cube/Repository/STM32Cube_FW_F4_V1.26.2/Middlewares/Third_Party/LwIP/src/core/ipv4\etharp.c ****   LWIP_DEBUGF(ETHARP_DEBUG | LWIP_DBG_TRACE, ("etharp_update_arp_entry: %"U16_F".%"U16_F".%"U16_F".
 669              		.loc 1 425 3 discriminator 1 view .LVU194
 670 009c FFF7FEFF 		bl	printf
 671              	.LVL62:
 672 00a0 B8E7     		b	.L46
 673              	.L47:
 434:c:/Users/Black_Life/STM32Cube/Repository/STM32Cube_FW_F4_V1.26.2/Middlewares/Third_Party/LwIP/src/core/ipv4\etharp.c ****     return ERR_ARG;
 674              		.loc 1 434 128 is_stmt 1 view .LVU195
 435:c:/Users/Black_Life/STM32Cube/Repository/STM32Cube_FW_F4_V1.26.2/Middlewares/Third_Party/LwIP/src/core/ipv4\etharp.c ****   }
 675              		.loc 1 435 5 view .LVU196
 435:c:/Users/Black_Life/STM32Cube/Repository/STM32Cube_FW_F4_V1.26.2/Middlewares/Third_Party/LwIP/src/core/ipv4\etharp.c ****   }
 676              		.loc 1 435 12 is_stmt 0 view .LVU197
 677 00a2 6FF00F00 		mvn	r0, #15
 678 00a6 01E0     		b	.L49
 679              	.LVL63:
 680              	.L54:
 441:c:/Users/Black_Life/STM32Cube/Repository/STM32Cube_FW_F4_V1.26.2/Middlewares/Third_Party/LwIP/src/core/ipv4\etharp.c ****   }
 681              		.loc 1 441 5 is_stmt 1 view .LVU198
 441:c:/Users/Black_Life/STM32Cube/Repository/STM32Cube_FW_F4_V1.26.2/Middlewares/Third_Party/LwIP/src/core/ipv4\etharp.c ****   }
 682              		.loc 1 441 12 is_stmt 0 view .LVU199
 683 00a8 4FFA8CF0 		sxtb	r0, ip
 684              	.LVL64:
 685              	.L49:
 491:c:/Users/Black_Life/STM32Cube/Repository/STM32Cube_FW_F4_V1.26.2/Middlewares/Third_Party/LwIP/src/core/ipv4\etharp.c **** }
 686              		.loc 1 491 1 view .LVU200
 687 00ac 03B0     		add	sp, sp, #12
 688              	.LCFI7:
 689              		.cfi_remember_state
 690              		.cfi_def_cfa_offset 20
 691              		@ sp needed
 692 00ae F0BD     		pop	{r4, r5, r6, r7, pc}
 693              	.LVL65:
 694              	.L51:
 695              	.LCFI8:
 696              		.cfi_restore_state
 490:c:/Users/Black_Life/STM32Cube/Repository/STM32Cube_FW_F4_V1.26.2/Middlewares/Third_Party/LwIP/src/core/ipv4\etharp.c **** }
 697              		.loc 1 490 10 view .LVU201
 698 00b0 0020     		movs	r0, #0
 699 00b2 FBE7     		b	.L49
 700              	.L56:
 701              		.align	2
 702              	.L55:
 703 00b4 00000000 		.word	.LANCHOR0
 704 00b8 00000000 		.word	.LC0
 705 00bc 00000000 		.word	.LC5
 706 00c0 90000000 		.word	.LC2
 707              		.cfi_endproc
 708              	.LFE159:
 710              		.section	.rodata.etharp_raw.str1.4,"aMS",%progbits,1
 711              		.align	2
 712              	.LC6:
 713 0000 6E657469 		.ascii	"netif != NULL\000"
 713      6620213D 
ARM GAS  C:\Users\BLACK_~1\AppData\Local\Temp\ccrhXwwe.s 			page 24


 713      204E554C 
 713      4C00
 714 000e 0000     		.align	2
 715              	.LC7:
 716 0010 63686563 		.ascii	"check that first pbuf can hold struct etharp_hdr\000"
 716      6B207468 
 716      61742066 
 716      69727374 
 716      20706275 
 717 0041 000000   		.align	2
 718              	.LC8:
 719 0044 6E657469 		.ascii	"netif->hwaddr_len must be the same as ETH_HWADDR_LE"
 719      662D3E68 
 719      77616464 
 719      725F6C65 
 719      6E206D75 
 720 0077 4E20666F 		.ascii	"N for etharp!\000"
 720      72206574 
 720      68617270 
 720      2100
 721              		.section	.text.etharp_raw,"ax",%progbits
 722              		.align	1
 723              		.syntax unified
 724              		.thumb
 725              		.thumb_func
 727              	etharp_raw:
 728              	.LVL66:
 729              	.LFB167:
 492:c:/Users/Black_Life/STM32Cube/Repository/STM32Cube_FW_F4_V1.26.2/Middlewares/Third_Party/LwIP/src/core/ipv4\etharp.c **** 
 493:c:/Users/Black_Life/STM32Cube/Repository/STM32Cube_FW_F4_V1.26.2/Middlewares/Third_Party/LwIP/src/core/ipv4\etharp.c **** #if ETHARP_SUPPORT_STATIC_ENTRIES
 494:c:/Users/Black_Life/STM32Cube/Repository/STM32Cube_FW_F4_V1.26.2/Middlewares/Third_Party/LwIP/src/core/ipv4\etharp.c **** /** Add a new static entry to the ARP table. If an entry exists for the
 495:c:/Users/Black_Life/STM32Cube/Repository/STM32Cube_FW_F4_V1.26.2/Middlewares/Third_Party/LwIP/src/core/ipv4\etharp.c ****  * specified IP address, this entry is overwritten.
 496:c:/Users/Black_Life/STM32Cube/Repository/STM32Cube_FW_F4_V1.26.2/Middlewares/Third_Party/LwIP/src/core/ipv4\etharp.c ****  * If packets are queued for the specified IP address, they are sent out.
 497:c:/Users/Black_Life/STM32Cube/Repository/STM32Cube_FW_F4_V1.26.2/Middlewares/Third_Party/LwIP/src/core/ipv4\etharp.c ****  *
 498:c:/Users/Black_Life/STM32Cube/Repository/STM32Cube_FW_F4_V1.26.2/Middlewares/Third_Party/LwIP/src/core/ipv4\etharp.c ****  * @param ipaddr IP address for the new static entry
 499:c:/Users/Black_Life/STM32Cube/Repository/STM32Cube_FW_F4_V1.26.2/Middlewares/Third_Party/LwIP/src/core/ipv4\etharp.c ****  * @param ethaddr ethernet address for the new static entry
 500:c:/Users/Black_Life/STM32Cube/Repository/STM32Cube_FW_F4_V1.26.2/Middlewares/Third_Party/LwIP/src/core/ipv4\etharp.c ****  * @return See return values of etharp_add_static_entry
 501:c:/Users/Black_Life/STM32Cube/Repository/STM32Cube_FW_F4_V1.26.2/Middlewares/Third_Party/LwIP/src/core/ipv4\etharp.c ****  */
 502:c:/Users/Black_Life/STM32Cube/Repository/STM32Cube_FW_F4_V1.26.2/Middlewares/Third_Party/LwIP/src/core/ipv4\etharp.c **** err_t
 503:c:/Users/Black_Life/STM32Cube/Repository/STM32Cube_FW_F4_V1.26.2/Middlewares/Third_Party/LwIP/src/core/ipv4\etharp.c **** etharp_add_static_entry(const ip4_addr_t *ipaddr, struct eth_addr *ethaddr)
 504:c:/Users/Black_Life/STM32Cube/Repository/STM32Cube_FW_F4_V1.26.2/Middlewares/Third_Party/LwIP/src/core/ipv4\etharp.c **** {
 505:c:/Users/Black_Life/STM32Cube/Repository/STM32Cube_FW_F4_V1.26.2/Middlewares/Third_Party/LwIP/src/core/ipv4\etharp.c ****   struct netif *netif;
 506:c:/Users/Black_Life/STM32Cube/Repository/STM32Cube_FW_F4_V1.26.2/Middlewares/Third_Party/LwIP/src/core/ipv4\etharp.c ****   LWIP_ASSERT_CORE_LOCKED();
 507:c:/Users/Black_Life/STM32Cube/Repository/STM32Cube_FW_F4_V1.26.2/Middlewares/Third_Party/LwIP/src/core/ipv4\etharp.c ****   LWIP_DEBUGF(ETHARP_DEBUG | LWIP_DBG_TRACE, ("etharp_add_static_entry: %"U16_F".%"U16_F".%"U16_F".
 508:c:/Users/Black_Life/STM32Cube/Repository/STM32Cube_FW_F4_V1.26.2/Middlewares/Third_Party/LwIP/src/core/ipv4\etharp.c ****               ip4_addr1_16(ipaddr), ip4_addr2_16(ipaddr), ip4_addr3_16(ipaddr), ip4_addr4_16(ipaddr
 509:c:/Users/Black_Life/STM32Cube/Repository/STM32Cube_FW_F4_V1.26.2/Middlewares/Third_Party/LwIP/src/core/ipv4\etharp.c ****               (u16_t)ethaddr->addr[0], (u16_t)ethaddr->addr[1], (u16_t)ethaddr->addr[2],
 510:c:/Users/Black_Life/STM32Cube/Repository/STM32Cube_FW_F4_V1.26.2/Middlewares/Third_Party/LwIP/src/core/ipv4\etharp.c ****               (u16_t)ethaddr->addr[3], (u16_t)ethaddr->addr[4], (u16_t)ethaddr->addr[5]));
 511:c:/Users/Black_Life/STM32Cube/Repository/STM32Cube_FW_F4_V1.26.2/Middlewares/Third_Party/LwIP/src/core/ipv4\etharp.c **** 
 512:c:/Users/Black_Life/STM32Cube/Repository/STM32Cube_FW_F4_V1.26.2/Middlewares/Third_Party/LwIP/src/core/ipv4\etharp.c ****   netif = ip4_route(ipaddr);
 513:c:/Users/Black_Life/STM32Cube/Repository/STM32Cube_FW_F4_V1.26.2/Middlewares/Third_Party/LwIP/src/core/ipv4\etharp.c ****   if (netif == NULL) {
 514:c:/Users/Black_Life/STM32Cube/Repository/STM32Cube_FW_F4_V1.26.2/Middlewares/Third_Party/LwIP/src/core/ipv4\etharp.c ****     return ERR_RTE;
 515:c:/Users/Black_Life/STM32Cube/Repository/STM32Cube_FW_F4_V1.26.2/Middlewares/Third_Party/LwIP/src/core/ipv4\etharp.c ****   }
 516:c:/Users/Black_Life/STM32Cube/Repository/STM32Cube_FW_F4_V1.26.2/Middlewares/Third_Party/LwIP/src/core/ipv4\etharp.c **** 
 517:c:/Users/Black_Life/STM32Cube/Repository/STM32Cube_FW_F4_V1.26.2/Middlewares/Third_Party/LwIP/src/core/ipv4\etharp.c ****   return etharp_update_arp_entry(netif, ipaddr, ethaddr, ETHARP_FLAG_TRY_HARD | ETHARP_FLAG_STATIC_
 518:c:/Users/Black_Life/STM32Cube/Repository/STM32Cube_FW_F4_V1.26.2/Middlewares/Third_Party/LwIP/src/core/ipv4\etharp.c **** }
 519:c:/Users/Black_Life/STM32Cube/Repository/STM32Cube_FW_F4_V1.26.2/Middlewares/Third_Party/LwIP/src/core/ipv4\etharp.c **** 
 520:c:/Users/Black_Life/STM32Cube/Repository/STM32Cube_FW_F4_V1.26.2/Middlewares/Third_Party/LwIP/src/core/ipv4\etharp.c **** /** Remove a static entry from the ARP table previously added with a call to
ARM GAS  C:\Users\BLACK_~1\AppData\Local\Temp\ccrhXwwe.s 			page 25


 521:c:/Users/Black_Life/STM32Cube/Repository/STM32Cube_FW_F4_V1.26.2/Middlewares/Third_Party/LwIP/src/core/ipv4\etharp.c ****  * etharp_add_static_entry.
 522:c:/Users/Black_Life/STM32Cube/Repository/STM32Cube_FW_F4_V1.26.2/Middlewares/Third_Party/LwIP/src/core/ipv4\etharp.c ****  *
 523:c:/Users/Black_Life/STM32Cube/Repository/STM32Cube_FW_F4_V1.26.2/Middlewares/Third_Party/LwIP/src/core/ipv4\etharp.c ****  * @param ipaddr IP address of the static entry to remove
 524:c:/Users/Black_Life/STM32Cube/Repository/STM32Cube_FW_F4_V1.26.2/Middlewares/Third_Party/LwIP/src/core/ipv4\etharp.c ****  * @return ERR_OK: entry removed
 525:c:/Users/Black_Life/STM32Cube/Repository/STM32Cube_FW_F4_V1.26.2/Middlewares/Third_Party/LwIP/src/core/ipv4\etharp.c ****  *         ERR_MEM: entry wasn't found
 526:c:/Users/Black_Life/STM32Cube/Repository/STM32Cube_FW_F4_V1.26.2/Middlewares/Third_Party/LwIP/src/core/ipv4\etharp.c ****  *         ERR_ARG: entry wasn't a static entry but a dynamic one
 527:c:/Users/Black_Life/STM32Cube/Repository/STM32Cube_FW_F4_V1.26.2/Middlewares/Third_Party/LwIP/src/core/ipv4\etharp.c ****  */
 528:c:/Users/Black_Life/STM32Cube/Repository/STM32Cube_FW_F4_V1.26.2/Middlewares/Third_Party/LwIP/src/core/ipv4\etharp.c **** err_t
 529:c:/Users/Black_Life/STM32Cube/Repository/STM32Cube_FW_F4_V1.26.2/Middlewares/Third_Party/LwIP/src/core/ipv4\etharp.c **** etharp_remove_static_entry(const ip4_addr_t *ipaddr)
 530:c:/Users/Black_Life/STM32Cube/Repository/STM32Cube_FW_F4_V1.26.2/Middlewares/Third_Party/LwIP/src/core/ipv4\etharp.c **** {
 531:c:/Users/Black_Life/STM32Cube/Repository/STM32Cube_FW_F4_V1.26.2/Middlewares/Third_Party/LwIP/src/core/ipv4\etharp.c ****   s16_t i;
 532:c:/Users/Black_Life/STM32Cube/Repository/STM32Cube_FW_F4_V1.26.2/Middlewares/Third_Party/LwIP/src/core/ipv4\etharp.c ****   LWIP_ASSERT_CORE_LOCKED();
 533:c:/Users/Black_Life/STM32Cube/Repository/STM32Cube_FW_F4_V1.26.2/Middlewares/Third_Party/LwIP/src/core/ipv4\etharp.c ****   LWIP_DEBUGF(ETHARP_DEBUG | LWIP_DBG_TRACE, ("etharp_remove_static_entry: %"U16_F".%"U16_F".%"U16_
 534:c:/Users/Black_Life/STM32Cube/Repository/STM32Cube_FW_F4_V1.26.2/Middlewares/Third_Party/LwIP/src/core/ipv4\etharp.c ****               ip4_addr1_16(ipaddr), ip4_addr2_16(ipaddr), ip4_addr3_16(ipaddr), ip4_addr4_16(ipaddr
 535:c:/Users/Black_Life/STM32Cube/Repository/STM32Cube_FW_F4_V1.26.2/Middlewares/Third_Party/LwIP/src/core/ipv4\etharp.c **** 
 536:c:/Users/Black_Life/STM32Cube/Repository/STM32Cube_FW_F4_V1.26.2/Middlewares/Third_Party/LwIP/src/core/ipv4\etharp.c ****   /* find or create ARP entry */
 537:c:/Users/Black_Life/STM32Cube/Repository/STM32Cube_FW_F4_V1.26.2/Middlewares/Third_Party/LwIP/src/core/ipv4\etharp.c ****   i = etharp_find_entry(ipaddr, ETHARP_FLAG_FIND_ONLY, NULL);
 538:c:/Users/Black_Life/STM32Cube/Repository/STM32Cube_FW_F4_V1.26.2/Middlewares/Third_Party/LwIP/src/core/ipv4\etharp.c ****   /* bail out if no entry could be found */
 539:c:/Users/Black_Life/STM32Cube/Repository/STM32Cube_FW_F4_V1.26.2/Middlewares/Third_Party/LwIP/src/core/ipv4\etharp.c ****   if (i < 0) {
 540:c:/Users/Black_Life/STM32Cube/Repository/STM32Cube_FW_F4_V1.26.2/Middlewares/Third_Party/LwIP/src/core/ipv4\etharp.c ****     return (err_t)i;
 541:c:/Users/Black_Life/STM32Cube/Repository/STM32Cube_FW_F4_V1.26.2/Middlewares/Third_Party/LwIP/src/core/ipv4\etharp.c ****   }
 542:c:/Users/Black_Life/STM32Cube/Repository/STM32Cube_FW_F4_V1.26.2/Middlewares/Third_Party/LwIP/src/core/ipv4\etharp.c **** 
 543:c:/Users/Black_Life/STM32Cube/Repository/STM32Cube_FW_F4_V1.26.2/Middlewares/Third_Party/LwIP/src/core/ipv4\etharp.c ****   if (arp_table[i].state != ETHARP_STATE_STATIC) {
 544:c:/Users/Black_Life/STM32Cube/Repository/STM32Cube_FW_F4_V1.26.2/Middlewares/Third_Party/LwIP/src/core/ipv4\etharp.c ****     /* entry wasn't a static entry, cannot remove it */
 545:c:/Users/Black_Life/STM32Cube/Repository/STM32Cube_FW_F4_V1.26.2/Middlewares/Third_Party/LwIP/src/core/ipv4\etharp.c ****     return ERR_ARG;
 546:c:/Users/Black_Life/STM32Cube/Repository/STM32Cube_FW_F4_V1.26.2/Middlewares/Third_Party/LwIP/src/core/ipv4\etharp.c ****   }
 547:c:/Users/Black_Life/STM32Cube/Repository/STM32Cube_FW_F4_V1.26.2/Middlewares/Third_Party/LwIP/src/core/ipv4\etharp.c ****   /* entry found, free it */
 548:c:/Users/Black_Life/STM32Cube/Repository/STM32Cube_FW_F4_V1.26.2/Middlewares/Third_Party/LwIP/src/core/ipv4\etharp.c ****   etharp_free_entry(i);
 549:c:/Users/Black_Life/STM32Cube/Repository/STM32Cube_FW_F4_V1.26.2/Middlewares/Third_Party/LwIP/src/core/ipv4\etharp.c ****   return ERR_OK;
 550:c:/Users/Black_Life/STM32Cube/Repository/STM32Cube_FW_F4_V1.26.2/Middlewares/Third_Party/LwIP/src/core/ipv4\etharp.c **** }
 551:c:/Users/Black_Life/STM32Cube/Repository/STM32Cube_FW_F4_V1.26.2/Middlewares/Third_Party/LwIP/src/core/ipv4\etharp.c **** #endif /* ETHARP_SUPPORT_STATIC_ENTRIES */
 552:c:/Users/Black_Life/STM32Cube/Repository/STM32Cube_FW_F4_V1.26.2/Middlewares/Third_Party/LwIP/src/core/ipv4\etharp.c **** 
 553:c:/Users/Black_Life/STM32Cube/Repository/STM32Cube_FW_F4_V1.26.2/Middlewares/Third_Party/LwIP/src/core/ipv4\etharp.c **** /**
 554:c:/Users/Black_Life/STM32Cube/Repository/STM32Cube_FW_F4_V1.26.2/Middlewares/Third_Party/LwIP/src/core/ipv4\etharp.c ****  * Remove all ARP table entries of the specified netif.
 555:c:/Users/Black_Life/STM32Cube/Repository/STM32Cube_FW_F4_V1.26.2/Middlewares/Third_Party/LwIP/src/core/ipv4\etharp.c ****  *
 556:c:/Users/Black_Life/STM32Cube/Repository/STM32Cube_FW_F4_V1.26.2/Middlewares/Third_Party/LwIP/src/core/ipv4\etharp.c ****  * @param netif points to a network interface
 557:c:/Users/Black_Life/STM32Cube/Repository/STM32Cube_FW_F4_V1.26.2/Middlewares/Third_Party/LwIP/src/core/ipv4\etharp.c ****  */
 558:c:/Users/Black_Life/STM32Cube/Repository/STM32Cube_FW_F4_V1.26.2/Middlewares/Third_Party/LwIP/src/core/ipv4\etharp.c **** void
 559:c:/Users/Black_Life/STM32Cube/Repository/STM32Cube_FW_F4_V1.26.2/Middlewares/Third_Party/LwIP/src/core/ipv4\etharp.c **** etharp_cleanup_netif(struct netif *netif)
 560:c:/Users/Black_Life/STM32Cube/Repository/STM32Cube_FW_F4_V1.26.2/Middlewares/Third_Party/LwIP/src/core/ipv4\etharp.c **** {
 561:c:/Users/Black_Life/STM32Cube/Repository/STM32Cube_FW_F4_V1.26.2/Middlewares/Third_Party/LwIP/src/core/ipv4\etharp.c ****   int i;
 562:c:/Users/Black_Life/STM32Cube/Repository/STM32Cube_FW_F4_V1.26.2/Middlewares/Third_Party/LwIP/src/core/ipv4\etharp.c **** 
 563:c:/Users/Black_Life/STM32Cube/Repository/STM32Cube_FW_F4_V1.26.2/Middlewares/Third_Party/LwIP/src/core/ipv4\etharp.c ****   for (i = 0; i < ARP_TABLE_SIZE; ++i) {
 564:c:/Users/Black_Life/STM32Cube/Repository/STM32Cube_FW_F4_V1.26.2/Middlewares/Third_Party/LwIP/src/core/ipv4\etharp.c ****     u8_t state = arp_table[i].state;
 565:c:/Users/Black_Life/STM32Cube/Repository/STM32Cube_FW_F4_V1.26.2/Middlewares/Third_Party/LwIP/src/core/ipv4\etharp.c ****     if ((state != ETHARP_STATE_EMPTY) && (arp_table[i].netif == netif)) {
 566:c:/Users/Black_Life/STM32Cube/Repository/STM32Cube_FW_F4_V1.26.2/Middlewares/Third_Party/LwIP/src/core/ipv4\etharp.c ****       etharp_free_entry(i);
 567:c:/Users/Black_Life/STM32Cube/Repository/STM32Cube_FW_F4_V1.26.2/Middlewares/Third_Party/LwIP/src/core/ipv4\etharp.c ****     }
 568:c:/Users/Black_Life/STM32Cube/Repository/STM32Cube_FW_F4_V1.26.2/Middlewares/Third_Party/LwIP/src/core/ipv4\etharp.c ****   }
 569:c:/Users/Black_Life/STM32Cube/Repository/STM32Cube_FW_F4_V1.26.2/Middlewares/Third_Party/LwIP/src/core/ipv4\etharp.c **** }
 570:c:/Users/Black_Life/STM32Cube/Repository/STM32Cube_FW_F4_V1.26.2/Middlewares/Third_Party/LwIP/src/core/ipv4\etharp.c **** 
 571:c:/Users/Black_Life/STM32Cube/Repository/STM32Cube_FW_F4_V1.26.2/Middlewares/Third_Party/LwIP/src/core/ipv4\etharp.c **** /**
 572:c:/Users/Black_Life/STM32Cube/Repository/STM32Cube_FW_F4_V1.26.2/Middlewares/Third_Party/LwIP/src/core/ipv4\etharp.c ****  * Finds (stable) ethernet/IP address pair from ARP table
 573:c:/Users/Black_Life/STM32Cube/Repository/STM32Cube_FW_F4_V1.26.2/Middlewares/Third_Party/LwIP/src/core/ipv4\etharp.c ****  * using interface and IP address index.
 574:c:/Users/Black_Life/STM32Cube/Repository/STM32Cube_FW_F4_V1.26.2/Middlewares/Third_Party/LwIP/src/core/ipv4\etharp.c ****  * @note the addresses in the ARP table are in network order!
 575:c:/Users/Black_Life/STM32Cube/Repository/STM32Cube_FW_F4_V1.26.2/Middlewares/Third_Party/LwIP/src/core/ipv4\etharp.c ****  *
 576:c:/Users/Black_Life/STM32Cube/Repository/STM32Cube_FW_F4_V1.26.2/Middlewares/Third_Party/LwIP/src/core/ipv4\etharp.c ****  * @param netif points to interface index
 577:c:/Users/Black_Life/STM32Cube/Repository/STM32Cube_FW_F4_V1.26.2/Middlewares/Third_Party/LwIP/src/core/ipv4\etharp.c ****  * @param ipaddr points to the (network order) IP address index
ARM GAS  C:\Users\BLACK_~1\AppData\Local\Temp\ccrhXwwe.s 			page 26


 578:c:/Users/Black_Life/STM32Cube/Repository/STM32Cube_FW_F4_V1.26.2/Middlewares/Third_Party/LwIP/src/core/ipv4\etharp.c ****  * @param eth_ret points to return pointer
 579:c:/Users/Black_Life/STM32Cube/Repository/STM32Cube_FW_F4_V1.26.2/Middlewares/Third_Party/LwIP/src/core/ipv4\etharp.c ****  * @param ip_ret points to return pointer
 580:c:/Users/Black_Life/STM32Cube/Repository/STM32Cube_FW_F4_V1.26.2/Middlewares/Third_Party/LwIP/src/core/ipv4\etharp.c ****  * @return table index if found, -1 otherwise
 581:c:/Users/Black_Life/STM32Cube/Repository/STM32Cube_FW_F4_V1.26.2/Middlewares/Third_Party/LwIP/src/core/ipv4\etharp.c ****  */
 582:c:/Users/Black_Life/STM32Cube/Repository/STM32Cube_FW_F4_V1.26.2/Middlewares/Third_Party/LwIP/src/core/ipv4\etharp.c **** ssize_t
 583:c:/Users/Black_Life/STM32Cube/Repository/STM32Cube_FW_F4_V1.26.2/Middlewares/Third_Party/LwIP/src/core/ipv4\etharp.c **** etharp_find_addr(struct netif *netif, const ip4_addr_t *ipaddr,
 584:c:/Users/Black_Life/STM32Cube/Repository/STM32Cube_FW_F4_V1.26.2/Middlewares/Third_Party/LwIP/src/core/ipv4\etharp.c ****                  struct eth_addr **eth_ret, const ip4_addr_t **ip_ret)
 585:c:/Users/Black_Life/STM32Cube/Repository/STM32Cube_FW_F4_V1.26.2/Middlewares/Third_Party/LwIP/src/core/ipv4\etharp.c **** {
 586:c:/Users/Black_Life/STM32Cube/Repository/STM32Cube_FW_F4_V1.26.2/Middlewares/Third_Party/LwIP/src/core/ipv4\etharp.c ****   s16_t i;
 587:c:/Users/Black_Life/STM32Cube/Repository/STM32Cube_FW_F4_V1.26.2/Middlewares/Third_Party/LwIP/src/core/ipv4\etharp.c **** 
 588:c:/Users/Black_Life/STM32Cube/Repository/STM32Cube_FW_F4_V1.26.2/Middlewares/Third_Party/LwIP/src/core/ipv4\etharp.c ****   LWIP_ASSERT("eth_ret != NULL && ip_ret != NULL",
 589:c:/Users/Black_Life/STM32Cube/Repository/STM32Cube_FW_F4_V1.26.2/Middlewares/Third_Party/LwIP/src/core/ipv4\etharp.c ****               eth_ret != NULL && ip_ret != NULL);
 590:c:/Users/Black_Life/STM32Cube/Repository/STM32Cube_FW_F4_V1.26.2/Middlewares/Third_Party/LwIP/src/core/ipv4\etharp.c **** 
 591:c:/Users/Black_Life/STM32Cube/Repository/STM32Cube_FW_F4_V1.26.2/Middlewares/Third_Party/LwIP/src/core/ipv4\etharp.c ****   LWIP_UNUSED_ARG(netif);
 592:c:/Users/Black_Life/STM32Cube/Repository/STM32Cube_FW_F4_V1.26.2/Middlewares/Third_Party/LwIP/src/core/ipv4\etharp.c **** 
 593:c:/Users/Black_Life/STM32Cube/Repository/STM32Cube_FW_F4_V1.26.2/Middlewares/Third_Party/LwIP/src/core/ipv4\etharp.c ****   i = etharp_find_entry(ipaddr, ETHARP_FLAG_FIND_ONLY, netif);
 594:c:/Users/Black_Life/STM32Cube/Repository/STM32Cube_FW_F4_V1.26.2/Middlewares/Third_Party/LwIP/src/core/ipv4\etharp.c ****   if ((i >= 0) && (arp_table[i].state >= ETHARP_STATE_STABLE)) {
 595:c:/Users/Black_Life/STM32Cube/Repository/STM32Cube_FW_F4_V1.26.2/Middlewares/Third_Party/LwIP/src/core/ipv4\etharp.c ****     *eth_ret = &arp_table[i].ethaddr;
 596:c:/Users/Black_Life/STM32Cube/Repository/STM32Cube_FW_F4_V1.26.2/Middlewares/Third_Party/LwIP/src/core/ipv4\etharp.c ****     *ip_ret = &arp_table[i].ipaddr;
 597:c:/Users/Black_Life/STM32Cube/Repository/STM32Cube_FW_F4_V1.26.2/Middlewares/Third_Party/LwIP/src/core/ipv4\etharp.c ****     return i;
 598:c:/Users/Black_Life/STM32Cube/Repository/STM32Cube_FW_F4_V1.26.2/Middlewares/Third_Party/LwIP/src/core/ipv4\etharp.c ****   }
 599:c:/Users/Black_Life/STM32Cube/Repository/STM32Cube_FW_F4_V1.26.2/Middlewares/Third_Party/LwIP/src/core/ipv4\etharp.c ****   return -1;
 600:c:/Users/Black_Life/STM32Cube/Repository/STM32Cube_FW_F4_V1.26.2/Middlewares/Third_Party/LwIP/src/core/ipv4\etharp.c **** }
 601:c:/Users/Black_Life/STM32Cube/Repository/STM32Cube_FW_F4_V1.26.2/Middlewares/Third_Party/LwIP/src/core/ipv4\etharp.c **** 
 602:c:/Users/Black_Life/STM32Cube/Repository/STM32Cube_FW_F4_V1.26.2/Middlewares/Third_Party/LwIP/src/core/ipv4\etharp.c **** /**
 603:c:/Users/Black_Life/STM32Cube/Repository/STM32Cube_FW_F4_V1.26.2/Middlewares/Third_Party/LwIP/src/core/ipv4\etharp.c ****  * Possibility to iterate over stable ARP table entries
 604:c:/Users/Black_Life/STM32Cube/Repository/STM32Cube_FW_F4_V1.26.2/Middlewares/Third_Party/LwIP/src/core/ipv4\etharp.c ****  *
 605:c:/Users/Black_Life/STM32Cube/Repository/STM32Cube_FW_F4_V1.26.2/Middlewares/Third_Party/LwIP/src/core/ipv4\etharp.c ****  * @param i entry number, 0 to ARP_TABLE_SIZE
 606:c:/Users/Black_Life/STM32Cube/Repository/STM32Cube_FW_F4_V1.26.2/Middlewares/Third_Party/LwIP/src/core/ipv4\etharp.c ****  * @param ipaddr return value: IP address
 607:c:/Users/Black_Life/STM32Cube/Repository/STM32Cube_FW_F4_V1.26.2/Middlewares/Third_Party/LwIP/src/core/ipv4\etharp.c ****  * @param netif return value: points to interface
 608:c:/Users/Black_Life/STM32Cube/Repository/STM32Cube_FW_F4_V1.26.2/Middlewares/Third_Party/LwIP/src/core/ipv4\etharp.c ****  * @param eth_ret return value: ETH address
 609:c:/Users/Black_Life/STM32Cube/Repository/STM32Cube_FW_F4_V1.26.2/Middlewares/Third_Party/LwIP/src/core/ipv4\etharp.c ****  * @return 1 on valid index, 0 otherwise
 610:c:/Users/Black_Life/STM32Cube/Repository/STM32Cube_FW_F4_V1.26.2/Middlewares/Third_Party/LwIP/src/core/ipv4\etharp.c ****  */
 611:c:/Users/Black_Life/STM32Cube/Repository/STM32Cube_FW_F4_V1.26.2/Middlewares/Third_Party/LwIP/src/core/ipv4\etharp.c **** int
 612:c:/Users/Black_Life/STM32Cube/Repository/STM32Cube_FW_F4_V1.26.2/Middlewares/Third_Party/LwIP/src/core/ipv4\etharp.c **** etharp_get_entry(size_t i, ip4_addr_t **ipaddr, struct netif **netif, struct eth_addr **eth_ret)
 613:c:/Users/Black_Life/STM32Cube/Repository/STM32Cube_FW_F4_V1.26.2/Middlewares/Third_Party/LwIP/src/core/ipv4\etharp.c **** {
 614:c:/Users/Black_Life/STM32Cube/Repository/STM32Cube_FW_F4_V1.26.2/Middlewares/Third_Party/LwIP/src/core/ipv4\etharp.c ****   LWIP_ASSERT("ipaddr != NULL", ipaddr != NULL);
 615:c:/Users/Black_Life/STM32Cube/Repository/STM32Cube_FW_F4_V1.26.2/Middlewares/Third_Party/LwIP/src/core/ipv4\etharp.c ****   LWIP_ASSERT("netif != NULL", netif != NULL);
 616:c:/Users/Black_Life/STM32Cube/Repository/STM32Cube_FW_F4_V1.26.2/Middlewares/Third_Party/LwIP/src/core/ipv4\etharp.c ****   LWIP_ASSERT("eth_ret != NULL", eth_ret != NULL);
 617:c:/Users/Black_Life/STM32Cube/Repository/STM32Cube_FW_F4_V1.26.2/Middlewares/Third_Party/LwIP/src/core/ipv4\etharp.c **** 
 618:c:/Users/Black_Life/STM32Cube/Repository/STM32Cube_FW_F4_V1.26.2/Middlewares/Third_Party/LwIP/src/core/ipv4\etharp.c ****   if ((i < ARP_TABLE_SIZE) && (arp_table[i].state >= ETHARP_STATE_STABLE)) {
 619:c:/Users/Black_Life/STM32Cube/Repository/STM32Cube_FW_F4_V1.26.2/Middlewares/Third_Party/LwIP/src/core/ipv4\etharp.c ****     *ipaddr  = &arp_table[i].ipaddr;
 620:c:/Users/Black_Life/STM32Cube/Repository/STM32Cube_FW_F4_V1.26.2/Middlewares/Third_Party/LwIP/src/core/ipv4\etharp.c ****     *netif   = arp_table[i].netif;
 621:c:/Users/Black_Life/STM32Cube/Repository/STM32Cube_FW_F4_V1.26.2/Middlewares/Third_Party/LwIP/src/core/ipv4\etharp.c ****     *eth_ret = &arp_table[i].ethaddr;
 622:c:/Users/Black_Life/STM32Cube/Repository/STM32Cube_FW_F4_V1.26.2/Middlewares/Third_Party/LwIP/src/core/ipv4\etharp.c ****     return 1;
 623:c:/Users/Black_Life/STM32Cube/Repository/STM32Cube_FW_F4_V1.26.2/Middlewares/Third_Party/LwIP/src/core/ipv4\etharp.c ****   } else {
 624:c:/Users/Black_Life/STM32Cube/Repository/STM32Cube_FW_F4_V1.26.2/Middlewares/Third_Party/LwIP/src/core/ipv4\etharp.c ****     return 0;
 625:c:/Users/Black_Life/STM32Cube/Repository/STM32Cube_FW_F4_V1.26.2/Middlewares/Third_Party/LwIP/src/core/ipv4\etharp.c ****   }
 626:c:/Users/Black_Life/STM32Cube/Repository/STM32Cube_FW_F4_V1.26.2/Middlewares/Third_Party/LwIP/src/core/ipv4\etharp.c **** }
 627:c:/Users/Black_Life/STM32Cube/Repository/STM32Cube_FW_F4_V1.26.2/Middlewares/Third_Party/LwIP/src/core/ipv4\etharp.c **** 
 628:c:/Users/Black_Life/STM32Cube/Repository/STM32Cube_FW_F4_V1.26.2/Middlewares/Third_Party/LwIP/src/core/ipv4\etharp.c **** /**
 629:c:/Users/Black_Life/STM32Cube/Repository/STM32Cube_FW_F4_V1.26.2/Middlewares/Third_Party/LwIP/src/core/ipv4\etharp.c ****  * Responds to ARP requests to us. Upon ARP replies to us, add entry to cache
 630:c:/Users/Black_Life/STM32Cube/Repository/STM32Cube_FW_F4_V1.26.2/Middlewares/Third_Party/LwIP/src/core/ipv4\etharp.c ****  * send out queued IP packets. Updates cache with snooped address pairs.
 631:c:/Users/Black_Life/STM32Cube/Repository/STM32Cube_FW_F4_V1.26.2/Middlewares/Third_Party/LwIP/src/core/ipv4\etharp.c ****  *
 632:c:/Users/Black_Life/STM32Cube/Repository/STM32Cube_FW_F4_V1.26.2/Middlewares/Third_Party/LwIP/src/core/ipv4\etharp.c ****  * Should be called for incoming ARP packets. The pbuf in the argument
 633:c:/Users/Black_Life/STM32Cube/Repository/STM32Cube_FW_F4_V1.26.2/Middlewares/Third_Party/LwIP/src/core/ipv4\etharp.c ****  * is freed by this function.
 634:c:/Users/Black_Life/STM32Cube/Repository/STM32Cube_FW_F4_V1.26.2/Middlewares/Third_Party/LwIP/src/core/ipv4\etharp.c ****  *
ARM GAS  C:\Users\BLACK_~1\AppData\Local\Temp\ccrhXwwe.s 			page 27


 635:c:/Users/Black_Life/STM32Cube/Repository/STM32Cube_FW_F4_V1.26.2/Middlewares/Third_Party/LwIP/src/core/ipv4\etharp.c ****  * @param p The ARP packet that arrived on netif. Is freed by this function.
 636:c:/Users/Black_Life/STM32Cube/Repository/STM32Cube_FW_F4_V1.26.2/Middlewares/Third_Party/LwIP/src/core/ipv4\etharp.c ****  * @param netif The lwIP network interface on which the ARP packet pbuf arrived.
 637:c:/Users/Black_Life/STM32Cube/Repository/STM32Cube_FW_F4_V1.26.2/Middlewares/Third_Party/LwIP/src/core/ipv4\etharp.c ****  *
 638:c:/Users/Black_Life/STM32Cube/Repository/STM32Cube_FW_F4_V1.26.2/Middlewares/Third_Party/LwIP/src/core/ipv4\etharp.c ****  * @see pbuf_free()
 639:c:/Users/Black_Life/STM32Cube/Repository/STM32Cube_FW_F4_V1.26.2/Middlewares/Third_Party/LwIP/src/core/ipv4\etharp.c ****  */
 640:c:/Users/Black_Life/STM32Cube/Repository/STM32Cube_FW_F4_V1.26.2/Middlewares/Third_Party/LwIP/src/core/ipv4\etharp.c **** void
 641:c:/Users/Black_Life/STM32Cube/Repository/STM32Cube_FW_F4_V1.26.2/Middlewares/Third_Party/LwIP/src/core/ipv4\etharp.c **** etharp_input(struct pbuf *p, struct netif *netif)
 642:c:/Users/Black_Life/STM32Cube/Repository/STM32Cube_FW_F4_V1.26.2/Middlewares/Third_Party/LwIP/src/core/ipv4\etharp.c **** {
 643:c:/Users/Black_Life/STM32Cube/Repository/STM32Cube_FW_F4_V1.26.2/Middlewares/Third_Party/LwIP/src/core/ipv4\etharp.c ****   struct etharp_hdr *hdr;
 644:c:/Users/Black_Life/STM32Cube/Repository/STM32Cube_FW_F4_V1.26.2/Middlewares/Third_Party/LwIP/src/core/ipv4\etharp.c ****   /* these are aligned properly, whereas the ARP header fields might not be */
 645:c:/Users/Black_Life/STM32Cube/Repository/STM32Cube_FW_F4_V1.26.2/Middlewares/Third_Party/LwIP/src/core/ipv4\etharp.c ****   ip4_addr_t sipaddr, dipaddr;
 646:c:/Users/Black_Life/STM32Cube/Repository/STM32Cube_FW_F4_V1.26.2/Middlewares/Third_Party/LwIP/src/core/ipv4\etharp.c ****   u8_t for_us;
 647:c:/Users/Black_Life/STM32Cube/Repository/STM32Cube_FW_F4_V1.26.2/Middlewares/Third_Party/LwIP/src/core/ipv4\etharp.c **** 
 648:c:/Users/Black_Life/STM32Cube/Repository/STM32Cube_FW_F4_V1.26.2/Middlewares/Third_Party/LwIP/src/core/ipv4\etharp.c ****   LWIP_ASSERT_CORE_LOCKED();
 649:c:/Users/Black_Life/STM32Cube/Repository/STM32Cube_FW_F4_V1.26.2/Middlewares/Third_Party/LwIP/src/core/ipv4\etharp.c **** 
 650:c:/Users/Black_Life/STM32Cube/Repository/STM32Cube_FW_F4_V1.26.2/Middlewares/Third_Party/LwIP/src/core/ipv4\etharp.c ****   LWIP_ERROR("netif != NULL", (netif != NULL), return;);
 651:c:/Users/Black_Life/STM32Cube/Repository/STM32Cube_FW_F4_V1.26.2/Middlewares/Third_Party/LwIP/src/core/ipv4\etharp.c **** 
 652:c:/Users/Black_Life/STM32Cube/Repository/STM32Cube_FW_F4_V1.26.2/Middlewares/Third_Party/LwIP/src/core/ipv4\etharp.c ****   hdr = (struct etharp_hdr *)p->payload;
 653:c:/Users/Black_Life/STM32Cube/Repository/STM32Cube_FW_F4_V1.26.2/Middlewares/Third_Party/LwIP/src/core/ipv4\etharp.c **** 
 654:c:/Users/Black_Life/STM32Cube/Repository/STM32Cube_FW_F4_V1.26.2/Middlewares/Third_Party/LwIP/src/core/ipv4\etharp.c ****   /* RFC 826 "Packet Reception": */
 655:c:/Users/Black_Life/STM32Cube/Repository/STM32Cube_FW_F4_V1.26.2/Middlewares/Third_Party/LwIP/src/core/ipv4\etharp.c ****   if ((hdr->hwtype != PP_HTONS(LWIP_IANA_HWTYPE_ETHERNET)) ||
 656:c:/Users/Black_Life/STM32Cube/Repository/STM32Cube_FW_F4_V1.26.2/Middlewares/Third_Party/LwIP/src/core/ipv4\etharp.c ****       (hdr->hwlen != ETH_HWADDR_LEN) ||
 657:c:/Users/Black_Life/STM32Cube/Repository/STM32Cube_FW_F4_V1.26.2/Middlewares/Third_Party/LwIP/src/core/ipv4\etharp.c ****       (hdr->protolen != sizeof(ip4_addr_t)) ||
 658:c:/Users/Black_Life/STM32Cube/Repository/STM32Cube_FW_F4_V1.26.2/Middlewares/Third_Party/LwIP/src/core/ipv4\etharp.c ****       (hdr->proto != PP_HTONS(ETHTYPE_IP)))  {
 659:c:/Users/Black_Life/STM32Cube/Repository/STM32Cube_FW_F4_V1.26.2/Middlewares/Third_Party/LwIP/src/core/ipv4\etharp.c ****     LWIP_DEBUGF(ETHARP_DEBUG | LWIP_DBG_TRACE | LWIP_DBG_LEVEL_WARNING,
 660:c:/Users/Black_Life/STM32Cube/Repository/STM32Cube_FW_F4_V1.26.2/Middlewares/Third_Party/LwIP/src/core/ipv4\etharp.c ****                 ("etharp_input: packet dropped, wrong hw type, hwlen, proto, protolen or ethernet t
 661:c:/Users/Black_Life/STM32Cube/Repository/STM32Cube_FW_F4_V1.26.2/Middlewares/Third_Party/LwIP/src/core/ipv4\etharp.c ****                  hdr->hwtype, (u16_t)hdr->hwlen, hdr->proto, (u16_t)hdr->protolen));
 662:c:/Users/Black_Life/STM32Cube/Repository/STM32Cube_FW_F4_V1.26.2/Middlewares/Third_Party/LwIP/src/core/ipv4\etharp.c ****     ETHARP_STATS_INC(etharp.proterr);
 663:c:/Users/Black_Life/STM32Cube/Repository/STM32Cube_FW_F4_V1.26.2/Middlewares/Third_Party/LwIP/src/core/ipv4\etharp.c ****     ETHARP_STATS_INC(etharp.drop);
 664:c:/Users/Black_Life/STM32Cube/Repository/STM32Cube_FW_F4_V1.26.2/Middlewares/Third_Party/LwIP/src/core/ipv4\etharp.c ****     pbuf_free(p);
 665:c:/Users/Black_Life/STM32Cube/Repository/STM32Cube_FW_F4_V1.26.2/Middlewares/Third_Party/LwIP/src/core/ipv4\etharp.c ****     return;
 666:c:/Users/Black_Life/STM32Cube/Repository/STM32Cube_FW_F4_V1.26.2/Middlewares/Third_Party/LwIP/src/core/ipv4\etharp.c ****   }
 667:c:/Users/Black_Life/STM32Cube/Repository/STM32Cube_FW_F4_V1.26.2/Middlewares/Third_Party/LwIP/src/core/ipv4\etharp.c ****   ETHARP_STATS_INC(etharp.recv);
 668:c:/Users/Black_Life/STM32Cube/Repository/STM32Cube_FW_F4_V1.26.2/Middlewares/Third_Party/LwIP/src/core/ipv4\etharp.c **** 
 669:c:/Users/Black_Life/STM32Cube/Repository/STM32Cube_FW_F4_V1.26.2/Middlewares/Third_Party/LwIP/src/core/ipv4\etharp.c **** #if LWIP_AUTOIP
 670:c:/Users/Black_Life/STM32Cube/Repository/STM32Cube_FW_F4_V1.26.2/Middlewares/Third_Party/LwIP/src/core/ipv4\etharp.c ****   /* We have to check if a host already has configured our random
 671:c:/Users/Black_Life/STM32Cube/Repository/STM32Cube_FW_F4_V1.26.2/Middlewares/Third_Party/LwIP/src/core/ipv4\etharp.c ****    * created link local address and continuously check if there is
 672:c:/Users/Black_Life/STM32Cube/Repository/STM32Cube_FW_F4_V1.26.2/Middlewares/Third_Party/LwIP/src/core/ipv4\etharp.c ****    * a host with this IP-address so we can detect collisions */
 673:c:/Users/Black_Life/STM32Cube/Repository/STM32Cube_FW_F4_V1.26.2/Middlewares/Third_Party/LwIP/src/core/ipv4\etharp.c ****   autoip_arp_reply(netif, hdr);
 674:c:/Users/Black_Life/STM32Cube/Repository/STM32Cube_FW_F4_V1.26.2/Middlewares/Third_Party/LwIP/src/core/ipv4\etharp.c **** #endif /* LWIP_AUTOIP */
 675:c:/Users/Black_Life/STM32Cube/Repository/STM32Cube_FW_F4_V1.26.2/Middlewares/Third_Party/LwIP/src/core/ipv4\etharp.c **** 
 676:c:/Users/Black_Life/STM32Cube/Repository/STM32Cube_FW_F4_V1.26.2/Middlewares/Third_Party/LwIP/src/core/ipv4\etharp.c ****   /* Copy struct ip4_addr_wordaligned to aligned ip4_addr, to support compilers without
 677:c:/Users/Black_Life/STM32Cube/Repository/STM32Cube_FW_F4_V1.26.2/Middlewares/Third_Party/LwIP/src/core/ipv4\etharp.c ****    * structure packing (not using structure copy which breaks strict-aliasing rules). */
 678:c:/Users/Black_Life/STM32Cube/Repository/STM32Cube_FW_F4_V1.26.2/Middlewares/Third_Party/LwIP/src/core/ipv4\etharp.c ****   IPADDR_WORDALIGNED_COPY_TO_IP4_ADDR_T(&sipaddr, &hdr->sipaddr);
 679:c:/Users/Black_Life/STM32Cube/Repository/STM32Cube_FW_F4_V1.26.2/Middlewares/Third_Party/LwIP/src/core/ipv4\etharp.c ****   IPADDR_WORDALIGNED_COPY_TO_IP4_ADDR_T(&dipaddr, &hdr->dipaddr);
 680:c:/Users/Black_Life/STM32Cube/Repository/STM32Cube_FW_F4_V1.26.2/Middlewares/Third_Party/LwIP/src/core/ipv4\etharp.c **** 
 681:c:/Users/Black_Life/STM32Cube/Repository/STM32Cube_FW_F4_V1.26.2/Middlewares/Third_Party/LwIP/src/core/ipv4\etharp.c ****   /* this interface is not configured? */
 682:c:/Users/Black_Life/STM32Cube/Repository/STM32Cube_FW_F4_V1.26.2/Middlewares/Third_Party/LwIP/src/core/ipv4\etharp.c ****   if (ip4_addr_isany_val(*netif_ip4_addr(netif))) {
 683:c:/Users/Black_Life/STM32Cube/Repository/STM32Cube_FW_F4_V1.26.2/Middlewares/Third_Party/LwIP/src/core/ipv4\etharp.c ****     for_us = 0;
 684:c:/Users/Black_Life/STM32Cube/Repository/STM32Cube_FW_F4_V1.26.2/Middlewares/Third_Party/LwIP/src/core/ipv4\etharp.c ****   } else {
 685:c:/Users/Black_Life/STM32Cube/Repository/STM32Cube_FW_F4_V1.26.2/Middlewares/Third_Party/LwIP/src/core/ipv4\etharp.c ****     /* ARP packet directed to us? */
 686:c:/Users/Black_Life/STM32Cube/Repository/STM32Cube_FW_F4_V1.26.2/Middlewares/Third_Party/LwIP/src/core/ipv4\etharp.c ****     for_us = (u8_t)ip4_addr_cmp(&dipaddr, netif_ip4_addr(netif));
 687:c:/Users/Black_Life/STM32Cube/Repository/STM32Cube_FW_F4_V1.26.2/Middlewares/Third_Party/LwIP/src/core/ipv4\etharp.c ****   }
 688:c:/Users/Black_Life/STM32Cube/Repository/STM32Cube_FW_F4_V1.26.2/Middlewares/Third_Party/LwIP/src/core/ipv4\etharp.c **** 
 689:c:/Users/Black_Life/STM32Cube/Repository/STM32Cube_FW_F4_V1.26.2/Middlewares/Third_Party/LwIP/src/core/ipv4\etharp.c ****   /* ARP message directed to us?
 690:c:/Users/Black_Life/STM32Cube/Repository/STM32Cube_FW_F4_V1.26.2/Middlewares/Third_Party/LwIP/src/core/ipv4\etharp.c ****       -> add IP address in ARP cache; assume requester wants to talk to us,
 691:c:/Users/Black_Life/STM32Cube/Repository/STM32Cube_FW_F4_V1.26.2/Middlewares/Third_Party/LwIP/src/core/ipv4\etharp.c ****          can result in directly sending the queued packets for this host.
ARM GAS  C:\Users\BLACK_~1\AppData\Local\Temp\ccrhXwwe.s 			page 28


 692:c:/Users/Black_Life/STM32Cube/Repository/STM32Cube_FW_F4_V1.26.2/Middlewares/Third_Party/LwIP/src/core/ipv4\etharp.c ****      ARP message not directed to us?
 693:c:/Users/Black_Life/STM32Cube/Repository/STM32Cube_FW_F4_V1.26.2/Middlewares/Third_Party/LwIP/src/core/ipv4\etharp.c ****       ->  update the source IP address in the cache, if present */
 694:c:/Users/Black_Life/STM32Cube/Repository/STM32Cube_FW_F4_V1.26.2/Middlewares/Third_Party/LwIP/src/core/ipv4\etharp.c ****   etharp_update_arp_entry(netif, &sipaddr, &(hdr->shwaddr),
 695:c:/Users/Black_Life/STM32Cube/Repository/STM32Cube_FW_F4_V1.26.2/Middlewares/Third_Party/LwIP/src/core/ipv4\etharp.c ****                           for_us ? ETHARP_FLAG_TRY_HARD : ETHARP_FLAG_FIND_ONLY);
 696:c:/Users/Black_Life/STM32Cube/Repository/STM32Cube_FW_F4_V1.26.2/Middlewares/Third_Party/LwIP/src/core/ipv4\etharp.c **** 
 697:c:/Users/Black_Life/STM32Cube/Repository/STM32Cube_FW_F4_V1.26.2/Middlewares/Third_Party/LwIP/src/core/ipv4\etharp.c ****   /* now act on the message itself */
 698:c:/Users/Black_Life/STM32Cube/Repository/STM32Cube_FW_F4_V1.26.2/Middlewares/Third_Party/LwIP/src/core/ipv4\etharp.c ****   switch (hdr->opcode) {
 699:c:/Users/Black_Life/STM32Cube/Repository/STM32Cube_FW_F4_V1.26.2/Middlewares/Third_Party/LwIP/src/core/ipv4\etharp.c ****     /* ARP request? */
 700:c:/Users/Black_Life/STM32Cube/Repository/STM32Cube_FW_F4_V1.26.2/Middlewares/Third_Party/LwIP/src/core/ipv4\etharp.c ****     case PP_HTONS(ARP_REQUEST):
 701:c:/Users/Black_Life/STM32Cube/Repository/STM32Cube_FW_F4_V1.26.2/Middlewares/Third_Party/LwIP/src/core/ipv4\etharp.c ****       /* ARP request. If it asked for our address, we send out a
 702:c:/Users/Black_Life/STM32Cube/Repository/STM32Cube_FW_F4_V1.26.2/Middlewares/Third_Party/LwIP/src/core/ipv4\etharp.c ****        * reply. In any case, we time-stamp any existing ARP entry,
 703:c:/Users/Black_Life/STM32Cube/Repository/STM32Cube_FW_F4_V1.26.2/Middlewares/Third_Party/LwIP/src/core/ipv4\etharp.c ****        * and possibly send out an IP packet that was queued on it. */
 704:c:/Users/Black_Life/STM32Cube/Repository/STM32Cube_FW_F4_V1.26.2/Middlewares/Third_Party/LwIP/src/core/ipv4\etharp.c **** 
 705:c:/Users/Black_Life/STM32Cube/Repository/STM32Cube_FW_F4_V1.26.2/Middlewares/Third_Party/LwIP/src/core/ipv4\etharp.c ****       LWIP_DEBUGF (ETHARP_DEBUG | LWIP_DBG_TRACE, ("etharp_input: incoming ARP request\n"));
 706:c:/Users/Black_Life/STM32Cube/Repository/STM32Cube_FW_F4_V1.26.2/Middlewares/Third_Party/LwIP/src/core/ipv4\etharp.c ****       /* ARP request for our address? */
 707:c:/Users/Black_Life/STM32Cube/Repository/STM32Cube_FW_F4_V1.26.2/Middlewares/Third_Party/LwIP/src/core/ipv4\etharp.c ****       if (for_us) {
 708:c:/Users/Black_Life/STM32Cube/Repository/STM32Cube_FW_F4_V1.26.2/Middlewares/Third_Party/LwIP/src/core/ipv4\etharp.c ****         /* send ARP response */
 709:c:/Users/Black_Life/STM32Cube/Repository/STM32Cube_FW_F4_V1.26.2/Middlewares/Third_Party/LwIP/src/core/ipv4\etharp.c ****         etharp_raw(netif,
 710:c:/Users/Black_Life/STM32Cube/Repository/STM32Cube_FW_F4_V1.26.2/Middlewares/Third_Party/LwIP/src/core/ipv4\etharp.c ****                    (struct eth_addr *)netif->hwaddr, &hdr->shwaddr,
 711:c:/Users/Black_Life/STM32Cube/Repository/STM32Cube_FW_F4_V1.26.2/Middlewares/Third_Party/LwIP/src/core/ipv4\etharp.c ****                    (struct eth_addr *)netif->hwaddr, netif_ip4_addr(netif),
 712:c:/Users/Black_Life/STM32Cube/Repository/STM32Cube_FW_F4_V1.26.2/Middlewares/Third_Party/LwIP/src/core/ipv4\etharp.c ****                    &hdr->shwaddr, &sipaddr,
 713:c:/Users/Black_Life/STM32Cube/Repository/STM32Cube_FW_F4_V1.26.2/Middlewares/Third_Party/LwIP/src/core/ipv4\etharp.c ****                    ARP_REPLY);
 714:c:/Users/Black_Life/STM32Cube/Repository/STM32Cube_FW_F4_V1.26.2/Middlewares/Third_Party/LwIP/src/core/ipv4\etharp.c ****         /* we are not configured? */
 715:c:/Users/Black_Life/STM32Cube/Repository/STM32Cube_FW_F4_V1.26.2/Middlewares/Third_Party/LwIP/src/core/ipv4\etharp.c ****       } else if (ip4_addr_isany_val(*netif_ip4_addr(netif))) {
 716:c:/Users/Black_Life/STM32Cube/Repository/STM32Cube_FW_F4_V1.26.2/Middlewares/Third_Party/LwIP/src/core/ipv4\etharp.c ****         /* { for_us == 0 and netif->ip_addr.addr == 0 } */
 717:c:/Users/Black_Life/STM32Cube/Repository/STM32Cube_FW_F4_V1.26.2/Middlewares/Third_Party/LwIP/src/core/ipv4\etharp.c ****         LWIP_DEBUGF(ETHARP_DEBUG | LWIP_DBG_TRACE, ("etharp_input: we are unconfigured, ARP request
 718:c:/Users/Black_Life/STM32Cube/Repository/STM32Cube_FW_F4_V1.26.2/Middlewares/Third_Party/LwIP/src/core/ipv4\etharp.c ****         /* request was not directed to us */
 719:c:/Users/Black_Life/STM32Cube/Repository/STM32Cube_FW_F4_V1.26.2/Middlewares/Third_Party/LwIP/src/core/ipv4\etharp.c ****       } else {
 720:c:/Users/Black_Life/STM32Cube/Repository/STM32Cube_FW_F4_V1.26.2/Middlewares/Third_Party/LwIP/src/core/ipv4\etharp.c ****         /* { for_us == 0 and netif->ip_addr.addr != 0 } */
 721:c:/Users/Black_Life/STM32Cube/Repository/STM32Cube_FW_F4_V1.26.2/Middlewares/Third_Party/LwIP/src/core/ipv4\etharp.c ****         LWIP_DEBUGF(ETHARP_DEBUG | LWIP_DBG_TRACE, ("etharp_input: ARP request was not for us.\n"))
 722:c:/Users/Black_Life/STM32Cube/Repository/STM32Cube_FW_F4_V1.26.2/Middlewares/Third_Party/LwIP/src/core/ipv4\etharp.c ****       }
 723:c:/Users/Black_Life/STM32Cube/Repository/STM32Cube_FW_F4_V1.26.2/Middlewares/Third_Party/LwIP/src/core/ipv4\etharp.c ****       break;
 724:c:/Users/Black_Life/STM32Cube/Repository/STM32Cube_FW_F4_V1.26.2/Middlewares/Third_Party/LwIP/src/core/ipv4\etharp.c ****     case PP_HTONS(ARP_REPLY):
 725:c:/Users/Black_Life/STM32Cube/Repository/STM32Cube_FW_F4_V1.26.2/Middlewares/Third_Party/LwIP/src/core/ipv4\etharp.c ****       /* ARP reply. We already updated the ARP cache earlier. */
 726:c:/Users/Black_Life/STM32Cube/Repository/STM32Cube_FW_F4_V1.26.2/Middlewares/Third_Party/LwIP/src/core/ipv4\etharp.c ****       LWIP_DEBUGF(ETHARP_DEBUG | LWIP_DBG_TRACE, ("etharp_input: incoming ARP reply\n"));
 727:c:/Users/Black_Life/STM32Cube/Repository/STM32Cube_FW_F4_V1.26.2/Middlewares/Third_Party/LwIP/src/core/ipv4\etharp.c **** #if (LWIP_DHCP && DHCP_DOES_ARP_CHECK)
 728:c:/Users/Black_Life/STM32Cube/Repository/STM32Cube_FW_F4_V1.26.2/Middlewares/Third_Party/LwIP/src/core/ipv4\etharp.c ****       /* DHCP wants to know about ARP replies from any host with an
 729:c:/Users/Black_Life/STM32Cube/Repository/STM32Cube_FW_F4_V1.26.2/Middlewares/Third_Party/LwIP/src/core/ipv4\etharp.c ****        * IP address also offered to us by the DHCP server. We do not
 730:c:/Users/Black_Life/STM32Cube/Repository/STM32Cube_FW_F4_V1.26.2/Middlewares/Third_Party/LwIP/src/core/ipv4\etharp.c ****        * want to take a duplicate IP address on a single network.
 731:c:/Users/Black_Life/STM32Cube/Repository/STM32Cube_FW_F4_V1.26.2/Middlewares/Third_Party/LwIP/src/core/ipv4\etharp.c ****        * @todo How should we handle redundant (fail-over) interfaces? */
 732:c:/Users/Black_Life/STM32Cube/Repository/STM32Cube_FW_F4_V1.26.2/Middlewares/Third_Party/LwIP/src/core/ipv4\etharp.c ****       dhcp_arp_reply(netif, &sipaddr);
 733:c:/Users/Black_Life/STM32Cube/Repository/STM32Cube_FW_F4_V1.26.2/Middlewares/Third_Party/LwIP/src/core/ipv4\etharp.c **** #endif /* (LWIP_DHCP && DHCP_DOES_ARP_CHECK) */
 734:c:/Users/Black_Life/STM32Cube/Repository/STM32Cube_FW_F4_V1.26.2/Middlewares/Third_Party/LwIP/src/core/ipv4\etharp.c ****       break;
 735:c:/Users/Black_Life/STM32Cube/Repository/STM32Cube_FW_F4_V1.26.2/Middlewares/Third_Party/LwIP/src/core/ipv4\etharp.c ****     default:
 736:c:/Users/Black_Life/STM32Cube/Repository/STM32Cube_FW_F4_V1.26.2/Middlewares/Third_Party/LwIP/src/core/ipv4\etharp.c ****       LWIP_DEBUGF(ETHARP_DEBUG | LWIP_DBG_TRACE, ("etharp_input: ARP unknown opcode type %"S16_F"\n
 737:c:/Users/Black_Life/STM32Cube/Repository/STM32Cube_FW_F4_V1.26.2/Middlewares/Third_Party/LwIP/src/core/ipv4\etharp.c ****       ETHARP_STATS_INC(etharp.err);
 738:c:/Users/Black_Life/STM32Cube/Repository/STM32Cube_FW_F4_V1.26.2/Middlewares/Third_Party/LwIP/src/core/ipv4\etharp.c ****       break;
 739:c:/Users/Black_Life/STM32Cube/Repository/STM32Cube_FW_F4_V1.26.2/Middlewares/Third_Party/LwIP/src/core/ipv4\etharp.c ****   }
 740:c:/Users/Black_Life/STM32Cube/Repository/STM32Cube_FW_F4_V1.26.2/Middlewares/Third_Party/LwIP/src/core/ipv4\etharp.c ****   /* free ARP packet */
 741:c:/Users/Black_Life/STM32Cube/Repository/STM32Cube_FW_F4_V1.26.2/Middlewares/Third_Party/LwIP/src/core/ipv4\etharp.c ****   pbuf_free(p);
 742:c:/Users/Black_Life/STM32Cube/Repository/STM32Cube_FW_F4_V1.26.2/Middlewares/Third_Party/LwIP/src/core/ipv4\etharp.c **** }
 743:c:/Users/Black_Life/STM32Cube/Repository/STM32Cube_FW_F4_V1.26.2/Middlewares/Third_Party/LwIP/src/core/ipv4\etharp.c **** 
 744:c:/Users/Black_Life/STM32Cube/Repository/STM32Cube_FW_F4_V1.26.2/Middlewares/Third_Party/LwIP/src/core/ipv4\etharp.c **** /** Just a small helper function that sends a pbuf to an ethernet address
 745:c:/Users/Black_Life/STM32Cube/Repository/STM32Cube_FW_F4_V1.26.2/Middlewares/Third_Party/LwIP/src/core/ipv4\etharp.c ****  * in the arp_table specified by the index 'arp_idx'.
 746:c:/Users/Black_Life/STM32Cube/Repository/STM32Cube_FW_F4_V1.26.2/Middlewares/Third_Party/LwIP/src/core/ipv4\etharp.c ****  */
 747:c:/Users/Black_Life/STM32Cube/Repository/STM32Cube_FW_F4_V1.26.2/Middlewares/Third_Party/LwIP/src/core/ipv4\etharp.c **** static err_t
 748:c:/Users/Black_Life/STM32Cube/Repository/STM32Cube_FW_F4_V1.26.2/Middlewares/Third_Party/LwIP/src/core/ipv4\etharp.c **** etharp_output_to_arp_index(struct netif *netif, struct pbuf *q, netif_addr_idx_t arp_idx)
ARM GAS  C:\Users\BLACK_~1\AppData\Local\Temp\ccrhXwwe.s 			page 29


 749:c:/Users/Black_Life/STM32Cube/Repository/STM32Cube_FW_F4_V1.26.2/Middlewares/Third_Party/LwIP/src/core/ipv4\etharp.c **** {
 750:c:/Users/Black_Life/STM32Cube/Repository/STM32Cube_FW_F4_V1.26.2/Middlewares/Third_Party/LwIP/src/core/ipv4\etharp.c ****   LWIP_ASSERT("arp_table[arp_idx].state >= ETHARP_STATE_STABLE",
 751:c:/Users/Black_Life/STM32Cube/Repository/STM32Cube_FW_F4_V1.26.2/Middlewares/Third_Party/LwIP/src/core/ipv4\etharp.c ****               arp_table[arp_idx].state >= ETHARP_STATE_STABLE);
 752:c:/Users/Black_Life/STM32Cube/Repository/STM32Cube_FW_F4_V1.26.2/Middlewares/Third_Party/LwIP/src/core/ipv4\etharp.c ****   /* if arp table entry is about to expire: re-request it,
 753:c:/Users/Black_Life/STM32Cube/Repository/STM32Cube_FW_F4_V1.26.2/Middlewares/Third_Party/LwIP/src/core/ipv4\etharp.c ****      but only if its state is ETHARP_STATE_STABLE to prevent flooding the
 754:c:/Users/Black_Life/STM32Cube/Repository/STM32Cube_FW_F4_V1.26.2/Middlewares/Third_Party/LwIP/src/core/ipv4\etharp.c ****      network with ARP requests if this address is used frequently. */
 755:c:/Users/Black_Life/STM32Cube/Repository/STM32Cube_FW_F4_V1.26.2/Middlewares/Third_Party/LwIP/src/core/ipv4\etharp.c ****   if (arp_table[arp_idx].state == ETHARP_STATE_STABLE) {
 756:c:/Users/Black_Life/STM32Cube/Repository/STM32Cube_FW_F4_V1.26.2/Middlewares/Third_Party/LwIP/src/core/ipv4\etharp.c ****     if (arp_table[arp_idx].ctime >= ARP_AGE_REREQUEST_USED_BROADCAST) {
 757:c:/Users/Black_Life/STM32Cube/Repository/STM32Cube_FW_F4_V1.26.2/Middlewares/Third_Party/LwIP/src/core/ipv4\etharp.c ****       /* issue a standard request using broadcast */
 758:c:/Users/Black_Life/STM32Cube/Repository/STM32Cube_FW_F4_V1.26.2/Middlewares/Third_Party/LwIP/src/core/ipv4\etharp.c ****       if (etharp_request(netif, &arp_table[arp_idx].ipaddr) == ERR_OK) {
 759:c:/Users/Black_Life/STM32Cube/Repository/STM32Cube_FW_F4_V1.26.2/Middlewares/Third_Party/LwIP/src/core/ipv4\etharp.c ****         arp_table[arp_idx].state = ETHARP_STATE_STABLE_REREQUESTING_1;
 760:c:/Users/Black_Life/STM32Cube/Repository/STM32Cube_FW_F4_V1.26.2/Middlewares/Third_Party/LwIP/src/core/ipv4\etharp.c ****       }
 761:c:/Users/Black_Life/STM32Cube/Repository/STM32Cube_FW_F4_V1.26.2/Middlewares/Third_Party/LwIP/src/core/ipv4\etharp.c ****     } else if (arp_table[arp_idx].ctime >= ARP_AGE_REREQUEST_USED_UNICAST) {
 762:c:/Users/Black_Life/STM32Cube/Repository/STM32Cube_FW_F4_V1.26.2/Middlewares/Third_Party/LwIP/src/core/ipv4\etharp.c ****       /* issue a unicast request (for 15 seconds) to prevent unnecessary broadcast */
 763:c:/Users/Black_Life/STM32Cube/Repository/STM32Cube_FW_F4_V1.26.2/Middlewares/Third_Party/LwIP/src/core/ipv4\etharp.c ****       if (etharp_request_dst(netif, &arp_table[arp_idx].ipaddr, &arp_table[arp_idx].ethaddr) == ERR
 764:c:/Users/Black_Life/STM32Cube/Repository/STM32Cube_FW_F4_V1.26.2/Middlewares/Third_Party/LwIP/src/core/ipv4\etharp.c ****         arp_table[arp_idx].state = ETHARP_STATE_STABLE_REREQUESTING_1;
 765:c:/Users/Black_Life/STM32Cube/Repository/STM32Cube_FW_F4_V1.26.2/Middlewares/Third_Party/LwIP/src/core/ipv4\etharp.c ****       }
 766:c:/Users/Black_Life/STM32Cube/Repository/STM32Cube_FW_F4_V1.26.2/Middlewares/Third_Party/LwIP/src/core/ipv4\etharp.c ****     }
 767:c:/Users/Black_Life/STM32Cube/Repository/STM32Cube_FW_F4_V1.26.2/Middlewares/Third_Party/LwIP/src/core/ipv4\etharp.c ****   }
 768:c:/Users/Black_Life/STM32Cube/Repository/STM32Cube_FW_F4_V1.26.2/Middlewares/Third_Party/LwIP/src/core/ipv4\etharp.c **** 
 769:c:/Users/Black_Life/STM32Cube/Repository/STM32Cube_FW_F4_V1.26.2/Middlewares/Third_Party/LwIP/src/core/ipv4\etharp.c ****   return ethernet_output(netif, q, (struct eth_addr *)(netif->hwaddr), &arp_table[arp_idx].ethaddr,
 770:c:/Users/Black_Life/STM32Cube/Repository/STM32Cube_FW_F4_V1.26.2/Middlewares/Third_Party/LwIP/src/core/ipv4\etharp.c **** }
 771:c:/Users/Black_Life/STM32Cube/Repository/STM32Cube_FW_F4_V1.26.2/Middlewares/Third_Party/LwIP/src/core/ipv4\etharp.c **** 
 772:c:/Users/Black_Life/STM32Cube/Repository/STM32Cube_FW_F4_V1.26.2/Middlewares/Third_Party/LwIP/src/core/ipv4\etharp.c **** /**
 773:c:/Users/Black_Life/STM32Cube/Repository/STM32Cube_FW_F4_V1.26.2/Middlewares/Third_Party/LwIP/src/core/ipv4\etharp.c ****  * Resolve and fill-in Ethernet address header for outgoing IP packet.
 774:c:/Users/Black_Life/STM32Cube/Repository/STM32Cube_FW_F4_V1.26.2/Middlewares/Third_Party/LwIP/src/core/ipv4\etharp.c ****  *
 775:c:/Users/Black_Life/STM32Cube/Repository/STM32Cube_FW_F4_V1.26.2/Middlewares/Third_Party/LwIP/src/core/ipv4\etharp.c ****  * For IP multicast and broadcast, corresponding Ethernet addresses
 776:c:/Users/Black_Life/STM32Cube/Repository/STM32Cube_FW_F4_V1.26.2/Middlewares/Third_Party/LwIP/src/core/ipv4\etharp.c ****  * are selected and the packet is transmitted on the link.
 777:c:/Users/Black_Life/STM32Cube/Repository/STM32Cube_FW_F4_V1.26.2/Middlewares/Third_Party/LwIP/src/core/ipv4\etharp.c ****  *
 778:c:/Users/Black_Life/STM32Cube/Repository/STM32Cube_FW_F4_V1.26.2/Middlewares/Third_Party/LwIP/src/core/ipv4\etharp.c ****  * For unicast addresses, the packet is submitted to etharp_query(). In
 779:c:/Users/Black_Life/STM32Cube/Repository/STM32Cube_FW_F4_V1.26.2/Middlewares/Third_Party/LwIP/src/core/ipv4\etharp.c ****  * case the IP address is outside the local network, the IP address of
 780:c:/Users/Black_Life/STM32Cube/Repository/STM32Cube_FW_F4_V1.26.2/Middlewares/Third_Party/LwIP/src/core/ipv4\etharp.c ****  * the gateway is used.
 781:c:/Users/Black_Life/STM32Cube/Repository/STM32Cube_FW_F4_V1.26.2/Middlewares/Third_Party/LwIP/src/core/ipv4\etharp.c ****  *
 782:c:/Users/Black_Life/STM32Cube/Repository/STM32Cube_FW_F4_V1.26.2/Middlewares/Third_Party/LwIP/src/core/ipv4\etharp.c ****  * @param netif The lwIP network interface which the IP packet will be sent on.
 783:c:/Users/Black_Life/STM32Cube/Repository/STM32Cube_FW_F4_V1.26.2/Middlewares/Third_Party/LwIP/src/core/ipv4\etharp.c ****  * @param q The pbuf(s) containing the IP packet to be sent.
 784:c:/Users/Black_Life/STM32Cube/Repository/STM32Cube_FW_F4_V1.26.2/Middlewares/Third_Party/LwIP/src/core/ipv4\etharp.c ****  * @param ipaddr The IP address of the packet destination.
 785:c:/Users/Black_Life/STM32Cube/Repository/STM32Cube_FW_F4_V1.26.2/Middlewares/Third_Party/LwIP/src/core/ipv4\etharp.c ****  *
 786:c:/Users/Black_Life/STM32Cube/Repository/STM32Cube_FW_F4_V1.26.2/Middlewares/Third_Party/LwIP/src/core/ipv4\etharp.c ****  * @return
 787:c:/Users/Black_Life/STM32Cube/Repository/STM32Cube_FW_F4_V1.26.2/Middlewares/Third_Party/LwIP/src/core/ipv4\etharp.c ****  * - ERR_RTE No route to destination (no gateway to external networks),
 788:c:/Users/Black_Life/STM32Cube/Repository/STM32Cube_FW_F4_V1.26.2/Middlewares/Third_Party/LwIP/src/core/ipv4\etharp.c ****  * or the return type of either etharp_query() or ethernet_output().
 789:c:/Users/Black_Life/STM32Cube/Repository/STM32Cube_FW_F4_V1.26.2/Middlewares/Third_Party/LwIP/src/core/ipv4\etharp.c ****  */
 790:c:/Users/Black_Life/STM32Cube/Repository/STM32Cube_FW_F4_V1.26.2/Middlewares/Third_Party/LwIP/src/core/ipv4\etharp.c **** err_t
 791:c:/Users/Black_Life/STM32Cube/Repository/STM32Cube_FW_F4_V1.26.2/Middlewares/Third_Party/LwIP/src/core/ipv4\etharp.c **** etharp_output(struct netif *netif, struct pbuf *q, const ip4_addr_t *ipaddr)
 792:c:/Users/Black_Life/STM32Cube/Repository/STM32Cube_FW_F4_V1.26.2/Middlewares/Third_Party/LwIP/src/core/ipv4\etharp.c **** {
 793:c:/Users/Black_Life/STM32Cube/Repository/STM32Cube_FW_F4_V1.26.2/Middlewares/Third_Party/LwIP/src/core/ipv4\etharp.c ****   const struct eth_addr *dest;
 794:c:/Users/Black_Life/STM32Cube/Repository/STM32Cube_FW_F4_V1.26.2/Middlewares/Third_Party/LwIP/src/core/ipv4\etharp.c ****   struct eth_addr mcastaddr;
 795:c:/Users/Black_Life/STM32Cube/Repository/STM32Cube_FW_F4_V1.26.2/Middlewares/Third_Party/LwIP/src/core/ipv4\etharp.c ****   const ip4_addr_t *dst_addr = ipaddr;
 796:c:/Users/Black_Life/STM32Cube/Repository/STM32Cube_FW_F4_V1.26.2/Middlewares/Third_Party/LwIP/src/core/ipv4\etharp.c **** 
 797:c:/Users/Black_Life/STM32Cube/Repository/STM32Cube_FW_F4_V1.26.2/Middlewares/Third_Party/LwIP/src/core/ipv4\etharp.c ****   LWIP_ASSERT_CORE_LOCKED();
 798:c:/Users/Black_Life/STM32Cube/Repository/STM32Cube_FW_F4_V1.26.2/Middlewares/Third_Party/LwIP/src/core/ipv4\etharp.c ****   LWIP_ASSERT("netif != NULL", netif != NULL);
 799:c:/Users/Black_Life/STM32Cube/Repository/STM32Cube_FW_F4_V1.26.2/Middlewares/Third_Party/LwIP/src/core/ipv4\etharp.c ****   LWIP_ASSERT("q != NULL", q != NULL);
 800:c:/Users/Black_Life/STM32Cube/Repository/STM32Cube_FW_F4_V1.26.2/Middlewares/Third_Party/LwIP/src/core/ipv4\etharp.c ****   LWIP_ASSERT("ipaddr != NULL", ipaddr != NULL);
 801:c:/Users/Black_Life/STM32Cube/Repository/STM32Cube_FW_F4_V1.26.2/Middlewares/Third_Party/LwIP/src/core/ipv4\etharp.c **** 
 802:c:/Users/Black_Life/STM32Cube/Repository/STM32Cube_FW_F4_V1.26.2/Middlewares/Third_Party/LwIP/src/core/ipv4\etharp.c ****   /* Determine on destination hardware address. Broadcasts and multicasts
 803:c:/Users/Black_Life/STM32Cube/Repository/STM32Cube_FW_F4_V1.26.2/Middlewares/Third_Party/LwIP/src/core/ipv4\etharp.c ****    * are special, other IP addresses are looked up in the ARP table. */
 804:c:/Users/Black_Life/STM32Cube/Repository/STM32Cube_FW_F4_V1.26.2/Middlewares/Third_Party/LwIP/src/core/ipv4\etharp.c **** 
 805:c:/Users/Black_Life/STM32Cube/Repository/STM32Cube_FW_F4_V1.26.2/Middlewares/Third_Party/LwIP/src/core/ipv4\etharp.c ****   /* broadcast destination IP address? */
ARM GAS  C:\Users\BLACK_~1\AppData\Local\Temp\ccrhXwwe.s 			page 30


 806:c:/Users/Black_Life/STM32Cube/Repository/STM32Cube_FW_F4_V1.26.2/Middlewares/Third_Party/LwIP/src/core/ipv4\etharp.c ****   if (ip4_addr_isbroadcast(ipaddr, netif)) {
 807:c:/Users/Black_Life/STM32Cube/Repository/STM32Cube_FW_F4_V1.26.2/Middlewares/Third_Party/LwIP/src/core/ipv4\etharp.c ****     /* broadcast on Ethernet also */
 808:c:/Users/Black_Life/STM32Cube/Repository/STM32Cube_FW_F4_V1.26.2/Middlewares/Third_Party/LwIP/src/core/ipv4\etharp.c ****     dest = (const struct eth_addr *)&ethbroadcast;
 809:c:/Users/Black_Life/STM32Cube/Repository/STM32Cube_FW_F4_V1.26.2/Middlewares/Third_Party/LwIP/src/core/ipv4\etharp.c ****     /* multicast destination IP address? */
 810:c:/Users/Black_Life/STM32Cube/Repository/STM32Cube_FW_F4_V1.26.2/Middlewares/Third_Party/LwIP/src/core/ipv4\etharp.c ****   } else if (ip4_addr_ismulticast(ipaddr)) {
 811:c:/Users/Black_Life/STM32Cube/Repository/STM32Cube_FW_F4_V1.26.2/Middlewares/Third_Party/LwIP/src/core/ipv4\etharp.c ****     /* Hash IP multicast address to MAC address.*/
 812:c:/Users/Black_Life/STM32Cube/Repository/STM32Cube_FW_F4_V1.26.2/Middlewares/Third_Party/LwIP/src/core/ipv4\etharp.c ****     mcastaddr.addr[0] = LL_IP4_MULTICAST_ADDR_0;
 813:c:/Users/Black_Life/STM32Cube/Repository/STM32Cube_FW_F4_V1.26.2/Middlewares/Third_Party/LwIP/src/core/ipv4\etharp.c ****     mcastaddr.addr[1] = LL_IP4_MULTICAST_ADDR_1;
 814:c:/Users/Black_Life/STM32Cube/Repository/STM32Cube_FW_F4_V1.26.2/Middlewares/Third_Party/LwIP/src/core/ipv4\etharp.c ****     mcastaddr.addr[2] = LL_IP4_MULTICAST_ADDR_2;
 815:c:/Users/Black_Life/STM32Cube/Repository/STM32Cube_FW_F4_V1.26.2/Middlewares/Third_Party/LwIP/src/core/ipv4\etharp.c ****     mcastaddr.addr[3] = ip4_addr2(ipaddr) & 0x7f;
 816:c:/Users/Black_Life/STM32Cube/Repository/STM32Cube_FW_F4_V1.26.2/Middlewares/Third_Party/LwIP/src/core/ipv4\etharp.c ****     mcastaddr.addr[4] = ip4_addr3(ipaddr);
 817:c:/Users/Black_Life/STM32Cube/Repository/STM32Cube_FW_F4_V1.26.2/Middlewares/Third_Party/LwIP/src/core/ipv4\etharp.c ****     mcastaddr.addr[5] = ip4_addr4(ipaddr);
 818:c:/Users/Black_Life/STM32Cube/Repository/STM32Cube_FW_F4_V1.26.2/Middlewares/Third_Party/LwIP/src/core/ipv4\etharp.c ****     /* destination Ethernet address is multicast */
 819:c:/Users/Black_Life/STM32Cube/Repository/STM32Cube_FW_F4_V1.26.2/Middlewares/Third_Party/LwIP/src/core/ipv4\etharp.c ****     dest = &mcastaddr;
 820:c:/Users/Black_Life/STM32Cube/Repository/STM32Cube_FW_F4_V1.26.2/Middlewares/Third_Party/LwIP/src/core/ipv4\etharp.c ****     /* unicast destination IP address? */
 821:c:/Users/Black_Life/STM32Cube/Repository/STM32Cube_FW_F4_V1.26.2/Middlewares/Third_Party/LwIP/src/core/ipv4\etharp.c ****   } else {
 822:c:/Users/Black_Life/STM32Cube/Repository/STM32Cube_FW_F4_V1.26.2/Middlewares/Third_Party/LwIP/src/core/ipv4\etharp.c ****     netif_addr_idx_t i;
 823:c:/Users/Black_Life/STM32Cube/Repository/STM32Cube_FW_F4_V1.26.2/Middlewares/Third_Party/LwIP/src/core/ipv4\etharp.c ****     /* outside local network? if so, this can neither be a global broadcast nor
 824:c:/Users/Black_Life/STM32Cube/Repository/STM32Cube_FW_F4_V1.26.2/Middlewares/Third_Party/LwIP/src/core/ipv4\etharp.c ****        a subnet broadcast. */
 825:c:/Users/Black_Life/STM32Cube/Repository/STM32Cube_FW_F4_V1.26.2/Middlewares/Third_Party/LwIP/src/core/ipv4\etharp.c ****     if (!ip4_addr_netcmp(ipaddr, netif_ip4_addr(netif), netif_ip4_netmask(netif)) &&
 826:c:/Users/Black_Life/STM32Cube/Repository/STM32Cube_FW_F4_V1.26.2/Middlewares/Third_Party/LwIP/src/core/ipv4\etharp.c ****         !ip4_addr_islinklocal(ipaddr)) {
 827:c:/Users/Black_Life/STM32Cube/Repository/STM32Cube_FW_F4_V1.26.2/Middlewares/Third_Party/LwIP/src/core/ipv4\etharp.c **** #if LWIP_AUTOIP
 828:c:/Users/Black_Life/STM32Cube/Repository/STM32Cube_FW_F4_V1.26.2/Middlewares/Third_Party/LwIP/src/core/ipv4\etharp.c ****       struct ip_hdr *iphdr = LWIP_ALIGNMENT_CAST(struct ip_hdr *, q->payload);
 829:c:/Users/Black_Life/STM32Cube/Repository/STM32Cube_FW_F4_V1.26.2/Middlewares/Third_Party/LwIP/src/core/ipv4\etharp.c ****       /* According to RFC 3297, chapter 2.6.2 (Forwarding Rules), a packet with
 830:c:/Users/Black_Life/STM32Cube/Repository/STM32Cube_FW_F4_V1.26.2/Middlewares/Third_Party/LwIP/src/core/ipv4\etharp.c ****          a link-local source address must always be "directly to its destination
 831:c:/Users/Black_Life/STM32Cube/Repository/STM32Cube_FW_F4_V1.26.2/Middlewares/Third_Party/LwIP/src/core/ipv4\etharp.c ****          on the same physical link. The host MUST NOT send the packet to any
 832:c:/Users/Black_Life/STM32Cube/Repository/STM32Cube_FW_F4_V1.26.2/Middlewares/Third_Party/LwIP/src/core/ipv4\etharp.c ****          router for forwarding". */
 833:c:/Users/Black_Life/STM32Cube/Repository/STM32Cube_FW_F4_V1.26.2/Middlewares/Third_Party/LwIP/src/core/ipv4\etharp.c ****       if (!ip4_addr_islinklocal(&iphdr->src))
 834:c:/Users/Black_Life/STM32Cube/Repository/STM32Cube_FW_F4_V1.26.2/Middlewares/Third_Party/LwIP/src/core/ipv4\etharp.c **** #endif /* LWIP_AUTOIP */
 835:c:/Users/Black_Life/STM32Cube/Repository/STM32Cube_FW_F4_V1.26.2/Middlewares/Third_Party/LwIP/src/core/ipv4\etharp.c ****       {
 836:c:/Users/Black_Life/STM32Cube/Repository/STM32Cube_FW_F4_V1.26.2/Middlewares/Third_Party/LwIP/src/core/ipv4\etharp.c **** #ifdef LWIP_HOOK_ETHARP_GET_GW
 837:c:/Users/Black_Life/STM32Cube/Repository/STM32Cube_FW_F4_V1.26.2/Middlewares/Third_Party/LwIP/src/core/ipv4\etharp.c ****         /* For advanced routing, a single default gateway might not be enough, so get
 838:c:/Users/Black_Life/STM32Cube/Repository/STM32Cube_FW_F4_V1.26.2/Middlewares/Third_Party/LwIP/src/core/ipv4\etharp.c ****            the IP address of the gateway to handle the current destination address. */
 839:c:/Users/Black_Life/STM32Cube/Repository/STM32Cube_FW_F4_V1.26.2/Middlewares/Third_Party/LwIP/src/core/ipv4\etharp.c ****         dst_addr = LWIP_HOOK_ETHARP_GET_GW(netif, ipaddr);
 840:c:/Users/Black_Life/STM32Cube/Repository/STM32Cube_FW_F4_V1.26.2/Middlewares/Third_Party/LwIP/src/core/ipv4\etharp.c ****         if (dst_addr == NULL)
 841:c:/Users/Black_Life/STM32Cube/Repository/STM32Cube_FW_F4_V1.26.2/Middlewares/Third_Party/LwIP/src/core/ipv4\etharp.c **** #endif /* LWIP_HOOK_ETHARP_GET_GW */
 842:c:/Users/Black_Life/STM32Cube/Repository/STM32Cube_FW_F4_V1.26.2/Middlewares/Third_Party/LwIP/src/core/ipv4\etharp.c ****         {
 843:c:/Users/Black_Life/STM32Cube/Repository/STM32Cube_FW_F4_V1.26.2/Middlewares/Third_Party/LwIP/src/core/ipv4\etharp.c ****           /* interface has default gateway? */
 844:c:/Users/Black_Life/STM32Cube/Repository/STM32Cube_FW_F4_V1.26.2/Middlewares/Third_Party/LwIP/src/core/ipv4\etharp.c ****           if (!ip4_addr_isany_val(*netif_ip4_gw(netif))) {
 845:c:/Users/Black_Life/STM32Cube/Repository/STM32Cube_FW_F4_V1.26.2/Middlewares/Third_Party/LwIP/src/core/ipv4\etharp.c ****             /* send to hardware address of default gateway IP address */
 846:c:/Users/Black_Life/STM32Cube/Repository/STM32Cube_FW_F4_V1.26.2/Middlewares/Third_Party/LwIP/src/core/ipv4\etharp.c ****             dst_addr = netif_ip4_gw(netif);
 847:c:/Users/Black_Life/STM32Cube/Repository/STM32Cube_FW_F4_V1.26.2/Middlewares/Third_Party/LwIP/src/core/ipv4\etharp.c ****             /* no default gateway available */
 848:c:/Users/Black_Life/STM32Cube/Repository/STM32Cube_FW_F4_V1.26.2/Middlewares/Third_Party/LwIP/src/core/ipv4\etharp.c ****           } else {
 849:c:/Users/Black_Life/STM32Cube/Repository/STM32Cube_FW_F4_V1.26.2/Middlewares/Third_Party/LwIP/src/core/ipv4\etharp.c ****             /* no route to destination error (default gateway missing) */
 850:c:/Users/Black_Life/STM32Cube/Repository/STM32Cube_FW_F4_V1.26.2/Middlewares/Third_Party/LwIP/src/core/ipv4\etharp.c ****             return ERR_RTE;
 851:c:/Users/Black_Life/STM32Cube/Repository/STM32Cube_FW_F4_V1.26.2/Middlewares/Third_Party/LwIP/src/core/ipv4\etharp.c ****           }
 852:c:/Users/Black_Life/STM32Cube/Repository/STM32Cube_FW_F4_V1.26.2/Middlewares/Third_Party/LwIP/src/core/ipv4\etharp.c ****         }
 853:c:/Users/Black_Life/STM32Cube/Repository/STM32Cube_FW_F4_V1.26.2/Middlewares/Third_Party/LwIP/src/core/ipv4\etharp.c ****       }
 854:c:/Users/Black_Life/STM32Cube/Repository/STM32Cube_FW_F4_V1.26.2/Middlewares/Third_Party/LwIP/src/core/ipv4\etharp.c ****     }
 855:c:/Users/Black_Life/STM32Cube/Repository/STM32Cube_FW_F4_V1.26.2/Middlewares/Third_Party/LwIP/src/core/ipv4\etharp.c **** #if LWIP_NETIF_HWADDRHINT
 856:c:/Users/Black_Life/STM32Cube/Repository/STM32Cube_FW_F4_V1.26.2/Middlewares/Third_Party/LwIP/src/core/ipv4\etharp.c ****     if (netif->hints != NULL) {
 857:c:/Users/Black_Life/STM32Cube/Repository/STM32Cube_FW_F4_V1.26.2/Middlewares/Third_Party/LwIP/src/core/ipv4\etharp.c ****       /* per-pcb cached entry was given */
 858:c:/Users/Black_Life/STM32Cube/Repository/STM32Cube_FW_F4_V1.26.2/Middlewares/Third_Party/LwIP/src/core/ipv4\etharp.c ****       netif_addr_idx_t etharp_cached_entry = netif->hints->addr_hint;
 859:c:/Users/Black_Life/STM32Cube/Repository/STM32Cube_FW_F4_V1.26.2/Middlewares/Third_Party/LwIP/src/core/ipv4\etharp.c ****       if (etharp_cached_entry < ARP_TABLE_SIZE) {
 860:c:/Users/Black_Life/STM32Cube/Repository/STM32Cube_FW_F4_V1.26.2/Middlewares/Third_Party/LwIP/src/core/ipv4\etharp.c **** #endif /* LWIP_NETIF_HWADDRHINT */
 861:c:/Users/Black_Life/STM32Cube/Repository/STM32Cube_FW_F4_V1.26.2/Middlewares/Third_Party/LwIP/src/core/ipv4\etharp.c ****         if ((arp_table[etharp_cached_entry].state >= ETHARP_STATE_STABLE) &&
 862:c:/Users/Black_Life/STM32Cube/Repository/STM32Cube_FW_F4_V1.26.2/Middlewares/Third_Party/LwIP/src/core/ipv4\etharp.c **** #if ETHARP_TABLE_MATCH_NETIF
ARM GAS  C:\Users\BLACK_~1\AppData\Local\Temp\ccrhXwwe.s 			page 31


 863:c:/Users/Black_Life/STM32Cube/Repository/STM32Cube_FW_F4_V1.26.2/Middlewares/Third_Party/LwIP/src/core/ipv4\etharp.c ****             (arp_table[etharp_cached_entry].netif == netif) &&
 864:c:/Users/Black_Life/STM32Cube/Repository/STM32Cube_FW_F4_V1.26.2/Middlewares/Third_Party/LwIP/src/core/ipv4\etharp.c **** #endif
 865:c:/Users/Black_Life/STM32Cube/Repository/STM32Cube_FW_F4_V1.26.2/Middlewares/Third_Party/LwIP/src/core/ipv4\etharp.c ****             (ip4_addr_cmp(dst_addr, &arp_table[etharp_cached_entry].ipaddr))) {
 866:c:/Users/Black_Life/STM32Cube/Repository/STM32Cube_FW_F4_V1.26.2/Middlewares/Third_Party/LwIP/src/core/ipv4\etharp.c ****           /* the per-pcb-cached entry is stable and the right one! */
 867:c:/Users/Black_Life/STM32Cube/Repository/STM32Cube_FW_F4_V1.26.2/Middlewares/Third_Party/LwIP/src/core/ipv4\etharp.c ****           ETHARP_STATS_INC(etharp.cachehit);
 868:c:/Users/Black_Life/STM32Cube/Repository/STM32Cube_FW_F4_V1.26.2/Middlewares/Third_Party/LwIP/src/core/ipv4\etharp.c ****           return etharp_output_to_arp_index(netif, q, etharp_cached_entry);
 869:c:/Users/Black_Life/STM32Cube/Repository/STM32Cube_FW_F4_V1.26.2/Middlewares/Third_Party/LwIP/src/core/ipv4\etharp.c ****         }
 870:c:/Users/Black_Life/STM32Cube/Repository/STM32Cube_FW_F4_V1.26.2/Middlewares/Third_Party/LwIP/src/core/ipv4\etharp.c **** #if LWIP_NETIF_HWADDRHINT
 871:c:/Users/Black_Life/STM32Cube/Repository/STM32Cube_FW_F4_V1.26.2/Middlewares/Third_Party/LwIP/src/core/ipv4\etharp.c ****       }
 872:c:/Users/Black_Life/STM32Cube/Repository/STM32Cube_FW_F4_V1.26.2/Middlewares/Third_Party/LwIP/src/core/ipv4\etharp.c ****     }
 873:c:/Users/Black_Life/STM32Cube/Repository/STM32Cube_FW_F4_V1.26.2/Middlewares/Third_Party/LwIP/src/core/ipv4\etharp.c **** #endif /* LWIP_NETIF_HWADDRHINT */
 874:c:/Users/Black_Life/STM32Cube/Repository/STM32Cube_FW_F4_V1.26.2/Middlewares/Third_Party/LwIP/src/core/ipv4\etharp.c **** 
 875:c:/Users/Black_Life/STM32Cube/Repository/STM32Cube_FW_F4_V1.26.2/Middlewares/Third_Party/LwIP/src/core/ipv4\etharp.c ****     /* find stable entry: do this here since this is a critical path for
 876:c:/Users/Black_Life/STM32Cube/Repository/STM32Cube_FW_F4_V1.26.2/Middlewares/Third_Party/LwIP/src/core/ipv4\etharp.c ****        throughput and etharp_find_entry() is kind of slow */
 877:c:/Users/Black_Life/STM32Cube/Repository/STM32Cube_FW_F4_V1.26.2/Middlewares/Third_Party/LwIP/src/core/ipv4\etharp.c ****     for (i = 0; i < ARP_TABLE_SIZE; i++) {
 878:c:/Users/Black_Life/STM32Cube/Repository/STM32Cube_FW_F4_V1.26.2/Middlewares/Third_Party/LwIP/src/core/ipv4\etharp.c ****       if ((arp_table[i].state >= ETHARP_STATE_STABLE) &&
 879:c:/Users/Black_Life/STM32Cube/Repository/STM32Cube_FW_F4_V1.26.2/Middlewares/Third_Party/LwIP/src/core/ipv4\etharp.c **** #if ETHARP_TABLE_MATCH_NETIF
 880:c:/Users/Black_Life/STM32Cube/Repository/STM32Cube_FW_F4_V1.26.2/Middlewares/Third_Party/LwIP/src/core/ipv4\etharp.c ****           (arp_table[i].netif == netif) &&
 881:c:/Users/Black_Life/STM32Cube/Repository/STM32Cube_FW_F4_V1.26.2/Middlewares/Third_Party/LwIP/src/core/ipv4\etharp.c **** #endif
 882:c:/Users/Black_Life/STM32Cube/Repository/STM32Cube_FW_F4_V1.26.2/Middlewares/Third_Party/LwIP/src/core/ipv4\etharp.c ****           (ip4_addr_cmp(dst_addr, &arp_table[i].ipaddr))) {
 883:c:/Users/Black_Life/STM32Cube/Repository/STM32Cube_FW_F4_V1.26.2/Middlewares/Third_Party/LwIP/src/core/ipv4\etharp.c ****         /* found an existing, stable entry */
 884:c:/Users/Black_Life/STM32Cube/Repository/STM32Cube_FW_F4_V1.26.2/Middlewares/Third_Party/LwIP/src/core/ipv4\etharp.c ****         ETHARP_SET_ADDRHINT(netif, i);
 885:c:/Users/Black_Life/STM32Cube/Repository/STM32Cube_FW_F4_V1.26.2/Middlewares/Third_Party/LwIP/src/core/ipv4\etharp.c ****         return etharp_output_to_arp_index(netif, q, i);
 886:c:/Users/Black_Life/STM32Cube/Repository/STM32Cube_FW_F4_V1.26.2/Middlewares/Third_Party/LwIP/src/core/ipv4\etharp.c ****       }
 887:c:/Users/Black_Life/STM32Cube/Repository/STM32Cube_FW_F4_V1.26.2/Middlewares/Third_Party/LwIP/src/core/ipv4\etharp.c ****     }
 888:c:/Users/Black_Life/STM32Cube/Repository/STM32Cube_FW_F4_V1.26.2/Middlewares/Third_Party/LwIP/src/core/ipv4\etharp.c ****     /* no stable entry found, use the (slower) query function:
 889:c:/Users/Black_Life/STM32Cube/Repository/STM32Cube_FW_F4_V1.26.2/Middlewares/Third_Party/LwIP/src/core/ipv4\etharp.c ****        queue on destination Ethernet address belonging to ipaddr */
 890:c:/Users/Black_Life/STM32Cube/Repository/STM32Cube_FW_F4_V1.26.2/Middlewares/Third_Party/LwIP/src/core/ipv4\etharp.c ****     return etharp_query(netif, dst_addr, q);
 891:c:/Users/Black_Life/STM32Cube/Repository/STM32Cube_FW_F4_V1.26.2/Middlewares/Third_Party/LwIP/src/core/ipv4\etharp.c ****   }
 892:c:/Users/Black_Life/STM32Cube/Repository/STM32Cube_FW_F4_V1.26.2/Middlewares/Third_Party/LwIP/src/core/ipv4\etharp.c **** 
 893:c:/Users/Black_Life/STM32Cube/Repository/STM32Cube_FW_F4_V1.26.2/Middlewares/Third_Party/LwIP/src/core/ipv4\etharp.c ****   /* continuation for multicast/broadcast destinations */
 894:c:/Users/Black_Life/STM32Cube/Repository/STM32Cube_FW_F4_V1.26.2/Middlewares/Third_Party/LwIP/src/core/ipv4\etharp.c ****   /* obtain source Ethernet address of the given interface */
 895:c:/Users/Black_Life/STM32Cube/Repository/STM32Cube_FW_F4_V1.26.2/Middlewares/Third_Party/LwIP/src/core/ipv4\etharp.c ****   /* send packet directly on the link */
 896:c:/Users/Black_Life/STM32Cube/Repository/STM32Cube_FW_F4_V1.26.2/Middlewares/Third_Party/LwIP/src/core/ipv4\etharp.c ****   return ethernet_output(netif, q, (struct eth_addr *)(netif->hwaddr), dest, ETHTYPE_IP);
 897:c:/Users/Black_Life/STM32Cube/Repository/STM32Cube_FW_F4_V1.26.2/Middlewares/Third_Party/LwIP/src/core/ipv4\etharp.c **** }
 898:c:/Users/Black_Life/STM32Cube/Repository/STM32Cube_FW_F4_V1.26.2/Middlewares/Third_Party/LwIP/src/core/ipv4\etharp.c **** 
 899:c:/Users/Black_Life/STM32Cube/Repository/STM32Cube_FW_F4_V1.26.2/Middlewares/Third_Party/LwIP/src/core/ipv4\etharp.c **** /**
 900:c:/Users/Black_Life/STM32Cube/Repository/STM32Cube_FW_F4_V1.26.2/Middlewares/Third_Party/LwIP/src/core/ipv4\etharp.c ****  * Send an ARP request for the given IP address and/or queue a packet.
 901:c:/Users/Black_Life/STM32Cube/Repository/STM32Cube_FW_F4_V1.26.2/Middlewares/Third_Party/LwIP/src/core/ipv4\etharp.c ****  *
 902:c:/Users/Black_Life/STM32Cube/Repository/STM32Cube_FW_F4_V1.26.2/Middlewares/Third_Party/LwIP/src/core/ipv4\etharp.c ****  * If the IP address was not yet in the cache, a pending ARP cache entry
 903:c:/Users/Black_Life/STM32Cube/Repository/STM32Cube_FW_F4_V1.26.2/Middlewares/Third_Party/LwIP/src/core/ipv4\etharp.c ****  * is added and an ARP request is sent for the given address. The packet
 904:c:/Users/Black_Life/STM32Cube/Repository/STM32Cube_FW_F4_V1.26.2/Middlewares/Third_Party/LwIP/src/core/ipv4\etharp.c ****  * is queued on this entry.
 905:c:/Users/Black_Life/STM32Cube/Repository/STM32Cube_FW_F4_V1.26.2/Middlewares/Third_Party/LwIP/src/core/ipv4\etharp.c ****  *
 906:c:/Users/Black_Life/STM32Cube/Repository/STM32Cube_FW_F4_V1.26.2/Middlewares/Third_Party/LwIP/src/core/ipv4\etharp.c ****  * If the IP address was already pending in the cache, a new ARP request
 907:c:/Users/Black_Life/STM32Cube/Repository/STM32Cube_FW_F4_V1.26.2/Middlewares/Third_Party/LwIP/src/core/ipv4\etharp.c ****  * is sent for the given address. The packet is queued on this entry.
 908:c:/Users/Black_Life/STM32Cube/Repository/STM32Cube_FW_F4_V1.26.2/Middlewares/Third_Party/LwIP/src/core/ipv4\etharp.c ****  *
 909:c:/Users/Black_Life/STM32Cube/Repository/STM32Cube_FW_F4_V1.26.2/Middlewares/Third_Party/LwIP/src/core/ipv4\etharp.c ****  * If the IP address was already stable in the cache, and a packet is
 910:c:/Users/Black_Life/STM32Cube/Repository/STM32Cube_FW_F4_V1.26.2/Middlewares/Third_Party/LwIP/src/core/ipv4\etharp.c ****  * given, it is directly sent and no ARP request is sent out.
 911:c:/Users/Black_Life/STM32Cube/Repository/STM32Cube_FW_F4_V1.26.2/Middlewares/Third_Party/LwIP/src/core/ipv4\etharp.c ****  *
 912:c:/Users/Black_Life/STM32Cube/Repository/STM32Cube_FW_F4_V1.26.2/Middlewares/Third_Party/LwIP/src/core/ipv4\etharp.c ****  * If the IP address was already stable in the cache, and no packet is
 913:c:/Users/Black_Life/STM32Cube/Repository/STM32Cube_FW_F4_V1.26.2/Middlewares/Third_Party/LwIP/src/core/ipv4\etharp.c ****  * given, an ARP request is sent out.
 914:c:/Users/Black_Life/STM32Cube/Repository/STM32Cube_FW_F4_V1.26.2/Middlewares/Third_Party/LwIP/src/core/ipv4\etharp.c ****  *
 915:c:/Users/Black_Life/STM32Cube/Repository/STM32Cube_FW_F4_V1.26.2/Middlewares/Third_Party/LwIP/src/core/ipv4\etharp.c ****  * @param netif The lwIP network interface on which ipaddr
 916:c:/Users/Black_Life/STM32Cube/Repository/STM32Cube_FW_F4_V1.26.2/Middlewares/Third_Party/LwIP/src/core/ipv4\etharp.c ****  * must be queried for.
 917:c:/Users/Black_Life/STM32Cube/Repository/STM32Cube_FW_F4_V1.26.2/Middlewares/Third_Party/LwIP/src/core/ipv4\etharp.c ****  * @param ipaddr The IP address to be resolved.
 918:c:/Users/Black_Life/STM32Cube/Repository/STM32Cube_FW_F4_V1.26.2/Middlewares/Third_Party/LwIP/src/core/ipv4\etharp.c ****  * @param q If non-NULL, a pbuf that must be delivered to the IP address.
 919:c:/Users/Black_Life/STM32Cube/Repository/STM32Cube_FW_F4_V1.26.2/Middlewares/Third_Party/LwIP/src/core/ipv4\etharp.c ****  * q is not freed by this function.
ARM GAS  C:\Users\BLACK_~1\AppData\Local\Temp\ccrhXwwe.s 			page 32


 920:c:/Users/Black_Life/STM32Cube/Repository/STM32Cube_FW_F4_V1.26.2/Middlewares/Third_Party/LwIP/src/core/ipv4\etharp.c ****  *
 921:c:/Users/Black_Life/STM32Cube/Repository/STM32Cube_FW_F4_V1.26.2/Middlewares/Third_Party/LwIP/src/core/ipv4\etharp.c ****  * @note q must only be ONE packet, not a packet queue!
 922:c:/Users/Black_Life/STM32Cube/Repository/STM32Cube_FW_F4_V1.26.2/Middlewares/Third_Party/LwIP/src/core/ipv4\etharp.c ****  *
 923:c:/Users/Black_Life/STM32Cube/Repository/STM32Cube_FW_F4_V1.26.2/Middlewares/Third_Party/LwIP/src/core/ipv4\etharp.c ****  * @return
 924:c:/Users/Black_Life/STM32Cube/Repository/STM32Cube_FW_F4_V1.26.2/Middlewares/Third_Party/LwIP/src/core/ipv4\etharp.c ****  * - ERR_BUF Could not make room for Ethernet header.
 925:c:/Users/Black_Life/STM32Cube/Repository/STM32Cube_FW_F4_V1.26.2/Middlewares/Third_Party/LwIP/src/core/ipv4\etharp.c ****  * - ERR_MEM Hardware address unknown, and no more ARP entries available
 926:c:/Users/Black_Life/STM32Cube/Repository/STM32Cube_FW_F4_V1.26.2/Middlewares/Third_Party/LwIP/src/core/ipv4\etharp.c ****  *   to query for address or queue the packet.
 927:c:/Users/Black_Life/STM32Cube/Repository/STM32Cube_FW_F4_V1.26.2/Middlewares/Third_Party/LwIP/src/core/ipv4\etharp.c ****  * - ERR_MEM Could not queue packet due to memory shortage.
 928:c:/Users/Black_Life/STM32Cube/Repository/STM32Cube_FW_F4_V1.26.2/Middlewares/Third_Party/LwIP/src/core/ipv4\etharp.c ****  * - ERR_RTE No route to destination (no gateway to external networks).
 929:c:/Users/Black_Life/STM32Cube/Repository/STM32Cube_FW_F4_V1.26.2/Middlewares/Third_Party/LwIP/src/core/ipv4\etharp.c ****  * - ERR_ARG Non-unicast address given, those will not appear in ARP cache.
 930:c:/Users/Black_Life/STM32Cube/Repository/STM32Cube_FW_F4_V1.26.2/Middlewares/Third_Party/LwIP/src/core/ipv4\etharp.c ****  *
 931:c:/Users/Black_Life/STM32Cube/Repository/STM32Cube_FW_F4_V1.26.2/Middlewares/Third_Party/LwIP/src/core/ipv4\etharp.c ****  */
 932:c:/Users/Black_Life/STM32Cube/Repository/STM32Cube_FW_F4_V1.26.2/Middlewares/Third_Party/LwIP/src/core/ipv4\etharp.c **** err_t
 933:c:/Users/Black_Life/STM32Cube/Repository/STM32Cube_FW_F4_V1.26.2/Middlewares/Third_Party/LwIP/src/core/ipv4\etharp.c **** etharp_query(struct netif *netif, const ip4_addr_t *ipaddr, struct pbuf *q)
 934:c:/Users/Black_Life/STM32Cube/Repository/STM32Cube_FW_F4_V1.26.2/Middlewares/Third_Party/LwIP/src/core/ipv4\etharp.c **** {
 935:c:/Users/Black_Life/STM32Cube/Repository/STM32Cube_FW_F4_V1.26.2/Middlewares/Third_Party/LwIP/src/core/ipv4\etharp.c ****   struct eth_addr *srcaddr = (struct eth_addr *)netif->hwaddr;
 936:c:/Users/Black_Life/STM32Cube/Repository/STM32Cube_FW_F4_V1.26.2/Middlewares/Third_Party/LwIP/src/core/ipv4\etharp.c ****   err_t result = ERR_MEM;
 937:c:/Users/Black_Life/STM32Cube/Repository/STM32Cube_FW_F4_V1.26.2/Middlewares/Third_Party/LwIP/src/core/ipv4\etharp.c ****   int is_new_entry = 0;
 938:c:/Users/Black_Life/STM32Cube/Repository/STM32Cube_FW_F4_V1.26.2/Middlewares/Third_Party/LwIP/src/core/ipv4\etharp.c ****   s16_t i_err;
 939:c:/Users/Black_Life/STM32Cube/Repository/STM32Cube_FW_F4_V1.26.2/Middlewares/Third_Party/LwIP/src/core/ipv4\etharp.c ****   netif_addr_idx_t i;
 940:c:/Users/Black_Life/STM32Cube/Repository/STM32Cube_FW_F4_V1.26.2/Middlewares/Third_Party/LwIP/src/core/ipv4\etharp.c **** 
 941:c:/Users/Black_Life/STM32Cube/Repository/STM32Cube_FW_F4_V1.26.2/Middlewares/Third_Party/LwIP/src/core/ipv4\etharp.c ****   /* non-unicast address? */
 942:c:/Users/Black_Life/STM32Cube/Repository/STM32Cube_FW_F4_V1.26.2/Middlewares/Third_Party/LwIP/src/core/ipv4\etharp.c ****   if (ip4_addr_isbroadcast(ipaddr, netif) ||
 943:c:/Users/Black_Life/STM32Cube/Repository/STM32Cube_FW_F4_V1.26.2/Middlewares/Third_Party/LwIP/src/core/ipv4\etharp.c ****       ip4_addr_ismulticast(ipaddr) ||
 944:c:/Users/Black_Life/STM32Cube/Repository/STM32Cube_FW_F4_V1.26.2/Middlewares/Third_Party/LwIP/src/core/ipv4\etharp.c ****       ip4_addr_isany(ipaddr)) {
 945:c:/Users/Black_Life/STM32Cube/Repository/STM32Cube_FW_F4_V1.26.2/Middlewares/Third_Party/LwIP/src/core/ipv4\etharp.c ****     LWIP_DEBUGF(ETHARP_DEBUG | LWIP_DBG_TRACE, ("etharp_query: will not add non-unicast IP address 
 946:c:/Users/Black_Life/STM32Cube/Repository/STM32Cube_FW_F4_V1.26.2/Middlewares/Third_Party/LwIP/src/core/ipv4\etharp.c ****     return ERR_ARG;
 947:c:/Users/Black_Life/STM32Cube/Repository/STM32Cube_FW_F4_V1.26.2/Middlewares/Third_Party/LwIP/src/core/ipv4\etharp.c ****   }
 948:c:/Users/Black_Life/STM32Cube/Repository/STM32Cube_FW_F4_V1.26.2/Middlewares/Third_Party/LwIP/src/core/ipv4\etharp.c **** 
 949:c:/Users/Black_Life/STM32Cube/Repository/STM32Cube_FW_F4_V1.26.2/Middlewares/Third_Party/LwIP/src/core/ipv4\etharp.c ****   /* find entry in ARP cache, ask to create entry if queueing packet */
 950:c:/Users/Black_Life/STM32Cube/Repository/STM32Cube_FW_F4_V1.26.2/Middlewares/Third_Party/LwIP/src/core/ipv4\etharp.c ****   i_err = etharp_find_entry(ipaddr, ETHARP_FLAG_TRY_HARD, netif);
 951:c:/Users/Black_Life/STM32Cube/Repository/STM32Cube_FW_F4_V1.26.2/Middlewares/Third_Party/LwIP/src/core/ipv4\etharp.c **** 
 952:c:/Users/Black_Life/STM32Cube/Repository/STM32Cube_FW_F4_V1.26.2/Middlewares/Third_Party/LwIP/src/core/ipv4\etharp.c ****   /* could not find or create entry? */
 953:c:/Users/Black_Life/STM32Cube/Repository/STM32Cube_FW_F4_V1.26.2/Middlewares/Third_Party/LwIP/src/core/ipv4\etharp.c ****   if (i_err < 0) {
 954:c:/Users/Black_Life/STM32Cube/Repository/STM32Cube_FW_F4_V1.26.2/Middlewares/Third_Party/LwIP/src/core/ipv4\etharp.c ****     LWIP_DEBUGF(ETHARP_DEBUG | LWIP_DBG_TRACE, ("etharp_query: could not create ARP entry\n"));
 955:c:/Users/Black_Life/STM32Cube/Repository/STM32Cube_FW_F4_V1.26.2/Middlewares/Third_Party/LwIP/src/core/ipv4\etharp.c ****     if (q) {
 956:c:/Users/Black_Life/STM32Cube/Repository/STM32Cube_FW_F4_V1.26.2/Middlewares/Third_Party/LwIP/src/core/ipv4\etharp.c ****       LWIP_DEBUGF(ETHARP_DEBUG | LWIP_DBG_TRACE, ("etharp_query: packet dropped\n"));
 957:c:/Users/Black_Life/STM32Cube/Repository/STM32Cube_FW_F4_V1.26.2/Middlewares/Third_Party/LwIP/src/core/ipv4\etharp.c ****       ETHARP_STATS_INC(etharp.memerr);
 958:c:/Users/Black_Life/STM32Cube/Repository/STM32Cube_FW_F4_V1.26.2/Middlewares/Third_Party/LwIP/src/core/ipv4\etharp.c ****     }
 959:c:/Users/Black_Life/STM32Cube/Repository/STM32Cube_FW_F4_V1.26.2/Middlewares/Third_Party/LwIP/src/core/ipv4\etharp.c ****     return (err_t)i_err;
 960:c:/Users/Black_Life/STM32Cube/Repository/STM32Cube_FW_F4_V1.26.2/Middlewares/Third_Party/LwIP/src/core/ipv4\etharp.c ****   }
 961:c:/Users/Black_Life/STM32Cube/Repository/STM32Cube_FW_F4_V1.26.2/Middlewares/Third_Party/LwIP/src/core/ipv4\etharp.c ****   LWIP_ASSERT("type overflow", (size_t)i_err < NETIF_ADDR_IDX_MAX);
 962:c:/Users/Black_Life/STM32Cube/Repository/STM32Cube_FW_F4_V1.26.2/Middlewares/Third_Party/LwIP/src/core/ipv4\etharp.c ****   i = (netif_addr_idx_t)i_err;
 963:c:/Users/Black_Life/STM32Cube/Repository/STM32Cube_FW_F4_V1.26.2/Middlewares/Third_Party/LwIP/src/core/ipv4\etharp.c **** 
 964:c:/Users/Black_Life/STM32Cube/Repository/STM32Cube_FW_F4_V1.26.2/Middlewares/Third_Party/LwIP/src/core/ipv4\etharp.c ****   /* mark a fresh entry as pending (we just sent a request) */
 965:c:/Users/Black_Life/STM32Cube/Repository/STM32Cube_FW_F4_V1.26.2/Middlewares/Third_Party/LwIP/src/core/ipv4\etharp.c ****   if (arp_table[i].state == ETHARP_STATE_EMPTY) {
 966:c:/Users/Black_Life/STM32Cube/Repository/STM32Cube_FW_F4_V1.26.2/Middlewares/Third_Party/LwIP/src/core/ipv4\etharp.c ****     is_new_entry = 1;
 967:c:/Users/Black_Life/STM32Cube/Repository/STM32Cube_FW_F4_V1.26.2/Middlewares/Third_Party/LwIP/src/core/ipv4\etharp.c ****     arp_table[i].state = ETHARP_STATE_PENDING;
 968:c:/Users/Black_Life/STM32Cube/Repository/STM32Cube_FW_F4_V1.26.2/Middlewares/Third_Party/LwIP/src/core/ipv4\etharp.c ****     /* record network interface for re-sending arp request in etharp_tmr */
 969:c:/Users/Black_Life/STM32Cube/Repository/STM32Cube_FW_F4_V1.26.2/Middlewares/Third_Party/LwIP/src/core/ipv4\etharp.c ****     arp_table[i].netif = netif;
 970:c:/Users/Black_Life/STM32Cube/Repository/STM32Cube_FW_F4_V1.26.2/Middlewares/Third_Party/LwIP/src/core/ipv4\etharp.c ****   }
 971:c:/Users/Black_Life/STM32Cube/Repository/STM32Cube_FW_F4_V1.26.2/Middlewares/Third_Party/LwIP/src/core/ipv4\etharp.c **** 
 972:c:/Users/Black_Life/STM32Cube/Repository/STM32Cube_FW_F4_V1.26.2/Middlewares/Third_Party/LwIP/src/core/ipv4\etharp.c ****   /* { i is either a STABLE or (new or existing) PENDING entry } */
 973:c:/Users/Black_Life/STM32Cube/Repository/STM32Cube_FW_F4_V1.26.2/Middlewares/Third_Party/LwIP/src/core/ipv4\etharp.c ****   LWIP_ASSERT("arp_table[i].state == PENDING or STABLE",
 974:c:/Users/Black_Life/STM32Cube/Repository/STM32Cube_FW_F4_V1.26.2/Middlewares/Third_Party/LwIP/src/core/ipv4\etharp.c ****               ((arp_table[i].state == ETHARP_STATE_PENDING) ||
 975:c:/Users/Black_Life/STM32Cube/Repository/STM32Cube_FW_F4_V1.26.2/Middlewares/Third_Party/LwIP/src/core/ipv4\etharp.c ****                (arp_table[i].state >= ETHARP_STATE_STABLE)));
 976:c:/Users/Black_Life/STM32Cube/Repository/STM32Cube_FW_F4_V1.26.2/Middlewares/Third_Party/LwIP/src/core/ipv4\etharp.c **** 
ARM GAS  C:\Users\BLACK_~1\AppData\Local\Temp\ccrhXwwe.s 			page 33


 977:c:/Users/Black_Life/STM32Cube/Repository/STM32Cube_FW_F4_V1.26.2/Middlewares/Third_Party/LwIP/src/core/ipv4\etharp.c ****   /* do we have a new entry? or an implicit query request? */
 978:c:/Users/Black_Life/STM32Cube/Repository/STM32Cube_FW_F4_V1.26.2/Middlewares/Third_Party/LwIP/src/core/ipv4\etharp.c ****   if (is_new_entry || (q == NULL)) {
 979:c:/Users/Black_Life/STM32Cube/Repository/STM32Cube_FW_F4_V1.26.2/Middlewares/Third_Party/LwIP/src/core/ipv4\etharp.c ****     /* try to resolve it; send out ARP request */
 980:c:/Users/Black_Life/STM32Cube/Repository/STM32Cube_FW_F4_V1.26.2/Middlewares/Third_Party/LwIP/src/core/ipv4\etharp.c ****     result = etharp_request(netif, ipaddr);
 981:c:/Users/Black_Life/STM32Cube/Repository/STM32Cube_FW_F4_V1.26.2/Middlewares/Third_Party/LwIP/src/core/ipv4\etharp.c ****     if (result != ERR_OK) {
 982:c:/Users/Black_Life/STM32Cube/Repository/STM32Cube_FW_F4_V1.26.2/Middlewares/Third_Party/LwIP/src/core/ipv4\etharp.c ****       /* ARP request couldn't be sent */
 983:c:/Users/Black_Life/STM32Cube/Repository/STM32Cube_FW_F4_V1.26.2/Middlewares/Third_Party/LwIP/src/core/ipv4\etharp.c ****       /* We don't re-send arp request in etharp_tmr, but we still queue packets,
 984:c:/Users/Black_Life/STM32Cube/Repository/STM32Cube_FW_F4_V1.26.2/Middlewares/Third_Party/LwIP/src/core/ipv4\etharp.c ****          since this failure could be temporary, and the next packet calling
 985:c:/Users/Black_Life/STM32Cube/Repository/STM32Cube_FW_F4_V1.26.2/Middlewares/Third_Party/LwIP/src/core/ipv4\etharp.c ****          etharp_query again could lead to sending the queued packets. */
 986:c:/Users/Black_Life/STM32Cube/Repository/STM32Cube_FW_F4_V1.26.2/Middlewares/Third_Party/LwIP/src/core/ipv4\etharp.c ****     }
 987:c:/Users/Black_Life/STM32Cube/Repository/STM32Cube_FW_F4_V1.26.2/Middlewares/Third_Party/LwIP/src/core/ipv4\etharp.c ****     if (q == NULL) {
 988:c:/Users/Black_Life/STM32Cube/Repository/STM32Cube_FW_F4_V1.26.2/Middlewares/Third_Party/LwIP/src/core/ipv4\etharp.c ****       return result;
 989:c:/Users/Black_Life/STM32Cube/Repository/STM32Cube_FW_F4_V1.26.2/Middlewares/Third_Party/LwIP/src/core/ipv4\etharp.c ****     }
 990:c:/Users/Black_Life/STM32Cube/Repository/STM32Cube_FW_F4_V1.26.2/Middlewares/Third_Party/LwIP/src/core/ipv4\etharp.c ****   }
 991:c:/Users/Black_Life/STM32Cube/Repository/STM32Cube_FW_F4_V1.26.2/Middlewares/Third_Party/LwIP/src/core/ipv4\etharp.c **** 
 992:c:/Users/Black_Life/STM32Cube/Repository/STM32Cube_FW_F4_V1.26.2/Middlewares/Third_Party/LwIP/src/core/ipv4\etharp.c ****   /* packet given? */
 993:c:/Users/Black_Life/STM32Cube/Repository/STM32Cube_FW_F4_V1.26.2/Middlewares/Third_Party/LwIP/src/core/ipv4\etharp.c ****   LWIP_ASSERT("q != NULL", q != NULL);
 994:c:/Users/Black_Life/STM32Cube/Repository/STM32Cube_FW_F4_V1.26.2/Middlewares/Third_Party/LwIP/src/core/ipv4\etharp.c ****   /* stable entry? */
 995:c:/Users/Black_Life/STM32Cube/Repository/STM32Cube_FW_F4_V1.26.2/Middlewares/Third_Party/LwIP/src/core/ipv4\etharp.c ****   if (arp_table[i].state >= ETHARP_STATE_STABLE) {
 996:c:/Users/Black_Life/STM32Cube/Repository/STM32Cube_FW_F4_V1.26.2/Middlewares/Third_Party/LwIP/src/core/ipv4\etharp.c ****     /* we have a valid IP->Ethernet address mapping */
 997:c:/Users/Black_Life/STM32Cube/Repository/STM32Cube_FW_F4_V1.26.2/Middlewares/Third_Party/LwIP/src/core/ipv4\etharp.c ****     ETHARP_SET_ADDRHINT(netif, i);
 998:c:/Users/Black_Life/STM32Cube/Repository/STM32Cube_FW_F4_V1.26.2/Middlewares/Third_Party/LwIP/src/core/ipv4\etharp.c ****     /* send the packet */
 999:c:/Users/Black_Life/STM32Cube/Repository/STM32Cube_FW_F4_V1.26.2/Middlewares/Third_Party/LwIP/src/core/ipv4\etharp.c ****     result = ethernet_output(netif, q, srcaddr, &(arp_table[i].ethaddr), ETHTYPE_IP);
1000:c:/Users/Black_Life/STM32Cube/Repository/STM32Cube_FW_F4_V1.26.2/Middlewares/Third_Party/LwIP/src/core/ipv4\etharp.c ****     /* pending entry? (either just created or already pending */
1001:c:/Users/Black_Life/STM32Cube/Repository/STM32Cube_FW_F4_V1.26.2/Middlewares/Third_Party/LwIP/src/core/ipv4\etharp.c ****   } else if (arp_table[i].state == ETHARP_STATE_PENDING) {
1002:c:/Users/Black_Life/STM32Cube/Repository/STM32Cube_FW_F4_V1.26.2/Middlewares/Third_Party/LwIP/src/core/ipv4\etharp.c ****     /* entry is still pending, queue the given packet 'q' */
1003:c:/Users/Black_Life/STM32Cube/Repository/STM32Cube_FW_F4_V1.26.2/Middlewares/Third_Party/LwIP/src/core/ipv4\etharp.c ****     struct pbuf *p;
1004:c:/Users/Black_Life/STM32Cube/Repository/STM32Cube_FW_F4_V1.26.2/Middlewares/Third_Party/LwIP/src/core/ipv4\etharp.c ****     int copy_needed = 0;
1005:c:/Users/Black_Life/STM32Cube/Repository/STM32Cube_FW_F4_V1.26.2/Middlewares/Third_Party/LwIP/src/core/ipv4\etharp.c ****     /* IF q includes a pbuf that must be copied, copy the whole chain into a
1006:c:/Users/Black_Life/STM32Cube/Repository/STM32Cube_FW_F4_V1.26.2/Middlewares/Third_Party/LwIP/src/core/ipv4\etharp.c ****      * new PBUF_RAM. See the definition of PBUF_NEEDS_COPY for details. */
1007:c:/Users/Black_Life/STM32Cube/Repository/STM32Cube_FW_F4_V1.26.2/Middlewares/Third_Party/LwIP/src/core/ipv4\etharp.c ****     p = q;
1008:c:/Users/Black_Life/STM32Cube/Repository/STM32Cube_FW_F4_V1.26.2/Middlewares/Third_Party/LwIP/src/core/ipv4\etharp.c ****     while (p) {
1009:c:/Users/Black_Life/STM32Cube/Repository/STM32Cube_FW_F4_V1.26.2/Middlewares/Third_Party/LwIP/src/core/ipv4\etharp.c ****       LWIP_ASSERT("no packet queues allowed!", (p->len != p->tot_len) || (p->next == 0));
1010:c:/Users/Black_Life/STM32Cube/Repository/STM32Cube_FW_F4_V1.26.2/Middlewares/Third_Party/LwIP/src/core/ipv4\etharp.c ****       if (PBUF_NEEDS_COPY(p)) {
1011:c:/Users/Black_Life/STM32Cube/Repository/STM32Cube_FW_F4_V1.26.2/Middlewares/Third_Party/LwIP/src/core/ipv4\etharp.c ****         copy_needed = 1;
1012:c:/Users/Black_Life/STM32Cube/Repository/STM32Cube_FW_F4_V1.26.2/Middlewares/Third_Party/LwIP/src/core/ipv4\etharp.c ****         break;
1013:c:/Users/Black_Life/STM32Cube/Repository/STM32Cube_FW_F4_V1.26.2/Middlewares/Third_Party/LwIP/src/core/ipv4\etharp.c ****       }
1014:c:/Users/Black_Life/STM32Cube/Repository/STM32Cube_FW_F4_V1.26.2/Middlewares/Third_Party/LwIP/src/core/ipv4\etharp.c ****       p = p->next;
1015:c:/Users/Black_Life/STM32Cube/Repository/STM32Cube_FW_F4_V1.26.2/Middlewares/Third_Party/LwIP/src/core/ipv4\etharp.c ****     }
1016:c:/Users/Black_Life/STM32Cube/Repository/STM32Cube_FW_F4_V1.26.2/Middlewares/Third_Party/LwIP/src/core/ipv4\etharp.c ****     if (copy_needed) {
1017:c:/Users/Black_Life/STM32Cube/Repository/STM32Cube_FW_F4_V1.26.2/Middlewares/Third_Party/LwIP/src/core/ipv4\etharp.c ****       /* copy the whole packet into new pbufs */
1018:c:/Users/Black_Life/STM32Cube/Repository/STM32Cube_FW_F4_V1.26.2/Middlewares/Third_Party/LwIP/src/core/ipv4\etharp.c ****       p = pbuf_clone(PBUF_LINK, PBUF_RAM, q);
1019:c:/Users/Black_Life/STM32Cube/Repository/STM32Cube_FW_F4_V1.26.2/Middlewares/Third_Party/LwIP/src/core/ipv4\etharp.c ****     } else {
1020:c:/Users/Black_Life/STM32Cube/Repository/STM32Cube_FW_F4_V1.26.2/Middlewares/Third_Party/LwIP/src/core/ipv4\etharp.c ****       /* referencing the old pbuf is enough */
1021:c:/Users/Black_Life/STM32Cube/Repository/STM32Cube_FW_F4_V1.26.2/Middlewares/Third_Party/LwIP/src/core/ipv4\etharp.c ****       p = q;
1022:c:/Users/Black_Life/STM32Cube/Repository/STM32Cube_FW_F4_V1.26.2/Middlewares/Third_Party/LwIP/src/core/ipv4\etharp.c ****       pbuf_ref(p);
1023:c:/Users/Black_Life/STM32Cube/Repository/STM32Cube_FW_F4_V1.26.2/Middlewares/Third_Party/LwIP/src/core/ipv4\etharp.c ****     }
1024:c:/Users/Black_Life/STM32Cube/Repository/STM32Cube_FW_F4_V1.26.2/Middlewares/Third_Party/LwIP/src/core/ipv4\etharp.c ****     /* packet could be taken over? */
1025:c:/Users/Black_Life/STM32Cube/Repository/STM32Cube_FW_F4_V1.26.2/Middlewares/Third_Party/LwIP/src/core/ipv4\etharp.c ****     if (p != NULL) {
1026:c:/Users/Black_Life/STM32Cube/Repository/STM32Cube_FW_F4_V1.26.2/Middlewares/Third_Party/LwIP/src/core/ipv4\etharp.c ****       /* queue packet ... */
1027:c:/Users/Black_Life/STM32Cube/Repository/STM32Cube_FW_F4_V1.26.2/Middlewares/Third_Party/LwIP/src/core/ipv4\etharp.c **** #if ARP_QUEUEING
1028:c:/Users/Black_Life/STM32Cube/Repository/STM32Cube_FW_F4_V1.26.2/Middlewares/Third_Party/LwIP/src/core/ipv4\etharp.c ****       struct etharp_q_entry *new_entry;
1029:c:/Users/Black_Life/STM32Cube/Repository/STM32Cube_FW_F4_V1.26.2/Middlewares/Third_Party/LwIP/src/core/ipv4\etharp.c ****       /* allocate a new arp queue entry */
1030:c:/Users/Black_Life/STM32Cube/Repository/STM32Cube_FW_F4_V1.26.2/Middlewares/Third_Party/LwIP/src/core/ipv4\etharp.c ****       new_entry = (struct etharp_q_entry *)memp_malloc(MEMP_ARP_QUEUE);
1031:c:/Users/Black_Life/STM32Cube/Repository/STM32Cube_FW_F4_V1.26.2/Middlewares/Third_Party/LwIP/src/core/ipv4\etharp.c ****       if (new_entry != NULL) {
1032:c:/Users/Black_Life/STM32Cube/Repository/STM32Cube_FW_F4_V1.26.2/Middlewares/Third_Party/LwIP/src/core/ipv4\etharp.c ****         unsigned int qlen = 0;
1033:c:/Users/Black_Life/STM32Cube/Repository/STM32Cube_FW_F4_V1.26.2/Middlewares/Third_Party/LwIP/src/core/ipv4\etharp.c ****         new_entry->next = 0;
ARM GAS  C:\Users\BLACK_~1\AppData\Local\Temp\ccrhXwwe.s 			page 34


1034:c:/Users/Black_Life/STM32Cube/Repository/STM32Cube_FW_F4_V1.26.2/Middlewares/Third_Party/LwIP/src/core/ipv4\etharp.c ****         new_entry->p = p;
1035:c:/Users/Black_Life/STM32Cube/Repository/STM32Cube_FW_F4_V1.26.2/Middlewares/Third_Party/LwIP/src/core/ipv4\etharp.c ****         if (arp_table[i].q != NULL) {
1036:c:/Users/Black_Life/STM32Cube/Repository/STM32Cube_FW_F4_V1.26.2/Middlewares/Third_Party/LwIP/src/core/ipv4\etharp.c ****           /* queue was already existent, append the new entry to the end */
1037:c:/Users/Black_Life/STM32Cube/Repository/STM32Cube_FW_F4_V1.26.2/Middlewares/Third_Party/LwIP/src/core/ipv4\etharp.c ****           struct etharp_q_entry *r;
1038:c:/Users/Black_Life/STM32Cube/Repository/STM32Cube_FW_F4_V1.26.2/Middlewares/Third_Party/LwIP/src/core/ipv4\etharp.c ****           r = arp_table[i].q;
1039:c:/Users/Black_Life/STM32Cube/Repository/STM32Cube_FW_F4_V1.26.2/Middlewares/Third_Party/LwIP/src/core/ipv4\etharp.c ****           qlen++;
1040:c:/Users/Black_Life/STM32Cube/Repository/STM32Cube_FW_F4_V1.26.2/Middlewares/Third_Party/LwIP/src/core/ipv4\etharp.c ****           while (r->next != NULL) {
1041:c:/Users/Black_Life/STM32Cube/Repository/STM32Cube_FW_F4_V1.26.2/Middlewares/Third_Party/LwIP/src/core/ipv4\etharp.c ****             r = r->next;
1042:c:/Users/Black_Life/STM32Cube/Repository/STM32Cube_FW_F4_V1.26.2/Middlewares/Third_Party/LwIP/src/core/ipv4\etharp.c ****             qlen++;
1043:c:/Users/Black_Life/STM32Cube/Repository/STM32Cube_FW_F4_V1.26.2/Middlewares/Third_Party/LwIP/src/core/ipv4\etharp.c ****           }
1044:c:/Users/Black_Life/STM32Cube/Repository/STM32Cube_FW_F4_V1.26.2/Middlewares/Third_Party/LwIP/src/core/ipv4\etharp.c ****           r->next = new_entry;
1045:c:/Users/Black_Life/STM32Cube/Repository/STM32Cube_FW_F4_V1.26.2/Middlewares/Third_Party/LwIP/src/core/ipv4\etharp.c ****         } else {
1046:c:/Users/Black_Life/STM32Cube/Repository/STM32Cube_FW_F4_V1.26.2/Middlewares/Third_Party/LwIP/src/core/ipv4\etharp.c ****           /* queue did not exist, first item in queue */
1047:c:/Users/Black_Life/STM32Cube/Repository/STM32Cube_FW_F4_V1.26.2/Middlewares/Third_Party/LwIP/src/core/ipv4\etharp.c ****           arp_table[i].q = new_entry;
1048:c:/Users/Black_Life/STM32Cube/Repository/STM32Cube_FW_F4_V1.26.2/Middlewares/Third_Party/LwIP/src/core/ipv4\etharp.c ****         }
1049:c:/Users/Black_Life/STM32Cube/Repository/STM32Cube_FW_F4_V1.26.2/Middlewares/Third_Party/LwIP/src/core/ipv4\etharp.c **** #if ARP_QUEUE_LEN
1050:c:/Users/Black_Life/STM32Cube/Repository/STM32Cube_FW_F4_V1.26.2/Middlewares/Third_Party/LwIP/src/core/ipv4\etharp.c ****         if (qlen >= ARP_QUEUE_LEN) {
1051:c:/Users/Black_Life/STM32Cube/Repository/STM32Cube_FW_F4_V1.26.2/Middlewares/Third_Party/LwIP/src/core/ipv4\etharp.c ****           struct etharp_q_entry *old;
1052:c:/Users/Black_Life/STM32Cube/Repository/STM32Cube_FW_F4_V1.26.2/Middlewares/Third_Party/LwIP/src/core/ipv4\etharp.c ****           old = arp_table[i].q;
1053:c:/Users/Black_Life/STM32Cube/Repository/STM32Cube_FW_F4_V1.26.2/Middlewares/Third_Party/LwIP/src/core/ipv4\etharp.c ****           arp_table[i].q = arp_table[i].q->next;
1054:c:/Users/Black_Life/STM32Cube/Repository/STM32Cube_FW_F4_V1.26.2/Middlewares/Third_Party/LwIP/src/core/ipv4\etharp.c ****           pbuf_free(old->p);
1055:c:/Users/Black_Life/STM32Cube/Repository/STM32Cube_FW_F4_V1.26.2/Middlewares/Third_Party/LwIP/src/core/ipv4\etharp.c ****           memp_free(MEMP_ARP_QUEUE, old);
1056:c:/Users/Black_Life/STM32Cube/Repository/STM32Cube_FW_F4_V1.26.2/Middlewares/Third_Party/LwIP/src/core/ipv4\etharp.c ****         }
1057:c:/Users/Black_Life/STM32Cube/Repository/STM32Cube_FW_F4_V1.26.2/Middlewares/Third_Party/LwIP/src/core/ipv4\etharp.c **** #endif
1058:c:/Users/Black_Life/STM32Cube/Repository/STM32Cube_FW_F4_V1.26.2/Middlewares/Third_Party/LwIP/src/core/ipv4\etharp.c ****         LWIP_DEBUGF(ETHARP_DEBUG | LWIP_DBG_TRACE, ("etharp_query: queued packet %p on ARP entry %"
1059:c:/Users/Black_Life/STM32Cube/Repository/STM32Cube_FW_F4_V1.26.2/Middlewares/Third_Party/LwIP/src/core/ipv4\etharp.c ****         result = ERR_OK;
1060:c:/Users/Black_Life/STM32Cube/Repository/STM32Cube_FW_F4_V1.26.2/Middlewares/Third_Party/LwIP/src/core/ipv4\etharp.c ****       } else {
1061:c:/Users/Black_Life/STM32Cube/Repository/STM32Cube_FW_F4_V1.26.2/Middlewares/Third_Party/LwIP/src/core/ipv4\etharp.c ****         /* the pool MEMP_ARP_QUEUE is empty */
1062:c:/Users/Black_Life/STM32Cube/Repository/STM32Cube_FW_F4_V1.26.2/Middlewares/Third_Party/LwIP/src/core/ipv4\etharp.c ****         pbuf_free(p);
1063:c:/Users/Black_Life/STM32Cube/Repository/STM32Cube_FW_F4_V1.26.2/Middlewares/Third_Party/LwIP/src/core/ipv4\etharp.c ****         LWIP_DEBUGF(ETHARP_DEBUG | LWIP_DBG_TRACE, ("etharp_query: could not queue a copy of PBUF_R
1064:c:/Users/Black_Life/STM32Cube/Repository/STM32Cube_FW_F4_V1.26.2/Middlewares/Third_Party/LwIP/src/core/ipv4\etharp.c ****         result = ERR_MEM;
1065:c:/Users/Black_Life/STM32Cube/Repository/STM32Cube_FW_F4_V1.26.2/Middlewares/Third_Party/LwIP/src/core/ipv4\etharp.c ****       }
1066:c:/Users/Black_Life/STM32Cube/Repository/STM32Cube_FW_F4_V1.26.2/Middlewares/Third_Party/LwIP/src/core/ipv4\etharp.c **** #else /* ARP_QUEUEING */
1067:c:/Users/Black_Life/STM32Cube/Repository/STM32Cube_FW_F4_V1.26.2/Middlewares/Third_Party/LwIP/src/core/ipv4\etharp.c ****       /* always queue one packet per ARP request only, freeing a previously queued packet */
1068:c:/Users/Black_Life/STM32Cube/Repository/STM32Cube_FW_F4_V1.26.2/Middlewares/Third_Party/LwIP/src/core/ipv4\etharp.c ****       if (arp_table[i].q != NULL) {
1069:c:/Users/Black_Life/STM32Cube/Repository/STM32Cube_FW_F4_V1.26.2/Middlewares/Third_Party/LwIP/src/core/ipv4\etharp.c ****         LWIP_DEBUGF(ETHARP_DEBUG | LWIP_DBG_TRACE, ("etharp_query: dropped previously queued packet
1070:c:/Users/Black_Life/STM32Cube/Repository/STM32Cube_FW_F4_V1.26.2/Middlewares/Third_Party/LwIP/src/core/ipv4\etharp.c ****         pbuf_free(arp_table[i].q);
1071:c:/Users/Black_Life/STM32Cube/Repository/STM32Cube_FW_F4_V1.26.2/Middlewares/Third_Party/LwIP/src/core/ipv4\etharp.c ****       }
1072:c:/Users/Black_Life/STM32Cube/Repository/STM32Cube_FW_F4_V1.26.2/Middlewares/Third_Party/LwIP/src/core/ipv4\etharp.c ****       arp_table[i].q = p;
1073:c:/Users/Black_Life/STM32Cube/Repository/STM32Cube_FW_F4_V1.26.2/Middlewares/Third_Party/LwIP/src/core/ipv4\etharp.c ****       result = ERR_OK;
1074:c:/Users/Black_Life/STM32Cube/Repository/STM32Cube_FW_F4_V1.26.2/Middlewares/Third_Party/LwIP/src/core/ipv4\etharp.c ****       LWIP_DEBUGF(ETHARP_DEBUG | LWIP_DBG_TRACE, ("etharp_query: queued packet %p on ARP entry %"U1
1075:c:/Users/Black_Life/STM32Cube/Repository/STM32Cube_FW_F4_V1.26.2/Middlewares/Third_Party/LwIP/src/core/ipv4\etharp.c **** #endif /* ARP_QUEUEING */
1076:c:/Users/Black_Life/STM32Cube/Repository/STM32Cube_FW_F4_V1.26.2/Middlewares/Third_Party/LwIP/src/core/ipv4\etharp.c ****     } else {
1077:c:/Users/Black_Life/STM32Cube/Repository/STM32Cube_FW_F4_V1.26.2/Middlewares/Third_Party/LwIP/src/core/ipv4\etharp.c ****       ETHARP_STATS_INC(etharp.memerr);
1078:c:/Users/Black_Life/STM32Cube/Repository/STM32Cube_FW_F4_V1.26.2/Middlewares/Third_Party/LwIP/src/core/ipv4\etharp.c ****       LWIP_DEBUGF(ETHARP_DEBUG | LWIP_DBG_TRACE, ("etharp_query: could not queue a copy of PBUF_REF
1079:c:/Users/Black_Life/STM32Cube/Repository/STM32Cube_FW_F4_V1.26.2/Middlewares/Third_Party/LwIP/src/core/ipv4\etharp.c ****       result = ERR_MEM;
1080:c:/Users/Black_Life/STM32Cube/Repository/STM32Cube_FW_F4_V1.26.2/Middlewares/Third_Party/LwIP/src/core/ipv4\etharp.c ****     }
1081:c:/Users/Black_Life/STM32Cube/Repository/STM32Cube_FW_F4_V1.26.2/Middlewares/Third_Party/LwIP/src/core/ipv4\etharp.c ****   }
1082:c:/Users/Black_Life/STM32Cube/Repository/STM32Cube_FW_F4_V1.26.2/Middlewares/Third_Party/LwIP/src/core/ipv4\etharp.c ****   return result;
1083:c:/Users/Black_Life/STM32Cube/Repository/STM32Cube_FW_F4_V1.26.2/Middlewares/Third_Party/LwIP/src/core/ipv4\etharp.c **** }
1084:c:/Users/Black_Life/STM32Cube/Repository/STM32Cube_FW_F4_V1.26.2/Middlewares/Third_Party/LwIP/src/core/ipv4\etharp.c **** 
1085:c:/Users/Black_Life/STM32Cube/Repository/STM32Cube_FW_F4_V1.26.2/Middlewares/Third_Party/LwIP/src/core/ipv4\etharp.c **** /**
1086:c:/Users/Black_Life/STM32Cube/Repository/STM32Cube_FW_F4_V1.26.2/Middlewares/Third_Party/LwIP/src/core/ipv4\etharp.c ****  * Send a raw ARP packet (opcode and all addresses can be modified)
1087:c:/Users/Black_Life/STM32Cube/Repository/STM32Cube_FW_F4_V1.26.2/Middlewares/Third_Party/LwIP/src/core/ipv4\etharp.c ****  *
1088:c:/Users/Black_Life/STM32Cube/Repository/STM32Cube_FW_F4_V1.26.2/Middlewares/Third_Party/LwIP/src/core/ipv4\etharp.c ****  * @param netif the lwip network interface on which to send the ARP packet
1089:c:/Users/Black_Life/STM32Cube/Repository/STM32Cube_FW_F4_V1.26.2/Middlewares/Third_Party/LwIP/src/core/ipv4\etharp.c ****  * @param ethsrc_addr the source MAC address for the ethernet header
1090:c:/Users/Black_Life/STM32Cube/Repository/STM32Cube_FW_F4_V1.26.2/Middlewares/Third_Party/LwIP/src/core/ipv4\etharp.c ****  * @param ethdst_addr the destination MAC address for the ethernet header
ARM GAS  C:\Users\BLACK_~1\AppData\Local\Temp\ccrhXwwe.s 			page 35


1091:c:/Users/Black_Life/STM32Cube/Repository/STM32Cube_FW_F4_V1.26.2/Middlewares/Third_Party/LwIP/src/core/ipv4\etharp.c ****  * @param hwsrc_addr the source MAC address for the ARP protocol header
1092:c:/Users/Black_Life/STM32Cube/Repository/STM32Cube_FW_F4_V1.26.2/Middlewares/Third_Party/LwIP/src/core/ipv4\etharp.c ****  * @param ipsrc_addr the source IP address for the ARP protocol header
1093:c:/Users/Black_Life/STM32Cube/Repository/STM32Cube_FW_F4_V1.26.2/Middlewares/Third_Party/LwIP/src/core/ipv4\etharp.c ****  * @param hwdst_addr the destination MAC address for the ARP protocol header
1094:c:/Users/Black_Life/STM32Cube/Repository/STM32Cube_FW_F4_V1.26.2/Middlewares/Third_Party/LwIP/src/core/ipv4\etharp.c ****  * @param ipdst_addr the destination IP address for the ARP protocol header
1095:c:/Users/Black_Life/STM32Cube/Repository/STM32Cube_FW_F4_V1.26.2/Middlewares/Third_Party/LwIP/src/core/ipv4\etharp.c ****  * @param opcode the type of the ARP packet
1096:c:/Users/Black_Life/STM32Cube/Repository/STM32Cube_FW_F4_V1.26.2/Middlewares/Third_Party/LwIP/src/core/ipv4\etharp.c ****  * @return ERR_OK if the ARP packet has been sent
1097:c:/Users/Black_Life/STM32Cube/Repository/STM32Cube_FW_F4_V1.26.2/Middlewares/Third_Party/LwIP/src/core/ipv4\etharp.c ****  *         ERR_MEM if the ARP packet couldn't be allocated
1098:c:/Users/Black_Life/STM32Cube/Repository/STM32Cube_FW_F4_V1.26.2/Middlewares/Third_Party/LwIP/src/core/ipv4\etharp.c ****  *         any other err_t on failure
1099:c:/Users/Black_Life/STM32Cube/Repository/STM32Cube_FW_F4_V1.26.2/Middlewares/Third_Party/LwIP/src/core/ipv4\etharp.c ****  */
1100:c:/Users/Black_Life/STM32Cube/Repository/STM32Cube_FW_F4_V1.26.2/Middlewares/Third_Party/LwIP/src/core/ipv4\etharp.c **** static err_t
1101:c:/Users/Black_Life/STM32Cube/Repository/STM32Cube_FW_F4_V1.26.2/Middlewares/Third_Party/LwIP/src/core/ipv4\etharp.c **** etharp_raw(struct netif *netif, const struct eth_addr *ethsrc_addr,
1102:c:/Users/Black_Life/STM32Cube/Repository/STM32Cube_FW_F4_V1.26.2/Middlewares/Third_Party/LwIP/src/core/ipv4\etharp.c ****            const struct eth_addr *ethdst_addr,
1103:c:/Users/Black_Life/STM32Cube/Repository/STM32Cube_FW_F4_V1.26.2/Middlewares/Third_Party/LwIP/src/core/ipv4\etharp.c ****            const struct eth_addr *hwsrc_addr, const ip4_addr_t *ipsrc_addr,
1104:c:/Users/Black_Life/STM32Cube/Repository/STM32Cube_FW_F4_V1.26.2/Middlewares/Third_Party/LwIP/src/core/ipv4\etharp.c ****            const struct eth_addr *hwdst_addr, const ip4_addr_t *ipdst_addr,
1105:c:/Users/Black_Life/STM32Cube/Repository/STM32Cube_FW_F4_V1.26.2/Middlewares/Third_Party/LwIP/src/core/ipv4\etharp.c ****            const u16_t opcode)
1106:c:/Users/Black_Life/STM32Cube/Repository/STM32Cube_FW_F4_V1.26.2/Middlewares/Third_Party/LwIP/src/core/ipv4\etharp.c **** {
 730              		.loc 1 1106 1 is_stmt 1 view -0
 731              		.cfi_startproc
 732              		@ args = 16, pretend = 0, frame = 0
 733              		@ frame_needed = 0, uses_anonymous_args = 0
 734              		.loc 1 1106 1 is_stmt 0 view .LVU203
 735 0000 2DE9F047 		push	{r4, r5, r6, r7, r8, r9, r10, lr}
 736              	.LCFI9:
 737              		.cfi_def_cfa_offset 32
 738              		.cfi_offset 4, -32
 739              		.cfi_offset 5, -28
 740              		.cfi_offset 6, -24
 741              		.cfi_offset 7, -20
 742              		.cfi_offset 8, -16
 743              		.cfi_offset 9, -12
 744              		.cfi_offset 10, -8
 745              		.cfi_offset 14, -4
 746 0004 82B0     		sub	sp, sp, #8
 747              	.LCFI10:
 748              		.cfi_def_cfa_offset 40
 749 0006 0F46     		mov	r7, r1
 750 0008 9046     		mov	r8, r2
 751 000a 1D46     		mov	r5, r3
 752 000c DDF82CA0 		ldr	r10, [sp, #44]
1107:c:/Users/Black_Life/STM32Cube/Repository/STM32Cube_FW_F4_V1.26.2/Middlewares/Third_Party/LwIP/src/core/ipv4\etharp.c ****   struct pbuf *p;
 753              		.loc 1 1107 3 is_stmt 1 view .LVU204
1108:c:/Users/Black_Life/STM32Cube/Repository/STM32Cube_FW_F4_V1.26.2/Middlewares/Third_Party/LwIP/src/core/ipv4\etharp.c ****   err_t result = ERR_OK;
 754              		.loc 1 1108 3 view .LVU205
 755              	.LVL67:
1109:c:/Users/Black_Life/STM32Cube/Repository/STM32Cube_FW_F4_V1.26.2/Middlewares/Third_Party/LwIP/src/core/ipv4\etharp.c ****   struct etharp_hdr *hdr;
 756              		.loc 1 1109 3 view .LVU206
1110:c:/Users/Black_Life/STM32Cube/Repository/STM32Cube_FW_F4_V1.26.2/Middlewares/Third_Party/LwIP/src/core/ipv4\etharp.c **** 
1111:c:/Users/Black_Life/STM32Cube/Repository/STM32Cube_FW_F4_V1.26.2/Middlewares/Third_Party/LwIP/src/core/ipv4\etharp.c ****   LWIP_ASSERT("netif != NULL", netif != NULL);
 757              		.loc 1 1111 3 view .LVU207
 758              		.loc 1 1111 3 view .LVU208
 759 0010 8146     		mov	r9, r0
 760 0012 0028     		cmp	r0, #0
 761 0014 42D0     		beq	.L64
 762              	.LVL68:
 763              	.L58:
 764              		.loc 1 1111 3 discriminator 3 view .LVU209
 765              		.loc 1 1111 3 discriminator 3 view .LVU210
ARM GAS  C:\Users\BLACK_~1\AppData\Local\Temp\ccrhXwwe.s 			page 36


1112:c:/Users/Black_Life/STM32Cube/Repository/STM32Cube_FW_F4_V1.26.2/Middlewares/Third_Party/LwIP/src/core/ipv4\etharp.c **** 
1113:c:/Users/Black_Life/STM32Cube/Repository/STM32Cube_FW_F4_V1.26.2/Middlewares/Third_Party/LwIP/src/core/ipv4\etharp.c ****   /* allocate a pbuf for the outgoing ARP request packet */
1114:c:/Users/Black_Life/STM32Cube/Repository/STM32Cube_FW_F4_V1.26.2/Middlewares/Third_Party/LwIP/src/core/ipv4\etharp.c ****   p = pbuf_alloc(PBUF_LINK, SIZEOF_ETHARP_HDR, PBUF_RAM);
 766              		.loc 1 1114 3 discriminator 3 view .LVU211
 767              		.loc 1 1114 7 is_stmt 0 discriminator 3 view .LVU212
 768 0016 4FF42072 		mov	r2, #640
 769 001a 1C21     		movs	r1, #28
 770 001c 0E20     		movs	r0, #14
 771 001e FFF7FEFF 		bl	pbuf_alloc
 772              	.LVL69:
1115:c:/Users/Black_Life/STM32Cube/Repository/STM32Cube_FW_F4_V1.26.2/Middlewares/Third_Party/LwIP/src/core/ipv4\etharp.c ****   /* could allocate a pbuf for an ARP request? */
1116:c:/Users/Black_Life/STM32Cube/Repository/STM32Cube_FW_F4_V1.26.2/Middlewares/Third_Party/LwIP/src/core/ipv4\etharp.c ****   if (p == NULL) {
 773              		.loc 1 1116 3 is_stmt 1 discriminator 3 view .LVU213
 774              		.loc 1 1116 6 is_stmt 0 discriminator 3 view .LVU214
 775 0022 0646     		mov	r6, r0
 776 0024 0028     		cmp	r0, #0
 777 0026 51D0     		beq	.L62
1117:c:/Users/Black_Life/STM32Cube/Repository/STM32Cube_FW_F4_V1.26.2/Middlewares/Third_Party/LwIP/src/core/ipv4\etharp.c ****     LWIP_DEBUGF(ETHARP_DEBUG | LWIP_DBG_TRACE | LWIP_DBG_LEVEL_SERIOUS,
1118:c:/Users/Black_Life/STM32Cube/Repository/STM32Cube_FW_F4_V1.26.2/Middlewares/Third_Party/LwIP/src/core/ipv4\etharp.c ****                 ("etharp_raw: could not allocate pbuf for ARP request.\n"));
1119:c:/Users/Black_Life/STM32Cube/Repository/STM32Cube_FW_F4_V1.26.2/Middlewares/Third_Party/LwIP/src/core/ipv4\etharp.c ****     ETHARP_STATS_INC(etharp.memerr);
1120:c:/Users/Black_Life/STM32Cube/Repository/STM32Cube_FW_F4_V1.26.2/Middlewares/Third_Party/LwIP/src/core/ipv4\etharp.c ****     return ERR_MEM;
1121:c:/Users/Black_Life/STM32Cube/Repository/STM32Cube_FW_F4_V1.26.2/Middlewares/Third_Party/LwIP/src/core/ipv4\etharp.c ****   }
1122:c:/Users/Black_Life/STM32Cube/Repository/STM32Cube_FW_F4_V1.26.2/Middlewares/Third_Party/LwIP/src/core/ipv4\etharp.c ****   LWIP_ASSERT("check that first pbuf can hold struct etharp_hdr",
 778              		.loc 1 1122 3 is_stmt 1 view .LVU215
 779              		.loc 1 1122 3 view .LVU216
 780 0028 4389     		ldrh	r3, [r0, #10]
 781 002a 1B2B     		cmp	r3, #27
 782 002c 3ED9     		bls	.L65
 783              	.LVL70:
 784              	.L60:
 785              		.loc 1 1122 3 discriminator 3 view .LVU217
 786              		.loc 1 1122 3 discriminator 3 view .LVU218
1123:c:/Users/Black_Life/STM32Cube/Repository/STM32Cube_FW_F4_V1.26.2/Middlewares/Third_Party/LwIP/src/core/ipv4\etharp.c ****               (p->len >= SIZEOF_ETHARP_HDR));
1124:c:/Users/Black_Life/STM32Cube/Repository/STM32Cube_FW_F4_V1.26.2/Middlewares/Third_Party/LwIP/src/core/ipv4\etharp.c **** 
1125:c:/Users/Black_Life/STM32Cube/Repository/STM32Cube_FW_F4_V1.26.2/Middlewares/Third_Party/LwIP/src/core/ipv4\etharp.c ****   hdr = (struct etharp_hdr *)p->payload;
 787              		.loc 1 1125 3 discriminator 3 view .LVU219
 788              		.loc 1 1125 7 is_stmt 0 discriminator 3 view .LVU220
 789 002e 7468     		ldr	r4, [r6, #4]
 790              	.LVL71:
1126:c:/Users/Black_Life/STM32Cube/Repository/STM32Cube_FW_F4_V1.26.2/Middlewares/Third_Party/LwIP/src/core/ipv4\etharp.c ****   LWIP_DEBUGF(ETHARP_DEBUG | LWIP_DBG_TRACE, ("etharp_raw: sending raw ARP packet.\n"));
 791              		.loc 1 1126 88 is_stmt 1 discriminator 3 view .LVU221
1127:c:/Users/Black_Life/STM32Cube/Repository/STM32Cube_FW_F4_V1.26.2/Middlewares/Third_Party/LwIP/src/core/ipv4\etharp.c ****   hdr->opcode = lwip_htons(opcode);
 792              		.loc 1 1127 3 discriminator 3 view .LVU222
 793              		.loc 1 1127 17 is_stmt 0 discriminator 3 view .LVU223
 794 0030 BDF83400 		ldrh	r0, [sp, #52]
 795 0034 FFF7FEFF 		bl	lwip_htons
 796              	.LVL72:
 797              		.loc 1 1127 15 discriminator 3 view .LVU224
 798 0038 E080     		strh	r0, [r4, #6]	@ unaligned
1128:c:/Users/Black_Life/STM32Cube/Repository/STM32Cube_FW_F4_V1.26.2/Middlewares/Third_Party/LwIP/src/core/ipv4\etharp.c **** 
1129:c:/Users/Black_Life/STM32Cube/Repository/STM32Cube_FW_F4_V1.26.2/Middlewares/Third_Party/LwIP/src/core/ipv4\etharp.c ****   LWIP_ASSERT("netif->hwaddr_len must be the same as ETH_HWADDR_LEN for etharp!",
 799              		.loc 1 1129 3 is_stmt 1 discriminator 3 view .LVU225
 800              		.loc 1 1129 3 discriminator 3 view .LVU226
 801 003a 99F83030 		ldrb	r3, [r9, #48]	@ zero_extendqisi2
 802 003e 062B     		cmp	r3, #6
 803 0040 3CD1     		bne	.L66
 804              	.L61:
ARM GAS  C:\Users\BLACK_~1\AppData\Local\Temp\ccrhXwwe.s 			page 37


 805              		.loc 1 1129 3 discriminator 3 view .LVU227
 806              		.loc 1 1129 3 discriminator 3 view .LVU228
1130:c:/Users/Black_Life/STM32Cube/Repository/STM32Cube_FW_F4_V1.26.2/Middlewares/Third_Party/LwIP/src/core/ipv4\etharp.c ****               (netif->hwaddr_len == ETH_HWADDR_LEN));
1131:c:/Users/Black_Life/STM32Cube/Repository/STM32Cube_FW_F4_V1.26.2/Middlewares/Third_Party/LwIP/src/core/ipv4\etharp.c **** 
1132:c:/Users/Black_Life/STM32Cube/Repository/STM32Cube_FW_F4_V1.26.2/Middlewares/Third_Party/LwIP/src/core/ipv4\etharp.c ****   /* Write the ARP MAC-Addresses */
1133:c:/Users/Black_Life/STM32Cube/Repository/STM32Cube_FW_F4_V1.26.2/Middlewares/Third_Party/LwIP/src/core/ipv4\etharp.c ****   SMEMCPY(&hdr->shwaddr, hwsrc_addr, ETH_HWADDR_LEN);
 807              		.loc 1 1133 3 discriminator 3 view .LVU229
 808 0042 2B68     		ldr	r3, [r5]	@ unaligned
 809 0044 A360     		str	r3, [r4, #8]	@ unaligned
 810 0046 AB88     		ldrh	r3, [r5, #4]	@ unaligned
 811 0048 A381     		strh	r3, [r4, #12]	@ unaligned
1134:c:/Users/Black_Life/STM32Cube/Repository/STM32Cube_FW_F4_V1.26.2/Middlewares/Third_Party/LwIP/src/core/ipv4\etharp.c ****   SMEMCPY(&hdr->dhwaddr, hwdst_addr, ETH_HWADDR_LEN);
 812              		.loc 1 1134 3 discriminator 3 view .LVU230
 813 004a DAF80030 		ldr	r3, [r10]	@ unaligned
 814 004e C4F81230 		str	r3, [r4, #18]	@ unaligned
 815 0052 BAF80430 		ldrh	r3, [r10, #4]	@ unaligned
 816 0056 E382     		strh	r3, [r4, #22]	@ unaligned
1135:c:/Users/Black_Life/STM32Cube/Repository/STM32Cube_FW_F4_V1.26.2/Middlewares/Third_Party/LwIP/src/core/ipv4\etharp.c ****   /* Copy struct ip4_addr_wordaligned to aligned ip4_addr, to support compilers without
1136:c:/Users/Black_Life/STM32Cube/Repository/STM32Cube_FW_F4_V1.26.2/Middlewares/Third_Party/LwIP/src/core/ipv4\etharp.c ****    * structure packing. */
1137:c:/Users/Black_Life/STM32Cube/Repository/STM32Cube_FW_F4_V1.26.2/Middlewares/Third_Party/LwIP/src/core/ipv4\etharp.c ****   IPADDR_WORDALIGNED_COPY_FROM_IP4_ADDR_T(&hdr->sipaddr, ipsrc_addr);
 817              		.loc 1 1137 3 discriminator 3 view .LVU231
 818 0058 0A9B     		ldr	r3, [sp, #40]
 819 005a 1B68     		ldr	r3, [r3]	@ unaligned
 820 005c C4F80E30 		str	r3, [r4, #14]	@ unaligned
1138:c:/Users/Black_Life/STM32Cube/Repository/STM32Cube_FW_F4_V1.26.2/Middlewares/Third_Party/LwIP/src/core/ipv4\etharp.c ****   IPADDR_WORDALIGNED_COPY_FROM_IP4_ADDR_T(&hdr->dipaddr, ipdst_addr);
 821              		.loc 1 1138 3 discriminator 3 view .LVU232
 822 0060 0C9B     		ldr	r3, [sp, #48]
 823 0062 1B68     		ldr	r3, [r3]	@ unaligned
 824 0064 A361     		str	r3, [r4, #24]	@ unaligned
1139:c:/Users/Black_Life/STM32Cube/Repository/STM32Cube_FW_F4_V1.26.2/Middlewares/Third_Party/LwIP/src/core/ipv4\etharp.c **** 
1140:c:/Users/Black_Life/STM32Cube/Repository/STM32Cube_FW_F4_V1.26.2/Middlewares/Third_Party/LwIP/src/core/ipv4\etharp.c ****   hdr->hwtype = PP_HTONS(LWIP_IANA_HWTYPE_ETHERNET);
 825              		.loc 1 1140 3 discriminator 3 view .LVU233
 826              		.loc 1 1140 15 is_stmt 0 discriminator 3 view .LVU234
 827 0066 0025     		movs	r5, #0
 828              	.LVL73:
 829              		.loc 1 1140 15 discriminator 3 view .LVU235
 830 0068 2570     		strb	r5, [r4]
 831 006a 0123     		movs	r3, #1
 832 006c 6370     		strb	r3, [r4, #1]
1141:c:/Users/Black_Life/STM32Cube/Repository/STM32Cube_FW_F4_V1.26.2/Middlewares/Third_Party/LwIP/src/core/ipv4\etharp.c ****   hdr->proto = PP_HTONS(ETHTYPE_IP);
 833              		.loc 1 1141 3 is_stmt 1 discriminator 3 view .LVU236
 834              		.loc 1 1141 14 is_stmt 0 discriminator 3 view .LVU237
 835 006e 0823     		movs	r3, #8
 836 0070 A370     		strb	r3, [r4, #2]
 837 0072 E570     		strb	r5, [r4, #3]
1142:c:/Users/Black_Life/STM32Cube/Repository/STM32Cube_FW_F4_V1.26.2/Middlewares/Third_Party/LwIP/src/core/ipv4\etharp.c ****   /* set hwlen and protolen */
1143:c:/Users/Black_Life/STM32Cube/Repository/STM32Cube_FW_F4_V1.26.2/Middlewares/Third_Party/LwIP/src/core/ipv4\etharp.c ****   hdr->hwlen = ETH_HWADDR_LEN;
 838              		.loc 1 1143 3 is_stmt 1 discriminator 3 view .LVU238
 839              		.loc 1 1143 14 is_stmt 0 discriminator 3 view .LVU239
 840 0074 0623     		movs	r3, #6
 841 0076 2371     		strb	r3, [r4, #4]
1144:c:/Users/Black_Life/STM32Cube/Repository/STM32Cube_FW_F4_V1.26.2/Middlewares/Third_Party/LwIP/src/core/ipv4\etharp.c ****   hdr->protolen = sizeof(ip4_addr_t);
 842              		.loc 1 1144 3 is_stmt 1 discriminator 3 view .LVU240
 843              		.loc 1 1144 17 is_stmt 0 discriminator 3 view .LVU241
 844 0078 0423     		movs	r3, #4
 845 007a 6371     		strb	r3, [r4, #5]
1145:c:/Users/Black_Life/STM32Cube/Repository/STM32Cube_FW_F4_V1.26.2/Middlewares/Third_Party/LwIP/src/core/ipv4\etharp.c **** 
ARM GAS  C:\Users\BLACK_~1\AppData\Local\Temp\ccrhXwwe.s 			page 38


1146:c:/Users/Black_Life/STM32Cube/Repository/STM32Cube_FW_F4_V1.26.2/Middlewares/Third_Party/LwIP/src/core/ipv4\etharp.c ****   /* send ARP query */
1147:c:/Users/Black_Life/STM32Cube/Repository/STM32Cube_FW_F4_V1.26.2/Middlewares/Third_Party/LwIP/src/core/ipv4\etharp.c **** #if LWIP_AUTOIP
1148:c:/Users/Black_Life/STM32Cube/Repository/STM32Cube_FW_F4_V1.26.2/Middlewares/Third_Party/LwIP/src/core/ipv4\etharp.c ****   /* If we are using Link-Local, all ARP packets that contain a Link-Local
1149:c:/Users/Black_Life/STM32Cube/Repository/STM32Cube_FW_F4_V1.26.2/Middlewares/Third_Party/LwIP/src/core/ipv4\etharp.c ****    * 'sender IP address' MUST be sent using link-layer broadcast instead of
1150:c:/Users/Black_Life/STM32Cube/Repository/STM32Cube_FW_F4_V1.26.2/Middlewares/Third_Party/LwIP/src/core/ipv4\etharp.c ****    * link-layer unicast. (See RFC3927 Section 2.5, last paragraph) */
1151:c:/Users/Black_Life/STM32Cube/Repository/STM32Cube_FW_F4_V1.26.2/Middlewares/Third_Party/LwIP/src/core/ipv4\etharp.c ****   if (ip4_addr_islinklocal(ipsrc_addr)) {
1152:c:/Users/Black_Life/STM32Cube/Repository/STM32Cube_FW_F4_V1.26.2/Middlewares/Third_Party/LwIP/src/core/ipv4\etharp.c ****     ethernet_output(netif, p, ethsrc_addr, &ethbroadcast, ETHTYPE_ARP);
1153:c:/Users/Black_Life/STM32Cube/Repository/STM32Cube_FW_F4_V1.26.2/Middlewares/Third_Party/LwIP/src/core/ipv4\etharp.c ****   } else
1154:c:/Users/Black_Life/STM32Cube/Repository/STM32Cube_FW_F4_V1.26.2/Middlewares/Third_Party/LwIP/src/core/ipv4\etharp.c **** #endif /* LWIP_AUTOIP */
1155:c:/Users/Black_Life/STM32Cube/Repository/STM32Cube_FW_F4_V1.26.2/Middlewares/Third_Party/LwIP/src/core/ipv4\etharp.c ****   {
1156:c:/Users/Black_Life/STM32Cube/Repository/STM32Cube_FW_F4_V1.26.2/Middlewares/Third_Party/LwIP/src/core/ipv4\etharp.c ****     ethernet_output(netif, p, ethsrc_addr, ethdst_addr, ETHTYPE_ARP);
 846              		.loc 1 1156 5 is_stmt 1 discriminator 3 view .LVU242
 847 007c 40F60603 		movw	r3, #2054
 848 0080 0093     		str	r3, [sp]
 849 0082 4346     		mov	r3, r8
 850 0084 3A46     		mov	r2, r7
 851 0086 3146     		mov	r1, r6
 852 0088 4846     		mov	r0, r9
 853 008a FFF7FEFF 		bl	ethernet_output
 854              	.LVL74:
1157:c:/Users/Black_Life/STM32Cube/Repository/STM32Cube_FW_F4_V1.26.2/Middlewares/Third_Party/LwIP/src/core/ipv4\etharp.c ****   }
1158:c:/Users/Black_Life/STM32Cube/Repository/STM32Cube_FW_F4_V1.26.2/Middlewares/Third_Party/LwIP/src/core/ipv4\etharp.c **** 
1159:c:/Users/Black_Life/STM32Cube/Repository/STM32Cube_FW_F4_V1.26.2/Middlewares/Third_Party/LwIP/src/core/ipv4\etharp.c ****   ETHARP_STATS_INC(etharp.xmit);
 855              		.loc 1 1159 32 discriminator 3 view .LVU243
1160:c:/Users/Black_Life/STM32Cube/Repository/STM32Cube_FW_F4_V1.26.2/Middlewares/Third_Party/LwIP/src/core/ipv4\etharp.c ****   /* free ARP query packet */
1161:c:/Users/Black_Life/STM32Cube/Repository/STM32Cube_FW_F4_V1.26.2/Middlewares/Third_Party/LwIP/src/core/ipv4\etharp.c ****   pbuf_free(p);
 856              		.loc 1 1161 3 discriminator 3 view .LVU244
 857 008e 3046     		mov	r0, r6
 858 0090 FFF7FEFF 		bl	pbuf_free
 859              	.LVL75:
1162:c:/Users/Black_Life/STM32Cube/Repository/STM32Cube_FW_F4_V1.26.2/Middlewares/Third_Party/LwIP/src/core/ipv4\etharp.c ****   p = NULL;
 860              		.loc 1 1162 3 discriminator 3 view .LVU245
1163:c:/Users/Black_Life/STM32Cube/Repository/STM32Cube_FW_F4_V1.26.2/Middlewares/Third_Party/LwIP/src/core/ipv4\etharp.c ****   /* could not allocate pbuf for ARP request */
1164:c:/Users/Black_Life/STM32Cube/Repository/STM32Cube_FW_F4_V1.26.2/Middlewares/Third_Party/LwIP/src/core/ipv4\etharp.c **** 
1165:c:/Users/Black_Life/STM32Cube/Repository/STM32Cube_FW_F4_V1.26.2/Middlewares/Third_Party/LwIP/src/core/ipv4\etharp.c ****   return result;
 861              		.loc 1 1165 3 discriminator 3 view .LVU246
 862              		.loc 1 1165 10 is_stmt 0 discriminator 3 view .LVU247
 863 0094 2846     		mov	r0, r5
 864              	.LVL76:
 865              	.L59:
1166:c:/Users/Black_Life/STM32Cube/Repository/STM32Cube_FW_F4_V1.26.2/Middlewares/Third_Party/LwIP/src/core/ipv4\etharp.c **** }
 866              		.loc 1 1166 1 view .LVU248
 867 0096 02B0     		add	sp, sp, #8
 868              	.LCFI11:
 869              		.cfi_remember_state
 870              		.cfi_def_cfa_offset 32
 871              		@ sp needed
 872 0098 BDE8F087 		pop	{r4, r5, r6, r7, r8, r9, r10, pc}
 873              	.LVL77:
 874              	.L64:
 875              	.LCFI12:
 876              		.cfi_restore_state
1111:c:/Users/Black_Life/STM32Cube/Repository/STM32Cube_FW_F4_V1.26.2/Middlewares/Third_Party/LwIP/src/core/ipv4\etharp.c **** 
 877              		.loc 1 1111 3 is_stmt 1 discriminator 1 view .LVU249
1111:c:/Users/Black_Life/STM32Cube/Repository/STM32Cube_FW_F4_V1.26.2/Middlewares/Third_Party/LwIP/src/core/ipv4\etharp.c **** 
 878              		.loc 1 1111 3 discriminator 1 view .LVU250
 879 009c 0D4B     		ldr	r3, .L67
ARM GAS  C:\Users\BLACK_~1\AppData\Local\Temp\ccrhXwwe.s 			page 39


 880              	.LVL78:
1111:c:/Users/Black_Life/STM32Cube/Repository/STM32Cube_FW_F4_V1.26.2/Middlewares/Third_Party/LwIP/src/core/ipv4\etharp.c **** 
 881              		.loc 1 1111 3 is_stmt 0 discriminator 1 view .LVU251
 882 009e 40F25742 		movw	r2, #1111
 883              	.LVL79:
1111:c:/Users/Black_Life/STM32Cube/Repository/STM32Cube_FW_F4_V1.26.2/Middlewares/Third_Party/LwIP/src/core/ipv4\etharp.c **** 
 884              		.loc 1 1111 3 discriminator 1 view .LVU252
 885 00a2 0D49     		ldr	r1, .L67+4
 886              	.LVL80:
1111:c:/Users/Black_Life/STM32Cube/Repository/STM32Cube_FW_F4_V1.26.2/Middlewares/Third_Party/LwIP/src/core/ipv4\etharp.c **** 
 887              		.loc 1 1111 3 discriminator 1 view .LVU253
 888 00a4 0D48     		ldr	r0, .L67+8
 889              	.LVL81:
1111:c:/Users/Black_Life/STM32Cube/Repository/STM32Cube_FW_F4_V1.26.2/Middlewares/Third_Party/LwIP/src/core/ipv4\etharp.c **** 
 890              		.loc 1 1111 3 discriminator 1 view .LVU254
 891 00a6 FFF7FEFF 		bl	printf
 892              	.LVL82:
 893 00aa B4E7     		b	.L58
 894              	.LVL83:
 895              	.L65:
1122:c:/Users/Black_Life/STM32Cube/Repository/STM32Cube_FW_F4_V1.26.2/Middlewares/Third_Party/LwIP/src/core/ipv4\etharp.c ****               (p->len >= SIZEOF_ETHARP_HDR));
 896              		.loc 1 1122 3 is_stmt 1 discriminator 1 view .LVU255
1122:c:/Users/Black_Life/STM32Cube/Repository/STM32Cube_FW_F4_V1.26.2/Middlewares/Third_Party/LwIP/src/core/ipv4\etharp.c ****               (p->len >= SIZEOF_ETHARP_HDR));
 897              		.loc 1 1122 3 discriminator 1 view .LVU256
 898 00ac 094B     		ldr	r3, .L67
 899 00ae 40F26242 		movw	r2, #1122
 900 00b2 0B49     		ldr	r1, .L67+12
 901 00b4 0948     		ldr	r0, .L67+8
 902              	.LVL84:
1122:c:/Users/Black_Life/STM32Cube/Repository/STM32Cube_FW_F4_V1.26.2/Middlewares/Third_Party/LwIP/src/core/ipv4\etharp.c ****               (p->len >= SIZEOF_ETHARP_HDR));
 903              		.loc 1 1122 3 is_stmt 0 discriminator 1 view .LVU257
 904 00b6 FFF7FEFF 		bl	printf
 905              	.LVL85:
 906 00ba B8E7     		b	.L60
 907              	.LVL86:
 908              	.L66:
1129:c:/Users/Black_Life/STM32Cube/Repository/STM32Cube_FW_F4_V1.26.2/Middlewares/Third_Party/LwIP/src/core/ipv4\etharp.c ****               (netif->hwaddr_len == ETH_HWADDR_LEN));
 909              		.loc 1 1129 3 is_stmt 1 discriminator 1 view .LVU258
1129:c:/Users/Black_Life/STM32Cube/Repository/STM32Cube_FW_F4_V1.26.2/Middlewares/Third_Party/LwIP/src/core/ipv4\etharp.c ****               (netif->hwaddr_len == ETH_HWADDR_LEN));
 910              		.loc 1 1129 3 discriminator 1 view .LVU259
 911 00bc 054B     		ldr	r3, .L67
 912 00be 40F26942 		movw	r2, #1129
 913 00c2 0849     		ldr	r1, .L67+16
 914 00c4 0548     		ldr	r0, .L67+8
 915 00c6 FFF7FEFF 		bl	printf
 916              	.LVL87:
 917 00ca BAE7     		b	.L61
 918              	.LVL88:
 919              	.L62:
1120:c:/Users/Black_Life/STM32Cube/Repository/STM32Cube_FW_F4_V1.26.2/Middlewares/Third_Party/LwIP/src/core/ipv4\etharp.c ****   }
 920              		.loc 1 1120 12 is_stmt 0 view .LVU260
 921 00cc 4FF0FF30 		mov	r0, #-1
 922              	.LVL89:
1120:c:/Users/Black_Life/STM32Cube/Repository/STM32Cube_FW_F4_V1.26.2/Middlewares/Third_Party/LwIP/src/core/ipv4\etharp.c ****   }
 923              		.loc 1 1120 12 view .LVU261
 924 00d0 E1E7     		b	.L59
 925              	.L68:
ARM GAS  C:\Users\BLACK_~1\AppData\Local\Temp\ccrhXwwe.s 			page 40


 926 00d2 00BF     		.align	2
 927              	.L67:
 928 00d4 00000000 		.word	.LC0
 929 00d8 00000000 		.word	.LC6
 930 00dc 90000000 		.word	.LC2
 931 00e0 10000000 		.word	.LC7
 932 00e4 44000000 		.word	.LC8
 933              		.cfi_endproc
 934              	.LFE167:
 936              		.section	.text.etharp_request_dst,"ax",%progbits
 937              		.align	1
 938              		.syntax unified
 939              		.thumb
 940              		.thumb_func
 942              	etharp_request_dst:
 943              	.LVL90:
 944              	.LFB168:
1167:c:/Users/Black_Life/STM32Cube/Repository/STM32Cube_FW_F4_V1.26.2/Middlewares/Third_Party/LwIP/src/core/ipv4\etharp.c **** 
1168:c:/Users/Black_Life/STM32Cube/Repository/STM32Cube_FW_F4_V1.26.2/Middlewares/Third_Party/LwIP/src/core/ipv4\etharp.c **** /**
1169:c:/Users/Black_Life/STM32Cube/Repository/STM32Cube_FW_F4_V1.26.2/Middlewares/Third_Party/LwIP/src/core/ipv4\etharp.c ****  * Send an ARP request packet asking for ipaddr to a specific eth address.
1170:c:/Users/Black_Life/STM32Cube/Repository/STM32Cube_FW_F4_V1.26.2/Middlewares/Third_Party/LwIP/src/core/ipv4\etharp.c ****  * Used to send unicast request to refresh the ARP table just before an entry
1171:c:/Users/Black_Life/STM32Cube/Repository/STM32Cube_FW_F4_V1.26.2/Middlewares/Third_Party/LwIP/src/core/ipv4\etharp.c ****  * times out
