ARM GAS  C:\Users\BLACK_~1\AppData\Local\Temp\cckA48UR.s 			page 1


   1              		.cpu cortex-m4
   2              		.arch armv7e-m
   3              		.fpu fpv4-sp-d16
   4              		.eabi_attribute 27, 1
   5              		.eabi_attribute 28, 1
   6              		.eabi_attribute 20, 1
   7              		.eabi_attribute 21, 1
   8              		.eabi_attribute 23, 3
   9              		.eabi_attribute 24, 1
  10              		.eabi_attribute 25, 1
  11              		.eabi_attribute 26, 1
  12              		.eabi_attribute 30, 1
  13              		.eabi_attribute 34, 1
  14              		.eabi_attribute 18, 4
  15              		.file	"ethernet.c"
  16              		.text
  17              	.Ltext0:
  18              		.cfi_sections	.debug_frame
  19              		.section	.text.ethernet_input,"ax",%progbits
  20              		.align	1
  21              		.global	ethernet_input
  22              		.syntax unified
  23              		.thumb
  24              		.thumb_func
  26              	ethernet_input:
  27              	.LVL0:
  28              	.LFB156:
  29              		.file 1 "c:/Users/Black_Life/STM32Cube/Repository/STM32Cube_FW_F4_V1.26.2/Middlewares/Third_Party/
   1:c:/Users/Black_Life/STM32Cube/Repository/STM32Cube_FW_F4_V1.26.2/Middlewares/Third_Party/LwIP/src/netif\ethernet.c **** /**
   2:c:/Users/Black_Life/STM32Cube/Repository/STM32Cube_FW_F4_V1.26.2/Middlewares/Third_Party/LwIP/src/netif\ethernet.c ****  * @file
   3:c:/Users/Black_Life/STM32Cube/Repository/STM32Cube_FW_F4_V1.26.2/Middlewares/Third_Party/LwIP/src/netif\ethernet.c ****  * Ethernet common functions
   4:c:/Users/Black_Life/STM32Cube/Repository/STM32Cube_FW_F4_V1.26.2/Middlewares/Third_Party/LwIP/src/netif\ethernet.c ****  *
   5:c:/Users/Black_Life/STM32Cube/Repository/STM32Cube_FW_F4_V1.26.2/Middlewares/Third_Party/LwIP/src/netif\ethernet.c ****  * @defgroup ethernet Ethernet
   6:c:/Users/Black_Life/STM32Cube/Repository/STM32Cube_FW_F4_V1.26.2/Middlewares/Third_Party/LwIP/src/netif\ethernet.c ****  * @ingroup callbackstyle_api
   7:c:/Users/Black_Life/STM32Cube/Repository/STM32Cube_FW_F4_V1.26.2/Middlewares/Third_Party/LwIP/src/netif\ethernet.c ****  */
   8:c:/Users/Black_Life/STM32Cube/Repository/STM32Cube_FW_F4_V1.26.2/Middlewares/Third_Party/LwIP/src/netif\ethernet.c **** 
   9:c:/Users/Black_Life/STM32Cube/Repository/STM32Cube_FW_F4_V1.26.2/Middlewares/Third_Party/LwIP/src/netif\ethernet.c **** /*
  10:c:/Users/Black_Life/STM32Cube/Repository/STM32Cube_FW_F4_V1.26.2/Middlewares/Third_Party/LwIP/src/netif\ethernet.c ****  * Copyright (c) 2001-2003 Swedish Institute of Computer Science.
  11:c:/Users/Black_Life/STM32Cube/Repository/STM32Cube_FW_F4_V1.26.2/Middlewares/Third_Party/LwIP/src/netif\ethernet.c ****  * Copyright (c) 2003-2004 Leon Woestenberg <leon.woestenberg@axon.tv>
  12:c:/Users/Black_Life/STM32Cube/Repository/STM32Cube_FW_F4_V1.26.2/Middlewares/Third_Party/LwIP/src/netif\ethernet.c ****  * Copyright (c) 2003-2004 Axon Digital Design B.V., The Netherlands.
  13:c:/Users/Black_Life/STM32Cube/Repository/STM32Cube_FW_F4_V1.26.2/Middlewares/Third_Party/LwIP/src/netif\ethernet.c ****  * All rights reserved.
  14:c:/Users/Black_Life/STM32Cube/Repository/STM32Cube_FW_F4_V1.26.2/Middlewares/Third_Party/LwIP/src/netif\ethernet.c ****  *
  15:c:/Users/Black_Life/STM32Cube/Repository/STM32Cube_FW_F4_V1.26.2/Middlewares/Third_Party/LwIP/src/netif\ethernet.c ****  * Redistribution and use in source and binary forms, with or without modification,
  16:c:/Users/Black_Life/STM32Cube/Repository/STM32Cube_FW_F4_V1.26.2/Middlewares/Third_Party/LwIP/src/netif\ethernet.c ****  * are permitted provided that the following conditions are met:
  17:c:/Users/Black_Life/STM32Cube/Repository/STM32Cube_FW_F4_V1.26.2/Middlewares/Third_Party/LwIP/src/netif\ethernet.c ****  *
  18:c:/Users/Black_Life/STM32Cube/Repository/STM32Cube_FW_F4_V1.26.2/Middlewares/Third_Party/LwIP/src/netif\ethernet.c ****  * 1. Redistributions of source code must retain the above copyright notice,
  19:c:/Users/Black_Life/STM32Cube/Repository/STM32Cube_FW_F4_V1.26.2/Middlewares/Third_Party/LwIP/src/netif\ethernet.c ****  *    this list of conditions and the following disclaimer.
  20:c:/Users/Black_Life/STM32Cube/Repository/STM32Cube_FW_F4_V1.26.2/Middlewares/Third_Party/LwIP/src/netif\ethernet.c ****  * 2. Redistributions in binary form must reproduce the above copyright notice,
  21:c:/Users/Black_Life/STM32Cube/Repository/STM32Cube_FW_F4_V1.26.2/Middlewares/Third_Party/LwIP/src/netif\ethernet.c ****  *    this list of conditions and the following disclaimer in the documentation
  22:c:/Users/Black_Life/STM32Cube/Repository/STM32Cube_FW_F4_V1.26.2/Middlewares/Third_Party/LwIP/src/netif\ethernet.c ****  *    and/or other materials provided with the distribution.
  23:c:/Users/Black_Life/STM32Cube/Repository/STM32Cube_FW_F4_V1.26.2/Middlewares/Third_Party/LwIP/src/netif\ethernet.c ****  * 3. The name of the author may not be used to endorse or promote products
  24:c:/Users/Black_Life/STM32Cube/Repository/STM32Cube_FW_F4_V1.26.2/Middlewares/Third_Party/LwIP/src/netif\ethernet.c ****  *    derived from this software without specific prior written permission.
  25:c:/Users/Black_Life/STM32Cube/Repository/STM32Cube_FW_F4_V1.26.2/Middlewares/Third_Party/LwIP/src/netif\ethernet.c ****  *
  26:c:/Users/Black_Life/STM32Cube/Repository/STM32Cube_FW_F4_V1.26.2/Middlewares/Third_Party/LwIP/src/netif\ethernet.c ****  * THIS SOFTWARE IS PROVIDED BY THE AUTHOR ``AS IS'' AND ANY EXPRESS OR IMPLIED
  27:c:/Users/Black_Life/STM32Cube/Repository/STM32Cube_FW_F4_V1.26.2/Middlewares/Third_Party/LwIP/src/netif\ethernet.c ****  * WARRANTIES, INCLUDING, BUT NOT LIMITED TO, THE IMPLIED WARRANTIES OF
  28:c:/Users/Black_Life/STM32Cube/Repository/STM32Cube_FW_F4_V1.26.2/Middlewares/Third_Party/LwIP/src/netif\ethernet.c ****  * MERCHANTABILITY AND FITNESS FOR A PARTICULAR PURPOSE ARE DISCLAIMED. IN NO EVENT
  29:c:/Users/Black_Life/STM32Cube/Repository/STM32Cube_FW_F4_V1.26.2/Middlewares/Third_Party/LwIP/src/netif\ethernet.c ****  * SHALL THE AUTHOR BE LIABLE FOR ANY DIRECT, INDIRECT, INCIDENTAL, SPECIAL,
ARM GAS  C:\Users\BLACK_~1\AppData\Local\Temp\cckA48UR.s 			page 2


  30:c:/Users/Black_Life/STM32Cube/Repository/STM32Cube_FW_F4_V1.26.2/Middlewares/Third_Party/LwIP/src/netif\ethernet.c ****  * EXEMPLARY, OR CONSEQUENTIAL DAMAGES (INCLUDING, BUT NOT LIMITED TO, PROCUREMENT
  31:c:/Users/Black_Life/STM32Cube/Repository/STM32Cube_FW_F4_V1.26.2/Middlewares/Third_Party/LwIP/src/netif\ethernet.c ****  * OF SUBSTITUTE GOODS OR SERVICES; LOSS OF USE, DATA, OR PROFITS; OR BUSINESS
  32:c:/Users/Black_Life/STM32Cube/Repository/STM32Cube_FW_F4_V1.26.2/Middlewares/Third_Party/LwIP/src/netif\ethernet.c ****  * INTERRUPTION) HOWEVER CAUSED AND ON ANY THEORY OF LIABILITY, WHETHER IN
  33:c:/Users/Black_Life/STM32Cube/Repository/STM32Cube_FW_F4_V1.26.2/Middlewares/Third_Party/LwIP/src/netif\ethernet.c ****  * CONTRACT, STRICT LIABILITY, OR TORT (INCLUDING NEGLIGENCE OR OTHERWISE) ARISING
  34:c:/Users/Black_Life/STM32Cube/Repository/STM32Cube_FW_F4_V1.26.2/Middlewares/Third_Party/LwIP/src/netif\ethernet.c ****  * IN ANY WAY OUT OF THE USE OF THIS SOFTWARE, EVEN IF ADVISED OF THE POSSIBILITY
  35:c:/Users/Black_Life/STM32Cube/Repository/STM32Cube_FW_F4_V1.26.2/Middlewares/Third_Party/LwIP/src/netif\ethernet.c ****  * OF SUCH DAMAGE.
  36:c:/Users/Black_Life/STM32Cube/Repository/STM32Cube_FW_F4_V1.26.2/Middlewares/Third_Party/LwIP/src/netif\ethernet.c ****  *
  37:c:/Users/Black_Life/STM32Cube/Repository/STM32Cube_FW_F4_V1.26.2/Middlewares/Third_Party/LwIP/src/netif\ethernet.c ****  * This file is part of the lwIP TCP/IP stack.
  38:c:/Users/Black_Life/STM32Cube/Repository/STM32Cube_FW_F4_V1.26.2/Middlewares/Third_Party/LwIP/src/netif\ethernet.c ****  *
  39:c:/Users/Black_Life/STM32Cube/Repository/STM32Cube_FW_F4_V1.26.2/Middlewares/Third_Party/LwIP/src/netif\ethernet.c ****  */
  40:c:/Users/Black_Life/STM32Cube/Repository/STM32Cube_FW_F4_V1.26.2/Middlewares/Third_Party/LwIP/src/netif\ethernet.c **** 
  41:c:/Users/Black_Life/STM32Cube/Repository/STM32Cube_FW_F4_V1.26.2/Middlewares/Third_Party/LwIP/src/netif\ethernet.c **** #include "lwip/opt.h"
  42:c:/Users/Black_Life/STM32Cube/Repository/STM32Cube_FW_F4_V1.26.2/Middlewares/Third_Party/LwIP/src/netif\ethernet.c **** 
  43:c:/Users/Black_Life/STM32Cube/Repository/STM32Cube_FW_F4_V1.26.2/Middlewares/Third_Party/LwIP/src/netif\ethernet.c **** #if LWIP_ARP || LWIP_ETHERNET
  44:c:/Users/Black_Life/STM32Cube/Repository/STM32Cube_FW_F4_V1.26.2/Middlewares/Third_Party/LwIP/src/netif\ethernet.c **** 
  45:c:/Users/Black_Life/STM32Cube/Repository/STM32Cube_FW_F4_V1.26.2/Middlewares/Third_Party/LwIP/src/netif\ethernet.c **** #include "netif/ethernet.h"
  46:c:/Users/Black_Life/STM32Cube/Repository/STM32Cube_FW_F4_V1.26.2/Middlewares/Third_Party/LwIP/src/netif\ethernet.c **** #include "lwip/def.h"
  47:c:/Users/Black_Life/STM32Cube/Repository/STM32Cube_FW_F4_V1.26.2/Middlewares/Third_Party/LwIP/src/netif\ethernet.c **** #include "lwip/stats.h"
  48:c:/Users/Black_Life/STM32Cube/Repository/STM32Cube_FW_F4_V1.26.2/Middlewares/Third_Party/LwIP/src/netif\ethernet.c **** #include "lwip/etharp.h"
  49:c:/Users/Black_Life/STM32Cube/Repository/STM32Cube_FW_F4_V1.26.2/Middlewares/Third_Party/LwIP/src/netif\ethernet.c **** #include "lwip/ip.h"
  50:c:/Users/Black_Life/STM32Cube/Repository/STM32Cube_FW_F4_V1.26.2/Middlewares/Third_Party/LwIP/src/netif\ethernet.c **** #include "lwip/snmp.h"
  51:c:/Users/Black_Life/STM32Cube/Repository/STM32Cube_FW_F4_V1.26.2/Middlewares/Third_Party/LwIP/src/netif\ethernet.c **** 
  52:c:/Users/Black_Life/STM32Cube/Repository/STM32Cube_FW_F4_V1.26.2/Middlewares/Third_Party/LwIP/src/netif\ethernet.c **** #include <string.h>
  53:c:/Users/Black_Life/STM32Cube/Repository/STM32Cube_FW_F4_V1.26.2/Middlewares/Third_Party/LwIP/src/netif\ethernet.c **** 
  54:c:/Users/Black_Life/STM32Cube/Repository/STM32Cube_FW_F4_V1.26.2/Middlewares/Third_Party/LwIP/src/netif\ethernet.c **** #include "netif/ppp/ppp_opts.h"
  55:c:/Users/Black_Life/STM32Cube/Repository/STM32Cube_FW_F4_V1.26.2/Middlewares/Third_Party/LwIP/src/netif\ethernet.c **** #if PPPOE_SUPPORT
  56:c:/Users/Black_Life/STM32Cube/Repository/STM32Cube_FW_F4_V1.26.2/Middlewares/Third_Party/LwIP/src/netif\ethernet.c **** #include "netif/ppp/pppoe.h"
  57:c:/Users/Black_Life/STM32Cube/Repository/STM32Cube_FW_F4_V1.26.2/Middlewares/Third_Party/LwIP/src/netif\ethernet.c **** #endif /* PPPOE_SUPPORT */
  58:c:/Users/Black_Life/STM32Cube/Repository/STM32Cube_FW_F4_V1.26.2/Middlewares/Third_Party/LwIP/src/netif\ethernet.c **** 
  59:c:/Users/Black_Life/STM32Cube/Repository/STM32Cube_FW_F4_V1.26.2/Middlewares/Third_Party/LwIP/src/netif\ethernet.c **** #ifdef LWIP_HOOK_FILENAME
  60:c:/Users/Black_Life/STM32Cube/Repository/STM32Cube_FW_F4_V1.26.2/Middlewares/Third_Party/LwIP/src/netif\ethernet.c **** #include LWIP_HOOK_FILENAME
  61:c:/Users/Black_Life/STM32Cube/Repository/STM32Cube_FW_F4_V1.26.2/Middlewares/Third_Party/LwIP/src/netif\ethernet.c **** #endif
  62:c:/Users/Black_Life/STM32Cube/Repository/STM32Cube_FW_F4_V1.26.2/Middlewares/Third_Party/LwIP/src/netif\ethernet.c **** 
  63:c:/Users/Black_Life/STM32Cube/Repository/STM32Cube_FW_F4_V1.26.2/Middlewares/Third_Party/LwIP/src/netif\ethernet.c **** const struct eth_addr ethbroadcast = {{0xff, 0xff, 0xff, 0xff, 0xff, 0xff}};
  64:c:/Users/Black_Life/STM32Cube/Repository/STM32Cube_FW_F4_V1.26.2/Middlewares/Third_Party/LwIP/src/netif\ethernet.c **** const struct eth_addr ethzero = {{0, 0, 0, 0, 0, 0}};
  65:c:/Users/Black_Life/STM32Cube/Repository/STM32Cube_FW_F4_V1.26.2/Middlewares/Third_Party/LwIP/src/netif\ethernet.c **** 
  66:c:/Users/Black_Life/STM32Cube/Repository/STM32Cube_FW_F4_V1.26.2/Middlewares/Third_Party/LwIP/src/netif\ethernet.c **** /**
  67:c:/Users/Black_Life/STM32Cube/Repository/STM32Cube_FW_F4_V1.26.2/Middlewares/Third_Party/LwIP/src/netif\ethernet.c ****  * @ingroup lwip_nosys
  68:c:/Users/Black_Life/STM32Cube/Repository/STM32Cube_FW_F4_V1.26.2/Middlewares/Third_Party/LwIP/src/netif\ethernet.c ****  * Process received ethernet frames. Using this function instead of directly
  69:c:/Users/Black_Life/STM32Cube/Repository/STM32Cube_FW_F4_V1.26.2/Middlewares/Third_Party/LwIP/src/netif\ethernet.c ****  * calling ip_input and passing ARP frames through etharp in ethernetif_input,
  70:c:/Users/Black_Life/STM32Cube/Repository/STM32Cube_FW_F4_V1.26.2/Middlewares/Third_Party/LwIP/src/netif\ethernet.c ****  * the ARP cache is protected from concurrent access.\n
  71:c:/Users/Black_Life/STM32Cube/Repository/STM32Cube_FW_F4_V1.26.2/Middlewares/Third_Party/LwIP/src/netif\ethernet.c ****  * Don't call directly, pass to netif_add() and call netif->input().
  72:c:/Users/Black_Life/STM32Cube/Repository/STM32Cube_FW_F4_V1.26.2/Middlewares/Third_Party/LwIP/src/netif\ethernet.c ****  *
  73:c:/Users/Black_Life/STM32Cube/Repository/STM32Cube_FW_F4_V1.26.2/Middlewares/Third_Party/LwIP/src/netif\ethernet.c ****  * @param p the received packet, p->payload pointing to the ethernet header
  74:c:/Users/Black_Life/STM32Cube/Repository/STM32Cube_FW_F4_V1.26.2/Middlewares/Third_Party/LwIP/src/netif\ethernet.c ****  * @param netif the network interface on which the packet was received
  75:c:/Users/Black_Life/STM32Cube/Repository/STM32Cube_FW_F4_V1.26.2/Middlewares/Third_Party/LwIP/src/netif\ethernet.c ****  *
  76:c:/Users/Black_Life/STM32Cube/Repository/STM32Cube_FW_F4_V1.26.2/Middlewares/Third_Party/LwIP/src/netif\ethernet.c ****  * @see LWIP_HOOK_UNKNOWN_ETH_PROTOCOL
  77:c:/Users/Black_Life/STM32Cube/Repository/STM32Cube_FW_F4_V1.26.2/Middlewares/Third_Party/LwIP/src/netif\ethernet.c ****  * @see ETHARP_SUPPORT_VLAN
  78:c:/Users/Black_Life/STM32Cube/Repository/STM32Cube_FW_F4_V1.26.2/Middlewares/Third_Party/LwIP/src/netif\ethernet.c ****  * @see LWIP_HOOK_VLAN_CHECK
  79:c:/Users/Black_Life/STM32Cube/Repository/STM32Cube_FW_F4_V1.26.2/Middlewares/Third_Party/LwIP/src/netif\ethernet.c ****  */
  80:c:/Users/Black_Life/STM32Cube/Repository/STM32Cube_FW_F4_V1.26.2/Middlewares/Third_Party/LwIP/src/netif\ethernet.c **** err_t
  81:c:/Users/Black_Life/STM32Cube/Repository/STM32Cube_FW_F4_V1.26.2/Middlewares/Third_Party/LwIP/src/netif\ethernet.c **** ethernet_input(struct pbuf *p, struct netif *netif)
  82:c:/Users/Black_Life/STM32Cube/Repository/STM32Cube_FW_F4_V1.26.2/Middlewares/Third_Party/LwIP/src/netif\ethernet.c **** {
  30              		.loc 1 82 1 view -0
  31              		.cfi_startproc
  32              		@ args = 0, pretend = 0, frame = 0
  33              		@ frame_needed = 0, uses_anonymous_args = 0
ARM GAS  C:\Users\BLACK_~1\AppData\Local\Temp\cckA48UR.s 			page 3


  34              		.loc 1 82 1 is_stmt 0 view .LVU1
  35 0000 70B5     		push	{r4, r5, r6, lr}
  36              	.LCFI0:
  37              		.cfi_def_cfa_offset 16
  38              		.cfi_offset 4, -16
  39              		.cfi_offset 5, -12
  40              		.cfi_offset 6, -8
  41              		.cfi_offset 14, -4
  42 0002 0446     		mov	r4, r0
  83:c:/Users/Black_Life/STM32Cube/Repository/STM32Cube_FW_F4_V1.26.2/Middlewares/Third_Party/LwIP/src/netif\ethernet.c ****   struct eth_hdr *ethhdr;
  43              		.loc 1 83 3 is_stmt 1 view .LVU2
  84:c:/Users/Black_Life/STM32Cube/Repository/STM32Cube_FW_F4_V1.26.2/Middlewares/Third_Party/LwIP/src/netif\ethernet.c ****   u16_t type;
  44              		.loc 1 84 3 view .LVU3
  85:c:/Users/Black_Life/STM32Cube/Repository/STM32Cube_FW_F4_V1.26.2/Middlewares/Third_Party/LwIP/src/netif\ethernet.c **** #if LWIP_ARP || ETHARP_SUPPORT_VLAN || LWIP_IPV6
  86:c:/Users/Black_Life/STM32Cube/Repository/STM32Cube_FW_F4_V1.26.2/Middlewares/Third_Party/LwIP/src/netif\ethernet.c ****   u16_t next_hdr_offset = SIZEOF_ETH_HDR;
  45              		.loc 1 86 3 view .LVU4
  46              	.LVL1:
  87:c:/Users/Black_Life/STM32Cube/Repository/STM32Cube_FW_F4_V1.26.2/Middlewares/Third_Party/LwIP/src/netif\ethernet.c **** #endif /* LWIP_ARP || ETHARP_SUPPORT_VLAN */
  88:c:/Users/Black_Life/STM32Cube/Repository/STM32Cube_FW_F4_V1.26.2/Middlewares/Third_Party/LwIP/src/netif\ethernet.c **** 
  89:c:/Users/Black_Life/STM32Cube/Repository/STM32Cube_FW_F4_V1.26.2/Middlewares/Third_Party/LwIP/src/netif\ethernet.c ****   LWIP_ASSERT_CORE_LOCKED();
  47              		.loc 1 89 28 view .LVU5
  90:c:/Users/Black_Life/STM32Cube/Repository/STM32Cube_FW_F4_V1.26.2/Middlewares/Third_Party/LwIP/src/netif\ethernet.c **** 
  91:c:/Users/Black_Life/STM32Cube/Repository/STM32Cube_FW_F4_V1.26.2/Middlewares/Third_Party/LwIP/src/netif\ethernet.c ****   if (p->len <= SIZEOF_ETH_HDR) {
  48              		.loc 1 91 3 view .LVU6
  49              		.loc 1 91 8 is_stmt 0 view .LVU7
  50 0004 4389     		ldrh	r3, [r0, #10]
  51              		.loc 1 91 6 view .LVU8
  52 0006 0E2B     		cmp	r3, #14
  53 0008 1CD9     		bls	.L2
  54 000a 0D46     		mov	r5, r1
  92:c:/Users/Black_Life/STM32Cube/Repository/STM32Cube_FW_F4_V1.26.2/Middlewares/Third_Party/LwIP/src/netif\ethernet.c ****     /* a packet with only an ethernet header (or less) is not valid for us */
  93:c:/Users/Black_Life/STM32Cube/Repository/STM32Cube_FW_F4_V1.26.2/Middlewares/Third_Party/LwIP/src/netif\ethernet.c ****     ETHARP_STATS_INC(etharp.proterr);
  94:c:/Users/Black_Life/STM32Cube/Repository/STM32Cube_FW_F4_V1.26.2/Middlewares/Third_Party/LwIP/src/netif\ethernet.c ****     ETHARP_STATS_INC(etharp.drop);
  95:c:/Users/Black_Life/STM32Cube/Repository/STM32Cube_FW_F4_V1.26.2/Middlewares/Third_Party/LwIP/src/netif\ethernet.c ****     MIB2_STATS_NETIF_INC(netif, ifinerrors);
  96:c:/Users/Black_Life/STM32Cube/Repository/STM32Cube_FW_F4_V1.26.2/Middlewares/Third_Party/LwIP/src/netif\ethernet.c ****     goto free_and_return;
  97:c:/Users/Black_Life/STM32Cube/Repository/STM32Cube_FW_F4_V1.26.2/Middlewares/Third_Party/LwIP/src/netif\ethernet.c ****   }
  98:c:/Users/Black_Life/STM32Cube/Repository/STM32Cube_FW_F4_V1.26.2/Middlewares/Third_Party/LwIP/src/netif\ethernet.c **** 
  99:c:/Users/Black_Life/STM32Cube/Repository/STM32Cube_FW_F4_V1.26.2/Middlewares/Third_Party/LwIP/src/netif\ethernet.c ****   if (p->if_idx == NETIF_NO_INDEX) {
  55              		.loc 1 99 3 is_stmt 1 view .LVU9
  56              		.loc 1 99 8 is_stmt 0 view .LVU10
  57 000c C37B     		ldrb	r3, [r0, #15]	@ zero_extendqisi2
  58              		.loc 1 99 6 view .LVU11
  59 000e 1BB9     		cbnz	r3, .L3
 100:c:/Users/Black_Life/STM32Cube/Repository/STM32Cube_FW_F4_V1.26.2/Middlewares/Third_Party/LwIP/src/netif\ethernet.c ****     p->if_idx = netif_get_index(netif);
  60              		.loc 1 100 5 is_stmt 1 view .LVU12
  61              		.loc 1 100 17 is_stmt 0 view .LVU13
  62 0010 91F83430 		ldrb	r3, [r1, #52]	@ zero_extendqisi2
  63 0014 0133     		adds	r3, r3, #1
  64              		.loc 1 100 15 view .LVU14
  65 0016 C373     		strb	r3, [r0, #15]
  66              	.L3:
 101:c:/Users/Black_Life/STM32Cube/Repository/STM32Cube_FW_F4_V1.26.2/Middlewares/Third_Party/LwIP/src/netif\ethernet.c ****   }
 102:c:/Users/Black_Life/STM32Cube/Repository/STM32Cube_FW_F4_V1.26.2/Middlewares/Third_Party/LwIP/src/netif\ethernet.c **** 
 103:c:/Users/Black_Life/STM32Cube/Repository/STM32Cube_FW_F4_V1.26.2/Middlewares/Third_Party/LwIP/src/netif\ethernet.c ****   /* points to packet payload, which starts with an Ethernet header */
 104:c:/Users/Black_Life/STM32Cube/Repository/STM32Cube_FW_F4_V1.26.2/Middlewares/Third_Party/LwIP/src/netif\ethernet.c ****   ethhdr = (struct eth_hdr *)p->payload;
  67              		.loc 1 104 3 is_stmt 1 view .LVU15
  68              		.loc 1 104 10 is_stmt 0 view .LVU16
ARM GAS  C:\Users\BLACK_~1\AppData\Local\Temp\cckA48UR.s 			page 4


  69 0018 6068     		ldr	r0, [r4, #4]
  70              	.LVL2:
 105:c:/Users/Black_Life/STM32Cube/Repository/STM32Cube_FW_F4_V1.26.2/Middlewares/Third_Party/LwIP/src/netif\ethernet.c ****   LWIP_DEBUGF(ETHARP_DEBUG | LWIP_DBG_TRACE,
 106:c:/Users/Black_Life/STM32Cube/Repository/STM32Cube_FW_F4_V1.26.2/Middlewares/Third_Party/LwIP/src/netif\ethernet.c ****               ("ethernet_input: dest:%"X8_F":%"X8_F":%"X8_F":%"X8_F":%"X8_F":%"X8_F", src:%"X8_F":%
 107:c:/Users/Black_Life/STM32Cube/Repository/STM32Cube_FW_F4_V1.26.2/Middlewares/Third_Party/LwIP/src/netif\ethernet.c ****                (unsigned char)ethhdr->dest.addr[0], (unsigned char)ethhdr->dest.addr[1], (unsigned 
 108:c:/Users/Black_Life/STM32Cube/Repository/STM32Cube_FW_F4_V1.26.2/Middlewares/Third_Party/LwIP/src/netif\ethernet.c ****                (unsigned char)ethhdr->dest.addr[3], (unsigned char)ethhdr->dest.addr[4], (unsigned 
 109:c:/Users/Black_Life/STM32Cube/Repository/STM32Cube_FW_F4_V1.26.2/Middlewares/Third_Party/LwIP/src/netif\ethernet.c ****                (unsigned char)ethhdr->src.addr[0],  (unsigned char)ethhdr->src.addr[1],  (unsigned 
 110:c:/Users/Black_Life/STM32Cube/Repository/STM32Cube_FW_F4_V1.26.2/Middlewares/Third_Party/LwIP/src/netif\ethernet.c ****                (unsigned char)ethhdr->src.addr[3],  (unsigned char)ethhdr->src.addr[4],  (unsigned 
 111:c:/Users/Black_Life/STM32Cube/Repository/STM32Cube_FW_F4_V1.26.2/Middlewares/Third_Party/LwIP/src/netif\ethernet.c ****                lwip_htons(ethhdr->type)));
  71              		.loc 1 111 42 is_stmt 1 view .LVU17
 112:c:/Users/Black_Life/STM32Cube/Repository/STM32Cube_FW_F4_V1.26.2/Middlewares/Third_Party/LwIP/src/netif\ethernet.c **** 
 113:c:/Users/Black_Life/STM32Cube/Repository/STM32Cube_FW_F4_V1.26.2/Middlewares/Third_Party/LwIP/src/netif\ethernet.c ****   type = ethhdr->type;
  72              		.loc 1 113 3 view .LVU18
  73              		.loc 1 113 8 is_stmt 0 view .LVU19
  74 001a 8689     		ldrh	r6, [r0, #12]	@ unaligned
  75              	.LVL3:
 114:c:/Users/Black_Life/STM32Cube/Repository/STM32Cube_FW_F4_V1.26.2/Middlewares/Third_Party/LwIP/src/netif\ethernet.c **** #if ETHARP_SUPPORT_VLAN
 115:c:/Users/Black_Life/STM32Cube/Repository/STM32Cube_FW_F4_V1.26.2/Middlewares/Third_Party/LwIP/src/netif\ethernet.c ****   if (type == PP_HTONS(ETHTYPE_VLAN)) {
 116:c:/Users/Black_Life/STM32Cube/Repository/STM32Cube_FW_F4_V1.26.2/Middlewares/Third_Party/LwIP/src/netif\ethernet.c ****     struct eth_vlan_hdr *vlan = (struct eth_vlan_hdr *)(((char *)ethhdr) + SIZEOF_ETH_HDR);
 117:c:/Users/Black_Life/STM32Cube/Repository/STM32Cube_FW_F4_V1.26.2/Middlewares/Third_Party/LwIP/src/netif\ethernet.c ****     next_hdr_offset = SIZEOF_ETH_HDR + SIZEOF_VLAN_HDR;
 118:c:/Users/Black_Life/STM32Cube/Repository/STM32Cube_FW_F4_V1.26.2/Middlewares/Third_Party/LwIP/src/netif\ethernet.c ****     if (p->len <= SIZEOF_ETH_HDR + SIZEOF_VLAN_HDR) {
 119:c:/Users/Black_Life/STM32Cube/Repository/STM32Cube_FW_F4_V1.26.2/Middlewares/Third_Party/LwIP/src/netif\ethernet.c ****       /* a packet with only an ethernet/vlan header (or less) is not valid for us */
 120:c:/Users/Black_Life/STM32Cube/Repository/STM32Cube_FW_F4_V1.26.2/Middlewares/Third_Party/LwIP/src/netif\ethernet.c ****       ETHARP_STATS_INC(etharp.proterr);
 121:c:/Users/Black_Life/STM32Cube/Repository/STM32Cube_FW_F4_V1.26.2/Middlewares/Third_Party/LwIP/src/netif\ethernet.c ****       ETHARP_STATS_INC(etharp.drop);
 122:c:/Users/Black_Life/STM32Cube/Repository/STM32Cube_FW_F4_V1.26.2/Middlewares/Third_Party/LwIP/src/netif\ethernet.c ****       MIB2_STATS_NETIF_INC(netif, ifinerrors);
 123:c:/Users/Black_Life/STM32Cube/Repository/STM32Cube_FW_F4_V1.26.2/Middlewares/Third_Party/LwIP/src/netif\ethernet.c ****       goto free_and_return;
 124:c:/Users/Black_Life/STM32Cube/Repository/STM32Cube_FW_F4_V1.26.2/Middlewares/Third_Party/LwIP/src/netif\ethernet.c ****     }
 125:c:/Users/Black_Life/STM32Cube/Repository/STM32Cube_FW_F4_V1.26.2/Middlewares/Third_Party/LwIP/src/netif\ethernet.c **** #if defined(LWIP_HOOK_VLAN_CHECK) || defined(ETHARP_VLAN_CHECK) || defined(ETHARP_VLAN_CHECK_FN) /*
 126:c:/Users/Black_Life/STM32Cube/Repository/STM32Cube_FW_F4_V1.26.2/Middlewares/Third_Party/LwIP/src/netif\ethernet.c **** #ifdef LWIP_HOOK_VLAN_CHECK
 127:c:/Users/Black_Life/STM32Cube/Repository/STM32Cube_FW_F4_V1.26.2/Middlewares/Third_Party/LwIP/src/netif\ethernet.c ****     if (!LWIP_HOOK_VLAN_CHECK(netif, ethhdr, vlan)) {
 128:c:/Users/Black_Life/STM32Cube/Repository/STM32Cube_FW_F4_V1.26.2/Middlewares/Third_Party/LwIP/src/netif\ethernet.c **** #elif defined(ETHARP_VLAN_CHECK_FN)
 129:c:/Users/Black_Life/STM32Cube/Repository/STM32Cube_FW_F4_V1.26.2/Middlewares/Third_Party/LwIP/src/netif\ethernet.c ****     if (!ETHARP_VLAN_CHECK_FN(ethhdr, vlan)) {
 130:c:/Users/Black_Life/STM32Cube/Repository/STM32Cube_FW_F4_V1.26.2/Middlewares/Third_Party/LwIP/src/netif\ethernet.c **** #elif defined(ETHARP_VLAN_CHECK)
 131:c:/Users/Black_Life/STM32Cube/Repository/STM32Cube_FW_F4_V1.26.2/Middlewares/Third_Party/LwIP/src/netif\ethernet.c ****     if (VLAN_ID(vlan) != ETHARP_VLAN_CHECK) {
 132:c:/Users/Black_Life/STM32Cube/Repository/STM32Cube_FW_F4_V1.26.2/Middlewares/Third_Party/LwIP/src/netif\ethernet.c **** #endif
 133:c:/Users/Black_Life/STM32Cube/Repository/STM32Cube_FW_F4_V1.26.2/Middlewares/Third_Party/LwIP/src/netif\ethernet.c ****       /* silently ignore this packet: not for our VLAN */
 134:c:/Users/Black_Life/STM32Cube/Repository/STM32Cube_FW_F4_V1.26.2/Middlewares/Third_Party/LwIP/src/netif\ethernet.c ****       pbuf_free(p);
 135:c:/Users/Black_Life/STM32Cube/Repository/STM32Cube_FW_F4_V1.26.2/Middlewares/Third_Party/LwIP/src/netif\ethernet.c ****       return ERR_OK;
 136:c:/Users/Black_Life/STM32Cube/Repository/STM32Cube_FW_F4_V1.26.2/Middlewares/Third_Party/LwIP/src/netif\ethernet.c ****     }
 137:c:/Users/Black_Life/STM32Cube/Repository/STM32Cube_FW_F4_V1.26.2/Middlewares/Third_Party/LwIP/src/netif\ethernet.c **** #endif /* defined(LWIP_HOOK_VLAN_CHECK) || defined(ETHARP_VLAN_CHECK) || defined(ETHARP_VLAN_CHECK_
 138:c:/Users/Black_Life/STM32Cube/Repository/STM32Cube_FW_F4_V1.26.2/Middlewares/Third_Party/LwIP/src/netif\ethernet.c ****     type = vlan->tpid;
 139:c:/Users/Black_Life/STM32Cube/Repository/STM32Cube_FW_F4_V1.26.2/Middlewares/Third_Party/LwIP/src/netif\ethernet.c ****   }
 140:c:/Users/Black_Life/STM32Cube/Repository/STM32Cube_FW_F4_V1.26.2/Middlewares/Third_Party/LwIP/src/netif\ethernet.c **** #endif /* ETHARP_SUPPORT_VLAN */
 141:c:/Users/Black_Life/STM32Cube/Repository/STM32Cube_FW_F4_V1.26.2/Middlewares/Third_Party/LwIP/src/netif\ethernet.c **** 
 142:c:/Users/Black_Life/STM32Cube/Repository/STM32Cube_FW_F4_V1.26.2/Middlewares/Third_Party/LwIP/src/netif\ethernet.c **** #if LWIP_ARP_FILTER_NETIF
 143:c:/Users/Black_Life/STM32Cube/Repository/STM32Cube_FW_F4_V1.26.2/Middlewares/Third_Party/LwIP/src/netif\ethernet.c ****   netif = LWIP_ARP_FILTER_NETIF_FN(p, netif, lwip_htons(type));
 144:c:/Users/Black_Life/STM32Cube/Repository/STM32Cube_FW_F4_V1.26.2/Middlewares/Third_Party/LwIP/src/netif\ethernet.c **** #endif /* LWIP_ARP_FILTER_NETIF*/
 145:c:/Users/Black_Life/STM32Cube/Repository/STM32Cube_FW_F4_V1.26.2/Middlewares/Third_Party/LwIP/src/netif\ethernet.c **** 
 146:c:/Users/Black_Life/STM32Cube/Repository/STM32Cube_FW_F4_V1.26.2/Middlewares/Third_Party/LwIP/src/netif\ethernet.c ****   if (ethhdr->dest.addr[0] & 1) {
  76              		.loc 1 146 3 is_stmt 1 view .LVU20
  77              		.loc 1 146 24 is_stmt 0 view .LVU21
  78 001c 0378     		ldrb	r3, [r0]	@ zero_extendqisi2
  79              		.loc 1 146 6 view .LVU22
  80 001e 13F0010F 		tst	r3, #1
  81 0022 0AD0     		beq	.L4
 147:c:/Users/Black_Life/STM32Cube/Repository/STM32Cube_FW_F4_V1.26.2/Middlewares/Third_Party/LwIP/src/netif\ethernet.c ****     /* this might be a multicast or broadcast packet */
 148:c:/Users/Black_Life/STM32Cube/Repository/STM32Cube_FW_F4_V1.26.2/Middlewares/Third_Party/LwIP/src/netif\ethernet.c ****     if (ethhdr->dest.addr[0] == LL_IP4_MULTICAST_ADDR_0) {
ARM GAS  C:\Users\BLACK_~1\AppData\Local\Temp\cckA48UR.s 			page 5


  82              		.loc 1 148 5 is_stmt 1 view .LVU23
  83              		.loc 1 148 8 is_stmt 0 view .LVU24
  84 0024 012B     		cmp	r3, #1
  85 0026 12D0     		beq	.L10
 149:c:/Users/Black_Life/STM32Cube/Repository/STM32Cube_FW_F4_V1.26.2/Middlewares/Third_Party/LwIP/src/netif\ethernet.c **** #if LWIP_IPV4
 150:c:/Users/Black_Life/STM32Cube/Repository/STM32Cube_FW_F4_V1.26.2/Middlewares/Third_Party/LwIP/src/netif\ethernet.c ****       if ((ethhdr->dest.addr[1] == LL_IP4_MULTICAST_ADDR_1) &&
 151:c:/Users/Black_Life/STM32Cube/Repository/STM32Cube_FW_F4_V1.26.2/Middlewares/Third_Party/LwIP/src/netif\ethernet.c ****           (ethhdr->dest.addr[2] == LL_IP4_MULTICAST_ADDR_2)) {
 152:c:/Users/Black_Life/STM32Cube/Repository/STM32Cube_FW_F4_V1.26.2/Middlewares/Third_Party/LwIP/src/netif\ethernet.c ****         /* mark the pbuf as link-layer multicast */
 153:c:/Users/Black_Life/STM32Cube/Repository/STM32Cube_FW_F4_V1.26.2/Middlewares/Third_Party/LwIP/src/netif\ethernet.c ****         p->flags |= PBUF_FLAG_LLMCAST;
 154:c:/Users/Black_Life/STM32Cube/Repository/STM32Cube_FW_F4_V1.26.2/Middlewares/Third_Party/LwIP/src/netif\ethernet.c ****       }
 155:c:/Users/Black_Life/STM32Cube/Repository/STM32Cube_FW_F4_V1.26.2/Middlewares/Third_Party/LwIP/src/netif\ethernet.c **** #endif /* LWIP_IPV4 */
 156:c:/Users/Black_Life/STM32Cube/Repository/STM32Cube_FW_F4_V1.26.2/Middlewares/Third_Party/LwIP/src/netif\ethernet.c ****     }
 157:c:/Users/Black_Life/STM32Cube/Repository/STM32Cube_FW_F4_V1.26.2/Middlewares/Third_Party/LwIP/src/netif\ethernet.c **** #if LWIP_IPV6
 158:c:/Users/Black_Life/STM32Cube/Repository/STM32Cube_FW_F4_V1.26.2/Middlewares/Third_Party/LwIP/src/netif\ethernet.c ****     else if ((ethhdr->dest.addr[0] == LL_IP6_MULTICAST_ADDR_0) &&
 159:c:/Users/Black_Life/STM32Cube/Repository/STM32Cube_FW_F4_V1.26.2/Middlewares/Third_Party/LwIP/src/netif\ethernet.c ****              (ethhdr->dest.addr[1] == LL_IP6_MULTICAST_ADDR_1)) {
 160:c:/Users/Black_Life/STM32Cube/Repository/STM32Cube_FW_F4_V1.26.2/Middlewares/Third_Party/LwIP/src/netif\ethernet.c ****       /* mark the pbuf as link-layer multicast */
 161:c:/Users/Black_Life/STM32Cube/Repository/STM32Cube_FW_F4_V1.26.2/Middlewares/Third_Party/LwIP/src/netif\ethernet.c ****       p->flags |= PBUF_FLAG_LLMCAST;
 162:c:/Users/Black_Life/STM32Cube/Repository/STM32Cube_FW_F4_V1.26.2/Middlewares/Third_Party/LwIP/src/netif\ethernet.c ****     }
 163:c:/Users/Black_Life/STM32Cube/Repository/STM32Cube_FW_F4_V1.26.2/Middlewares/Third_Party/LwIP/src/netif\ethernet.c **** #endif /* LWIP_IPV6 */
 164:c:/Users/Black_Life/STM32Cube/Repository/STM32Cube_FW_F4_V1.26.2/Middlewares/Third_Party/LwIP/src/netif\ethernet.c ****     else if (eth_addr_cmp(&ethhdr->dest, &ethbroadcast)) {
  86              		.loc 1 164 10 is_stmt 1 view .LVU25
  87              		.loc 1 164 14 is_stmt 0 view .LVU26
  88 0028 0622     		movs	r2, #6
  89 002a 1E49     		ldr	r1, .L11
  90              	.LVL4:
  91              		.loc 1 164 14 view .LVU27
  92 002c FFF7FEFF 		bl	memcmp
  93              	.LVL5:
  94              		.loc 1 164 13 view .LVU28
  95 0030 18B9     		cbnz	r0, .L4
 165:c:/Users/Black_Life/STM32Cube/Repository/STM32Cube_FW_F4_V1.26.2/Middlewares/Third_Party/LwIP/src/netif\ethernet.c ****       /* mark the pbuf as link-layer broadcast */
 166:c:/Users/Black_Life/STM32Cube/Repository/STM32Cube_FW_F4_V1.26.2/Middlewares/Third_Party/LwIP/src/netif\ethernet.c ****       p->flags |= PBUF_FLAG_LLBCAST;
  96              		.loc 1 166 7 is_stmt 1 view .LVU29
  97              		.loc 1 166 16 is_stmt 0 view .LVU30
  98 0032 637B     		ldrb	r3, [r4, #13]	@ zero_extendqisi2
  99 0034 43F00803 		orr	r3, r3, #8
 100 0038 6373     		strb	r3, [r4, #13]
 101              	.L4:
 167:c:/Users/Black_Life/STM32Cube/Repository/STM32Cube_FW_F4_V1.26.2/Middlewares/Third_Party/LwIP/src/netif\ethernet.c ****     }
 168:c:/Users/Black_Life/STM32Cube/Repository/STM32Cube_FW_F4_V1.26.2/Middlewares/Third_Party/LwIP/src/netif\ethernet.c ****   }
 169:c:/Users/Black_Life/STM32Cube/Repository/STM32Cube_FW_F4_V1.26.2/Middlewares/Third_Party/LwIP/src/netif\ethernet.c **** 
 170:c:/Users/Black_Life/STM32Cube/Repository/STM32Cube_FW_F4_V1.26.2/Middlewares/Third_Party/LwIP/src/netif\ethernet.c ****   switch (type) {
 102              		.loc 1 170 3 is_stmt 1 view .LVU31
 103 003a 082E     		cmp	r6, #8
 104 003c 12D0     		beq	.L6
 105 003e B6F5C16F 		cmp	r6, #1544
 106 0042 1FD0     		beq	.L7
 107              	.LVL6:
 108              	.L2:
 171:c:/Users/Black_Life/STM32Cube/Repository/STM32Cube_FW_F4_V1.26.2/Middlewares/Third_Party/LwIP/src/netif\ethernet.c **** #if LWIP_IPV4 && LWIP_ARP
 172:c:/Users/Black_Life/STM32Cube/Repository/STM32Cube_FW_F4_V1.26.2/Middlewares/Third_Party/LwIP/src/netif\ethernet.c ****     /* IP packet? */
 173:c:/Users/Black_Life/STM32Cube/Repository/STM32Cube_FW_F4_V1.26.2/Middlewares/Third_Party/LwIP/src/netif\ethernet.c ****     case PP_HTONS(ETHTYPE_IP):
 174:c:/Users/Black_Life/STM32Cube/Repository/STM32Cube_FW_F4_V1.26.2/Middlewares/Third_Party/LwIP/src/netif\ethernet.c ****       if (!(netif->flags & NETIF_FLAG_ETHARP)) {
 175:c:/Users/Black_Life/STM32Cube/Repository/STM32Cube_FW_F4_V1.26.2/Middlewares/Third_Party/LwIP/src/netif\ethernet.c ****         goto free_and_return;
 176:c:/Users/Black_Life/STM32Cube/Repository/STM32Cube_FW_F4_V1.26.2/Middlewares/Third_Party/LwIP/src/netif\ethernet.c ****       }
 177:c:/Users/Black_Life/STM32Cube/Repository/STM32Cube_FW_F4_V1.26.2/Middlewares/Third_Party/LwIP/src/netif\ethernet.c ****       /* skip Ethernet header (min. size checked above) */
 178:c:/Users/Black_Life/STM32Cube/Repository/STM32Cube_FW_F4_V1.26.2/Middlewares/Third_Party/LwIP/src/netif\ethernet.c ****       if (pbuf_remove_header(p, next_hdr_offset)) {
ARM GAS  C:\Users\BLACK_~1\AppData\Local\Temp\cckA48UR.s 			page 6


 179:c:/Users/Black_Life/STM32Cube/Repository/STM32Cube_FW_F4_V1.26.2/Middlewares/Third_Party/LwIP/src/netif\ethernet.c ****         LWIP_DEBUGF(ETHARP_DEBUG | LWIP_DBG_TRACE | LWIP_DBG_LEVEL_WARNING,
 180:c:/Users/Black_Life/STM32Cube/Repository/STM32Cube_FW_F4_V1.26.2/Middlewares/Third_Party/LwIP/src/netif\ethernet.c ****                     ("ethernet_input: IPv4 packet dropped, too short (%"U16_F"/%"U16_F")\n",
 181:c:/Users/Black_Life/STM32Cube/Repository/STM32Cube_FW_F4_V1.26.2/Middlewares/Third_Party/LwIP/src/netif\ethernet.c ****                      p->tot_len, next_hdr_offset));
 182:c:/Users/Black_Life/STM32Cube/Repository/STM32Cube_FW_F4_V1.26.2/Middlewares/Third_Party/LwIP/src/netif\ethernet.c ****         LWIP_DEBUGF(ETHARP_DEBUG | LWIP_DBG_TRACE, ("Can't move over header in packet"));
 183:c:/Users/Black_Life/STM32Cube/Repository/STM32Cube_FW_F4_V1.26.2/Middlewares/Third_Party/LwIP/src/netif\ethernet.c ****         goto free_and_return;
 184:c:/Users/Black_Life/STM32Cube/Repository/STM32Cube_FW_F4_V1.26.2/Middlewares/Third_Party/LwIP/src/netif\ethernet.c ****       } else {
 185:c:/Users/Black_Life/STM32Cube/Repository/STM32Cube_FW_F4_V1.26.2/Middlewares/Third_Party/LwIP/src/netif\ethernet.c ****         /* pass to IP layer */
 186:c:/Users/Black_Life/STM32Cube/Repository/STM32Cube_FW_F4_V1.26.2/Middlewares/Third_Party/LwIP/src/netif\ethernet.c ****         ip4_input(p, netif);
 187:c:/Users/Black_Life/STM32Cube/Repository/STM32Cube_FW_F4_V1.26.2/Middlewares/Third_Party/LwIP/src/netif\ethernet.c ****       }
 188:c:/Users/Black_Life/STM32Cube/Repository/STM32Cube_FW_F4_V1.26.2/Middlewares/Third_Party/LwIP/src/netif\ethernet.c ****       break;
 189:c:/Users/Black_Life/STM32Cube/Repository/STM32Cube_FW_F4_V1.26.2/Middlewares/Third_Party/LwIP/src/netif\ethernet.c **** 
 190:c:/Users/Black_Life/STM32Cube/Repository/STM32Cube_FW_F4_V1.26.2/Middlewares/Third_Party/LwIP/src/netif\ethernet.c ****     case PP_HTONS(ETHTYPE_ARP):
 191:c:/Users/Black_Life/STM32Cube/Repository/STM32Cube_FW_F4_V1.26.2/Middlewares/Third_Party/LwIP/src/netif\ethernet.c ****       if (!(netif->flags & NETIF_FLAG_ETHARP)) {
 192:c:/Users/Black_Life/STM32Cube/Repository/STM32Cube_FW_F4_V1.26.2/Middlewares/Third_Party/LwIP/src/netif\ethernet.c ****         goto free_and_return;
 193:c:/Users/Black_Life/STM32Cube/Repository/STM32Cube_FW_F4_V1.26.2/Middlewares/Third_Party/LwIP/src/netif\ethernet.c ****       }
 194:c:/Users/Black_Life/STM32Cube/Repository/STM32Cube_FW_F4_V1.26.2/Middlewares/Third_Party/LwIP/src/netif\ethernet.c ****       /* skip Ethernet header (min. size checked above) */
 195:c:/Users/Black_Life/STM32Cube/Repository/STM32Cube_FW_F4_V1.26.2/Middlewares/Third_Party/LwIP/src/netif\ethernet.c ****       if (pbuf_remove_header(p, next_hdr_offset)) {
 196:c:/Users/Black_Life/STM32Cube/Repository/STM32Cube_FW_F4_V1.26.2/Middlewares/Third_Party/LwIP/src/netif\ethernet.c ****         LWIP_DEBUGF(ETHARP_DEBUG | LWIP_DBG_TRACE | LWIP_DBG_LEVEL_WARNING,
 197:c:/Users/Black_Life/STM32Cube/Repository/STM32Cube_FW_F4_V1.26.2/Middlewares/Third_Party/LwIP/src/netif\ethernet.c ****                     ("ethernet_input: ARP response packet dropped, too short (%"U16_F"/%"U16_F")\n"
 198:c:/Users/Black_Life/STM32Cube/Repository/STM32Cube_FW_F4_V1.26.2/Middlewares/Third_Party/LwIP/src/netif\ethernet.c ****                      p->tot_len, next_hdr_offset));
 199:c:/Users/Black_Life/STM32Cube/Repository/STM32Cube_FW_F4_V1.26.2/Middlewares/Third_Party/LwIP/src/netif\ethernet.c ****         LWIP_DEBUGF(ETHARP_DEBUG | LWIP_DBG_TRACE, ("Can't move over header in packet"));
 200:c:/Users/Black_Life/STM32Cube/Repository/STM32Cube_FW_F4_V1.26.2/Middlewares/Third_Party/LwIP/src/netif\ethernet.c ****         ETHARP_STATS_INC(etharp.lenerr);
 201:c:/Users/Black_Life/STM32Cube/Repository/STM32Cube_FW_F4_V1.26.2/Middlewares/Third_Party/LwIP/src/netif\ethernet.c ****         ETHARP_STATS_INC(etharp.drop);
 202:c:/Users/Black_Life/STM32Cube/Repository/STM32Cube_FW_F4_V1.26.2/Middlewares/Third_Party/LwIP/src/netif\ethernet.c ****         goto free_and_return;
 203:c:/Users/Black_Life/STM32Cube/Repository/STM32Cube_FW_F4_V1.26.2/Middlewares/Third_Party/LwIP/src/netif\ethernet.c ****       } else {
 204:c:/Users/Black_Life/STM32Cube/Repository/STM32Cube_FW_F4_V1.26.2/Middlewares/Third_Party/LwIP/src/netif\ethernet.c ****         /* pass p to ARP module */
 205:c:/Users/Black_Life/STM32Cube/Repository/STM32Cube_FW_F4_V1.26.2/Middlewares/Third_Party/LwIP/src/netif\ethernet.c ****         etharp_input(p, netif);
 206:c:/Users/Black_Life/STM32Cube/Repository/STM32Cube_FW_F4_V1.26.2/Middlewares/Third_Party/LwIP/src/netif\ethernet.c ****       }
 207:c:/Users/Black_Life/STM32Cube/Repository/STM32Cube_FW_F4_V1.26.2/Middlewares/Third_Party/LwIP/src/netif\ethernet.c ****       break;
 208:c:/Users/Black_Life/STM32Cube/Repository/STM32Cube_FW_F4_V1.26.2/Middlewares/Third_Party/LwIP/src/netif\ethernet.c **** #endif /* LWIP_IPV4 && LWIP_ARP */
 209:c:/Users/Black_Life/STM32Cube/Repository/STM32Cube_FW_F4_V1.26.2/Middlewares/Third_Party/LwIP/src/netif\ethernet.c **** #if PPPOE_SUPPORT
 210:c:/Users/Black_Life/STM32Cube/Repository/STM32Cube_FW_F4_V1.26.2/Middlewares/Third_Party/LwIP/src/netif\ethernet.c ****     case PP_HTONS(ETHTYPE_PPPOEDISC): /* PPP Over Ethernet Discovery Stage */
 211:c:/Users/Black_Life/STM32Cube/Repository/STM32Cube_FW_F4_V1.26.2/Middlewares/Third_Party/LwIP/src/netif\ethernet.c ****       pppoe_disc_input(netif, p);
 212:c:/Users/Black_Life/STM32Cube/Repository/STM32Cube_FW_F4_V1.26.2/Middlewares/Third_Party/LwIP/src/netif\ethernet.c ****       break;
 213:c:/Users/Black_Life/STM32Cube/Repository/STM32Cube_FW_F4_V1.26.2/Middlewares/Third_Party/LwIP/src/netif\ethernet.c **** 
 214:c:/Users/Black_Life/STM32Cube/Repository/STM32Cube_FW_F4_V1.26.2/Middlewares/Third_Party/LwIP/src/netif\ethernet.c ****     case PP_HTONS(ETHTYPE_PPPOE): /* PPP Over Ethernet Session Stage */
 215:c:/Users/Black_Life/STM32Cube/Repository/STM32Cube_FW_F4_V1.26.2/Middlewares/Third_Party/LwIP/src/netif\ethernet.c ****       pppoe_data_input(netif, p);
 216:c:/Users/Black_Life/STM32Cube/Repository/STM32Cube_FW_F4_V1.26.2/Middlewares/Third_Party/LwIP/src/netif\ethernet.c ****       break;
 217:c:/Users/Black_Life/STM32Cube/Repository/STM32Cube_FW_F4_V1.26.2/Middlewares/Third_Party/LwIP/src/netif\ethernet.c **** #endif /* PPPOE_SUPPORT */
 218:c:/Users/Black_Life/STM32Cube/Repository/STM32Cube_FW_F4_V1.26.2/Middlewares/Third_Party/LwIP/src/netif\ethernet.c **** 
 219:c:/Users/Black_Life/STM32Cube/Repository/STM32Cube_FW_F4_V1.26.2/Middlewares/Third_Party/LwIP/src/netif\ethernet.c **** #if LWIP_IPV6
 220:c:/Users/Black_Life/STM32Cube/Repository/STM32Cube_FW_F4_V1.26.2/Middlewares/Third_Party/LwIP/src/netif\ethernet.c ****     case PP_HTONS(ETHTYPE_IPV6): /* IPv6 */
 221:c:/Users/Black_Life/STM32Cube/Repository/STM32Cube_FW_F4_V1.26.2/Middlewares/Third_Party/LwIP/src/netif\ethernet.c ****       /* skip Ethernet header */
 222:c:/Users/Black_Life/STM32Cube/Repository/STM32Cube_FW_F4_V1.26.2/Middlewares/Third_Party/LwIP/src/netif\ethernet.c ****       if ((p->len < next_hdr_offset) || pbuf_remove_header(p, next_hdr_offset)) {
 223:c:/Users/Black_Life/STM32Cube/Repository/STM32Cube_FW_F4_V1.26.2/Middlewares/Third_Party/LwIP/src/netif\ethernet.c ****         LWIP_DEBUGF(ETHARP_DEBUG | LWIP_DBG_TRACE | LWIP_DBG_LEVEL_WARNING,
 224:c:/Users/Black_Life/STM32Cube/Repository/STM32Cube_FW_F4_V1.26.2/Middlewares/Third_Party/LwIP/src/netif\ethernet.c ****                     ("ethernet_input: IPv6 packet dropped, too short (%"U16_F"/%"U16_F")\n",
 225:c:/Users/Black_Life/STM32Cube/Repository/STM32Cube_FW_F4_V1.26.2/Middlewares/Third_Party/LwIP/src/netif\ethernet.c ****                      p->tot_len, next_hdr_offset));
 226:c:/Users/Black_Life/STM32Cube/Repository/STM32Cube_FW_F4_V1.26.2/Middlewares/Third_Party/LwIP/src/netif\ethernet.c ****         goto free_and_return;
 227:c:/Users/Black_Life/STM32Cube/Repository/STM32Cube_FW_F4_V1.26.2/Middlewares/Third_Party/LwIP/src/netif\ethernet.c ****       } else {
 228:c:/Users/Black_Life/STM32Cube/Repository/STM32Cube_FW_F4_V1.26.2/Middlewares/Third_Party/LwIP/src/netif\ethernet.c ****         /* pass to IPv6 layer */
 229:c:/Users/Black_Life/STM32Cube/Repository/STM32Cube_FW_F4_V1.26.2/Middlewares/Third_Party/LwIP/src/netif\ethernet.c ****         ip6_input(p, netif);
 230:c:/Users/Black_Life/STM32Cube/Repository/STM32Cube_FW_F4_V1.26.2/Middlewares/Third_Party/LwIP/src/netif\ethernet.c ****       }
 231:c:/Users/Black_Life/STM32Cube/Repository/STM32Cube_FW_F4_V1.26.2/Middlewares/Third_Party/LwIP/src/netif\ethernet.c ****       break;
 232:c:/Users/Black_Life/STM32Cube/Repository/STM32Cube_FW_F4_V1.26.2/Middlewares/Third_Party/LwIP/src/netif\ethernet.c **** #endif /* LWIP_IPV6 */
 233:c:/Users/Black_Life/STM32Cube/Repository/STM32Cube_FW_F4_V1.26.2/Middlewares/Third_Party/LwIP/src/netif\ethernet.c **** 
 234:c:/Users/Black_Life/STM32Cube/Repository/STM32Cube_FW_F4_V1.26.2/Middlewares/Third_Party/LwIP/src/netif\ethernet.c ****     default:
 235:c:/Users/Black_Life/STM32Cube/Repository/STM32Cube_FW_F4_V1.26.2/Middlewares/Third_Party/LwIP/src/netif\ethernet.c **** #ifdef LWIP_HOOK_UNKNOWN_ETH_PROTOCOL
ARM GAS  C:\Users\BLACK_~1\AppData\Local\Temp\cckA48UR.s 			page 7


 236:c:/Users/Black_Life/STM32Cube/Repository/STM32Cube_FW_F4_V1.26.2/Middlewares/Third_Party/LwIP/src/netif\ethernet.c ****       if (LWIP_HOOK_UNKNOWN_ETH_PROTOCOL(p, netif) == ERR_OK) {
 237:c:/Users/Black_Life/STM32Cube/Repository/STM32Cube_FW_F4_V1.26.2/Middlewares/Third_Party/LwIP/src/netif\ethernet.c ****         break;
 238:c:/Users/Black_Life/STM32Cube/Repository/STM32Cube_FW_F4_V1.26.2/Middlewares/Third_Party/LwIP/src/netif\ethernet.c ****       }
 239:c:/Users/Black_Life/STM32Cube/Repository/STM32Cube_FW_F4_V1.26.2/Middlewares/Third_Party/LwIP/src/netif\ethernet.c **** #endif
 240:c:/Users/Black_Life/STM32Cube/Repository/STM32Cube_FW_F4_V1.26.2/Middlewares/Third_Party/LwIP/src/netif\ethernet.c ****       ETHARP_STATS_INC(etharp.proterr);
 241:c:/Users/Black_Life/STM32Cube/Repository/STM32Cube_FW_F4_V1.26.2/Middlewares/Third_Party/LwIP/src/netif\ethernet.c ****       ETHARP_STATS_INC(etharp.drop);
 242:c:/Users/Black_Life/STM32Cube/Repository/STM32Cube_FW_F4_V1.26.2/Middlewares/Third_Party/LwIP/src/netif\ethernet.c ****       MIB2_STATS_NETIF_INC(netif, ifinunknownprotos);
 243:c:/Users/Black_Life/STM32Cube/Repository/STM32Cube_FW_F4_V1.26.2/Middlewares/Third_Party/LwIP/src/netif\ethernet.c ****       goto free_and_return;
 244:c:/Users/Black_Life/STM32Cube/Repository/STM32Cube_FW_F4_V1.26.2/Middlewares/Third_Party/LwIP/src/netif\ethernet.c ****   }
 245:c:/Users/Black_Life/STM32Cube/Repository/STM32Cube_FW_F4_V1.26.2/Middlewares/Third_Party/LwIP/src/netif\ethernet.c **** 
 246:c:/Users/Black_Life/STM32Cube/Repository/STM32Cube_FW_F4_V1.26.2/Middlewares/Third_Party/LwIP/src/netif\ethernet.c ****   /* This means the pbuf is freed or consumed,
 247:c:/Users/Black_Life/STM32Cube/Repository/STM32Cube_FW_F4_V1.26.2/Middlewares/Third_Party/LwIP/src/netif\ethernet.c ****      so the caller doesn't have to free it again */
 248:c:/Users/Black_Life/STM32Cube/Repository/STM32Cube_FW_F4_V1.26.2/Middlewares/Third_Party/LwIP/src/netif\ethernet.c ****   return ERR_OK;
 249:c:/Users/Black_Life/STM32Cube/Repository/STM32Cube_FW_F4_V1.26.2/Middlewares/Third_Party/LwIP/src/netif\ethernet.c **** 
 250:c:/Users/Black_Life/STM32Cube/Repository/STM32Cube_FW_F4_V1.26.2/Middlewares/Third_Party/LwIP/src/netif\ethernet.c **** free_and_return:
 251:c:/Users/Black_Life/STM32Cube/Repository/STM32Cube_FW_F4_V1.26.2/Middlewares/Third_Party/LwIP/src/netif\ethernet.c ****   pbuf_free(p);
 109              		.loc 1 251 3 view .LVU32
 110 0044 2046     		mov	r0, r4
 111 0046 FFF7FEFF 		bl	pbuf_free
 112              	.LVL7:
 252:c:/Users/Black_Life/STM32Cube/Repository/STM32Cube_FW_F4_V1.26.2/Middlewares/Third_Party/LwIP/src/netif\ethernet.c ****   return ERR_OK;
 113              		.loc 1 252 3 view .LVU33
 114              	.L8:
 253:c:/Users/Black_Life/STM32Cube/Repository/STM32Cube_FW_F4_V1.26.2/Middlewares/Third_Party/LwIP/src/netif\ethernet.c **** }
 115              		.loc 1 253 1 is_stmt 0 view .LVU34
 116 004a 0020     		movs	r0, #0
 117 004c 70BD     		pop	{r4, r5, r6, pc}
 118              	.LVL8:
 119              	.L10:
 150:c:/Users/Black_Life/STM32Cube/Repository/STM32Cube_FW_F4_V1.26.2/Middlewares/Third_Party/LwIP/src/netif\ethernet.c ****           (ethhdr->dest.addr[2] == LL_IP4_MULTICAST_ADDR_2)) {
 120              		.loc 1 150 7 is_stmt 1 view .LVU35
 150:c:/Users/Black_Life/STM32Cube/Repository/STM32Cube_FW_F4_V1.26.2/Middlewares/Third_Party/LwIP/src/netif\ethernet.c ****           (ethhdr->dest.addr[2] == LL_IP4_MULTICAST_ADDR_2)) {
 121              		.loc 1 150 29 is_stmt 0 view .LVU36
 122 004e 4378     		ldrb	r3, [r0, #1]	@ zero_extendqisi2
 150:c:/Users/Black_Life/STM32Cube/Repository/STM32Cube_FW_F4_V1.26.2/Middlewares/Third_Party/LwIP/src/netif\ethernet.c ****           (ethhdr->dest.addr[2] == LL_IP4_MULTICAST_ADDR_2)) {
 123              		.loc 1 150 10 view .LVU37
 124 0050 002B     		cmp	r3, #0
 125 0052 F2D1     		bne	.L4
 151:c:/Users/Black_Life/STM32Cube/Repository/STM32Cube_FW_F4_V1.26.2/Middlewares/Third_Party/LwIP/src/netif\ethernet.c ****         /* mark the pbuf as link-layer multicast */
 126              		.loc 1 151 29 discriminator 1 view .LVU38
 127 0054 8378     		ldrb	r3, [r0, #2]	@ zero_extendqisi2
 150:c:/Users/Black_Life/STM32Cube/Repository/STM32Cube_FW_F4_V1.26.2/Middlewares/Third_Party/LwIP/src/netif\ethernet.c ****           (ethhdr->dest.addr[2] == LL_IP4_MULTICAST_ADDR_2)) {
 128              		.loc 1 150 61 discriminator 1 view .LVU39
 129 0056 5E2B     		cmp	r3, #94
 130 0058 EFD1     		bne	.L4
 153:c:/Users/Black_Life/STM32Cube/Repository/STM32Cube_FW_F4_V1.26.2/Middlewares/Third_Party/LwIP/src/netif\ethernet.c ****       }
 131              		.loc 1 153 9 is_stmt 1 view .LVU40
 153:c:/Users/Black_Life/STM32Cube/Repository/STM32Cube_FW_F4_V1.26.2/Middlewares/Third_Party/LwIP/src/netif\ethernet.c ****       }
 132              		.loc 1 153 18 is_stmt 0 view .LVU41
 133 005a 637B     		ldrb	r3, [r4, #13]	@ zero_extendqisi2
 134 005c 43F01003 		orr	r3, r3, #16
 135 0060 6373     		strb	r3, [r4, #13]
 136              	.LVL9:
 153:c:/Users/Black_Life/STM32Cube/Repository/STM32Cube_FW_F4_V1.26.2/Middlewares/Third_Party/LwIP/src/netif\ethernet.c ****       }
 137              		.loc 1 153 18 view .LVU42
 138 0062 EAE7     		b	.L4
 139              	.LVL10:
ARM GAS  C:\Users\BLACK_~1\AppData\Local\Temp\cckA48UR.s 			page 8


 140              	.L6:
 174:c:/Users/Black_Life/STM32Cube/Repository/STM32Cube_FW_F4_V1.26.2/Middlewares/Third_Party/LwIP/src/netif\ethernet.c ****         goto free_and_return;
 141              		.loc 1 174 7 is_stmt 1 view .LVU43
 174:c:/Users/Black_Life/STM32Cube/Repository/STM32Cube_FW_F4_V1.26.2/Middlewares/Third_Party/LwIP/src/netif\ethernet.c ****         goto free_and_return;
 142              		.loc 1 174 18 is_stmt 0 view .LVU44
 143 0064 95F83130 		ldrb	r3, [r5, #49]	@ zero_extendqisi2
 174:c:/Users/Black_Life/STM32Cube/Repository/STM32Cube_FW_F4_V1.26.2/Middlewares/Third_Party/LwIP/src/netif\ethernet.c ****         goto free_and_return;
 144              		.loc 1 174 10 view .LVU45
 145 0068 13F0080F 		tst	r3, #8
 146 006c EAD0     		beq	.L2
 178:c:/Users/Black_Life/STM32Cube/Repository/STM32Cube_FW_F4_V1.26.2/Middlewares/Third_Party/LwIP/src/netif\ethernet.c ****         LWIP_DEBUGF(ETHARP_DEBUG | LWIP_DBG_TRACE | LWIP_DBG_LEVEL_WARNING,
 147              		.loc 1 178 7 is_stmt 1 view .LVU46
 178:c:/Users/Black_Life/STM32Cube/Repository/STM32Cube_FW_F4_V1.26.2/Middlewares/Third_Party/LwIP/src/netif\ethernet.c ****         LWIP_DEBUGF(ETHARP_DEBUG | LWIP_DBG_TRACE | LWIP_DBG_LEVEL_WARNING,
 148              		.loc 1 178 11 is_stmt 0 view .LVU47
 149 006e 0E21     		movs	r1, #14
 150 0070 2046     		mov	r0, r4
 151 0072 FFF7FEFF 		bl	pbuf_remove_header
 152              	.LVL11:
 178:c:/Users/Black_Life/STM32Cube/Repository/STM32Cube_FW_F4_V1.26.2/Middlewares/Third_Party/LwIP/src/netif\ethernet.c ****         LWIP_DEBUGF(ETHARP_DEBUG | LWIP_DBG_TRACE | LWIP_DBG_LEVEL_WARNING,
 153              		.loc 1 178 10 view .LVU48
 154 0076 0028     		cmp	r0, #0
 155 0078 E4D1     		bne	.L2
 186:c:/Users/Black_Life/STM32Cube/Repository/STM32Cube_FW_F4_V1.26.2/Middlewares/Third_Party/LwIP/src/netif\ethernet.c ****       }
 156              		.loc 1 186 9 is_stmt 1 view .LVU49
 157 007a 2946     		mov	r1, r5
 158 007c 2046     		mov	r0, r4
 159 007e FFF7FEFF 		bl	ip4_input
 160              	.LVL12:
 188:c:/Users/Black_Life/STM32Cube/Repository/STM32Cube_FW_F4_V1.26.2/Middlewares/Third_Party/LwIP/src/netif\ethernet.c **** 
 161              		.loc 1 188 7 view .LVU50
 162 0082 E2E7     		b	.L8
 163              	.L7:
 191:c:/Users/Black_Life/STM32Cube/Repository/STM32Cube_FW_F4_V1.26.2/Middlewares/Third_Party/LwIP/src/netif\ethernet.c ****         goto free_and_return;
 164              		.loc 1 191 7 view .LVU51
 191:c:/Users/Black_Life/STM32Cube/Repository/STM32Cube_FW_F4_V1.26.2/Middlewares/Third_Party/LwIP/src/netif\ethernet.c ****         goto free_and_return;
 165              		.loc 1 191 18 is_stmt 0 view .LVU52
 166 0084 95F83130 		ldrb	r3, [r5, #49]	@ zero_extendqisi2
 191:c:/Users/Black_Life/STM32Cube/Repository/STM32Cube_FW_F4_V1.26.2/Middlewares/Third_Party/LwIP/src/netif\ethernet.c ****         goto free_and_return;
 167              		.loc 1 191 10 view .LVU53
 168 0088 13F0080F 		tst	r3, #8
 169 008c DAD0     		beq	.L2
 195:c:/Users/Black_Life/STM32Cube/Repository/STM32Cube_FW_F4_V1.26.2/Middlewares/Third_Party/LwIP/src/netif\ethernet.c ****         LWIP_DEBUGF(ETHARP_DEBUG | LWIP_DBG_TRACE | LWIP_DBG_LEVEL_WARNING,
 170              		.loc 1 195 7 is_stmt 1 view .LVU54
 195:c:/Users/Black_Life/STM32Cube/Repository/STM32Cube_FW_F4_V1.26.2/Middlewares/Third_Party/LwIP/src/netif\ethernet.c ****         LWIP_DEBUGF(ETHARP_DEBUG | LWIP_DBG_TRACE | LWIP_DBG_LEVEL_WARNING,
 171              		.loc 1 195 11 is_stmt 0 view .LVU55
 172 008e 0E21     		movs	r1, #14
 173 0090 2046     		mov	r0, r4
 174 0092 FFF7FEFF 		bl	pbuf_remove_header
 175              	.LVL13:
 195:c:/Users/Black_Life/STM32Cube/Repository/STM32Cube_FW_F4_V1.26.2/Middlewares/Third_Party/LwIP/src/netif\ethernet.c ****         LWIP_DEBUGF(ETHARP_DEBUG | LWIP_DBG_TRACE | LWIP_DBG_LEVEL_WARNING,
 176              		.loc 1 195 10 view .LVU56
 177 0096 0028     		cmp	r0, #0
 178 0098 D4D1     		bne	.L2
 205:c:/Users/Black_Life/STM32Cube/Repository/STM32Cube_FW_F4_V1.26.2/Middlewares/Third_Party/LwIP/src/netif\ethernet.c ****       }
 179              		.loc 1 205 9 is_stmt 1 view .LVU57
 180 009a 2946     		mov	r1, r5
 181 009c 2046     		mov	r0, r4
ARM GAS  C:\Users\BLACK_~1\AppData\Local\Temp\cckA48UR.s 			page 9


 182 009e FFF7FEFF 		bl	etharp_input
 183              	.LVL14:
 207:c:/Users/Black_Life/STM32Cube/Repository/STM32Cube_FW_F4_V1.26.2/Middlewares/Third_Party/LwIP/src/netif\ethernet.c **** #endif /* LWIP_IPV4 && LWIP_ARP */
 184              		.loc 1 207 7 view .LVU58
 185 00a2 D2E7     		b	.L8
 186              	.L12:
 187              		.align	2
 188              	.L11:
 189 00a4 00000000 		.word	.LANCHOR0
 190              		.cfi_endproc
 191              	.LFE156:
 193              		.section	.rodata.ethernet_output.str1.4,"aMS",%progbits,1
 194              		.align	2
 195              	.LC0:
 196 0000 633A2F55 		.ascii	"c:/Users/Black_Life/STM32Cube/Repository/STM32Cube_"
 196      73657273 
 196      2F426C61 
 196      636B5F4C 
 196      6966652F 
 197 0033 46575F46 		.ascii	"FW_F4_V1.26.2/Middlewares/Third_Party/LwIP/src/neti"
 197      345F5631 
 197      2E32362E 
 197      322F4D69 
 197      64646C65 
 198 0066 662F6574 		.ascii	"f/ethernet.c\000"
 198      6865726E 
 198      65742E63 
 198      00
 199 0073 00       		.align	2
 200              	.LC1:
 201 0074 6E657469 		.ascii	"netif->hwaddr_len must be 6 for ethernet_output!\000"
 201      662D3E68 
 201      77616464 
 201      725F6C65 
 201      6E206D75 
 202 00a5 000000   		.align	2
 203              	.LC2:
 204 00a8 41737365 		.ascii	"Assertion \"%s\" failed at line %d in %s\012\000"
 204      7274696F 
 204      6E202225 
 204      73222066 
 204      61696C65 
 205              		.section	.text.ethernet_output,"ax",%progbits
 206              		.align	1
 207              		.global	ethernet_output
 208              		.syntax unified
 209              		.thumb
 210              		.thumb_func
 212              	ethernet_output:
 213              	.LVL15:
 214              	.LFB157:
 254:c:/Users/Black_Life/STM32Cube/Repository/STM32Cube_FW_F4_V1.26.2/Middlewares/Third_Party/LwIP/src/netif\ethernet.c **** 
 255:c:/Users/Black_Life/STM32Cube/Repository/STM32Cube_FW_F4_V1.26.2/Middlewares/Third_Party/LwIP/src/netif\ethernet.c **** /**
 256:c:/Users/Black_Life/STM32Cube/Repository/STM32Cube_FW_F4_V1.26.2/Middlewares/Third_Party/LwIP/src/netif\ethernet.c ****  * @ingroup ethernet
 257:c:/Users/Black_Life/STM32Cube/Repository/STM32Cube_FW_F4_V1.26.2/Middlewares/Third_Party/LwIP/src/netif\ethernet.c ****  * Send an ethernet packet on the network using netif->linkoutput().
 258:c:/Users/Black_Life/STM32Cube/Repository/STM32Cube_FW_F4_V1.26.2/Middlewares/Third_Party/LwIP/src/netif\ethernet.c ****  * The ethernet header is filled in before sending.
 259:c:/Users/Black_Life/STM32Cube/Repository/STM32Cube_FW_F4_V1.26.2/Middlewares/Third_Party/LwIP/src/netif\ethernet.c ****  *
ARM GAS  C:\Users\BLACK_~1\AppData\Local\Temp\cckA48UR.s 			page 10


 260:c:/Users/Black_Life/STM32Cube/Repository/STM32Cube_FW_F4_V1.26.2/Middlewares/Third_Party/LwIP/src/netif\ethernet.c ****  * @see LWIP_HOOK_VLAN_SET
 261:c:/Users/Black_Life/STM32Cube/Repository/STM32Cube_FW_F4_V1.26.2/Middlewares/Third_Party/LwIP/src/netif\ethernet.c ****  *
 262:c:/Users/Black_Life/STM32Cube/Repository/STM32Cube_FW_F4_V1.26.2/Middlewares/Third_Party/LwIP/src/netif\ethernet.c ****  * @param netif the lwIP network interface on which to send the packet
 263:c:/Users/Black_Life/STM32Cube/Repository/STM32Cube_FW_F4_V1.26.2/Middlewares/Third_Party/LwIP/src/netif\ethernet.c ****  * @param p the packet to send. pbuf layer must be @ref PBUF_LINK.
 264:c:/Users/Black_Life/STM32Cube/Repository/STM32Cube_FW_F4_V1.26.2/Middlewares/Third_Party/LwIP/src/netif\ethernet.c ****  * @param src the source MAC address to be copied into the ethernet header
 265:c:/Users/Black_Life/STM32Cube/Repository/STM32Cube_FW_F4_V1.26.2/Middlewares/Third_Party/LwIP/src/netif\ethernet.c ****  * @param dst the destination MAC address to be copied into the ethernet header
 266:c:/Users/Black_Life/STM32Cube/Repository/STM32Cube_FW_F4_V1.26.2/Middlewares/Third_Party/LwIP/src/netif\ethernet.c ****  * @param eth_type ethernet type (@ref lwip_ieee_eth_type)
 267:c:/Users/Black_Life/STM32Cube/Repository/STM32Cube_FW_F4_V1.26.2/Middlewares/Third_Party/LwIP/src/netif\ethernet.c ****  * @return ERR_OK if the packet was sent, any other err_t on failure
 268:c:/Users/Black_Life/STM32Cube/Repository/STM32Cube_FW_F4_V1.26.2/Middlewares/Third_Party/LwIP/src/netif\ethernet.c ****  */
 269:c:/Users/Black_Life/STM32Cube/Repository/STM32Cube_FW_F4_V1.26.2/Middlewares/Third_Party/LwIP/src/netif\ethernet.c **** err_t
 270:c:/Users/Black_Life/STM32Cube/Repository/STM32Cube_FW_F4_V1.26.2/Middlewares/Third_Party/LwIP/src/netif\ethernet.c **** ethernet_output(struct netif * netif, struct pbuf * p,
 271:c:/Users/Black_Life/STM32Cube/Repository/STM32Cube_FW_F4_V1.26.2/Middlewares/Third_Party/LwIP/src/netif\ethernet.c ****                 const struct eth_addr * src, const struct eth_addr * dst,
 272:c:/Users/Black_Life/STM32Cube/Repository/STM32Cube_FW_F4_V1.26.2/Middlewares/Third_Party/LwIP/src/netif\ethernet.c ****                 u16_t eth_type) {
 215              		.loc 1 272 33 view -0
 216              		.cfi_startproc
 217              		@ args = 4, pretend = 0, frame = 0
 218              		@ frame_needed = 0, uses_anonymous_args = 0
 219              		.loc 1 272 33 is_stmt 0 view .LVU60
 220 0000 2DE9F041 		push	{r4, r5, r6, r7, r8, lr}
 221              	.LCFI1:
 222              		.cfi_def_cfa_offset 24
 223              		.cfi_offset 4, -24
 224              		.cfi_offset 5, -20
 225              		.cfi_offset 6, -16
 226              		.cfi_offset 7, -12
 227              		.cfi_offset 8, -8
 228              		.cfi_offset 14, -4
 229 0004 0546     		mov	r5, r0
 230 0006 0C46     		mov	r4, r1
 231 0008 1646     		mov	r6, r2
 232 000a 1F46     		mov	r7, r3
 273:c:/Users/Black_Life/STM32Cube/Repository/STM32Cube_FW_F4_V1.26.2/Middlewares/Third_Party/LwIP/src/netif\ethernet.c ****   struct eth_hdr *ethhdr;
 233              		.loc 1 273 3 is_stmt 1 view .LVU61
 274:c:/Users/Black_Life/STM32Cube/Repository/STM32Cube_FW_F4_V1.26.2/Middlewares/Third_Party/LwIP/src/netif\ethernet.c ****   u16_t eth_type_be = lwip_htons(eth_type);
 234              		.loc 1 274 3 view .LVU62
 235              		.loc 1 274 23 is_stmt 0 view .LVU63
 236 000c BDF81800 		ldrh	r0, [sp, #24]
 237              	.LVL16:
 238              		.loc 1 274 23 view .LVU64
 239 0010 FFF7FEFF 		bl	lwip_htons
 240              	.LVL17:
 241              		.loc 1 274 23 view .LVU65
 242 0014 8046     		mov	r8, r0
 243              	.LVL18:
 275:c:/Users/Black_Life/STM32Cube/Repository/STM32Cube_FW_F4_V1.26.2/Middlewares/Third_Party/LwIP/src/netif\ethernet.c **** 
 276:c:/Users/Black_Life/STM32Cube/Repository/STM32Cube_FW_F4_V1.26.2/Middlewares/Third_Party/LwIP/src/netif\ethernet.c **** #if ETHARP_SUPPORT_VLAN && defined(LWIP_HOOK_VLAN_SET)
 277:c:/Users/Black_Life/STM32Cube/Repository/STM32Cube_FW_F4_V1.26.2/Middlewares/Third_Party/LwIP/src/netif\ethernet.c ****   s32_t vlan_prio_vid = LWIP_HOOK_VLAN_SET(netif, p, src, dst, eth_type);
 278:c:/Users/Black_Life/STM32Cube/Repository/STM32Cube_FW_F4_V1.26.2/Middlewares/Third_Party/LwIP/src/netif\ethernet.c ****   if (vlan_prio_vid >= 0) {
 279:c:/Users/Black_Life/STM32Cube/Repository/STM32Cube_FW_F4_V1.26.2/Middlewares/Third_Party/LwIP/src/netif\ethernet.c ****     struct eth_vlan_hdr *vlanhdr;
 280:c:/Users/Black_Life/STM32Cube/Repository/STM32Cube_FW_F4_V1.26.2/Middlewares/Third_Party/LwIP/src/netif\ethernet.c **** 
 281:c:/Users/Black_Life/STM32Cube/Repository/STM32Cube_FW_F4_V1.26.2/Middlewares/Third_Party/LwIP/src/netif\ethernet.c ****     LWIP_ASSERT("prio_vid must be <= 0xFFFF", vlan_prio_vid <= 0xFFFF);
 282:c:/Users/Black_Life/STM32Cube/Repository/STM32Cube_FW_F4_V1.26.2/Middlewares/Third_Party/LwIP/src/netif\ethernet.c **** 
 283:c:/Users/Black_Life/STM32Cube/Repository/STM32Cube_FW_F4_V1.26.2/Middlewares/Third_Party/LwIP/src/netif\ethernet.c ****     if (pbuf_add_header(p, SIZEOF_ETH_HDR + SIZEOF_VLAN_HDR) != 0) {
 284:c:/Users/Black_Life/STM32Cube/Repository/STM32Cube_FW_F4_V1.26.2/Middlewares/Third_Party/LwIP/src/netif\ethernet.c ****       goto pbuf_header_failed;
 285:c:/Users/Black_Life/STM32Cube/Repository/STM32Cube_FW_F4_V1.26.2/Middlewares/Third_Party/LwIP/src/netif\ethernet.c ****     }
 286:c:/Users/Black_Life/STM32Cube/Repository/STM32Cube_FW_F4_V1.26.2/Middlewares/Third_Party/LwIP/src/netif\ethernet.c ****     vlanhdr = (struct eth_vlan_hdr *)(((u8_t *)p->payload) + SIZEOF_ETH_HDR);
 287:c:/Users/Black_Life/STM32Cube/Repository/STM32Cube_FW_F4_V1.26.2/Middlewares/Third_Party/LwIP/src/netif\ethernet.c ****     vlanhdr->tpid     = eth_type_be;
ARM GAS  C:\Users\BLACK_~1\AppData\Local\Temp\cckA48UR.s 			page 11


 288:c:/Users/Black_Life/STM32Cube/Repository/STM32Cube_FW_F4_V1.26.2/Middlewares/Third_Party/LwIP/src/netif\ethernet.c ****     vlanhdr->prio_vid = lwip_htons((u16_t)vlan_prio_vid);
 289:c:/Users/Black_Life/STM32Cube/Repository/STM32Cube_FW_F4_V1.26.2/Middlewares/Third_Party/LwIP/src/netif\ethernet.c **** 
 290:c:/Users/Black_Life/STM32Cube/Repository/STM32Cube_FW_F4_V1.26.2/Middlewares/Third_Party/LwIP/src/netif\ethernet.c ****     eth_type_be = PP_HTONS(ETHTYPE_VLAN);
 291:c:/Users/Black_Life/STM32Cube/Repository/STM32Cube_FW_F4_V1.26.2/Middlewares/Third_Party/LwIP/src/netif\ethernet.c ****   } else
 292:c:/Users/Black_Life/STM32Cube/Repository/STM32Cube_FW_F4_V1.26.2/Middlewares/Third_Party/LwIP/src/netif\ethernet.c **** #endif /* ETHARP_SUPPORT_VLAN && defined(LWIP_HOOK_VLAN_SET) */
 293:c:/Users/Black_Life/STM32Cube/Repository/STM32Cube_FW_F4_V1.26.2/Middlewares/Third_Party/LwIP/src/netif\ethernet.c ****   {
 294:c:/Users/Black_Life/STM32Cube/Repository/STM32Cube_FW_F4_V1.26.2/Middlewares/Third_Party/LwIP/src/netif\ethernet.c ****     if (pbuf_add_header(p, SIZEOF_ETH_HDR) != 0) {
 244              		.loc 1 294 5 is_stmt 1 view .LVU66
 245              		.loc 1 294 9 is_stmt 0 view .LVU67
 246 0016 0E21     		movs	r1, #14
 247 0018 2046     		mov	r0, r4
 248 001a FFF7FEFF 		bl	pbuf_add_header
 249              	.LVL19:
 250              		.loc 1 294 8 view .LVU68
 251 001e E8B9     		cbnz	r0, .L16
 295:c:/Users/Black_Life/STM32Cube/Repository/STM32Cube_FW_F4_V1.26.2/Middlewares/Third_Party/LwIP/src/netif\ethernet.c ****       goto pbuf_header_failed;
 296:c:/Users/Black_Life/STM32Cube/Repository/STM32Cube_FW_F4_V1.26.2/Middlewares/Third_Party/LwIP/src/netif\ethernet.c ****     }
 297:c:/Users/Black_Life/STM32Cube/Repository/STM32Cube_FW_F4_V1.26.2/Middlewares/Third_Party/LwIP/src/netif\ethernet.c ****   }
 298:c:/Users/Black_Life/STM32Cube/Repository/STM32Cube_FW_F4_V1.26.2/Middlewares/Third_Party/LwIP/src/netif\ethernet.c **** 
 299:c:/Users/Black_Life/STM32Cube/Repository/STM32Cube_FW_F4_V1.26.2/Middlewares/Third_Party/LwIP/src/netif\ethernet.c ****   LWIP_ASSERT_CORE_LOCKED();
 252              		.loc 1 299 28 is_stmt 1 view .LVU69
 300:c:/Users/Black_Life/STM32Cube/Repository/STM32Cube_FW_F4_V1.26.2/Middlewares/Third_Party/LwIP/src/netif\ethernet.c **** 
 301:c:/Users/Black_Life/STM32Cube/Repository/STM32Cube_FW_F4_V1.26.2/Middlewares/Third_Party/LwIP/src/netif\ethernet.c ****   ethhdr = (struct eth_hdr *)p->payload;
 253              		.loc 1 301 3 view .LVU70
 254              		.loc 1 301 10 is_stmt 0 view .LVU71
 255 0020 6168     		ldr	r1, [r4, #4]
 256              	.LVL20:
 302:c:/Users/Black_Life/STM32Cube/Repository/STM32Cube_FW_F4_V1.26.2/Middlewares/Third_Party/LwIP/src/netif\ethernet.c ****   ethhdr->type = eth_type_be;
 257              		.loc 1 302 3 is_stmt 1 view .LVU72
 258              		.loc 1 302 16 is_stmt 0 view .LVU73
 259 0022 A1F80C80 		strh	r8, [r1, #12]	@ unaligned
 303:c:/Users/Black_Life/STM32Cube/Repository/STM32Cube_FW_F4_V1.26.2/Middlewares/Third_Party/LwIP/src/netif\ethernet.c ****   SMEMCPY(&ethhdr->dest, dst, ETH_HWADDR_LEN);
 260              		.loc 1 303 3 is_stmt 1 view .LVU74
 261 0026 3B68     		ldr	r3, [r7]	@ unaligned
 262 0028 0B60     		str	r3, [r1]	@ unaligned
 263 002a BB88     		ldrh	r3, [r7, #4]	@ unaligned
 264 002c 8B80     		strh	r3, [r1, #4]	@ unaligned
 304:c:/Users/Black_Life/STM32Cube/Repository/STM32Cube_FW_F4_V1.26.2/Middlewares/Third_Party/LwIP/src/netif\ethernet.c ****   SMEMCPY(&ethhdr->src,  src, ETH_HWADDR_LEN);
 265              		.loc 1 304 3 view .LVU75
 266 002e 3368     		ldr	r3, [r6]	@ unaligned
 267 0030 C1F80630 		str	r3, [r1, #6]	@ unaligned
 268 0034 B388     		ldrh	r3, [r6, #4]	@ unaligned
 269 0036 4B81     		strh	r3, [r1, #10]	@ unaligned
 305:c:/Users/Black_Life/STM32Cube/Repository/STM32Cube_FW_F4_V1.26.2/Middlewares/Third_Party/LwIP/src/netif\ethernet.c **** 
 306:c:/Users/Black_Life/STM32Cube/Repository/STM32Cube_FW_F4_V1.26.2/Middlewares/Third_Party/LwIP/src/netif\ethernet.c ****   LWIP_ASSERT("netif->hwaddr_len must be 6 for ethernet_output!",
 270              		.loc 1 306 3 view .LVU76
 271              		.loc 1 306 3 view .LVU77
 272 0038 95F83030 		ldrb	r3, [r5, #48]	@ zero_extendqisi2
 273 003c 062B     		cmp	r3, #6
 274 003e 05D1     		bne	.L18
 275              	.LVL21:
 276              	.L15:
 277              		.loc 1 306 3 discriminator 3 view .LVU78
 278              		.loc 1 306 3 discriminator 3 view .LVU79
 307:c:/Users/Black_Life/STM32Cube/Repository/STM32Cube_FW_F4_V1.26.2/Middlewares/Third_Party/LwIP/src/netif\ethernet.c ****               (netif->hwaddr_len == ETH_HWADDR_LEN));
 308:c:/Users/Black_Life/STM32Cube/Repository/STM32Cube_FW_F4_V1.26.2/Middlewares/Third_Party/LwIP/src/netif\ethernet.c ****   LWIP_DEBUGF(ETHARP_DEBUG | LWIP_DBG_TRACE,
 309:c:/Users/Black_Life/STM32Cube/Repository/STM32Cube_FW_F4_V1.26.2/Middlewares/Third_Party/LwIP/src/netif\ethernet.c ****               ("ethernet_output: sending packet %p\n", (void *)p));
ARM GAS  C:\Users\BLACK_~1\AppData\Local\Temp\cckA48UR.s 			page 12


 279              		.loc 1 309 67 discriminator 3 view .LVU80
 310:c:/Users/Black_Life/STM32Cube/Repository/STM32Cube_FW_F4_V1.26.2/Middlewares/Third_Party/LwIP/src/netif\ethernet.c **** 
 311:c:/Users/Black_Life/STM32Cube/Repository/STM32Cube_FW_F4_V1.26.2/Middlewares/Third_Party/LwIP/src/netif\ethernet.c ****   /* send the packet */
 312:c:/Users/Black_Life/STM32Cube/Repository/STM32Cube_FW_F4_V1.26.2/Middlewares/Third_Party/LwIP/src/netif\ethernet.c ****   return netif->linkoutput(netif, p);
 280              		.loc 1 312 3 discriminator 3 view .LVU81
 281              		.loc 1 312 15 is_stmt 0 discriminator 3 view .LVU82
 282 0040 AB69     		ldr	r3, [r5, #24]
 283              		.loc 1 312 10 discriminator 3 view .LVU83
 284 0042 2146     		mov	r1, r4
 285 0044 2846     		mov	r0, r5
 286 0046 9847     		blx	r3
 287              	.LVL22:
 288              	.L14:
 289              	.LDL1:
 313:c:/Users/Black_Life/STM32Cube/Repository/STM32Cube_FW_F4_V1.26.2/Middlewares/Third_Party/LwIP/src/netif\ethernet.c **** 
 314:c:/Users/Black_Life/STM32Cube/Repository/STM32Cube_FW_F4_V1.26.2/Middlewares/Third_Party/LwIP/src/netif\ethernet.c **** pbuf_header_failed:
 315:c:/Users/Black_Life/STM32Cube/Repository/STM32Cube_FW_F4_V1.26.2/Middlewares/Third_Party/LwIP/src/netif\ethernet.c ****   LWIP_DEBUGF(ETHARP_DEBUG | LWIP_DBG_TRACE | LWIP_DBG_LEVEL_SERIOUS,
 316:c:/Users/Black_Life/STM32Cube/Repository/STM32Cube_FW_F4_V1.26.2/Middlewares/Third_Party/LwIP/src/netif\ethernet.c ****               ("ethernet_output: could not allocate room for header.\n"));
 317:c:/Users/Black_Life/STM32Cube/Repository/STM32Cube_FW_F4_V1.26.2/Middlewares/Third_Party/LwIP/src/netif\ethernet.c ****   LINK_STATS_INC(link.lenerr);
 318:c:/Users/Black_Life/STM32Cube/Repository/STM32Cube_FW_F4_V1.26.2/Middlewares/Third_Party/LwIP/src/netif\ethernet.c ****   return ERR_BUF;
 319:c:/Users/Black_Life/STM32Cube/Repository/STM32Cube_FW_F4_V1.26.2/Middlewares/Third_Party/LwIP/src/netif\ethernet.c **** }
 290              		.loc 1 319 1 view .LVU84
 291 0048 BDE8F081 		pop	{r4, r5, r6, r7, r8, pc}
 292              	.LVL23:
 293              	.L18:
 306:c:/Users/Black_Life/STM32Cube/Repository/STM32Cube_FW_F4_V1.26.2/Middlewares/Third_Party/LwIP/src/netif\ethernet.c ****               (netif->hwaddr_len == ETH_HWADDR_LEN));
 294              		.loc 1 306 3 is_stmt 1 discriminator 1 view .LVU85
 306:c:/Users/Black_Life/STM32Cube/Repository/STM32Cube_FW_F4_V1.26.2/Middlewares/Third_Party/LwIP/src/netif\ethernet.c ****               (netif->hwaddr_len == ETH_HWADDR_LEN));
 295              		.loc 1 306 3 discriminator 1 view .LVU86
 296 004c 054B     		ldr	r3, .L19
 297 004e 4FF49972 		mov	r2, #306
 298 0052 0549     		ldr	r1, .L19+4
 299              	.LVL24:
 306:c:/Users/Black_Life/STM32Cube/Repository/STM32Cube_FW_F4_V1.26.2/Middlewares/Third_Party/LwIP/src/netif\ethernet.c ****               (netif->hwaddr_len == ETH_HWADDR_LEN));
 300              		.loc 1 306 3 is_stmt 0 discriminator 1 view .LVU87
 301 0054 0548     		ldr	r0, .L19+8
 302 0056 FFF7FEFF 		bl	printf
 303              	.LVL25:
 304 005a F1E7     		b	.L15
 305              	.L16:
 318:c:/Users/Black_Life/STM32Cube/Repository/STM32Cube_FW_F4_V1.26.2/Middlewares/Third_Party/LwIP/src/netif\ethernet.c **** }
 306              		.loc 1 318 10 view .LVU88
 307 005c 6FF00100 		mvn	r0, #1
 308 0060 F2E7     		b	.L14
 309              	.L20:
 310 0062 00BF     		.align	2
 311              	.L19:
 312 0064 00000000 		.word	.LC0
 313 0068 74000000 		.word	.LC1
 314 006c A8000000 		.word	.LC2
 315              		.cfi_endproc
 316              	.LFE157:
 318              		.global	ethzero
 319              		.global	ethbroadcast
 320              		.section	.rodata.ethbroadcast,"a"
 321              		.align	2
 322              		.set	.LANCHOR0,. + 0
ARM GAS  C:\Users\BLACK_~1\AppData\Local\Temp\cckA48UR.s 			page 13


 325              	ethbroadcast:
 326 0000 FFFFFFFF 		.ascii	"\377\377\377\377\377\377"
 326      FFFF
 327              		.section	.rodata.ethzero,"a"
 328              		.align	2
 331              	ethzero:
 332 0000 00000000 		.space	6
 332      0000
 333              		.text
 334              	.Letext0:
 335              		.file 2 "e:\\gnu arm embedded toolchain\\10 2021.10\\arm-none-eabi\\include\\machine\\_default_typ
 336              		.file 3 "e:\\gnu arm embedded toolchain\\10 2021.10\\arm-none-eabi\\include\\sys\\_stdint.h"
 337              		.file 4 "c:/Users/Black_Life/STM32Cube/Repository/STM32Cube_FW_F4_V1.26.2/Middlewares/Third_Party/
 338              		.file 5 "c:/Users/Black_Life/STM32Cube/Repository/STM32Cube_FW_F4_V1.26.2/Middlewares/Third_Party/
 339              		.file 6 "c:/Users/Black_Life/STM32Cube/Repository/STM32Cube_FW_F4_V1.26.2/Middlewares/Third_Party/
 340              		.file 7 "c:/Users/Black_Life/STM32Cube/Repository/STM32Cube_FW_F4_V1.26.2/Middlewares/Third_Party/
 341              		.file 8 "c:/Users/Black_Life/STM32Cube/Repository/STM32Cube_FW_F4_V1.26.2/Middlewares/Third_Party/
 342              		.file 9 "c:/Users/Black_Life/STM32Cube/Repository/STM32Cube_FW_F4_V1.26.2/Middlewares/Third_Party/
 343              		.file 10 "c:/Users/Black_Life/STM32Cube/Repository/STM32Cube_FW_F4_V1.26.2/Middlewares/Third_Party
 344              		.file 11 "c:/Users/Black_Life/STM32Cube/Repository/STM32Cube_FW_F4_V1.26.2/Middlewares/Third_Party
 345              		.file 12 "c:/Users/Black_Life/STM32Cube/Repository/STM32Cube_FW_F4_V1.26.2/Middlewares/Third_Party
 346              		.file 13 "c:/Users/Black_Life/STM32Cube/Repository/STM32Cube_FW_F4_V1.26.2/Middlewares/Third_Party
 347              		.file 14 "c:/Users/Black_Life/STM32Cube/Repository/STM32Cube_FW_F4_V1.26.2/Middlewares/Third_Party
 348              		.file 15 "e:\\gnu arm embedded toolchain\\10 2021.10\\arm-none-eabi\\include\\stdio.h"
 349              		.file 16 "e:\\gnu arm embedded toolchain\\10 2021.10\\arm-none-eabi\\include\\string.h"
 350              		.file 17 "c:/Users/Black_Life/STM32Cube/Repository/STM32Cube_FW_F4_V1.26.2/Middlewares/Third_Party
 351              		.file 18 "c:/Users/Black_Life/STM32Cube/Repository/STM32Cube_FW_F4_V1.26.2/Middlewares/Third_Party
ARM GAS  C:\Users\BLACK_~1\AppData\Local\Temp\cckA48UR.s 			page 14


DEFINED SYMBOLS
                            *ABS*:00000000 ethernet.c
C:\Users\BLACK_~1\AppData\Local\Temp\cckA48UR.s:20     .text.ethernet_input:00000000 $t
C:\Users\BLACK_~1\AppData\Local\Temp\cckA48UR.s:26     .text.ethernet_input:00000000 ethernet_input
C:\Users\BLACK_~1\AppData\Local\Temp\cckA48UR.s:189    .text.ethernet_input:000000a4 $d
C:\Users\BLACK_~1\AppData\Local\Temp\cckA48UR.s:194    .rodata.ethernet_output.str1.4:00000000 $d
C:\Users\BLACK_~1\AppData\Local\Temp\cckA48UR.s:206    .text.ethernet_output:00000000 $t
C:\Users\BLACK_~1\AppData\Local\Temp\cckA48UR.s:212    .text.ethernet_output:00000000 ethernet_output
C:\Users\BLACK_~1\AppData\Local\Temp\cckA48UR.s:312    .text.ethernet_output:00000064 $d
C:\Users\BLACK_~1\AppData\Local\Temp\cckA48UR.s:331    .rodata.ethzero:00000000 ethzero
C:\Users\BLACK_~1\AppData\Local\Temp\cckA48UR.s:325    .rodata.ethbroadcast:00000000 ethbroadcast
C:\Users\BLACK_~1\AppData\Local\Temp\cckA48UR.s:321    .rodata.ethbroadcast:00000000 $d
C:\Users\BLACK_~1\AppData\Local\Temp\cckA48UR.s:328    .rodata.ethzero:00000000 $d

UNDEFINED SYMBOLS
memcmp
pbuf_free
pbuf_remove_header
ip4_input
etharp_input
lwip_htons
pbuf_add_header
printf
