ARM GAS  /var/folders/k2/cd9bl_j17z77g23y6ffqb_400000gn/T//cc0CaRcg.s 			page 1


   1              		.cpu cortex-m4
   2              		.eabi_attribute 27, 1
   3              		.eabi_attribute 28, 1
   4              		.eabi_attribute 20, 1
   5              		.eabi_attribute 21, 1
   6              		.eabi_attribute 23, 3
   7              		.eabi_attribute 24, 1
   8              		.eabi_attribute 25, 1
   9              		.eabi_attribute 26, 1
  10              		.eabi_attribute 30, 1
  11              		.eabi_attribute 34, 1
  12              		.eabi_attribute 18, 4
  13              		.file	"gt911.c"
  14              		.text
  15              	.Ltext0:
  16              		.cfi_sections	.debug_frame
  17              		.section	.text.GT911_CalculateCheckSum,"ax",%progbits
  18              		.align	1
  19              		.arch armv7e-m
  20              		.syntax unified
  21              		.thumb
  22              		.thumb_func
  23              		.fpu fpv4-sp-d16
  25              	GT911_CalculateCheckSum:
  26              	.LFB133:
  27              		.file 1 "Src/gt911.c"
   1:Src/gt911.c   **** /* Includes ------------------------------------------------------------------*/
   2:Src/gt911.c   **** #include <string.h>
   3:Src/gt911.c   **** #include "GT911.h"
   4:Src/gt911.c   **** #include "main.h"
   5:Src/gt911.c   **** #include "i2c.h"
   6:Src/gt911.c   **** /* Private typedef -----------------------------------------------------------*/
   7:Src/gt911.c   **** 
   8:Src/gt911.c   **** /* Private define ------------------------------------------------------------*/
   9:Src/gt911.c   **** 
  10:Src/gt911.c   **** /* Private macro -------------------------------------------------------------*/
  11:Src/gt911.c   **** 
  12:Src/gt911.c   **** 
  13:Src/gt911.c   **** /* Private variables ---------------------------------------------------------*/
  14:Src/gt911.c   **** static uint8_t GT911_Config[] = {
  15:Src/gt911.c   **** 		0x81, 0x00, 0x04, 0x58, 0x02, 0x0A, 0x0C, 0x20, 0x01, 0x08, 0x28, 0x05, 0x50, // 0x8047 - 0x8053
  16:Src/gt911.c   **** 		0x3C, 0x0F, 0x05, 0x00, 0x00, 0x00, 0x00, 0x00, 0x00, 0x00, 0x00, 0x00, 0x00, // 0x8054 - 0x8060
  17:Src/gt911.c   **** 		0x00, 0x89, 0x2A, 0x0B, 0x2D, 0x2B, 0x0F, 0x0A, 0x00, 0x00, 0x01, 0xA9, 0x03, // 0x8061 - 0x806D
  18:Src/gt911.c   **** 		0x2D, 0x00, 0x01, 0x00, 0x00, 0x00, 0x03, 0x00, 0x00, 0x00, 0x00, 0x00, 0x21, // 0x806E - 0x807A
  19:Src/gt911.c   **** 		0x59, 0x94, 0xC5, 0x02, 0x07, 0x00, 0x00, 0x04, 0x93, 0x24, 0x00, 0x7D, 0x2C, // 0x807B - 0x8087
  20:Src/gt911.c   **** 		0x00, 0x6B, 0x36, 0x00, 0x5D, 0x42, 0x00, 0x53, 0x50, 0x00, 0x53, 0x00, 0x00, // 0x8088	- 0x8094
  21:Src/gt911.c   **** 		0x00, 0x00, 0x00, 0x00, 0x00, 0x00, 0x00, 0x00, 0x00, 0x00, 0x00, 0x00, 0x00, // 0x8095 - 0x80A1
  22:Src/gt911.c   **** 		0x00, 0x00, 0x00, 0x00, 0x00, 0x00, 0x00, 0x00, 0x00, 0x00, 0x00, 0x00, 0x00, // 0x80A2 - 0x80AD
  23:Src/gt911.c   **** 		0x00, 0x00, 0x00, 0x00, 0x00, 0x00, 0x00, 0x00, 0x02, 0x04, 0x06, 0x08, 0x0A, // 0x80AE - 0x80BA
  24:Src/gt911.c   **** 		0x0C, 0x0E, 0x10, 0x12, 0x14, 0x16, 0xFF, 0xFF, 0xFF, 0x00, 0x00, 0x00, 0x00, // 0x80BB - 0x80C7
  25:Src/gt911.c   **** 		0x00, 0x00, 0x00, 0x00, 0x00, 0x00, 0x00, 0x00, 0x00, 0x00, 0x00, 0x00, 0x00, // 0x80C8 - 0x80D4
  26:Src/gt911.c   **** 		0x02, 0x04, 0x06, 0x08, 0x0A, 0x0F, 0x10, 0x12, 0x16, 0x18, 0x1C, 0x1D, 0x1E, // 0x80D5 - 0x80E1
  27:Src/gt911.c   **** 		0x1F, 0x20, 0x21, 0x22, 0x24, 0xFF, 0xFF, 0xFF, 0xFF, 0xFF, 0xFF, 0xFF, 0x00, // 0x80E2 - 0x80EE
  28:Src/gt911.c   **** 		0x00, 0x00, 0x00, 0x00, 0x00, 0x00, 0x00, 0x00, 0x00, 0x00, 0x00, 0x00, 0x00, // 0x80EF - 0x80FB
  29:Src/gt911.c   **** 		0x00, 0x00, 0xD6, 0x01 }; // 0x80FC - 0x8100
  30:Src/gt911.c   **** static GT911_Status_t CommunicationResult;
  31:Src/gt911.c   **** static uint8_t TxBuffer[200];
ARM GAS  /var/folders/k2/cd9bl_j17z77g23y6ffqb_400000gn/T//cc0CaRcg.s 			page 2


  32:Src/gt911.c   **** static uint8_t RxBuffer[200];
  33:Src/gt911.c   **** /* Private function prototypes -----------------------------------------------*/
  34:Src/gt911.c   **** static void GT911_Reset(void);
  35:Src/gt911.c   **** static void GT911_CalculateCheckSum(void);
  36:Src/gt911.c   **** static GT911_Status_t GT911_SetCommandRegister(uint8_t command);
  37:Src/gt911.c   **** static GT911_Status_t GT911_GetProductID(uint32_t* id);
  38:Src/gt911.c   **** static GT911_Status_t GT911_SendConfig(void);
  39:Src/gt911.c   **** static GT911_Status_t GT911_GetStatus(uint8_t* status);
  40:Src/gt911.c   **** static GT911_Status_t GT911_SetStatus(uint8_t status);
  41:Src/gt911.c   **** /* API Implementation --------------------------------------------------------*/
  42:Src/gt911.c   **** GT911_Status_t GT911_Init(GT911_Config_t config){
  43:Src/gt911.c   **** 	GPIO_InitTypeDef GPIO_InitStruct = {0};
  44:Src/gt911.c   **** 	__HAL_RCC_GPIOE_CLK_ENABLE();
  45:Src/gt911.c   **** 	HAL_GPIO_WritePin(GPIOE, GPIO_PIN_0|GPIO_PIN_1, GPIO_PIN_RESET);
  46:Src/gt911.c   **** 	GPIO_InitStruct.Pin = GPIO_PIN_0|GPIO_PIN_2;
  47:Src/gt911.c   ****   	GPIO_InitStruct.Mode = GPIO_MODE_OUTPUT_PP;
  48:Src/gt911.c   ****   	GPIO_InitStruct.Pull = GPIO_NOPULL;
  49:Src/gt911.c   ****   	GPIO_InitStruct.Speed = GPIO_SPEED_FREQ_LOW;
  50:Src/gt911.c   ****   	HAL_GPIO_Init(GPIOA, &GPIO_InitStruct);
  51:Src/gt911.c   **** //	Set X resolution
  52:Src/gt911.c   **** 	GT911_Config[1] = config.X_Resolution & 0x00FF;
  53:Src/gt911.c   **** 	GT911_Config[2] = (config.X_Resolution >> 8) & 0x00FF;
  54:Src/gt911.c   **** //	Set Y resolution
  55:Src/gt911.c   **** 	GT911_Config[3] = config.Y_Resolution & 0x00FF;
  56:Src/gt911.c   **** 	GT911_Config[4] = (config.Y_Resolution >> 8) & 0x00FF;
  57:Src/gt911.c   **** //  Set touch number
  58:Src/gt911.c   **** 	GT911_Config[5] = config.Number_Of_Touch_Support;
  59:Src/gt911.c   **** //  set reverse Y
  60:Src/gt911.c   **** 	GT911_Config[6] = 0;
  61:Src/gt911.c   **** 	GT911_Config[6] |= config.ReverseY << 7;
  62:Src/gt911.c   **** //  set reverse X
  63:Src/gt911.c   **** 	GT911_Config[6] |= config.ReverseX << 6;
  64:Src/gt911.c   **** //  set switch X2Y
  65:Src/gt911.c   **** 	GT911_Config[6] |= config.SwithX2Y << 3;
  66:Src/gt911.c   **** //  set Sito
  67:Src/gt911.c   **** 	GT911_Config[6] |= config.SoftwareNoiseReduction << 2;
  68:Src/gt911.c   **** 
  69:Src/gt911.c   **** 	//Reset chip
  70:Src/gt911.c   **** 	GT911_Reset();
  71:Src/gt911.c   **** 	//Get product ID
  72:Src/gt911.c   **** 	uint32_t productID = 0;
  73:Src/gt911.c   **** 	CommunicationResult = GT911_GetProductID(&productID);
  74:Src/gt911.c   **** 	if(CommunicationResult != GT911_OK){
  75:Src/gt911.c   **** 		return CommunicationResult;
  76:Src/gt911.c   **** 	}
  77:Src/gt911.c   **** 	if(productID == 0){
  78:Src/gt911.c   **** 		return GT911_NotResponse;
  79:Src/gt911.c   **** 	}
  80:Src/gt911.c   **** 	//Reset chip
  81:Src/gt911.c   **** 	GT911_Reset();
  82:Src/gt911.c   **** 	CommunicationResult = GT911_SendConfig();
  83:Src/gt911.c   **** 	if(CommunicationResult != GT911_OK){
  84:Src/gt911.c   **** 		return CommunicationResult;
  85:Src/gt911.c   **** 	}
  86:Src/gt911.c   **** 	GT911_SetCommandRegister(0x00);
  87:Src/gt911.c   **** 
  88:Src/gt911.c   **** 	HAL_GPIO_DeInit(GPIOE, GPIO_PIN_0);
ARM GAS  /var/folders/k2/cd9bl_j17z77g23y6ffqb_400000gn/T//cc0CaRcg.s 			page 3


  89:Src/gt911.c   **** 	GPIO_InitStruct.Pin = GPIO_PIN_0;
  90:Src/gt911.c   **** 	GPIO_InitStruct.Mode = GPIO_MODE_IT_RISING;
  91:Src/gt911.c   **** 	GPIO_InitStruct.Pull = GPIO_NOPULL;
  92:Src/gt911.c   **** 	HAL_GPIO_Init(GPIOE, &GPIO_InitStruct);
  93:Src/gt911.c   **** 	HAL_NVIC_SetPriority(EXTI0_IRQn, 0, 0);
  94:Src/gt911.c   **** 	HAL_NVIC_EnableIRQ(EXTI0_IRQn);
  95:Src/gt911.c   **** 
  96:Src/gt911.c   **** 	return GT911_OK;
  97:Src/gt911.c   **** }
  98:Src/gt911.c   **** 
  99:Src/gt911.c   **** GT911_Status_t GT911_ReadTouch(TouchCordinate_t *cordinate, uint8_t *number_of_cordinate) {
 100:Src/gt911.c   **** 	uint8_t StatusRegister;
 101:Src/gt911.c   **** 	GT911_Status_t Result = GT911_NotResponse;
 102:Src/gt911.c   **** 	Result = GT911_GetStatus(&StatusRegister);
 103:Src/gt911.c   **** 	if (Result != GT911_OK) {
 104:Src/gt911.c   **** 		return Result;
 105:Src/gt911.c   **** 	}
 106:Src/gt911.c   **** 	if ((StatusRegister & 0x80) != 0) {
 107:Src/gt911.c   **** 		*number_of_cordinate = StatusRegister & 0x0F;
 108:Src/gt911.c   **** 		if (*number_of_cordinate != 0) {
 109:Src/gt911.c   **** 			for (uint8_t i = 0; i < *number_of_cordinate; i++) {
 110:Src/gt911.c   **** 				TxBuffer[0] = ((GOODIX_POINT1_X_ADDR + (i* 8)) & 0xFF00) >> 8;
 111:Src/gt911.c   **** 				TxBuffer[1] = (GOODIX_POINT1_X_ADDR + (i* 8)) & 0xFF;
 112:Src/gt911.c   **** 				GT911_I2C_Write(GOODIX_ADDRESS, TxBuffer, 2);
 113:Src/gt911.c   **** 				GT911_I2C_Read(GOODIX_ADDRESS, RxBuffer, 6);
 114:Src/gt911.c   **** 				cordinate[i].x = RxBuffer[0];
 115:Src/gt911.c   **** 				cordinate[i].x = (RxBuffer[1] << 8) + cordinate[i].x;
 116:Src/gt911.c   **** 				cordinate[i].y = RxBuffer[2];
 117:Src/gt911.c   **** 				cordinate[i].y = (RxBuffer[3] << 8) + cordinate[i].y;
 118:Src/gt911.c   **** 			}
 119:Src/gt911.c   **** 		}
 120:Src/gt911.c   **** 		GT911_SetStatus(0);
 121:Src/gt911.c   **** 	}
 122:Src/gt911.c   **** 	return GT911_OK;
 123:Src/gt911.c   **** }
 124:Src/gt911.c   **** 
 125:Src/gt911.c   **** //Private functions Implementation ---------------------------------------------------------*/
 126:Src/gt911.c   **** static void GT911_Reset(void){
 127:Src/gt911.c   **** 	GT911_INT_Input();
 128:Src/gt911.c   **** 	GT911_RST_Control(0);
 129:Src/gt911.c   **** 	GT911_Delay(20);
 130:Src/gt911.c   **** 	GT911_INT_Control(0);
 131:Src/gt911.c   **** 	GT911_Delay(50);
 132:Src/gt911.c   **** 	GT911_RST_Control(1);
 133:Src/gt911.c   **** 	GT911_Delay(100);
 134:Src/gt911.c   **** 	GT911_INT_Output();
 135:Src/gt911.c   **** 	GT911_Delay(100);
 136:Src/gt911.c   **** }
 137:Src/gt911.c   **** 
 138:Src/gt911.c   **** static void GT911_CalculateCheckSum(void){
  28              		.loc 1 138 42 view -0
  29              		.cfi_startproc
  30              		@ args = 0, pretend = 0, frame = 0
  31              		@ frame_needed = 0, uses_anonymous_args = 0
  32              		@ link register save eliminated.
 139:Src/gt911.c   **** 	GT911_Config[184] = 0;
  33              		.loc 1 139 2 view .LVU1
ARM GAS  /var/folders/k2/cd9bl_j17z77g23y6ffqb_400000gn/T//cc0CaRcg.s 			page 4


  34              		.loc 1 139 20 is_stmt 0 view .LVU2
  35 0000 0023     		movs	r3, #0
  36 0002 0B4A     		ldr	r2, .L4
  37 0004 82F8B830 		strb	r3, [r2, #184]
 140:Src/gt911.c   **** 	for(uint8_t i = 0 ; i < 184 ; i++){
  38              		.loc 1 140 2 is_stmt 1 view .LVU3
  39              	.LBB2:
  40              		.loc 1 140 6 view .LVU4
  41              	.LVL0:
  42              		.loc 1 140 2 is_stmt 0 view .LVU5
  43 0008 08E0     		b	.L2
  44              	.LVL1:
  45              	.L3:
 141:Src/gt911.c   **** 		GT911_Config[184] += GT911_Config[i];
  46              		.loc 1 141 3 is_stmt 1 discriminator 3 view .LVU6
  47              		.loc 1 141 36 is_stmt 0 discriminator 3 view .LVU7
  48 000a 094A     		ldr	r2, .L4
  49 000c D15C     		ldrb	r1, [r2, r3]	@ zero_extendqisi2
  50              		.loc 1 141 21 discriminator 3 view .LVU8
  51 000e 92F8B800 		ldrb	r0, [r2, #184]	@ zero_extendqisi2
  52 0012 0144     		add	r1, r1, r0
  53 0014 82F8B810 		strb	r1, [r2, #184]
 140:Src/gt911.c   **** 	for(uint8_t i = 0 ; i < 184 ; i++){
  54              		.loc 1 140 32 is_stmt 1 discriminator 3 view .LVU9
 140:Src/gt911.c   **** 	for(uint8_t i = 0 ; i < 184 ; i++){
  55              		.loc 1 140 33 is_stmt 0 discriminator 3 view .LVU10
  56 0018 0133     		adds	r3, r3, #1
  57              	.LVL2:
 140:Src/gt911.c   **** 	for(uint8_t i = 0 ; i < 184 ; i++){
  58              		.loc 1 140 33 discriminator 3 view .LVU11
  59 001a DBB2     		uxtb	r3, r3
  60              	.LVL3:
  61              	.L2:
 140:Src/gt911.c   **** 	for(uint8_t i = 0 ; i < 184 ; i++){
  62              		.loc 1 140 22 is_stmt 1 discriminator 1 view .LVU12
 140:Src/gt911.c   **** 	for(uint8_t i = 0 ; i < 184 ; i++){
  63              		.loc 1 140 2 is_stmt 0 discriminator 1 view .LVU13
  64 001c B72B     		cmp	r3, #183
  65 001e F4D9     		bls	.L3
  66              	.LBE2:
 142:Src/gt911.c   **** 	}
 143:Src/gt911.c   **** 	GT911_Config[184] = (~GT911_Config[184]) + 1;
  67              		.loc 1 143 2 is_stmt 1 view .LVU14
  68              		.loc 1 143 36 is_stmt 0 view .LVU15
  69 0020 034A     		ldr	r2, .L4
  70 0022 92F8B830 		ldrb	r3, [r2, #184]	@ zero_extendqisi2
  71              	.LVL4:
  72              		.loc 1 143 20 view .LVU16
  73 0026 5B42     		rsbs	r3, r3, #0
  74 0028 82F8B830 		strb	r3, [r2, #184]
 144:Src/gt911.c   **** }
  75              		.loc 1 144 1 view .LVU17
  76 002c 7047     		bx	lr
  77              	.L5:
  78 002e 00BF     		.align	2
  79              	.L4:
  80 0030 00000000 		.word	.LANCHOR0
ARM GAS  /var/folders/k2/cd9bl_j17z77g23y6ffqb_400000gn/T//cc0CaRcg.s 			page 5


  81              		.cfi_endproc
  82              	.LFE133:
  84              		.section	.text.GT911_INT_Input,"ax",%progbits
  85              		.align	1
  86              		.global	GT911_INT_Input
  87              		.syntax unified
  88              		.thumb
  89              		.thumb_func
  90              		.fpu fpv4-sp-d16
  92              	GT911_INT_Input:
  93              	.LFB139:
 145:Src/gt911.c   **** 
 146:Src/gt911.c   **** static GT911_Status_t GT911_SetCommandRegister(uint8_t command){
 147:Src/gt911.c   **** 	TxBuffer[0] = (GOODIX_REG_COMMAND & 0xFF00) >> 8;
 148:Src/gt911.c   **** 	TxBuffer[1] = GOODIX_REG_COMMAND & 0xFF;
 149:Src/gt911.c   **** 	TxBuffer[2] = command;
 150:Src/gt911.c   **** 	return GT911_I2C_Write(GOODIX_ADDRESS, TxBuffer, 3);
 151:Src/gt911.c   **** }
 152:Src/gt911.c   **** 
 153:Src/gt911.c   **** static GT911_Status_t GT911_GetProductID(uint32_t* id){
 154:Src/gt911.c   **** 	TxBuffer[0] = (GOODIX_REG_ID & 0xFF00) >> 8;
 155:Src/gt911.c   **** 	TxBuffer[1] = GOODIX_REG_ID & 0xFF;
 156:Src/gt911.c   **** 	GT911_Status_t Result = GT911_NotResponse;
 157:Src/gt911.c   **** 	Result = GT911_I2C_Write(GOODIX_ADDRESS, TxBuffer, 2);
 158:Src/gt911.c   **** 	if(Result == GT911_OK){
 159:Src/gt911.c   **** 		Result = GT911_I2C_Read(GOODIX_ADDRESS, RxBuffer, 4);
 160:Src/gt911.c   **** 		if( Result == GT911_OK){
 161:Src/gt911.c   **** 			memcpy(id, RxBuffer, 4);
 162:Src/gt911.c   **** 		}
 163:Src/gt911.c   **** 	}
 164:Src/gt911.c   **** 	return Result;
 165:Src/gt911.c   **** }
 166:Src/gt911.c   **** 
 167:Src/gt911.c   **** static GT911_Status_t GT911_SendConfig(void){
 168:Src/gt911.c   **** 	GT911_CalculateCheckSum();
 169:Src/gt911.c   **** 	TxBuffer[0] = (GOODIX_REG_CONFIG_DATA & 0xFF00) >> 8;
 170:Src/gt911.c   **** 	TxBuffer[1] = GOODIX_REG_CONFIG_DATA & 0xFF;
 171:Src/gt911.c   **** 	memcpy(&TxBuffer[2], GT911_Config, sizeof(GT911_Config));
 172:Src/gt911.c   **** 	return GT911_I2C_Write(GOODIX_ADDRESS, TxBuffer, sizeof(GT911_Config) + 2);
 173:Src/gt911.c   **** }
 174:Src/gt911.c   **** 
 175:Src/gt911.c   **** static GT911_Status_t GT911_GetStatus(uint8_t* status){
 176:Src/gt911.c   **** 	TxBuffer[0] = (GOODIX_READ_COORD_ADDR & 0xFF00) >> 8;
 177:Src/gt911.c   **** 	TxBuffer[1] = GOODIX_READ_COORD_ADDR & 0xFF;
 178:Src/gt911.c   **** 	GT911_Status_t Result = GT911_NotResponse;
 179:Src/gt911.c   **** 	Result = GT911_I2C_Write(GOODIX_ADDRESS, TxBuffer, 2);
 180:Src/gt911.c   **** 	if(Result == GT911_OK){
 181:Src/gt911.c   **** 		Result = GT911_I2C_Read(GOODIX_ADDRESS, RxBuffer, 1);
 182:Src/gt911.c   **** 		if( Result == GT911_OK){
 183:Src/gt911.c   **** 			*status = RxBuffer[0];
 184:Src/gt911.c   **** 		}
 185:Src/gt911.c   **** 	}
 186:Src/gt911.c   **** 	return Result;
 187:Src/gt911.c   **** }
 188:Src/gt911.c   **** 
 189:Src/gt911.c   **** static GT911_Status_t GT911_SetStatus(uint8_t status){
 190:Src/gt911.c   **** 	TxBuffer[0] = (GOODIX_READ_COORD_ADDR & 0xFF00) >> 8;
ARM GAS  /var/folders/k2/cd9bl_j17z77g23y6ffqb_400000gn/T//cc0CaRcg.s 			page 6


 191:Src/gt911.c   **** 	TxBuffer[1] = GOODIX_READ_COORD_ADDR & 0xFF;
 192:Src/gt911.c   **** 	TxBuffer[2] = status;
 193:Src/gt911.c   **** 	return GT911_I2C_Write(GOODIX_ADDRESS, TxBuffer, 3);
 194:Src/gt911.c   **** }
 195:Src/gt911.c   **** 
 196:Src/gt911.c   **** void GT911_INT_Input(void){
  94              		.loc 1 196 27 is_stmt 1 view -0
  95              		.cfi_startproc
  96              		@ args = 0, pretend = 0, frame = 24
  97              		@ frame_needed = 0, uses_anonymous_args = 0
  98 0000 00B5     		push	{lr}
  99              	.LCFI0:
 100              		.cfi_def_cfa_offset 4
 101              		.cfi_offset 14, -4
 102 0002 87B0     		sub	sp, sp, #28
 103              	.LCFI1:
 104              		.cfi_def_cfa_offset 32
 197:Src/gt911.c   **** 	GPIO_InitTypeDef GPIO_InitStruct = { 0 };
 105              		.loc 1 197 2 view .LVU19
 106              		.loc 1 197 19 is_stmt 0 view .LVU20
 107 0004 0023     		movs	r3, #0
 108 0006 0193     		str	r3, [sp, #4]
 109 0008 0293     		str	r3, [sp, #8]
 110 000a 0393     		str	r3, [sp, #12]
 111 000c 0493     		str	r3, [sp, #16]
 112 000e 0593     		str	r3, [sp, #20]
 198:Src/gt911.c   **** 	GPIO_InitStruct.Pin = CTP_INT_Pin;
 113              		.loc 1 198 2 is_stmt 1 view .LVU21
 114              		.loc 1 198 22 is_stmt 0 view .LVU22
 115 0010 0123     		movs	r3, #1
 116 0012 0193     		str	r3, [sp, #4]
 199:Src/gt911.c   **** 	GPIO_InitStruct.Mode = GPIO_MODE_INPUT;
 117              		.loc 1 199 2 is_stmt 1 view .LVU23
 200:Src/gt911.c   **** 	GPIO_InitStruct.Pull = GPIO_NOPULL;
 118              		.loc 1 200 2 view .LVU24
 201:Src/gt911.c   **** 	HAL_GPIO_Init(CTP_INT_GPIO_Port, &GPIO_InitStruct);
 119              		.loc 1 201 2 view .LVU25
 120 0014 01A9     		add	r1, sp, #4
 121 0016 0348     		ldr	r0, .L8
 122 0018 FFF7FEFF 		bl	HAL_GPIO_Init
 123              	.LVL5:
 202:Src/gt911.c   **** }
 124              		.loc 1 202 1 is_stmt 0 view .LVU26
 125 001c 07B0     		add	sp, sp, #28
 126              	.LCFI2:
 127              		.cfi_def_cfa_offset 4
 128              		@ sp needed
 129 001e 5DF804FB 		ldr	pc, [sp], #4
 130              	.L9:
 131 0022 00BF     		.align	2
 132              	.L8:
 133 0024 00100240 		.word	1073876992
 134              		.cfi_endproc
 135              	.LFE139:
 137              		.section	.text.GT911_INT_Output,"ax",%progbits
 138              		.align	1
 139              		.global	GT911_INT_Output
ARM GAS  /var/folders/k2/cd9bl_j17z77g23y6ffqb_400000gn/T//cc0CaRcg.s 			page 7


 140              		.syntax unified
 141              		.thumb
 142              		.thumb_func
 143              		.fpu fpv4-sp-d16
 145              	GT911_INT_Output:
 146              	.LFB140:
 203:Src/gt911.c   **** 
 204:Src/gt911.c   **** void GT911_INT_Output(void) {
 147              		.loc 1 204 29 is_stmt 1 view -0
 148              		.cfi_startproc
 149              		@ args = 0, pretend = 0, frame = 24
 150              		@ frame_needed = 0, uses_anonymous_args = 0
 151 0000 00B5     		push	{lr}
 152              	.LCFI3:
 153              		.cfi_def_cfa_offset 4
 154              		.cfi_offset 14, -4
 155 0002 87B0     		sub	sp, sp, #28
 156              	.LCFI4:
 157              		.cfi_def_cfa_offset 32
 205:Src/gt911.c   **** 	GPIO_InitTypeDef GPIO_InitStruct = { 0 };
 158              		.loc 1 205 2 view .LVU28
 159              		.loc 1 205 19 is_stmt 0 view .LVU29
 160 0004 0023     		movs	r3, #0
 161 0006 0193     		str	r3, [sp, #4]
 162 0008 0293     		str	r3, [sp, #8]
 163 000a 0393     		str	r3, [sp, #12]
 164 000c 0493     		str	r3, [sp, #16]
 165 000e 0593     		str	r3, [sp, #20]
 206:Src/gt911.c   **** 	GPIO_InitStruct.Pin = CTP_INT_Pin;
 166              		.loc 1 206 2 is_stmt 1 view .LVU30
 167              		.loc 1 206 22 is_stmt 0 view .LVU31
 168 0010 0123     		movs	r3, #1
 169 0012 0193     		str	r3, [sp, #4]
 207:Src/gt911.c   **** 	GPIO_InitStruct.Mode = GPIO_MODE_OUTPUT_PP;
 170              		.loc 1 207 2 is_stmt 1 view .LVU32
 171              		.loc 1 207 23 is_stmt 0 view .LVU33
 172 0014 0293     		str	r3, [sp, #8]
 208:Src/gt911.c   **** 	GPIO_InitStruct.Pull = GPIO_NOPULL;
 173              		.loc 1 208 2 is_stmt 1 view .LVU34
 209:Src/gt911.c   **** 	GPIO_InitStruct.Speed = GPIO_SPEED_FREQ_LOW;
 174              		.loc 1 209 2 view .LVU35
 210:Src/gt911.c   **** 	HAL_GPIO_Init(CTP_INT_GPIO_Port, &GPIO_InitStruct);
 175              		.loc 1 210 2 view .LVU36
 176 0016 01A9     		add	r1, sp, #4
 177 0018 0248     		ldr	r0, .L12
 178 001a FFF7FEFF 		bl	HAL_GPIO_Init
 179              	.LVL6:
 211:Src/gt911.c   **** }
 180              		.loc 1 211 1 is_stmt 0 view .LVU37
 181 001e 07B0     		add	sp, sp, #28
 182              	.LCFI5:
 183              		.cfi_def_cfa_offset 4
 184              		@ sp needed
 185 0020 5DF804FB 		ldr	pc, [sp], #4
 186              	.L13:
 187              		.align	2
 188              	.L12:
ARM GAS  /var/folders/k2/cd9bl_j17z77g23y6ffqb_400000gn/T//cc0CaRcg.s 			page 8


 189 0024 00100240 		.word	1073876992
 190              		.cfi_endproc
 191              	.LFE140:
 193              		.section	.text.GT911_RST_Control,"ax",%progbits
 194              		.align	1
 195              		.global	GT911_RST_Control
 196              		.syntax unified
 197              		.thumb
 198              		.thumb_func
 199              		.fpu fpv4-sp-d16
 201              	GT911_RST_Control:
 202              	.LVL7:
 203              	.LFB141:
 212:Src/gt911.c   **** 
 213:Src/gt911.c   **** void GT911_RST_Control(bool high_or_low){
 204              		.loc 1 213 41 is_stmt 1 view -0
 205              		.cfi_startproc
 206              		@ args = 0, pretend = 0, frame = 0
 207              		@ frame_needed = 0, uses_anonymous_args = 0
 208              		.loc 1 213 41 is_stmt 0 view .LVU39
 209 0000 08B5     		push	{r3, lr}
 210              	.LCFI6:
 211              		.cfi_def_cfa_offset 8
 212              		.cfi_offset 3, -8
 213              		.cfi_offset 14, -4
 214:Src/gt911.c   **** 	switch(high_or_low){
 214              		.loc 1 214 2 is_stmt 1 view .LVU40
 215 0002 28B1     		cbz	r0, .L15
 215:Src/gt911.c   **** 	case true:
 216:Src/gt911.c   **** 		HAL_GPIO_WritePin(CTP_RST_GPIO_Port, CTP_RST_Pin, GPIO_PIN_SET);
 216              		.loc 1 216 3 view .LVU41
 217 0004 0122     		movs	r2, #1
 218 0006 0221     		movs	r1, #2
 219 0008 0448     		ldr	r0, .L18
 220              	.LVL8:
 221              		.loc 1 216 3 is_stmt 0 view .LVU42
 222 000a FFF7FEFF 		bl	HAL_GPIO_WritePin
 223              	.LVL9:
 217:Src/gt911.c   **** 		break;
 224              		.loc 1 217 3 is_stmt 1 view .LVU43
 225              	.L14:
 218:Src/gt911.c   **** 	case false:
 219:Src/gt911.c   **** 		HAL_GPIO_WritePin(CTP_RST_GPIO_Port, CTP_RST_Pin, GPIO_PIN_RESET);
 220:Src/gt911.c   **** 		break;
 221:Src/gt911.c   **** 	}
 222:Src/gt911.c   **** }
 226              		.loc 1 222 1 is_stmt 0 view .LVU44
 227 000e 08BD     		pop	{r3, pc}
 228              	.LVL10:
 229              	.L15:
 219:Src/gt911.c   **** 		break;
 230              		.loc 1 219 3 is_stmt 1 view .LVU45
 231 0010 0022     		movs	r2, #0
 232 0012 0221     		movs	r1, #2
 233 0014 0148     		ldr	r0, .L18
 234              	.LVL11:
 219:Src/gt911.c   **** 		break;
ARM GAS  /var/folders/k2/cd9bl_j17z77g23y6ffqb_400000gn/T//cc0CaRcg.s 			page 9


 235              		.loc 1 219 3 is_stmt 0 view .LVU46
 236 0016 FFF7FEFF 		bl	HAL_GPIO_WritePin
 237              	.LVL12:
 220:Src/gt911.c   **** 	}
 238              		.loc 1 220 3 is_stmt 1 view .LVU47
 239              		.loc 1 222 1 is_stmt 0 view .LVU48
 240 001a F8E7     		b	.L14
 241              	.L19:
 242              		.align	2
 243              	.L18:
 244 001c 00100240 		.word	1073876992
 245              		.cfi_endproc
 246              	.LFE141:
 248              		.section	.text.GT911_INT_Control,"ax",%progbits
 249              		.align	1
 250              		.global	GT911_INT_Control
 251              		.syntax unified
 252              		.thumb
 253              		.thumb_func
 254              		.fpu fpv4-sp-d16
 256              	GT911_INT_Control:
 257              	.LVL13:
 258              	.LFB142:
 223:Src/gt911.c   **** void GT911_INT_Control(bool high_or_low){
 259              		.loc 1 223 41 is_stmt 1 view -0
 260              		.cfi_startproc
 261              		@ args = 0, pretend = 0, frame = 0
 262              		@ frame_needed = 0, uses_anonymous_args = 0
 263              		.loc 1 223 41 is_stmt 0 view .LVU50
 264 0000 08B5     		push	{r3, lr}
 265              	.LCFI7:
 266              		.cfi_def_cfa_offset 8
 267              		.cfi_offset 3, -8
 268              		.cfi_offset 14, -4
 224:Src/gt911.c   **** 	switch(high_or_low){
 269              		.loc 1 224 2 is_stmt 1 view .LVU51
 270 0002 28B1     		cbz	r0, .L21
 225:Src/gt911.c   **** 	case true:
 226:Src/gt911.c   **** 		HAL_GPIO_WritePin(CTP_INT_GPIO_Port, CTP_INT_Pin, GPIO_PIN_SET);
 271              		.loc 1 226 3 view .LVU52
 272 0004 0122     		movs	r2, #1
 273 0006 1146     		mov	r1, r2
 274 0008 0448     		ldr	r0, .L24
 275              	.LVL14:
 276              		.loc 1 226 3 is_stmt 0 view .LVU53
 277 000a FFF7FEFF 		bl	HAL_GPIO_WritePin
 278              	.LVL15:
 227:Src/gt911.c   **** 		break;
 279              		.loc 1 227 3 is_stmt 1 view .LVU54
 280              	.L20:
 228:Src/gt911.c   **** 	case false:
 229:Src/gt911.c   **** 		HAL_GPIO_WritePin(CTP_INT_GPIO_Port, CTP_INT_Pin, GPIO_PIN_RESET);
 230:Src/gt911.c   **** 		break;
 231:Src/gt911.c   **** 	}
 232:Src/gt911.c   **** }
 281              		.loc 1 232 1 is_stmt 0 view .LVU55
 282 000e 08BD     		pop	{r3, pc}
ARM GAS  /var/folders/k2/cd9bl_j17z77g23y6ffqb_400000gn/T//cc0CaRcg.s 			page 10


 283              	.LVL16:
 284              	.L21:
 229:Src/gt911.c   **** 		break;
 285              		.loc 1 229 3 is_stmt 1 view .LVU56
 286 0010 0022     		movs	r2, #0
 287 0012 0121     		movs	r1, #1
 288 0014 0148     		ldr	r0, .L24
 289              	.LVL17:
 229:Src/gt911.c   **** 		break;
 290              		.loc 1 229 3 is_stmt 0 view .LVU57
 291 0016 FFF7FEFF 		bl	HAL_GPIO_WritePin
 292              	.LVL18:
 230:Src/gt911.c   **** 	}
 293              		.loc 1 230 3 is_stmt 1 view .LVU58
 294              		.loc 1 232 1 is_stmt 0 view .LVU59
 295 001a F8E7     		b	.L20
 296              	.L25:
 297              		.align	2
 298              	.L24:
 299 001c 00100240 		.word	1073876992
 300              		.cfi_endproc
 301              	.LFE142:
 303              		.section	.text.GT911_Delay,"ax",%progbits
 304              		.align	1
 305              		.global	GT911_Delay
 306              		.syntax unified
 307              		.thumb
 308              		.thumb_func
 309              		.fpu fpv4-sp-d16
 311              	GT911_Delay:
 312              	.LVL19:
 313              	.LFB143:
 233:Src/gt911.c   **** 
 234:Src/gt911.c   **** 
 235:Src/gt911.c   **** void GT911_Delay(uint16_t ms){
 314              		.loc 1 235 30 is_stmt 1 view -0
 315              		.cfi_startproc
 316              		@ args = 0, pretend = 0, frame = 0
 317              		@ frame_needed = 0, uses_anonymous_args = 0
 318              		.loc 1 235 30 is_stmt 0 view .LVU61
 319 0000 08B5     		push	{r3, lr}
 320              	.LCFI8:
 321              		.cfi_def_cfa_offset 8
 322              		.cfi_offset 3, -8
 323              		.cfi_offset 14, -4
 236:Src/gt911.c   **** 	HAL_Delay(ms);
 324              		.loc 1 236 2 is_stmt 1 view .LVU62
 325 0002 FFF7FEFF 		bl	HAL_Delay
 326              	.LVL20:
 237:Src/gt911.c   **** }
 327              		.loc 1 237 1 is_stmt 0 view .LVU63
 328 0006 08BD     		pop	{r3, pc}
 329              		.cfi_endproc
 330              	.LFE143:
 332              		.section	.text.GT911_Reset,"ax",%progbits
 333              		.align	1
 334              		.syntax unified
ARM GAS  /var/folders/k2/cd9bl_j17z77g23y6ffqb_400000gn/T//cc0CaRcg.s 			page 11


 335              		.thumb
 336              		.thumb_func
 337              		.fpu fpv4-sp-d16
 339              	GT911_Reset:
 340              	.LFB132:
 126:Src/gt911.c   **** 	GT911_INT_Input();
 341              		.loc 1 126 30 is_stmt 1 view -0
 342              		.cfi_startproc
 343              		@ args = 0, pretend = 0, frame = 0
 344              		@ frame_needed = 0, uses_anonymous_args = 0
 345 0000 08B5     		push	{r3, lr}
 346              	.LCFI9:
 347              		.cfi_def_cfa_offset 8
 348              		.cfi_offset 3, -8
 349              		.cfi_offset 14, -4
 127:Src/gt911.c   **** 	GT911_RST_Control(0);
 350              		.loc 1 127 2 view .LVU65
 351 0002 FFF7FEFF 		bl	GT911_INT_Input
 352              	.LVL21:
 128:Src/gt911.c   **** 	GT911_Delay(20);
 353              		.loc 1 128 2 view .LVU66
 354 0006 0020     		movs	r0, #0
 355 0008 FFF7FEFF 		bl	GT911_RST_Control
 356              	.LVL22:
 129:Src/gt911.c   **** 	GT911_INT_Control(0);
 357              		.loc 1 129 2 view .LVU67
 358 000c 1420     		movs	r0, #20
 359 000e FFF7FEFF 		bl	GT911_Delay
 360              	.LVL23:
 130:Src/gt911.c   **** 	GT911_Delay(50);
 361              		.loc 1 130 2 view .LVU68
 362 0012 0020     		movs	r0, #0
 363 0014 FFF7FEFF 		bl	GT911_INT_Control
 364              	.LVL24:
 131:Src/gt911.c   **** 	GT911_RST_Control(1);
 365              		.loc 1 131 2 view .LVU69
 366 0018 3220     		movs	r0, #50
 367 001a FFF7FEFF 		bl	GT911_Delay
 368              	.LVL25:
 132:Src/gt911.c   **** 	GT911_Delay(100);
 369              		.loc 1 132 2 view .LVU70
 370 001e 0120     		movs	r0, #1
 371 0020 FFF7FEFF 		bl	GT911_RST_Control
 372              	.LVL26:
 133:Src/gt911.c   **** 	GT911_INT_Output();
 373              		.loc 1 133 2 view .LVU71
 374 0024 6420     		movs	r0, #100
 375 0026 FFF7FEFF 		bl	GT911_Delay
 376              	.LVL27:
 134:Src/gt911.c   **** 	GT911_Delay(100);
 377              		.loc 1 134 2 view .LVU72
 378 002a FFF7FEFF 		bl	GT911_INT_Output
 379              	.LVL28:
 135:Src/gt911.c   **** }
 380              		.loc 1 135 2 view .LVU73
 381 002e 6420     		movs	r0, #100
 382 0030 FFF7FEFF 		bl	GT911_Delay
ARM GAS  /var/folders/k2/cd9bl_j17z77g23y6ffqb_400000gn/T//cc0CaRcg.s 			page 12


 383              	.LVL29:
 136:Src/gt911.c   **** 
 384              		.loc 1 136 1 is_stmt 0 view .LVU74
 385 0034 08BD     		pop	{r3, pc}
 386              		.cfi_endproc
 387              	.LFE132:
 389              		.section	.text.GT911_I2C_Init,"ax",%progbits
 390              		.align	1
 391              		.global	GT911_I2C_Init
 392              		.syntax unified
 393              		.thumb
 394              		.thumb_func
 395              		.fpu fpv4-sp-d16
 397              	GT911_I2C_Init:
 398              	.LFB144:
 238:Src/gt911.c   **** 
 239:Src/gt911.c   **** GT911_Status_t GT911_I2C_Init(void){
 399              		.loc 1 239 36 is_stmt 1 view -0
 400              		.cfi_startproc
 401              		@ args = 0, pretend = 0, frame = 0
 402              		@ frame_needed = 0, uses_anonymous_args = 0
 403              		@ link register save eliminated.
 240:Src/gt911.c   **** 	return GT911_OK;
 404              		.loc 1 240 2 view .LVU76
 241:Src/gt911.c   **** }
 405              		.loc 1 241 1 is_stmt 0 view .LVU77
 406 0000 0020     		movs	r0, #0
 407 0002 7047     		bx	lr
 408              		.cfi_endproc
 409              	.LFE144:
 411              		.section	.text.GT911_I2C_Write,"ax",%progbits
 412              		.align	1
 413              		.global	GT911_I2C_Write
 414              		.syntax unified
 415              		.thumb
 416              		.thumb_func
 417              		.fpu fpv4-sp-d16
 419              	GT911_I2C_Write:
 420              	.LVL30:
 421              	.LFB145:
 242:Src/gt911.c   **** 
 243:Src/gt911.c   **** GT911_Status_t GT911_I2C_Write(uint8_t Addr, uint8_t *write_data, uint16_t write_length) {
 422              		.loc 1 243 90 is_stmt 1 view -0
 423              		.cfi_startproc
 424              		@ args = 0, pretend = 0, frame = 0
 425              		@ frame_needed = 0, uses_anonymous_args = 0
 426              		.loc 1 243 90 is_stmt 0 view .LVU79
 427 0000 00B5     		push	{lr}
 428              	.LCFI10:
 429              		.cfi_def_cfa_offset 4
 430              		.cfi_offset 14, -4
 431 0002 83B0     		sub	sp, sp, #12
 432              	.LCFI11:
 433              		.cfi_def_cfa_offset 16
 434 0004 1346     		mov	r3, r2
 244:Src/gt911.c   **** 	uint8_t Address = Addr << 1;
 435              		.loc 1 244 2 is_stmt 1 view .LVU80
ARM GAS  /var/folders/k2/cd9bl_j17z77g23y6ffqb_400000gn/T//cc0CaRcg.s 			page 13


 436              		.loc 1 244 10 is_stmt 0 view .LVU81
 437 0006 4000     		lsls	r0, r0, #1
 438              	.LVL31:
 245:Src/gt911.c   **** 	switch (HAL_I2C_Master_Transmit(&hi2c1, Address, write_data, write_length, HAL_MAX_DELAY)) {
 439              		.loc 1 245 2 is_stmt 1 view .LVU82
 440              		.loc 1 245 10 is_stmt 0 view .LVU83
 441 0008 4FF0FF32 		mov	r2, #-1
 442              	.LVL32:
 443              		.loc 1 245 10 view .LVU84
 444 000c 0092     		str	r2, [sp]
 445 000e 0A46     		mov	r2, r1
 446 0010 00F0FE01 		and	r1, r0, #254
 447              	.LVL33:
 448              		.loc 1 245 10 view .LVU85
 449 0014 0948     		ldr	r0, .L39
 450              	.LVL34:
 451              		.loc 1 245 10 view .LVU86
 452 0016 FFF7FEFF 		bl	HAL_I2C_Master_Transmit
 453              	.LVL35:
 454              		.loc 1 245 2 view .LVU87
 455 001a 0128     		cmp	r0, #1
 456 001c 01D0     		beq	.L32
 457 001e 03D8     		bhi	.L33
 458 0020 50B9     		cbnz	r0, .L37
 459              	.L32:
 246:Src/gt911.c   **** 	case HAL_OK:
 247:Src/gt911.c   **** 		return GT911_OK;
 248:Src/gt911.c   **** 		break;
 249:Src/gt911.c   **** 	case HAL_ERROR:
 250:Src/gt911.c   **** 		return GT911_Error;
 251:Src/gt911.c   **** 		break;
 252:Src/gt911.c   **** 	case HAL_BUSY:
 253:Src/gt911.c   **** 	case HAL_TIMEOUT:
 254:Src/gt911.c   **** 		return GT911_NotResponse;
 255:Src/gt911.c   **** 		break;
 256:Src/gt911.c   **** 	}
 257:Src/gt911.c   **** 	return GT911_Error;
 258:Src/gt911.c   **** }
 460              		.loc 1 258 1 view .LVU88
 461 0022 03B0     		add	sp, sp, #12
 462              	.LCFI12:
 463              		.cfi_remember_state
 464              		.cfi_def_cfa_offset 4
 465              		@ sp needed
 466 0024 5DF804FB 		ldr	pc, [sp], #4
 467              	.L33:
 468              	.LCFI13:
 469              		.cfi_restore_state
 245:Src/gt911.c   **** 	switch (HAL_I2C_Master_Transmit(&hi2c1, Address, write_data, write_length, HAL_MAX_DELAY)) {
 470              		.loc 1 245 2 view .LVU89
 471 0028 0238     		subs	r0, r0, #2
 472 002a C0B2     		uxtb	r0, r0
 473 002c 0128     		cmp	r0, #1
 474 002e 01D8     		bhi	.L38
 254:Src/gt911.c   **** 		break;
 475              		.loc 1 254 10 view .LVU90
 476 0030 0220     		movs	r0, #2
ARM GAS  /var/folders/k2/cd9bl_j17z77g23y6ffqb_400000gn/T//cc0CaRcg.s 			page 14


 477 0032 F6E7     		b	.L32
 478              	.L38:
 257:Src/gt911.c   **** }
 479              		.loc 1 257 9 view .LVU91
 480 0034 0120     		movs	r0, #1
 481 0036 F4E7     		b	.L32
 482              	.L37:
 483 0038 0120     		movs	r0, #1
 484 003a F2E7     		b	.L32
 485              	.L40:
 486              		.align	2
 487              	.L39:
 488 003c 00000000 		.word	hi2c1
 489              		.cfi_endproc
 490              	.LFE145:
 492              		.section	.text.GT911_SendConfig,"ax",%progbits
 493              		.align	1
 494              		.syntax unified
 495              		.thumb
 496              		.thumb_func
 497              		.fpu fpv4-sp-d16
 499              	GT911_SendConfig:
 500              	.LFB136:
 167:Src/gt911.c   **** 	GT911_CalculateCheckSum();
 501              		.loc 1 167 45 is_stmt 1 view -0
 502              		.cfi_startproc
 503              		@ args = 0, pretend = 0, frame = 0
 504              		@ frame_needed = 0, uses_anonymous_args = 0
 505 0000 10B5     		push	{r4, lr}
 506              	.LCFI14:
 507              		.cfi_def_cfa_offset 8
 508              		.cfi_offset 4, -8
 509              		.cfi_offset 14, -4
 168:Src/gt911.c   **** 	TxBuffer[0] = (GOODIX_REG_CONFIG_DATA & 0xFF00) >> 8;
 510              		.loc 1 168 2 view .LVU93
 511 0002 FFF7FEFF 		bl	GT911_CalculateCheckSum
 512              	.LVL36:
 169:Src/gt911.c   **** 	TxBuffer[1] = GOODIX_REG_CONFIG_DATA & 0xFF;
 513              		.loc 1 169 2 view .LVU94
 169:Src/gt911.c   **** 	TxBuffer[1] = GOODIX_REG_CONFIG_DATA & 0xFF;
 514              		.loc 1 169 14 is_stmt 0 view .LVU95
 515 0006 084C     		ldr	r4, .L43
 516 0008 8023     		movs	r3, #128
 517 000a 2370     		strb	r3, [r4]
 170:Src/gt911.c   **** 	memcpy(&TxBuffer[2], GT911_Config, sizeof(GT911_Config));
 518              		.loc 1 170 2 is_stmt 1 view .LVU96
 170:Src/gt911.c   **** 	memcpy(&TxBuffer[2], GT911_Config, sizeof(GT911_Config));
 519              		.loc 1 170 14 is_stmt 0 view .LVU97
 520 000c 4723     		movs	r3, #71
 521 000e 6370     		strb	r3, [r4, #1]
 171:Src/gt911.c   **** 	return GT911_I2C_Write(GOODIX_ADDRESS, TxBuffer, sizeof(GT911_Config) + 2);
 522              		.loc 1 171 2 is_stmt 1 view .LVU98
 523 0010 BA22     		movs	r2, #186
 524 0012 0649     		ldr	r1, .L43+4
 525 0014 A01C     		adds	r0, r4, #2
 526 0016 FFF7FEFF 		bl	memcpy
 527              	.LVL37:
ARM GAS  /var/folders/k2/cd9bl_j17z77g23y6ffqb_400000gn/T//cc0CaRcg.s 			page 15


 172:Src/gt911.c   **** }
 528              		.loc 1 172 2 view .LVU99
 172:Src/gt911.c   **** }
 529              		.loc 1 172 9 is_stmt 0 view .LVU100
 530 001a BC22     		movs	r2, #188
 531 001c 2146     		mov	r1, r4
 532 001e 1420     		movs	r0, #20
 533 0020 FFF7FEFF 		bl	GT911_I2C_Write
 534              	.LVL38:
 173:Src/gt911.c   **** 
 535              		.loc 1 173 1 view .LVU101
 536 0024 10BD     		pop	{r4, pc}
 537              	.L44:
 538 0026 00BF     		.align	2
 539              	.L43:
 540 0028 00000000 		.word	.LANCHOR1
 541 002c 00000000 		.word	.LANCHOR0
 542              		.cfi_endproc
 543              	.LFE136:
 545              		.section	.text.GT911_SetCommandRegister,"ax",%progbits
 546              		.align	1
 547              		.syntax unified
 548              		.thumb
 549              		.thumb_func
 550              		.fpu fpv4-sp-d16
 552              	GT911_SetCommandRegister:
 553              	.LVL39:
 554              	.LFB134:
 146:Src/gt911.c   **** 	TxBuffer[0] = (GOODIX_REG_COMMAND & 0xFF00) >> 8;
 555              		.loc 1 146 64 is_stmt 1 view -0
 556              		.cfi_startproc
 557              		@ args = 0, pretend = 0, frame = 0
 558              		@ frame_needed = 0, uses_anonymous_args = 0
 146:Src/gt911.c   **** 	TxBuffer[0] = (GOODIX_REG_COMMAND & 0xFF00) >> 8;
 559              		.loc 1 146 64 is_stmt 0 view .LVU103
 560 0000 08B5     		push	{r3, lr}
 561              	.LCFI15:
 562              		.cfi_def_cfa_offset 8
 563              		.cfi_offset 3, -8
 564              		.cfi_offset 14, -4
 147:Src/gt911.c   **** 	TxBuffer[1] = GOODIX_REG_COMMAND & 0xFF;
 565              		.loc 1 147 2 is_stmt 1 view .LVU104
 147:Src/gt911.c   **** 	TxBuffer[1] = GOODIX_REG_COMMAND & 0xFF;
 566              		.loc 1 147 14 is_stmt 0 view .LVU105
 567 0002 0549     		ldr	r1, .L47
 568 0004 8023     		movs	r3, #128
 569 0006 0B70     		strb	r3, [r1]
 148:Src/gt911.c   **** 	TxBuffer[2] = command;
 570              		.loc 1 148 2 is_stmt 1 view .LVU106
 148:Src/gt911.c   **** 	TxBuffer[2] = command;
 571              		.loc 1 148 14 is_stmt 0 view .LVU107
 572 0008 4023     		movs	r3, #64
 573 000a 4B70     		strb	r3, [r1, #1]
 149:Src/gt911.c   **** 	return GT911_I2C_Write(GOODIX_ADDRESS, TxBuffer, 3);
 574              		.loc 1 149 2 is_stmt 1 view .LVU108
 149:Src/gt911.c   **** 	return GT911_I2C_Write(GOODIX_ADDRESS, TxBuffer, 3);
 575              		.loc 1 149 14 is_stmt 0 view .LVU109
ARM GAS  /var/folders/k2/cd9bl_j17z77g23y6ffqb_400000gn/T//cc0CaRcg.s 			page 16


 576 000c 8870     		strb	r0, [r1, #2]
 150:Src/gt911.c   **** }
 577              		.loc 1 150 2 is_stmt 1 view .LVU110
 150:Src/gt911.c   **** }
 578              		.loc 1 150 9 is_stmt 0 view .LVU111
 579 000e 0322     		movs	r2, #3
 580 0010 1420     		movs	r0, #20
 581              	.LVL40:
 150:Src/gt911.c   **** }
 582              		.loc 1 150 9 view .LVU112
 583 0012 FFF7FEFF 		bl	GT911_I2C_Write
 584              	.LVL41:
 151:Src/gt911.c   **** 
 585              		.loc 1 151 1 view .LVU113
 586 0016 08BD     		pop	{r3, pc}
 587              	.L48:
 588              		.align	2
 589              	.L47:
 590 0018 00000000 		.word	.LANCHOR1
 591              		.cfi_endproc
 592              	.LFE134:
 594              		.section	.text.GT911_SetStatus,"ax",%progbits
 595              		.align	1
 596              		.syntax unified
 597              		.thumb
 598              		.thumb_func
 599              		.fpu fpv4-sp-d16
 601              	GT911_SetStatus:
 602              	.LVL42:
 603              	.LFB138:
 189:Src/gt911.c   **** 	TxBuffer[0] = (GOODIX_READ_COORD_ADDR & 0xFF00) >> 8;
 604              		.loc 1 189 54 is_stmt 1 view -0
 605              		.cfi_startproc
 606              		@ args = 0, pretend = 0, frame = 0
 607              		@ frame_needed = 0, uses_anonymous_args = 0
 189:Src/gt911.c   **** 	TxBuffer[0] = (GOODIX_READ_COORD_ADDR & 0xFF00) >> 8;
 608              		.loc 1 189 54 is_stmt 0 view .LVU115
 609 0000 08B5     		push	{r3, lr}
 610              	.LCFI16:
 611              		.cfi_def_cfa_offset 8
 612              		.cfi_offset 3, -8
 613              		.cfi_offset 14, -4
 190:Src/gt911.c   **** 	TxBuffer[1] = GOODIX_READ_COORD_ADDR & 0xFF;
 614              		.loc 1 190 2 is_stmt 1 view .LVU116
 190:Src/gt911.c   **** 	TxBuffer[1] = GOODIX_READ_COORD_ADDR & 0xFF;
 615              		.loc 1 190 14 is_stmt 0 view .LVU117
 616 0002 0549     		ldr	r1, .L51
 617 0004 8123     		movs	r3, #129
 618 0006 0B70     		strb	r3, [r1]
 191:Src/gt911.c   **** 	TxBuffer[2] = status;
 619              		.loc 1 191 2 is_stmt 1 view .LVU118
 191:Src/gt911.c   **** 	TxBuffer[2] = status;
 620              		.loc 1 191 14 is_stmt 0 view .LVU119
 621 0008 4E23     		movs	r3, #78
 622 000a 4B70     		strb	r3, [r1, #1]
 192:Src/gt911.c   **** 	return GT911_I2C_Write(GOODIX_ADDRESS, TxBuffer, 3);
 623              		.loc 1 192 2 is_stmt 1 view .LVU120
ARM GAS  /var/folders/k2/cd9bl_j17z77g23y6ffqb_400000gn/T//cc0CaRcg.s 			page 17


 192:Src/gt911.c   **** 	return GT911_I2C_Write(GOODIX_ADDRESS, TxBuffer, 3);
 624              		.loc 1 192 14 is_stmt 0 view .LVU121
 625 000c 8870     		strb	r0, [r1, #2]
 193:Src/gt911.c   **** }
 626              		.loc 1 193 2 is_stmt 1 view .LVU122
 193:Src/gt911.c   **** }
 627              		.loc 1 193 9 is_stmt 0 view .LVU123
 628 000e 0322     		movs	r2, #3
 629 0010 1420     		movs	r0, #20
 630              	.LVL43:
 193:Src/gt911.c   **** }
 631              		.loc 1 193 9 view .LVU124
 632 0012 FFF7FEFF 		bl	GT911_I2C_Write
 633              	.LVL44:
 194:Src/gt911.c   **** 
 634              		.loc 1 194 1 view .LVU125
 635 0016 08BD     		pop	{r3, pc}
 636              	.L52:
 637              		.align	2
 638              	.L51:
 639 0018 00000000 		.word	.LANCHOR1
 640              		.cfi_endproc
 641              	.LFE138:
 643              		.section	.text.GT911_I2C_Read,"ax",%progbits
 644              		.align	1
 645              		.global	GT911_I2C_Read
 646              		.syntax unified
 647              		.thumb
 648              		.thumb_func
 649              		.fpu fpv4-sp-d16
 651              	GT911_I2C_Read:
 652              	.LVL45:
 653              	.LFB146:
 259:Src/gt911.c   **** 
 260:Src/gt911.c   **** GT911_Status_t GT911_I2C_Read(uint8_t Addr, uint8_t* read_data, uint16_t read_length){
 654              		.loc 1 260 86 is_stmt 1 view -0
 655              		.cfi_startproc
 656              		@ args = 0, pretend = 0, frame = 0
 657              		@ frame_needed = 0, uses_anonymous_args = 0
 658              		.loc 1 260 86 is_stmt 0 view .LVU127
 659 0000 00B5     		push	{lr}
 660              	.LCFI17:
 661              		.cfi_def_cfa_offset 4
 662              		.cfi_offset 14, -4
 663 0002 83B0     		sub	sp, sp, #12
 664              	.LCFI18:
 665              		.cfi_def_cfa_offset 16
 666 0004 1346     		mov	r3, r2
 261:Src/gt911.c   **** 	uint8_t Address = Addr << 1;
 667              		.loc 1 261 2 is_stmt 1 view .LVU128
 668              		.loc 1 261 10 is_stmt 0 view .LVU129
 669 0006 4000     		lsls	r0, r0, #1
 670              	.LVL46:
 262:Src/gt911.c   **** 	switch (HAL_I2C_Master_Receive(&hi2c1, Address, read_data, read_length, HAL_MAX_DELAY)) {
 671              		.loc 1 262 2 is_stmt 1 view .LVU130
 672              		.loc 1 262 10 is_stmt 0 view .LVU131
 673 0008 4FF0FF32 		mov	r2, #-1
ARM GAS  /var/folders/k2/cd9bl_j17z77g23y6ffqb_400000gn/T//cc0CaRcg.s 			page 18


 674              	.LVL47:
 675              		.loc 1 262 10 view .LVU132
 676 000c 0092     		str	r2, [sp]
 677 000e 0A46     		mov	r2, r1
 678 0010 00F0FE01 		and	r1, r0, #254
 679              	.LVL48:
 680              		.loc 1 262 10 view .LVU133
 681 0014 0948     		ldr	r0, .L61
 682              	.LVL49:
 683              		.loc 1 262 10 view .LVU134
 684 0016 FFF7FEFF 		bl	HAL_I2C_Master_Receive
 685              	.LVL50:
 686              		.loc 1 262 2 view .LVU135
 687 001a 0128     		cmp	r0, #1
 688 001c 01D0     		beq	.L54
 689 001e 03D8     		bhi	.L55
 690 0020 50B9     		cbnz	r0, .L59
 691              	.L54:
 263:Src/gt911.c   **** 	case HAL_OK:
 264:Src/gt911.c   **** 		return GT911_OK;
 265:Src/gt911.c   **** 		break;
 266:Src/gt911.c   **** 	case HAL_ERROR:
 267:Src/gt911.c   **** 		return GT911_Error;
 268:Src/gt911.c   **** 		break;
 269:Src/gt911.c   **** 	case HAL_BUSY:
 270:Src/gt911.c   **** 	case HAL_TIMEOUT:
 271:Src/gt911.c   **** 		return GT911_NotResponse;
 272:Src/gt911.c   **** 		break;
 273:Src/gt911.c   **** 	}
 274:Src/gt911.c   **** 	return HAL_ERROR;
 275:Src/gt911.c   **** }...
 692              		.loc 1 275 1 view .LVU136
 693 0022 03B0     		add	sp, sp, #12
 694              	.LCFI19:
 695              		.cfi_remember_state
 696              		.cfi_def_cfa_offset 4
 697              		@ sp needed
 698 0024 5DF804FB 		ldr	pc, [sp], #4
 699              	.L55:
 700              	.LCFI20:
 701              		.cfi_restore_state
 262:Src/gt911.c   **** 	switch (HAL_I2C_Master_Receive(&hi2c1, Address, read_data, read_length, HAL_MAX_DELAY)) {
 702              		.loc 1 262 2 view .LVU137
 703 0028 0238     		subs	r0, r0, #2
 704 002a C0B2     		uxtb	r0, r0
 705 002c 0128     		cmp	r0, #1
 706 002e 01D8     		bhi	.L60
 271:Src/gt911.c   **** 		return GT911_NotResponse;
 707              		.loc 1 271 10 view .LVU138
 708 0030 0220     		movs	r0, #2
 709 0032 F6E7     		b	.L54
 710              	.L60:
 274:Src/gt911.c   **** 	return HAL_ERROR;
 711              		.loc 1 274 9 view .LVU139
 712 0034 0120     		movs	r0, #1
 713 0036 F4E7     		b	.L54
 714              	.L59:
ARM GAS  /var/folders/k2/cd9bl_j17z77g23y6ffqb_400000gn/T//cc0CaRcg.s 			page 19


 715 0038 0120     		movs	r0, #1
 716 003a F2E7     		b	.L54
 717              	.L62:
 718              		.align	2
 719              	.L61:
 720 003c 00000000 		.word	hi2c1
 721              		.cfi_endproc
 722              	.LFE146:
 724              		.section	.text.GT911_GetProductID,"ax",%progbits
 725              		.align	1
 726              		.syntax unified
 727              		.thumb
 728              		.thumb_func
 729              		.fpu fpv4-sp-d16
 731              	GT911_GetProductID:
 732              	.LVL51:
 733              	.LFB135:
 153:Src/gt911.c   **** static GT911_Status_t GT911_GetProductID(uint32_t* id){
 734              		.loc 1 153 55 is_stmt 1 view -0
 735              		.cfi_startproc
 736              		@ args = 0, pretend = 0, frame = 0
 737              		@ frame_needed = 0, uses_anonymous_args = 0
 153:Src/gt911.c   **** static GT911_Status_t GT911_GetProductID(uint32_t* id){
 738              		.loc 1 153 55 is_stmt 0 view .LVU141
 739 0000 10B5     		push	{r4, lr}
 740              	.LCFI21:
 741              		.cfi_def_cfa_offset 8
 742              		.cfi_offset 4, -8
 743              		.cfi_offset 14, -4
 744 0002 0446     		mov	r4, r0
 154:Src/gt911.c   **** 	TxBuffer[0] = (GOODIX_REG_ID & 0xFF00) >> 8;
 745              		.loc 1 154 2 is_stmt 1 view .LVU142
 154:Src/gt911.c   **** 	TxBuffer[0] = (GOODIX_REG_ID & 0xFF00) >> 8;
 746              		.loc 1 154 14 is_stmt 0 view .LVU143
 747 0004 0A49     		ldr	r1, .L67
 748 0006 8123     		movs	r3, #129
 749 0008 0B70     		strb	r3, [r1]
 155:Src/gt911.c   **** 	TxBuffer[1] = GOODIX_REG_ID & 0xFF;
 750              		.loc 1 155 2 is_stmt 1 view .LVU144
 155:Src/gt911.c   **** 	TxBuffer[1] = GOODIX_REG_ID & 0xFF;
 751              		.loc 1 155 14 is_stmt 0 view .LVU145
 752 000a 4023     		movs	r3, #64
 753 000c 4B70     		strb	r3, [r1, #1]
 156:Src/gt911.c   **** 	GT911_Status_t Result = GT911_NotResponse;
 754              		.loc 1 156 2 is_stmt 1 view .LVU146
 755              	.LVL52:
 157:Src/gt911.c   **** 	Result = GT911_I2C_Write(GOODIX_ADDRESS, TxBuffer, 2);
 756              		.loc 1 157 2 view .LVU147
 157:Src/gt911.c   **** 	Result = GT911_I2C_Write(GOODIX_ADDRESS, TxBuffer, 2);
 757              		.loc 1 157 11 is_stmt 0 view .LVU148
 758 000e 0222     		movs	r2, #2
 759 0010 1420     		movs	r0, #20
 760              	.LVL53:
 157:Src/gt911.c   **** 	Result = GT911_I2C_Write(GOODIX_ADDRESS, TxBuffer, 2);
 761              		.loc 1 157 11 view .LVU149
 762 0012 FFF7FEFF 		bl	GT911_I2C_Write
 763              	.LVL54:
ARM GAS  /var/folders/k2/cd9bl_j17z77g23y6ffqb_400000gn/T//cc0CaRcg.s 			page 20


 158:Src/gt911.c   **** 	if(Result == GT911_OK){
 764              		.loc 1 158 2 is_stmt 1 view .LVU150
 158:Src/gt911.c   **** 	if(Result == GT911_OK){
 765              		.loc 1 158 4 is_stmt 0 view .LVU151
 766 0016 00B1     		cbz	r0, .L66
 767              	.LVL55:
 768              	.L64:
 164:Src/gt911.c   **** 	return Result;
 769              		.loc 1 164 2 is_stmt 1 view .LVU152
 165:Src/gt911.c   **** }
 770              		.loc 1 165 1 is_stmt 0 view .LVU153
 771 0018 10BD     		pop	{r4, pc}
 772              	.LVL56:
 773              	.L66:
 159:Src/gt911.c   **** 		Result = GT911_I2C_Read(GOODIX_ADDRESS, RxBuffer, 4);
 774              		.loc 1 159 3 is_stmt 1 view .LVU154
 159:Src/gt911.c   **** 		Result = GT911_I2C_Read(GOODIX_ADDRESS, RxBuffer, 4);
 775              		.loc 1 159 12 is_stmt 0 view .LVU155
 776 001a 0422     		movs	r2, #4
 777 001c 0549     		ldr	r1, .L67+4
 778 001e 1420     		movs	r0, #20
 779 0020 FFF7FEFF 		bl	GT911_I2C_Read
 780              	.LVL57:
 160:Src/gt911.c   **** 		if( Result == GT911_OK){
 781              		.loc 1 160 3 is_stmt 1 view .LVU156
 160:Src/gt911.c   **** 		if( Result == GT911_OK){
 782              		.loc 1 160 5 is_stmt 0 view .LVU157
 783 0024 0028     		cmp	r0, #0
 784 0026 F7D1     		bne	.L64
 161:Src/gt911.c   **** 			memcpy(id, RxBuffer, 4);
 785              		.loc 1 161 4 is_stmt 1 view .LVU158
 786 0028 024B     		ldr	r3, .L67+4
 787 002a 1B68     		ldr	r3, [r3]
 788 002c 2360     		str	r3, [r4]	@ unaligned
 789 002e F3E7     		b	.L64
 790              	.L68:
 791              		.align	2
 792              	.L67:
 793 0030 00000000 		.word	.LANCHOR1
 794 0034 00000000 		.word	.LANCHOR2
 795              		.cfi_endproc
 796              	.LFE135:
 798              		.section	.text.GT911_Init,"ax",%progbits
 799              		.align	1
 800              		.global	GT911_Init
 801              		.syntax unified
 802              		.thumb
 803              		.thumb_func
 804              		.fpu fpv4-sp-d16
 806              	GT911_Init:
 807              	.LFB130:
  42:Src/gt911.c   **** GT911_Status_t GT911_Init(GT911_Config_t config){
 808              		.loc 1 42 49 view -0
 809              		.cfi_startproc
 810              		@ args = 0, pretend = 0, frame = 48
 811              		@ frame_needed = 0, uses_anonymous_args = 0
 812 0000 70B5     		push	{r4, r5, r6, lr}
ARM GAS  /var/folders/k2/cd9bl_j17z77g23y6ffqb_400000gn/T//cc0CaRcg.s 			page 21


 813              	.LCFI22:
 814              		.cfi_def_cfa_offset 16
 815              		.cfi_offset 4, -16
 816              		.cfi_offset 5, -12
 817              		.cfi_offset 6, -8
 818              		.cfi_offset 14, -4
 819 0002 8CB0     		sub	sp, sp, #48
 820              	.LCFI23:
 821              		.cfi_def_cfa_offset 64
 822 0004 01AB     		add	r3, sp, #4
 823 0006 83E80700 		stm	r3, {r0, r1, r2}
  43:Src/gt911.c   **** 	GPIO_InitTypeDef GPIO_InitStruct = {0};
 824              		.loc 1 43 2 view .LVU160
  43:Src/gt911.c   **** 	GPIO_InitTypeDef GPIO_InitStruct = {0};
 825              		.loc 1 43 19 is_stmt 0 view .LVU161
 826 000a 0024     		movs	r4, #0
 827 000c 0794     		str	r4, [sp, #28]
 828 000e 0894     		str	r4, [sp, #32]
 829 0010 0994     		str	r4, [sp, #36]
 830 0012 0A94     		str	r4, [sp, #40]
 831 0014 0B94     		str	r4, [sp, #44]
  44:Src/gt911.c   **** 	__HAL_RCC_GPIOE_CLK_ENABLE();
 832              		.loc 1 44 2 is_stmt 1 view .LVU162
 833              	.LBB3:
  44:Src/gt911.c   **** 	__HAL_RCC_GPIOE_CLK_ENABLE();
 834              		.loc 1 44 2 view .LVU163
 835 0016 0594     		str	r4, [sp, #20]
  44:Src/gt911.c   **** 	__HAL_RCC_GPIOE_CLK_ENABLE();
 836              		.loc 1 44 2 view .LVU164
 837 0018 384B     		ldr	r3, .L73
 838 001a 1A6B     		ldr	r2, [r3, #48]
 839 001c 42F01002 		orr	r2, r2, #16
 840 0020 1A63     		str	r2, [r3, #48]
  44:Src/gt911.c   **** 	__HAL_RCC_GPIOE_CLK_ENABLE();
 841              		.loc 1 44 2 view .LVU165
 842 0022 1B6B     		ldr	r3, [r3, #48]
 843 0024 03F01003 		and	r3, r3, #16
 844 0028 0593     		str	r3, [sp, #20]
  44:Src/gt911.c   **** 	__HAL_RCC_GPIOE_CLK_ENABLE();
 845              		.loc 1 44 2 view .LVU166
 846 002a 059B     		ldr	r3, [sp, #20]
 847              	.LBE3:
  44:Src/gt911.c   **** 	__HAL_RCC_GPIOE_CLK_ENABLE();
 848              		.loc 1 44 2 view .LVU167
  45:Src/gt911.c   **** 	HAL_GPIO_WritePin(GPIOE, GPIO_PIN_0|GPIO_PIN_1, GPIO_PIN_RESET);
 849              		.loc 1 45 2 view .LVU168
 850 002c 2246     		mov	r2, r4
 851 002e 0321     		movs	r1, #3
 852 0030 3348     		ldr	r0, .L73+4
 853 0032 FFF7FEFF 		bl	HAL_GPIO_WritePin
 854              	.LVL58:
  46:Src/gt911.c   **** 	GPIO_InitStruct.Pin = GPIO_PIN_0|GPIO_PIN_2;
 855              		.loc 1 46 2 view .LVU169
  46:Src/gt911.c   **** 	GPIO_InitStruct.Pin = GPIO_PIN_0|GPIO_PIN_2;
 856              		.loc 1 46 22 is_stmt 0 view .LVU170
 857 0036 0523     		movs	r3, #5
 858 0038 0793     		str	r3, [sp, #28]
ARM GAS  /var/folders/k2/cd9bl_j17z77g23y6ffqb_400000gn/T//cc0CaRcg.s 			page 22


  47:Src/gt911.c   ****   	GPIO_InitStruct.Mode = GPIO_MODE_OUTPUT_PP;
 859              		.loc 1 47 4 is_stmt 1 view .LVU171
  47:Src/gt911.c   ****   	GPIO_InitStruct.Mode = GPIO_MODE_OUTPUT_PP;
 860              		.loc 1 47 25 is_stmt 0 view .LVU172
 861 003a 0123     		movs	r3, #1
 862 003c 0893     		str	r3, [sp, #32]
  48:Src/gt911.c   ****   	GPIO_InitStruct.Pull = GPIO_NOPULL;
 863              		.loc 1 48 4 is_stmt 1 view .LVU173
  48:Src/gt911.c   ****   	GPIO_InitStruct.Pull = GPIO_NOPULL;
 864              		.loc 1 48 25 is_stmt 0 view .LVU174
 865 003e 0994     		str	r4, [sp, #36]
  49:Src/gt911.c   ****   	GPIO_InitStruct.Speed = GPIO_SPEED_FREQ_LOW;
 866              		.loc 1 49 4 is_stmt 1 view .LVU175
  49:Src/gt911.c   ****   	GPIO_InitStruct.Speed = GPIO_SPEED_FREQ_LOW;
 867              		.loc 1 49 26 is_stmt 0 view .LVU176
 868 0040 0A94     		str	r4, [sp, #40]
  50:Src/gt911.c   ****   	HAL_GPIO_Init(GPIOA, &GPIO_InitStruct);
 869              		.loc 1 50 4 is_stmt 1 view .LVU177
 870 0042 07A9     		add	r1, sp, #28
 871 0044 2F48     		ldr	r0, .L73+8
 872 0046 FFF7FEFF 		bl	HAL_GPIO_Init
 873              	.LVL59:
  52:Src/gt911.c   **** 	GT911_Config[1] = config.X_Resolution & 0x00FF;
 874              		.loc 1 52 2 view .LVU178
  52:Src/gt911.c   **** 	GT911_Config[1] = config.X_Resolution & 0x00FF;
 875              		.loc 1 52 26 is_stmt 0 view .LVU179
 876 004a BDF80430 		ldrh	r3, [sp, #4]
  52:Src/gt911.c   **** 	GT911_Config[1] = config.X_Resolution & 0x00FF;
 877              		.loc 1 52 18 view .LVU180
 878 004e 2E4A     		ldr	r2, .L73+12
 879 0050 5370     		strb	r3, [r2, #1]
  53:Src/gt911.c   **** 	GT911_Config[2] = (config.X_Resolution >> 8) & 0x00FF;
 880              		.loc 1 53 2 is_stmt 1 view .LVU181
  53:Src/gt911.c   **** 	GT911_Config[2] = (config.X_Resolution >> 8) & 0x00FF;
 881              		.loc 1 53 18 is_stmt 0 view .LVU182
 882 0052 1B0A     		lsrs	r3, r3, #8
 883 0054 9370     		strb	r3, [r2, #2]
  55:Src/gt911.c   **** 	GT911_Config[3] = config.Y_Resolution & 0x00FF;
 884              		.loc 1 55 2 is_stmt 1 view .LVU183
  55:Src/gt911.c   **** 	GT911_Config[3] = config.Y_Resolution & 0x00FF;
 885              		.loc 1 55 26 is_stmt 0 view .LVU184
 886 0056 BDF80630 		ldrh	r3, [sp, #6]
  55:Src/gt911.c   **** 	GT911_Config[3] = config.Y_Resolution & 0x00FF;
 887              		.loc 1 55 18 view .LVU185
 888 005a D370     		strb	r3, [r2, #3]
  56:Src/gt911.c   **** 	GT911_Config[4] = (config.Y_Resolution >> 8) & 0x00FF;
 889              		.loc 1 56 2 is_stmt 1 view .LVU186
  56:Src/gt911.c   **** 	GT911_Config[4] = (config.Y_Resolution >> 8) & 0x00FF;
 890              		.loc 1 56 18 is_stmt 0 view .LVU187
 891 005c 1B0A     		lsrs	r3, r3, #8
 892 005e 1371     		strb	r3, [r2, #4]
  58:Src/gt911.c   **** 	GT911_Config[5] = config.Number_Of_Touch_Support;
 893              		.loc 1 58 2 is_stmt 1 view .LVU188
  58:Src/gt911.c   **** 	GT911_Config[5] = config.Number_Of_Touch_Support;
 894              		.loc 1 58 26 is_stmt 0 view .LVU189
 895 0060 9DF80830 		ldrb	r3, [sp, #8]	@ zero_extendqisi2
  58:Src/gt911.c   **** 	GT911_Config[5] = config.Number_Of_Touch_Support;
ARM GAS  /var/folders/k2/cd9bl_j17z77g23y6ffqb_400000gn/T//cc0CaRcg.s 			page 23


 896              		.loc 1 58 18 view .LVU190
 897 0064 5371     		strb	r3, [r2, #5]
  60:Src/gt911.c   **** 	GT911_Config[6] = 0;
 898              		.loc 1 60 2 is_stmt 1 view .LVU191
  60:Src/gt911.c   **** 	GT911_Config[6] = 0;
 899              		.loc 1 60 18 is_stmt 0 view .LVU192
 900 0066 9471     		strb	r4, [r2, #6]
  61:Src/gt911.c   **** 	GT911_Config[6] |= config.ReverseY << 7;
 901              		.loc 1 61 2 is_stmt 1 view .LVU193
  61:Src/gt911.c   **** 	GT911_Config[6] |= config.ReverseY << 7;
 902              		.loc 1 61 27 is_stmt 0 view .LVU194
 903 0068 9DF80A30 		ldrb	r3, [sp, #10]	@ zero_extendqisi2
  61:Src/gt911.c   **** 	GT911_Config[6] |= config.ReverseY << 7;
 904              		.loc 1 61 37 view .LVU195
 905 006c DB01     		lsls	r3, r3, #7
  61:Src/gt911.c   **** 	GT911_Config[6] |= config.ReverseY << 7;
 906              		.loc 1 61 18 view .LVU196
 907 006e 5BB2     		sxtb	r3, r3
 908 0070 9371     		strb	r3, [r2, #6]
  63:Src/gt911.c   **** 	GT911_Config[6] |= config.ReverseX << 6;
 909              		.loc 1 63 2 is_stmt 1 view .LVU197
  63:Src/gt911.c   **** 	GT911_Config[6] |= config.ReverseX << 6;
 910              		.loc 1 63 27 is_stmt 0 view .LVU198
 911 0072 9DF80910 		ldrb	r1, [sp, #9]	@ zero_extendqisi2
  63:Src/gt911.c   **** 	GT911_Config[6] |= config.ReverseX << 6;
 912              		.loc 1 63 18 view .LVU199
 913 0076 43EA8113 		orr	r3, r3, r1, lsl #6
 914 007a 5BB2     		sxtb	r3, r3
 915 007c 9371     		strb	r3, [r2, #6]
  65:Src/gt911.c   **** 	GT911_Config[6] |= config.SwithX2Y << 3;
 916              		.loc 1 65 2 is_stmt 1 view .LVU200
  65:Src/gt911.c   **** 	GT911_Config[6] |= config.SwithX2Y << 3;
 917              		.loc 1 65 27 is_stmt 0 view .LVU201
 918 007e 9DF80B10 		ldrb	r1, [sp, #11]	@ zero_extendqisi2
  65:Src/gt911.c   **** 	GT911_Config[6] |= config.SwithX2Y << 3;
 919              		.loc 1 65 18 view .LVU202
 920 0082 43EAC103 		orr	r3, r3, r1, lsl #3
 921 0086 5BB2     		sxtb	r3, r3
 922 0088 9371     		strb	r3, [r2, #6]
  67:Src/gt911.c   **** 	GT911_Config[6] |= config.SoftwareNoiseReduction << 2;
 923              		.loc 1 67 2 is_stmt 1 view .LVU203
  67:Src/gt911.c   **** 	GT911_Config[6] |= config.SoftwareNoiseReduction << 2;
 924              		.loc 1 67 27 is_stmt 0 view .LVU204
 925 008a 9DF80C10 		ldrb	r1, [sp, #12]	@ zero_extendqisi2
  67:Src/gt911.c   **** 	GT911_Config[6] |= config.SoftwareNoiseReduction << 2;
 926              		.loc 1 67 18 view .LVU205
 927 008e 43EA8103 		orr	r3, r3, r1, lsl #2
 928 0092 9371     		strb	r3, [r2, #6]
  70:Src/gt911.c   **** 	GT911_Reset();
 929              		.loc 1 70 2 is_stmt 1 view .LVU206
 930 0094 FFF7FEFF 		bl	GT911_Reset
 931              	.LVL60:
  72:Src/gt911.c   **** 	uint32_t productID = 0;
 932              		.loc 1 72 2 view .LVU207
  72:Src/gt911.c   **** 	uint32_t productID = 0;
 933              		.loc 1 72 11 is_stmt 0 view .LVU208
 934 0098 0694     		str	r4, [sp, #24]
ARM GAS  /var/folders/k2/cd9bl_j17z77g23y6ffqb_400000gn/T//cc0CaRcg.s 			page 24


  73:Src/gt911.c   **** 	CommunicationResult = GT911_GetProductID(&productID);
 935              		.loc 1 73 2 is_stmt 1 view .LVU209
  73:Src/gt911.c   **** 	CommunicationResult = GT911_GetProductID(&productID);
 936              		.loc 1 73 24 is_stmt 0 view .LVU210
 937 009a 06A8     		add	r0, sp, #24
 938 009c FFF7FEFF 		bl	GT911_GetProductID
 939              	.LVL61:
 940 00a0 0446     		mov	r4, r0
  73:Src/gt911.c   **** 	CommunicationResult = GT911_GetProductID(&productID);
 941              		.loc 1 73 22 view .LVU211
 942 00a2 1A4B     		ldr	r3, .L73+16
 943 00a4 1870     		strb	r0, [r3]
  74:Src/gt911.c   **** 	if(CommunicationResult != GT911_OK){
 944              		.loc 1 74 2 is_stmt 1 view .LVU212
  74:Src/gt911.c   **** 	if(CommunicationResult != GT911_OK){
 945              		.loc 1 74 4 is_stmt 0 view .LVU213
 946 00a6 28BB     		cbnz	r0, .L70
  77:Src/gt911.c   **** 	if(productID == 0){
 947              		.loc 1 77 2 is_stmt 1 view .LVU214
  77:Src/gt911.c   **** 	if(productID == 0){
 948              		.loc 1 77 15 is_stmt 0 view .LVU215
 949 00a8 069B     		ldr	r3, [sp, #24]
  77:Src/gt911.c   **** 	if(productID == 0){
 950              		.loc 1 77 4 view .LVU216
 951 00aa 13B3     		cbz	r3, .L71
  81:Src/gt911.c   **** 	GT911_Reset();
 952              		.loc 1 81 2 is_stmt 1 view .LVU217
 953 00ac FFF7FEFF 		bl	GT911_Reset
 954              	.LVL62:
  82:Src/gt911.c   **** 	CommunicationResult = GT911_SendConfig();
 955              		.loc 1 82 2 view .LVU218
  82:Src/gt911.c   **** 	CommunicationResult = GT911_SendConfig();
 956              		.loc 1 82 24 is_stmt 0 view .LVU219
 957 00b0 FFF7FEFF 		bl	GT911_SendConfig
 958              	.LVL63:
 959 00b4 0446     		mov	r4, r0
  82:Src/gt911.c   **** 	CommunicationResult = GT911_SendConfig();
 960              		.loc 1 82 22 view .LVU220
 961 00b6 154B     		ldr	r3, .L73+16
 962 00b8 1870     		strb	r0, [r3]
  83:Src/gt911.c   **** 	if(CommunicationResult != GT911_OK){
 963              		.loc 1 83 2 is_stmt 1 view .LVU221
  83:Src/gt911.c   **** 	if(CommunicationResult != GT911_OK){
 964              		.loc 1 83 4 is_stmt 0 view .LVU222
 965 00ba D8B9     		cbnz	r0, .L70
  86:Src/gt911.c   **** 	GT911_SetCommandRegister(0x00);
 966              		.loc 1 86 2 is_stmt 1 view .LVU223
 967 00bc 0020     		movs	r0, #0
 968 00be FFF7FEFF 		bl	GT911_SetCommandRegister
 969              	.LVL64:
  88:Src/gt911.c   **** 	HAL_GPIO_DeInit(GPIOE, GPIO_PIN_0);
 970              		.loc 1 88 2 view .LVU224
 971 00c2 0F4E     		ldr	r6, .L73+4
 972 00c4 0121     		movs	r1, #1
 973 00c6 3046     		mov	r0, r6
 974 00c8 FFF7FEFF 		bl	HAL_GPIO_DeInit
 975              	.LVL65:
ARM GAS  /var/folders/k2/cd9bl_j17z77g23y6ffqb_400000gn/T//cc0CaRcg.s 			page 25


  89:Src/gt911.c   **** 	GPIO_InitStruct.Pin = GPIO_PIN_0;
 976              		.loc 1 89 2 view .LVU225
  89:Src/gt911.c   **** 	GPIO_InitStruct.Pin = GPIO_PIN_0;
 977              		.loc 1 89 22 is_stmt 0 view .LVU226
 978 00cc 0123     		movs	r3, #1
 979 00ce 0793     		str	r3, [sp, #28]
  90:Src/gt911.c   **** 	GPIO_InitStruct.Mode = GPIO_MODE_IT_RISING;
 980              		.loc 1 90 2 is_stmt 1 view .LVU227
  90:Src/gt911.c   **** 	GPIO_InitStruct.Mode = GPIO_MODE_IT_RISING;
 981              		.loc 1 90 23 is_stmt 0 view .LVU228
 982 00d0 0F4B     		ldr	r3, .L73+20
 983 00d2 0893     		str	r3, [sp, #32]
  91:Src/gt911.c   **** 	GPIO_InitStruct.Pull = GPIO_NOPULL;
 984              		.loc 1 91 2 is_stmt 1 view .LVU229
  91:Src/gt911.c   **** 	GPIO_InitStruct.Pull = GPIO_NOPULL;
 985              		.loc 1 91 23 is_stmt 0 view .LVU230
 986 00d4 0025     		movs	r5, #0
 987 00d6 0995     		str	r5, [sp, #36]
  92:Src/gt911.c   **** 	HAL_GPIO_Init(GPIOE, &GPIO_InitStruct);
 988              		.loc 1 92 2 is_stmt 1 view .LVU231
 989 00d8 07A9     		add	r1, sp, #28
 990 00da 3046     		mov	r0, r6
 991 00dc FFF7FEFF 		bl	HAL_GPIO_Init
 992              	.LVL66:
  93:Src/gt911.c   **** 	HAL_NVIC_SetPriority(EXTI0_IRQn, 0, 0);
 993              		.loc 1 93 2 view .LVU232
 994 00e0 2A46     		mov	r2, r5
 995 00e2 2946     		mov	r1, r5
 996 00e4 0620     		movs	r0, #6
 997 00e6 FFF7FEFF 		bl	HAL_NVIC_SetPriority
 998              	.LVL67:
  94:Src/gt911.c   **** 	HAL_NVIC_EnableIRQ(EXTI0_IRQn);
 999              		.loc 1 94 2 view .LVU233
 1000 00ea 0620     		movs	r0, #6
 1001 00ec FFF7FEFF 		bl	HAL_NVIC_EnableIRQ
 1002              	.LVL68:
  96:Src/gt911.c   **** 	return GT911_OK;
 1003              		.loc 1 96 2 view .LVU234
  96:Src/gt911.c   **** 	return GT911_OK;
 1004              		.loc 1 96 9 is_stmt 0 view .LVU235
 1005 00f0 00E0     		b	.L70
 1006              	.L71:
  78:Src/gt911.c   **** 		return GT911_NotResponse;
 1007              		.loc 1 78 10 view .LVU236
 1008 00f2 0224     		movs	r4, #2
 1009              	.L70:
  97:Src/gt911.c   **** }
 1010              		.loc 1 97 1 view .LVU237
 1011 00f4 2046     		mov	r0, r4
 1012 00f6 0CB0     		add	sp, sp, #48
 1013              	.LCFI24:
 1014              		.cfi_def_cfa_offset 16
 1015              		@ sp needed
 1016 00f8 70BD     		pop	{r4, r5, r6, pc}
 1017              	.L74:
 1018 00fa 00BF     		.align	2
 1019              	.L73:
ARM GAS  /var/folders/k2/cd9bl_j17z77g23y6ffqb_400000gn/T//cc0CaRcg.s 			page 26


 1020 00fc 00380240 		.word	1073887232
 1021 0100 00100240 		.word	1073876992
 1022 0104 00000240 		.word	1073872896
 1023 0108 00000000 		.word	.LANCHOR0
 1024 010c 00000000 		.word	.LANCHOR3
 1025 0110 00001110 		.word	269549568
 1026              		.cfi_endproc
 1027              	.LFE130:
 1029              		.section	.text.GT911_GetStatus,"ax",%progbits
 1030              		.align	1
 1031              		.syntax unified
 1032              		.thumb
 1033              		.thumb_func
 1034              		.fpu fpv4-sp-d16
 1036              	GT911_GetStatus:
 1037              	.LVL69:
 1038              	.LFB137:
 175:Src/gt911.c   **** static GT911_Status_t GT911_GetStatus(uint8_t* status){
 1039              		.loc 1 175 55 is_stmt 1 view -0
 1040              		.cfi_startproc
 1041              		@ args = 0, pretend = 0, frame = 0
 1042              		@ frame_needed = 0, uses_anonymous_args = 0
 175:Src/gt911.c   **** static GT911_Status_t GT911_GetStatus(uint8_t* status){
 1043              		.loc 1 175 55 is_stmt 0 view .LVU239
 1044 0000 10B5     		push	{r4, lr}
 1045              	.LCFI25:
 1046              		.cfi_def_cfa_offset 8
 1047              		.cfi_offset 4, -8
 1048              		.cfi_offset 14, -4
 1049 0002 0446     		mov	r4, r0
 176:Src/gt911.c   **** 	TxBuffer[0] = (GOODIX_READ_COORD_ADDR & 0xFF00) >> 8;
 1050              		.loc 1 176 2 is_stmt 1 view .LVU240
 176:Src/gt911.c   **** 	TxBuffer[0] = (GOODIX_READ_COORD_ADDR & 0xFF00) >> 8;
 1051              		.loc 1 176 14 is_stmt 0 view .LVU241
 1052 0004 0A49     		ldr	r1, .L79
 1053 0006 8123     		movs	r3, #129
 1054 0008 0B70     		strb	r3, [r1]
 177:Src/gt911.c   **** 	TxBuffer[1] = GOODIX_READ_COORD_ADDR & 0xFF;
 1055              		.loc 1 177 2 is_stmt 1 view .LVU242
 177:Src/gt911.c   **** 	TxBuffer[1] = GOODIX_READ_COORD_ADDR & 0xFF;
 1056              		.loc 1 177 14 is_stmt 0 view .LVU243
 1057 000a 4E23     		movs	r3, #78
 1058 000c 4B70     		strb	r3, [r1, #1]
 178:Src/gt911.c   **** 	GT911_Status_t Result = GT911_NotResponse;
 1059              		.loc 1 178 2 is_stmt 1 view .LVU244
 1060              	.LVL70:
 179:Src/gt911.c   **** 	Result = GT911_I2C_Write(GOODIX_ADDRESS, TxBuffer, 2);
 1061              		.loc 1 179 2 view .LVU245
 179:Src/gt911.c   **** 	Result = GT911_I2C_Write(GOODIX_ADDRESS, TxBuffer, 2);
 1062              		.loc 1 179 11 is_stmt 0 view .LVU246
 1063 000e 0222     		movs	r2, #2
 1064 0010 1420     		movs	r0, #20
 1065              	.LVL71:
 179:Src/gt911.c   **** 	Result = GT911_I2C_Write(GOODIX_ADDRESS, TxBuffer, 2);
 1066              		.loc 1 179 11 view .LVU247
 1067 0012 FFF7FEFF 		bl	GT911_I2C_Write
 1068              	.LVL72:
ARM GAS  /var/folders/k2/cd9bl_j17z77g23y6ffqb_400000gn/T//cc0CaRcg.s 			page 27


 180:Src/gt911.c   **** 	if(Result == GT911_OK){
 1069              		.loc 1 180 2 is_stmt 1 view .LVU248
 180:Src/gt911.c   **** 	if(Result == GT911_OK){
 1070              		.loc 1 180 4 is_stmt 0 view .LVU249
 1071 0016 00B1     		cbz	r0, .L78
 1072              	.LVL73:
 1073              	.L76:
 186:Src/gt911.c   **** 	return Result;
 1074              		.loc 1 186 2 is_stmt 1 view .LVU250
 187:Src/gt911.c   **** }
 1075              		.loc 1 187 1 is_stmt 0 view .LVU251
 1076 0018 10BD     		pop	{r4, pc}
 1077              	.LVL74:
 1078              	.L78:
 181:Src/gt911.c   **** 		Result = GT911_I2C_Read(GOODIX_ADDRESS, RxBuffer, 1);
 1079              		.loc 1 181 3 is_stmt 1 view .LVU252
 181:Src/gt911.c   **** 		Result = GT911_I2C_Read(GOODIX_ADDRESS, RxBuffer, 1);
 1080              		.loc 1 181 12 is_stmt 0 view .LVU253
 1081 001a 0122     		movs	r2, #1
 1082 001c 0549     		ldr	r1, .L79+4
 1083 001e 1420     		movs	r0, #20
 1084 0020 FFF7FEFF 		bl	GT911_I2C_Read
 1085              	.LVL75:
 182:Src/gt911.c   **** 		if( Result == GT911_OK){
 1086              		.loc 1 182 3 is_stmt 1 view .LVU254
 182:Src/gt911.c   **** 		if( Result == GT911_OK){
 1087              		.loc 1 182 5 is_stmt 0 view .LVU255
 1088 0024 0028     		cmp	r0, #0
 1089 0026 F7D1     		bne	.L76
 183:Src/gt911.c   **** 			*status = RxBuffer[0];
 1090              		.loc 1 183 4 is_stmt 1 view .LVU256
 183:Src/gt911.c   **** 			*status = RxBuffer[0];
 1091              		.loc 1 183 22 is_stmt 0 view .LVU257
 1092 0028 024B     		ldr	r3, .L79+4
 1093 002a 1B78     		ldrb	r3, [r3]	@ zero_extendqisi2
 183:Src/gt911.c   **** 			*status = RxBuffer[0];
 1094              		.loc 1 183 12 view .LVU258
 1095 002c 2370     		strb	r3, [r4]
 1096 002e F3E7     		b	.L76
 1097              	.L80:
 1098              		.align	2
 1099              	.L79:
 1100 0030 00000000 		.word	.LANCHOR1
 1101 0034 00000000 		.word	.LANCHOR2
 1102              		.cfi_endproc
 1103              	.LFE137:
 1105              		.section	.text.GT911_ReadTouch,"ax",%progbits
 1106              		.align	1
 1107              		.global	GT911_ReadTouch
 1108              		.syntax unified
 1109              		.thumb
 1110              		.thumb_func
 1111              		.fpu fpv4-sp-d16
 1113              	GT911_ReadTouch:
 1114              	.LVL76:
 1115              	.LFB131:
  99:Src/gt911.c   **** GT911_Status_t GT911_ReadTouch(TouchCordinate_t *cordinate, uint8_t *number_of_cordinate) {
ARM GAS  /var/folders/k2/cd9bl_j17z77g23y6ffqb_400000gn/T//cc0CaRcg.s 			page 28


 1116              		.loc 1 99 91 is_stmt 1 view -0
 1117              		.cfi_startproc
 1118              		@ args = 0, pretend = 0, frame = 8
 1119              		@ frame_needed = 0, uses_anonymous_args = 0
  99:Src/gt911.c   **** GT911_Status_t GT911_ReadTouch(TouchCordinate_t *cordinate, uint8_t *number_of_cordinate) {
 1120              		.loc 1 99 91 is_stmt 0 view .LVU260
 1121 0000 2DE9F041 		push	{r4, r5, r6, r7, r8, lr}
 1122              	.LCFI26:
 1123              		.cfi_def_cfa_offset 24
 1124              		.cfi_offset 4, -24
 1125              		.cfi_offset 5, -20
 1126              		.cfi_offset 6, -16
 1127              		.cfi_offset 7, -12
 1128              		.cfi_offset 8, -8
 1129              		.cfi_offset 14, -4
 1130 0004 82B0     		sub	sp, sp, #8
 1131              	.LCFI27:
 1132              		.cfi_def_cfa_offset 32
 1133 0006 0646     		mov	r6, r0
 1134 0008 0F46     		mov	r7, r1
 100:Src/gt911.c   **** 	uint8_t StatusRegister;
 1135              		.loc 1 100 2 is_stmt 1 view .LVU261
 101:Src/gt911.c   **** 	GT911_Status_t Result = GT911_NotResponse;
 1136              		.loc 1 101 2 view .LVU262
 1137              	.LVL77:
 102:Src/gt911.c   **** 	Result = GT911_GetStatus(&StatusRegister);
 1138              		.loc 1 102 2 view .LVU263
 102:Src/gt911.c   **** 	Result = GT911_GetStatus(&StatusRegister);
 1139              		.loc 1 102 11 is_stmt 0 view .LVU264
 1140 000a 0DF10700 		add	r0, sp, #7
 1141              	.LVL78:
 102:Src/gt911.c   **** 	Result = GT911_GetStatus(&StatusRegister);
 1142              		.loc 1 102 11 view .LVU265
 1143 000e FFF7FEFF 		bl	GT911_GetStatus
 1144              	.LVL79:
 103:Src/gt911.c   **** 	if (Result != GT911_OK) {
 1145              		.loc 1 103 2 is_stmt 1 view .LVU266
 103:Src/gt911.c   **** 	if (Result != GT911_OK) {
 1146              		.loc 1 103 5 is_stmt 0 view .LVU267
 1147 0012 8046     		mov	r8, r0
 1148 0014 28B9     		cbnz	r0, .L82
 106:Src/gt911.c   **** 	if ((StatusRegister & 0x80) != 0) {
 1149              		.loc 1 106 2 is_stmt 1 view .LVU268
 106:Src/gt911.c   **** 	if ((StatusRegister & 0x80) != 0) {
 1150              		.loc 1 106 30 is_stmt 0 view .LVU269
 1151 0016 9DF80730 		ldrb	r3, [sp, #7]	@ zero_extendqisi2
 1152 001a 9DF90720 		ldrsb	r2, [sp, #7]
 106:Src/gt911.c   **** 	if ((StatusRegister & 0x80) != 0) {
 1153              		.loc 1 106 5 view .LVU270
 1154 001e 002A     		cmp	r2, #0
 1155 0020 03DB     		blt	.L88
 1156              	.LVL80:
 1157              	.L82:
 123:Src/gt911.c   **** }
 1158              		.loc 1 123 1 view .LVU271
 1159 0022 4046     		mov	r0, r8
 1160 0024 02B0     		add	sp, sp, #8
ARM GAS  /var/folders/k2/cd9bl_j17z77g23y6ffqb_400000gn/T//cc0CaRcg.s 			page 29


 1161              	.LCFI28:
 1162              		.cfi_remember_state
 1163              		.cfi_def_cfa_offset 24
 1164              		@ sp needed
 1165 0026 BDE8F081 		pop	{r4, r5, r6, r7, r8, pc}
 1166              	.LVL81:
 1167              	.L88:
 1168              	.LCFI29:
 1169              		.cfi_restore_state
 107:Src/gt911.c   **** 		*number_of_cordinate = StatusRegister & 0x0F;
 1170              		.loc 1 107 3 is_stmt 1 view .LVU272
 107:Src/gt911.c   **** 		*number_of_cordinate = StatusRegister & 0x0F;
 1171              		.loc 1 107 41 is_stmt 0 view .LVU273
 1172 002a 03F00F03 		and	r3, r3, #15
 107:Src/gt911.c   **** 		*number_of_cordinate = StatusRegister & 0x0F;
 1173              		.loc 1 107 24 view .LVU274
 1174 002e 3B70     		strb	r3, [r7]
 108:Src/gt911.c   **** 		if (*number_of_cordinate != 0) {
 1175              		.loc 1 108 3 is_stmt 1 view .LVU275
 108:Src/gt911.c   **** 		if (*number_of_cordinate != 0) {
 1176              		.loc 1 108 6 is_stmt 0 view .LVU276
 1177 0030 73BB     		cbnz	r3, .L86
 1178              	.LVL82:
 1179              	.L84:
 120:Src/gt911.c   **** 		GT911_SetStatus(0);
 1180              		.loc 1 120 3 is_stmt 1 view .LVU277
 1181 0032 0020     		movs	r0, #0
 1182 0034 FFF7FEFF 		bl	GT911_SetStatus
 1183              	.LVL83:
 1184 0038 F3E7     		b	.L82
 1185              	.LVL84:
 1186              	.L85:
 1187              	.LBB4:
 110:Src/gt911.c   **** 				TxBuffer[0] = ((GOODIX_POINT1_X_ADDR + (i* 8)) & 0xFF00) >> 8;
 1188              		.loc 1 110 5 discriminator 3 view .LVU278
 110:Src/gt911.c   **** 				TxBuffer[0] = ((GOODIX_POINT1_X_ADDR + (i* 8)) & 0xFF00) >> 8;
 1189              		.loc 1 110 42 is_stmt 0 discriminator 3 view .LVU279
 1190 003a 04F58153 		add	r3, r4, #4128
 1191 003e 0A33     		adds	r3, r3, #10
 110:Src/gt911.c   **** 				TxBuffer[0] = ((GOODIX_POINT1_X_ADDR + (i* 8)) & 0xFF00) >> 8;
 1192              		.loc 1 110 62 discriminator 3 view .LVU280
 1193 0040 43F35713 		sbfx	r3, r3, #5, #24
 110:Src/gt911.c   **** 				TxBuffer[0] = ((GOODIX_POINT1_X_ADDR + (i* 8)) & 0xFF00) >> 8;
 1194              		.loc 1 110 17 discriminator 3 view .LVU281
 1195 0044 1349     		ldr	r1, .L89
 1196 0046 0B70     		strb	r3, [r1]
 111:Src/gt911.c   **** 				TxBuffer[1] = (GOODIX_POINT1_X_ADDR + (i* 8)) & 0xFF;
 1197              		.loc 1 111 5 is_stmt 1 discriminator 3 view .LVU282
 111:Src/gt911.c   **** 				TxBuffer[1] = (GOODIX_POINT1_X_ADDR + (i* 8)) & 0xFF;
 1198              		.loc 1 111 17 is_stmt 0 discriminator 3 view .LVU283
 1199 0048 04F12A03 		add	r3, r4, #42
 1200 004c DB00     		lsls	r3, r3, #3
 1201 004e 4B70     		strb	r3, [r1, #1]
 112:Src/gt911.c   **** 				GT911_I2C_Write(GOODIX_ADDRESS, TxBuffer, 2);
 1202              		.loc 1 112 5 is_stmt 1 discriminator 3 view .LVU284
 1203 0050 0222     		movs	r2, #2
 1204 0052 1420     		movs	r0, #20
ARM GAS  /var/folders/k2/cd9bl_j17z77g23y6ffqb_400000gn/T//cc0CaRcg.s 			page 30


 1205 0054 FFF7FEFF 		bl	GT911_I2C_Write
 1206              	.LVL85:
 113:Src/gt911.c   **** 				GT911_I2C_Read(GOODIX_ADDRESS, RxBuffer, 6);
 1207              		.loc 1 113 5 discriminator 3 view .LVU285
 1208 0058 0F4D     		ldr	r5, .L89+4
 1209 005a 0622     		movs	r2, #6
 1210 005c 2946     		mov	r1, r5
 1211 005e 1420     		movs	r0, #20
 1212 0060 FFF7FEFF 		bl	GT911_I2C_Read
 1213              	.LVL86:
 114:Src/gt911.c   **** 				cordinate[i].x = RxBuffer[0];
 1214              		.loc 1 114 5 discriminator 3 view .LVU286
 114:Src/gt911.c   **** 				cordinate[i].x = RxBuffer[0];
 1215              		.loc 1 114 14 is_stmt 0 discriminator 3 view .LVU287
 1216 0064 06EB8402 		add	r2, r6, r4, lsl #2
 114:Src/gt911.c   **** 				cordinate[i].x = RxBuffer[0];
 1217              		.loc 1 114 30 discriminator 3 view .LVU288
 1218 0068 2B78     		ldrb	r3, [r5]	@ zero_extendqisi2
 114:Src/gt911.c   **** 				cordinate[i].x = RxBuffer[0];
 1219              		.loc 1 114 20 discriminator 3 view .LVU289
 1220 006a 26F82430 		strh	r3, [r6, r4, lsl #2]	@ movhi
 115:Src/gt911.c   **** 				cordinate[i].x = (RxBuffer[1] << 8) + cordinate[i].x;
 1221              		.loc 1 115 5 is_stmt 1 discriminator 3 view .LVU290
 115:Src/gt911.c   **** 				cordinate[i].x = (RxBuffer[1] << 8) + cordinate[i].x;
 1222              		.loc 1 115 31 is_stmt 0 discriminator 3 view .LVU291
 1223 006e 6978     		ldrb	r1, [r5, #1]	@ zero_extendqisi2
 115:Src/gt911.c   **** 				cordinate[i].x = (RxBuffer[1] << 8) + cordinate[i].x;
 1224              		.loc 1 115 41 discriminator 3 view .LVU292
 1225 0070 03EB0123 		add	r3, r3, r1, lsl #8
 115:Src/gt911.c   **** 				cordinate[i].x = (RxBuffer[1] << 8) + cordinate[i].x;
 1226              		.loc 1 115 20 discriminator 3 view .LVU293
 1227 0074 26F82430 		strh	r3, [r6, r4, lsl #2]	@ movhi
 116:Src/gt911.c   **** 				cordinate[i].y = RxBuffer[2];
 1228              		.loc 1 116 5 is_stmt 1 discriminator 3 view .LVU294
 116:Src/gt911.c   **** 				cordinate[i].y = RxBuffer[2];
 1229              		.loc 1 116 30 is_stmt 0 discriminator 3 view .LVU295
 1230 0078 AB78     		ldrb	r3, [r5, #2]	@ zero_extendqisi2
 116:Src/gt911.c   **** 				cordinate[i].y = RxBuffer[2];
 1231              		.loc 1 116 20 discriminator 3 view .LVU296
 1232 007a 5380     		strh	r3, [r2, #2]	@ movhi
 117:Src/gt911.c   **** 				cordinate[i].y = (RxBuffer[3] << 8) + cordinate[i].y;
 1233              		.loc 1 117 5 is_stmt 1 discriminator 3 view .LVU297
 117:Src/gt911.c   **** 				cordinate[i].y = (RxBuffer[3] << 8) + cordinate[i].y;
 1234              		.loc 1 117 31 is_stmt 0 discriminator 3 view .LVU298
 1235 007c E978     		ldrb	r1, [r5, #3]	@ zero_extendqisi2
 117:Src/gt911.c   **** 				cordinate[i].y = (RxBuffer[3] << 8) + cordinate[i].y;
 1236              		.loc 1 117 41 discriminator 3 view .LVU299
 1237 007e 03EB0123 		add	r3, r3, r1, lsl #8
 117:Src/gt911.c   **** 				cordinate[i].y = (RxBuffer[3] << 8) + cordinate[i].y;
 1238              		.loc 1 117 20 discriminator 3 view .LVU300
 1239 0082 5380     		strh	r3, [r2, #2]	@ movhi
 109:Src/gt911.c   **** 			for (uint8_t i = 0; i < *number_of_cordinate; i++) {
 1240              		.loc 1 109 50 is_stmt 1 discriminator 3 view .LVU301
 109:Src/gt911.c   **** 			for (uint8_t i = 0; i < *number_of_cordinate; i++) {
 1241              		.loc 1 109 51 is_stmt 0 discriminator 3 view .LVU302
 1242 0084 0134     		adds	r4, r4, #1
 1243              	.LVL87:
ARM GAS  /var/folders/k2/cd9bl_j17z77g23y6ffqb_400000gn/T//cc0CaRcg.s 			page 31


 109:Src/gt911.c   **** 			for (uint8_t i = 0; i < *number_of_cordinate; i++) {
 1244              		.loc 1 109 51 discriminator 3 view .LVU303
 1245 0086 E4B2     		uxtb	r4, r4
 1246              	.LVL88:
 1247              	.L83:
 109:Src/gt911.c   **** 			for (uint8_t i = 0; i < *number_of_cordinate; i++) {
 1248              		.loc 1 109 24 is_stmt 1 discriminator 1 view .LVU304
 109:Src/gt911.c   **** 			for (uint8_t i = 0; i < *number_of_cordinate; i++) {
 1249              		.loc 1 109 28 is_stmt 0 discriminator 1 view .LVU305
 1250 0088 3B78     		ldrb	r3, [r7]	@ zero_extendqisi2
 109:Src/gt911.c   **** 			for (uint8_t i = 0; i < *number_of_cordinate; i++) {
 1251              		.loc 1 109 4 discriminator 1 view .LVU306
 1252 008a A342     		cmp	r3, r4
 1253 008c D5D8     		bhi	.L85
 1254 008e D0E7     		b	.L84
 1255              	.LVL89:
 1256              	.L86:
 109:Src/gt911.c   **** 			for (uint8_t i = 0; i < *number_of_cordinate; i++) {
 1257              		.loc 1 109 17 view .LVU307
 1258 0090 0446     		mov	r4, r0
 1259 0092 F9E7     		b	.L83
 1260              	.L90:
 1261              		.align	2
 1262              	.L89:
 1263 0094 00000000 		.word	.LANCHOR1
 1264 0098 00000000 		.word	.LANCHOR2
 1265              	.LBE4:
 1266              		.cfi_endproc
 1267              	.LFE131:
 1269              		.section	.bss.CommunicationResult,"aw",%nobits
 1270              		.set	.LANCHOR3,. + 0
 1273              	CommunicationResult:
 1274 0000 00       		.space	1
 1275              		.section	.bss.RxBuffer,"aw",%nobits
 1276              		.align	2
 1277              		.set	.LANCHOR2,. + 0
 1280              	RxBuffer:
 1281 0000 00000000 		.space	200
 1281      00000000 
 1281      00000000 
 1281      00000000 
 1281      00000000 
 1282              		.section	.bss.TxBuffer,"aw",%nobits
 1283              		.align	2
 1284              		.set	.LANCHOR1,. + 0
 1287              	TxBuffer:
 1288 0000 00000000 		.space	200
 1288      00000000 
 1288      00000000 
 1288      00000000 
 1288      00000000 
 1289              		.section	.data.GT911_Config,"aw"
 1290              		.align	2
 1291              		.set	.LANCHOR0,. + 0
 1294              	GT911_Config:
 1295 0000 81000458 		.ascii	"\201\000\004X\002\012\014 \001\010(\005P<\017\005\000"
 1295      020A0C20 
ARM GAS  /var/folders/k2/cd9bl_j17z77g23y6ffqb_400000gn/T//cc0CaRcg.s 			page 32


 1295      01082805 
 1295      503C0F05 
 1295      00
 1296 0011 00000000 		.ascii	"\000\000\000\000\000\000\000\000\000\000\211*\013-+"
 1296      00000000 
 1296      0000892A 
 1296      0B2D2B
 1297 0020 0F0A0000 		.ascii	"\017\012\000\000\001\251\003-\000\001\000\000\000\003"
 1297      01A9032D 
 1297      00010000 
 1297      0003
 1298 002e 00000000 		.ascii	"\000\000\000\000\000!Y\224\305\002\007\000\000\004\223"
 1298      00215994 
 1298      C5020700 
 1298      000493
 1299 003d 24007D2C 		.ascii	"$\000},\000k6\000]B\000SP\000S\000\000\000\000\000\000"
 1299      006B3600 
 1299      5D420053 
 1299      50005300 
 1299      00000000 
 1300 0052 00000000 		.ascii	"\000\000\000\000\000\000\000\000\000\000\000\000\000"
 1300      00000000 
 1300      00000000 
 1300      00
 1301 005f 00000000 		.ascii	"\000\000\000\000\000\000\000\000\000\000\000\000\000"
 1301      00000000 
 1301      00000000 
 1301      00
 1302 006c 00000000 		.ascii	"\000\000\000\000\002\004\006\010\012\014\016\020\022"
 1302      02040608 
 1302      0A0C0E10 
 1302      12
 1303 0079 1416FFFF 		.ascii	"\024\026\377\377\377\000\000\000\000\000\000\000\000"
 1303      FF000000 
 1303      00000000 
 1303      00
 1304 0086 00000000 		.ascii	"\000\000\000\000\000\000\000\000\000\002\004\006\010"
 1304      00000000 
 1304      00020406 
 1304      08
 1305 0093 0A0F1012 		.ascii	"\012\017\020\022\026\030\034\035\036\037 !\"$\377\377"
 1305      16181C1D 
 1305      1E1F2021 
 1305      2224FFFF 
 1306 00a3 FFFFFFFF 		.ascii	"\377\377\377\377\377\000\000\000\000\000\000\000\000"
 1306      FF000000 
 1306      00000000 
 1306      00
 1307 00b0 00000000 		.ascii	"\000\000\000\000\000\000\000\000\326\001"
 1307      00000000 
 1307      D601
 1308              		.text
 1309              	.Letext0:
 1310              		.file 2 "/Users/nhantt/tools/stm32/gcc-arm-none-eabi-10-2020-q4-major/arm-none-eabi/include/machin
 1311              		.file 3 "/Users/nhantt/tools/stm32/gcc-arm-none-eabi-10-2020-q4-major/arm-none-eabi/include/sys/_s
 1312              		.file 4 "Inc/GT911.h"
 1313              		.file 5 "/Users/nhantt/STM32Cube/Repository/STM32Cube_FW_F4_V1.26.0/Drivers/CMSIS/Device/ST/STM32F
ARM GAS  /var/folders/k2/cd9bl_j17z77g23y6ffqb_400000gn/T//cc0CaRcg.s 			page 33


 1314              		.file 6 "/Users/nhantt/STM32Cube/Repository/STM32Cube_FW_F4_V1.26.0/Drivers/STM32F4xx_HAL_Driver/I
 1315              		.file 7 "/Users/nhantt/STM32Cube/Repository/STM32Cube_FW_F4_V1.26.0/Drivers/STM32F4xx_HAL_Driver/I
 1316              		.file 8 "/Users/nhantt/STM32Cube/Repository/STM32Cube_FW_F4_V1.26.0/Drivers/STM32F4xx_HAL_Driver/I
 1317              		.file 9 "/Users/nhantt/STM32Cube/Repository/STM32Cube_FW_F4_V1.26.0/Drivers/STM32F4xx_HAL_Driver/I
 1318              		.file 10 "Inc/i2c.h"
 1319              		.file 11 "/Users/nhantt/STM32Cube/Repository/STM32Cube_FW_F4_V1.26.0/Drivers/STM32F4xx_HAL_Driver/
 1320              		.file 12 "/Users/nhantt/STM32Cube/Repository/STM32Cube_FW_F4_V1.26.0/Drivers/STM32F4xx_HAL_Driver/
 1321              		.file 13 "<built-in>"
ARM GAS  /var/folders/k2/cd9bl_j17z77g23y6ffqb_400000gn/T//cc0CaRcg.s 			page 34


DEFINED SYMBOLS
                            *ABS*:0000000000000000 gt911.c
/var/folders/k2/cd9bl_j17z77g23y6ffqb_400000gn/T//cc0CaRcg.s:18     .text.GT911_CalculateCheckSum:0000000000000000 $t
/var/folders/k2/cd9bl_j17z77g23y6ffqb_400000gn/T//cc0CaRcg.s:25     .text.GT911_CalculateCheckSum:0000000000000000 GT911_CalculateCheckSum
/var/folders/k2/cd9bl_j17z77g23y6ffqb_400000gn/T//cc0CaRcg.s:80     .text.GT911_CalculateCheckSum:0000000000000030 $d
/var/folders/k2/cd9bl_j17z77g23y6ffqb_400000gn/T//cc0CaRcg.s:85     .text.GT911_INT_Input:0000000000000000 $t
/var/folders/k2/cd9bl_j17z77g23y6ffqb_400000gn/T//cc0CaRcg.s:92     .text.GT911_INT_Input:0000000000000000 GT911_INT_Input
/var/folders/k2/cd9bl_j17z77g23y6ffqb_400000gn/T//cc0CaRcg.s:133    .text.GT911_INT_Input:0000000000000024 $d
/var/folders/k2/cd9bl_j17z77g23y6ffqb_400000gn/T//cc0CaRcg.s:138    .text.GT911_INT_Output:0000000000000000 $t
/var/folders/k2/cd9bl_j17z77g23y6ffqb_400000gn/T//cc0CaRcg.s:145    .text.GT911_INT_Output:0000000000000000 GT911_INT_Output
/var/folders/k2/cd9bl_j17z77g23y6ffqb_400000gn/T//cc0CaRcg.s:189    .text.GT911_INT_Output:0000000000000024 $d
/var/folders/k2/cd9bl_j17z77g23y6ffqb_400000gn/T//cc0CaRcg.s:194    .text.GT911_RST_Control:0000000000000000 $t
/var/folders/k2/cd9bl_j17z77g23y6ffqb_400000gn/T//cc0CaRcg.s:201    .text.GT911_RST_Control:0000000000000000 GT911_RST_Control
/var/folders/k2/cd9bl_j17z77g23y6ffqb_400000gn/T//cc0CaRcg.s:244    .text.GT911_RST_Control:000000000000001c $d
/var/folders/k2/cd9bl_j17z77g23y6ffqb_400000gn/T//cc0CaRcg.s:249    .text.GT911_INT_Control:0000000000000000 $t
/var/folders/k2/cd9bl_j17z77g23y6ffqb_400000gn/T//cc0CaRcg.s:256    .text.GT911_INT_Control:0000000000000000 GT911_INT_Control
/var/folders/k2/cd9bl_j17z77g23y6ffqb_400000gn/T//cc0CaRcg.s:299    .text.GT911_INT_Control:000000000000001c $d
/var/folders/k2/cd9bl_j17z77g23y6ffqb_400000gn/T//cc0CaRcg.s:304    .text.GT911_Delay:0000000000000000 $t
/var/folders/k2/cd9bl_j17z77g23y6ffqb_400000gn/T//cc0CaRcg.s:311    .text.GT911_Delay:0000000000000000 GT911_Delay
/var/folders/k2/cd9bl_j17z77g23y6ffqb_400000gn/T//cc0CaRcg.s:333    .text.GT911_Reset:0000000000000000 $t
/var/folders/k2/cd9bl_j17z77g23y6ffqb_400000gn/T//cc0CaRcg.s:339    .text.GT911_Reset:0000000000000000 GT911_Reset
/var/folders/k2/cd9bl_j17z77g23y6ffqb_400000gn/T//cc0CaRcg.s:390    .text.GT911_I2C_Init:0000000000000000 $t
/var/folders/k2/cd9bl_j17z77g23y6ffqb_400000gn/T//cc0CaRcg.s:397    .text.GT911_I2C_Init:0000000000000000 GT911_I2C_Init
/var/folders/k2/cd9bl_j17z77g23y6ffqb_400000gn/T//cc0CaRcg.s:412    .text.GT911_I2C_Write:0000000000000000 $t
/var/folders/k2/cd9bl_j17z77g23y6ffqb_400000gn/T//cc0CaRcg.s:419    .text.GT911_I2C_Write:0000000000000000 GT911_I2C_Write
/var/folders/k2/cd9bl_j17z77g23y6ffqb_400000gn/T//cc0CaRcg.s:488    .text.GT911_I2C_Write:000000000000003c $d
/var/folders/k2/cd9bl_j17z77g23y6ffqb_400000gn/T//cc0CaRcg.s:493    .text.GT911_SendConfig:0000000000000000 $t
/var/folders/k2/cd9bl_j17z77g23y6ffqb_400000gn/T//cc0CaRcg.s:499    .text.GT911_SendConfig:0000000000000000 GT911_SendConfig
/var/folders/k2/cd9bl_j17z77g23y6ffqb_400000gn/T//cc0CaRcg.s:540    .text.GT911_SendConfig:0000000000000028 $d
/var/folders/k2/cd9bl_j17z77g23y6ffqb_400000gn/T//cc0CaRcg.s:546    .text.GT911_SetCommandRegister:0000000000000000 $t
/var/folders/k2/cd9bl_j17z77g23y6ffqb_400000gn/T//cc0CaRcg.s:552    .text.GT911_SetCommandRegister:0000000000000000 GT911_SetCommandRegister
/var/folders/k2/cd9bl_j17z77g23y6ffqb_400000gn/T//cc0CaRcg.s:590    .text.GT911_SetCommandRegister:0000000000000018 $d
/var/folders/k2/cd9bl_j17z77g23y6ffqb_400000gn/T//cc0CaRcg.s:595    .text.GT911_SetStatus:0000000000000000 $t
/var/folders/k2/cd9bl_j17z77g23y6ffqb_400000gn/T//cc0CaRcg.s:601    .text.GT911_SetStatus:0000000000000000 GT911_SetStatus
/var/folders/k2/cd9bl_j17z77g23y6ffqb_400000gn/T//cc0CaRcg.s:639    .text.GT911_SetStatus:0000000000000018 $d
/var/folders/k2/cd9bl_j17z77g23y6ffqb_400000gn/T//cc0CaRcg.s:644    .text.GT911_I2C_Read:0000000000000000 $t
/var/folders/k2/cd9bl_j17z77g23y6ffqb_400000gn/T//cc0CaRcg.s:651    .text.GT911_I2C_Read:0000000000000000 GT911_I2C_Read
/var/folders/k2/cd9bl_j17z77g23y6ffqb_400000gn/T//cc0CaRcg.s:720    .text.GT911_I2C_Read:000000000000003c $d
/var/folders/k2/cd9bl_j17z77g23y6ffqb_400000gn/T//cc0CaRcg.s:725    .text.GT911_GetProductID:0000000000000000 $t
/var/folders/k2/cd9bl_j17z77g23y6ffqb_400000gn/T//cc0CaRcg.s:731    .text.GT911_GetProductID:0000000000000000 GT911_GetProductID
/var/folders/k2/cd9bl_j17z77g23y6ffqb_400000gn/T//cc0CaRcg.s:793    .text.GT911_GetProductID:0000000000000030 $d
/var/folders/k2/cd9bl_j17z77g23y6ffqb_400000gn/T//cc0CaRcg.s:799    .text.GT911_Init:0000000000000000 $t
/var/folders/k2/cd9bl_j17z77g23y6ffqb_400000gn/T//cc0CaRcg.s:806    .text.GT911_Init:0000000000000000 GT911_Init
/var/folders/k2/cd9bl_j17z77g23y6ffqb_400000gn/T//cc0CaRcg.s:1020   .text.GT911_Init:00000000000000fc $d
/var/folders/k2/cd9bl_j17z77g23y6ffqb_400000gn/T//cc0CaRcg.s:1030   .text.GT911_GetStatus:0000000000000000 $t
/var/folders/k2/cd9bl_j17z77g23y6ffqb_400000gn/T//cc0CaRcg.s:1036   .text.GT911_GetStatus:0000000000000000 GT911_GetStatus
/var/folders/k2/cd9bl_j17z77g23y6ffqb_400000gn/T//cc0CaRcg.s:1100   .text.GT911_GetStatus:0000000000000030 $d
/var/folders/k2/cd9bl_j17z77g23y6ffqb_400000gn/T//cc0CaRcg.s:1106   .text.GT911_ReadTouch:0000000000000000 $t
/var/folders/k2/cd9bl_j17z77g23y6ffqb_400000gn/T//cc0CaRcg.s:1113   .text.GT911_ReadTouch:0000000000000000 GT911_ReadTouch
/var/folders/k2/cd9bl_j17z77g23y6ffqb_400000gn/T//cc0CaRcg.s:1263   .text.GT911_ReadTouch:0000000000000094 $d
/var/folders/k2/cd9bl_j17z77g23y6ffqb_400000gn/T//cc0CaRcg.s:1273   .bss.CommunicationResult:0000000000000000 CommunicationResult
/var/folders/k2/cd9bl_j17z77g23y6ffqb_400000gn/T//cc0CaRcg.s:1274   .bss.CommunicationResult:0000000000000000 $d
/var/folders/k2/cd9bl_j17z77g23y6ffqb_400000gn/T//cc0CaRcg.s:1276   .bss.RxBuffer:0000000000000000 $d
/var/folders/k2/cd9bl_j17z77g23y6ffqb_400000gn/T//cc0CaRcg.s:1280   .bss.RxBuffer:0000000000000000 RxBuffer
/var/folders/k2/cd9bl_j17z77g23y6ffqb_400000gn/T//cc0CaRcg.s:1283   .bss.TxBuffer:0000000000000000 $d
/var/folders/k2/cd9bl_j17z77g23y6ffqb_400000gn/T//cc0CaRcg.s:1287   .bss.TxBuffer:0000000000000000 TxBuffer
/var/folders/k2/cd9bl_j17z77g23y6ffqb_400000gn/T//cc0CaRcg.s:1290   .data.GT911_Config:0000000000000000 $d
ARM GAS  /var/folders/k2/cd9bl_j17z77g23y6ffqb_400000gn/T//cc0CaRcg.s 			page 35


/var/folders/k2/cd9bl_j17z77g23y6ffqb_400000gn/T//cc0CaRcg.s:1294   .data.GT911_Config:0000000000000000 GT911_Config

UNDEFINED SYMBOLS
HAL_GPIO_Init
HAL_GPIO_WritePin
HAL_Delay
HAL_I2C_Master_Transmit
hi2c1
memcpy
HAL_I2C_Master_Receive
HAL_GPIO_DeInit
HAL_NVIC_SetPriority
HAL_NVIC_EnableIRQ
