ARM GAS  /var/folders/k2/cd9bl_j17z77g23y6ffqb_400000gn/T//ccdkNnUQ.s 			page 1


   1              		.cpu cortex-m4
   2              		.eabi_attribute 27, 1
   3              		.eabi_attribute 28, 1
   4              		.eabi_attribute 20, 1
   5              		.eabi_attribute 21, 1
   6              		.eabi_attribute 23, 3
   7              		.eabi_attribute 24, 1
   8              		.eabi_attribute 25, 1
   9              		.eabi_attribute 26, 1
  10              		.eabi_attribute 30, 1
  11              		.eabi_attribute 34, 1
  12              		.eabi_attribute 18, 4
  13              		.file	"icmp.c"
  14              		.text
  15              	.Ltext0:
  16              		.cfi_sections	.debug_frame
  17              		.section	.rodata.icmp_send_response.str1.4,"aMS",%progbits,1
  18              		.align	2
  19              	.LC0:
  20 0000 2F557365 		.ascii	"/Users/nhantt/STM32Cube/Repository/STM32Cube_FW_F4_"
  20      72732F6E 
  20      68616E74 
  20      742F5354 
  20      4D333243 
  21 0033 56312E32 		.ascii	"V1.26.0/Middlewares/Third_Party/LwIP/src/core/ipv4/"
  21      362E302F 
  21      4D696464 
  21      6C657761 
  21      7265732F 
  22 0066 69636D70 		.ascii	"icmp.c\000"
  22      2E6300
  23 006d 000000   		.align	2
  24              	.LC1:
  25 0070 63686563 		.ascii	"check that first pbuf can hold icmp message\000"
  25      6B207468 
  25      61742066 
  25      69727374 
  25      20706275 
  26              		.align	2
  27              	.LC2:
  28 009c 41737365 		.ascii	"Assertion \"%s\" failed at line %d in %s\012\000"
  28      7274696F 
  28      6E202225 
  28      73222066 
  28      61696C65 
  29              		.section	.text.icmp_send_response,"ax",%progbits
  30              		.align	1
  31              		.arch armv7e-m
  32              		.syntax unified
  33              		.thumb
  34              		.thumb_func
  35              		.fpu fpv4-sp-d16
  37              	icmp_send_response:
  38              	.LVL0:
  39              	.LFB158:
  40              		.file 1 "/Users/nhantt/STM32Cube/Repository/STM32Cube_FW_F4_V1.26.0/Middlewares/Third_Party/LwIP/s
   1:/Users/nhantt/STM32Cube/Repository/STM32Cube_FW_F4_V1.26.0/Middlewares/Third_Party/LwIP/src/core/ipv4/icmp.c **** /**
ARM GAS  /var/folders/k2/cd9bl_j17z77g23y6ffqb_400000gn/T//ccdkNnUQ.s 			page 2


   2:/Users/nhantt/STM32Cube/Repository/STM32Cube_FW_F4_V1.26.0/Middlewares/Third_Party/LwIP/src/core/ipv4/icmp.c ****  * @file
   3:/Users/nhantt/STM32Cube/Repository/STM32Cube_FW_F4_V1.26.0/Middlewares/Third_Party/LwIP/src/core/ipv4/icmp.c ****  * ICMP - Internet Control Message Protocol
   4:/Users/nhantt/STM32Cube/Repository/STM32Cube_FW_F4_V1.26.0/Middlewares/Third_Party/LwIP/src/core/ipv4/icmp.c ****  *
   5:/Users/nhantt/STM32Cube/Repository/STM32Cube_FW_F4_V1.26.0/Middlewares/Third_Party/LwIP/src/core/ipv4/icmp.c ****  */
   6:/Users/nhantt/STM32Cube/Repository/STM32Cube_FW_F4_V1.26.0/Middlewares/Third_Party/LwIP/src/core/ipv4/icmp.c **** 
   7:/Users/nhantt/STM32Cube/Repository/STM32Cube_FW_F4_V1.26.0/Middlewares/Third_Party/LwIP/src/core/ipv4/icmp.c **** /*
   8:/Users/nhantt/STM32Cube/Repository/STM32Cube_FW_F4_V1.26.0/Middlewares/Third_Party/LwIP/src/core/ipv4/icmp.c ****  * Copyright (c) 2001-2004 Swedish Institute of Computer Science.
   9:/Users/nhantt/STM32Cube/Repository/STM32Cube_FW_F4_V1.26.0/Middlewares/Third_Party/LwIP/src/core/ipv4/icmp.c ****  * All rights reserved.
  10:/Users/nhantt/STM32Cube/Repository/STM32Cube_FW_F4_V1.26.0/Middlewares/Third_Party/LwIP/src/core/ipv4/icmp.c ****  *
  11:/Users/nhantt/STM32Cube/Repository/STM32Cube_FW_F4_V1.26.0/Middlewares/Third_Party/LwIP/src/core/ipv4/icmp.c ****  * Redistribution and use in source and binary forms, with or without modification,
  12:/Users/nhantt/STM32Cube/Repository/STM32Cube_FW_F4_V1.26.0/Middlewares/Third_Party/LwIP/src/core/ipv4/icmp.c ****  * are permitted provided that the following conditions are met:
  13:/Users/nhantt/STM32Cube/Repository/STM32Cube_FW_F4_V1.26.0/Middlewares/Third_Party/LwIP/src/core/ipv4/icmp.c ****  *
  14:/Users/nhantt/STM32Cube/Repository/STM32Cube_FW_F4_V1.26.0/Middlewares/Third_Party/LwIP/src/core/ipv4/icmp.c ****  * 1. Redistributions of source code must retain the above copyright notice,
  15:/Users/nhantt/STM32Cube/Repository/STM32Cube_FW_F4_V1.26.0/Middlewares/Third_Party/LwIP/src/core/ipv4/icmp.c ****  *    this list of conditions and the following disclaimer.
  16:/Users/nhantt/STM32Cube/Repository/STM32Cube_FW_F4_V1.26.0/Middlewares/Third_Party/LwIP/src/core/ipv4/icmp.c ****  * 2. Redistributions in binary form must reproduce the above copyright notice,
  17:/Users/nhantt/STM32Cube/Repository/STM32Cube_FW_F4_V1.26.0/Middlewares/Third_Party/LwIP/src/core/ipv4/icmp.c ****  *    this list of conditions and the following disclaimer in the documentation
  18:/Users/nhantt/STM32Cube/Repository/STM32Cube_FW_F4_V1.26.0/Middlewares/Third_Party/LwIP/src/core/ipv4/icmp.c ****  *    and/or other materials provided with the distribution.
  19:/Users/nhantt/STM32Cube/Repository/STM32Cube_FW_F4_V1.26.0/Middlewares/Third_Party/LwIP/src/core/ipv4/icmp.c ****  * 3. The name of the author may not be used to endorse or promote products
  20:/Users/nhantt/STM32Cube/Repository/STM32Cube_FW_F4_V1.26.0/Middlewares/Third_Party/LwIP/src/core/ipv4/icmp.c ****  *    derived from this software without specific prior written permission.
  21:/Users/nhantt/STM32Cube/Repository/STM32Cube_FW_F4_V1.26.0/Middlewares/Third_Party/LwIP/src/core/ipv4/icmp.c ****  *
  22:/Users/nhantt/STM32Cube/Repository/STM32Cube_FW_F4_V1.26.0/Middlewares/Third_Party/LwIP/src/core/ipv4/icmp.c ****  * THIS SOFTWARE IS PROVIDED BY THE AUTHOR ``AS IS'' AND ANY EXPRESS OR IMPLIED
  23:/Users/nhantt/STM32Cube/Repository/STM32Cube_FW_F4_V1.26.0/Middlewares/Third_Party/LwIP/src/core/ipv4/icmp.c ****  * WARRANTIES, INCLUDING, BUT NOT LIMITED TO, THE IMPLIED WARRANTIES OF
  24:/Users/nhantt/STM32Cube/Repository/STM32Cube_FW_F4_V1.26.0/Middlewares/Third_Party/LwIP/src/core/ipv4/icmp.c ****  * MERCHANTABILITY AND FITNESS FOR A PARTICULAR PURPOSE ARE DISCLAIMED. IN NO EVENT
  25:/Users/nhantt/STM32Cube/Repository/STM32Cube_FW_F4_V1.26.0/Middlewares/Third_Party/LwIP/src/core/ipv4/icmp.c ****  * SHALL THE AUTHOR BE LIABLE FOR ANY DIRECT, INDIRECT, INCIDENTAL, SPECIAL,
  26:/Users/nhantt/STM32Cube/Repository/STM32Cube_FW_F4_V1.26.0/Middlewares/Third_Party/LwIP/src/core/ipv4/icmp.c ****  * EXEMPLARY, OR CONSEQUENTIAL DAMAGES (INCLUDING, BUT NOT LIMITED TO, PROCUREMENT
  27:/Users/nhantt/STM32Cube/Repository/STM32Cube_FW_F4_V1.26.0/Middlewares/Third_Party/LwIP/src/core/ipv4/icmp.c ****  * OF SUBSTITUTE GOODS OR SERVICES; LOSS OF USE, DATA, OR PROFITS; OR BUSINESS
  28:/Users/nhantt/STM32Cube/Repository/STM32Cube_FW_F4_V1.26.0/Middlewares/Third_Party/LwIP/src/core/ipv4/icmp.c ****  * INTERRUPTION) HOWEVER CAUSED AND ON ANY THEORY OF LIABILITY, WHETHER IN
  29:/Users/nhantt/STM32Cube/Repository/STM32Cube_FW_F4_V1.26.0/Middlewares/Third_Party/LwIP/src/core/ipv4/icmp.c ****  * CONTRACT, STRICT LIABILITY, OR TORT (INCLUDING NEGLIGENCE OR OTHERWISE) ARISING
  30:/Users/nhantt/STM32Cube/Repository/STM32Cube_FW_F4_V1.26.0/Middlewares/Third_Party/LwIP/src/core/ipv4/icmp.c ****  * IN ANY WAY OUT OF THE USE OF THIS SOFTWARE, EVEN IF ADVISED OF THE POSSIBILITY
  31:/Users/nhantt/STM32Cube/Repository/STM32Cube_FW_F4_V1.26.0/Middlewares/Third_Party/LwIP/src/core/ipv4/icmp.c ****  * OF SUCH DAMAGE.
  32:/Users/nhantt/STM32Cube/Repository/STM32Cube_FW_F4_V1.26.0/Middlewares/Third_Party/LwIP/src/core/ipv4/icmp.c ****  *
  33:/Users/nhantt/STM32Cube/Repository/STM32Cube_FW_F4_V1.26.0/Middlewares/Third_Party/LwIP/src/core/ipv4/icmp.c ****  * This file is part of the lwIP TCP/IP stack.
  34:/Users/nhantt/STM32Cube/Repository/STM32Cube_FW_F4_V1.26.0/Middlewares/Third_Party/LwIP/src/core/ipv4/icmp.c ****  *
  35:/Users/nhantt/STM32Cube/Repository/STM32Cube_FW_F4_V1.26.0/Middlewares/Third_Party/LwIP/src/core/ipv4/icmp.c ****  * Author: Adam Dunkels <adam@sics.se>
  36:/Users/nhantt/STM32Cube/Repository/STM32Cube_FW_F4_V1.26.0/Middlewares/Third_Party/LwIP/src/core/ipv4/icmp.c ****  *
  37:/Users/nhantt/STM32Cube/Repository/STM32Cube_FW_F4_V1.26.0/Middlewares/Third_Party/LwIP/src/core/ipv4/icmp.c ****  */
  38:/Users/nhantt/STM32Cube/Repository/STM32Cube_FW_F4_V1.26.0/Middlewares/Third_Party/LwIP/src/core/ipv4/icmp.c **** 
  39:/Users/nhantt/STM32Cube/Repository/STM32Cube_FW_F4_V1.26.0/Middlewares/Third_Party/LwIP/src/core/ipv4/icmp.c **** /* Some ICMP messages should be passed to the transport protocols. This
  40:/Users/nhantt/STM32Cube/Repository/STM32Cube_FW_F4_V1.26.0/Middlewares/Third_Party/LwIP/src/core/ipv4/icmp.c ****    is not implemented. */
  41:/Users/nhantt/STM32Cube/Repository/STM32Cube_FW_F4_V1.26.0/Middlewares/Third_Party/LwIP/src/core/ipv4/icmp.c **** 
  42:/Users/nhantt/STM32Cube/Repository/STM32Cube_FW_F4_V1.26.0/Middlewares/Third_Party/LwIP/src/core/ipv4/icmp.c **** #include "lwip/opt.h"
  43:/Users/nhantt/STM32Cube/Repository/STM32Cube_FW_F4_V1.26.0/Middlewares/Third_Party/LwIP/src/core/ipv4/icmp.c **** 
  44:/Users/nhantt/STM32Cube/Repository/STM32Cube_FW_F4_V1.26.0/Middlewares/Third_Party/LwIP/src/core/ipv4/icmp.c **** #if LWIP_IPV4 && LWIP_ICMP /* don't build if not configured for use in lwipopts.h */
  45:/Users/nhantt/STM32Cube/Repository/STM32Cube_FW_F4_V1.26.0/Middlewares/Third_Party/LwIP/src/core/ipv4/icmp.c **** 
  46:/Users/nhantt/STM32Cube/Repository/STM32Cube_FW_F4_V1.26.0/Middlewares/Third_Party/LwIP/src/core/ipv4/icmp.c **** #include "lwip/icmp.h"
  47:/Users/nhantt/STM32Cube/Repository/STM32Cube_FW_F4_V1.26.0/Middlewares/Third_Party/LwIP/src/core/ipv4/icmp.c **** #include "lwip/inet_chksum.h"
  48:/Users/nhantt/STM32Cube/Repository/STM32Cube_FW_F4_V1.26.0/Middlewares/Third_Party/LwIP/src/core/ipv4/icmp.c **** #include "lwip/ip.h"
  49:/Users/nhantt/STM32Cube/Repository/STM32Cube_FW_F4_V1.26.0/Middlewares/Third_Party/LwIP/src/core/ipv4/icmp.c **** #include "lwip/def.h"
  50:/Users/nhantt/STM32Cube/Repository/STM32Cube_FW_F4_V1.26.0/Middlewares/Third_Party/LwIP/src/core/ipv4/icmp.c **** #include "lwip/stats.h"
  51:/Users/nhantt/STM32Cube/Repository/STM32Cube_FW_F4_V1.26.0/Middlewares/Third_Party/LwIP/src/core/ipv4/icmp.c **** 
  52:/Users/nhantt/STM32Cube/Repository/STM32Cube_FW_F4_V1.26.0/Middlewares/Third_Party/LwIP/src/core/ipv4/icmp.c **** #include <string.h>
  53:/Users/nhantt/STM32Cube/Repository/STM32Cube_FW_F4_V1.26.0/Middlewares/Third_Party/LwIP/src/core/ipv4/icmp.c **** 
  54:/Users/nhantt/STM32Cube/Repository/STM32Cube_FW_F4_V1.26.0/Middlewares/Third_Party/LwIP/src/core/ipv4/icmp.c **** #ifdef LWIP_HOOK_FILENAME
  55:/Users/nhantt/STM32Cube/Repository/STM32Cube_FW_F4_V1.26.0/Middlewares/Third_Party/LwIP/src/core/ipv4/icmp.c **** #include LWIP_HOOK_FILENAME
  56:/Users/nhantt/STM32Cube/Repository/STM32Cube_FW_F4_V1.26.0/Middlewares/Third_Party/LwIP/src/core/ipv4/icmp.c **** #endif
  57:/Users/nhantt/STM32Cube/Repository/STM32Cube_FW_F4_V1.26.0/Middlewares/Third_Party/LwIP/src/core/ipv4/icmp.c **** 
  58:/Users/nhantt/STM32Cube/Repository/STM32Cube_FW_F4_V1.26.0/Middlewares/Third_Party/LwIP/src/core/ipv4/icmp.c **** /** Small optimization: set to 0 if incoming PBUF_POOL pbuf always can be
ARM GAS  /var/folders/k2/cd9bl_j17z77g23y6ffqb_400000gn/T//ccdkNnUQ.s 			page 3


  59:/Users/nhantt/STM32Cube/Repository/STM32Cube_FW_F4_V1.26.0/Middlewares/Third_Party/LwIP/src/core/ipv4/icmp.c ****  * used to modify and send a response packet (and to 1 if this is not the case,
  60:/Users/nhantt/STM32Cube/Repository/STM32Cube_FW_F4_V1.26.0/Middlewares/Third_Party/LwIP/src/core/ipv4/icmp.c ****  * e.g. when link header is stripped off when receiving) */
  61:/Users/nhantt/STM32Cube/Repository/STM32Cube_FW_F4_V1.26.0/Middlewares/Third_Party/LwIP/src/core/ipv4/icmp.c **** #ifndef LWIP_ICMP_ECHO_CHECK_INPUT_PBUF_LEN
  62:/Users/nhantt/STM32Cube/Repository/STM32Cube_FW_F4_V1.26.0/Middlewares/Third_Party/LwIP/src/core/ipv4/icmp.c **** #define LWIP_ICMP_ECHO_CHECK_INPUT_PBUF_LEN 1
  63:/Users/nhantt/STM32Cube/Repository/STM32Cube_FW_F4_V1.26.0/Middlewares/Third_Party/LwIP/src/core/ipv4/icmp.c **** #endif /* LWIP_ICMP_ECHO_CHECK_INPUT_PBUF_LEN */
  64:/Users/nhantt/STM32Cube/Repository/STM32Cube_FW_F4_V1.26.0/Middlewares/Third_Party/LwIP/src/core/ipv4/icmp.c **** 
  65:/Users/nhantt/STM32Cube/Repository/STM32Cube_FW_F4_V1.26.0/Middlewares/Third_Party/LwIP/src/core/ipv4/icmp.c **** /* The amount of data from the original packet to return in a dest-unreachable */
  66:/Users/nhantt/STM32Cube/Repository/STM32Cube_FW_F4_V1.26.0/Middlewares/Third_Party/LwIP/src/core/ipv4/icmp.c **** #define ICMP_DEST_UNREACH_DATASIZE 8
  67:/Users/nhantt/STM32Cube/Repository/STM32Cube_FW_F4_V1.26.0/Middlewares/Third_Party/LwIP/src/core/ipv4/icmp.c **** 
  68:/Users/nhantt/STM32Cube/Repository/STM32Cube_FW_F4_V1.26.0/Middlewares/Third_Party/LwIP/src/core/ipv4/icmp.c **** static void icmp_send_response(struct pbuf *p, u8_t type, u8_t code);
  69:/Users/nhantt/STM32Cube/Repository/STM32Cube_FW_F4_V1.26.0/Middlewares/Third_Party/LwIP/src/core/ipv4/icmp.c **** 
  70:/Users/nhantt/STM32Cube/Repository/STM32Cube_FW_F4_V1.26.0/Middlewares/Third_Party/LwIP/src/core/ipv4/icmp.c **** /**
  71:/Users/nhantt/STM32Cube/Repository/STM32Cube_FW_F4_V1.26.0/Middlewares/Third_Party/LwIP/src/core/ipv4/icmp.c ****  * Processes ICMP input packets, called from ip_input().
  72:/Users/nhantt/STM32Cube/Repository/STM32Cube_FW_F4_V1.26.0/Middlewares/Third_Party/LwIP/src/core/ipv4/icmp.c ****  *
  73:/Users/nhantt/STM32Cube/Repository/STM32Cube_FW_F4_V1.26.0/Middlewares/Third_Party/LwIP/src/core/ipv4/icmp.c ****  * Currently only processes icmp echo requests and sends
  74:/Users/nhantt/STM32Cube/Repository/STM32Cube_FW_F4_V1.26.0/Middlewares/Third_Party/LwIP/src/core/ipv4/icmp.c ****  * out the echo response.
  75:/Users/nhantt/STM32Cube/Repository/STM32Cube_FW_F4_V1.26.0/Middlewares/Third_Party/LwIP/src/core/ipv4/icmp.c ****  *
  76:/Users/nhantt/STM32Cube/Repository/STM32Cube_FW_F4_V1.26.0/Middlewares/Third_Party/LwIP/src/core/ipv4/icmp.c ****  * @param p the icmp echo request packet, p->payload pointing to the icmp header
  77:/Users/nhantt/STM32Cube/Repository/STM32Cube_FW_F4_V1.26.0/Middlewares/Third_Party/LwIP/src/core/ipv4/icmp.c ****  * @param inp the netif on which this packet was received
  78:/Users/nhantt/STM32Cube/Repository/STM32Cube_FW_F4_V1.26.0/Middlewares/Third_Party/LwIP/src/core/ipv4/icmp.c ****  */
  79:/Users/nhantt/STM32Cube/Repository/STM32Cube_FW_F4_V1.26.0/Middlewares/Third_Party/LwIP/src/core/ipv4/icmp.c **** void
  80:/Users/nhantt/STM32Cube/Repository/STM32Cube_FW_F4_V1.26.0/Middlewares/Third_Party/LwIP/src/core/ipv4/icmp.c **** icmp_input(struct pbuf *p, struct netif *inp)
  81:/Users/nhantt/STM32Cube/Repository/STM32Cube_FW_F4_V1.26.0/Middlewares/Third_Party/LwIP/src/core/ipv4/icmp.c **** {
  82:/Users/nhantt/STM32Cube/Repository/STM32Cube_FW_F4_V1.26.0/Middlewares/Third_Party/LwIP/src/core/ipv4/icmp.c ****   u8_t type;
  83:/Users/nhantt/STM32Cube/Repository/STM32Cube_FW_F4_V1.26.0/Middlewares/Third_Party/LwIP/src/core/ipv4/icmp.c **** #ifdef LWIP_DEBUG
  84:/Users/nhantt/STM32Cube/Repository/STM32Cube_FW_F4_V1.26.0/Middlewares/Third_Party/LwIP/src/core/ipv4/icmp.c ****   u8_t code;
  85:/Users/nhantt/STM32Cube/Repository/STM32Cube_FW_F4_V1.26.0/Middlewares/Third_Party/LwIP/src/core/ipv4/icmp.c **** #endif /* LWIP_DEBUG */
  86:/Users/nhantt/STM32Cube/Repository/STM32Cube_FW_F4_V1.26.0/Middlewares/Third_Party/LwIP/src/core/ipv4/icmp.c ****   struct icmp_echo_hdr *iecho;
  87:/Users/nhantt/STM32Cube/Repository/STM32Cube_FW_F4_V1.26.0/Middlewares/Third_Party/LwIP/src/core/ipv4/icmp.c ****   const struct ip_hdr *iphdr_in;
  88:/Users/nhantt/STM32Cube/Repository/STM32Cube_FW_F4_V1.26.0/Middlewares/Third_Party/LwIP/src/core/ipv4/icmp.c ****   u16_t hlen;
  89:/Users/nhantt/STM32Cube/Repository/STM32Cube_FW_F4_V1.26.0/Middlewares/Third_Party/LwIP/src/core/ipv4/icmp.c ****   const ip4_addr_t *src;
  90:/Users/nhantt/STM32Cube/Repository/STM32Cube_FW_F4_V1.26.0/Middlewares/Third_Party/LwIP/src/core/ipv4/icmp.c **** 
  91:/Users/nhantt/STM32Cube/Repository/STM32Cube_FW_F4_V1.26.0/Middlewares/Third_Party/LwIP/src/core/ipv4/icmp.c ****   ICMP_STATS_INC(icmp.recv);
  92:/Users/nhantt/STM32Cube/Repository/STM32Cube_FW_F4_V1.26.0/Middlewares/Third_Party/LwIP/src/core/ipv4/icmp.c ****   MIB2_STATS_INC(mib2.icmpinmsgs);
  93:/Users/nhantt/STM32Cube/Repository/STM32Cube_FW_F4_V1.26.0/Middlewares/Third_Party/LwIP/src/core/ipv4/icmp.c **** 
  94:/Users/nhantt/STM32Cube/Repository/STM32Cube_FW_F4_V1.26.0/Middlewares/Third_Party/LwIP/src/core/ipv4/icmp.c ****   iphdr_in = ip4_current_header();
  95:/Users/nhantt/STM32Cube/Repository/STM32Cube_FW_F4_V1.26.0/Middlewares/Third_Party/LwIP/src/core/ipv4/icmp.c ****   hlen = IPH_HL_BYTES(iphdr_in);
  96:/Users/nhantt/STM32Cube/Repository/STM32Cube_FW_F4_V1.26.0/Middlewares/Third_Party/LwIP/src/core/ipv4/icmp.c ****   if (hlen < IP_HLEN) {
  97:/Users/nhantt/STM32Cube/Repository/STM32Cube_FW_F4_V1.26.0/Middlewares/Third_Party/LwIP/src/core/ipv4/icmp.c ****     LWIP_DEBUGF(ICMP_DEBUG, ("icmp_input: short IP header (%"S16_F" bytes) received\n", hlen));
  98:/Users/nhantt/STM32Cube/Repository/STM32Cube_FW_F4_V1.26.0/Middlewares/Third_Party/LwIP/src/core/ipv4/icmp.c ****     goto lenerr;
  99:/Users/nhantt/STM32Cube/Repository/STM32Cube_FW_F4_V1.26.0/Middlewares/Third_Party/LwIP/src/core/ipv4/icmp.c ****   }
 100:/Users/nhantt/STM32Cube/Repository/STM32Cube_FW_F4_V1.26.0/Middlewares/Third_Party/LwIP/src/core/ipv4/icmp.c ****   if (p->len < sizeof(u16_t) * 2) {
 101:/Users/nhantt/STM32Cube/Repository/STM32Cube_FW_F4_V1.26.0/Middlewares/Third_Party/LwIP/src/core/ipv4/icmp.c ****     LWIP_DEBUGF(ICMP_DEBUG, ("icmp_input: short ICMP (%"U16_F" bytes) received\n", p->tot_len));
 102:/Users/nhantt/STM32Cube/Repository/STM32Cube_FW_F4_V1.26.0/Middlewares/Third_Party/LwIP/src/core/ipv4/icmp.c ****     goto lenerr;
 103:/Users/nhantt/STM32Cube/Repository/STM32Cube_FW_F4_V1.26.0/Middlewares/Third_Party/LwIP/src/core/ipv4/icmp.c ****   }
 104:/Users/nhantt/STM32Cube/Repository/STM32Cube_FW_F4_V1.26.0/Middlewares/Third_Party/LwIP/src/core/ipv4/icmp.c **** 
 105:/Users/nhantt/STM32Cube/Repository/STM32Cube_FW_F4_V1.26.0/Middlewares/Third_Party/LwIP/src/core/ipv4/icmp.c ****   type = *((u8_t *)p->payload);
 106:/Users/nhantt/STM32Cube/Repository/STM32Cube_FW_F4_V1.26.0/Middlewares/Third_Party/LwIP/src/core/ipv4/icmp.c **** #ifdef LWIP_DEBUG
 107:/Users/nhantt/STM32Cube/Repository/STM32Cube_FW_F4_V1.26.0/Middlewares/Third_Party/LwIP/src/core/ipv4/icmp.c ****   code = *(((u8_t *)p->payload) + 1);
 108:/Users/nhantt/STM32Cube/Repository/STM32Cube_FW_F4_V1.26.0/Middlewares/Third_Party/LwIP/src/core/ipv4/icmp.c ****   /* if debug is enabled but debug statement below is somehow disabled: */
 109:/Users/nhantt/STM32Cube/Repository/STM32Cube_FW_F4_V1.26.0/Middlewares/Third_Party/LwIP/src/core/ipv4/icmp.c ****   LWIP_UNUSED_ARG(code);
 110:/Users/nhantt/STM32Cube/Repository/STM32Cube_FW_F4_V1.26.0/Middlewares/Third_Party/LwIP/src/core/ipv4/icmp.c **** #endif /* LWIP_DEBUG */
 111:/Users/nhantt/STM32Cube/Repository/STM32Cube_FW_F4_V1.26.0/Middlewares/Third_Party/LwIP/src/core/ipv4/icmp.c ****   switch (type) {
 112:/Users/nhantt/STM32Cube/Repository/STM32Cube_FW_F4_V1.26.0/Middlewares/Third_Party/LwIP/src/core/ipv4/icmp.c ****     case ICMP_ER:
 113:/Users/nhantt/STM32Cube/Repository/STM32Cube_FW_F4_V1.26.0/Middlewares/Third_Party/LwIP/src/core/ipv4/icmp.c ****       /* This is OK, echo reply might have been parsed by a raw PCB
 114:/Users/nhantt/STM32Cube/Repository/STM32Cube_FW_F4_V1.26.0/Middlewares/Third_Party/LwIP/src/core/ipv4/icmp.c ****          (as obviously, an echo request has been sent, too). */
 115:/Users/nhantt/STM32Cube/Repository/STM32Cube_FW_F4_V1.26.0/Middlewares/Third_Party/LwIP/src/core/ipv4/icmp.c ****       MIB2_STATS_INC(mib2.icmpinechoreps);
ARM GAS  /var/folders/k2/cd9bl_j17z77g23y6ffqb_400000gn/T//ccdkNnUQ.s 			page 4


 116:/Users/nhantt/STM32Cube/Repository/STM32Cube_FW_F4_V1.26.0/Middlewares/Third_Party/LwIP/src/core/ipv4/icmp.c ****       break;
 117:/Users/nhantt/STM32Cube/Repository/STM32Cube_FW_F4_V1.26.0/Middlewares/Third_Party/LwIP/src/core/ipv4/icmp.c ****     case ICMP_ECHO:
 118:/Users/nhantt/STM32Cube/Repository/STM32Cube_FW_F4_V1.26.0/Middlewares/Third_Party/LwIP/src/core/ipv4/icmp.c ****       MIB2_STATS_INC(mib2.icmpinechos);
 119:/Users/nhantt/STM32Cube/Repository/STM32Cube_FW_F4_V1.26.0/Middlewares/Third_Party/LwIP/src/core/ipv4/icmp.c ****       src = ip4_current_dest_addr();
 120:/Users/nhantt/STM32Cube/Repository/STM32Cube_FW_F4_V1.26.0/Middlewares/Third_Party/LwIP/src/core/ipv4/icmp.c ****       /* multicast destination address? */
 121:/Users/nhantt/STM32Cube/Repository/STM32Cube_FW_F4_V1.26.0/Middlewares/Third_Party/LwIP/src/core/ipv4/icmp.c ****       if (ip4_addr_ismulticast(ip4_current_dest_addr())) {
 122:/Users/nhantt/STM32Cube/Repository/STM32Cube_FW_F4_V1.26.0/Middlewares/Third_Party/LwIP/src/core/ipv4/icmp.c **** #if LWIP_MULTICAST_PING
 123:/Users/nhantt/STM32Cube/Repository/STM32Cube_FW_F4_V1.26.0/Middlewares/Third_Party/LwIP/src/core/ipv4/icmp.c ****         /* For multicast, use address of receiving interface as source address */
 124:/Users/nhantt/STM32Cube/Repository/STM32Cube_FW_F4_V1.26.0/Middlewares/Third_Party/LwIP/src/core/ipv4/icmp.c ****         src = netif_ip4_addr(inp);
 125:/Users/nhantt/STM32Cube/Repository/STM32Cube_FW_F4_V1.26.0/Middlewares/Third_Party/LwIP/src/core/ipv4/icmp.c **** #else /* LWIP_MULTICAST_PING */
 126:/Users/nhantt/STM32Cube/Repository/STM32Cube_FW_F4_V1.26.0/Middlewares/Third_Party/LwIP/src/core/ipv4/icmp.c ****         LWIP_DEBUGF(ICMP_DEBUG, ("icmp_input: Not echoing to multicast pings\n"));
 127:/Users/nhantt/STM32Cube/Repository/STM32Cube_FW_F4_V1.26.0/Middlewares/Third_Party/LwIP/src/core/ipv4/icmp.c ****         goto icmperr;
 128:/Users/nhantt/STM32Cube/Repository/STM32Cube_FW_F4_V1.26.0/Middlewares/Third_Party/LwIP/src/core/ipv4/icmp.c **** #endif /* LWIP_MULTICAST_PING */
 129:/Users/nhantt/STM32Cube/Repository/STM32Cube_FW_F4_V1.26.0/Middlewares/Third_Party/LwIP/src/core/ipv4/icmp.c ****       }
 130:/Users/nhantt/STM32Cube/Repository/STM32Cube_FW_F4_V1.26.0/Middlewares/Third_Party/LwIP/src/core/ipv4/icmp.c ****       /* broadcast destination address? */
 131:/Users/nhantt/STM32Cube/Repository/STM32Cube_FW_F4_V1.26.0/Middlewares/Third_Party/LwIP/src/core/ipv4/icmp.c ****       if (ip4_addr_isbroadcast(ip4_current_dest_addr(), ip_current_netif())) {
 132:/Users/nhantt/STM32Cube/Repository/STM32Cube_FW_F4_V1.26.0/Middlewares/Third_Party/LwIP/src/core/ipv4/icmp.c **** #if LWIP_BROADCAST_PING
 133:/Users/nhantt/STM32Cube/Repository/STM32Cube_FW_F4_V1.26.0/Middlewares/Third_Party/LwIP/src/core/ipv4/icmp.c ****         /* For broadcast, use address of receiving interface as source address */
 134:/Users/nhantt/STM32Cube/Repository/STM32Cube_FW_F4_V1.26.0/Middlewares/Third_Party/LwIP/src/core/ipv4/icmp.c ****         src = netif_ip4_addr(inp);
 135:/Users/nhantt/STM32Cube/Repository/STM32Cube_FW_F4_V1.26.0/Middlewares/Third_Party/LwIP/src/core/ipv4/icmp.c **** #else /* LWIP_BROADCAST_PING */
 136:/Users/nhantt/STM32Cube/Repository/STM32Cube_FW_F4_V1.26.0/Middlewares/Third_Party/LwIP/src/core/ipv4/icmp.c ****         LWIP_DEBUGF(ICMP_DEBUG, ("icmp_input: Not echoing to broadcast pings\n"));
 137:/Users/nhantt/STM32Cube/Repository/STM32Cube_FW_F4_V1.26.0/Middlewares/Third_Party/LwIP/src/core/ipv4/icmp.c ****         goto icmperr;
 138:/Users/nhantt/STM32Cube/Repository/STM32Cube_FW_F4_V1.26.0/Middlewares/Third_Party/LwIP/src/core/ipv4/icmp.c **** #endif /* LWIP_BROADCAST_PING */
 139:/Users/nhantt/STM32Cube/Repository/STM32Cube_FW_F4_V1.26.0/Middlewares/Third_Party/LwIP/src/core/ipv4/icmp.c ****       }
 140:/Users/nhantt/STM32Cube/Repository/STM32Cube_FW_F4_V1.26.0/Middlewares/Third_Party/LwIP/src/core/ipv4/icmp.c ****       LWIP_DEBUGF(ICMP_DEBUG, ("icmp_input: ping\n"));
 141:/Users/nhantt/STM32Cube/Repository/STM32Cube_FW_F4_V1.26.0/Middlewares/Third_Party/LwIP/src/core/ipv4/icmp.c ****       if (p->tot_len < sizeof(struct icmp_echo_hdr)) {
 142:/Users/nhantt/STM32Cube/Repository/STM32Cube_FW_F4_V1.26.0/Middlewares/Third_Party/LwIP/src/core/ipv4/icmp.c ****         LWIP_DEBUGF(ICMP_DEBUG, ("icmp_input: bad ICMP echo received\n"));
 143:/Users/nhantt/STM32Cube/Repository/STM32Cube_FW_F4_V1.26.0/Middlewares/Third_Party/LwIP/src/core/ipv4/icmp.c ****         goto lenerr;
 144:/Users/nhantt/STM32Cube/Repository/STM32Cube_FW_F4_V1.26.0/Middlewares/Third_Party/LwIP/src/core/ipv4/icmp.c ****       }
 145:/Users/nhantt/STM32Cube/Repository/STM32Cube_FW_F4_V1.26.0/Middlewares/Third_Party/LwIP/src/core/ipv4/icmp.c **** #if CHECKSUM_CHECK_ICMP
 146:/Users/nhantt/STM32Cube/Repository/STM32Cube_FW_F4_V1.26.0/Middlewares/Third_Party/LwIP/src/core/ipv4/icmp.c ****       IF__NETIF_CHECKSUM_ENABLED(inp, NETIF_CHECKSUM_CHECK_ICMP) {
 147:/Users/nhantt/STM32Cube/Repository/STM32Cube_FW_F4_V1.26.0/Middlewares/Third_Party/LwIP/src/core/ipv4/icmp.c ****         if (inet_chksum_pbuf(p) != 0) {
 148:/Users/nhantt/STM32Cube/Repository/STM32Cube_FW_F4_V1.26.0/Middlewares/Third_Party/LwIP/src/core/ipv4/icmp.c ****           LWIP_DEBUGF(ICMP_DEBUG, ("icmp_input: checksum failed for received ICMP echo\n"));
 149:/Users/nhantt/STM32Cube/Repository/STM32Cube_FW_F4_V1.26.0/Middlewares/Third_Party/LwIP/src/core/ipv4/icmp.c ****           pbuf_free(p);
 150:/Users/nhantt/STM32Cube/Repository/STM32Cube_FW_F4_V1.26.0/Middlewares/Third_Party/LwIP/src/core/ipv4/icmp.c ****           ICMP_STATS_INC(icmp.chkerr);
 151:/Users/nhantt/STM32Cube/Repository/STM32Cube_FW_F4_V1.26.0/Middlewares/Third_Party/LwIP/src/core/ipv4/icmp.c ****           MIB2_STATS_INC(mib2.icmpinerrors);
 152:/Users/nhantt/STM32Cube/Repository/STM32Cube_FW_F4_V1.26.0/Middlewares/Third_Party/LwIP/src/core/ipv4/icmp.c ****           return;
 153:/Users/nhantt/STM32Cube/Repository/STM32Cube_FW_F4_V1.26.0/Middlewares/Third_Party/LwIP/src/core/ipv4/icmp.c ****         }
 154:/Users/nhantt/STM32Cube/Repository/STM32Cube_FW_F4_V1.26.0/Middlewares/Third_Party/LwIP/src/core/ipv4/icmp.c ****       }
 155:/Users/nhantt/STM32Cube/Repository/STM32Cube_FW_F4_V1.26.0/Middlewares/Third_Party/LwIP/src/core/ipv4/icmp.c **** #endif
 156:/Users/nhantt/STM32Cube/Repository/STM32Cube_FW_F4_V1.26.0/Middlewares/Third_Party/LwIP/src/core/ipv4/icmp.c **** #if LWIP_ICMP_ECHO_CHECK_INPUT_PBUF_LEN
 157:/Users/nhantt/STM32Cube/Repository/STM32Cube_FW_F4_V1.26.0/Middlewares/Third_Party/LwIP/src/core/ipv4/icmp.c ****       if (pbuf_add_header(p, hlen + PBUF_LINK_HLEN + PBUF_LINK_ENCAPSULATION_HLEN)) {
 158:/Users/nhantt/STM32Cube/Repository/STM32Cube_FW_F4_V1.26.0/Middlewares/Third_Party/LwIP/src/core/ipv4/icmp.c ****         /* p is not big enough to contain link headers
 159:/Users/nhantt/STM32Cube/Repository/STM32Cube_FW_F4_V1.26.0/Middlewares/Third_Party/LwIP/src/core/ipv4/icmp.c ****          * allocate a new one and copy p into it
 160:/Users/nhantt/STM32Cube/Repository/STM32Cube_FW_F4_V1.26.0/Middlewares/Third_Party/LwIP/src/core/ipv4/icmp.c ****          */
 161:/Users/nhantt/STM32Cube/Repository/STM32Cube_FW_F4_V1.26.0/Middlewares/Third_Party/LwIP/src/core/ipv4/icmp.c ****         struct pbuf *r;
 162:/Users/nhantt/STM32Cube/Repository/STM32Cube_FW_F4_V1.26.0/Middlewares/Third_Party/LwIP/src/core/ipv4/icmp.c ****         u16_t alloc_len = (u16_t)(p->tot_len + hlen);
 163:/Users/nhantt/STM32Cube/Repository/STM32Cube_FW_F4_V1.26.0/Middlewares/Third_Party/LwIP/src/core/ipv4/icmp.c ****         if (alloc_len < p->tot_len) {
 164:/Users/nhantt/STM32Cube/Repository/STM32Cube_FW_F4_V1.26.0/Middlewares/Third_Party/LwIP/src/core/ipv4/icmp.c ****           LWIP_DEBUGF(ICMP_DEBUG, ("icmp_input: allocating new pbuf failed (tot_len overflow)\n"));
 165:/Users/nhantt/STM32Cube/Repository/STM32Cube_FW_F4_V1.26.0/Middlewares/Third_Party/LwIP/src/core/ipv4/icmp.c ****           goto icmperr;
 166:/Users/nhantt/STM32Cube/Repository/STM32Cube_FW_F4_V1.26.0/Middlewares/Third_Party/LwIP/src/core/ipv4/icmp.c ****         }
 167:/Users/nhantt/STM32Cube/Repository/STM32Cube_FW_F4_V1.26.0/Middlewares/Third_Party/LwIP/src/core/ipv4/icmp.c ****         /* allocate new packet buffer with space for link headers */
 168:/Users/nhantt/STM32Cube/Repository/STM32Cube_FW_F4_V1.26.0/Middlewares/Third_Party/LwIP/src/core/ipv4/icmp.c ****         r = pbuf_alloc(PBUF_LINK, alloc_len, PBUF_RAM);
 169:/Users/nhantt/STM32Cube/Repository/STM32Cube_FW_F4_V1.26.0/Middlewares/Third_Party/LwIP/src/core/ipv4/icmp.c ****         if (r == NULL) {
 170:/Users/nhantt/STM32Cube/Repository/STM32Cube_FW_F4_V1.26.0/Middlewares/Third_Party/LwIP/src/core/ipv4/icmp.c ****           LWIP_DEBUGF(ICMP_DEBUG, ("icmp_input: allocating new pbuf failed\n"));
 171:/Users/nhantt/STM32Cube/Repository/STM32Cube_FW_F4_V1.26.0/Middlewares/Third_Party/LwIP/src/core/ipv4/icmp.c ****           goto icmperr;
 172:/Users/nhantt/STM32Cube/Repository/STM32Cube_FW_F4_V1.26.0/Middlewares/Third_Party/LwIP/src/core/ipv4/icmp.c ****         }
ARM GAS  /var/folders/k2/cd9bl_j17z77g23y6ffqb_400000gn/T//ccdkNnUQ.s 			page 5


 173:/Users/nhantt/STM32Cube/Repository/STM32Cube_FW_F4_V1.26.0/Middlewares/Third_Party/LwIP/src/core/ipv4/icmp.c ****         if (r->len < hlen + sizeof(struct icmp_echo_hdr)) {
 174:/Users/nhantt/STM32Cube/Repository/STM32Cube_FW_F4_V1.26.0/Middlewares/Third_Party/LwIP/src/core/ipv4/icmp.c ****           LWIP_DEBUGF(ICMP_DEBUG | LWIP_DBG_LEVEL_SERIOUS, ("first pbuf cannot hold the ICMP header
 175:/Users/nhantt/STM32Cube/Repository/STM32Cube_FW_F4_V1.26.0/Middlewares/Third_Party/LwIP/src/core/ipv4/icmp.c ****           pbuf_free(r);
 176:/Users/nhantt/STM32Cube/Repository/STM32Cube_FW_F4_V1.26.0/Middlewares/Third_Party/LwIP/src/core/ipv4/icmp.c ****           goto icmperr;
 177:/Users/nhantt/STM32Cube/Repository/STM32Cube_FW_F4_V1.26.0/Middlewares/Third_Party/LwIP/src/core/ipv4/icmp.c ****         }
 178:/Users/nhantt/STM32Cube/Repository/STM32Cube_FW_F4_V1.26.0/Middlewares/Third_Party/LwIP/src/core/ipv4/icmp.c ****         /* copy the ip header */
 179:/Users/nhantt/STM32Cube/Repository/STM32Cube_FW_F4_V1.26.0/Middlewares/Third_Party/LwIP/src/core/ipv4/icmp.c ****         MEMCPY(r->payload, iphdr_in, hlen);
 180:/Users/nhantt/STM32Cube/Repository/STM32Cube_FW_F4_V1.26.0/Middlewares/Third_Party/LwIP/src/core/ipv4/icmp.c ****         /* switch r->payload back to icmp header (cannot fail) */
 181:/Users/nhantt/STM32Cube/Repository/STM32Cube_FW_F4_V1.26.0/Middlewares/Third_Party/LwIP/src/core/ipv4/icmp.c ****         if (pbuf_remove_header(r, hlen)) {
 182:/Users/nhantt/STM32Cube/Repository/STM32Cube_FW_F4_V1.26.0/Middlewares/Third_Party/LwIP/src/core/ipv4/icmp.c ****           LWIP_ASSERT("icmp_input: moving r->payload to icmp header failed\n", 0);
 183:/Users/nhantt/STM32Cube/Repository/STM32Cube_FW_F4_V1.26.0/Middlewares/Third_Party/LwIP/src/core/ipv4/icmp.c ****           pbuf_free(r);
 184:/Users/nhantt/STM32Cube/Repository/STM32Cube_FW_F4_V1.26.0/Middlewares/Third_Party/LwIP/src/core/ipv4/icmp.c ****           goto icmperr;
 185:/Users/nhantt/STM32Cube/Repository/STM32Cube_FW_F4_V1.26.0/Middlewares/Third_Party/LwIP/src/core/ipv4/icmp.c ****         }
 186:/Users/nhantt/STM32Cube/Repository/STM32Cube_FW_F4_V1.26.0/Middlewares/Third_Party/LwIP/src/core/ipv4/icmp.c ****         /* copy the rest of the packet without ip header */
 187:/Users/nhantt/STM32Cube/Repository/STM32Cube_FW_F4_V1.26.0/Middlewares/Third_Party/LwIP/src/core/ipv4/icmp.c ****         if (pbuf_copy(r, p) != ERR_OK) {
 188:/Users/nhantt/STM32Cube/Repository/STM32Cube_FW_F4_V1.26.0/Middlewares/Third_Party/LwIP/src/core/ipv4/icmp.c ****           LWIP_DEBUGF(ICMP_DEBUG | LWIP_DBG_LEVEL_SERIOUS, ("icmp_input: copying to new pbuf failed
 189:/Users/nhantt/STM32Cube/Repository/STM32Cube_FW_F4_V1.26.0/Middlewares/Third_Party/LwIP/src/core/ipv4/icmp.c ****           pbuf_free(r);
 190:/Users/nhantt/STM32Cube/Repository/STM32Cube_FW_F4_V1.26.0/Middlewares/Third_Party/LwIP/src/core/ipv4/icmp.c ****           goto icmperr;
 191:/Users/nhantt/STM32Cube/Repository/STM32Cube_FW_F4_V1.26.0/Middlewares/Third_Party/LwIP/src/core/ipv4/icmp.c ****         }
 192:/Users/nhantt/STM32Cube/Repository/STM32Cube_FW_F4_V1.26.0/Middlewares/Third_Party/LwIP/src/core/ipv4/icmp.c ****         /* free the original p */
 193:/Users/nhantt/STM32Cube/Repository/STM32Cube_FW_F4_V1.26.0/Middlewares/Third_Party/LwIP/src/core/ipv4/icmp.c ****         pbuf_free(p);
 194:/Users/nhantt/STM32Cube/Repository/STM32Cube_FW_F4_V1.26.0/Middlewares/Third_Party/LwIP/src/core/ipv4/icmp.c ****         /* we now have an identical copy of p that has room for link headers */
 195:/Users/nhantt/STM32Cube/Repository/STM32Cube_FW_F4_V1.26.0/Middlewares/Third_Party/LwIP/src/core/ipv4/icmp.c ****         p = r;
 196:/Users/nhantt/STM32Cube/Repository/STM32Cube_FW_F4_V1.26.0/Middlewares/Third_Party/LwIP/src/core/ipv4/icmp.c ****       } else {
 197:/Users/nhantt/STM32Cube/Repository/STM32Cube_FW_F4_V1.26.0/Middlewares/Third_Party/LwIP/src/core/ipv4/icmp.c ****         /* restore p->payload to point to icmp header (cannot fail) */
 198:/Users/nhantt/STM32Cube/Repository/STM32Cube_FW_F4_V1.26.0/Middlewares/Third_Party/LwIP/src/core/ipv4/icmp.c ****         if (pbuf_remove_header(p, hlen + PBUF_LINK_HLEN + PBUF_LINK_ENCAPSULATION_HLEN)) {
 199:/Users/nhantt/STM32Cube/Repository/STM32Cube_FW_F4_V1.26.0/Middlewares/Third_Party/LwIP/src/core/ipv4/icmp.c ****           LWIP_ASSERT("icmp_input: restoring original p->payload failed\n", 0);
 200:/Users/nhantt/STM32Cube/Repository/STM32Cube_FW_F4_V1.26.0/Middlewares/Third_Party/LwIP/src/core/ipv4/icmp.c ****           goto icmperr;
 201:/Users/nhantt/STM32Cube/Repository/STM32Cube_FW_F4_V1.26.0/Middlewares/Third_Party/LwIP/src/core/ipv4/icmp.c ****         }
 202:/Users/nhantt/STM32Cube/Repository/STM32Cube_FW_F4_V1.26.0/Middlewares/Third_Party/LwIP/src/core/ipv4/icmp.c ****       }
 203:/Users/nhantt/STM32Cube/Repository/STM32Cube_FW_F4_V1.26.0/Middlewares/Third_Party/LwIP/src/core/ipv4/icmp.c **** #endif /* LWIP_ICMP_ECHO_CHECK_INPUT_PBUF_LEN */
 204:/Users/nhantt/STM32Cube/Repository/STM32Cube_FW_F4_V1.26.0/Middlewares/Third_Party/LwIP/src/core/ipv4/icmp.c ****       /* At this point, all checks are OK. */
 205:/Users/nhantt/STM32Cube/Repository/STM32Cube_FW_F4_V1.26.0/Middlewares/Third_Party/LwIP/src/core/ipv4/icmp.c ****       /* We generate an answer by switching the dest and src ip addresses,
 206:/Users/nhantt/STM32Cube/Repository/STM32Cube_FW_F4_V1.26.0/Middlewares/Third_Party/LwIP/src/core/ipv4/icmp.c ****        * setting the icmp type to ECHO_RESPONSE and updating the checksum. */
 207:/Users/nhantt/STM32Cube/Repository/STM32Cube_FW_F4_V1.26.0/Middlewares/Third_Party/LwIP/src/core/ipv4/icmp.c ****       iecho = (struct icmp_echo_hdr *)p->payload;
 208:/Users/nhantt/STM32Cube/Repository/STM32Cube_FW_F4_V1.26.0/Middlewares/Third_Party/LwIP/src/core/ipv4/icmp.c ****       if (pbuf_add_header(p, hlen)) {
 209:/Users/nhantt/STM32Cube/Repository/STM32Cube_FW_F4_V1.26.0/Middlewares/Third_Party/LwIP/src/core/ipv4/icmp.c ****         LWIP_DEBUGF(ICMP_DEBUG | LWIP_DBG_LEVEL_SERIOUS, ("Can't move over header in packet"));
 210:/Users/nhantt/STM32Cube/Repository/STM32Cube_FW_F4_V1.26.0/Middlewares/Third_Party/LwIP/src/core/ipv4/icmp.c ****       } else {
 211:/Users/nhantt/STM32Cube/Repository/STM32Cube_FW_F4_V1.26.0/Middlewares/Third_Party/LwIP/src/core/ipv4/icmp.c ****         err_t ret;
 212:/Users/nhantt/STM32Cube/Repository/STM32Cube_FW_F4_V1.26.0/Middlewares/Third_Party/LwIP/src/core/ipv4/icmp.c ****         struct ip_hdr *iphdr = (struct ip_hdr *)p->payload;
 213:/Users/nhantt/STM32Cube/Repository/STM32Cube_FW_F4_V1.26.0/Middlewares/Third_Party/LwIP/src/core/ipv4/icmp.c ****         ip4_addr_copy(iphdr->src, *src);
 214:/Users/nhantt/STM32Cube/Repository/STM32Cube_FW_F4_V1.26.0/Middlewares/Third_Party/LwIP/src/core/ipv4/icmp.c ****         ip4_addr_copy(iphdr->dest, *ip4_current_src_addr());
 215:/Users/nhantt/STM32Cube/Repository/STM32Cube_FW_F4_V1.26.0/Middlewares/Third_Party/LwIP/src/core/ipv4/icmp.c ****         ICMPH_TYPE_SET(iecho, ICMP_ER);
 216:/Users/nhantt/STM32Cube/Repository/STM32Cube_FW_F4_V1.26.0/Middlewares/Third_Party/LwIP/src/core/ipv4/icmp.c **** #if CHECKSUM_GEN_ICMP
 217:/Users/nhantt/STM32Cube/Repository/STM32Cube_FW_F4_V1.26.0/Middlewares/Third_Party/LwIP/src/core/ipv4/icmp.c ****         IF__NETIF_CHECKSUM_ENABLED(inp, NETIF_CHECKSUM_GEN_ICMP) {
 218:/Users/nhantt/STM32Cube/Repository/STM32Cube_FW_F4_V1.26.0/Middlewares/Third_Party/LwIP/src/core/ipv4/icmp.c ****           /* adjust the checksum */
 219:/Users/nhantt/STM32Cube/Repository/STM32Cube_FW_F4_V1.26.0/Middlewares/Third_Party/LwIP/src/core/ipv4/icmp.c ****           if (iecho->chksum > PP_HTONS(0xffffU - (ICMP_ECHO << 8))) {
 220:/Users/nhantt/STM32Cube/Repository/STM32Cube_FW_F4_V1.26.0/Middlewares/Third_Party/LwIP/src/core/ipv4/icmp.c ****             iecho->chksum = (u16_t)(iecho->chksum + PP_HTONS((u16_t)(ICMP_ECHO << 8)) + 1);
 221:/Users/nhantt/STM32Cube/Repository/STM32Cube_FW_F4_V1.26.0/Middlewares/Third_Party/LwIP/src/core/ipv4/icmp.c ****           } else {
 222:/Users/nhantt/STM32Cube/Repository/STM32Cube_FW_F4_V1.26.0/Middlewares/Third_Party/LwIP/src/core/ipv4/icmp.c ****             iecho->chksum = (u16_t)(iecho->chksum + PP_HTONS(ICMP_ECHO << 8));
 223:/Users/nhantt/STM32Cube/Repository/STM32Cube_FW_F4_V1.26.0/Middlewares/Third_Party/LwIP/src/core/ipv4/icmp.c ****           }
 224:/Users/nhantt/STM32Cube/Repository/STM32Cube_FW_F4_V1.26.0/Middlewares/Third_Party/LwIP/src/core/ipv4/icmp.c ****         }
 225:/Users/nhantt/STM32Cube/Repository/STM32Cube_FW_F4_V1.26.0/Middlewares/Third_Party/LwIP/src/core/ipv4/icmp.c **** #if LWIP_CHECKSUM_CTRL_PER_NETIF
 226:/Users/nhantt/STM32Cube/Repository/STM32Cube_FW_F4_V1.26.0/Middlewares/Third_Party/LwIP/src/core/ipv4/icmp.c ****         else {
 227:/Users/nhantt/STM32Cube/Repository/STM32Cube_FW_F4_V1.26.0/Middlewares/Third_Party/LwIP/src/core/ipv4/icmp.c ****           iecho->chksum = 0;
 228:/Users/nhantt/STM32Cube/Repository/STM32Cube_FW_F4_V1.26.0/Middlewares/Third_Party/LwIP/src/core/ipv4/icmp.c ****         }
 229:/Users/nhantt/STM32Cube/Repository/STM32Cube_FW_F4_V1.26.0/Middlewares/Third_Party/LwIP/src/core/ipv4/icmp.c **** #endif /* LWIP_CHECKSUM_CTRL_PER_NETIF */
ARM GAS  /var/folders/k2/cd9bl_j17z77g23y6ffqb_400000gn/T//ccdkNnUQ.s 			page 6


 230:/Users/nhantt/STM32Cube/Repository/STM32Cube_FW_F4_V1.26.0/Middlewares/Third_Party/LwIP/src/core/ipv4/icmp.c **** #else /* CHECKSUM_GEN_ICMP */
 231:/Users/nhantt/STM32Cube/Repository/STM32Cube_FW_F4_V1.26.0/Middlewares/Third_Party/LwIP/src/core/ipv4/icmp.c ****         iecho->chksum = 0;
 232:/Users/nhantt/STM32Cube/Repository/STM32Cube_FW_F4_V1.26.0/Middlewares/Third_Party/LwIP/src/core/ipv4/icmp.c **** #endif /* CHECKSUM_GEN_ICMP */
 233:/Users/nhantt/STM32Cube/Repository/STM32Cube_FW_F4_V1.26.0/Middlewares/Third_Party/LwIP/src/core/ipv4/icmp.c **** 
 234:/Users/nhantt/STM32Cube/Repository/STM32Cube_FW_F4_V1.26.0/Middlewares/Third_Party/LwIP/src/core/ipv4/icmp.c ****         /* Set the correct TTL and recalculate the header checksum. */
 235:/Users/nhantt/STM32Cube/Repository/STM32Cube_FW_F4_V1.26.0/Middlewares/Third_Party/LwIP/src/core/ipv4/icmp.c ****         IPH_TTL_SET(iphdr, ICMP_TTL);
 236:/Users/nhantt/STM32Cube/Repository/STM32Cube_FW_F4_V1.26.0/Middlewares/Third_Party/LwIP/src/core/ipv4/icmp.c ****         IPH_CHKSUM_SET(iphdr, 0);
 237:/Users/nhantt/STM32Cube/Repository/STM32Cube_FW_F4_V1.26.0/Middlewares/Third_Party/LwIP/src/core/ipv4/icmp.c **** #if CHECKSUM_GEN_IP
 238:/Users/nhantt/STM32Cube/Repository/STM32Cube_FW_F4_V1.26.0/Middlewares/Third_Party/LwIP/src/core/ipv4/icmp.c ****         IF__NETIF_CHECKSUM_ENABLED(inp, NETIF_CHECKSUM_GEN_IP) {
 239:/Users/nhantt/STM32Cube/Repository/STM32Cube_FW_F4_V1.26.0/Middlewares/Third_Party/LwIP/src/core/ipv4/icmp.c ****           IPH_CHKSUM_SET(iphdr, inet_chksum(iphdr, hlen));
 240:/Users/nhantt/STM32Cube/Repository/STM32Cube_FW_F4_V1.26.0/Middlewares/Third_Party/LwIP/src/core/ipv4/icmp.c ****         }
 241:/Users/nhantt/STM32Cube/Repository/STM32Cube_FW_F4_V1.26.0/Middlewares/Third_Party/LwIP/src/core/ipv4/icmp.c **** #endif /* CHECKSUM_GEN_IP */
 242:/Users/nhantt/STM32Cube/Repository/STM32Cube_FW_F4_V1.26.0/Middlewares/Third_Party/LwIP/src/core/ipv4/icmp.c **** 
 243:/Users/nhantt/STM32Cube/Repository/STM32Cube_FW_F4_V1.26.0/Middlewares/Third_Party/LwIP/src/core/ipv4/icmp.c ****         ICMP_STATS_INC(icmp.xmit);
 244:/Users/nhantt/STM32Cube/Repository/STM32Cube_FW_F4_V1.26.0/Middlewares/Third_Party/LwIP/src/core/ipv4/icmp.c ****         /* increase number of messages attempted to send */
 245:/Users/nhantt/STM32Cube/Repository/STM32Cube_FW_F4_V1.26.0/Middlewares/Third_Party/LwIP/src/core/ipv4/icmp.c ****         MIB2_STATS_INC(mib2.icmpoutmsgs);
 246:/Users/nhantt/STM32Cube/Repository/STM32Cube_FW_F4_V1.26.0/Middlewares/Third_Party/LwIP/src/core/ipv4/icmp.c ****         /* increase number of echo replies attempted to send */
 247:/Users/nhantt/STM32Cube/Repository/STM32Cube_FW_F4_V1.26.0/Middlewares/Third_Party/LwIP/src/core/ipv4/icmp.c ****         MIB2_STATS_INC(mib2.icmpoutechoreps);
 248:/Users/nhantt/STM32Cube/Repository/STM32Cube_FW_F4_V1.26.0/Middlewares/Third_Party/LwIP/src/core/ipv4/icmp.c **** 
 249:/Users/nhantt/STM32Cube/Repository/STM32Cube_FW_F4_V1.26.0/Middlewares/Third_Party/LwIP/src/core/ipv4/icmp.c ****         /* send an ICMP packet */
 250:/Users/nhantt/STM32Cube/Repository/STM32Cube_FW_F4_V1.26.0/Middlewares/Third_Party/LwIP/src/core/ipv4/icmp.c ****         ret = ip4_output_if(p, src, LWIP_IP_HDRINCL,
 251:/Users/nhantt/STM32Cube/Repository/STM32Cube_FW_F4_V1.26.0/Middlewares/Third_Party/LwIP/src/core/ipv4/icmp.c ****                             ICMP_TTL, 0, IP_PROTO_ICMP, inp);
 252:/Users/nhantt/STM32Cube/Repository/STM32Cube_FW_F4_V1.26.0/Middlewares/Third_Party/LwIP/src/core/ipv4/icmp.c ****         if (ret != ERR_OK) {
 253:/Users/nhantt/STM32Cube/Repository/STM32Cube_FW_F4_V1.26.0/Middlewares/Third_Party/LwIP/src/core/ipv4/icmp.c ****           LWIP_DEBUGF(ICMP_DEBUG, ("icmp_input: ip_output_if returned an error: %s\n", lwip_strerr(
 254:/Users/nhantt/STM32Cube/Repository/STM32Cube_FW_F4_V1.26.0/Middlewares/Third_Party/LwIP/src/core/ipv4/icmp.c ****         }
 255:/Users/nhantt/STM32Cube/Repository/STM32Cube_FW_F4_V1.26.0/Middlewares/Third_Party/LwIP/src/core/ipv4/icmp.c ****       }
 256:/Users/nhantt/STM32Cube/Repository/STM32Cube_FW_F4_V1.26.0/Middlewares/Third_Party/LwIP/src/core/ipv4/icmp.c ****       break;
 257:/Users/nhantt/STM32Cube/Repository/STM32Cube_FW_F4_V1.26.0/Middlewares/Third_Party/LwIP/src/core/ipv4/icmp.c ****     default:
 258:/Users/nhantt/STM32Cube/Repository/STM32Cube_FW_F4_V1.26.0/Middlewares/Third_Party/LwIP/src/core/ipv4/icmp.c ****       if (type == ICMP_DUR) {
 259:/Users/nhantt/STM32Cube/Repository/STM32Cube_FW_F4_V1.26.0/Middlewares/Third_Party/LwIP/src/core/ipv4/icmp.c ****         MIB2_STATS_INC(mib2.icmpindestunreachs);
 260:/Users/nhantt/STM32Cube/Repository/STM32Cube_FW_F4_V1.26.0/Middlewares/Third_Party/LwIP/src/core/ipv4/icmp.c ****       } else if (type == ICMP_TE) {
 261:/Users/nhantt/STM32Cube/Repository/STM32Cube_FW_F4_V1.26.0/Middlewares/Third_Party/LwIP/src/core/ipv4/icmp.c ****         MIB2_STATS_INC(mib2.icmpintimeexcds);
 262:/Users/nhantt/STM32Cube/Repository/STM32Cube_FW_F4_V1.26.0/Middlewares/Third_Party/LwIP/src/core/ipv4/icmp.c ****       } else if (type == ICMP_PP) {
 263:/Users/nhantt/STM32Cube/Repository/STM32Cube_FW_F4_V1.26.0/Middlewares/Third_Party/LwIP/src/core/ipv4/icmp.c ****         MIB2_STATS_INC(mib2.icmpinparmprobs);
 264:/Users/nhantt/STM32Cube/Repository/STM32Cube_FW_F4_V1.26.0/Middlewares/Third_Party/LwIP/src/core/ipv4/icmp.c ****       } else if (type == ICMP_SQ) {
 265:/Users/nhantt/STM32Cube/Repository/STM32Cube_FW_F4_V1.26.0/Middlewares/Third_Party/LwIP/src/core/ipv4/icmp.c ****         MIB2_STATS_INC(mib2.icmpinsrcquenchs);
 266:/Users/nhantt/STM32Cube/Repository/STM32Cube_FW_F4_V1.26.0/Middlewares/Third_Party/LwIP/src/core/ipv4/icmp.c ****       } else if (type == ICMP_RD) {
 267:/Users/nhantt/STM32Cube/Repository/STM32Cube_FW_F4_V1.26.0/Middlewares/Third_Party/LwIP/src/core/ipv4/icmp.c ****         MIB2_STATS_INC(mib2.icmpinredirects);
 268:/Users/nhantt/STM32Cube/Repository/STM32Cube_FW_F4_V1.26.0/Middlewares/Third_Party/LwIP/src/core/ipv4/icmp.c ****       } else if (type == ICMP_TS) {
 269:/Users/nhantt/STM32Cube/Repository/STM32Cube_FW_F4_V1.26.0/Middlewares/Third_Party/LwIP/src/core/ipv4/icmp.c ****         MIB2_STATS_INC(mib2.icmpintimestamps);
 270:/Users/nhantt/STM32Cube/Repository/STM32Cube_FW_F4_V1.26.0/Middlewares/Third_Party/LwIP/src/core/ipv4/icmp.c ****       } else if (type == ICMP_TSR) {
 271:/Users/nhantt/STM32Cube/Repository/STM32Cube_FW_F4_V1.26.0/Middlewares/Third_Party/LwIP/src/core/ipv4/icmp.c ****         MIB2_STATS_INC(mib2.icmpintimestampreps);
 272:/Users/nhantt/STM32Cube/Repository/STM32Cube_FW_F4_V1.26.0/Middlewares/Third_Party/LwIP/src/core/ipv4/icmp.c ****       } else if (type == ICMP_AM) {
 273:/Users/nhantt/STM32Cube/Repository/STM32Cube_FW_F4_V1.26.0/Middlewares/Third_Party/LwIP/src/core/ipv4/icmp.c ****         MIB2_STATS_INC(mib2.icmpinaddrmasks);
 274:/Users/nhantt/STM32Cube/Repository/STM32Cube_FW_F4_V1.26.0/Middlewares/Third_Party/LwIP/src/core/ipv4/icmp.c ****       } else if (type == ICMP_AMR) {
 275:/Users/nhantt/STM32Cube/Repository/STM32Cube_FW_F4_V1.26.0/Middlewares/Third_Party/LwIP/src/core/ipv4/icmp.c ****         MIB2_STATS_INC(mib2.icmpinaddrmaskreps);
 276:/Users/nhantt/STM32Cube/Repository/STM32Cube_FW_F4_V1.26.0/Middlewares/Third_Party/LwIP/src/core/ipv4/icmp.c ****       }
 277:/Users/nhantt/STM32Cube/Repository/STM32Cube_FW_F4_V1.26.0/Middlewares/Third_Party/LwIP/src/core/ipv4/icmp.c ****       LWIP_DEBUGF(ICMP_DEBUG, ("icmp_input: ICMP type %"S16_F" code %"S16_F" not supported.\n",
 278:/Users/nhantt/STM32Cube/Repository/STM32Cube_FW_F4_V1.26.0/Middlewares/Third_Party/LwIP/src/core/ipv4/icmp.c ****                                (s16_t)type, (s16_t)code));
 279:/Users/nhantt/STM32Cube/Repository/STM32Cube_FW_F4_V1.26.0/Middlewares/Third_Party/LwIP/src/core/ipv4/icmp.c ****       ICMP_STATS_INC(icmp.proterr);
 280:/Users/nhantt/STM32Cube/Repository/STM32Cube_FW_F4_V1.26.0/Middlewares/Third_Party/LwIP/src/core/ipv4/icmp.c ****       ICMP_STATS_INC(icmp.drop);
 281:/Users/nhantt/STM32Cube/Repository/STM32Cube_FW_F4_V1.26.0/Middlewares/Third_Party/LwIP/src/core/ipv4/icmp.c ****   }
 282:/Users/nhantt/STM32Cube/Repository/STM32Cube_FW_F4_V1.26.0/Middlewares/Third_Party/LwIP/src/core/ipv4/icmp.c ****   pbuf_free(p);
 283:/Users/nhantt/STM32Cube/Repository/STM32Cube_FW_F4_V1.26.0/Middlewares/Third_Party/LwIP/src/core/ipv4/icmp.c ****   return;
 284:/Users/nhantt/STM32Cube/Repository/STM32Cube_FW_F4_V1.26.0/Middlewares/Third_Party/LwIP/src/core/ipv4/icmp.c **** lenerr:
 285:/Users/nhantt/STM32Cube/Repository/STM32Cube_FW_F4_V1.26.0/Middlewares/Third_Party/LwIP/src/core/ipv4/icmp.c ****   pbuf_free(p);
 286:/Users/nhantt/STM32Cube/Repository/STM32Cube_FW_F4_V1.26.0/Middlewares/Third_Party/LwIP/src/core/ipv4/icmp.c ****   ICMP_STATS_INC(icmp.lenerr);
ARM GAS  /var/folders/k2/cd9bl_j17z77g23y6ffqb_400000gn/T//ccdkNnUQ.s 			page 7


 287:/Users/nhantt/STM32Cube/Repository/STM32Cube_FW_F4_V1.26.0/Middlewares/Third_Party/LwIP/src/core/ipv4/icmp.c ****   MIB2_STATS_INC(mib2.icmpinerrors);
 288:/Users/nhantt/STM32Cube/Repository/STM32Cube_FW_F4_V1.26.0/Middlewares/Third_Party/LwIP/src/core/ipv4/icmp.c ****   return;
 289:/Users/nhantt/STM32Cube/Repository/STM32Cube_FW_F4_V1.26.0/Middlewares/Third_Party/LwIP/src/core/ipv4/icmp.c **** #if LWIP_ICMP_ECHO_CHECK_INPUT_PBUF_LEN || !LWIP_MULTICAST_PING || !LWIP_BROADCAST_PING
 290:/Users/nhantt/STM32Cube/Repository/STM32Cube_FW_F4_V1.26.0/Middlewares/Third_Party/LwIP/src/core/ipv4/icmp.c **** icmperr:
 291:/Users/nhantt/STM32Cube/Repository/STM32Cube_FW_F4_V1.26.0/Middlewares/Third_Party/LwIP/src/core/ipv4/icmp.c ****   pbuf_free(p);
 292:/Users/nhantt/STM32Cube/Repository/STM32Cube_FW_F4_V1.26.0/Middlewares/Third_Party/LwIP/src/core/ipv4/icmp.c ****   ICMP_STATS_INC(icmp.err);
 293:/Users/nhantt/STM32Cube/Repository/STM32Cube_FW_F4_V1.26.0/Middlewares/Third_Party/LwIP/src/core/ipv4/icmp.c ****   MIB2_STATS_INC(mib2.icmpinerrors);
 294:/Users/nhantt/STM32Cube/Repository/STM32Cube_FW_F4_V1.26.0/Middlewares/Third_Party/LwIP/src/core/ipv4/icmp.c ****   return;
 295:/Users/nhantt/STM32Cube/Repository/STM32Cube_FW_F4_V1.26.0/Middlewares/Third_Party/LwIP/src/core/ipv4/icmp.c **** #endif /* LWIP_ICMP_ECHO_CHECK_INPUT_PBUF_LEN || !LWIP_MULTICAST_PING || !LWIP_BROADCAST_PING */
 296:/Users/nhantt/STM32Cube/Repository/STM32Cube_FW_F4_V1.26.0/Middlewares/Third_Party/LwIP/src/core/ipv4/icmp.c **** }
 297:/Users/nhantt/STM32Cube/Repository/STM32Cube_FW_F4_V1.26.0/Middlewares/Third_Party/LwIP/src/core/ipv4/icmp.c **** 
 298:/Users/nhantt/STM32Cube/Repository/STM32Cube_FW_F4_V1.26.0/Middlewares/Third_Party/LwIP/src/core/ipv4/icmp.c **** /**
 299:/Users/nhantt/STM32Cube/Repository/STM32Cube_FW_F4_V1.26.0/Middlewares/Third_Party/LwIP/src/core/ipv4/icmp.c ****  * Send an icmp 'destination unreachable' packet, called from ip_input() if
 300:/Users/nhantt/STM32Cube/Repository/STM32Cube_FW_F4_V1.26.0/Middlewares/Third_Party/LwIP/src/core/ipv4/icmp.c ****  * the transport layer protocol is unknown and from udp_input() if the local
 301:/Users/nhantt/STM32Cube/Repository/STM32Cube_FW_F4_V1.26.0/Middlewares/Third_Party/LwIP/src/core/ipv4/icmp.c ****  * port is not bound.
 302:/Users/nhantt/STM32Cube/Repository/STM32Cube_FW_F4_V1.26.0/Middlewares/Third_Party/LwIP/src/core/ipv4/icmp.c ****  *
 303:/Users/nhantt/STM32Cube/Repository/STM32Cube_FW_F4_V1.26.0/Middlewares/Third_Party/LwIP/src/core/ipv4/icmp.c ****  * @param p the input packet for which the 'unreachable' should be sent,
 304:/Users/nhantt/STM32Cube/Repository/STM32Cube_FW_F4_V1.26.0/Middlewares/Third_Party/LwIP/src/core/ipv4/icmp.c ****  *          p->payload pointing to the IP header
 305:/Users/nhantt/STM32Cube/Repository/STM32Cube_FW_F4_V1.26.0/Middlewares/Third_Party/LwIP/src/core/ipv4/icmp.c ****  * @param t type of the 'unreachable' packet
 306:/Users/nhantt/STM32Cube/Repository/STM32Cube_FW_F4_V1.26.0/Middlewares/Third_Party/LwIP/src/core/ipv4/icmp.c ****  */
 307:/Users/nhantt/STM32Cube/Repository/STM32Cube_FW_F4_V1.26.0/Middlewares/Third_Party/LwIP/src/core/ipv4/icmp.c **** void
 308:/Users/nhantt/STM32Cube/Repository/STM32Cube_FW_F4_V1.26.0/Middlewares/Third_Party/LwIP/src/core/ipv4/icmp.c **** icmp_dest_unreach(struct pbuf *p, enum icmp_dur_type t)
 309:/Users/nhantt/STM32Cube/Repository/STM32Cube_FW_F4_V1.26.0/Middlewares/Third_Party/LwIP/src/core/ipv4/icmp.c **** {
 310:/Users/nhantt/STM32Cube/Repository/STM32Cube_FW_F4_V1.26.0/Middlewares/Third_Party/LwIP/src/core/ipv4/icmp.c ****   MIB2_STATS_INC(mib2.icmpoutdestunreachs);
 311:/Users/nhantt/STM32Cube/Repository/STM32Cube_FW_F4_V1.26.0/Middlewares/Third_Party/LwIP/src/core/ipv4/icmp.c ****   icmp_send_response(p, ICMP_DUR, t);
 312:/Users/nhantt/STM32Cube/Repository/STM32Cube_FW_F4_V1.26.0/Middlewares/Third_Party/LwIP/src/core/ipv4/icmp.c **** }
 313:/Users/nhantt/STM32Cube/Repository/STM32Cube_FW_F4_V1.26.0/Middlewares/Third_Party/LwIP/src/core/ipv4/icmp.c **** 
 314:/Users/nhantt/STM32Cube/Repository/STM32Cube_FW_F4_V1.26.0/Middlewares/Third_Party/LwIP/src/core/ipv4/icmp.c **** #if IP_FORWARD || IP_REASSEMBLY
 315:/Users/nhantt/STM32Cube/Repository/STM32Cube_FW_F4_V1.26.0/Middlewares/Third_Party/LwIP/src/core/ipv4/icmp.c **** /**
 316:/Users/nhantt/STM32Cube/Repository/STM32Cube_FW_F4_V1.26.0/Middlewares/Third_Party/LwIP/src/core/ipv4/icmp.c ****  * Send a 'time exceeded' packet, called from ip_forward() if TTL is 0.
 317:/Users/nhantt/STM32Cube/Repository/STM32Cube_FW_F4_V1.26.0/Middlewares/Third_Party/LwIP/src/core/ipv4/icmp.c ****  *
 318:/Users/nhantt/STM32Cube/Repository/STM32Cube_FW_F4_V1.26.0/Middlewares/Third_Party/LwIP/src/core/ipv4/icmp.c ****  * @param p the input packet for which the 'time exceeded' should be sent,
 319:/Users/nhantt/STM32Cube/Repository/STM32Cube_FW_F4_V1.26.0/Middlewares/Third_Party/LwIP/src/core/ipv4/icmp.c ****  *          p->payload pointing to the IP header
 320:/Users/nhantt/STM32Cube/Repository/STM32Cube_FW_F4_V1.26.0/Middlewares/Third_Party/LwIP/src/core/ipv4/icmp.c ****  * @param t type of the 'time exceeded' packet
 321:/Users/nhantt/STM32Cube/Repository/STM32Cube_FW_F4_V1.26.0/Middlewares/Third_Party/LwIP/src/core/ipv4/icmp.c ****  */
 322:/Users/nhantt/STM32Cube/Repository/STM32Cube_FW_F4_V1.26.0/Middlewares/Third_Party/LwIP/src/core/ipv4/icmp.c **** void
 323:/Users/nhantt/STM32Cube/Repository/STM32Cube_FW_F4_V1.26.0/Middlewares/Third_Party/LwIP/src/core/ipv4/icmp.c **** icmp_time_exceeded(struct pbuf *p, enum icmp_te_type t)
 324:/Users/nhantt/STM32Cube/Repository/STM32Cube_FW_F4_V1.26.0/Middlewares/Third_Party/LwIP/src/core/ipv4/icmp.c **** {
 325:/Users/nhantt/STM32Cube/Repository/STM32Cube_FW_F4_V1.26.0/Middlewares/Third_Party/LwIP/src/core/ipv4/icmp.c ****   MIB2_STATS_INC(mib2.icmpouttimeexcds);
 326:/Users/nhantt/STM32Cube/Repository/STM32Cube_FW_F4_V1.26.0/Middlewares/Third_Party/LwIP/src/core/ipv4/icmp.c ****   icmp_send_response(p, ICMP_TE, t);
 327:/Users/nhantt/STM32Cube/Repository/STM32Cube_FW_F4_V1.26.0/Middlewares/Third_Party/LwIP/src/core/ipv4/icmp.c **** }
 328:/Users/nhantt/STM32Cube/Repository/STM32Cube_FW_F4_V1.26.0/Middlewares/Third_Party/LwIP/src/core/ipv4/icmp.c **** 
 329:/Users/nhantt/STM32Cube/Repository/STM32Cube_FW_F4_V1.26.0/Middlewares/Third_Party/LwIP/src/core/ipv4/icmp.c **** #endif /* IP_FORWARD || IP_REASSEMBLY */
 330:/Users/nhantt/STM32Cube/Repository/STM32Cube_FW_F4_V1.26.0/Middlewares/Third_Party/LwIP/src/core/ipv4/icmp.c **** 
 331:/Users/nhantt/STM32Cube/Repository/STM32Cube_FW_F4_V1.26.0/Middlewares/Third_Party/LwIP/src/core/ipv4/icmp.c **** /**
 332:/Users/nhantt/STM32Cube/Repository/STM32Cube_FW_F4_V1.26.0/Middlewares/Third_Party/LwIP/src/core/ipv4/icmp.c ****  * Send an icmp packet in response to an incoming packet.
 333:/Users/nhantt/STM32Cube/Repository/STM32Cube_FW_F4_V1.26.0/Middlewares/Third_Party/LwIP/src/core/ipv4/icmp.c ****  *
 334:/Users/nhantt/STM32Cube/Repository/STM32Cube_FW_F4_V1.26.0/Middlewares/Third_Party/LwIP/src/core/ipv4/icmp.c ****  * @param p the input packet for which the 'unreachable' should be sent,
 335:/Users/nhantt/STM32Cube/Repository/STM32Cube_FW_F4_V1.26.0/Middlewares/Third_Party/LwIP/src/core/ipv4/icmp.c ****  *          p->payload pointing to the IP header
 336:/Users/nhantt/STM32Cube/Repository/STM32Cube_FW_F4_V1.26.0/Middlewares/Third_Party/LwIP/src/core/ipv4/icmp.c ****  * @param type Type of the ICMP header
 337:/Users/nhantt/STM32Cube/Repository/STM32Cube_FW_F4_V1.26.0/Middlewares/Third_Party/LwIP/src/core/ipv4/icmp.c ****  * @param code Code of the ICMP header
 338:/Users/nhantt/STM32Cube/Repository/STM32Cube_FW_F4_V1.26.0/Middlewares/Third_Party/LwIP/src/core/ipv4/icmp.c ****  */
 339:/Users/nhantt/STM32Cube/Repository/STM32Cube_FW_F4_V1.26.0/Middlewares/Third_Party/LwIP/src/core/ipv4/icmp.c **** static void
 340:/Users/nhantt/STM32Cube/Repository/STM32Cube_FW_F4_V1.26.0/Middlewares/Third_Party/LwIP/src/core/ipv4/icmp.c **** icmp_send_response(struct pbuf *p, u8_t type, u8_t code)
 341:/Users/nhantt/STM32Cube/Repository/STM32Cube_FW_F4_V1.26.0/Middlewares/Third_Party/LwIP/src/core/ipv4/icmp.c **** {
  41              		.loc 1 341 1 view -0
  42              		.cfi_startproc
ARM GAS  /var/folders/k2/cd9bl_j17z77g23y6ffqb_400000gn/T//ccdkNnUQ.s 			page 8


  43              		@ args = 0, pretend = 0, frame = 8
  44              		@ frame_needed = 0, uses_anonymous_args = 0
  45              		.loc 1 341 1 is_stmt 0 view .LVU1
  46 0000 2DE9F041 		push	{r4, r5, r6, r7, r8, lr}
  47              	.LCFI0:
  48              		.cfi_def_cfa_offset 24
  49              		.cfi_offset 4, -24
  50              		.cfi_offset 5, -20
  51              		.cfi_offset 6, -16
  52              		.cfi_offset 7, -12
  53              		.cfi_offset 8, -8
  54              		.cfi_offset 14, -4
  55 0004 86B0     		sub	sp, sp, #24
  56              	.LCFI1:
  57              		.cfi_def_cfa_offset 48
  58 0006 0646     		mov	r6, r0
  59 0008 8846     		mov	r8, r1
  60 000a 1746     		mov	r7, r2
 342:/Users/nhantt/STM32Cube/Repository/STM32Cube_FW_F4_V1.26.0/Middlewares/Third_Party/LwIP/src/core/ipv4/icmp.c ****   struct pbuf *q;
  61              		.loc 1 342 3 is_stmt 1 view .LVU2
 343:/Users/nhantt/STM32Cube/Repository/STM32Cube_FW_F4_V1.26.0/Middlewares/Third_Party/LwIP/src/core/ipv4/icmp.c ****   struct ip_hdr *iphdr;
  62              		.loc 1 343 3 view .LVU3
 344:/Users/nhantt/STM32Cube/Repository/STM32Cube_FW_F4_V1.26.0/Middlewares/Third_Party/LwIP/src/core/ipv4/icmp.c ****   /* we can use the echo header here */
 345:/Users/nhantt/STM32Cube/Repository/STM32Cube_FW_F4_V1.26.0/Middlewares/Third_Party/LwIP/src/core/ipv4/icmp.c ****   struct icmp_echo_hdr *icmphdr;
  63              		.loc 1 345 3 view .LVU4
 346:/Users/nhantt/STM32Cube/Repository/STM32Cube_FW_F4_V1.26.0/Middlewares/Third_Party/LwIP/src/core/ipv4/icmp.c ****   ip4_addr_t iphdr_src;
  64              		.loc 1 346 3 view .LVU5
 347:/Users/nhantt/STM32Cube/Repository/STM32Cube_FW_F4_V1.26.0/Middlewares/Third_Party/LwIP/src/core/ipv4/icmp.c ****   struct netif *netif;
  65              		.loc 1 347 3 view .LVU6
 348:/Users/nhantt/STM32Cube/Repository/STM32Cube_FW_F4_V1.26.0/Middlewares/Third_Party/LwIP/src/core/ipv4/icmp.c **** 
 349:/Users/nhantt/STM32Cube/Repository/STM32Cube_FW_F4_V1.26.0/Middlewares/Third_Party/LwIP/src/core/ipv4/icmp.c ****   /* increase number of messages attempted to send */
 350:/Users/nhantt/STM32Cube/Repository/STM32Cube_FW_F4_V1.26.0/Middlewares/Third_Party/LwIP/src/core/ipv4/icmp.c ****   MIB2_STATS_INC(mib2.icmpoutmsgs);
  66              		.loc 1 350 35 view .LVU7
 351:/Users/nhantt/STM32Cube/Repository/STM32Cube_FW_F4_V1.26.0/Middlewares/Third_Party/LwIP/src/core/ipv4/icmp.c **** 
 352:/Users/nhantt/STM32Cube/Repository/STM32Cube_FW_F4_V1.26.0/Middlewares/Third_Party/LwIP/src/core/ipv4/icmp.c ****   /* ICMP header + IP header + 8 bytes of data */
 353:/Users/nhantt/STM32Cube/Repository/STM32Cube_FW_F4_V1.26.0/Middlewares/Third_Party/LwIP/src/core/ipv4/icmp.c ****   q = pbuf_alloc(PBUF_IP, sizeof(struct icmp_echo_hdr) + IP_HLEN + ICMP_DEST_UNREACH_DATASIZE,
  67              		.loc 1 353 3 view .LVU8
  68              		.loc 1 353 7 is_stmt 0 view .LVU9
  69 000c 4FF42072 		mov	r2, #640
  70              	.LVL1:
  71              		.loc 1 353 7 view .LVU10
  72 0010 2421     		movs	r1, #36
  73              	.LVL2:
  74              		.loc 1 353 7 view .LVU11
  75 0012 2220     		movs	r0, #34
  76              	.LVL3:
  77              		.loc 1 353 7 view .LVU12
  78 0014 FFF7FEFF 		bl	pbuf_alloc
  79              	.LVL4:
 354:/Users/nhantt/STM32Cube/Repository/STM32Cube_FW_F4_V1.26.0/Middlewares/Third_Party/LwIP/src/core/ipv4/icmp.c ****                  PBUF_RAM);
 355:/Users/nhantt/STM32Cube/Repository/STM32Cube_FW_F4_V1.26.0/Middlewares/Third_Party/LwIP/src/core/ipv4/icmp.c ****   if (q == NULL) {
  80              		.loc 1 355 3 is_stmt 1 view .LVU13
  81              		.loc 1 355 6 is_stmt 0 view .LVU14
  82 0018 A0B3     		cbz	r0, .L1
  83 001a 0546     		mov	r5, r0
 356:/Users/nhantt/STM32Cube/Repository/STM32Cube_FW_F4_V1.26.0/Middlewares/Third_Party/LwIP/src/core/ipv4/icmp.c ****     LWIP_DEBUGF(ICMP_DEBUG, ("icmp_time_exceeded: failed to allocate pbuf for ICMP packet.\n"));
 357:/Users/nhantt/STM32Cube/Repository/STM32Cube_FW_F4_V1.26.0/Middlewares/Third_Party/LwIP/src/core/ipv4/icmp.c ****     MIB2_STATS_INC(mib2.icmpouterrors);
ARM GAS  /var/folders/k2/cd9bl_j17z77g23y6ffqb_400000gn/T//ccdkNnUQ.s 			page 9


 358:/Users/nhantt/STM32Cube/Repository/STM32Cube_FW_F4_V1.26.0/Middlewares/Third_Party/LwIP/src/core/ipv4/icmp.c ****     return;
 359:/Users/nhantt/STM32Cube/Repository/STM32Cube_FW_F4_V1.26.0/Middlewares/Third_Party/LwIP/src/core/ipv4/icmp.c ****   }
 360:/Users/nhantt/STM32Cube/Repository/STM32Cube_FW_F4_V1.26.0/Middlewares/Third_Party/LwIP/src/core/ipv4/icmp.c ****   LWIP_ASSERT("check that first pbuf can hold icmp message",
  84              		.loc 1 360 3 is_stmt 1 view .LVU15
  85              		.loc 1 360 3 view .LVU16
  86 001c 4389     		ldrh	r3, [r0, #10]
  87 001e 232B     		cmp	r3, #35
  88 0020 33D9     		bls	.L7
  89              	.LVL5:
  90              	.L4:
  91              		.loc 1 360 3 discriminator 3 view .LVU17
  92              		.loc 1 360 3 discriminator 3 view .LVU18
 361:/Users/nhantt/STM32Cube/Repository/STM32Cube_FW_F4_V1.26.0/Middlewares/Third_Party/LwIP/src/core/ipv4/icmp.c ****               (q->len >= (sizeof(struct icmp_echo_hdr) + IP_HLEN + ICMP_DEST_UNREACH_DATASIZE)));
 362:/Users/nhantt/STM32Cube/Repository/STM32Cube_FW_F4_V1.26.0/Middlewares/Third_Party/LwIP/src/core/ipv4/icmp.c **** 
 363:/Users/nhantt/STM32Cube/Repository/STM32Cube_FW_F4_V1.26.0/Middlewares/Third_Party/LwIP/src/core/ipv4/icmp.c ****   iphdr = (struct ip_hdr *)p->payload;
  93              		.loc 1 363 3 discriminator 3 view .LVU19
  94              		.loc 1 363 9 is_stmt 0 discriminator 3 view .LVU20
  95 0022 D6F804C0 		ldr	ip, [r6, #4]
  96              	.LVL6:
 364:/Users/nhantt/STM32Cube/Repository/STM32Cube_FW_F4_V1.26.0/Middlewares/Third_Party/LwIP/src/core/ipv4/icmp.c ****   LWIP_DEBUGF(ICMP_DEBUG, ("icmp_time_exceeded from "));
  97              		.loc 1 364 56 is_stmt 1 discriminator 3 view .LVU21
 365:/Users/nhantt/STM32Cube/Repository/STM32Cube_FW_F4_V1.26.0/Middlewares/Third_Party/LwIP/src/core/ipv4/icmp.c ****   ip4_addr_debug_print_val(ICMP_DEBUG, iphdr->src);
  98              		.loc 1 365 51 discriminator 3 view .LVU22
 366:/Users/nhantt/STM32Cube/Repository/STM32Cube_FW_F4_V1.26.0/Middlewares/Third_Party/LwIP/src/core/ipv4/icmp.c ****   LWIP_DEBUGF(ICMP_DEBUG, (" to "));
  99              		.loc 1 366 36 discriminator 3 view .LVU23
 367:/Users/nhantt/STM32Cube/Repository/STM32Cube_FW_F4_V1.26.0/Middlewares/Third_Party/LwIP/src/core/ipv4/icmp.c ****   ip4_addr_debug_print_val(ICMP_DEBUG, iphdr->dest);
 100              		.loc 1 367 52 discriminator 3 view .LVU24
 368:/Users/nhantt/STM32Cube/Repository/STM32Cube_FW_F4_V1.26.0/Middlewares/Third_Party/LwIP/src/core/ipv4/icmp.c ****   LWIP_DEBUGF(ICMP_DEBUG, ("\n"));
 101              		.loc 1 368 34 discriminator 3 view .LVU25
 369:/Users/nhantt/STM32Cube/Repository/STM32Cube_FW_F4_V1.26.0/Middlewares/Third_Party/LwIP/src/core/ipv4/icmp.c **** 
 370:/Users/nhantt/STM32Cube/Repository/STM32Cube_FW_F4_V1.26.0/Middlewares/Third_Party/LwIP/src/core/ipv4/icmp.c ****   icmphdr = (struct icmp_echo_hdr *)q->payload;
 102              		.loc 1 370 3 discriminator 3 view .LVU26
 103              		.loc 1 370 11 is_stmt 0 discriminator 3 view .LVU27
 104 0026 6C68     		ldr	r4, [r5, #4]
 105              	.LVL7:
 371:/Users/nhantt/STM32Cube/Repository/STM32Cube_FW_F4_V1.26.0/Middlewares/Third_Party/LwIP/src/core/ipv4/icmp.c ****   icmphdr->type = type;
 106              		.loc 1 371 3 is_stmt 1 discriminator 3 view .LVU28
 107              		.loc 1 371 17 is_stmt 0 discriminator 3 view .LVU29
 108 0028 84F80080 		strb	r8, [r4]
 372:/Users/nhantt/STM32Cube/Repository/STM32Cube_FW_F4_V1.26.0/Middlewares/Third_Party/LwIP/src/core/ipv4/icmp.c ****   icmphdr->code = code;
 109              		.loc 1 372 3 is_stmt 1 discriminator 3 view .LVU30
 110              		.loc 1 372 17 is_stmt 0 discriminator 3 view .LVU31
 111 002c 6770     		strb	r7, [r4, #1]
 373:/Users/nhantt/STM32Cube/Repository/STM32Cube_FW_F4_V1.26.0/Middlewares/Third_Party/LwIP/src/core/ipv4/icmp.c ****   icmphdr->id = 0;
 112              		.loc 1 373 3 is_stmt 1 discriminator 3 view .LVU32
 113              		.loc 1 373 15 is_stmt 0 discriminator 3 view .LVU33
 114 002e 0023     		movs	r3, #0
 115 0030 2371     		strb	r3, [r4, #4]
 116 0032 6371     		strb	r3, [r4, #5]
 374:/Users/nhantt/STM32Cube/Repository/STM32Cube_FW_F4_V1.26.0/Middlewares/Third_Party/LwIP/src/core/ipv4/icmp.c ****   icmphdr->seqno = 0;
 117              		.loc 1 374 3 is_stmt 1 discriminator 3 view .LVU34
 118              		.loc 1 374 18 is_stmt 0 discriminator 3 view .LVU35
 119 0034 A371     		strb	r3, [r4, #6]
 120 0036 E371     		strb	r3, [r4, #7]
 375:/Users/nhantt/STM32Cube/Repository/STM32Cube_FW_F4_V1.26.0/Middlewares/Third_Party/LwIP/src/core/ipv4/icmp.c **** 
 376:/Users/nhantt/STM32Cube/Repository/STM32Cube_FW_F4_V1.26.0/Middlewares/Third_Party/LwIP/src/core/ipv4/icmp.c ****   /* copy fields from original packet */
 377:/Users/nhantt/STM32Cube/Repository/STM32Cube_FW_F4_V1.26.0/Middlewares/Third_Party/LwIP/src/core/ipv4/icmp.c ****   SMEMCPY((u8_t *)q->payload + sizeof(struct icmp_echo_hdr), (u8_t *)p->payload,
ARM GAS  /var/folders/k2/cd9bl_j17z77g23y6ffqb_400000gn/T//ccdkNnUQ.s 			page 10


 121              		.loc 1 377 3 is_stmt 1 discriminator 3 view .LVU36
 122 0038 6B68     		ldr	r3, [r5, #4]
 123 003a 7268     		ldr	r2, [r6, #4]
 124 003c 1668     		ldr	r6, [r2]	@ unaligned
 125              	.LVL8:
 126              		.loc 1 377 3 is_stmt 0 discriminator 3 view .LVU37
 127 003e 5068     		ldr	r0, [r2, #4]	@ unaligned
 128 0040 9168     		ldr	r1, [r2, #8]	@ unaligned
 129 0042 D768     		ldr	r7, [r2, #12]	@ unaligned
 130 0044 9E60     		str	r6, [r3, #8]	@ unaligned
 131 0046 D860     		str	r0, [r3, #12]	@ unaligned
 132 0048 1961     		str	r1, [r3, #16]	@ unaligned
 133 004a 5F61     		str	r7, [r3, #20]	@ unaligned
 134 004c 1669     		ldr	r6, [r2, #16]	@ unaligned
 135 004e 5069     		ldr	r0, [r2, #20]	@ unaligned
 136 0050 9169     		ldr	r1, [r2, #24]	@ unaligned
 137 0052 9E61     		str	r6, [r3, #24]	@ unaligned
 138 0054 D861     		str	r0, [r3, #28]	@ unaligned
 139 0056 1962     		str	r1, [r3, #32]	@ unaligned
 378:/Users/nhantt/STM32Cube/Repository/STM32Cube_FW_F4_V1.26.0/Middlewares/Third_Party/LwIP/src/core/ipv4/icmp.c ****           IP_HLEN + ICMP_DEST_UNREACH_DATASIZE);
 379:/Users/nhantt/STM32Cube/Repository/STM32Cube_FW_F4_V1.26.0/Middlewares/Third_Party/LwIP/src/core/ipv4/icmp.c **** 
 380:/Users/nhantt/STM32Cube/Repository/STM32Cube_FW_F4_V1.26.0/Middlewares/Third_Party/LwIP/src/core/ipv4/icmp.c ****   ip4_addr_copy(iphdr_src, iphdr->src);
 140              		.loc 1 380 3 is_stmt 1 discriminator 3 view .LVU38
 141 0058 DCF80C30 		ldr	r3, [ip, #12]	@ unaligned
 142 005c 0593     		str	r3, [sp, #20]
 381:/Users/nhantt/STM32Cube/Repository/STM32Cube_FW_F4_V1.26.0/Middlewares/Third_Party/LwIP/src/core/ipv4/icmp.c **** #ifdef LWIP_HOOK_IP4_ROUTE_SRC
 382:/Users/nhantt/STM32Cube/Repository/STM32Cube_FW_F4_V1.26.0/Middlewares/Third_Party/LwIP/src/core/ipv4/icmp.c ****   {
 383:/Users/nhantt/STM32Cube/Repository/STM32Cube_FW_F4_V1.26.0/Middlewares/Third_Party/LwIP/src/core/ipv4/icmp.c ****     ip4_addr_t iphdr_dst;
 384:/Users/nhantt/STM32Cube/Repository/STM32Cube_FW_F4_V1.26.0/Middlewares/Third_Party/LwIP/src/core/ipv4/icmp.c ****     ip4_addr_copy(iphdr_dst, iphdr->dest);
 385:/Users/nhantt/STM32Cube/Repository/STM32Cube_FW_F4_V1.26.0/Middlewares/Third_Party/LwIP/src/core/ipv4/icmp.c ****     netif = ip4_route_src(&iphdr_dst, &iphdr_src);
 386:/Users/nhantt/STM32Cube/Repository/STM32Cube_FW_F4_V1.26.0/Middlewares/Third_Party/LwIP/src/core/ipv4/icmp.c ****   }
 387:/Users/nhantt/STM32Cube/Repository/STM32Cube_FW_F4_V1.26.0/Middlewares/Third_Party/LwIP/src/core/ipv4/icmp.c **** #else
 388:/Users/nhantt/STM32Cube/Repository/STM32Cube_FW_F4_V1.26.0/Middlewares/Third_Party/LwIP/src/core/ipv4/icmp.c ****   netif = ip4_route(&iphdr_src);
 143              		.loc 1 388 3 discriminator 3 view .LVU39
 144              		.loc 1 388 11 is_stmt 0 discriminator 3 view .LVU40
 145 005e 05A8     		add	r0, sp, #20
 146 0060 FFF7FEFF 		bl	ip4_route
 147              	.LVL9:
 389:/Users/nhantt/STM32Cube/Repository/STM32Cube_FW_F4_V1.26.0/Middlewares/Third_Party/LwIP/src/core/ipv4/icmp.c **** #endif
 390:/Users/nhantt/STM32Cube/Repository/STM32Cube_FW_F4_V1.26.0/Middlewares/Third_Party/LwIP/src/core/ipv4/icmp.c ****   if (netif != NULL) {
 148              		.loc 1 390 3 is_stmt 1 discriminator 3 view .LVU41
 149              		.loc 1 390 6 is_stmt 0 discriminator 3 view .LVU42
 150 0064 58B1     		cbz	r0, .L5
 391:/Users/nhantt/STM32Cube/Repository/STM32Cube_FW_F4_V1.26.0/Middlewares/Third_Party/LwIP/src/core/ipv4/icmp.c ****     /* calculate checksum */
 392:/Users/nhantt/STM32Cube/Repository/STM32Cube_FW_F4_V1.26.0/Middlewares/Third_Party/LwIP/src/core/ipv4/icmp.c ****     icmphdr->chksum = 0;
 151              		.loc 1 392 5 is_stmt 1 view .LVU43
 152              		.loc 1 392 21 is_stmt 0 view .LVU44
 153 0066 0021     		movs	r1, #0
 154 0068 A170     		strb	r1, [r4, #2]
 155 006a E170     		strb	r1, [r4, #3]
 393:/Users/nhantt/STM32Cube/Repository/STM32Cube_FW_F4_V1.26.0/Middlewares/Third_Party/LwIP/src/core/ipv4/icmp.c **** #if CHECKSUM_GEN_ICMP
 394:/Users/nhantt/STM32Cube/Repository/STM32Cube_FW_F4_V1.26.0/Middlewares/Third_Party/LwIP/src/core/ipv4/icmp.c ****     IF__NETIF_CHECKSUM_ENABLED(netif, NETIF_CHECKSUM_GEN_ICMP) {
 395:/Users/nhantt/STM32Cube/Repository/STM32Cube_FW_F4_V1.26.0/Middlewares/Third_Party/LwIP/src/core/ipv4/icmp.c ****       icmphdr->chksum = inet_chksum(icmphdr, q->len);
 396:/Users/nhantt/STM32Cube/Repository/STM32Cube_FW_F4_V1.26.0/Middlewares/Third_Party/LwIP/src/core/ipv4/icmp.c ****     }
 397:/Users/nhantt/STM32Cube/Repository/STM32Cube_FW_F4_V1.26.0/Middlewares/Third_Party/LwIP/src/core/ipv4/icmp.c **** #endif
 398:/Users/nhantt/STM32Cube/Repository/STM32Cube_FW_F4_V1.26.0/Middlewares/Third_Party/LwIP/src/core/ipv4/icmp.c ****     ICMP_STATS_INC(icmp.xmit);
 156              		.loc 1 398 30 is_stmt 1 view .LVU45
ARM GAS  /var/folders/k2/cd9bl_j17z77g23y6ffqb_400000gn/T//ccdkNnUQ.s 			page 11


 399:/Users/nhantt/STM32Cube/Repository/STM32Cube_FW_F4_V1.26.0/Middlewares/Third_Party/LwIP/src/core/ipv4/icmp.c ****     ip4_output_if(q, NULL, &iphdr_src, ICMP_TTL, 0, IP_PROTO_ICMP, netif);
 157              		.loc 1 399 5 view .LVU46
 158 006c 0290     		str	r0, [sp, #8]
 159 006e 0123     		movs	r3, #1
 160 0070 0193     		str	r3, [sp, #4]
 161 0072 0091     		str	r1, [sp]
 162 0074 FF23     		movs	r3, #255
 163 0076 05AA     		add	r2, sp, #20
 164 0078 2846     		mov	r0, r5
 165              	.LVL10:
 166              		.loc 1 399 5 is_stmt 0 view .LVU47
 167 007a FFF7FEFF 		bl	ip4_output_if
 168              	.LVL11:
 169              	.L5:
 400:/Users/nhantt/STM32Cube/Repository/STM32Cube_FW_F4_V1.26.0/Middlewares/Third_Party/LwIP/src/core/ipv4/icmp.c ****   }
 401:/Users/nhantt/STM32Cube/Repository/STM32Cube_FW_F4_V1.26.0/Middlewares/Third_Party/LwIP/src/core/ipv4/icmp.c ****   pbuf_free(q);
 170              		.loc 1 401 3 is_stmt 1 view .LVU48
 171 007e 2846     		mov	r0, r5
 172 0080 FFF7FEFF 		bl	pbuf_free
 173              	.LVL12:
 174              	.L1:
 402:/Users/nhantt/STM32Cube/Repository/STM32Cube_FW_F4_V1.26.0/Middlewares/Third_Party/LwIP/src/core/ipv4/icmp.c **** }
 175              		.loc 1 402 1 is_stmt 0 view .LVU49
 176 0084 06B0     		add	sp, sp, #24
 177              	.LCFI2:
 178              		.cfi_remember_state
 179              		.cfi_def_cfa_offset 24
 180              		@ sp needed
 181 0086 BDE8F081 		pop	{r4, r5, r6, r7, r8, pc}
 182              	.LVL13:
 183              	.L7:
 184              	.LCFI3:
 185              		.cfi_restore_state
 360:/Users/nhantt/STM32Cube/Repository/STM32Cube_FW_F4_V1.26.0/Middlewares/Third_Party/LwIP/src/core/ipv4/icmp.c ****               (q->len >= (sizeof(struct icmp_echo_hdr) + IP_HLEN + ICMP_DEST_UNREACH_DATASIZE)));
 186              		.loc 1 360 3 is_stmt 1 discriminator 1 view .LVU50
 360:/Users/nhantt/STM32Cube/Repository/STM32Cube_FW_F4_V1.26.0/Middlewares/Third_Party/LwIP/src/core/ipv4/icmp.c ****               (q->len >= (sizeof(struct icmp_echo_hdr) + IP_HLEN + ICMP_DEST_UNREACH_DATASIZE)));
 187              		.loc 1 360 3 discriminator 1 view .LVU51
 188 008a 044B     		ldr	r3, .L8
 189 008c 4FF4B472 		mov	r2, #360
 190 0090 0349     		ldr	r1, .L8+4
 191 0092 0448     		ldr	r0, .L8+8
 192              	.LVL14:
 360:/Users/nhantt/STM32Cube/Repository/STM32Cube_FW_F4_V1.26.0/Middlewares/Third_Party/LwIP/src/core/ipv4/icmp.c ****               (q->len >= (sizeof(struct icmp_echo_hdr) + IP_HLEN + ICMP_DEST_UNREACH_DATASIZE)));
 193              		.loc 1 360 3 is_stmt 0 discriminator 1 view .LVU52
 194 0094 FFF7FEFF 		bl	printf
 195              	.LVL15:
 196 0098 C3E7     		b	.L4
 197              	.L9:
 198 009a 00BF     		.align	2
 199              	.L8:
 200 009c 00000000 		.word	.LC0
 201 00a0 70000000 		.word	.LC1
 202 00a4 9C000000 		.word	.LC2
 203              		.cfi_endproc
 204              	.LFE158:
 206              		.section	.rodata.icmp_input.str1.4,"aMS",%progbits,1
 207              		.align	2
ARM GAS  /var/folders/k2/cd9bl_j17z77g23y6ffqb_400000gn/T//ccdkNnUQ.s 			page 12


 208              	.LC3:
 209 0000 69636D70 		.ascii	"icmp_input: moving r->payload to icmp header failed"
 209      5F696E70 
 209      75743A20 
 209      6D6F7669 
 209      6E672072 
 210 0033 0A00     		.ascii	"\012\000"
 211 0035 000000   		.align	2
 212              	.LC4:
 213 0038 69636D70 		.ascii	"icmp_input: restoring original p->payload failed\012"
 213      5F696E70 
 213      75743A20 
 213      72657374 
 213      6F72696E 
 214 0069 00       		.ascii	"\000"
 215              		.section	.text.icmp_input,"ax",%progbits
 216              		.align	1
 217              		.global	icmp_input
 218              		.syntax unified
 219              		.thumb
 220              		.thumb_func
 221              		.fpu fpv4-sp-d16
 223              	icmp_input:
 224              	.LVL16:
 225              	.LFB155:
  81:/Users/nhantt/STM32Cube/Repository/STM32Cube_FW_F4_V1.26.0/Middlewares/Third_Party/LwIP/src/core/ipv4/icmp.c ****   u8_t type;
 226              		.loc 1 81 1 is_stmt 1 view -0
 227              		.cfi_startproc
 228              		@ args = 0, pretend = 0, frame = 0
 229              		@ frame_needed = 0, uses_anonymous_args = 0
  81:/Users/nhantt/STM32Cube/Repository/STM32Cube_FW_F4_V1.26.0/Middlewares/Third_Party/LwIP/src/core/ipv4/icmp.c ****   u8_t type;
 230              		.loc 1 81 1 is_stmt 0 view .LVU54
 231 0000 2DE9F043 		push	{r4, r5, r6, r7, r8, r9, lr}
 232              	.LCFI4:
 233              		.cfi_def_cfa_offset 28
 234              		.cfi_offset 4, -28
 235              		.cfi_offset 5, -24
 236              		.cfi_offset 6, -20
 237              		.cfi_offset 7, -16
 238              		.cfi_offset 8, -12
 239              		.cfi_offset 9, -8
 240              		.cfi_offset 14, -4
 241 0004 85B0     		sub	sp, sp, #20
 242              	.LCFI5:
 243              		.cfi_def_cfa_offset 48
 244 0006 0546     		mov	r5, r0
  82:/Users/nhantt/STM32Cube/Repository/STM32Cube_FW_F4_V1.26.0/Middlewares/Third_Party/LwIP/src/core/ipv4/icmp.c **** #ifdef LWIP_DEBUG
 245              		.loc 1 82 3 is_stmt 1 view .LVU55
  86:/Users/nhantt/STM32Cube/Repository/STM32Cube_FW_F4_V1.26.0/Middlewares/Third_Party/LwIP/src/core/ipv4/icmp.c ****   const struct ip_hdr *iphdr_in;
 246              		.loc 1 86 3 view .LVU56
  87:/Users/nhantt/STM32Cube/Repository/STM32Cube_FW_F4_V1.26.0/Middlewares/Third_Party/LwIP/src/core/ipv4/icmp.c ****   u16_t hlen;
 247              		.loc 1 87 3 view .LVU57
  88:/Users/nhantt/STM32Cube/Repository/STM32Cube_FW_F4_V1.26.0/Middlewares/Third_Party/LwIP/src/core/ipv4/icmp.c ****   const ip4_addr_t *src;
 248              		.loc 1 88 3 view .LVU58
  89:/Users/nhantt/STM32Cube/Repository/STM32Cube_FW_F4_V1.26.0/Middlewares/Third_Party/LwIP/src/core/ipv4/icmp.c **** 
 249              		.loc 1 89 3 view .LVU59
  91:/Users/nhantt/STM32Cube/Repository/STM32Cube_FW_F4_V1.26.0/Middlewares/Third_Party/LwIP/src/core/ipv4/icmp.c ****   MIB2_STATS_INC(mib2.icmpinmsgs);
ARM GAS  /var/folders/k2/cd9bl_j17z77g23y6ffqb_400000gn/T//ccdkNnUQ.s 			page 13


 250              		.loc 1 91 28 view .LVU60
  92:/Users/nhantt/STM32Cube/Repository/STM32Cube_FW_F4_V1.26.0/Middlewares/Third_Party/LwIP/src/core/ipv4/icmp.c **** 
 251              		.loc 1 92 34 view .LVU61
  94:/Users/nhantt/STM32Cube/Repository/STM32Cube_FW_F4_V1.26.0/Middlewares/Third_Party/LwIP/src/core/ipv4/icmp.c ****   hlen = IPH_HL_BYTES(iphdr_in);
 252              		.loc 1 94 3 view .LVU62
  94:/Users/nhantt/STM32Cube/Repository/STM32Cube_FW_F4_V1.26.0/Middlewares/Third_Party/LwIP/src/core/ipv4/icmp.c ****   hlen = IPH_HL_BYTES(iphdr_in);
 253              		.loc 1 94 12 is_stmt 0 view .LVU63
 254 0008 4A4B     		ldr	r3, .L28
 255 000a 9F68     		ldr	r7, [r3, #8]
 256              	.LVL17:
  95:/Users/nhantt/STM32Cube/Repository/STM32Cube_FW_F4_V1.26.0/Middlewares/Third_Party/LwIP/src/core/ipv4/icmp.c ****   if (hlen < IP_HLEN) {
 257              		.loc 1 95 3 is_stmt 1 view .LVU64
  95:/Users/nhantt/STM32Cube/Repository/STM32Cube_FW_F4_V1.26.0/Middlewares/Third_Party/LwIP/src/core/ipv4/icmp.c ****   if (hlen < IP_HLEN) {
 258              		.loc 1 95 10 is_stmt 0 view .LVU65
 259 000c 3B78     		ldrb	r3, [r7]	@ zero_extendqisi2
 260 000e 03F00F03 		and	r3, r3, #15
 261 0012 4FEA8308 		lsl	r8, r3, #2
  95:/Users/nhantt/STM32Cube/Repository/STM32Cube_FW_F4_V1.26.0/Middlewares/Third_Party/LwIP/src/core/ipv4/icmp.c ****   if (hlen < IP_HLEN) {
 262              		.loc 1 95 8 view .LVU66
 263 0016 4446     		mov	r4, r8
 264              	.LVL18:
  96:/Users/nhantt/STM32Cube/Repository/STM32Cube_FW_F4_V1.26.0/Middlewares/Third_Party/LwIP/src/core/ipv4/icmp.c ****     LWIP_DEBUGF(ICMP_DEBUG, ("icmp_input: short IP header (%"S16_F" bytes) received\n", hlen));
 265              		.loc 1 96 3 is_stmt 1 view .LVU67
  96:/Users/nhantt/STM32Cube/Repository/STM32Cube_FW_F4_V1.26.0/Middlewares/Third_Party/LwIP/src/core/ipv4/icmp.c ****     LWIP_DEBUGF(ICMP_DEBUG, ("icmp_input: short IP header (%"S16_F" bytes) received\n", hlen));
 266              		.loc 1 96 6 is_stmt 0 view .LVU68
 267 0018 132C     		cmp	r4, #19
 268 001a 15D9     		bls	.L11
 269 001c 0E46     		mov	r6, r1
 100:/Users/nhantt/STM32Cube/Repository/STM32Cube_FW_F4_V1.26.0/Middlewares/Third_Party/LwIP/src/core/ipv4/icmp.c ****     LWIP_DEBUGF(ICMP_DEBUG, ("icmp_input: short ICMP (%"U16_F" bytes) received\n", p->tot_len));
 270              		.loc 1 100 3 is_stmt 1 view .LVU69
 100:/Users/nhantt/STM32Cube/Repository/STM32Cube_FW_F4_V1.26.0/Middlewares/Third_Party/LwIP/src/core/ipv4/icmp.c ****     LWIP_DEBUGF(ICMP_DEBUG, ("icmp_input: short ICMP (%"U16_F" bytes) received\n", p->tot_len));
 271              		.loc 1 100 8 is_stmt 0 view .LVU70
 272 001e 4389     		ldrh	r3, [r0, #10]
 100:/Users/nhantt/STM32Cube/Repository/STM32Cube_FW_F4_V1.26.0/Middlewares/Third_Party/LwIP/src/core/ipv4/icmp.c ****     LWIP_DEBUGF(ICMP_DEBUG, ("icmp_input: short ICMP (%"U16_F" bytes) received\n", p->tot_len));
 273              		.loc 1 100 6 view .LVU71
 274 0020 032B     		cmp	r3, #3
 275 0022 11D9     		bls	.L11
 105:/Users/nhantt/STM32Cube/Repository/STM32Cube_FW_F4_V1.26.0/Middlewares/Third_Party/LwIP/src/core/ipv4/icmp.c **** #ifdef LWIP_DEBUG
 276              		.loc 1 105 3 is_stmt 1 view .LVU72
 105:/Users/nhantt/STM32Cube/Repository/STM32Cube_FW_F4_V1.26.0/Middlewares/Third_Party/LwIP/src/core/ipv4/icmp.c **** #ifdef LWIP_DEBUG
 277              		.loc 1 105 21 is_stmt 0 view .LVU73
 278 0024 4368     		ldr	r3, [r0, #4]
 105:/Users/nhantt/STM32Cube/Repository/STM32Cube_FW_F4_V1.26.0/Middlewares/Third_Party/LwIP/src/core/ipv4/icmp.c **** #ifdef LWIP_DEBUG
 279              		.loc 1 105 8 view .LVU74
 280 0026 1B78     		ldrb	r3, [r3]	@ zero_extendqisi2
 281              	.LVL19:
 111:/Users/nhantt/STM32Cube/Repository/STM32Cube_FW_F4_V1.26.0/Middlewares/Third_Party/LwIP/src/core/ipv4/icmp.c ****     case ICMP_ER:
 282              		.loc 1 111 3 is_stmt 1 view .LVU75
 283 0028 082B     		cmp	r3, #8
 284 002a 61D1     		bne	.L12
 118:/Users/nhantt/STM32Cube/Repository/STM32Cube_FW_F4_V1.26.0/Middlewares/Third_Party/LwIP/src/core/ipv4/icmp.c ****       src = ip4_current_dest_addr();
 285              		.loc 1 118 39 view .LVU76
 119:/Users/nhantt/STM32Cube/Repository/STM32Cube_FW_F4_V1.26.0/Middlewares/Third_Party/LwIP/src/core/ipv4/icmp.c ****       /* multicast destination address? */
 286              		.loc 1 119 7 view .LVU77
 287              	.LVL20:
 121:/Users/nhantt/STM32Cube/Repository/STM32Cube_FW_F4_V1.26.0/Middlewares/Third_Party/LwIP/src/core/ipv4/icmp.c **** #if LWIP_MULTICAST_PING
 288              		.loc 1 121 7 view .LVU78
ARM GAS  /var/folders/k2/cd9bl_j17z77g23y6ffqb_400000gn/T//ccdkNnUQ.s 			page 14


 121:/Users/nhantt/STM32Cube/Repository/STM32Cube_FW_F4_V1.26.0/Middlewares/Third_Party/LwIP/src/core/ipv4/icmp.c **** #if LWIP_MULTICAST_PING
 289              		.loc 1 121 11 is_stmt 0 view .LVU79
 290 002c 414B     		ldr	r3, .L28
 291              	.LVL21:
 121:/Users/nhantt/STM32Cube/Repository/STM32Cube_FW_F4_V1.26.0/Middlewares/Third_Party/LwIP/src/core/ipv4/icmp.c **** #if LWIP_MULTICAST_PING
 292              		.loc 1 121 11 view .LVU80
 293 002e 5869     		ldr	r0, [r3, #20]
 294              	.LVL22:
 121:/Users/nhantt/STM32Cube/Repository/STM32Cube_FW_F4_V1.26.0/Middlewares/Third_Party/LwIP/src/core/ipv4/icmp.c **** #if LWIP_MULTICAST_PING
 295              		.loc 1 121 11 view .LVU81
 296 0030 00F0F003 		and	r3, r0, #240
 121:/Users/nhantt/STM32Cube/Repository/STM32Cube_FW_F4_V1.26.0/Middlewares/Third_Party/LwIP/src/core/ipv4/icmp.c **** #if LWIP_MULTICAST_PING
 297              		.loc 1 121 10 view .LVU82
 298 0034 E02B     		cmp	r3, #224
 299 0036 1AD0     		beq	.L13
 131:/Users/nhantt/STM32Cube/Repository/STM32Cube_FW_F4_V1.26.0/Middlewares/Third_Party/LwIP/src/core/ipv4/icmp.c **** #if LWIP_BROADCAST_PING
 300              		.loc 1 131 7 is_stmt 1 view .LVU83
 131:/Users/nhantt/STM32Cube/Repository/STM32Cube_FW_F4_V1.26.0/Middlewares/Third_Party/LwIP/src/core/ipv4/icmp.c **** #if LWIP_BROADCAST_PING
 301              		.loc 1 131 11 is_stmt 0 view .LVU84
 302 0038 3E4B     		ldr	r3, .L28
 303 003a 1968     		ldr	r1, [r3]
 304              	.LVL23:
 131:/Users/nhantt/STM32Cube/Repository/STM32Cube_FW_F4_V1.26.0/Middlewares/Third_Party/LwIP/src/core/ipv4/icmp.c **** #if LWIP_BROADCAST_PING
 305              		.loc 1 131 11 view .LVU85
 306 003c FFF7FEFF 		bl	ip4_addr_isbroadcast_u32
 307              	.LVL24:
 131:/Users/nhantt/STM32Cube/Repository/STM32Cube_FW_F4_V1.26.0/Middlewares/Third_Party/LwIP/src/core/ipv4/icmp.c **** #if LWIP_BROADCAST_PING
 308              		.loc 1 131 10 view .LVU86
 309 0040 A8B9     		cbnz	r0, .L13
 140:/Users/nhantt/STM32Cube/Repository/STM32Cube_FW_F4_V1.26.0/Middlewares/Third_Party/LwIP/src/core/ipv4/icmp.c ****       if (p->tot_len < sizeof(struct icmp_echo_hdr)) {
 310              		.loc 1 140 54 is_stmt 1 view .LVU87
 141:/Users/nhantt/STM32Cube/Repository/STM32Cube_FW_F4_V1.26.0/Middlewares/Third_Party/LwIP/src/core/ipv4/icmp.c ****         LWIP_DEBUGF(ICMP_DEBUG, ("icmp_input: bad ICMP echo received\n"));
 311              		.loc 1 141 7 view .LVU88
 141:/Users/nhantt/STM32Cube/Repository/STM32Cube_FW_F4_V1.26.0/Middlewares/Third_Party/LwIP/src/core/ipv4/icmp.c ****         LWIP_DEBUGF(ICMP_DEBUG, ("icmp_input: bad ICMP echo received\n"));
 312              		.loc 1 141 12 is_stmt 0 view .LVU89
 313 0042 2B89     		ldrh	r3, [r5, #8]
 141:/Users/nhantt/STM32Cube/Repository/STM32Cube_FW_F4_V1.26.0/Middlewares/Third_Party/LwIP/src/core/ipv4/icmp.c ****         LWIP_DEBUGF(ICMP_DEBUG, ("icmp_input: bad ICMP echo received\n"));
 314              		.loc 1 141 10 view .LVU90
 315 0044 072B     		cmp	r3, #7
 316 0046 05D8     		bhi	.L21
 317              	.LVL25:
 318              	.L11:
 285:/Users/nhantt/STM32Cube/Repository/STM32Cube_FW_F4_V1.26.0/Middlewares/Third_Party/LwIP/src/core/ipv4/icmp.c ****   ICMP_STATS_INC(icmp.lenerr);
 319              		.loc 1 285 3 is_stmt 1 view .LVU91
 320 0048 2846     		mov	r0, r5
 321 004a FFF7FEFF 		bl	pbuf_free
 322              	.LVL26:
 286:/Users/nhantt/STM32Cube/Repository/STM32Cube_FW_F4_V1.26.0/Middlewares/Third_Party/LwIP/src/core/ipv4/icmp.c ****   MIB2_STATS_INC(mib2.icmpinerrors);
 323              		.loc 1 286 30 view .LVU92
 287:/Users/nhantt/STM32Cube/Repository/STM32Cube_FW_F4_V1.26.0/Middlewares/Third_Party/LwIP/src/core/ipv4/icmp.c ****   return;
 324              		.loc 1 287 36 view .LVU93
 288:/Users/nhantt/STM32Cube/Repository/STM32Cube_FW_F4_V1.26.0/Middlewares/Third_Party/LwIP/src/core/ipv4/icmp.c **** #if LWIP_ICMP_ECHO_CHECK_INPUT_PBUF_LEN || !LWIP_MULTICAST_PING || !LWIP_BROADCAST_PING
 325              		.loc 1 288 3 view .LVU94
 326              	.L10:
 296:/Users/nhantt/STM32Cube/Repository/STM32Cube_FW_F4_V1.26.0/Middlewares/Third_Party/LwIP/src/core/ipv4/icmp.c **** 
 327              		.loc 1 296 1 is_stmt 0 view .LVU95
 328 004e 05B0     		add	sp, sp, #20
ARM GAS  /var/folders/k2/cd9bl_j17z77g23y6ffqb_400000gn/T//ccdkNnUQ.s 			page 15


 329              	.LCFI6:
 330              		.cfi_remember_state
 331              		.cfi_def_cfa_offset 28
 332              		@ sp needed
 333 0050 BDE8F083 		pop	{r4, r5, r6, r7, r8, r9, pc}
 334              	.LVL27:
 335              	.L21:
 336              	.LCFI7:
 337              		.cfi_restore_state
 157:/Users/nhantt/STM32Cube/Repository/STM32Cube_FW_F4_V1.26.0/Middlewares/Third_Party/LwIP/src/core/ipv4/icmp.c ****         /* p is not big enough to contain link headers
 338              		.loc 1 157 7 is_stmt 1 view .LVU96
 157:/Users/nhantt/STM32Cube/Repository/STM32Cube_FW_F4_V1.26.0/Middlewares/Third_Party/LwIP/src/core/ipv4/icmp.c ****         /* p is not big enough to contain link headers
 339              		.loc 1 157 52 is_stmt 0 view .LVU97
 340 0054 08F10E09 		add	r9, r8, #14
 157:/Users/nhantt/STM32Cube/Repository/STM32Cube_FW_F4_V1.26.0/Middlewares/Third_Party/LwIP/src/core/ipv4/icmp.c ****         /* p is not big enough to contain link headers
 341              		.loc 1 157 11 view .LVU98
 342 0058 4946     		mov	r1, r9
 343 005a 2846     		mov	r0, r5
 344 005c FFF7FEFF 		bl	pbuf_add_header
 345              	.LVL28:
 157:/Users/nhantt/STM32Cube/Repository/STM32Cube_FW_F4_V1.26.0/Middlewares/Third_Party/LwIP/src/core/ipv4/icmp.c ****         /* p is not big enough to contain link headers
 346              		.loc 1 157 10 view .LVU99
 347 0060 0028     		cmp	r0, #0
 348 0062 3AD0     		beq	.L14
 349              	.LBB2:
 161:/Users/nhantt/STM32Cube/Repository/STM32Cube_FW_F4_V1.26.0/Middlewares/Third_Party/LwIP/src/core/ipv4/icmp.c ****         u16_t alloc_len = (u16_t)(p->tot_len + hlen);
 350              		.loc 1 161 9 is_stmt 1 view .LVU100
 162:/Users/nhantt/STM32Cube/Repository/STM32Cube_FW_F4_V1.26.0/Middlewares/Third_Party/LwIP/src/core/ipv4/icmp.c ****         if (alloc_len < p->tot_len) {
 351              		.loc 1 162 9 view .LVU101
 162:/Users/nhantt/STM32Cube/Repository/STM32Cube_FW_F4_V1.26.0/Middlewares/Third_Party/LwIP/src/core/ipv4/icmp.c ****         if (alloc_len < p->tot_len) {
 352              		.loc 1 162 36 is_stmt 0 view .LVU102
 353 0064 2A89     		ldrh	r2, [r5, #8]
 162:/Users/nhantt/STM32Cube/Repository/STM32Cube_FW_F4_V1.26.0/Middlewares/Third_Party/LwIP/src/core/ipv4/icmp.c ****         if (alloc_len < p->tot_len) {
 354              		.loc 1 162 15 view .LVU103
 355 0066 1319     		adds	r3, r2, r4
 356 0068 99B2     		uxth	r1, r3
 357              	.LVL29:
 163:/Users/nhantt/STM32Cube/Repository/STM32Cube_FW_F4_V1.26.0/Middlewares/Third_Party/LwIP/src/core/ipv4/icmp.c ****           LWIP_DEBUGF(ICMP_DEBUG, ("icmp_input: allocating new pbuf failed (tot_len overflow)\n"));
 358              		.loc 1 163 9 is_stmt 1 view .LVU104
 163:/Users/nhantt/STM32Cube/Repository/STM32Cube_FW_F4_V1.26.0/Middlewares/Third_Party/LwIP/src/core/ipv4/icmp.c ****           LWIP_DEBUGF(ICMP_DEBUG, ("icmp_input: allocating new pbuf failed (tot_len overflow)\n"));
 359              		.loc 1 163 12 is_stmt 0 view .LVU105
 360 006a 8A42     		cmp	r2, r1
 361 006c 03D9     		bls	.L22
 362              	.LVL30:
 363              	.L13:
 163:/Users/nhantt/STM32Cube/Repository/STM32Cube_FW_F4_V1.26.0/Middlewares/Third_Party/LwIP/src/core/ipv4/icmp.c ****           LWIP_DEBUGF(ICMP_DEBUG, ("icmp_input: allocating new pbuf failed (tot_len overflow)\n"));
 364              		.loc 1 163 12 view .LVU106
 365              	.LBE2:
 291:/Users/nhantt/STM32Cube/Repository/STM32Cube_FW_F4_V1.26.0/Middlewares/Third_Party/LwIP/src/core/ipv4/icmp.c ****   ICMP_STATS_INC(icmp.err);
 366              		.loc 1 291 3 is_stmt 1 view .LVU107
 367 006e 2846     		mov	r0, r5
 368 0070 FFF7FEFF 		bl	pbuf_free
 369              	.LVL31:
 292:/Users/nhantt/STM32Cube/Repository/STM32Cube_FW_F4_V1.26.0/Middlewares/Third_Party/LwIP/src/core/ipv4/icmp.c ****   MIB2_STATS_INC(mib2.icmpinerrors);
 370              		.loc 1 292 27 view .LVU108
 293:/Users/nhantt/STM32Cube/Repository/STM32Cube_FW_F4_V1.26.0/Middlewares/Third_Party/LwIP/src/core/ipv4/icmp.c ****   return;
 371              		.loc 1 293 36 view .LVU109
ARM GAS  /var/folders/k2/cd9bl_j17z77g23y6ffqb_400000gn/T//ccdkNnUQ.s 			page 16


 294:/Users/nhantt/STM32Cube/Repository/STM32Cube_FW_F4_V1.26.0/Middlewares/Third_Party/LwIP/src/core/ipv4/icmp.c **** #endif /* LWIP_ICMP_ECHO_CHECK_INPUT_PBUF_LEN || !LWIP_MULTICAST_PING || !LWIP_BROADCAST_PING */
 372              		.loc 1 294 3 view .LVU110
 373 0074 EBE7     		b	.L10
 374              	.LVL32:
 375              	.L22:
 376              	.LBB3:
 168:/Users/nhantt/STM32Cube/Repository/STM32Cube_FW_F4_V1.26.0/Middlewares/Third_Party/LwIP/src/core/ipv4/icmp.c ****         if (r == NULL) {
 377              		.loc 1 168 9 view .LVU111
 168:/Users/nhantt/STM32Cube/Repository/STM32Cube_FW_F4_V1.26.0/Middlewares/Third_Party/LwIP/src/core/ipv4/icmp.c ****         if (r == NULL) {
 378              		.loc 1 168 13 is_stmt 0 view .LVU112
 379 0076 4FF42072 		mov	r2, #640
 380 007a 0E20     		movs	r0, #14
 381 007c FFF7FEFF 		bl	pbuf_alloc
 382              	.LVL33:
 169:/Users/nhantt/STM32Cube/Repository/STM32Cube_FW_F4_V1.26.0/Middlewares/Third_Party/LwIP/src/core/ipv4/icmp.c ****           LWIP_DEBUGF(ICMP_DEBUG, ("icmp_input: allocating new pbuf failed\n"));
 383              		.loc 1 169 9 is_stmt 1 view .LVU113
 169:/Users/nhantt/STM32Cube/Repository/STM32Cube_FW_F4_V1.26.0/Middlewares/Third_Party/LwIP/src/core/ipv4/icmp.c ****           LWIP_DEBUGF(ICMP_DEBUG, ("icmp_input: allocating new pbuf failed\n"));
 384              		.loc 1 169 12 is_stmt 0 view .LVU114
 385 0080 0446     		mov	r4, r0
 386 0082 0028     		cmp	r0, #0
 387 0084 F3D0     		beq	.L13
 173:/Users/nhantt/STM32Cube/Repository/STM32Cube_FW_F4_V1.26.0/Middlewares/Third_Party/LwIP/src/core/ipv4/icmp.c ****           LWIP_DEBUGF(ICMP_DEBUG | LWIP_DBG_LEVEL_SERIOUS, ("first pbuf cannot hold the ICMP header
 388              		.loc 1 173 9 is_stmt 1 view .LVU115
 173:/Users/nhantt/STM32Cube/Repository/STM32Cube_FW_F4_V1.26.0/Middlewares/Third_Party/LwIP/src/core/ipv4/icmp.c ****           LWIP_DEBUGF(ICMP_DEBUG | LWIP_DBG_LEVEL_SERIOUS, ("first pbuf cannot hold the ICMP header
 389              		.loc 1 173 14 is_stmt 0 view .LVU116
 390 0086 4289     		ldrh	r2, [r0, #10]
 173:/Users/nhantt/STM32Cube/Repository/STM32Cube_FW_F4_V1.26.0/Middlewares/Third_Party/LwIP/src/core/ipv4/icmp.c ****           LWIP_DEBUGF(ICMP_DEBUG | LWIP_DBG_LEVEL_SERIOUS, ("first pbuf cannot hold the ICMP header
 391              		.loc 1 173 27 view .LVU117
 392 0088 08F10803 		add	r3, r8, #8
 173:/Users/nhantt/STM32Cube/Repository/STM32Cube_FW_F4_V1.26.0/Middlewares/Third_Party/LwIP/src/core/ipv4/icmp.c ****           LWIP_DEBUGF(ICMP_DEBUG | LWIP_DBG_LEVEL_SERIOUS, ("first pbuf cannot hold the ICMP header
 393              		.loc 1 173 12 view .LVU118
 394 008c 9A42     		cmp	r2, r3
 395 008e 13D3     		bcc	.L23
 179:/Users/nhantt/STM32Cube/Repository/STM32Cube_FW_F4_V1.26.0/Middlewares/Third_Party/LwIP/src/core/ipv4/icmp.c ****         /* switch r->payload back to icmp header (cannot fail) */
 396              		.loc 1 179 9 is_stmt 1 view .LVU119
 397 0090 4246     		mov	r2, r8
 398 0092 3946     		mov	r1, r7
 399 0094 4068     		ldr	r0, [r0, #4]
 400              	.LVL34:
 179:/Users/nhantt/STM32Cube/Repository/STM32Cube_FW_F4_V1.26.0/Middlewares/Third_Party/LwIP/src/core/ipv4/icmp.c ****         /* switch r->payload back to icmp header (cannot fail) */
 401              		.loc 1 179 9 is_stmt 0 view .LVU120
 402 0096 FFF7FEFF 		bl	memcpy
 403              	.LVL35:
 181:/Users/nhantt/STM32Cube/Repository/STM32Cube_FW_F4_V1.26.0/Middlewares/Third_Party/LwIP/src/core/ipv4/icmp.c ****           LWIP_ASSERT("icmp_input: moving r->payload to icmp header failed\n", 0);
 404              		.loc 1 181 9 is_stmt 1 view .LVU121
 181:/Users/nhantt/STM32Cube/Repository/STM32Cube_FW_F4_V1.26.0/Middlewares/Third_Party/LwIP/src/core/ipv4/icmp.c ****           LWIP_ASSERT("icmp_input: moving r->payload to icmp header failed\n", 0);
 405              		.loc 1 181 13 is_stmt 0 view .LVU122
 406 009a 4146     		mov	r1, r8
 407 009c 2046     		mov	r0, r4
 408 009e FFF7FEFF 		bl	pbuf_remove_header
 409              	.LVL36:
 181:/Users/nhantt/STM32Cube/Repository/STM32Cube_FW_F4_V1.26.0/Middlewares/Third_Party/LwIP/src/core/ipv4/icmp.c ****           LWIP_ASSERT("icmp_input: moving r->payload to icmp header failed\n", 0);
 410              		.loc 1 181 12 view .LVU123
 411 00a2 60B9     		cbnz	r0, .L24
 187:/Users/nhantt/STM32Cube/Repository/STM32Cube_FW_F4_V1.26.0/Middlewares/Third_Party/LwIP/src/core/ipv4/icmp.c ****           LWIP_DEBUGF(ICMP_DEBUG | LWIP_DBG_LEVEL_SERIOUS, ("icmp_input: copying to new pbuf failed
 412              		.loc 1 187 9 is_stmt 1 view .LVU124
 187:/Users/nhantt/STM32Cube/Repository/STM32Cube_FW_F4_V1.26.0/Middlewares/Third_Party/LwIP/src/core/ipv4/icmp.c ****           LWIP_DEBUGF(ICMP_DEBUG | LWIP_DBG_LEVEL_SERIOUS, ("icmp_input: copying to new pbuf failed
ARM GAS  /var/folders/k2/cd9bl_j17z77g23y6ffqb_400000gn/T//ccdkNnUQ.s 			page 17


 413              		.loc 1 187 13 is_stmt 0 view .LVU125
 414 00a4 2946     		mov	r1, r5
 415 00a6 2046     		mov	r0, r4
 416 00a8 FFF7FEFF 		bl	pbuf_copy
 417              	.LVL37:
 187:/Users/nhantt/STM32Cube/Repository/STM32Cube_FW_F4_V1.26.0/Middlewares/Third_Party/LwIP/src/core/ipv4/icmp.c ****           LWIP_DEBUGF(ICMP_DEBUG | LWIP_DBG_LEVEL_SERIOUS, ("icmp_input: copying to new pbuf failed
 418              		.loc 1 187 12 view .LVU126
 419 00ac 88B9     		cbnz	r0, .L25
 193:/Users/nhantt/STM32Cube/Repository/STM32Cube_FW_F4_V1.26.0/Middlewares/Third_Party/LwIP/src/core/ipv4/icmp.c ****         /* we now have an identical copy of p that has room for link headers */
 420              		.loc 1 193 9 is_stmt 1 view .LVU127
 421 00ae 2846     		mov	r0, r5
 422 00b0 FFF7FEFF 		bl	pbuf_free
 423              	.LVL38:
 195:/Users/nhantt/STM32Cube/Repository/STM32Cube_FW_F4_V1.26.0/Middlewares/Third_Party/LwIP/src/core/ipv4/icmp.c ****       } else {
 424              		.loc 1 195 9 view .LVU128
 195:/Users/nhantt/STM32Cube/Repository/STM32Cube_FW_F4_V1.26.0/Middlewares/Third_Party/LwIP/src/core/ipv4/icmp.c ****       } else {
 425              		.loc 1 195 11 is_stmt 0 view .LVU129
 426 00b4 2546     		mov	r5, r4
 427              	.LBE3:
 428 00b6 15E0     		b	.L18
 429              	.LVL39:
 430              	.L23:
 431              	.LBB4:
 174:/Users/nhantt/STM32Cube/Repository/STM32Cube_FW_F4_V1.26.0/Middlewares/Third_Party/LwIP/src/core/ipv4/icmp.c ****           pbuf_free(r);
 432              		.loc 1 174 103 is_stmt 1 view .LVU130
 175:/Users/nhantt/STM32Cube/Repository/STM32Cube_FW_F4_V1.26.0/Middlewares/Third_Party/LwIP/src/core/ipv4/icmp.c ****           goto icmperr;
 433              		.loc 1 175 11 view .LVU131
 434 00b8 FFF7FEFF 		bl	pbuf_free
 435              	.LVL40:
 176:/Users/nhantt/STM32Cube/Repository/STM32Cube_FW_F4_V1.26.0/Middlewares/Third_Party/LwIP/src/core/ipv4/icmp.c ****         }
 436              		.loc 1 176 11 view .LVU132
 437 00bc D7E7     		b	.L13
 438              	.L24:
 182:/Users/nhantt/STM32Cube/Repository/STM32Cube_FW_F4_V1.26.0/Middlewares/Third_Party/LwIP/src/core/ipv4/icmp.c ****           pbuf_free(r);
 439              		.loc 1 182 11 discriminator 1 view .LVU133
 182:/Users/nhantt/STM32Cube/Repository/STM32Cube_FW_F4_V1.26.0/Middlewares/Third_Party/LwIP/src/core/ipv4/icmp.c ****           pbuf_free(r);
 440              		.loc 1 182 11 discriminator 1 view .LVU134
 182:/Users/nhantt/STM32Cube/Repository/STM32Cube_FW_F4_V1.26.0/Middlewares/Third_Party/LwIP/src/core/ipv4/icmp.c ****           pbuf_free(r);
 441              		.loc 1 182 11 discriminator 1 view .LVU135
 182:/Users/nhantt/STM32Cube/Repository/STM32Cube_FW_F4_V1.26.0/Middlewares/Third_Party/LwIP/src/core/ipv4/icmp.c ****           pbuf_free(r);
 442              		.loc 1 182 11 discriminator 1 view .LVU136
 443 00be 1E4B     		ldr	r3, .L28+4
 444 00c0 B622     		movs	r2, #182
 445 00c2 1E49     		ldr	r1, .L28+8
 446 00c4 1E48     		ldr	r0, .L28+12
 447 00c6 FFF7FEFF 		bl	printf
 448              	.LVL41:
 182:/Users/nhantt/STM32Cube/Repository/STM32Cube_FW_F4_V1.26.0/Middlewares/Third_Party/LwIP/src/core/ipv4/icmp.c ****           pbuf_free(r);
 449              		.loc 1 182 11 discriminator 1 view .LVU137
 182:/Users/nhantt/STM32Cube/Repository/STM32Cube_FW_F4_V1.26.0/Middlewares/Third_Party/LwIP/src/core/ipv4/icmp.c ****           pbuf_free(r);
 450              		.loc 1 182 11 discriminator 1 view .LVU138
 183:/Users/nhantt/STM32Cube/Repository/STM32Cube_FW_F4_V1.26.0/Middlewares/Third_Party/LwIP/src/core/ipv4/icmp.c ****           goto icmperr;
 451              		.loc 1 183 11 discriminator 1 view .LVU139
 452 00ca 2046     		mov	r0, r4
 453 00cc FFF7FEFF 		bl	pbuf_free
 454              	.LVL42:
 184:/Users/nhantt/STM32Cube/Repository/STM32Cube_FW_F4_V1.26.0/Middlewares/Third_Party/LwIP/src/core/ipv4/icmp.c ****         }
ARM GAS  /var/folders/k2/cd9bl_j17z77g23y6ffqb_400000gn/T//ccdkNnUQ.s 			page 18


 455              		.loc 1 184 11 discriminator 1 view .LVU140
 456 00d0 CDE7     		b	.L13
 457              	.L25:
 188:/Users/nhantt/STM32Cube/Repository/STM32Cube_FW_F4_V1.26.0/Middlewares/Third_Party/LwIP/src/core/ipv4/icmp.c ****           pbuf_free(r);
 458              		.loc 1 188 103 view .LVU141
 189:/Users/nhantt/STM32Cube/Repository/STM32Cube_FW_F4_V1.26.0/Middlewares/Third_Party/LwIP/src/core/ipv4/icmp.c ****           goto icmperr;
 459              		.loc 1 189 11 view .LVU142
 460 00d2 2046     		mov	r0, r4
 461 00d4 FFF7FEFF 		bl	pbuf_free
 462              	.LVL43:
 190:/Users/nhantt/STM32Cube/Repository/STM32Cube_FW_F4_V1.26.0/Middlewares/Third_Party/LwIP/src/core/ipv4/icmp.c ****         }
 463              		.loc 1 190 11 view .LVU143
 464 00d8 C9E7     		b	.L13
 465              	.LVL44:
 466              	.L14:
 190:/Users/nhantt/STM32Cube/Repository/STM32Cube_FW_F4_V1.26.0/Middlewares/Third_Party/LwIP/src/core/ipv4/icmp.c ****         }
 467              		.loc 1 190 11 is_stmt 0 view .LVU144
 468              	.LBE4:
 198:/Users/nhantt/STM32Cube/Repository/STM32Cube_FW_F4_V1.26.0/Middlewares/Third_Party/LwIP/src/core/ipv4/icmp.c ****           LWIP_ASSERT("icmp_input: restoring original p->payload failed\n", 0);
 469              		.loc 1 198 9 is_stmt 1 view .LVU145
 198:/Users/nhantt/STM32Cube/Repository/STM32Cube_FW_F4_V1.26.0/Middlewares/Third_Party/LwIP/src/core/ipv4/icmp.c ****           LWIP_ASSERT("icmp_input: restoring original p->payload failed\n", 0);
 470              		.loc 1 198 13 is_stmt 0 view .LVU146
 471 00da 4946     		mov	r1, r9
 472 00dc 2846     		mov	r0, r5
 473 00de FFF7FEFF 		bl	pbuf_remove_header
 474              	.LVL45:
 198:/Users/nhantt/STM32Cube/Repository/STM32Cube_FW_F4_V1.26.0/Middlewares/Third_Party/LwIP/src/core/ipv4/icmp.c ****           LWIP_ASSERT("icmp_input: restoring original p->payload failed\n", 0);
 475              		.loc 1 198 12 view .LVU147
 476 00e2 48B9     		cbnz	r0, .L26
 477              	.L18:
 207:/Users/nhantt/STM32Cube/Repository/STM32Cube_FW_F4_V1.26.0/Middlewares/Third_Party/LwIP/src/core/ipv4/icmp.c ****       if (pbuf_add_header(p, hlen)) {
 478              		.loc 1 207 7 is_stmt 1 view .LVU148
 207:/Users/nhantt/STM32Cube/Repository/STM32Cube_FW_F4_V1.26.0/Middlewares/Third_Party/LwIP/src/core/ipv4/icmp.c ****       if (pbuf_add_header(p, hlen)) {
 479              		.loc 1 207 13 is_stmt 0 view .LVU149
 480 00e4 6C68     		ldr	r4, [r5, #4]
 481              	.LVL46:
 208:/Users/nhantt/STM32Cube/Repository/STM32Cube_FW_F4_V1.26.0/Middlewares/Third_Party/LwIP/src/core/ipv4/icmp.c ****         LWIP_DEBUGF(ICMP_DEBUG | LWIP_DBG_LEVEL_SERIOUS, ("Can't move over header in packet"));
 482              		.loc 1 208 7 is_stmt 1 view .LVU150
 208:/Users/nhantt/STM32Cube/Repository/STM32Cube_FW_F4_V1.26.0/Middlewares/Third_Party/LwIP/src/core/ipv4/icmp.c ****         LWIP_DEBUGF(ICMP_DEBUG | LWIP_DBG_LEVEL_SERIOUS, ("Can't move over header in packet"));
 483              		.loc 1 208 11 is_stmt 0 view .LVU151
 484 00e6 4146     		mov	r1, r8
 485 00e8 2846     		mov	r0, r5
 486 00ea FFF7FEFF 		bl	pbuf_add_header
 487              	.LVL47:
 208:/Users/nhantt/STM32Cube/Repository/STM32Cube_FW_F4_V1.26.0/Middlewares/Third_Party/LwIP/src/core/ipv4/icmp.c ****         LWIP_DEBUGF(ICMP_DEBUG | LWIP_DBG_LEVEL_SERIOUS, ("Can't move over header in packet"));
 488              		.loc 1 208 10 view .LVU152
 489 00ee 50B1     		cbz	r0, .L27
 490              	.LVL48:
 491              	.L12:
 275:/Users/nhantt/STM32Cube/Repository/STM32Cube_FW_F4_V1.26.0/Middlewares/Third_Party/LwIP/src/core/ipv4/icmp.c ****       }
 492              		.loc 1 275 48 is_stmt 1 view .LVU153
 278:/Users/nhantt/STM32Cube/Repository/STM32Cube_FW_F4_V1.26.0/Middlewares/Third_Party/LwIP/src/core/ipv4/icmp.c ****       ICMP_STATS_INC(icmp.proterr);
 493              		.loc 1 278 58 view .LVU154
 279:/Users/nhantt/STM32Cube/Repository/STM32Cube_FW_F4_V1.26.0/Middlewares/Third_Party/LwIP/src/core/ipv4/icmp.c ****       ICMP_STATS_INC(icmp.drop);
 494              		.loc 1 279 35 view .LVU155
 280:/Users/nhantt/STM32Cube/Repository/STM32Cube_FW_F4_V1.26.0/Middlewares/Third_Party/LwIP/src/core/ipv4/icmp.c ****   }
 495              		.loc 1 280 32 view .LVU156
ARM GAS  /var/folders/k2/cd9bl_j17z77g23y6ffqb_400000gn/T//ccdkNnUQ.s 			page 19


 282:/Users/nhantt/STM32Cube/Repository/STM32Cube_FW_F4_V1.26.0/Middlewares/Third_Party/LwIP/src/core/ipv4/icmp.c ****   return;
 496              		.loc 1 282 3 view .LVU157
 497 00f0 2846     		mov	r0, r5
 498 00f2 FFF7FEFF 		bl	pbuf_free
 499              	.LVL49:
 283:/Users/nhantt/STM32Cube/Repository/STM32Cube_FW_F4_V1.26.0/Middlewares/Third_Party/LwIP/src/core/ipv4/icmp.c **** lenerr:
 500              		.loc 1 283 3 view .LVU158
 501 00f6 AAE7     		b	.L10
 502              	.LVL50:
 503              	.L26:
 199:/Users/nhantt/STM32Cube/Repository/STM32Cube_FW_F4_V1.26.0/Middlewares/Third_Party/LwIP/src/core/ipv4/icmp.c ****           goto icmperr;
 504              		.loc 1 199 11 discriminator 1 view .LVU159
 199:/Users/nhantt/STM32Cube/Repository/STM32Cube_FW_F4_V1.26.0/Middlewares/Third_Party/LwIP/src/core/ipv4/icmp.c ****           goto icmperr;
 505              		.loc 1 199 11 discriminator 1 view .LVU160
 199:/Users/nhantt/STM32Cube/Repository/STM32Cube_FW_F4_V1.26.0/Middlewares/Third_Party/LwIP/src/core/ipv4/icmp.c ****           goto icmperr;
 506              		.loc 1 199 11 discriminator 1 view .LVU161
 199:/Users/nhantt/STM32Cube/Repository/STM32Cube_FW_F4_V1.26.0/Middlewares/Third_Party/LwIP/src/core/ipv4/icmp.c ****           goto icmperr;
 507              		.loc 1 199 11 discriminator 1 view .LVU162
 508 00f8 0F4B     		ldr	r3, .L28+4
 509 00fa C722     		movs	r2, #199
 510 00fc 1149     		ldr	r1, .L28+16
 511 00fe 1048     		ldr	r0, .L28+12
 512 0100 FFF7FEFF 		bl	printf
 513              	.LVL51:
 199:/Users/nhantt/STM32Cube/Repository/STM32Cube_FW_F4_V1.26.0/Middlewares/Third_Party/LwIP/src/core/ipv4/icmp.c ****           goto icmperr;
 514              		.loc 1 199 11 discriminator 1 view .LVU163
 199:/Users/nhantt/STM32Cube/Repository/STM32Cube_FW_F4_V1.26.0/Middlewares/Third_Party/LwIP/src/core/ipv4/icmp.c ****           goto icmperr;
 515              		.loc 1 199 11 discriminator 1 view .LVU164
 200:/Users/nhantt/STM32Cube/Repository/STM32Cube_FW_F4_V1.26.0/Middlewares/Third_Party/LwIP/src/core/ipv4/icmp.c ****         }
 516              		.loc 1 200 11 discriminator 1 view .LVU165
 517 0104 B3E7     		b	.L13
 518              	.LVL52:
 519              	.L27:
 520              	.LBB5:
 211:/Users/nhantt/STM32Cube/Repository/STM32Cube_FW_F4_V1.26.0/Middlewares/Third_Party/LwIP/src/core/ipv4/icmp.c ****         struct ip_hdr *iphdr = (struct ip_hdr *)p->payload;
 521              		.loc 1 211 9 view .LVU166
 212:/Users/nhantt/STM32Cube/Repository/STM32Cube_FW_F4_V1.26.0/Middlewares/Third_Party/LwIP/src/core/ipv4/icmp.c ****         ip4_addr_copy(iphdr->src, *src);
 522              		.loc 1 212 9 view .LVU167
 212:/Users/nhantt/STM32Cube/Repository/STM32Cube_FW_F4_V1.26.0/Middlewares/Third_Party/LwIP/src/core/ipv4/icmp.c ****         ip4_addr_copy(iphdr->src, *src);
 523              		.loc 1 212 24 is_stmt 0 view .LVU168
 524 0106 6868     		ldr	r0, [r5, #4]
 525              	.LVL53:
 213:/Users/nhantt/STM32Cube/Repository/STM32Cube_FW_F4_V1.26.0/Middlewares/Third_Party/LwIP/src/core/ipv4/icmp.c ****         ip4_addr_copy(iphdr->dest, *ip4_current_src_addr());
 526              		.loc 1 213 9 is_stmt 1 view .LVU169
 527 0108 0A49     		ldr	r1, .L28
 528 010a 4B69     		ldr	r3, [r1, #20]
 529 010c C360     		str	r3, [r0, #12]	@ unaligned
 214:/Users/nhantt/STM32Cube/Repository/STM32Cube_FW_F4_V1.26.0/Middlewares/Third_Party/LwIP/src/core/ipv4/icmp.c ****         ICMPH_TYPE_SET(iecho, ICMP_ER);
 530              		.loc 1 214 9 view .LVU170
 531 010e 0B69     		ldr	r3, [r1, #16]
 532 0110 0361     		str	r3, [r0, #16]	@ unaligned
 215:/Users/nhantt/STM32Cube/Repository/STM32Cube_FW_F4_V1.26.0/Middlewares/Third_Party/LwIP/src/core/ipv4/icmp.c **** #if CHECKSUM_GEN_ICMP
 533              		.loc 1 215 9 view .LVU171
 534 0112 0022     		movs	r2, #0
 535 0114 2270     		strb	r2, [r4]
 231:/Users/nhantt/STM32Cube/Repository/STM32Cube_FW_F4_V1.26.0/Middlewares/Third_Party/LwIP/src/core/ipv4/icmp.c **** #endif /* CHECKSUM_GEN_ICMP */
 536              		.loc 1 231 9 view .LVU172
ARM GAS  /var/folders/k2/cd9bl_j17z77g23y6ffqb_400000gn/T//ccdkNnUQ.s 			page 20


 231:/Users/nhantt/STM32Cube/Repository/STM32Cube_FW_F4_V1.26.0/Middlewares/Third_Party/LwIP/src/core/ipv4/icmp.c **** #endif /* CHECKSUM_GEN_ICMP */
 537              		.loc 1 231 23 is_stmt 0 view .LVU173
 538 0116 A270     		strb	r2, [r4, #2]
 539 0118 E270     		strb	r2, [r4, #3]
 235:/Users/nhantt/STM32Cube/Repository/STM32Cube_FW_F4_V1.26.0/Middlewares/Third_Party/LwIP/src/core/ipv4/icmp.c ****         IPH_CHKSUM_SET(iphdr, 0);
 540              		.loc 1 235 9 is_stmt 1 view .LVU174
 541 011a FF23     		movs	r3, #255
 542 011c 0372     		strb	r3, [r0, #8]
 236:/Users/nhantt/STM32Cube/Repository/STM32Cube_FW_F4_V1.26.0/Middlewares/Third_Party/LwIP/src/core/ipv4/icmp.c **** #if CHECKSUM_GEN_IP
 543              		.loc 1 236 9 view .LVU175
 544 011e 8272     		strb	r2, [r0, #10]
 545 0120 C272     		strb	r2, [r0, #11]
 243:/Users/nhantt/STM32Cube/Repository/STM32Cube_FW_F4_V1.26.0/Middlewares/Third_Party/LwIP/src/core/ipv4/icmp.c ****         /* increase number of messages attempted to send */
 546              		.loc 1 243 34 view .LVU176
 245:/Users/nhantt/STM32Cube/Repository/STM32Cube_FW_F4_V1.26.0/Middlewares/Third_Party/LwIP/src/core/ipv4/icmp.c ****         /* increase number of echo replies attempted to send */
 547              		.loc 1 245 41 view .LVU177
 247:/Users/nhantt/STM32Cube/Repository/STM32Cube_FW_F4_V1.26.0/Middlewares/Third_Party/LwIP/src/core/ipv4/icmp.c **** 
 548              		.loc 1 247 45 view .LVU178
 250:/Users/nhantt/STM32Cube/Repository/STM32Cube_FW_F4_V1.26.0/Middlewares/Third_Party/LwIP/src/core/ipv4/icmp.c ****                             ICMP_TTL, 0, IP_PROTO_ICMP, inp);
 549              		.loc 1 250 9 view .LVU179
 250:/Users/nhantt/STM32Cube/Repository/STM32Cube_FW_F4_V1.26.0/Middlewares/Third_Party/LwIP/src/core/ipv4/icmp.c ****                             ICMP_TTL, 0, IP_PROTO_ICMP, inp);
 550              		.loc 1 250 15 is_stmt 0 view .LVU180
 551 0122 0296     		str	r6, [sp, #8]
 552 0124 0120     		movs	r0, #1
 553              	.LVL54:
 250:/Users/nhantt/STM32Cube/Repository/STM32Cube_FW_F4_V1.26.0/Middlewares/Third_Party/LwIP/src/core/ipv4/icmp.c ****                             ICMP_TTL, 0, IP_PROTO_ICMP, inp);
 554              		.loc 1 250 15 view .LVU181
 555 0126 0190     		str	r0, [sp, #4]
 556 0128 0092     		str	r2, [sp]
 557 012a 1431     		adds	r1, r1, #20
 558 012c 2846     		mov	r0, r5
 559 012e FFF7FEFF 		bl	ip4_output_if
 560              	.LVL55:
 252:/Users/nhantt/STM32Cube/Repository/STM32Cube_FW_F4_V1.26.0/Middlewares/Third_Party/LwIP/src/core/ipv4/icmp.c ****           LWIP_DEBUGF(ICMP_DEBUG, ("icmp_input: ip_output_if returned an error: %s\n", lwip_strerr(
 561              		.loc 1 252 9 is_stmt 1 view .LVU182
 562 0132 DDE7     		b	.L12
 563              	.L29:
 564              		.align	2
 565              	.L28:
 566 0134 00000000 		.word	ip_data
 567 0138 00000000 		.word	.LC0
 568 013c 00000000 		.word	.LC3
 569 0140 9C000000 		.word	.LC2
 570 0144 38000000 		.word	.LC4
 571              	.LBE5:
 572              		.cfi_endproc
 573              	.LFE155:
 575              		.section	.text.icmp_dest_unreach,"ax",%progbits
 576              		.align	1
 577              		.global	icmp_dest_unreach
 578              		.syntax unified
 579              		.thumb
 580              		.thumb_func
 581              		.fpu fpv4-sp-d16
 583              	icmp_dest_unreach:
 584              	.LVL56:
 585              	.LFB156:
ARM GAS  /var/folders/k2/cd9bl_j17z77g23y6ffqb_400000gn/T//ccdkNnUQ.s 			page 21


 309:/Users/nhantt/STM32Cube/Repository/STM32Cube_FW_F4_V1.26.0/Middlewares/Third_Party/LwIP/src/core/ipv4/icmp.c ****   MIB2_STATS_INC(mib2.icmpoutdestunreachs);
 586              		.loc 1 309 1 view -0
 587              		.cfi_startproc
 588              		@ args = 0, pretend = 0, frame = 0
 589              		@ frame_needed = 0, uses_anonymous_args = 0
 309:/Users/nhantt/STM32Cube/Repository/STM32Cube_FW_F4_V1.26.0/Middlewares/Third_Party/LwIP/src/core/ipv4/icmp.c ****   MIB2_STATS_INC(mib2.icmpoutdestunreachs);
 590              		.loc 1 309 1 is_stmt 0 view .LVU184
 591 0000 08B5     		push	{r3, lr}
 592              	.LCFI8:
 593              		.cfi_def_cfa_offset 8
 594              		.cfi_offset 3, -8
 595              		.cfi_offset 14, -4
 596 0002 0A46     		mov	r2, r1
 310:/Users/nhantt/STM32Cube/Repository/STM32Cube_FW_F4_V1.26.0/Middlewares/Third_Party/LwIP/src/core/ipv4/icmp.c ****   icmp_send_response(p, ICMP_DUR, t);
 597              		.loc 1 310 43 is_stmt 1 view .LVU185
 311:/Users/nhantt/STM32Cube/Repository/STM32Cube_FW_F4_V1.26.0/Middlewares/Third_Party/LwIP/src/core/ipv4/icmp.c **** }
 598              		.loc 1 311 3 view .LVU186
 599 0004 0321     		movs	r1, #3
 600              	.LVL57:
 311:/Users/nhantt/STM32Cube/Repository/STM32Cube_FW_F4_V1.26.0/Middlewares/Third_Party/LwIP/src/core/ipv4/icmp.c **** }
 601              		.loc 1 311 3 is_stmt 0 view .LVU187
 602 0006 FFF7FEFF 		bl	icmp_send_response
 603              	.LVL58:
 312:/Users/nhantt/STM32Cube/Repository/STM32Cube_FW_F4_V1.26.0/Middlewares/Third_Party/LwIP/src/core/ipv4/icmp.c **** 
 604              		.loc 1 312 1 view .LVU188
 605 000a 08BD     		pop	{r3, pc}
 606              		.cfi_endproc
 607              	.LFE156:
 609              		.section	.text.icmp_time_exceeded,"ax",%progbits
 610              		.align	1
 611              		.global	icmp_time_exceeded
 612              		.syntax unified
 613              		.thumb
 614              		.thumb_func
 615              		.fpu fpv4-sp-d16
 617              	icmp_time_exceeded:
 618              	.LVL59:
 619              	.LFB157:
 324:/Users/nhantt/STM32Cube/Repository/STM32Cube_FW_F4_V1.26.0/Middlewares/Third_Party/LwIP/src/core/ipv4/icmp.c ****   MIB2_STATS_INC(mib2.icmpouttimeexcds);
 620              		.loc 1 324 1 is_stmt 1 view -0
 621              		.cfi_startproc
 622              		@ args = 0, pretend = 0, frame = 0
 623              		@ frame_needed = 0, uses_anonymous_args = 0
 324:/Users/nhantt/STM32Cube/Repository/STM32Cube_FW_F4_V1.26.0/Middlewares/Third_Party/LwIP/src/core/ipv4/icmp.c ****   MIB2_STATS_INC(mib2.icmpouttimeexcds);
 624              		.loc 1 324 1 is_stmt 0 view .LVU190
 625 0000 08B5     		push	{r3, lr}
 626              	.LCFI9:
 627              		.cfi_def_cfa_offset 8
 628              		.cfi_offset 3, -8
 629              		.cfi_offset 14, -4
 630 0002 0A46     		mov	r2, r1
 325:/Users/nhantt/STM32Cube/Repository/STM32Cube_FW_F4_V1.26.0/Middlewares/Third_Party/LwIP/src/core/ipv4/icmp.c ****   icmp_send_response(p, ICMP_TE, t);
 631              		.loc 1 325 40 is_stmt 1 view .LVU191
 326:/Users/nhantt/STM32Cube/Repository/STM32Cube_FW_F4_V1.26.0/Middlewares/Third_Party/LwIP/src/core/ipv4/icmp.c **** }
 632              		.loc 1 326 3 view .LVU192
 633 0004 0B21     		movs	r1, #11
 634              	.LVL60:
ARM GAS  /var/folders/k2/cd9bl_j17z77g23y6ffqb_400000gn/T//ccdkNnUQ.s 			page 22


 326:/Users/nhantt/STM32Cube/Repository/STM32Cube_FW_F4_V1.26.0/Middlewares/Third_Party/LwIP/src/core/ipv4/icmp.c **** }
 635              		.loc 1 326 3 is_stmt 0 view .LVU193
 636 0006 FFF7FEFF 		bl	icmp_send_response
 637              	.LVL61:
 327:/Users/nhantt/STM32Cube/Repository/STM32Cube_FW_F4_V1.26.0/Middlewares/Third_Party/LwIP/src/core/ipv4/icmp.c **** 
 638              		.loc 1 327 1 view .LVU194
 639 000a 08BD     		pop	{r3, pc}
 640              		.cfi_endproc
 641              	.LFE157:
 643              		.text
 644              	.Letext0:
 645              		.file 2 "/Users/nhantt/tools/stm32/gcc-arm-none-eabi-10-2020-q4-major/arm-none-eabi/include/machin
 646              		.file 3 "/Users/nhantt/tools/stm32/gcc-arm-none-eabi-10-2020-q4-major/arm-none-eabi/include/sys/_s
 647              		.file 4 "/Users/nhantt/STM32Cube/Repository/STM32Cube_FW_F4_V1.26.0/Middlewares/Third_Party/LwIP/s
 648              		.file 5 "/Users/nhantt/STM32Cube/Repository/STM32Cube_FW_F4_V1.26.0/Middlewares/Third_Party/LwIP/s
 649              		.file 6 "/Users/nhantt/STM32Cube/Repository/STM32Cube_FW_F4_V1.26.0/Middlewares/Third_Party/LwIP/s
 650              		.file 7 "/Users/nhantt/STM32Cube/Repository/STM32Cube_FW_F4_V1.26.0/Middlewares/Third_Party/LwIP/s
 651              		.file 8 "/Users/nhantt/STM32Cube/Repository/STM32Cube_FW_F4_V1.26.0/Middlewares/Third_Party/LwIP/s
 652              		.file 9 "/Users/nhantt/STM32Cube/Repository/STM32Cube_FW_F4_V1.26.0/Middlewares/Third_Party/LwIP/s
 653              		.file 10 "/Users/nhantt/STM32Cube/Repository/STM32Cube_FW_F4_V1.26.0/Middlewares/Third_Party/LwIP/
 654              		.file 11 "/Users/nhantt/STM32Cube/Repository/STM32Cube_FW_F4_V1.26.0/Middlewares/Third_Party/LwIP/
 655              		.file 12 "/Users/nhantt/STM32Cube/Repository/STM32Cube_FW_F4_V1.26.0/Middlewares/Third_Party/LwIP/
 656              		.file 13 "/Users/nhantt/STM32Cube/Repository/STM32Cube_FW_F4_V1.26.0/Middlewares/Third_Party/LwIP/
 657              		.file 14 "/Users/nhantt/STM32Cube/Repository/STM32Cube_FW_F4_V1.26.0/Middlewares/Third_Party/LwIP/
 658              		.file 15 "/Users/nhantt/tools/stm32/gcc-arm-none-eabi-10-2020-q4-major/arm-none-eabi/include/stdio
 659              		.file 16 "<built-in>"
ARM GAS  /var/folders/k2/cd9bl_j17z77g23y6ffqb_400000gn/T//ccdkNnUQ.s 			page 23

