ARM GAS  C:\Users\BLACK_~1\AppData\Local\Temp\cct9trHa.s 			page 1


   1              		.cpu cortex-m4
   2              		.arch armv7e-m
   3              		.fpu fpv4-sp-d16
   4              		.eabi_attribute 27, 1
   5              		.eabi_attribute 28, 1
   6              		.eabi_attribute 20, 1
   7              		.eabi_attribute 21, 1
   8              		.eabi_attribute 23, 3
   9              		.eabi_attribute 24, 1
  10              		.eabi_attribute 25, 1
  11              		.eabi_attribute 26, 1
  12              		.eabi_attribute 30, 1
  13              		.eabi_attribute 34, 1
  14              		.eabi_attribute 18, 4
  15              		.file	"ip4.c"
  16              		.text
  17              	.Ltext0:
  18              		.cfi_sections	.debug_frame
  19              		.section	.text.ip4_input_accept,"ax",%progbits
  20              		.align	1
  21              		.syntax unified
  22              		.thumb
  23              		.thumb_func
  25              	ip4_input_accept:
  26              	.LVL0:
  27              	.LFB157:
  28              		.file 1 "c:/Users/Black_Life/STM32Cube/Repository/STM32Cube_FW_F4_V1.26.2/Middlewares/Third_Party/
   1:c:/Users/Black_Life/STM32Cube/Repository/STM32Cube_FW_F4_V1.26.2/Middlewares/Third_Party/LwIP/src/core/ipv4\ip4.c **** /**
   2:c:/Users/Black_Life/STM32Cube/Repository/STM32Cube_FW_F4_V1.26.2/Middlewares/Third_Party/LwIP/src/core/ipv4\ip4.c ****  * @file
   3:c:/Users/Black_Life/STM32Cube/Repository/STM32Cube_FW_F4_V1.26.2/Middlewares/Third_Party/LwIP/src/core/ipv4\ip4.c ****  * This is the IPv4 layer implementation for incoming and outgoing IP traffic.
   4:c:/Users/Black_Life/STM32Cube/Repository/STM32Cube_FW_F4_V1.26.2/Middlewares/Third_Party/LwIP/src/core/ipv4\ip4.c ****  *
   5:c:/Users/Black_Life/STM32Cube/Repository/STM32Cube_FW_F4_V1.26.2/Middlewares/Third_Party/LwIP/src/core/ipv4\ip4.c ****  * @see ip_frag.c
   6:c:/Users/Black_Life/STM32Cube/Repository/STM32Cube_FW_F4_V1.26.2/Middlewares/Third_Party/LwIP/src/core/ipv4\ip4.c ****  *
   7:c:/Users/Black_Life/STM32Cube/Repository/STM32Cube_FW_F4_V1.26.2/Middlewares/Third_Party/LwIP/src/core/ipv4\ip4.c ****  */
   8:c:/Users/Black_Life/STM32Cube/Repository/STM32Cube_FW_F4_V1.26.2/Middlewares/Third_Party/LwIP/src/core/ipv4\ip4.c **** 
   9:c:/Users/Black_Life/STM32Cube/Repository/STM32Cube_FW_F4_V1.26.2/Middlewares/Third_Party/LwIP/src/core/ipv4\ip4.c **** /*
  10:c:/Users/Black_Life/STM32Cube/Repository/STM32Cube_FW_F4_V1.26.2/Middlewares/Third_Party/LwIP/src/core/ipv4\ip4.c ****  * Copyright (c) 2001-2004 Swedish Institute of Computer Science.
  11:c:/Users/Black_Life/STM32Cube/Repository/STM32Cube_FW_F4_V1.26.2/Middlewares/Third_Party/LwIP/src/core/ipv4\ip4.c ****  * All rights reserved.
  12:c:/Users/Black_Life/STM32Cube/Repository/STM32Cube_FW_F4_V1.26.2/Middlewares/Third_Party/LwIP/src/core/ipv4\ip4.c ****  *
  13:c:/Users/Black_Life/STM32Cube/Repository/STM32Cube_FW_F4_V1.26.2/Middlewares/Third_Party/LwIP/src/core/ipv4\ip4.c ****  * Redistribution and use in source and binary forms, with or without modification,
  14:c:/Users/Black_Life/STM32Cube/Repository/STM32Cube_FW_F4_V1.26.2/Middlewares/Third_Party/LwIP/src/core/ipv4\ip4.c ****  * are permitted provided that the following conditions are met:
  15:c:/Users/Black_Life/STM32Cube/Repository/STM32Cube_FW_F4_V1.26.2/Middlewares/Third_Party/LwIP/src/core/ipv4\ip4.c ****  *
  16:c:/Users/Black_Life/STM32Cube/Repository/STM32Cube_FW_F4_V1.26.2/Middlewares/Third_Party/LwIP/src/core/ipv4\ip4.c ****  * 1. Redistributions of source code must retain the above copyright notice,
  17:c:/Users/Black_Life/STM32Cube/Repository/STM32Cube_FW_F4_V1.26.2/Middlewares/Third_Party/LwIP/src/core/ipv4\ip4.c ****  *    this list of conditions and the following disclaimer.
  18:c:/Users/Black_Life/STM32Cube/Repository/STM32Cube_FW_F4_V1.26.2/Middlewares/Third_Party/LwIP/src/core/ipv4\ip4.c ****  * 2. Redistributions in binary form must reproduce the above copyright notice,
  19:c:/Users/Black_Life/STM32Cube/Repository/STM32Cube_FW_F4_V1.26.2/Middlewares/Third_Party/LwIP/src/core/ipv4\ip4.c ****  *    this list of conditions and the following disclaimer in the documentation
  20:c:/Users/Black_Life/STM32Cube/Repository/STM32Cube_FW_F4_V1.26.2/Middlewares/Third_Party/LwIP/src/core/ipv4\ip4.c ****  *    and/or other materials provided with the distribution.
  21:c:/Users/Black_Life/STM32Cube/Repository/STM32Cube_FW_F4_V1.26.2/Middlewares/Third_Party/LwIP/src/core/ipv4\ip4.c ****  * 3. The name of the author may not be used to endorse or promote products
  22:c:/Users/Black_Life/STM32Cube/Repository/STM32Cube_FW_F4_V1.26.2/Middlewares/Third_Party/LwIP/src/core/ipv4\ip4.c ****  *    derived from this software without specific prior written permission.
  23:c:/Users/Black_Life/STM32Cube/Repository/STM32Cube_FW_F4_V1.26.2/Middlewares/Third_Party/LwIP/src/core/ipv4\ip4.c ****  *
  24:c:/Users/Black_Life/STM32Cube/Repository/STM32Cube_FW_F4_V1.26.2/Middlewares/Third_Party/LwIP/src/core/ipv4\ip4.c ****  * THIS SOFTWARE IS PROVIDED BY THE AUTHOR ``AS IS'' AND ANY EXPRESS OR IMPLIED
  25:c:/Users/Black_Life/STM32Cube/Repository/STM32Cube_FW_F4_V1.26.2/Middlewares/Third_Party/LwIP/src/core/ipv4\ip4.c ****  * WARRANTIES, INCLUDING, BUT NOT LIMITED TO, THE IMPLIED WARRANTIES OF
  26:c:/Users/Black_Life/STM32Cube/Repository/STM32Cube_FW_F4_V1.26.2/Middlewares/Third_Party/LwIP/src/core/ipv4\ip4.c ****  * MERCHANTABILITY AND FITNESS FOR A PARTICULAR PURPOSE ARE DISCLAIMED. IN NO EVENT
  27:c:/Users/Black_Life/STM32Cube/Repository/STM32Cube_FW_F4_V1.26.2/Middlewares/Third_Party/LwIP/src/core/ipv4\ip4.c ****  * SHALL THE AUTHOR BE LIABLE FOR ANY DIRECT, INDIRECT, INCIDENTAL, SPECIAL,
  28:c:/Users/Black_Life/STM32Cube/Repository/STM32Cube_FW_F4_V1.26.2/Middlewares/Third_Party/LwIP/src/core/ipv4\ip4.c ****  * EXEMPLARY, OR CONSEQUENTIAL DAMAGES (INCLUDING, BUT NOT LIMITED TO, PROCUREMENT
  29:c:/Users/Black_Life/STM32Cube/Repository/STM32Cube_FW_F4_V1.26.2/Middlewares/Third_Party/LwIP/src/core/ipv4\ip4.c ****  * OF SUBSTITUTE GOODS OR SERVICES; LOSS OF USE, DATA, OR PROFITS; OR BUSINESS
  30:c:/Users/Black_Life/STM32Cube/Repository/STM32Cube_FW_F4_V1.26.2/Middlewares/Third_Party/LwIP/src/core/ipv4\ip4.c ****  * INTERRUPTION) HOWEVER CAUSED AND ON ANY THEORY OF LIABILITY, WHETHER IN
ARM GAS  C:\Users\BLACK_~1\AppData\Local\Temp\cct9trHa.s 			page 2


  31:c:/Users/Black_Life/STM32Cube/Repository/STM32Cube_FW_F4_V1.26.2/Middlewares/Third_Party/LwIP/src/core/ipv4\ip4.c ****  * CONTRACT, STRICT LIABILITY, OR TORT (INCLUDING NEGLIGENCE OR OTHERWISE) ARISING
  32:c:/Users/Black_Life/STM32Cube/Repository/STM32Cube_FW_F4_V1.26.2/Middlewares/Third_Party/LwIP/src/core/ipv4\ip4.c ****  * IN ANY WAY OUT OF THE USE OF THIS SOFTWARE, EVEN IF ADVISED OF THE POSSIBILITY
  33:c:/Users/Black_Life/STM32Cube/Repository/STM32Cube_FW_F4_V1.26.2/Middlewares/Third_Party/LwIP/src/core/ipv4\ip4.c ****  * OF SUCH DAMAGE.
  34:c:/Users/Black_Life/STM32Cube/Repository/STM32Cube_FW_F4_V1.26.2/Middlewares/Third_Party/LwIP/src/core/ipv4\ip4.c ****  *
  35:c:/Users/Black_Life/STM32Cube/Repository/STM32Cube_FW_F4_V1.26.2/Middlewares/Third_Party/LwIP/src/core/ipv4\ip4.c ****  * This file is part of the lwIP TCP/IP stack.
  36:c:/Users/Black_Life/STM32Cube/Repository/STM32Cube_FW_F4_V1.26.2/Middlewares/Third_Party/LwIP/src/core/ipv4\ip4.c ****  *
  37:c:/Users/Black_Life/STM32Cube/Repository/STM32Cube_FW_F4_V1.26.2/Middlewares/Third_Party/LwIP/src/core/ipv4\ip4.c ****  * Author: Adam Dunkels <adam@sics.se>
  38:c:/Users/Black_Life/STM32Cube/Repository/STM32Cube_FW_F4_V1.26.2/Middlewares/Third_Party/LwIP/src/core/ipv4\ip4.c ****  *
  39:c:/Users/Black_Life/STM32Cube/Repository/STM32Cube_FW_F4_V1.26.2/Middlewares/Third_Party/LwIP/src/core/ipv4\ip4.c ****  */
  40:c:/Users/Black_Life/STM32Cube/Repository/STM32Cube_FW_F4_V1.26.2/Middlewares/Third_Party/LwIP/src/core/ipv4\ip4.c **** 
  41:c:/Users/Black_Life/STM32Cube/Repository/STM32Cube_FW_F4_V1.26.2/Middlewares/Third_Party/LwIP/src/core/ipv4\ip4.c **** #include "lwip/opt.h"
  42:c:/Users/Black_Life/STM32Cube/Repository/STM32Cube_FW_F4_V1.26.2/Middlewares/Third_Party/LwIP/src/core/ipv4\ip4.c **** 
  43:c:/Users/Black_Life/STM32Cube/Repository/STM32Cube_FW_F4_V1.26.2/Middlewares/Third_Party/LwIP/src/core/ipv4\ip4.c **** #if LWIP_IPV4
  44:c:/Users/Black_Life/STM32Cube/Repository/STM32Cube_FW_F4_V1.26.2/Middlewares/Third_Party/LwIP/src/core/ipv4\ip4.c **** 
  45:c:/Users/Black_Life/STM32Cube/Repository/STM32Cube_FW_F4_V1.26.2/Middlewares/Third_Party/LwIP/src/core/ipv4\ip4.c **** #include "lwip/ip.h"
  46:c:/Users/Black_Life/STM32Cube/Repository/STM32Cube_FW_F4_V1.26.2/Middlewares/Third_Party/LwIP/src/core/ipv4\ip4.c **** #include "lwip/def.h"
  47:c:/Users/Black_Life/STM32Cube/Repository/STM32Cube_FW_F4_V1.26.2/Middlewares/Third_Party/LwIP/src/core/ipv4\ip4.c **** #include "lwip/mem.h"
  48:c:/Users/Black_Life/STM32Cube/Repository/STM32Cube_FW_F4_V1.26.2/Middlewares/Third_Party/LwIP/src/core/ipv4\ip4.c **** #include "lwip/ip4_frag.h"
  49:c:/Users/Black_Life/STM32Cube/Repository/STM32Cube_FW_F4_V1.26.2/Middlewares/Third_Party/LwIP/src/core/ipv4\ip4.c **** #include "lwip/inet_chksum.h"
  50:c:/Users/Black_Life/STM32Cube/Repository/STM32Cube_FW_F4_V1.26.2/Middlewares/Third_Party/LwIP/src/core/ipv4\ip4.c **** #include "lwip/netif.h"
  51:c:/Users/Black_Life/STM32Cube/Repository/STM32Cube_FW_F4_V1.26.2/Middlewares/Third_Party/LwIP/src/core/ipv4\ip4.c **** #include "lwip/icmp.h"
  52:c:/Users/Black_Life/STM32Cube/Repository/STM32Cube_FW_F4_V1.26.2/Middlewares/Third_Party/LwIP/src/core/ipv4\ip4.c **** #include "lwip/igmp.h"
  53:c:/Users/Black_Life/STM32Cube/Repository/STM32Cube_FW_F4_V1.26.2/Middlewares/Third_Party/LwIP/src/core/ipv4\ip4.c **** #include "lwip/priv/raw_priv.h"
  54:c:/Users/Black_Life/STM32Cube/Repository/STM32Cube_FW_F4_V1.26.2/Middlewares/Third_Party/LwIP/src/core/ipv4\ip4.c **** #include "lwip/udp.h"
  55:c:/Users/Black_Life/STM32Cube/Repository/STM32Cube_FW_F4_V1.26.2/Middlewares/Third_Party/LwIP/src/core/ipv4\ip4.c **** #include "lwip/priv/tcp_priv.h"
  56:c:/Users/Black_Life/STM32Cube/Repository/STM32Cube_FW_F4_V1.26.2/Middlewares/Third_Party/LwIP/src/core/ipv4\ip4.c **** #include "lwip/autoip.h"
  57:c:/Users/Black_Life/STM32Cube/Repository/STM32Cube_FW_F4_V1.26.2/Middlewares/Third_Party/LwIP/src/core/ipv4\ip4.c **** #include "lwip/stats.h"
  58:c:/Users/Black_Life/STM32Cube/Repository/STM32Cube_FW_F4_V1.26.2/Middlewares/Third_Party/LwIP/src/core/ipv4\ip4.c **** #include "lwip/prot/iana.h"
  59:c:/Users/Black_Life/STM32Cube/Repository/STM32Cube_FW_F4_V1.26.2/Middlewares/Third_Party/LwIP/src/core/ipv4\ip4.c **** 
  60:c:/Users/Black_Life/STM32Cube/Repository/STM32Cube_FW_F4_V1.26.2/Middlewares/Third_Party/LwIP/src/core/ipv4\ip4.c **** #include <string.h>
  61:c:/Users/Black_Life/STM32Cube/Repository/STM32Cube_FW_F4_V1.26.2/Middlewares/Third_Party/LwIP/src/core/ipv4\ip4.c **** 
  62:c:/Users/Black_Life/STM32Cube/Repository/STM32Cube_FW_F4_V1.26.2/Middlewares/Third_Party/LwIP/src/core/ipv4\ip4.c **** #ifdef LWIP_HOOK_FILENAME
  63:c:/Users/Black_Life/STM32Cube/Repository/STM32Cube_FW_F4_V1.26.2/Middlewares/Third_Party/LwIP/src/core/ipv4\ip4.c **** #include LWIP_HOOK_FILENAME
  64:c:/Users/Black_Life/STM32Cube/Repository/STM32Cube_FW_F4_V1.26.2/Middlewares/Third_Party/LwIP/src/core/ipv4\ip4.c **** #endif
  65:c:/Users/Black_Life/STM32Cube/Repository/STM32Cube_FW_F4_V1.26.2/Middlewares/Third_Party/LwIP/src/core/ipv4\ip4.c **** 
  66:c:/Users/Black_Life/STM32Cube/Repository/STM32Cube_FW_F4_V1.26.2/Middlewares/Third_Party/LwIP/src/core/ipv4\ip4.c **** /** Set this to 0 in the rare case of wanting to call an extra function to
  67:c:/Users/Black_Life/STM32Cube/Repository/STM32Cube_FW_F4_V1.26.2/Middlewares/Third_Party/LwIP/src/core/ipv4\ip4.c ****  * generate the IP checksum (in contrast to calculating it on-the-fly). */
  68:c:/Users/Black_Life/STM32Cube/Repository/STM32Cube_FW_F4_V1.26.2/Middlewares/Third_Party/LwIP/src/core/ipv4\ip4.c **** #ifndef LWIP_INLINE_IP_CHKSUM
  69:c:/Users/Black_Life/STM32Cube/Repository/STM32Cube_FW_F4_V1.26.2/Middlewares/Third_Party/LwIP/src/core/ipv4\ip4.c **** #if LWIP_CHECKSUM_CTRL_PER_NETIF
  70:c:/Users/Black_Life/STM32Cube/Repository/STM32Cube_FW_F4_V1.26.2/Middlewares/Third_Party/LwIP/src/core/ipv4\ip4.c **** #define LWIP_INLINE_IP_CHKSUM   0
  71:c:/Users/Black_Life/STM32Cube/Repository/STM32Cube_FW_F4_V1.26.2/Middlewares/Third_Party/LwIP/src/core/ipv4\ip4.c **** #else /* LWIP_CHECKSUM_CTRL_PER_NETIF */
  72:c:/Users/Black_Life/STM32Cube/Repository/STM32Cube_FW_F4_V1.26.2/Middlewares/Third_Party/LwIP/src/core/ipv4\ip4.c **** #define LWIP_INLINE_IP_CHKSUM   1
  73:c:/Users/Black_Life/STM32Cube/Repository/STM32Cube_FW_F4_V1.26.2/Middlewares/Third_Party/LwIP/src/core/ipv4\ip4.c **** #endif /* LWIP_CHECKSUM_CTRL_PER_NETIF */
  74:c:/Users/Black_Life/STM32Cube/Repository/STM32Cube_FW_F4_V1.26.2/Middlewares/Third_Party/LwIP/src/core/ipv4\ip4.c **** #endif
  75:c:/Users/Black_Life/STM32Cube/Repository/STM32Cube_FW_F4_V1.26.2/Middlewares/Third_Party/LwIP/src/core/ipv4\ip4.c **** 
  76:c:/Users/Black_Life/STM32Cube/Repository/STM32Cube_FW_F4_V1.26.2/Middlewares/Third_Party/LwIP/src/core/ipv4\ip4.c **** #if LWIP_INLINE_IP_CHKSUM && CHECKSUM_GEN_IP
  77:c:/Users/Black_Life/STM32Cube/Repository/STM32Cube_FW_F4_V1.26.2/Middlewares/Third_Party/LwIP/src/core/ipv4\ip4.c **** #define CHECKSUM_GEN_IP_INLINE  1
  78:c:/Users/Black_Life/STM32Cube/Repository/STM32Cube_FW_F4_V1.26.2/Middlewares/Third_Party/LwIP/src/core/ipv4\ip4.c **** #else
  79:c:/Users/Black_Life/STM32Cube/Repository/STM32Cube_FW_F4_V1.26.2/Middlewares/Third_Party/LwIP/src/core/ipv4\ip4.c **** #define CHECKSUM_GEN_IP_INLINE  0
  80:c:/Users/Black_Life/STM32Cube/Repository/STM32Cube_FW_F4_V1.26.2/Middlewares/Third_Party/LwIP/src/core/ipv4\ip4.c **** #endif
  81:c:/Users/Black_Life/STM32Cube/Repository/STM32Cube_FW_F4_V1.26.2/Middlewares/Third_Party/LwIP/src/core/ipv4\ip4.c **** 
  82:c:/Users/Black_Life/STM32Cube/Repository/STM32Cube_FW_F4_V1.26.2/Middlewares/Third_Party/LwIP/src/core/ipv4\ip4.c **** #if LWIP_DHCP || defined(LWIP_IP_ACCEPT_UDP_PORT)
  83:c:/Users/Black_Life/STM32Cube/Repository/STM32Cube_FW_F4_V1.26.2/Middlewares/Third_Party/LwIP/src/core/ipv4\ip4.c **** #define IP_ACCEPT_LINK_LAYER_ADDRESSING 1
  84:c:/Users/Black_Life/STM32Cube/Repository/STM32Cube_FW_F4_V1.26.2/Middlewares/Third_Party/LwIP/src/core/ipv4\ip4.c **** 
  85:c:/Users/Black_Life/STM32Cube/Repository/STM32Cube_FW_F4_V1.26.2/Middlewares/Third_Party/LwIP/src/core/ipv4\ip4.c **** /** Some defines for DHCP to let link-layer-addressed packets through while the
  86:c:/Users/Black_Life/STM32Cube/Repository/STM32Cube_FW_F4_V1.26.2/Middlewares/Third_Party/LwIP/src/core/ipv4\ip4.c ****  * netif is down.
  87:c:/Users/Black_Life/STM32Cube/Repository/STM32Cube_FW_F4_V1.26.2/Middlewares/Third_Party/LwIP/src/core/ipv4\ip4.c ****  * To use this in your own application/protocol, define LWIP_IP_ACCEPT_UDP_PORT(port)
ARM GAS  C:\Users\BLACK_~1\AppData\Local\Temp\cct9trHa.s 			page 3


  88:c:/Users/Black_Life/STM32Cube/Repository/STM32Cube_FW_F4_V1.26.2/Middlewares/Third_Party/LwIP/src/core/ipv4\ip4.c ****  * to return 1 if the port is accepted and 0 if the port is not accepted.
  89:c:/Users/Black_Life/STM32Cube/Repository/STM32Cube_FW_F4_V1.26.2/Middlewares/Third_Party/LwIP/src/core/ipv4\ip4.c ****  */
  90:c:/Users/Black_Life/STM32Cube/Repository/STM32Cube_FW_F4_V1.26.2/Middlewares/Third_Party/LwIP/src/core/ipv4\ip4.c **** #if LWIP_DHCP && defined(LWIP_IP_ACCEPT_UDP_PORT)
  91:c:/Users/Black_Life/STM32Cube/Repository/STM32Cube_FW_F4_V1.26.2/Middlewares/Third_Party/LwIP/src/core/ipv4\ip4.c **** /* accept DHCP client port and custom port */
  92:c:/Users/Black_Life/STM32Cube/Repository/STM32Cube_FW_F4_V1.26.2/Middlewares/Third_Party/LwIP/src/core/ipv4\ip4.c **** #define IP_ACCEPT_LINK_LAYER_ADDRESSED_PORT(port) (((port) == PP_NTOHS(LWIP_IANA_PORT_DHCP_CLIENT))
  93:c:/Users/Black_Life/STM32Cube/Repository/STM32Cube_FW_F4_V1.26.2/Middlewares/Third_Party/LwIP/src/core/ipv4\ip4.c ****          || (LWIP_IP_ACCEPT_UDP_PORT(port)))
  94:c:/Users/Black_Life/STM32Cube/Repository/STM32Cube_FW_F4_V1.26.2/Middlewares/Third_Party/LwIP/src/core/ipv4\ip4.c **** #elif defined(LWIP_IP_ACCEPT_UDP_PORT) /* LWIP_DHCP && defined(LWIP_IP_ACCEPT_UDP_PORT) */
  95:c:/Users/Black_Life/STM32Cube/Repository/STM32Cube_FW_F4_V1.26.2/Middlewares/Third_Party/LwIP/src/core/ipv4\ip4.c **** /* accept custom port only */
  96:c:/Users/Black_Life/STM32Cube/Repository/STM32Cube_FW_F4_V1.26.2/Middlewares/Third_Party/LwIP/src/core/ipv4\ip4.c **** #define IP_ACCEPT_LINK_LAYER_ADDRESSED_PORT(port) (LWIP_IP_ACCEPT_UDP_PORT(port))
  97:c:/Users/Black_Life/STM32Cube/Repository/STM32Cube_FW_F4_V1.26.2/Middlewares/Third_Party/LwIP/src/core/ipv4\ip4.c **** #else /* LWIP_DHCP && defined(LWIP_IP_ACCEPT_UDP_PORT) */
  98:c:/Users/Black_Life/STM32Cube/Repository/STM32Cube_FW_F4_V1.26.2/Middlewares/Third_Party/LwIP/src/core/ipv4\ip4.c **** /* accept DHCP client port only */
  99:c:/Users/Black_Life/STM32Cube/Repository/STM32Cube_FW_F4_V1.26.2/Middlewares/Third_Party/LwIP/src/core/ipv4\ip4.c **** #define IP_ACCEPT_LINK_LAYER_ADDRESSED_PORT(port) ((port) == PP_NTOHS(LWIP_IANA_PORT_DHCP_CLIENT))
 100:c:/Users/Black_Life/STM32Cube/Repository/STM32Cube_FW_F4_V1.26.2/Middlewares/Third_Party/LwIP/src/core/ipv4\ip4.c **** #endif /* LWIP_DHCP && defined(LWIP_IP_ACCEPT_UDP_PORT) */
 101:c:/Users/Black_Life/STM32Cube/Repository/STM32Cube_FW_F4_V1.26.2/Middlewares/Third_Party/LwIP/src/core/ipv4\ip4.c **** 
 102:c:/Users/Black_Life/STM32Cube/Repository/STM32Cube_FW_F4_V1.26.2/Middlewares/Third_Party/LwIP/src/core/ipv4\ip4.c **** #else /* LWIP_DHCP */
 103:c:/Users/Black_Life/STM32Cube/Repository/STM32Cube_FW_F4_V1.26.2/Middlewares/Third_Party/LwIP/src/core/ipv4\ip4.c **** #define IP_ACCEPT_LINK_LAYER_ADDRESSING 0
 104:c:/Users/Black_Life/STM32Cube/Repository/STM32Cube_FW_F4_V1.26.2/Middlewares/Third_Party/LwIP/src/core/ipv4\ip4.c **** #endif /* LWIP_DHCP */
 105:c:/Users/Black_Life/STM32Cube/Repository/STM32Cube_FW_F4_V1.26.2/Middlewares/Third_Party/LwIP/src/core/ipv4\ip4.c **** 
 106:c:/Users/Black_Life/STM32Cube/Repository/STM32Cube_FW_F4_V1.26.2/Middlewares/Third_Party/LwIP/src/core/ipv4\ip4.c **** /** The IP header ID of the next outgoing IP packet */
 107:c:/Users/Black_Life/STM32Cube/Repository/STM32Cube_FW_F4_V1.26.2/Middlewares/Third_Party/LwIP/src/core/ipv4\ip4.c **** static u16_t ip_id;
 108:c:/Users/Black_Life/STM32Cube/Repository/STM32Cube_FW_F4_V1.26.2/Middlewares/Third_Party/LwIP/src/core/ipv4\ip4.c **** 
 109:c:/Users/Black_Life/STM32Cube/Repository/STM32Cube_FW_F4_V1.26.2/Middlewares/Third_Party/LwIP/src/core/ipv4\ip4.c **** #if LWIP_MULTICAST_TX_OPTIONS
 110:c:/Users/Black_Life/STM32Cube/Repository/STM32Cube_FW_F4_V1.26.2/Middlewares/Third_Party/LwIP/src/core/ipv4\ip4.c **** /** The default netif used for multicast */
 111:c:/Users/Black_Life/STM32Cube/Repository/STM32Cube_FW_F4_V1.26.2/Middlewares/Third_Party/LwIP/src/core/ipv4\ip4.c **** static struct netif *ip4_default_multicast_netif;
 112:c:/Users/Black_Life/STM32Cube/Repository/STM32Cube_FW_F4_V1.26.2/Middlewares/Third_Party/LwIP/src/core/ipv4\ip4.c **** 
 113:c:/Users/Black_Life/STM32Cube/Repository/STM32Cube_FW_F4_V1.26.2/Middlewares/Third_Party/LwIP/src/core/ipv4\ip4.c **** /**
 114:c:/Users/Black_Life/STM32Cube/Repository/STM32Cube_FW_F4_V1.26.2/Middlewares/Third_Party/LwIP/src/core/ipv4\ip4.c ****  * @ingroup ip4
 115:c:/Users/Black_Life/STM32Cube/Repository/STM32Cube_FW_F4_V1.26.2/Middlewares/Third_Party/LwIP/src/core/ipv4\ip4.c ****  * Set a default netif for IPv4 multicast. */
 116:c:/Users/Black_Life/STM32Cube/Repository/STM32Cube_FW_F4_V1.26.2/Middlewares/Third_Party/LwIP/src/core/ipv4\ip4.c **** void
 117:c:/Users/Black_Life/STM32Cube/Repository/STM32Cube_FW_F4_V1.26.2/Middlewares/Third_Party/LwIP/src/core/ipv4\ip4.c **** ip4_set_default_multicast_netif(struct netif *default_multicast_netif)
 118:c:/Users/Black_Life/STM32Cube/Repository/STM32Cube_FW_F4_V1.26.2/Middlewares/Third_Party/LwIP/src/core/ipv4\ip4.c **** {
 119:c:/Users/Black_Life/STM32Cube/Repository/STM32Cube_FW_F4_V1.26.2/Middlewares/Third_Party/LwIP/src/core/ipv4\ip4.c ****   ip4_default_multicast_netif = default_multicast_netif;
 120:c:/Users/Black_Life/STM32Cube/Repository/STM32Cube_FW_F4_V1.26.2/Middlewares/Third_Party/LwIP/src/core/ipv4\ip4.c **** }
 121:c:/Users/Black_Life/STM32Cube/Repository/STM32Cube_FW_F4_V1.26.2/Middlewares/Third_Party/LwIP/src/core/ipv4\ip4.c **** #endif /* LWIP_MULTICAST_TX_OPTIONS */
 122:c:/Users/Black_Life/STM32Cube/Repository/STM32Cube_FW_F4_V1.26.2/Middlewares/Third_Party/LwIP/src/core/ipv4\ip4.c **** 
 123:c:/Users/Black_Life/STM32Cube/Repository/STM32Cube_FW_F4_V1.26.2/Middlewares/Third_Party/LwIP/src/core/ipv4\ip4.c **** #ifdef LWIP_HOOK_IP4_ROUTE_SRC
 124:c:/Users/Black_Life/STM32Cube/Repository/STM32Cube_FW_F4_V1.26.2/Middlewares/Third_Party/LwIP/src/core/ipv4\ip4.c **** /**
 125:c:/Users/Black_Life/STM32Cube/Repository/STM32Cube_FW_F4_V1.26.2/Middlewares/Third_Party/LwIP/src/core/ipv4\ip4.c ****  * Source based IPv4 routing must be fully implemented in
 126:c:/Users/Black_Life/STM32Cube/Repository/STM32Cube_FW_F4_V1.26.2/Middlewares/Third_Party/LwIP/src/core/ipv4\ip4.c ****  * LWIP_HOOK_IP4_ROUTE_SRC(). This function only provides the parameters.
 127:c:/Users/Black_Life/STM32Cube/Repository/STM32Cube_FW_F4_V1.26.2/Middlewares/Third_Party/LwIP/src/core/ipv4\ip4.c ****  */
 128:c:/Users/Black_Life/STM32Cube/Repository/STM32Cube_FW_F4_V1.26.2/Middlewares/Third_Party/LwIP/src/core/ipv4\ip4.c **** struct netif *
 129:c:/Users/Black_Life/STM32Cube/Repository/STM32Cube_FW_F4_V1.26.2/Middlewares/Third_Party/LwIP/src/core/ipv4\ip4.c **** ip4_route_src(const ip4_addr_t *src, const ip4_addr_t *dest)
 130:c:/Users/Black_Life/STM32Cube/Repository/STM32Cube_FW_F4_V1.26.2/Middlewares/Third_Party/LwIP/src/core/ipv4\ip4.c **** {
 131:c:/Users/Black_Life/STM32Cube/Repository/STM32Cube_FW_F4_V1.26.2/Middlewares/Third_Party/LwIP/src/core/ipv4\ip4.c ****   if (src != NULL) {
 132:c:/Users/Black_Life/STM32Cube/Repository/STM32Cube_FW_F4_V1.26.2/Middlewares/Third_Party/LwIP/src/core/ipv4\ip4.c ****     /* when src==NULL, the hook is called from ip4_route(dest) */
 133:c:/Users/Black_Life/STM32Cube/Repository/STM32Cube_FW_F4_V1.26.2/Middlewares/Third_Party/LwIP/src/core/ipv4\ip4.c ****     struct netif *netif = LWIP_HOOK_IP4_ROUTE_SRC(src, dest);
 134:c:/Users/Black_Life/STM32Cube/Repository/STM32Cube_FW_F4_V1.26.2/Middlewares/Third_Party/LwIP/src/core/ipv4\ip4.c ****     if (netif != NULL) {
 135:c:/Users/Black_Life/STM32Cube/Repository/STM32Cube_FW_F4_V1.26.2/Middlewares/Third_Party/LwIP/src/core/ipv4\ip4.c ****       return netif;
 136:c:/Users/Black_Life/STM32Cube/Repository/STM32Cube_FW_F4_V1.26.2/Middlewares/Third_Party/LwIP/src/core/ipv4\ip4.c ****     }
 137:c:/Users/Black_Life/STM32Cube/Repository/STM32Cube_FW_F4_V1.26.2/Middlewares/Third_Party/LwIP/src/core/ipv4\ip4.c ****   }
 138:c:/Users/Black_Life/STM32Cube/Repository/STM32Cube_FW_F4_V1.26.2/Middlewares/Third_Party/LwIP/src/core/ipv4\ip4.c ****   return ip4_route(dest);
 139:c:/Users/Black_Life/STM32Cube/Repository/STM32Cube_FW_F4_V1.26.2/Middlewares/Third_Party/LwIP/src/core/ipv4\ip4.c **** }
 140:c:/Users/Black_Life/STM32Cube/Repository/STM32Cube_FW_F4_V1.26.2/Middlewares/Third_Party/LwIP/src/core/ipv4\ip4.c **** #endif /* LWIP_HOOK_IP4_ROUTE_SRC */
 141:c:/Users/Black_Life/STM32Cube/Repository/STM32Cube_FW_F4_V1.26.2/Middlewares/Third_Party/LwIP/src/core/ipv4\ip4.c **** 
 142:c:/Users/Black_Life/STM32Cube/Repository/STM32Cube_FW_F4_V1.26.2/Middlewares/Third_Party/LwIP/src/core/ipv4\ip4.c **** /**
 143:c:/Users/Black_Life/STM32Cube/Repository/STM32Cube_FW_F4_V1.26.2/Middlewares/Third_Party/LwIP/src/core/ipv4\ip4.c ****  * Finds the appropriate network interface for a given IP address. It
 144:c:/Users/Black_Life/STM32Cube/Repository/STM32Cube_FW_F4_V1.26.2/Middlewares/Third_Party/LwIP/src/core/ipv4\ip4.c ****  * searches the list of network interfaces linearly. A match is found
ARM GAS  C:\Users\BLACK_~1\AppData\Local\Temp\cct9trHa.s 			page 4


 145:c:/Users/Black_Life/STM32Cube/Repository/STM32Cube_FW_F4_V1.26.2/Middlewares/Third_Party/LwIP/src/core/ipv4\ip4.c ****  * if the masked IP address of the network interface equals the masked
 146:c:/Users/Black_Life/STM32Cube/Repository/STM32Cube_FW_F4_V1.26.2/Middlewares/Third_Party/LwIP/src/core/ipv4\ip4.c ****  * IP address given to the function.
 147:c:/Users/Black_Life/STM32Cube/Repository/STM32Cube_FW_F4_V1.26.2/Middlewares/Third_Party/LwIP/src/core/ipv4\ip4.c ****  *
 148:c:/Users/Black_Life/STM32Cube/Repository/STM32Cube_FW_F4_V1.26.2/Middlewares/Third_Party/LwIP/src/core/ipv4\ip4.c ****  * @param dest the destination IP address for which to find the route
 149:c:/Users/Black_Life/STM32Cube/Repository/STM32Cube_FW_F4_V1.26.2/Middlewares/Third_Party/LwIP/src/core/ipv4\ip4.c ****  * @return the netif on which to send to reach dest
 150:c:/Users/Black_Life/STM32Cube/Repository/STM32Cube_FW_F4_V1.26.2/Middlewares/Third_Party/LwIP/src/core/ipv4\ip4.c ****  */
 151:c:/Users/Black_Life/STM32Cube/Repository/STM32Cube_FW_F4_V1.26.2/Middlewares/Third_Party/LwIP/src/core/ipv4\ip4.c **** struct netif *
 152:c:/Users/Black_Life/STM32Cube/Repository/STM32Cube_FW_F4_V1.26.2/Middlewares/Third_Party/LwIP/src/core/ipv4\ip4.c **** ip4_route(const ip4_addr_t *dest)
 153:c:/Users/Black_Life/STM32Cube/Repository/STM32Cube_FW_F4_V1.26.2/Middlewares/Third_Party/LwIP/src/core/ipv4\ip4.c **** {
 154:c:/Users/Black_Life/STM32Cube/Repository/STM32Cube_FW_F4_V1.26.2/Middlewares/Third_Party/LwIP/src/core/ipv4\ip4.c **** #if !LWIP_SINGLE_NETIF
 155:c:/Users/Black_Life/STM32Cube/Repository/STM32Cube_FW_F4_V1.26.2/Middlewares/Third_Party/LwIP/src/core/ipv4\ip4.c ****   struct netif *netif;
 156:c:/Users/Black_Life/STM32Cube/Repository/STM32Cube_FW_F4_V1.26.2/Middlewares/Third_Party/LwIP/src/core/ipv4\ip4.c **** 
 157:c:/Users/Black_Life/STM32Cube/Repository/STM32Cube_FW_F4_V1.26.2/Middlewares/Third_Party/LwIP/src/core/ipv4\ip4.c ****   LWIP_ASSERT_CORE_LOCKED();
 158:c:/Users/Black_Life/STM32Cube/Repository/STM32Cube_FW_F4_V1.26.2/Middlewares/Third_Party/LwIP/src/core/ipv4\ip4.c **** 
 159:c:/Users/Black_Life/STM32Cube/Repository/STM32Cube_FW_F4_V1.26.2/Middlewares/Third_Party/LwIP/src/core/ipv4\ip4.c **** #if LWIP_MULTICAST_TX_OPTIONS
 160:c:/Users/Black_Life/STM32Cube/Repository/STM32Cube_FW_F4_V1.26.2/Middlewares/Third_Party/LwIP/src/core/ipv4\ip4.c ****   /* Use administratively selected interface for multicast by default */
 161:c:/Users/Black_Life/STM32Cube/Repository/STM32Cube_FW_F4_V1.26.2/Middlewares/Third_Party/LwIP/src/core/ipv4\ip4.c ****   if (ip4_addr_ismulticast(dest) && ip4_default_multicast_netif) {
 162:c:/Users/Black_Life/STM32Cube/Repository/STM32Cube_FW_F4_V1.26.2/Middlewares/Third_Party/LwIP/src/core/ipv4\ip4.c ****     return ip4_default_multicast_netif;
 163:c:/Users/Black_Life/STM32Cube/Repository/STM32Cube_FW_F4_V1.26.2/Middlewares/Third_Party/LwIP/src/core/ipv4\ip4.c ****   }
 164:c:/Users/Black_Life/STM32Cube/Repository/STM32Cube_FW_F4_V1.26.2/Middlewares/Third_Party/LwIP/src/core/ipv4\ip4.c **** #endif /* LWIP_MULTICAST_TX_OPTIONS */
 165:c:/Users/Black_Life/STM32Cube/Repository/STM32Cube_FW_F4_V1.26.2/Middlewares/Third_Party/LwIP/src/core/ipv4\ip4.c **** 
 166:c:/Users/Black_Life/STM32Cube/Repository/STM32Cube_FW_F4_V1.26.2/Middlewares/Third_Party/LwIP/src/core/ipv4\ip4.c ****   /* bug #54569: in case LWIP_SINGLE_NETIF=1 and LWIP_DEBUGF() disabled, the following loop is opti
 167:c:/Users/Black_Life/STM32Cube/Repository/STM32Cube_FW_F4_V1.26.2/Middlewares/Third_Party/LwIP/src/core/ipv4\ip4.c ****   LWIP_UNUSED_ARG(dest);
 168:c:/Users/Black_Life/STM32Cube/Repository/STM32Cube_FW_F4_V1.26.2/Middlewares/Third_Party/LwIP/src/core/ipv4\ip4.c **** 
 169:c:/Users/Black_Life/STM32Cube/Repository/STM32Cube_FW_F4_V1.26.2/Middlewares/Third_Party/LwIP/src/core/ipv4\ip4.c ****   /* iterate through netifs */
 170:c:/Users/Black_Life/STM32Cube/Repository/STM32Cube_FW_F4_V1.26.2/Middlewares/Third_Party/LwIP/src/core/ipv4\ip4.c ****   NETIF_FOREACH(netif) {
 171:c:/Users/Black_Life/STM32Cube/Repository/STM32Cube_FW_F4_V1.26.2/Middlewares/Third_Party/LwIP/src/core/ipv4\ip4.c ****     /* is the netif up, does it have a link and a valid address? */
 172:c:/Users/Black_Life/STM32Cube/Repository/STM32Cube_FW_F4_V1.26.2/Middlewares/Third_Party/LwIP/src/core/ipv4\ip4.c ****     if (netif_is_up(netif) && netif_is_link_up(netif) && !ip4_addr_isany_val(*netif_ip4_addr(netif)
 173:c:/Users/Black_Life/STM32Cube/Repository/STM32Cube_FW_F4_V1.26.2/Middlewares/Third_Party/LwIP/src/core/ipv4\ip4.c ****       /* network mask matches? */
 174:c:/Users/Black_Life/STM32Cube/Repository/STM32Cube_FW_F4_V1.26.2/Middlewares/Third_Party/LwIP/src/core/ipv4\ip4.c ****       if (ip4_addr_netcmp(dest, netif_ip4_addr(netif), netif_ip4_netmask(netif))) {
 175:c:/Users/Black_Life/STM32Cube/Repository/STM32Cube_FW_F4_V1.26.2/Middlewares/Third_Party/LwIP/src/core/ipv4\ip4.c ****         /* return netif on which to forward IP packet */
 176:c:/Users/Black_Life/STM32Cube/Repository/STM32Cube_FW_F4_V1.26.2/Middlewares/Third_Party/LwIP/src/core/ipv4\ip4.c ****         return netif;
 177:c:/Users/Black_Life/STM32Cube/Repository/STM32Cube_FW_F4_V1.26.2/Middlewares/Third_Party/LwIP/src/core/ipv4\ip4.c ****       }
 178:c:/Users/Black_Life/STM32Cube/Repository/STM32Cube_FW_F4_V1.26.2/Middlewares/Third_Party/LwIP/src/core/ipv4\ip4.c ****       /* gateway matches on a non broadcast interface? (i.e. peer in a point to point interface) */
 179:c:/Users/Black_Life/STM32Cube/Repository/STM32Cube_FW_F4_V1.26.2/Middlewares/Third_Party/LwIP/src/core/ipv4\ip4.c ****       if (((netif->flags & NETIF_FLAG_BROADCAST) == 0) && ip4_addr_cmp(dest, netif_ip4_gw(netif))) 
 180:c:/Users/Black_Life/STM32Cube/Repository/STM32Cube_FW_F4_V1.26.2/Middlewares/Third_Party/LwIP/src/core/ipv4\ip4.c ****         /* return netif on which to forward IP packet */
 181:c:/Users/Black_Life/STM32Cube/Repository/STM32Cube_FW_F4_V1.26.2/Middlewares/Third_Party/LwIP/src/core/ipv4\ip4.c ****         return netif;
 182:c:/Users/Black_Life/STM32Cube/Repository/STM32Cube_FW_F4_V1.26.2/Middlewares/Third_Party/LwIP/src/core/ipv4\ip4.c ****       }
 183:c:/Users/Black_Life/STM32Cube/Repository/STM32Cube_FW_F4_V1.26.2/Middlewares/Third_Party/LwIP/src/core/ipv4\ip4.c ****     }
 184:c:/Users/Black_Life/STM32Cube/Repository/STM32Cube_FW_F4_V1.26.2/Middlewares/Third_Party/LwIP/src/core/ipv4\ip4.c ****   }
 185:c:/Users/Black_Life/STM32Cube/Repository/STM32Cube_FW_F4_V1.26.2/Middlewares/Third_Party/LwIP/src/core/ipv4\ip4.c **** 
 186:c:/Users/Black_Life/STM32Cube/Repository/STM32Cube_FW_F4_V1.26.2/Middlewares/Third_Party/LwIP/src/core/ipv4\ip4.c **** #if LWIP_NETIF_LOOPBACK && !LWIP_HAVE_LOOPIF
 187:c:/Users/Black_Life/STM32Cube/Repository/STM32Cube_FW_F4_V1.26.2/Middlewares/Third_Party/LwIP/src/core/ipv4\ip4.c ****   /* loopif is disabled, looopback traffic is passed through any netif */
 188:c:/Users/Black_Life/STM32Cube/Repository/STM32Cube_FW_F4_V1.26.2/Middlewares/Third_Party/LwIP/src/core/ipv4\ip4.c ****   if (ip4_addr_isloopback(dest)) {
 189:c:/Users/Black_Life/STM32Cube/Repository/STM32Cube_FW_F4_V1.26.2/Middlewares/Third_Party/LwIP/src/core/ipv4\ip4.c ****     /* don't check for link on loopback traffic */
 190:c:/Users/Black_Life/STM32Cube/Repository/STM32Cube_FW_F4_V1.26.2/Middlewares/Third_Party/LwIP/src/core/ipv4\ip4.c ****     if (netif_default != NULL && netif_is_up(netif_default)) {
 191:c:/Users/Black_Life/STM32Cube/Repository/STM32Cube_FW_F4_V1.26.2/Middlewares/Third_Party/LwIP/src/core/ipv4\ip4.c ****       return netif_default;
 192:c:/Users/Black_Life/STM32Cube/Repository/STM32Cube_FW_F4_V1.26.2/Middlewares/Third_Party/LwIP/src/core/ipv4\ip4.c ****     }
 193:c:/Users/Black_Life/STM32Cube/Repository/STM32Cube_FW_F4_V1.26.2/Middlewares/Third_Party/LwIP/src/core/ipv4\ip4.c ****     /* default netif is not up, just use any netif for loopback traffic */
 194:c:/Users/Black_Life/STM32Cube/Repository/STM32Cube_FW_F4_V1.26.2/Middlewares/Third_Party/LwIP/src/core/ipv4\ip4.c ****     NETIF_FOREACH(netif) {
 195:c:/Users/Black_Life/STM32Cube/Repository/STM32Cube_FW_F4_V1.26.2/Middlewares/Third_Party/LwIP/src/core/ipv4\ip4.c ****       if (netif_is_up(netif)) {
 196:c:/Users/Black_Life/STM32Cube/Repository/STM32Cube_FW_F4_V1.26.2/Middlewares/Third_Party/LwIP/src/core/ipv4\ip4.c ****         return netif;
 197:c:/Users/Black_Life/STM32Cube/Repository/STM32Cube_FW_F4_V1.26.2/Middlewares/Third_Party/LwIP/src/core/ipv4\ip4.c ****       }
 198:c:/Users/Black_Life/STM32Cube/Repository/STM32Cube_FW_F4_V1.26.2/Middlewares/Third_Party/LwIP/src/core/ipv4\ip4.c ****     }
 199:c:/Users/Black_Life/STM32Cube/Repository/STM32Cube_FW_F4_V1.26.2/Middlewares/Third_Party/LwIP/src/core/ipv4\ip4.c ****     return NULL;
 200:c:/Users/Black_Life/STM32Cube/Repository/STM32Cube_FW_F4_V1.26.2/Middlewares/Third_Party/LwIP/src/core/ipv4\ip4.c ****   }
 201:c:/Users/Black_Life/STM32Cube/Repository/STM32Cube_FW_F4_V1.26.2/Middlewares/Third_Party/LwIP/src/core/ipv4\ip4.c **** #endif /* LWIP_NETIF_LOOPBACK && !LWIP_HAVE_LOOPIF */
ARM GAS  C:\Users\BLACK_~1\AppData\Local\Temp\cct9trHa.s 			page 5


 202:c:/Users/Black_Life/STM32Cube/Repository/STM32Cube_FW_F4_V1.26.2/Middlewares/Third_Party/LwIP/src/core/ipv4\ip4.c **** 
 203:c:/Users/Black_Life/STM32Cube/Repository/STM32Cube_FW_F4_V1.26.2/Middlewares/Third_Party/LwIP/src/core/ipv4\ip4.c **** #ifdef LWIP_HOOK_IP4_ROUTE_SRC
 204:c:/Users/Black_Life/STM32Cube/Repository/STM32Cube_FW_F4_V1.26.2/Middlewares/Third_Party/LwIP/src/core/ipv4\ip4.c ****   netif = LWIP_HOOK_IP4_ROUTE_SRC(NULL, dest);
 205:c:/Users/Black_Life/STM32Cube/Repository/STM32Cube_FW_F4_V1.26.2/Middlewares/Third_Party/LwIP/src/core/ipv4\ip4.c ****   if (netif != NULL) {
 206:c:/Users/Black_Life/STM32Cube/Repository/STM32Cube_FW_F4_V1.26.2/Middlewares/Third_Party/LwIP/src/core/ipv4\ip4.c ****     return netif;
 207:c:/Users/Black_Life/STM32Cube/Repository/STM32Cube_FW_F4_V1.26.2/Middlewares/Third_Party/LwIP/src/core/ipv4\ip4.c ****   }
 208:c:/Users/Black_Life/STM32Cube/Repository/STM32Cube_FW_F4_V1.26.2/Middlewares/Third_Party/LwIP/src/core/ipv4\ip4.c **** #elif defined(LWIP_HOOK_IP4_ROUTE)
 209:c:/Users/Black_Life/STM32Cube/Repository/STM32Cube_FW_F4_V1.26.2/Middlewares/Third_Party/LwIP/src/core/ipv4\ip4.c ****   netif = LWIP_HOOK_IP4_ROUTE(dest);
 210:c:/Users/Black_Life/STM32Cube/Repository/STM32Cube_FW_F4_V1.26.2/Middlewares/Third_Party/LwIP/src/core/ipv4\ip4.c ****   if (netif != NULL) {
 211:c:/Users/Black_Life/STM32Cube/Repository/STM32Cube_FW_F4_V1.26.2/Middlewares/Third_Party/LwIP/src/core/ipv4\ip4.c ****     return netif;
 212:c:/Users/Black_Life/STM32Cube/Repository/STM32Cube_FW_F4_V1.26.2/Middlewares/Third_Party/LwIP/src/core/ipv4\ip4.c ****   }
 213:c:/Users/Black_Life/STM32Cube/Repository/STM32Cube_FW_F4_V1.26.2/Middlewares/Third_Party/LwIP/src/core/ipv4\ip4.c **** #endif
 214:c:/Users/Black_Life/STM32Cube/Repository/STM32Cube_FW_F4_V1.26.2/Middlewares/Third_Party/LwIP/src/core/ipv4\ip4.c **** #endif /* !LWIP_SINGLE_NETIF */
 215:c:/Users/Black_Life/STM32Cube/Repository/STM32Cube_FW_F4_V1.26.2/Middlewares/Third_Party/LwIP/src/core/ipv4\ip4.c **** 
 216:c:/Users/Black_Life/STM32Cube/Repository/STM32Cube_FW_F4_V1.26.2/Middlewares/Third_Party/LwIP/src/core/ipv4\ip4.c ****   if ((netif_default == NULL) || !netif_is_up(netif_default) || !netif_is_link_up(netif_default) ||
 217:c:/Users/Black_Life/STM32Cube/Repository/STM32Cube_FW_F4_V1.26.2/Middlewares/Third_Party/LwIP/src/core/ipv4\ip4.c ****       ip4_addr_isany_val(*netif_ip4_addr(netif_default)) || ip4_addr_isloopback(dest)) {
 218:c:/Users/Black_Life/STM32Cube/Repository/STM32Cube_FW_F4_V1.26.2/Middlewares/Third_Party/LwIP/src/core/ipv4\ip4.c ****     /* No matching netif found and default netif is not usable.
 219:c:/Users/Black_Life/STM32Cube/Repository/STM32Cube_FW_F4_V1.26.2/Middlewares/Third_Party/LwIP/src/core/ipv4\ip4.c ****        If this is not good enough for you, use LWIP_HOOK_IP4_ROUTE() */
 220:c:/Users/Black_Life/STM32Cube/Repository/STM32Cube_FW_F4_V1.26.2/Middlewares/Third_Party/LwIP/src/core/ipv4\ip4.c ****     LWIP_DEBUGF(IP_DEBUG | LWIP_DBG_LEVEL_SERIOUS, ("ip4_route: No route to %"U16_F".%"U16_F".%"U16
 221:c:/Users/Black_Life/STM32Cube/Repository/STM32Cube_FW_F4_V1.26.2/Middlewares/Third_Party/LwIP/src/core/ipv4\ip4.c ****                 ip4_addr1_16(dest), ip4_addr2_16(dest), ip4_addr3_16(dest), ip4_addr4_16(dest)));
 222:c:/Users/Black_Life/STM32Cube/Repository/STM32Cube_FW_F4_V1.26.2/Middlewares/Third_Party/LwIP/src/core/ipv4\ip4.c ****     IP_STATS_INC(ip.rterr);
 223:c:/Users/Black_Life/STM32Cube/Repository/STM32Cube_FW_F4_V1.26.2/Middlewares/Third_Party/LwIP/src/core/ipv4\ip4.c ****     MIB2_STATS_INC(mib2.ipoutnoroutes);
 224:c:/Users/Black_Life/STM32Cube/Repository/STM32Cube_FW_F4_V1.26.2/Middlewares/Third_Party/LwIP/src/core/ipv4\ip4.c ****     return NULL;
 225:c:/Users/Black_Life/STM32Cube/Repository/STM32Cube_FW_F4_V1.26.2/Middlewares/Third_Party/LwIP/src/core/ipv4\ip4.c ****   }
 226:c:/Users/Black_Life/STM32Cube/Repository/STM32Cube_FW_F4_V1.26.2/Middlewares/Third_Party/LwIP/src/core/ipv4\ip4.c **** 
 227:c:/Users/Black_Life/STM32Cube/Repository/STM32Cube_FW_F4_V1.26.2/Middlewares/Third_Party/LwIP/src/core/ipv4\ip4.c ****   return netif_default;
 228:c:/Users/Black_Life/STM32Cube/Repository/STM32Cube_FW_F4_V1.26.2/Middlewares/Third_Party/LwIP/src/core/ipv4\ip4.c **** }
 229:c:/Users/Black_Life/STM32Cube/Repository/STM32Cube_FW_F4_V1.26.2/Middlewares/Third_Party/LwIP/src/core/ipv4\ip4.c **** 
 230:c:/Users/Black_Life/STM32Cube/Repository/STM32Cube_FW_F4_V1.26.2/Middlewares/Third_Party/LwIP/src/core/ipv4\ip4.c **** #if IP_FORWARD
 231:c:/Users/Black_Life/STM32Cube/Repository/STM32Cube_FW_F4_V1.26.2/Middlewares/Third_Party/LwIP/src/core/ipv4\ip4.c **** /**
 232:c:/Users/Black_Life/STM32Cube/Repository/STM32Cube_FW_F4_V1.26.2/Middlewares/Third_Party/LwIP/src/core/ipv4\ip4.c ****  * Determine whether an IP address is in a reserved set of addresses
 233:c:/Users/Black_Life/STM32Cube/Repository/STM32Cube_FW_F4_V1.26.2/Middlewares/Third_Party/LwIP/src/core/ipv4\ip4.c ****  * that may not be forwarded, or whether datagrams to that destination
 234:c:/Users/Black_Life/STM32Cube/Repository/STM32Cube_FW_F4_V1.26.2/Middlewares/Third_Party/LwIP/src/core/ipv4\ip4.c ****  * may be forwarded.
 235:c:/Users/Black_Life/STM32Cube/Repository/STM32Cube_FW_F4_V1.26.2/Middlewares/Third_Party/LwIP/src/core/ipv4\ip4.c ****  * @param p the packet to forward
 236:c:/Users/Black_Life/STM32Cube/Repository/STM32Cube_FW_F4_V1.26.2/Middlewares/Third_Party/LwIP/src/core/ipv4\ip4.c ****  * @return 1: can forward 0: discard
 237:c:/Users/Black_Life/STM32Cube/Repository/STM32Cube_FW_F4_V1.26.2/Middlewares/Third_Party/LwIP/src/core/ipv4\ip4.c ****  */
 238:c:/Users/Black_Life/STM32Cube/Repository/STM32Cube_FW_F4_V1.26.2/Middlewares/Third_Party/LwIP/src/core/ipv4\ip4.c **** static int
 239:c:/Users/Black_Life/STM32Cube/Repository/STM32Cube_FW_F4_V1.26.2/Middlewares/Third_Party/LwIP/src/core/ipv4\ip4.c **** ip4_canforward(struct pbuf *p)
 240:c:/Users/Black_Life/STM32Cube/Repository/STM32Cube_FW_F4_V1.26.2/Middlewares/Third_Party/LwIP/src/core/ipv4\ip4.c **** {
 241:c:/Users/Black_Life/STM32Cube/Repository/STM32Cube_FW_F4_V1.26.2/Middlewares/Third_Party/LwIP/src/core/ipv4\ip4.c ****   u32_t addr = lwip_htonl(ip4_addr_get_u32(ip4_current_dest_addr()));
 242:c:/Users/Black_Life/STM32Cube/Repository/STM32Cube_FW_F4_V1.26.2/Middlewares/Third_Party/LwIP/src/core/ipv4\ip4.c **** 
 243:c:/Users/Black_Life/STM32Cube/Repository/STM32Cube_FW_F4_V1.26.2/Middlewares/Third_Party/LwIP/src/core/ipv4\ip4.c **** #ifdef LWIP_HOOK_IP4_CANFORWARD
 244:c:/Users/Black_Life/STM32Cube/Repository/STM32Cube_FW_F4_V1.26.2/Middlewares/Third_Party/LwIP/src/core/ipv4\ip4.c ****   int ret = LWIP_HOOK_IP4_CANFORWARD(p, addr);
 245:c:/Users/Black_Life/STM32Cube/Repository/STM32Cube_FW_F4_V1.26.2/Middlewares/Third_Party/LwIP/src/core/ipv4\ip4.c ****   if (ret >= 0) {
 246:c:/Users/Black_Life/STM32Cube/Repository/STM32Cube_FW_F4_V1.26.2/Middlewares/Third_Party/LwIP/src/core/ipv4\ip4.c ****     return ret;
 247:c:/Users/Black_Life/STM32Cube/Repository/STM32Cube_FW_F4_V1.26.2/Middlewares/Third_Party/LwIP/src/core/ipv4\ip4.c ****   }
 248:c:/Users/Black_Life/STM32Cube/Repository/STM32Cube_FW_F4_V1.26.2/Middlewares/Third_Party/LwIP/src/core/ipv4\ip4.c **** #endif /* LWIP_HOOK_IP4_CANFORWARD */
 249:c:/Users/Black_Life/STM32Cube/Repository/STM32Cube_FW_F4_V1.26.2/Middlewares/Third_Party/LwIP/src/core/ipv4\ip4.c **** 
 250:c:/Users/Black_Life/STM32Cube/Repository/STM32Cube_FW_F4_V1.26.2/Middlewares/Third_Party/LwIP/src/core/ipv4\ip4.c ****   if (p->flags & PBUF_FLAG_LLBCAST) {
 251:c:/Users/Black_Life/STM32Cube/Repository/STM32Cube_FW_F4_V1.26.2/Middlewares/Third_Party/LwIP/src/core/ipv4\ip4.c ****     /* don't route link-layer broadcasts */
 252:c:/Users/Black_Life/STM32Cube/Repository/STM32Cube_FW_F4_V1.26.2/Middlewares/Third_Party/LwIP/src/core/ipv4\ip4.c ****     return 0;
 253:c:/Users/Black_Life/STM32Cube/Repository/STM32Cube_FW_F4_V1.26.2/Middlewares/Third_Party/LwIP/src/core/ipv4\ip4.c ****   }
 254:c:/Users/Black_Life/STM32Cube/Repository/STM32Cube_FW_F4_V1.26.2/Middlewares/Third_Party/LwIP/src/core/ipv4\ip4.c ****   if ((p->flags & PBUF_FLAG_LLMCAST) || IP_MULTICAST(addr)) {
 255:c:/Users/Black_Life/STM32Cube/Repository/STM32Cube_FW_F4_V1.26.2/Middlewares/Third_Party/LwIP/src/core/ipv4\ip4.c ****     /* don't route link-layer multicasts (use LWIP_HOOK_IP4_CANFORWARD instead) */
 256:c:/Users/Black_Life/STM32Cube/Repository/STM32Cube_FW_F4_V1.26.2/Middlewares/Third_Party/LwIP/src/core/ipv4\ip4.c ****     return 0;
 257:c:/Users/Black_Life/STM32Cube/Repository/STM32Cube_FW_F4_V1.26.2/Middlewares/Third_Party/LwIP/src/core/ipv4\ip4.c ****   }
 258:c:/Users/Black_Life/STM32Cube/Repository/STM32Cube_FW_F4_V1.26.2/Middlewares/Third_Party/LwIP/src/core/ipv4\ip4.c ****   if (IP_EXPERIMENTAL(addr)) {
ARM GAS  C:\Users\BLACK_~1\AppData\Local\Temp\cct9trHa.s 			page 6


 259:c:/Users/Black_Life/STM32Cube/Repository/STM32Cube_FW_F4_V1.26.2/Middlewares/Third_Party/LwIP/src/core/ipv4\ip4.c ****     return 0;
 260:c:/Users/Black_Life/STM32Cube/Repository/STM32Cube_FW_F4_V1.26.2/Middlewares/Third_Party/LwIP/src/core/ipv4\ip4.c ****   }
 261:c:/Users/Black_Life/STM32Cube/Repository/STM32Cube_FW_F4_V1.26.2/Middlewares/Third_Party/LwIP/src/core/ipv4\ip4.c ****   if (IP_CLASSA(addr)) {
 262:c:/Users/Black_Life/STM32Cube/Repository/STM32Cube_FW_F4_V1.26.2/Middlewares/Third_Party/LwIP/src/core/ipv4\ip4.c ****     u32_t net = addr & IP_CLASSA_NET;
 263:c:/Users/Black_Life/STM32Cube/Repository/STM32Cube_FW_F4_V1.26.2/Middlewares/Third_Party/LwIP/src/core/ipv4\ip4.c ****     if ((net == 0) || (net == ((u32_t)IP_LOOPBACKNET << IP_CLASSA_NSHIFT))) {
 264:c:/Users/Black_Life/STM32Cube/Repository/STM32Cube_FW_F4_V1.26.2/Middlewares/Third_Party/LwIP/src/core/ipv4\ip4.c ****       /* don't route loopback packets */
 265:c:/Users/Black_Life/STM32Cube/Repository/STM32Cube_FW_F4_V1.26.2/Middlewares/Third_Party/LwIP/src/core/ipv4\ip4.c ****       return 0;
 266:c:/Users/Black_Life/STM32Cube/Repository/STM32Cube_FW_F4_V1.26.2/Middlewares/Third_Party/LwIP/src/core/ipv4\ip4.c ****     }
 267:c:/Users/Black_Life/STM32Cube/Repository/STM32Cube_FW_F4_V1.26.2/Middlewares/Third_Party/LwIP/src/core/ipv4\ip4.c ****   }
 268:c:/Users/Black_Life/STM32Cube/Repository/STM32Cube_FW_F4_V1.26.2/Middlewares/Third_Party/LwIP/src/core/ipv4\ip4.c ****   return 1;
 269:c:/Users/Black_Life/STM32Cube/Repository/STM32Cube_FW_F4_V1.26.2/Middlewares/Third_Party/LwIP/src/core/ipv4\ip4.c **** }
 270:c:/Users/Black_Life/STM32Cube/Repository/STM32Cube_FW_F4_V1.26.2/Middlewares/Third_Party/LwIP/src/core/ipv4\ip4.c **** 
 271:c:/Users/Black_Life/STM32Cube/Repository/STM32Cube_FW_F4_V1.26.2/Middlewares/Third_Party/LwIP/src/core/ipv4\ip4.c **** /**
 272:c:/Users/Black_Life/STM32Cube/Repository/STM32Cube_FW_F4_V1.26.2/Middlewares/Third_Party/LwIP/src/core/ipv4\ip4.c ****  * Forwards an IP packet. It finds an appropriate route for the
 273:c:/Users/Black_Life/STM32Cube/Repository/STM32Cube_FW_F4_V1.26.2/Middlewares/Third_Party/LwIP/src/core/ipv4\ip4.c ****  * packet, decrements the TTL value of the packet, adjusts the
 274:c:/Users/Black_Life/STM32Cube/Repository/STM32Cube_FW_F4_V1.26.2/Middlewares/Third_Party/LwIP/src/core/ipv4\ip4.c ****  * checksum and outputs the packet on the appropriate interface.
 275:c:/Users/Black_Life/STM32Cube/Repository/STM32Cube_FW_F4_V1.26.2/Middlewares/Third_Party/LwIP/src/core/ipv4\ip4.c ****  *
 276:c:/Users/Black_Life/STM32Cube/Repository/STM32Cube_FW_F4_V1.26.2/Middlewares/Third_Party/LwIP/src/core/ipv4\ip4.c ****  * @param p the packet to forward (p->payload points to IP header)
 277:c:/Users/Black_Life/STM32Cube/Repository/STM32Cube_FW_F4_V1.26.2/Middlewares/Third_Party/LwIP/src/core/ipv4\ip4.c ****  * @param iphdr the IP header of the input packet
 278:c:/Users/Black_Life/STM32Cube/Repository/STM32Cube_FW_F4_V1.26.2/Middlewares/Third_Party/LwIP/src/core/ipv4\ip4.c ****  * @param inp the netif on which this packet was received
 279:c:/Users/Black_Life/STM32Cube/Repository/STM32Cube_FW_F4_V1.26.2/Middlewares/Third_Party/LwIP/src/core/ipv4\ip4.c ****  */
 280:c:/Users/Black_Life/STM32Cube/Repository/STM32Cube_FW_F4_V1.26.2/Middlewares/Third_Party/LwIP/src/core/ipv4\ip4.c **** static void
 281:c:/Users/Black_Life/STM32Cube/Repository/STM32Cube_FW_F4_V1.26.2/Middlewares/Third_Party/LwIP/src/core/ipv4\ip4.c **** ip4_forward(struct pbuf *p, struct ip_hdr *iphdr, struct netif *inp)
 282:c:/Users/Black_Life/STM32Cube/Repository/STM32Cube_FW_F4_V1.26.2/Middlewares/Third_Party/LwIP/src/core/ipv4\ip4.c **** {
 283:c:/Users/Black_Life/STM32Cube/Repository/STM32Cube_FW_F4_V1.26.2/Middlewares/Third_Party/LwIP/src/core/ipv4\ip4.c ****   struct netif *netif;
 284:c:/Users/Black_Life/STM32Cube/Repository/STM32Cube_FW_F4_V1.26.2/Middlewares/Third_Party/LwIP/src/core/ipv4\ip4.c **** 
 285:c:/Users/Black_Life/STM32Cube/Repository/STM32Cube_FW_F4_V1.26.2/Middlewares/Third_Party/LwIP/src/core/ipv4\ip4.c ****   PERF_START;
 286:c:/Users/Black_Life/STM32Cube/Repository/STM32Cube_FW_F4_V1.26.2/Middlewares/Third_Party/LwIP/src/core/ipv4\ip4.c ****   LWIP_UNUSED_ARG(inp);
 287:c:/Users/Black_Life/STM32Cube/Repository/STM32Cube_FW_F4_V1.26.2/Middlewares/Third_Party/LwIP/src/core/ipv4\ip4.c **** 
 288:c:/Users/Black_Life/STM32Cube/Repository/STM32Cube_FW_F4_V1.26.2/Middlewares/Third_Party/LwIP/src/core/ipv4\ip4.c ****   if (!ip4_canforward(p)) {
 289:c:/Users/Black_Life/STM32Cube/Repository/STM32Cube_FW_F4_V1.26.2/Middlewares/Third_Party/LwIP/src/core/ipv4\ip4.c ****     goto return_noroute;
 290:c:/Users/Black_Life/STM32Cube/Repository/STM32Cube_FW_F4_V1.26.2/Middlewares/Third_Party/LwIP/src/core/ipv4\ip4.c ****   }
 291:c:/Users/Black_Life/STM32Cube/Repository/STM32Cube_FW_F4_V1.26.2/Middlewares/Third_Party/LwIP/src/core/ipv4\ip4.c **** 
 292:c:/Users/Black_Life/STM32Cube/Repository/STM32Cube_FW_F4_V1.26.2/Middlewares/Third_Party/LwIP/src/core/ipv4\ip4.c ****   /* RFC3927 2.7: do not forward link-local addresses */
 293:c:/Users/Black_Life/STM32Cube/Repository/STM32Cube_FW_F4_V1.26.2/Middlewares/Third_Party/LwIP/src/core/ipv4\ip4.c ****   if (ip4_addr_islinklocal(ip4_current_dest_addr())) {
 294:c:/Users/Black_Life/STM32Cube/Repository/STM32Cube_FW_F4_V1.26.2/Middlewares/Third_Party/LwIP/src/core/ipv4\ip4.c ****     LWIP_DEBUGF(IP_DEBUG, ("ip4_forward: not forwarding LLA %"U16_F".%"U16_F".%"U16_F".%"U16_F"\n",
 295:c:/Users/Black_Life/STM32Cube/Repository/STM32Cube_FW_F4_V1.26.2/Middlewares/Third_Party/LwIP/src/core/ipv4\ip4.c ****                            ip4_addr1_16(ip4_current_dest_addr()), ip4_addr2_16(ip4_current_dest_add
 296:c:/Users/Black_Life/STM32Cube/Repository/STM32Cube_FW_F4_V1.26.2/Middlewares/Third_Party/LwIP/src/core/ipv4\ip4.c ****                            ip4_addr3_16(ip4_current_dest_addr()), ip4_addr4_16(ip4_current_dest_add
 297:c:/Users/Black_Life/STM32Cube/Repository/STM32Cube_FW_F4_V1.26.2/Middlewares/Third_Party/LwIP/src/core/ipv4\ip4.c ****     goto return_noroute;
 298:c:/Users/Black_Life/STM32Cube/Repository/STM32Cube_FW_F4_V1.26.2/Middlewares/Third_Party/LwIP/src/core/ipv4\ip4.c ****   }
 299:c:/Users/Black_Life/STM32Cube/Repository/STM32Cube_FW_F4_V1.26.2/Middlewares/Third_Party/LwIP/src/core/ipv4\ip4.c **** 
 300:c:/Users/Black_Life/STM32Cube/Repository/STM32Cube_FW_F4_V1.26.2/Middlewares/Third_Party/LwIP/src/core/ipv4\ip4.c ****   /* Find network interface where to forward this IP packet to. */
 301:c:/Users/Black_Life/STM32Cube/Repository/STM32Cube_FW_F4_V1.26.2/Middlewares/Third_Party/LwIP/src/core/ipv4\ip4.c ****   netif = ip4_route_src(ip4_current_src_addr(), ip4_current_dest_addr());
 302:c:/Users/Black_Life/STM32Cube/Repository/STM32Cube_FW_F4_V1.26.2/Middlewares/Third_Party/LwIP/src/core/ipv4\ip4.c ****   if (netif == NULL) {
 303:c:/Users/Black_Life/STM32Cube/Repository/STM32Cube_FW_F4_V1.26.2/Middlewares/Third_Party/LwIP/src/core/ipv4\ip4.c ****     LWIP_DEBUGF(IP_DEBUG, ("ip4_forward: no forwarding route for %"U16_F".%"U16_F".%"U16_F".%"U16_F
 304:c:/Users/Black_Life/STM32Cube/Repository/STM32Cube_FW_F4_V1.26.2/Middlewares/Third_Party/LwIP/src/core/ipv4\ip4.c ****                            ip4_addr1_16(ip4_current_dest_addr()), ip4_addr2_16(ip4_current_dest_add
 305:c:/Users/Black_Life/STM32Cube/Repository/STM32Cube_FW_F4_V1.26.2/Middlewares/Third_Party/LwIP/src/core/ipv4\ip4.c ****                            ip4_addr3_16(ip4_current_dest_addr()), ip4_addr4_16(ip4_current_dest_add
 306:c:/Users/Black_Life/STM32Cube/Repository/STM32Cube_FW_F4_V1.26.2/Middlewares/Third_Party/LwIP/src/core/ipv4\ip4.c ****     /* @todo: send ICMP_DUR_NET? */
 307:c:/Users/Black_Life/STM32Cube/Repository/STM32Cube_FW_F4_V1.26.2/Middlewares/Third_Party/LwIP/src/core/ipv4\ip4.c ****     goto return_noroute;
 308:c:/Users/Black_Life/STM32Cube/Repository/STM32Cube_FW_F4_V1.26.2/Middlewares/Third_Party/LwIP/src/core/ipv4\ip4.c ****   }
 309:c:/Users/Black_Life/STM32Cube/Repository/STM32Cube_FW_F4_V1.26.2/Middlewares/Third_Party/LwIP/src/core/ipv4\ip4.c **** #if !IP_FORWARD_ALLOW_TX_ON_RX_NETIF
 310:c:/Users/Black_Life/STM32Cube/Repository/STM32Cube_FW_F4_V1.26.2/Middlewares/Third_Party/LwIP/src/core/ipv4\ip4.c ****   /* Do not forward packets onto the same network interface on which
 311:c:/Users/Black_Life/STM32Cube/Repository/STM32Cube_FW_F4_V1.26.2/Middlewares/Third_Party/LwIP/src/core/ipv4\ip4.c ****    * they arrived. */
 312:c:/Users/Black_Life/STM32Cube/Repository/STM32Cube_FW_F4_V1.26.2/Middlewares/Third_Party/LwIP/src/core/ipv4\ip4.c ****   if (netif == inp) {
 313:c:/Users/Black_Life/STM32Cube/Repository/STM32Cube_FW_F4_V1.26.2/Middlewares/Third_Party/LwIP/src/core/ipv4\ip4.c ****     LWIP_DEBUGF(IP_DEBUG, ("ip4_forward: not bouncing packets back on incoming interface.\n"));
 314:c:/Users/Black_Life/STM32Cube/Repository/STM32Cube_FW_F4_V1.26.2/Middlewares/Third_Party/LwIP/src/core/ipv4\ip4.c ****     goto return_noroute;
 315:c:/Users/Black_Life/STM32Cube/Repository/STM32Cube_FW_F4_V1.26.2/Middlewares/Third_Party/LwIP/src/core/ipv4\ip4.c ****   }
ARM GAS  C:\Users\BLACK_~1\AppData\Local\Temp\cct9trHa.s 			page 7


 316:c:/Users/Black_Life/STM32Cube/Repository/STM32Cube_FW_F4_V1.26.2/Middlewares/Third_Party/LwIP/src/core/ipv4\ip4.c **** #endif /* IP_FORWARD_ALLOW_TX_ON_RX_NETIF */
 317:c:/Users/Black_Life/STM32Cube/Repository/STM32Cube_FW_F4_V1.26.2/Middlewares/Third_Party/LwIP/src/core/ipv4\ip4.c **** 
 318:c:/Users/Black_Life/STM32Cube/Repository/STM32Cube_FW_F4_V1.26.2/Middlewares/Third_Party/LwIP/src/core/ipv4\ip4.c ****   /* decrement TTL */
 319:c:/Users/Black_Life/STM32Cube/Repository/STM32Cube_FW_F4_V1.26.2/Middlewares/Third_Party/LwIP/src/core/ipv4\ip4.c ****   IPH_TTL_SET(iphdr, IPH_TTL(iphdr) - 1);
 320:c:/Users/Black_Life/STM32Cube/Repository/STM32Cube_FW_F4_V1.26.2/Middlewares/Third_Party/LwIP/src/core/ipv4\ip4.c ****   /* send ICMP if TTL == 0 */
 321:c:/Users/Black_Life/STM32Cube/Repository/STM32Cube_FW_F4_V1.26.2/Middlewares/Third_Party/LwIP/src/core/ipv4\ip4.c ****   if (IPH_TTL(iphdr) == 0) {
 322:c:/Users/Black_Life/STM32Cube/Repository/STM32Cube_FW_F4_V1.26.2/Middlewares/Third_Party/LwIP/src/core/ipv4\ip4.c ****     MIB2_STATS_INC(mib2.ipinhdrerrors);
 323:c:/Users/Black_Life/STM32Cube/Repository/STM32Cube_FW_F4_V1.26.2/Middlewares/Third_Party/LwIP/src/core/ipv4\ip4.c **** #if LWIP_ICMP
 324:c:/Users/Black_Life/STM32Cube/Repository/STM32Cube_FW_F4_V1.26.2/Middlewares/Third_Party/LwIP/src/core/ipv4\ip4.c ****     /* Don't send ICMP messages in response to ICMP messages */
 325:c:/Users/Black_Life/STM32Cube/Repository/STM32Cube_FW_F4_V1.26.2/Middlewares/Third_Party/LwIP/src/core/ipv4\ip4.c ****     if (IPH_PROTO(iphdr) != IP_PROTO_ICMP) {
 326:c:/Users/Black_Life/STM32Cube/Repository/STM32Cube_FW_F4_V1.26.2/Middlewares/Third_Party/LwIP/src/core/ipv4\ip4.c ****       icmp_time_exceeded(p, ICMP_TE_TTL);
 327:c:/Users/Black_Life/STM32Cube/Repository/STM32Cube_FW_F4_V1.26.2/Middlewares/Third_Party/LwIP/src/core/ipv4\ip4.c ****     }
 328:c:/Users/Black_Life/STM32Cube/Repository/STM32Cube_FW_F4_V1.26.2/Middlewares/Third_Party/LwIP/src/core/ipv4\ip4.c **** #endif /* LWIP_ICMP */
 329:c:/Users/Black_Life/STM32Cube/Repository/STM32Cube_FW_F4_V1.26.2/Middlewares/Third_Party/LwIP/src/core/ipv4\ip4.c ****     return;
 330:c:/Users/Black_Life/STM32Cube/Repository/STM32Cube_FW_F4_V1.26.2/Middlewares/Third_Party/LwIP/src/core/ipv4\ip4.c ****   }
 331:c:/Users/Black_Life/STM32Cube/Repository/STM32Cube_FW_F4_V1.26.2/Middlewares/Third_Party/LwIP/src/core/ipv4\ip4.c **** 
 332:c:/Users/Black_Life/STM32Cube/Repository/STM32Cube_FW_F4_V1.26.2/Middlewares/Third_Party/LwIP/src/core/ipv4\ip4.c ****   /* Incrementally update the IP checksum. */
 333:c:/Users/Black_Life/STM32Cube/Repository/STM32Cube_FW_F4_V1.26.2/Middlewares/Third_Party/LwIP/src/core/ipv4\ip4.c ****   if (IPH_CHKSUM(iphdr) >= PP_HTONS(0xffffU - 0x100)) {
 334:c:/Users/Black_Life/STM32Cube/Repository/STM32Cube_FW_F4_V1.26.2/Middlewares/Third_Party/LwIP/src/core/ipv4\ip4.c ****     IPH_CHKSUM_SET(iphdr, (u16_t)(IPH_CHKSUM(iphdr) + PP_HTONS(0x100) + 1));
 335:c:/Users/Black_Life/STM32Cube/Repository/STM32Cube_FW_F4_V1.26.2/Middlewares/Third_Party/LwIP/src/core/ipv4\ip4.c ****   } else {
 336:c:/Users/Black_Life/STM32Cube/Repository/STM32Cube_FW_F4_V1.26.2/Middlewares/Third_Party/LwIP/src/core/ipv4\ip4.c ****     IPH_CHKSUM_SET(iphdr, (u16_t)(IPH_CHKSUM(iphdr) + PP_HTONS(0x100)));
 337:c:/Users/Black_Life/STM32Cube/Repository/STM32Cube_FW_F4_V1.26.2/Middlewares/Third_Party/LwIP/src/core/ipv4\ip4.c ****   }
 338:c:/Users/Black_Life/STM32Cube/Repository/STM32Cube_FW_F4_V1.26.2/Middlewares/Third_Party/LwIP/src/core/ipv4\ip4.c **** 
 339:c:/Users/Black_Life/STM32Cube/Repository/STM32Cube_FW_F4_V1.26.2/Middlewares/Third_Party/LwIP/src/core/ipv4\ip4.c ****   LWIP_DEBUGF(IP_DEBUG, ("ip4_forward: forwarding packet to %"U16_F".%"U16_F".%"U16_F".%"U16_F"\n",
 340:c:/Users/Black_Life/STM32Cube/Repository/STM32Cube_FW_F4_V1.26.2/Middlewares/Third_Party/LwIP/src/core/ipv4\ip4.c ****                          ip4_addr1_16(ip4_current_dest_addr()), ip4_addr2_16(ip4_current_dest_addr(
 341:c:/Users/Black_Life/STM32Cube/Repository/STM32Cube_FW_F4_V1.26.2/Middlewares/Third_Party/LwIP/src/core/ipv4\ip4.c ****                          ip4_addr3_16(ip4_current_dest_addr()), ip4_addr4_16(ip4_current_dest_addr(
 342:c:/Users/Black_Life/STM32Cube/Repository/STM32Cube_FW_F4_V1.26.2/Middlewares/Third_Party/LwIP/src/core/ipv4\ip4.c **** 
 343:c:/Users/Black_Life/STM32Cube/Repository/STM32Cube_FW_F4_V1.26.2/Middlewares/Third_Party/LwIP/src/core/ipv4\ip4.c ****   IP_STATS_INC(ip.fw);
 344:c:/Users/Black_Life/STM32Cube/Repository/STM32Cube_FW_F4_V1.26.2/Middlewares/Third_Party/LwIP/src/core/ipv4\ip4.c ****   MIB2_STATS_INC(mib2.ipforwdatagrams);
 345:c:/Users/Black_Life/STM32Cube/Repository/STM32Cube_FW_F4_V1.26.2/Middlewares/Third_Party/LwIP/src/core/ipv4\ip4.c ****   IP_STATS_INC(ip.xmit);
 346:c:/Users/Black_Life/STM32Cube/Repository/STM32Cube_FW_F4_V1.26.2/Middlewares/Third_Party/LwIP/src/core/ipv4\ip4.c **** 
 347:c:/Users/Black_Life/STM32Cube/Repository/STM32Cube_FW_F4_V1.26.2/Middlewares/Third_Party/LwIP/src/core/ipv4\ip4.c ****   PERF_STOP("ip4_forward");
 348:c:/Users/Black_Life/STM32Cube/Repository/STM32Cube_FW_F4_V1.26.2/Middlewares/Third_Party/LwIP/src/core/ipv4\ip4.c ****   /* don't fragment if interface has mtu set to 0 [loopif] */
 349:c:/Users/Black_Life/STM32Cube/Repository/STM32Cube_FW_F4_V1.26.2/Middlewares/Third_Party/LwIP/src/core/ipv4\ip4.c ****   if (netif->mtu && (p->tot_len > netif->mtu)) {
 350:c:/Users/Black_Life/STM32Cube/Repository/STM32Cube_FW_F4_V1.26.2/Middlewares/Third_Party/LwIP/src/core/ipv4\ip4.c ****     if ((IPH_OFFSET(iphdr) & PP_NTOHS(IP_DF)) == 0) {
 351:c:/Users/Black_Life/STM32Cube/Repository/STM32Cube_FW_F4_V1.26.2/Middlewares/Third_Party/LwIP/src/core/ipv4\ip4.c **** #if IP_FRAG
 352:c:/Users/Black_Life/STM32Cube/Repository/STM32Cube_FW_F4_V1.26.2/Middlewares/Third_Party/LwIP/src/core/ipv4\ip4.c ****       ip4_frag(p, netif, ip4_current_dest_addr());
 353:c:/Users/Black_Life/STM32Cube/Repository/STM32Cube_FW_F4_V1.26.2/Middlewares/Third_Party/LwIP/src/core/ipv4\ip4.c **** #else /* IP_FRAG */
 354:c:/Users/Black_Life/STM32Cube/Repository/STM32Cube_FW_F4_V1.26.2/Middlewares/Third_Party/LwIP/src/core/ipv4\ip4.c ****       /* @todo: send ICMP Destination Unreachable code 13 "Communication administratively prohibite
 355:c:/Users/Black_Life/STM32Cube/Repository/STM32Cube_FW_F4_V1.26.2/Middlewares/Third_Party/LwIP/src/core/ipv4\ip4.c **** #endif /* IP_FRAG */
 356:c:/Users/Black_Life/STM32Cube/Repository/STM32Cube_FW_F4_V1.26.2/Middlewares/Third_Party/LwIP/src/core/ipv4\ip4.c ****     } else {
 357:c:/Users/Black_Life/STM32Cube/Repository/STM32Cube_FW_F4_V1.26.2/Middlewares/Third_Party/LwIP/src/core/ipv4\ip4.c **** #if LWIP_ICMP
 358:c:/Users/Black_Life/STM32Cube/Repository/STM32Cube_FW_F4_V1.26.2/Middlewares/Third_Party/LwIP/src/core/ipv4\ip4.c ****       /* send ICMP Destination Unreachable code 4: "Fragmentation Needed and DF Set" */
 359:c:/Users/Black_Life/STM32Cube/Repository/STM32Cube_FW_F4_V1.26.2/Middlewares/Third_Party/LwIP/src/core/ipv4\ip4.c ****       icmp_dest_unreach(p, ICMP_DUR_FRAG);
 360:c:/Users/Black_Life/STM32Cube/Repository/STM32Cube_FW_F4_V1.26.2/Middlewares/Third_Party/LwIP/src/core/ipv4\ip4.c **** #endif /* LWIP_ICMP */
 361:c:/Users/Black_Life/STM32Cube/Repository/STM32Cube_FW_F4_V1.26.2/Middlewares/Third_Party/LwIP/src/core/ipv4\ip4.c ****     }
 362:c:/Users/Black_Life/STM32Cube/Repository/STM32Cube_FW_F4_V1.26.2/Middlewares/Third_Party/LwIP/src/core/ipv4\ip4.c ****     return;
 363:c:/Users/Black_Life/STM32Cube/Repository/STM32Cube_FW_F4_V1.26.2/Middlewares/Third_Party/LwIP/src/core/ipv4\ip4.c ****   }
 364:c:/Users/Black_Life/STM32Cube/Repository/STM32Cube_FW_F4_V1.26.2/Middlewares/Third_Party/LwIP/src/core/ipv4\ip4.c ****   /* transmit pbuf on chosen interface */
 365:c:/Users/Black_Life/STM32Cube/Repository/STM32Cube_FW_F4_V1.26.2/Middlewares/Third_Party/LwIP/src/core/ipv4\ip4.c ****   netif->output(netif, p, ip4_current_dest_addr());
 366:c:/Users/Black_Life/STM32Cube/Repository/STM32Cube_FW_F4_V1.26.2/Middlewares/Third_Party/LwIP/src/core/ipv4\ip4.c ****   return;
 367:c:/Users/Black_Life/STM32Cube/Repository/STM32Cube_FW_F4_V1.26.2/Middlewares/Third_Party/LwIP/src/core/ipv4\ip4.c **** return_noroute:
 368:c:/Users/Black_Life/STM32Cube/Repository/STM32Cube_FW_F4_V1.26.2/Middlewares/Third_Party/LwIP/src/core/ipv4\ip4.c ****   MIB2_STATS_INC(mib2.ipoutnoroutes);
 369:c:/Users/Black_Life/STM32Cube/Repository/STM32Cube_FW_F4_V1.26.2/Middlewares/Third_Party/LwIP/src/core/ipv4\ip4.c **** }
 370:c:/Users/Black_Life/STM32Cube/Repository/STM32Cube_FW_F4_V1.26.2/Middlewares/Third_Party/LwIP/src/core/ipv4\ip4.c **** #endif /* IP_FORWARD */
 371:c:/Users/Black_Life/STM32Cube/Repository/STM32Cube_FW_F4_V1.26.2/Middlewares/Third_Party/LwIP/src/core/ipv4\ip4.c **** 
 372:c:/Users/Black_Life/STM32Cube/Repository/STM32Cube_FW_F4_V1.26.2/Middlewares/Third_Party/LwIP/src/core/ipv4\ip4.c **** /** Return true if the current input packet should be accepted on this netif */
ARM GAS  C:\Users\BLACK_~1\AppData\Local\Temp\cct9trHa.s 			page 8


 373:c:/Users/Black_Life/STM32Cube/Repository/STM32Cube_FW_F4_V1.26.2/Middlewares/Third_Party/LwIP/src/core/ipv4\ip4.c **** static int
 374:c:/Users/Black_Life/STM32Cube/Repository/STM32Cube_FW_F4_V1.26.2/Middlewares/Third_Party/LwIP/src/core/ipv4\ip4.c **** ip4_input_accept(struct netif *netif)
 375:c:/Users/Black_Life/STM32Cube/Repository/STM32Cube_FW_F4_V1.26.2/Middlewares/Third_Party/LwIP/src/core/ipv4\ip4.c **** {
  29              		.loc 1 375 1 view -0
  30              		.cfi_startproc
  31              		@ args = 0, pretend = 0, frame = 0
  32              		@ frame_needed = 0, uses_anonymous_args = 0
  33              		.loc 1 375 1 is_stmt 0 view .LVU1
  34 0000 08B5     		push	{r3, lr}
  35              	.LCFI0:
  36              		.cfi_def_cfa_offset 8
  37              		.cfi_offset 3, -8
  38              		.cfi_offset 14, -4
 376:c:/Users/Black_Life/STM32Cube/Repository/STM32Cube_FW_F4_V1.26.2/Middlewares/Third_Party/LwIP/src/core/ipv4\ip4.c ****   LWIP_DEBUGF(IP_DEBUG, ("ip_input: iphdr->dest 0x%"X32_F" netif->ip_addr 0x%"X32_F" (0x%"X32_F", 0
 377:c:/Users/Black_Life/STM32Cube/Repository/STM32Cube_FW_F4_V1.26.2/Middlewares/Third_Party/LwIP/src/core/ipv4\ip4.c ****                          ip4_addr_get_u32(ip4_current_dest_addr()), ip4_addr_get_u32(netif_ip4_addr
 378:c:/Users/Black_Life/STM32Cube/Repository/STM32Cube_FW_F4_V1.26.2/Middlewares/Third_Party/LwIP/src/core/ipv4\ip4.c ****                          ip4_addr_get_u32(ip4_current_dest_addr()) & ip4_addr_get_u32(netif_ip4_net
 379:c:/Users/Black_Life/STM32Cube/Repository/STM32Cube_FW_F4_V1.26.2/Middlewares/Third_Party/LwIP/src/core/ipv4\ip4.c ****                          ip4_addr_get_u32(netif_ip4_addr(netif)) & ip4_addr_get_u32(netif_ip4_netma
 380:c:/Users/Black_Life/STM32Cube/Repository/STM32Cube_FW_F4_V1.26.2/Middlewares/Third_Party/LwIP/src/core/ipv4\ip4.c ****                          ip4_addr_get_u32(ip4_current_dest_addr()) & ~ip4_addr_get_u32(netif_ip4_ne
  39              		.loc 1 380 115 is_stmt 1 view .LVU2
 381:c:/Users/Black_Life/STM32Cube/Repository/STM32Cube_FW_F4_V1.26.2/Middlewares/Third_Party/LwIP/src/core/ipv4\ip4.c **** 
 382:c:/Users/Black_Life/STM32Cube/Repository/STM32Cube_FW_F4_V1.26.2/Middlewares/Third_Party/LwIP/src/core/ipv4\ip4.c ****   /* interface is up and configured? */
 383:c:/Users/Black_Life/STM32Cube/Repository/STM32Cube_FW_F4_V1.26.2/Middlewares/Third_Party/LwIP/src/core/ipv4\ip4.c ****   if ((netif_is_up(netif)) && (!ip4_addr_isany_val(*netif_ip4_addr(netif)))) {
  40              		.loc 1 383 3 view .LVU3
  41              		.loc 1 383 8 is_stmt 0 view .LVU4
  42 0002 90F83130 		ldrb	r3, [r0, #49]	@ zero_extendqisi2
  43              		.loc 1 383 6 view .LVU5
  44 0006 13F0010F 		tst	r3, #1
  45 000a 0DD0     		beq	.L4
  46 000c 0146     		mov	r1, r0
  47              		.loc 1 383 33 discriminator 1 view .LVU6
  48 000e 4368     		ldr	r3, [r0, #4]
  49              		.loc 1 383 28 discriminator 1 view .LVU7
  50 0010 63B1     		cbz	r3, .L5
 384:c:/Users/Black_Life/STM32Cube/Repository/STM32Cube_FW_F4_V1.26.2/Middlewares/Third_Party/LwIP/src/core/ipv4\ip4.c ****     /* unicast to this interface address? */
 385:c:/Users/Black_Life/STM32Cube/Repository/STM32Cube_FW_F4_V1.26.2/Middlewares/Third_Party/LwIP/src/core/ipv4\ip4.c ****     if (ip4_addr_cmp(ip4_current_dest_addr(), netif_ip4_addr(netif)) ||
  51              		.loc 1 385 5 is_stmt 1 view .LVU8
  52              		.loc 1 385 9 is_stmt 0 view .LVU9
  53 0012 074A     		ldr	r2, .L8
  54 0014 5069     		ldr	r0, [r2, #20]
  55              	.LVL1:
  56              		.loc 1 385 8 view .LVU10
  57 0016 8342     		cmp	r3, r0
  58 0018 04D0     		beq	.L3
 386:c:/Users/Black_Life/STM32Cube/Repository/STM32Cube_FW_F4_V1.26.2/Middlewares/Third_Party/LwIP/src/core/ipv4\ip4.c ****         /* or broadcast on this interface network address? */
 387:c:/Users/Black_Life/STM32Cube/Repository/STM32Cube_FW_F4_V1.26.2/Middlewares/Third_Party/LwIP/src/core/ipv4\ip4.c ****         ip4_addr_isbroadcast(ip4_current_dest_addr(), netif)
  59              		.loc 1 387 9 discriminator 1 view .LVU11
  60 001a FFF7FEFF 		bl	ip4_addr_isbroadcast_u32
  61              	.LVL2:
 385:c:/Users/Black_Life/STM32Cube/Repository/STM32Cube_FW_F4_V1.26.2/Middlewares/Third_Party/LwIP/src/core/ipv4\ip4.c ****         /* or broadcast on this interface network address? */
  62              		.loc 1 385 70 discriminator 1 view .LVU12
  63 001e 08B9     		cbnz	r0, .L3
 388:c:/Users/Black_Life/STM32Cube/Repository/STM32Cube_FW_F4_V1.26.2/Middlewares/Third_Party/LwIP/src/core/ipv4\ip4.c **** #if LWIP_NETIF_LOOPBACK && !LWIP_HAVE_LOOPIF
 389:c:/Users/Black_Life/STM32Cube/Repository/STM32Cube_FW_F4_V1.26.2/Middlewares/Third_Party/LwIP/src/core/ipv4\ip4.c ****         || (ip4_addr_get_u32(ip4_current_dest_addr()) == PP_HTONL(IPADDR_LOOPBACK))
 390:c:/Users/Black_Life/STM32Cube/Repository/STM32Cube_FW_F4_V1.26.2/Middlewares/Third_Party/LwIP/src/core/ipv4\ip4.c **** #endif /* LWIP_NETIF_LOOPBACK && !LWIP_HAVE_LOOPIF */
 391:c:/Users/Black_Life/STM32Cube/Repository/STM32Cube_FW_F4_V1.26.2/Middlewares/Third_Party/LwIP/src/core/ipv4\ip4.c ****        ) {
 392:c:/Users/Black_Life/STM32Cube/Repository/STM32Cube_FW_F4_V1.26.2/Middlewares/Third_Party/LwIP/src/core/ipv4\ip4.c ****       LWIP_DEBUGF(IP_DEBUG, ("ip4_input: packet accepted on interface %c%c\n",
 393:c:/Users/Black_Life/STM32Cube/Repository/STM32Cube_FW_F4_V1.26.2/Middlewares/Third_Party/LwIP/src/core/ipv4\ip4.c ****                              netif->name[0], netif->name[1]));
ARM GAS  C:\Users\BLACK_~1\AppData\Local\Temp\cct9trHa.s 			page 9


 394:c:/Users/Black_Life/STM32Cube/Repository/STM32Cube_FW_F4_V1.26.2/Middlewares/Third_Party/LwIP/src/core/ipv4\ip4.c ****       /* accept on this netif */
 395:c:/Users/Black_Life/STM32Cube/Repository/STM32Cube_FW_F4_V1.26.2/Middlewares/Third_Party/LwIP/src/core/ipv4\ip4.c ****       return 1;
 396:c:/Users/Black_Life/STM32Cube/Repository/STM32Cube_FW_F4_V1.26.2/Middlewares/Third_Party/LwIP/src/core/ipv4\ip4.c ****     }
 397:c:/Users/Black_Life/STM32Cube/Repository/STM32Cube_FW_F4_V1.26.2/Middlewares/Third_Party/LwIP/src/core/ipv4\ip4.c **** #if LWIP_AUTOIP
 398:c:/Users/Black_Life/STM32Cube/Repository/STM32Cube_FW_F4_V1.26.2/Middlewares/Third_Party/LwIP/src/core/ipv4\ip4.c ****     /* connections to link-local addresses must persist after changing
 399:c:/Users/Black_Life/STM32Cube/Repository/STM32Cube_FW_F4_V1.26.2/Middlewares/Third_Party/LwIP/src/core/ipv4\ip4.c ****         the netif's address (RFC3927 ch. 1.9) */
 400:c:/Users/Black_Life/STM32Cube/Repository/STM32Cube_FW_F4_V1.26.2/Middlewares/Third_Party/LwIP/src/core/ipv4\ip4.c ****     if (autoip_accept_packet(netif, ip4_current_dest_addr())) {
 401:c:/Users/Black_Life/STM32Cube/Repository/STM32Cube_FW_F4_V1.26.2/Middlewares/Third_Party/LwIP/src/core/ipv4\ip4.c ****       LWIP_DEBUGF(IP_DEBUG, ("ip4_input: LLA packet accepted on interface %c%c\n",
 402:c:/Users/Black_Life/STM32Cube/Repository/STM32Cube_FW_F4_V1.26.2/Middlewares/Third_Party/LwIP/src/core/ipv4\ip4.c ****                              netif->name[0], netif->name[1]));
 403:c:/Users/Black_Life/STM32Cube/Repository/STM32Cube_FW_F4_V1.26.2/Middlewares/Third_Party/LwIP/src/core/ipv4\ip4.c ****       /* accept on this netif */
 404:c:/Users/Black_Life/STM32Cube/Repository/STM32Cube_FW_F4_V1.26.2/Middlewares/Third_Party/LwIP/src/core/ipv4\ip4.c ****       return 1;
 405:c:/Users/Black_Life/STM32Cube/Repository/STM32Cube_FW_F4_V1.26.2/Middlewares/Third_Party/LwIP/src/core/ipv4\ip4.c ****     }
 406:c:/Users/Black_Life/STM32Cube/Repository/STM32Cube_FW_F4_V1.26.2/Middlewares/Third_Party/LwIP/src/core/ipv4\ip4.c **** #endif /* LWIP_AUTOIP */
 407:c:/Users/Black_Life/STM32Cube/Repository/STM32Cube_FW_F4_V1.26.2/Middlewares/Third_Party/LwIP/src/core/ipv4\ip4.c ****   }
 408:c:/Users/Black_Life/STM32Cube/Repository/STM32Cube_FW_F4_V1.26.2/Middlewares/Third_Party/LwIP/src/core/ipv4\ip4.c ****   return 0;
  64              		.loc 1 408 10 view .LVU13
  65 0020 0020     		movs	r0, #0
  66 0022 02E0     		b	.L1
  67              	.L3:
 393:c:/Users/Black_Life/STM32Cube/Repository/STM32Cube_FW_F4_V1.26.2/Middlewares/Third_Party/LwIP/src/core/ipv4\ip4.c ****       /* accept on this netif */
  68              		.loc 1 393 62 is_stmt 1 view .LVU14
 395:c:/Users/Black_Life/STM32Cube/Repository/STM32Cube_FW_F4_V1.26.2/Middlewares/Third_Party/LwIP/src/core/ipv4\ip4.c ****     }
  69              		.loc 1 395 7 view .LVU15
 395:c:/Users/Black_Life/STM32Cube/Repository/STM32Cube_FW_F4_V1.26.2/Middlewares/Third_Party/LwIP/src/core/ipv4\ip4.c ****     }
  70              		.loc 1 395 14 is_stmt 0 view .LVU16
  71 0024 0120     		movs	r0, #1
  72 0026 00E0     		b	.L1
  73              	.LVL3:
  74              	.L4:
  75              		.loc 1 408 10 view .LVU17
  76 0028 0020     		movs	r0, #0
  77              	.LVL4:
  78              	.L1:
 409:c:/Users/Black_Life/STM32Cube/Repository/STM32Cube_FW_F4_V1.26.2/Middlewares/Third_Party/LwIP/src/core/ipv4\ip4.c **** }
  79              		.loc 1 409 1 view .LVU18
  80 002a 08BD     		pop	{r3, pc}
  81              	.LVL5:
  82              	.L5:
 408:c:/Users/Black_Life/STM32Cube/Repository/STM32Cube_FW_F4_V1.26.2/Middlewares/Third_Party/LwIP/src/core/ipv4\ip4.c **** }
  83              		.loc 1 408 10 view .LVU19
  84 002c 0020     		movs	r0, #0
  85              	.LVL6:
 408:c:/Users/Black_Life/STM32Cube/Repository/STM32Cube_FW_F4_V1.26.2/Middlewares/Third_Party/LwIP/src/core/ipv4\ip4.c **** }
  86              		.loc 1 408 10 view .LVU20
  87 002e FCE7     		b	.L1
  88              	.L9:
  89              		.align	2
  90              	.L8:
  91 0030 00000000 		.word	ip_data
  92              		.cfi_endproc
  93              	.LFE157:
  95              		.section	.text.ip4_route,"ax",%progbits
  96              		.align	1
  97              		.global	ip4_route
  98              		.syntax unified
  99              		.thumb
 100              		.thumb_func
ARM GAS  C:\Users\BLACK_~1\AppData\Local\Temp\cct9trHa.s 			page 10


 102              	ip4_route:
 103              	.LVL7:
 104              	.LFB156:
 153:c:/Users/Black_Life/STM32Cube/Repository/STM32Cube_FW_F4_V1.26.2/Middlewares/Third_Party/LwIP/src/core/ipv4\ip4.c **** #if !LWIP_SINGLE_NETIF
 105              		.loc 1 153 1 is_stmt 1 view -0
 106              		.cfi_startproc
 107              		@ args = 0, pretend = 0, frame = 0
 108              		@ frame_needed = 0, uses_anonymous_args = 0
 109              		@ link register save eliminated.
 153:c:/Users/Black_Life/STM32Cube/Repository/STM32Cube_FW_F4_V1.26.2/Middlewares/Third_Party/LwIP/src/core/ipv4\ip4.c **** #if !LWIP_SINGLE_NETIF
 110              		.loc 1 153 1 is_stmt 0 view .LVU22
 111 0000 8446     		mov	ip, r0
 155:c:/Users/Black_Life/STM32Cube/Repository/STM32Cube_FW_F4_V1.26.2/Middlewares/Third_Party/LwIP/src/core/ipv4\ip4.c **** 
 112              		.loc 1 155 3 is_stmt 1 view .LVU23
 157:c:/Users/Black_Life/STM32Cube/Repository/STM32Cube_FW_F4_V1.26.2/Middlewares/Third_Party/LwIP/src/core/ipv4\ip4.c **** 
 113              		.loc 1 157 28 view .LVU24
 167:c:/Users/Black_Life/STM32Cube/Repository/STM32Cube_FW_F4_V1.26.2/Middlewares/Third_Party/LwIP/src/core/ipv4\ip4.c **** 
 114              		.loc 1 167 3 view .LVU25
 170:c:/Users/Black_Life/STM32Cube/Repository/STM32Cube_FW_F4_V1.26.2/Middlewares/Third_Party/LwIP/src/core/ipv4\ip4.c ****     /* is the netif up, does it have a link and a valid address? */
 115              		.loc 1 170 3 view .LVU26
 116 0002 284B     		ldr	r3, .L31
 117 0004 1868     		ldr	r0, [r3]
 118              	.LVL8:
 170:c:/Users/Black_Life/STM32Cube/Repository/STM32Cube_FW_F4_V1.26.2/Middlewares/Third_Party/LwIP/src/core/ipv4\ip4.c ****     /* is the netif up, does it have a link and a valid address? */
 119              		.loc 1 170 3 is_stmt 0 view .LVU27
 120 0006 2DE0     		b	.L16
 121              	.L12:
 122              	.LCFI1:
 123              		.cfi_def_cfa_offset 4
 124              		.cfi_offset 4, -4
 170:c:/Users/Black_Life/STM32Cube/Repository/STM32Cube_FW_F4_V1.26.2/Middlewares/Third_Party/LwIP/src/core/ipv4\ip4.c ****     /* is the netif up, does it have a link and a valid address? */
 125              		.loc 1 170 3 is_stmt 1 discriminator 2 view .LVU28
 126 0008 0068     		ldr	r0, [r0]
 127              	.LVL9:
 170:c:/Users/Black_Life/STM32Cube/Repository/STM32Cube_FW_F4_V1.26.2/Middlewares/Third_Party/LwIP/src/core/ipv4\ip4.c ****     /* is the netif up, does it have a link and a valid address? */
 128              		.loc 1 170 3 discriminator 2 view .LVU29
 129 000a B8B1     		cbz	r0, .L29
 172:c:/Users/Black_Life/STM32Cube/Repository/STM32Cube_FW_F4_V1.26.2/Middlewares/Third_Party/LwIP/src/core/ipv4\ip4.c ****       /* network mask matches? */
 130              		.loc 1 172 5 view .LVU30
 172:c:/Users/Black_Life/STM32Cube/Repository/STM32Cube_FW_F4_V1.26.2/Middlewares/Third_Party/LwIP/src/core/ipv4\ip4.c ****       /* network mask matches? */
 131              		.loc 1 172 9 is_stmt 0 view .LVU31
 132 000c 90F83130 		ldrb	r3, [r0, #49]	@ zero_extendqisi2
 172:c:/Users/Black_Life/STM32Cube/Repository/STM32Cube_FW_F4_V1.26.2/Middlewares/Third_Party/LwIP/src/core/ipv4\ip4.c ****       /* network mask matches? */
 133              		.loc 1 172 8 view .LVU32
 134 0010 13F0010F 		tst	r3, #1
 135 0014 F8D0     		beq	.L12
 172:c:/Users/Black_Life/STM32Cube/Repository/STM32Cube_FW_F4_V1.26.2/Middlewares/Third_Party/LwIP/src/core/ipv4\ip4.c ****       /* network mask matches? */
 136              		.loc 1 172 28 discriminator 1 view .LVU33
 137 0016 13F0040F 		tst	r3, #4
 138 001a F5D0     		beq	.L12
 172:c:/Users/Black_Life/STM32Cube/Repository/STM32Cube_FW_F4_V1.26.2/Middlewares/Third_Party/LwIP/src/core/ipv4\ip4.c ****       /* network mask matches? */
 139              		.loc 1 172 59 discriminator 2 view .LVU34
 140 001c 4268     		ldr	r2, [r0, #4]
 172:c:/Users/Black_Life/STM32Cube/Repository/STM32Cube_FW_F4_V1.26.2/Middlewares/Third_Party/LwIP/src/core/ipv4\ip4.c ****       /* network mask matches? */
 141              		.loc 1 172 55 discriminator 2 view .LVU35
 142 001e 002A     		cmp	r2, #0
 143 0020 F2D0     		beq	.L12
ARM GAS  C:\Users\BLACK_~1\AppData\Local\Temp\cct9trHa.s 			page 11


 144              	.L20:
 174:c:/Users/Black_Life/STM32Cube/Repository/STM32Cube_FW_F4_V1.26.2/Middlewares/Third_Party/LwIP/src/core/ipv4\ip4.c ****         /* return netif on which to forward IP packet */
 145              		.loc 1 174 7 is_stmt 1 view .LVU36
 174:c:/Users/Black_Life/STM32Cube/Repository/STM32Cube_FW_F4_V1.26.2/Middlewares/Third_Party/LwIP/src/core/ipv4\ip4.c ****         /* return netif on which to forward IP packet */
 146              		.loc 1 174 11 is_stmt 0 view .LVU37
 147 0022 DCF80010 		ldr	r1, [ip]
 148 0026 4A40     		eors	r2, r2, r1
 174:c:/Users/Black_Life/STM32Cube/Repository/STM32Cube_FW_F4_V1.26.2/Middlewares/Third_Party/LwIP/src/core/ipv4\ip4.c ****         /* return netif on which to forward IP packet */
 149              		.loc 1 174 10 view .LVU38
 150 0028 8468     		ldr	r4, [r0, #8]
 151 002a 2242     		tst	r2, r4
 152 002c 16D0     		beq	.L10
 179:c:/Users/Black_Life/STM32Cube/Repository/STM32Cube_FW_F4_V1.26.2/Middlewares/Third_Party/LwIP/src/core/ipv4\ip4.c ****         /* return netif on which to forward IP packet */
 153              		.loc 1 179 7 is_stmt 1 view .LVU39
 179:c:/Users/Black_Life/STM32Cube/Repository/STM32Cube_FW_F4_V1.26.2/Middlewares/Third_Party/LwIP/src/core/ipv4\ip4.c ****         /* return netif on which to forward IP packet */
 154              		.loc 1 179 10 is_stmt 0 view .LVU40
 155 002e 13F0020F 		tst	r3, #2
 156 0032 E9D1     		bne	.L12
 179:c:/Users/Black_Life/STM32Cube/Repository/STM32Cube_FW_F4_V1.26.2/Middlewares/Third_Party/LwIP/src/core/ipv4\ip4.c ****         /* return netif on which to forward IP packet */
 157              		.loc 1 179 59 discriminator 1 view .LVU41
 158 0034 C368     		ldr	r3, [r0, #12]
 179:c:/Users/Black_Life/STM32Cube/Repository/STM32Cube_FW_F4_V1.26.2/Middlewares/Third_Party/LwIP/src/core/ipv4\ip4.c ****         /* return netif on which to forward IP packet */
 159              		.loc 1 179 56 discriminator 1 view .LVU42
 160 0036 9942     		cmp	r1, r3
 161 0038 E6D1     		bne	.L12
 162 003a 0FE0     		b	.L10
 163              	.L29:
 216:c:/Users/Black_Life/STM32Cube/Repository/STM32Cube_FW_F4_V1.26.2/Middlewares/Third_Party/LwIP/src/core/ipv4\ip4.c ****       ip4_addr_isany_val(*netif_ip4_addr(netif_default)) || ip4_addr_isloopback(dest)) {
 164              		.loc 1 216 3 is_stmt 1 view .LVU43
 216:c:/Users/Black_Life/STM32Cube/Repository/STM32Cube_FW_F4_V1.26.2/Middlewares/Third_Party/LwIP/src/core/ipv4\ip4.c ****       ip4_addr_isany_val(*netif_ip4_addr(netif_default)) || ip4_addr_isloopback(dest)) {
 165              		.loc 1 216 22 is_stmt 0 view .LVU44
 166 003c 1A4B     		ldr	r3, .L31+4
 167 003e 1B68     		ldr	r3, [r3]
 216:c:/Users/Black_Life/STM32Cube/Repository/STM32Cube_FW_F4_V1.26.2/Middlewares/Third_Party/LwIP/src/core/ipv4\ip4.c ****       ip4_addr_isany_val(*netif_ip4_addr(netif_default)) || ip4_addr_isloopback(dest)) {
 168              		.loc 1 216 6 view .LVU45
 169 0040 63B1     		cbz	r3, .L10
 216:c:/Users/Black_Life/STM32Cube/Repository/STM32Cube_FW_F4_V1.26.2/Middlewares/Third_Party/LwIP/src/core/ipv4\ip4.c ****       ip4_addr_isany_val(*netif_ip4_addr(netif_default)) || ip4_addr_isloopback(dest)) {
 170              		.loc 1 216 35 discriminator 1 view .LVU46
 171 0042 93F83120 		ldrb	r2, [r3, #49]	@ zero_extendqisi2
 216:c:/Users/Black_Life/STM32Cube/Repository/STM32Cube_FW_F4_V1.26.2/Middlewares/Third_Party/LwIP/src/core/ipv4\ip4.c ****       ip4_addr_isany_val(*netif_ip4_addr(netif_default)) || ip4_addr_isloopback(dest)) {
 172              		.loc 1 216 62 discriminator 1 view .LVU47
 173 0046 02F00502 		and	r2, r2, #5
 174 004a 052A     		cmp	r2, #5
 175 004c 06D1     		bne	.L10
 217:c:/Users/Black_Life/STM32Cube/Repository/STM32Cube_FW_F4_V1.26.2/Middlewares/Third_Party/LwIP/src/core/ipv4\ip4.c ****     /* No matching netif found and default netif is not usable.
 176              		.loc 1 217 7 discriminator 2 view .LVU48
 177 004e 5A68     		ldr	r2, [r3, #4]
 216:c:/Users/Black_Life/STM32Cube/Repository/STM32Cube_FW_F4_V1.26.2/Middlewares/Third_Party/LwIP/src/core/ipv4\ip4.c ****       ip4_addr_isany_val(*netif_ip4_addr(netif_default)) || ip4_addr_isloopback(dest)) {
 178              		.loc 1 216 98 discriminator 2 view .LVU49
 179 0050 22B1     		cbz	r2, .L10
 217:c:/Users/Black_Life/STM32Cube/Repository/STM32Cube_FW_F4_V1.26.2/Middlewares/Third_Party/LwIP/src/core/ipv4\ip4.c ****     /* No matching netif found and default netif is not usable.
 180              		.loc 1 217 61 view .LVU50
 181 0052 9CF80020 		ldrb	r2, [ip]	@ zero_extendqisi2
 217:c:/Users/Black_Life/STM32Cube/Repository/STM32Cube_FW_F4_V1.26.2/Middlewares/Third_Party/LwIP/src/core/ipv4\ip4.c ****     /* No matching netif found and default netif is not usable.
 182              		.loc 1 217 58 view .LVU51
 183 0056 7F2A     		cmp	r2, #127
 184 0058 00D0     		beq	.L10
ARM GAS  C:\Users\BLACK_~1\AppData\Local\Temp\cct9trHa.s 			page 12


 227:c:/Users/Black_Life/STM32Cube/Repository/STM32Cube_FW_F4_V1.26.2/Middlewares/Third_Party/LwIP/src/core/ipv4\ip4.c **** }
 185              		.loc 1 227 10 view .LVU52
 186 005a 1846     		mov	r0, r3
 187              	.LVL10:
 188              	.L10:
 228:c:/Users/Black_Life/STM32Cube/Repository/STM32Cube_FW_F4_V1.26.2/Middlewares/Third_Party/LwIP/src/core/ipv4\ip4.c **** 
 189              		.loc 1 228 1 view .LVU53
 190 005c 5DF8044B 		ldr	r4, [sp], #4
 191              	.LCFI2:
 192              		.cfi_restore 4
 193              		.cfi_def_cfa_offset 0
 194 0060 7047     		bx	lr
 195              	.LVL11:
 196              	.L18:
 170:c:/Users/Black_Life/STM32Cube/Repository/STM32Cube_FW_F4_V1.26.2/Middlewares/Third_Party/LwIP/src/core/ipv4\ip4.c ****     /* is the netif up, does it have a link and a valid address? */
 197              		.loc 1 170 3 is_stmt 1 view .LVU54
 198 0062 0068     		ldr	r0, [r0]
 199              	.LVL12:
 200              	.L16:
 170:c:/Users/Black_Life/STM32Cube/Repository/STM32Cube_FW_F4_V1.26.2/Middlewares/Third_Party/LwIP/src/core/ipv4\ip4.c ****     /* is the netif up, does it have a link and a valid address? */
 201              		.loc 1 170 3 view .LVU55
 202 0064 60B1     		cbz	r0, .L30
 172:c:/Users/Black_Life/STM32Cube/Repository/STM32Cube_FW_F4_V1.26.2/Middlewares/Third_Party/LwIP/src/core/ipv4\ip4.c ****       /* network mask matches? */
 203              		.loc 1 172 5 view .LVU56
 172:c:/Users/Black_Life/STM32Cube/Repository/STM32Cube_FW_F4_V1.26.2/Middlewares/Third_Party/LwIP/src/core/ipv4\ip4.c ****       /* network mask matches? */
 204              		.loc 1 172 9 is_stmt 0 view .LVU57
 205 0066 90F83130 		ldrb	r3, [r0, #49]	@ zero_extendqisi2
 172:c:/Users/Black_Life/STM32Cube/Repository/STM32Cube_FW_F4_V1.26.2/Middlewares/Third_Party/LwIP/src/core/ipv4\ip4.c ****       /* network mask matches? */
 206              		.loc 1 172 8 view .LVU58
 207 006a 13F0010F 		tst	r3, #1
 208 006e F8D0     		beq	.L18
 172:c:/Users/Black_Life/STM32Cube/Repository/STM32Cube_FW_F4_V1.26.2/Middlewares/Third_Party/LwIP/src/core/ipv4\ip4.c ****       /* network mask matches? */
 209              		.loc 1 172 28 view .LVU59
 210 0070 13F0040F 		tst	r3, #4
 211 0074 F5D0     		beq	.L18
 172:c:/Users/Black_Life/STM32Cube/Repository/STM32Cube_FW_F4_V1.26.2/Middlewares/Third_Party/LwIP/src/core/ipv4\ip4.c ****       /* network mask matches? */
 212              		.loc 1 172 59 view .LVU60
 213 0076 4268     		ldr	r2, [r0, #4]
 172:c:/Users/Black_Life/STM32Cube/Repository/STM32Cube_FW_F4_V1.26.2/Middlewares/Third_Party/LwIP/src/core/ipv4\ip4.c ****       /* network mask matches? */
 214              		.loc 1 172 55 view .LVU61
 215 0078 002A     		cmp	r2, #0
 216 007a F2D0     		beq	.L18
 153:c:/Users/Black_Life/STM32Cube/Repository/STM32Cube_FW_F4_V1.26.2/Middlewares/Third_Party/LwIP/src/core/ipv4\ip4.c **** #if !LWIP_SINGLE_NETIF
 217              		.loc 1 153 1 view .LVU62
 218 007c 10B4     		push	{r4}
 219              	.LCFI3:
 220              		.cfi_def_cfa_offset 4
 221              		.cfi_offset 4, -4
 222 007e D0E7     		b	.L20
 223              	.L30:
 224              	.LCFI4:
 225              		.cfi_def_cfa_offset 0
 226              		.cfi_restore 4
 216:c:/Users/Black_Life/STM32Cube/Repository/STM32Cube_FW_F4_V1.26.2/Middlewares/Third_Party/LwIP/src/core/ipv4\ip4.c ****       ip4_addr_isany_val(*netif_ip4_addr(netif_default)) || ip4_addr_isloopback(dest)) {
 227              		.loc 1 216 3 is_stmt 1 view .LVU63
 216:c:/Users/Black_Life/STM32Cube/Repository/STM32Cube_FW_F4_V1.26.2/Middlewares/Third_Party/LwIP/src/core/ipv4\ip4.c ****       ip4_addr_isany_val(*netif_ip4_addr(netif_default)) || ip4_addr_isloopback(dest)) {
 228              		.loc 1 216 22 is_stmt 0 view .LVU64
ARM GAS  C:\Users\BLACK_~1\AppData\Local\Temp\cct9trHa.s 			page 13


 229 0080 094B     		ldr	r3, .L31+4
 230 0082 1B68     		ldr	r3, [r3]
 216:c:/Users/Black_Life/STM32Cube/Repository/STM32Cube_FW_F4_V1.26.2/Middlewares/Third_Party/LwIP/src/core/ipv4\ip4.c ****       ip4_addr_isany_val(*netif_ip4_addr(netif_default)) || ip4_addr_isloopback(dest)) {
 231              		.loc 1 216 6 view .LVU65
 232 0084 6BB1     		cbz	r3, .L23
 216:c:/Users/Black_Life/STM32Cube/Repository/STM32Cube_FW_F4_V1.26.2/Middlewares/Third_Party/LwIP/src/core/ipv4\ip4.c ****       ip4_addr_isany_val(*netif_ip4_addr(netif_default)) || ip4_addr_isloopback(dest)) {
 233              		.loc 1 216 35 view .LVU66
 234 0086 93F83120 		ldrb	r2, [r3, #49]	@ zero_extendqisi2
 216:c:/Users/Black_Life/STM32Cube/Repository/STM32Cube_FW_F4_V1.26.2/Middlewares/Third_Party/LwIP/src/core/ipv4\ip4.c ****       ip4_addr_isany_val(*netif_ip4_addr(netif_default)) || ip4_addr_isloopback(dest)) {
 235              		.loc 1 216 62 view .LVU67
 236 008a 02F00502 		and	r2, r2, #5
 237 008e 052A     		cmp	r2, #5
 238 0090 07D1     		bne	.L23
 217:c:/Users/Black_Life/STM32Cube/Repository/STM32Cube_FW_F4_V1.26.2/Middlewares/Third_Party/LwIP/src/core/ipv4\ip4.c ****     /* No matching netif found and default netif is not usable.
 239              		.loc 1 217 7 view .LVU68
 240 0092 5A68     		ldr	r2, [r3, #4]
 216:c:/Users/Black_Life/STM32Cube/Repository/STM32Cube_FW_F4_V1.26.2/Middlewares/Third_Party/LwIP/src/core/ipv4\ip4.c ****       ip4_addr_isany_val(*netif_ip4_addr(netif_default)) || ip4_addr_isloopback(dest)) {
 241              		.loc 1 216 98 view .LVU69
 242 0094 2AB1     		cbz	r2, .L23
 217:c:/Users/Black_Life/STM32Cube/Repository/STM32Cube_FW_F4_V1.26.2/Middlewares/Third_Party/LwIP/src/core/ipv4\ip4.c ****     /* No matching netif found and default netif is not usable.
 243              		.loc 1 217 61 view .LVU70
 244 0096 9CF80020 		ldrb	r2, [ip]	@ zero_extendqisi2
 217:c:/Users/Black_Life/STM32Cube/Repository/STM32Cube_FW_F4_V1.26.2/Middlewares/Third_Party/LwIP/src/core/ipv4\ip4.c ****     /* No matching netif found and default netif is not usable.
 245              		.loc 1 217 58 view .LVU71
 246 009a 7F2A     		cmp	r2, #127
 247 009c 01D0     		beq	.L23
 227:c:/Users/Black_Life/STM32Cube/Repository/STM32Cube_FW_F4_V1.26.2/Middlewares/Third_Party/LwIP/src/core/ipv4\ip4.c **** }
 248              		.loc 1 227 10 view .LVU72
 249 009e 1846     		mov	r0, r3
 250              	.LVL13:
 227:c:/Users/Black_Life/STM32Cube/Repository/STM32Cube_FW_F4_V1.26.2/Middlewares/Third_Party/LwIP/src/core/ipv4\ip4.c **** }
 251              		.loc 1 227 10 view .LVU73
 252 00a0 7047     		bx	lr
 253              	.LVL14:
 254              	.L23:
 228:c:/Users/Black_Life/STM32Cube/Repository/STM32Cube_FW_F4_V1.26.2/Middlewares/Third_Party/LwIP/src/core/ipv4\ip4.c **** 
 255              		.loc 1 228 1 view .LVU74
 256 00a2 7047     		bx	lr
 257              	.L32:
 258              		.align	2
 259              	.L31:
 260 00a4 00000000 		.word	netif_list
 261 00a8 00000000 		.word	netif_default
 262              		.cfi_endproc
 263              	.LFE156:
 265              		.section	.text.ip4_input,"ax",%progbits
 266              		.align	1
 267              		.global	ip4_input
 268              		.syntax unified
 269              		.thumb
 270              		.thumb_func
 272              	ip4_input:
 273              	.LVL15:
 274              	.LFB158:
 410:c:/Users/Black_Life/STM32Cube/Repository/STM32Cube_FW_F4_V1.26.2/Middlewares/Third_Party/LwIP/src/core/ipv4\ip4.c **** 
 411:c:/Users/Black_Life/STM32Cube/Repository/STM32Cube_FW_F4_V1.26.2/Middlewares/Third_Party/LwIP/src/core/ipv4\ip4.c **** /**
 412:c:/Users/Black_Life/STM32Cube/Repository/STM32Cube_FW_F4_V1.26.2/Middlewares/Third_Party/LwIP/src/core/ipv4\ip4.c ****  * This function is called by the network interface device driver when
ARM GAS  C:\Users\BLACK_~1\AppData\Local\Temp\cct9trHa.s 			page 14


 413:c:/Users/Black_Life/STM32Cube/Repository/STM32Cube_FW_F4_V1.26.2/Middlewares/Third_Party/LwIP/src/core/ipv4\ip4.c ****  * an IP packet is received. The function does the basic checks of the
 414:c:/Users/Black_Life/STM32Cube/Repository/STM32Cube_FW_F4_V1.26.2/Middlewares/Third_Party/LwIP/src/core/ipv4\ip4.c ****  * IP header such as packet size being at least larger than the header
 415:c:/Users/Black_Life/STM32Cube/Repository/STM32Cube_FW_F4_V1.26.2/Middlewares/Third_Party/LwIP/src/core/ipv4\ip4.c ****  * size etc. If the packet was not destined for us, the packet is
 416:c:/Users/Black_Life/STM32Cube/Repository/STM32Cube_FW_F4_V1.26.2/Middlewares/Third_Party/LwIP/src/core/ipv4\ip4.c ****  * forwarded (using ip_forward). The IP checksum is always checked.
 417:c:/Users/Black_Life/STM32Cube/Repository/STM32Cube_FW_F4_V1.26.2/Middlewares/Third_Party/LwIP/src/core/ipv4\ip4.c ****  *
 418:c:/Users/Black_Life/STM32Cube/Repository/STM32Cube_FW_F4_V1.26.2/Middlewares/Third_Party/LwIP/src/core/ipv4\ip4.c ****  * Finally, the packet is sent to the upper layer protocol input function.
 419:c:/Users/Black_Life/STM32Cube/Repository/STM32Cube_FW_F4_V1.26.2/Middlewares/Third_Party/LwIP/src/core/ipv4\ip4.c ****  *
 420:c:/Users/Black_Life/STM32Cube/Repository/STM32Cube_FW_F4_V1.26.2/Middlewares/Third_Party/LwIP/src/core/ipv4\ip4.c ****  * @param p the received IP packet (p->payload points to IP header)
 421:c:/Users/Black_Life/STM32Cube/Repository/STM32Cube_FW_F4_V1.26.2/Middlewares/Third_Party/LwIP/src/core/ipv4\ip4.c ****  * @param inp the netif on which this packet was received
 422:c:/Users/Black_Life/STM32Cube/Repository/STM32Cube_FW_F4_V1.26.2/Middlewares/Third_Party/LwIP/src/core/ipv4\ip4.c ****  * @return ERR_OK if the packet was processed (could return ERR_* if it wasn't
 423:c:/Users/Black_Life/STM32Cube/Repository/STM32Cube_FW_F4_V1.26.2/Middlewares/Third_Party/LwIP/src/core/ipv4\ip4.c ****  *         processed, but currently always returns ERR_OK)
 424:c:/Users/Black_Life/STM32Cube/Repository/STM32Cube_FW_F4_V1.26.2/Middlewares/Third_Party/LwIP/src/core/ipv4\ip4.c ****  */
 425:c:/Users/Black_Life/STM32Cube/Repository/STM32Cube_FW_F4_V1.26.2/Middlewares/Third_Party/LwIP/src/core/ipv4\ip4.c **** err_t
 426:c:/Users/Black_Life/STM32Cube/Repository/STM32Cube_FW_F4_V1.26.2/Middlewares/Third_Party/LwIP/src/core/ipv4\ip4.c **** ip4_input(struct pbuf *p, struct netif *inp)
 427:c:/Users/Black_Life/STM32Cube/Repository/STM32Cube_FW_F4_V1.26.2/Middlewares/Third_Party/LwIP/src/core/ipv4\ip4.c **** {
 275              		.loc 1 427 1 is_stmt 1 view -0
 276              		.cfi_startproc
 277              		@ args = 0, pretend = 0, frame = 0
 278              		@ frame_needed = 0, uses_anonymous_args = 0
 279              		.loc 1 427 1 is_stmt 0 view .LVU76
 280 0000 2DE9F843 		push	{r3, r4, r5, r6, r7, r8, r9, lr}
 281              	.LCFI5:
 282              		.cfi_def_cfa_offset 32
 283              		.cfi_offset 3, -32
 284              		.cfi_offset 4, -28
 285              		.cfi_offset 5, -24
 286              		.cfi_offset 6, -20
 287              		.cfi_offset 7, -16
 288              		.cfi_offset 8, -12
 289              		.cfi_offset 9, -8
 290              		.cfi_offset 14, -4
 291 0004 0446     		mov	r4, r0
 428:c:/Users/Black_Life/STM32Cube/Repository/STM32Cube_FW_F4_V1.26.2/Middlewares/Third_Party/LwIP/src/core/ipv4\ip4.c ****   const struct ip_hdr *iphdr;
 292              		.loc 1 428 3 is_stmt 1 view .LVU77
 429:c:/Users/Black_Life/STM32Cube/Repository/STM32Cube_FW_F4_V1.26.2/Middlewares/Third_Party/LwIP/src/core/ipv4\ip4.c ****   struct netif *netif;
 293              		.loc 1 429 3 view .LVU78
 430:c:/Users/Black_Life/STM32Cube/Repository/STM32Cube_FW_F4_V1.26.2/Middlewares/Third_Party/LwIP/src/core/ipv4\ip4.c ****   u16_t iphdr_hlen;
 294              		.loc 1 430 3 view .LVU79
 431:c:/Users/Black_Life/STM32Cube/Repository/STM32Cube_FW_F4_V1.26.2/Middlewares/Third_Party/LwIP/src/core/ipv4\ip4.c ****   u16_t iphdr_len;
 295              		.loc 1 431 3 view .LVU80
 432:c:/Users/Black_Life/STM32Cube/Repository/STM32Cube_FW_F4_V1.26.2/Middlewares/Third_Party/LwIP/src/core/ipv4\ip4.c **** #if IP_ACCEPT_LINK_LAYER_ADDRESSING || LWIP_IGMP
 433:c:/Users/Black_Life/STM32Cube/Repository/STM32Cube_FW_F4_V1.26.2/Middlewares/Third_Party/LwIP/src/core/ipv4\ip4.c ****   int check_ip_src = 1;
 296              		.loc 1 433 3 view .LVU81
 297              	.LVL16:
 434:c:/Users/Black_Life/STM32Cube/Repository/STM32Cube_FW_F4_V1.26.2/Middlewares/Third_Party/LwIP/src/core/ipv4\ip4.c **** #endif /* IP_ACCEPT_LINK_LAYER_ADDRESSING || LWIP_IGMP */
 435:c:/Users/Black_Life/STM32Cube/Repository/STM32Cube_FW_F4_V1.26.2/Middlewares/Third_Party/LwIP/src/core/ipv4\ip4.c **** #if LWIP_RAW
 436:c:/Users/Black_Life/STM32Cube/Repository/STM32Cube_FW_F4_V1.26.2/Middlewares/Third_Party/LwIP/src/core/ipv4\ip4.c ****   raw_input_state_t raw_status;
 437:c:/Users/Black_Life/STM32Cube/Repository/STM32Cube_FW_F4_V1.26.2/Middlewares/Third_Party/LwIP/src/core/ipv4\ip4.c **** #endif /* LWIP_RAW */
 438:c:/Users/Black_Life/STM32Cube/Repository/STM32Cube_FW_F4_V1.26.2/Middlewares/Third_Party/LwIP/src/core/ipv4\ip4.c **** 
 439:c:/Users/Black_Life/STM32Cube/Repository/STM32Cube_FW_F4_V1.26.2/Middlewares/Third_Party/LwIP/src/core/ipv4\ip4.c ****   LWIP_ASSERT_CORE_LOCKED();
 298              		.loc 1 439 28 view .LVU82
 440:c:/Users/Black_Life/STM32Cube/Repository/STM32Cube_FW_F4_V1.26.2/Middlewares/Third_Party/LwIP/src/core/ipv4\ip4.c **** 
 441:c:/Users/Black_Life/STM32Cube/Repository/STM32Cube_FW_F4_V1.26.2/Middlewares/Third_Party/LwIP/src/core/ipv4\ip4.c ****   IP_STATS_INC(ip.recv);
 299              		.loc 1 441 24 view .LVU83
 442:c:/Users/Black_Life/STM32Cube/Repository/STM32Cube_FW_F4_V1.26.2/Middlewares/Third_Party/LwIP/src/core/ipv4\ip4.c ****   MIB2_STATS_INC(mib2.ipinreceives);
 300              		.loc 1 442 36 view .LVU84
 443:c:/Users/Black_Life/STM32Cube/Repository/STM32Cube_FW_F4_V1.26.2/Middlewares/Third_Party/LwIP/src/core/ipv4\ip4.c **** 
ARM GAS  C:\Users\BLACK_~1\AppData\Local\Temp\cct9trHa.s 			page 15


 444:c:/Users/Black_Life/STM32Cube/Repository/STM32Cube_FW_F4_V1.26.2/Middlewares/Third_Party/LwIP/src/core/ipv4\ip4.c ****   /* identify the IP header */
 445:c:/Users/Black_Life/STM32Cube/Repository/STM32Cube_FW_F4_V1.26.2/Middlewares/Third_Party/LwIP/src/core/ipv4\ip4.c ****   iphdr = (struct ip_hdr *)p->payload;
 301              		.loc 1 445 3 view .LVU85
 302              		.loc 1 445 9 is_stmt 0 view .LVU86
 303 0006 D0F80480 		ldr	r8, [r0, #4]
 304              	.LVL17:
 446:c:/Users/Black_Life/STM32Cube/Repository/STM32Cube_FW_F4_V1.26.2/Middlewares/Third_Party/LwIP/src/core/ipv4\ip4.c ****   if (IPH_V(iphdr) != 4) {
 305              		.loc 1 446 3 is_stmt 1 view .LVU87
 306              		.loc 1 446 7 is_stmt 0 view .LVU88
 307 000a 98F80030 		ldrb	r3, [r8]	@ zero_extendqisi2
 308              		.loc 1 446 20 view .LVU89
 309 000e 1A09     		lsrs	r2, r3, #4
 310              		.loc 1 446 6 view .LVU90
 311 0010 042A     		cmp	r2, #4
 312 0012 04D0     		beq	.L34
 447:c:/Users/Black_Life/STM32Cube/Repository/STM32Cube_FW_F4_V1.26.2/Middlewares/Third_Party/LwIP/src/core/ipv4\ip4.c ****     LWIP_DEBUGF(IP_DEBUG | LWIP_DBG_LEVEL_WARNING, ("IP packet dropped due to bad version number %"
 313              		.loc 1 447 132 is_stmt 1 view .LVU91
 448:c:/Users/Black_Life/STM32Cube/Repository/STM32Cube_FW_F4_V1.26.2/Middlewares/Third_Party/LwIP/src/core/ipv4\ip4.c ****     ip4_debug_print(p);
 314              		.loc 1 448 23 view .LVU92
 449:c:/Users/Black_Life/STM32Cube/Repository/STM32Cube_FW_F4_V1.26.2/Middlewares/Third_Party/LwIP/src/core/ipv4\ip4.c ****     pbuf_free(p);
 315              		.loc 1 449 5 view .LVU93
 316 0014 FFF7FEFF 		bl	pbuf_free
 317              	.LVL18:
 450:c:/Users/Black_Life/STM32Cube/Repository/STM32Cube_FW_F4_V1.26.2/Middlewares/Third_Party/LwIP/src/core/ipv4\ip4.c ****     IP_STATS_INC(ip.err);
 318              		.loc 1 450 25 view .LVU94
 451:c:/Users/Black_Life/STM32Cube/Repository/STM32Cube_FW_F4_V1.26.2/Middlewares/Third_Party/LwIP/src/core/ipv4\ip4.c ****     IP_STATS_INC(ip.drop);
 319              		.loc 1 451 26 view .LVU95
 452:c:/Users/Black_Life/STM32Cube/Repository/STM32Cube_FW_F4_V1.26.2/Middlewares/Third_Party/LwIP/src/core/ipv4\ip4.c ****     MIB2_STATS_INC(mib2.ipinhdrerrors);
 320              		.loc 1 452 39 view .LVU96
 453:c:/Users/Black_Life/STM32Cube/Repository/STM32Cube_FW_F4_V1.26.2/Middlewares/Third_Party/LwIP/src/core/ipv4\ip4.c ****     return ERR_OK;
 321              		.loc 1 453 5 view .LVU97
 322              	.L35:
 454:c:/Users/Black_Life/STM32Cube/Repository/STM32Cube_FW_F4_V1.26.2/Middlewares/Third_Party/LwIP/src/core/ipv4\ip4.c ****   }
 455:c:/Users/Black_Life/STM32Cube/Repository/STM32Cube_FW_F4_V1.26.2/Middlewares/Third_Party/LwIP/src/core/ipv4\ip4.c **** 
 456:c:/Users/Black_Life/STM32Cube/Repository/STM32Cube_FW_F4_V1.26.2/Middlewares/Third_Party/LwIP/src/core/ipv4\ip4.c **** #ifdef LWIP_HOOK_IP4_INPUT
 457:c:/Users/Black_Life/STM32Cube/Repository/STM32Cube_FW_F4_V1.26.2/Middlewares/Third_Party/LwIP/src/core/ipv4\ip4.c ****   if (LWIP_HOOK_IP4_INPUT(p, inp)) {
 458:c:/Users/Black_Life/STM32Cube/Repository/STM32Cube_FW_F4_V1.26.2/Middlewares/Third_Party/LwIP/src/core/ipv4\ip4.c ****     /* the packet has been eaten */
 459:c:/Users/Black_Life/STM32Cube/Repository/STM32Cube_FW_F4_V1.26.2/Middlewares/Third_Party/LwIP/src/core/ipv4\ip4.c ****     return ERR_OK;
 460:c:/Users/Black_Life/STM32Cube/Repository/STM32Cube_FW_F4_V1.26.2/Middlewares/Third_Party/LwIP/src/core/ipv4\ip4.c ****   }
 461:c:/Users/Black_Life/STM32Cube/Repository/STM32Cube_FW_F4_V1.26.2/Middlewares/Third_Party/LwIP/src/core/ipv4\ip4.c **** #endif
 462:c:/Users/Black_Life/STM32Cube/Repository/STM32Cube_FW_F4_V1.26.2/Middlewares/Third_Party/LwIP/src/core/ipv4\ip4.c **** 
 463:c:/Users/Black_Life/STM32Cube/Repository/STM32Cube_FW_F4_V1.26.2/Middlewares/Third_Party/LwIP/src/core/ipv4\ip4.c ****   /* obtain IP header length in bytes */
 464:c:/Users/Black_Life/STM32Cube/Repository/STM32Cube_FW_F4_V1.26.2/Middlewares/Third_Party/LwIP/src/core/ipv4\ip4.c ****   iphdr_hlen = IPH_HL_BYTES(iphdr);
 465:c:/Users/Black_Life/STM32Cube/Repository/STM32Cube_FW_F4_V1.26.2/Middlewares/Third_Party/LwIP/src/core/ipv4\ip4.c ****   /* obtain ip length in bytes */
 466:c:/Users/Black_Life/STM32Cube/Repository/STM32Cube_FW_F4_V1.26.2/Middlewares/Third_Party/LwIP/src/core/ipv4\ip4.c ****   iphdr_len = lwip_ntohs(IPH_LEN(iphdr));
 467:c:/Users/Black_Life/STM32Cube/Repository/STM32Cube_FW_F4_V1.26.2/Middlewares/Third_Party/LwIP/src/core/ipv4\ip4.c **** 
 468:c:/Users/Black_Life/STM32Cube/Repository/STM32Cube_FW_F4_V1.26.2/Middlewares/Third_Party/LwIP/src/core/ipv4\ip4.c ****   /* Trim pbuf. This is especially required for packets < 60 bytes. */
 469:c:/Users/Black_Life/STM32Cube/Repository/STM32Cube_FW_F4_V1.26.2/Middlewares/Third_Party/LwIP/src/core/ipv4\ip4.c ****   if (iphdr_len < p->tot_len) {
 470:c:/Users/Black_Life/STM32Cube/Repository/STM32Cube_FW_F4_V1.26.2/Middlewares/Third_Party/LwIP/src/core/ipv4\ip4.c ****     pbuf_realloc(p, iphdr_len);
 471:c:/Users/Black_Life/STM32Cube/Repository/STM32Cube_FW_F4_V1.26.2/Middlewares/Third_Party/LwIP/src/core/ipv4\ip4.c ****   }
 472:c:/Users/Black_Life/STM32Cube/Repository/STM32Cube_FW_F4_V1.26.2/Middlewares/Third_Party/LwIP/src/core/ipv4\ip4.c **** 
 473:c:/Users/Black_Life/STM32Cube/Repository/STM32Cube_FW_F4_V1.26.2/Middlewares/Third_Party/LwIP/src/core/ipv4\ip4.c ****   /* header length exceeds first pbuf length, or ip length exceeds total pbuf length? */
 474:c:/Users/Black_Life/STM32Cube/Repository/STM32Cube_FW_F4_V1.26.2/Middlewares/Third_Party/LwIP/src/core/ipv4\ip4.c ****   if ((iphdr_hlen > p->len) || (iphdr_len > p->tot_len) || (iphdr_hlen < IP_HLEN)) {
 475:c:/Users/Black_Life/STM32Cube/Repository/STM32Cube_FW_F4_V1.26.2/Middlewares/Third_Party/LwIP/src/core/ipv4\ip4.c ****     if (iphdr_hlen < IP_HLEN) {
 476:c:/Users/Black_Life/STM32Cube/Repository/STM32Cube_FW_F4_V1.26.2/Middlewares/Third_Party/LwIP/src/core/ipv4\ip4.c ****       LWIP_DEBUGF(IP_DEBUG | LWIP_DBG_LEVEL_SERIOUS,
 477:c:/Users/Black_Life/STM32Cube/Repository/STM32Cube_FW_F4_V1.26.2/Middlewares/Third_Party/LwIP/src/core/ipv4\ip4.c ****                   ("ip4_input: short IP header (%"U16_F" bytes) received, IP packet dropped\n", iph
 478:c:/Users/Black_Life/STM32Cube/Repository/STM32Cube_FW_F4_V1.26.2/Middlewares/Third_Party/LwIP/src/core/ipv4\ip4.c ****     }
ARM GAS  C:\Users\BLACK_~1\AppData\Local\Temp\cct9trHa.s 			page 16


 479:c:/Users/Black_Life/STM32Cube/Repository/STM32Cube_FW_F4_V1.26.2/Middlewares/Third_Party/LwIP/src/core/ipv4\ip4.c ****     if (iphdr_hlen > p->len) {
 480:c:/Users/Black_Life/STM32Cube/Repository/STM32Cube_FW_F4_V1.26.2/Middlewares/Third_Party/LwIP/src/core/ipv4\ip4.c ****       LWIP_DEBUGF(IP_DEBUG | LWIP_DBG_LEVEL_SERIOUS,
 481:c:/Users/Black_Life/STM32Cube/Repository/STM32Cube_FW_F4_V1.26.2/Middlewares/Third_Party/LwIP/src/core/ipv4\ip4.c ****                   ("IP header (len %"U16_F") does not fit in first pbuf (len %"U16_F"), IP packet d
 482:c:/Users/Black_Life/STM32Cube/Repository/STM32Cube_FW_F4_V1.26.2/Middlewares/Third_Party/LwIP/src/core/ipv4\ip4.c ****                    iphdr_hlen, p->len));
 483:c:/Users/Black_Life/STM32Cube/Repository/STM32Cube_FW_F4_V1.26.2/Middlewares/Third_Party/LwIP/src/core/ipv4\ip4.c ****     }
 484:c:/Users/Black_Life/STM32Cube/Repository/STM32Cube_FW_F4_V1.26.2/Middlewares/Third_Party/LwIP/src/core/ipv4\ip4.c ****     if (iphdr_len > p->tot_len) {
 485:c:/Users/Black_Life/STM32Cube/Repository/STM32Cube_FW_F4_V1.26.2/Middlewares/Third_Party/LwIP/src/core/ipv4\ip4.c ****       LWIP_DEBUGF(IP_DEBUG | LWIP_DBG_LEVEL_SERIOUS,
 486:c:/Users/Black_Life/STM32Cube/Repository/STM32Cube_FW_F4_V1.26.2/Middlewares/Third_Party/LwIP/src/core/ipv4\ip4.c ****                   ("IP (len %"U16_F") is longer than pbuf (len %"U16_F"), IP packet dropped.\n",
 487:c:/Users/Black_Life/STM32Cube/Repository/STM32Cube_FW_F4_V1.26.2/Middlewares/Third_Party/LwIP/src/core/ipv4\ip4.c ****                    iphdr_len, p->tot_len));
 488:c:/Users/Black_Life/STM32Cube/Repository/STM32Cube_FW_F4_V1.26.2/Middlewares/Third_Party/LwIP/src/core/ipv4\ip4.c ****     }
 489:c:/Users/Black_Life/STM32Cube/Repository/STM32Cube_FW_F4_V1.26.2/Middlewares/Third_Party/LwIP/src/core/ipv4\ip4.c ****     /* free (drop) packet pbufs */
 490:c:/Users/Black_Life/STM32Cube/Repository/STM32Cube_FW_F4_V1.26.2/Middlewares/Third_Party/LwIP/src/core/ipv4\ip4.c ****     pbuf_free(p);
 491:c:/Users/Black_Life/STM32Cube/Repository/STM32Cube_FW_F4_V1.26.2/Middlewares/Third_Party/LwIP/src/core/ipv4\ip4.c ****     IP_STATS_INC(ip.lenerr);
 492:c:/Users/Black_Life/STM32Cube/Repository/STM32Cube_FW_F4_V1.26.2/Middlewares/Third_Party/LwIP/src/core/ipv4\ip4.c ****     IP_STATS_INC(ip.drop);
 493:c:/Users/Black_Life/STM32Cube/Repository/STM32Cube_FW_F4_V1.26.2/Middlewares/Third_Party/LwIP/src/core/ipv4\ip4.c ****     MIB2_STATS_INC(mib2.ipindiscards);
 494:c:/Users/Black_Life/STM32Cube/Repository/STM32Cube_FW_F4_V1.26.2/Middlewares/Third_Party/LwIP/src/core/ipv4\ip4.c ****     return ERR_OK;
 495:c:/Users/Black_Life/STM32Cube/Repository/STM32Cube_FW_F4_V1.26.2/Middlewares/Third_Party/LwIP/src/core/ipv4\ip4.c ****   }
 496:c:/Users/Black_Life/STM32Cube/Repository/STM32Cube_FW_F4_V1.26.2/Middlewares/Third_Party/LwIP/src/core/ipv4\ip4.c **** 
 497:c:/Users/Black_Life/STM32Cube/Repository/STM32Cube_FW_F4_V1.26.2/Middlewares/Third_Party/LwIP/src/core/ipv4\ip4.c ****   /* verify checksum */
 498:c:/Users/Black_Life/STM32Cube/Repository/STM32Cube_FW_F4_V1.26.2/Middlewares/Third_Party/LwIP/src/core/ipv4\ip4.c **** #if CHECKSUM_CHECK_IP
 499:c:/Users/Black_Life/STM32Cube/Repository/STM32Cube_FW_F4_V1.26.2/Middlewares/Third_Party/LwIP/src/core/ipv4\ip4.c ****   IF__NETIF_CHECKSUM_ENABLED(inp, NETIF_CHECKSUM_CHECK_IP) {
 500:c:/Users/Black_Life/STM32Cube/Repository/STM32Cube_FW_F4_V1.26.2/Middlewares/Third_Party/LwIP/src/core/ipv4\ip4.c ****     if (inet_chksum(iphdr, iphdr_hlen) != 0) {
 501:c:/Users/Black_Life/STM32Cube/Repository/STM32Cube_FW_F4_V1.26.2/Middlewares/Third_Party/LwIP/src/core/ipv4\ip4.c **** 
 502:c:/Users/Black_Life/STM32Cube/Repository/STM32Cube_FW_F4_V1.26.2/Middlewares/Third_Party/LwIP/src/core/ipv4\ip4.c ****       LWIP_DEBUGF(IP_DEBUG | LWIP_DBG_LEVEL_SERIOUS,
 503:c:/Users/Black_Life/STM32Cube/Repository/STM32Cube_FW_F4_V1.26.2/Middlewares/Third_Party/LwIP/src/core/ipv4\ip4.c ****                   ("Checksum (0x%"X16_F") failed, IP packet dropped.\n", inet_chksum(iphdr, iphdr_h
 504:c:/Users/Black_Life/STM32Cube/Repository/STM32Cube_FW_F4_V1.26.2/Middlewares/Third_Party/LwIP/src/core/ipv4\ip4.c ****       ip4_debug_print(p);
 505:c:/Users/Black_Life/STM32Cube/Repository/STM32Cube_FW_F4_V1.26.2/Middlewares/Third_Party/LwIP/src/core/ipv4\ip4.c ****       pbuf_free(p);
 506:c:/Users/Black_Life/STM32Cube/Repository/STM32Cube_FW_F4_V1.26.2/Middlewares/Third_Party/LwIP/src/core/ipv4\ip4.c ****       IP_STATS_INC(ip.chkerr);
 507:c:/Users/Black_Life/STM32Cube/Repository/STM32Cube_FW_F4_V1.26.2/Middlewares/Third_Party/LwIP/src/core/ipv4\ip4.c ****       IP_STATS_INC(ip.drop);
 508:c:/Users/Black_Life/STM32Cube/Repository/STM32Cube_FW_F4_V1.26.2/Middlewares/Third_Party/LwIP/src/core/ipv4\ip4.c ****       MIB2_STATS_INC(mib2.ipinhdrerrors);
 509:c:/Users/Black_Life/STM32Cube/Repository/STM32Cube_FW_F4_V1.26.2/Middlewares/Third_Party/LwIP/src/core/ipv4\ip4.c ****       return ERR_OK;
 510:c:/Users/Black_Life/STM32Cube/Repository/STM32Cube_FW_F4_V1.26.2/Middlewares/Third_Party/LwIP/src/core/ipv4\ip4.c ****     }
 511:c:/Users/Black_Life/STM32Cube/Repository/STM32Cube_FW_F4_V1.26.2/Middlewares/Third_Party/LwIP/src/core/ipv4\ip4.c ****   }
 512:c:/Users/Black_Life/STM32Cube/Repository/STM32Cube_FW_F4_V1.26.2/Middlewares/Third_Party/LwIP/src/core/ipv4\ip4.c **** #endif
 513:c:/Users/Black_Life/STM32Cube/Repository/STM32Cube_FW_F4_V1.26.2/Middlewares/Third_Party/LwIP/src/core/ipv4\ip4.c **** 
 514:c:/Users/Black_Life/STM32Cube/Repository/STM32Cube_FW_F4_V1.26.2/Middlewares/Third_Party/LwIP/src/core/ipv4\ip4.c ****   /* copy IP addresses to aligned ip_addr_t */
 515:c:/Users/Black_Life/STM32Cube/Repository/STM32Cube_FW_F4_V1.26.2/Middlewares/Third_Party/LwIP/src/core/ipv4\ip4.c ****   ip_addr_copy_from_ip4(ip_data.current_iphdr_dest, iphdr->dest);
 516:c:/Users/Black_Life/STM32Cube/Repository/STM32Cube_FW_F4_V1.26.2/Middlewares/Third_Party/LwIP/src/core/ipv4\ip4.c ****   ip_addr_copy_from_ip4(ip_data.current_iphdr_src, iphdr->src);
 517:c:/Users/Black_Life/STM32Cube/Repository/STM32Cube_FW_F4_V1.26.2/Middlewares/Third_Party/LwIP/src/core/ipv4\ip4.c **** 
 518:c:/Users/Black_Life/STM32Cube/Repository/STM32Cube_FW_F4_V1.26.2/Middlewares/Third_Party/LwIP/src/core/ipv4\ip4.c ****   /* match packet against an interface, i.e. is this packet for us? */
 519:c:/Users/Black_Life/STM32Cube/Repository/STM32Cube_FW_F4_V1.26.2/Middlewares/Third_Party/LwIP/src/core/ipv4\ip4.c ****   if (ip4_addr_ismulticast(ip4_current_dest_addr())) {
 520:c:/Users/Black_Life/STM32Cube/Repository/STM32Cube_FW_F4_V1.26.2/Middlewares/Third_Party/LwIP/src/core/ipv4\ip4.c **** #if LWIP_IGMP
 521:c:/Users/Black_Life/STM32Cube/Repository/STM32Cube_FW_F4_V1.26.2/Middlewares/Third_Party/LwIP/src/core/ipv4\ip4.c ****     if ((inp->flags & NETIF_FLAG_IGMP) && (igmp_lookfor_group(inp, ip4_current_dest_addr()))) {
 522:c:/Users/Black_Life/STM32Cube/Repository/STM32Cube_FW_F4_V1.26.2/Middlewares/Third_Party/LwIP/src/core/ipv4\ip4.c ****       /* IGMP snooping switches need 0.0.0.0 to be allowed as source address (RFC 4541) */
 523:c:/Users/Black_Life/STM32Cube/Repository/STM32Cube_FW_F4_V1.26.2/Middlewares/Third_Party/LwIP/src/core/ipv4\ip4.c ****       ip4_addr_t allsystems;
 524:c:/Users/Black_Life/STM32Cube/Repository/STM32Cube_FW_F4_V1.26.2/Middlewares/Third_Party/LwIP/src/core/ipv4\ip4.c ****       IP4_ADDR(&allsystems, 224, 0, 0, 1);
 525:c:/Users/Black_Life/STM32Cube/Repository/STM32Cube_FW_F4_V1.26.2/Middlewares/Third_Party/LwIP/src/core/ipv4\ip4.c ****       if (ip4_addr_cmp(ip4_current_dest_addr(), &allsystems) &&
 526:c:/Users/Black_Life/STM32Cube/Repository/STM32Cube_FW_F4_V1.26.2/Middlewares/Third_Party/LwIP/src/core/ipv4\ip4.c ****           ip4_addr_isany(ip4_current_src_addr())) {
 527:c:/Users/Black_Life/STM32Cube/Repository/STM32Cube_FW_F4_V1.26.2/Middlewares/Third_Party/LwIP/src/core/ipv4\ip4.c ****         check_ip_src = 0;
 528:c:/Users/Black_Life/STM32Cube/Repository/STM32Cube_FW_F4_V1.26.2/Middlewares/Third_Party/LwIP/src/core/ipv4\ip4.c ****       }
 529:c:/Users/Black_Life/STM32Cube/Repository/STM32Cube_FW_F4_V1.26.2/Middlewares/Third_Party/LwIP/src/core/ipv4\ip4.c ****       netif = inp;
 530:c:/Users/Black_Life/STM32Cube/Repository/STM32Cube_FW_F4_V1.26.2/Middlewares/Third_Party/LwIP/src/core/ipv4\ip4.c ****     } else {
 531:c:/Users/Black_Life/STM32Cube/Repository/STM32Cube_FW_F4_V1.26.2/Middlewares/Third_Party/LwIP/src/core/ipv4\ip4.c ****       netif = NULL;
 532:c:/Users/Black_Life/STM32Cube/Repository/STM32Cube_FW_F4_V1.26.2/Middlewares/Third_Party/LwIP/src/core/ipv4\ip4.c ****     }
 533:c:/Users/Black_Life/STM32Cube/Repository/STM32Cube_FW_F4_V1.26.2/Middlewares/Third_Party/LwIP/src/core/ipv4\ip4.c **** #else /* LWIP_IGMP */
 534:c:/Users/Black_Life/STM32Cube/Repository/STM32Cube_FW_F4_V1.26.2/Middlewares/Third_Party/LwIP/src/core/ipv4\ip4.c ****     if ((netif_is_up(inp)) && (!ip4_addr_isany_val(*netif_ip4_addr(inp)))) {
 535:c:/Users/Black_Life/STM32Cube/Repository/STM32Cube_FW_F4_V1.26.2/Middlewares/Third_Party/LwIP/src/core/ipv4\ip4.c ****       netif = inp;
ARM GAS  C:\Users\BLACK_~1\AppData\Local\Temp\cct9trHa.s 			page 17


 536:c:/Users/Black_Life/STM32Cube/Repository/STM32Cube_FW_F4_V1.26.2/Middlewares/Third_Party/LwIP/src/core/ipv4\ip4.c ****     } else {
 537:c:/Users/Black_Life/STM32Cube/Repository/STM32Cube_FW_F4_V1.26.2/Middlewares/Third_Party/LwIP/src/core/ipv4\ip4.c ****       netif = NULL;
 538:c:/Users/Black_Life/STM32Cube/Repository/STM32Cube_FW_F4_V1.26.2/Middlewares/Third_Party/LwIP/src/core/ipv4\ip4.c ****     }
 539:c:/Users/Black_Life/STM32Cube/Repository/STM32Cube_FW_F4_V1.26.2/Middlewares/Third_Party/LwIP/src/core/ipv4\ip4.c **** #endif /* LWIP_IGMP */
 540:c:/Users/Black_Life/STM32Cube/Repository/STM32Cube_FW_F4_V1.26.2/Middlewares/Third_Party/LwIP/src/core/ipv4\ip4.c ****   } else {
 541:c:/Users/Black_Life/STM32Cube/Repository/STM32Cube_FW_F4_V1.26.2/Middlewares/Third_Party/LwIP/src/core/ipv4\ip4.c ****     /* start trying with inp. if that's not acceptable, start walking the
 542:c:/Users/Black_Life/STM32Cube/Repository/STM32Cube_FW_F4_V1.26.2/Middlewares/Third_Party/LwIP/src/core/ipv4\ip4.c ****        list of configured netifs. */
 543:c:/Users/Black_Life/STM32Cube/Repository/STM32Cube_FW_F4_V1.26.2/Middlewares/Third_Party/LwIP/src/core/ipv4\ip4.c ****     if (ip4_input_accept(inp)) {
 544:c:/Users/Black_Life/STM32Cube/Repository/STM32Cube_FW_F4_V1.26.2/Middlewares/Third_Party/LwIP/src/core/ipv4\ip4.c ****       netif = inp;
 545:c:/Users/Black_Life/STM32Cube/Repository/STM32Cube_FW_F4_V1.26.2/Middlewares/Third_Party/LwIP/src/core/ipv4\ip4.c ****     } else {
 546:c:/Users/Black_Life/STM32Cube/Repository/STM32Cube_FW_F4_V1.26.2/Middlewares/Third_Party/LwIP/src/core/ipv4\ip4.c ****       netif = NULL;
 547:c:/Users/Black_Life/STM32Cube/Repository/STM32Cube_FW_F4_V1.26.2/Middlewares/Third_Party/LwIP/src/core/ipv4\ip4.c **** #if !LWIP_NETIF_LOOPBACK || LWIP_HAVE_LOOPIF
 548:c:/Users/Black_Life/STM32Cube/Repository/STM32Cube_FW_F4_V1.26.2/Middlewares/Third_Party/LwIP/src/core/ipv4\ip4.c ****       /* Packets sent to the loopback address must not be accepted on an
 549:c:/Users/Black_Life/STM32Cube/Repository/STM32Cube_FW_F4_V1.26.2/Middlewares/Third_Party/LwIP/src/core/ipv4\ip4.c ****        * interface that does not have the loopback address assigned to it,
 550:c:/Users/Black_Life/STM32Cube/Repository/STM32Cube_FW_F4_V1.26.2/Middlewares/Third_Party/LwIP/src/core/ipv4\ip4.c ****        * unless a non-loopback interface is used for loopback traffic. */
 551:c:/Users/Black_Life/STM32Cube/Repository/STM32Cube_FW_F4_V1.26.2/Middlewares/Third_Party/LwIP/src/core/ipv4\ip4.c ****       if (!ip4_addr_isloopback(ip4_current_dest_addr()))
 552:c:/Users/Black_Life/STM32Cube/Repository/STM32Cube_FW_F4_V1.26.2/Middlewares/Third_Party/LwIP/src/core/ipv4\ip4.c **** #endif /* !LWIP_NETIF_LOOPBACK || LWIP_HAVE_LOOPIF */
 553:c:/Users/Black_Life/STM32Cube/Repository/STM32Cube_FW_F4_V1.26.2/Middlewares/Third_Party/LwIP/src/core/ipv4\ip4.c ****       {
 554:c:/Users/Black_Life/STM32Cube/Repository/STM32Cube_FW_F4_V1.26.2/Middlewares/Third_Party/LwIP/src/core/ipv4\ip4.c **** #if !LWIP_SINGLE_NETIF
 555:c:/Users/Black_Life/STM32Cube/Repository/STM32Cube_FW_F4_V1.26.2/Middlewares/Third_Party/LwIP/src/core/ipv4\ip4.c ****         NETIF_FOREACH(netif) {
 556:c:/Users/Black_Life/STM32Cube/Repository/STM32Cube_FW_F4_V1.26.2/Middlewares/Third_Party/LwIP/src/core/ipv4\ip4.c ****           if (netif == inp) {
 557:c:/Users/Black_Life/STM32Cube/Repository/STM32Cube_FW_F4_V1.26.2/Middlewares/Third_Party/LwIP/src/core/ipv4\ip4.c ****             /* we checked that before already */
 558:c:/Users/Black_Life/STM32Cube/Repository/STM32Cube_FW_F4_V1.26.2/Middlewares/Third_Party/LwIP/src/core/ipv4\ip4.c ****             continue;
 559:c:/Users/Black_Life/STM32Cube/Repository/STM32Cube_FW_F4_V1.26.2/Middlewares/Third_Party/LwIP/src/core/ipv4\ip4.c ****           }
 560:c:/Users/Black_Life/STM32Cube/Repository/STM32Cube_FW_F4_V1.26.2/Middlewares/Third_Party/LwIP/src/core/ipv4\ip4.c ****           if (ip4_input_accept(netif)) {
 561:c:/Users/Black_Life/STM32Cube/Repository/STM32Cube_FW_F4_V1.26.2/Middlewares/Third_Party/LwIP/src/core/ipv4\ip4.c ****             break;
 562:c:/Users/Black_Life/STM32Cube/Repository/STM32Cube_FW_F4_V1.26.2/Middlewares/Third_Party/LwIP/src/core/ipv4\ip4.c ****           }
 563:c:/Users/Black_Life/STM32Cube/Repository/STM32Cube_FW_F4_V1.26.2/Middlewares/Third_Party/LwIP/src/core/ipv4\ip4.c ****         }
 564:c:/Users/Black_Life/STM32Cube/Repository/STM32Cube_FW_F4_V1.26.2/Middlewares/Third_Party/LwIP/src/core/ipv4\ip4.c **** #endif /* !LWIP_SINGLE_NETIF */
 565:c:/Users/Black_Life/STM32Cube/Repository/STM32Cube_FW_F4_V1.26.2/Middlewares/Third_Party/LwIP/src/core/ipv4\ip4.c ****       }
 566:c:/Users/Black_Life/STM32Cube/Repository/STM32Cube_FW_F4_V1.26.2/Middlewares/Third_Party/LwIP/src/core/ipv4\ip4.c ****     }
 567:c:/Users/Black_Life/STM32Cube/Repository/STM32Cube_FW_F4_V1.26.2/Middlewares/Third_Party/LwIP/src/core/ipv4\ip4.c ****   }
 568:c:/Users/Black_Life/STM32Cube/Repository/STM32Cube_FW_F4_V1.26.2/Middlewares/Third_Party/LwIP/src/core/ipv4\ip4.c **** 
 569:c:/Users/Black_Life/STM32Cube/Repository/STM32Cube_FW_F4_V1.26.2/Middlewares/Third_Party/LwIP/src/core/ipv4\ip4.c **** #if IP_ACCEPT_LINK_LAYER_ADDRESSING
 570:c:/Users/Black_Life/STM32Cube/Repository/STM32Cube_FW_F4_V1.26.2/Middlewares/Third_Party/LwIP/src/core/ipv4\ip4.c ****   /* Pass DHCP messages regardless of destination address. DHCP traffic is addressed
 571:c:/Users/Black_Life/STM32Cube/Repository/STM32Cube_FW_F4_V1.26.2/Middlewares/Third_Party/LwIP/src/core/ipv4\ip4.c ****    * using link layer addressing (such as Ethernet MAC) so we must not filter on IP.
 572:c:/Users/Black_Life/STM32Cube/Repository/STM32Cube_FW_F4_V1.26.2/Middlewares/Third_Party/LwIP/src/core/ipv4\ip4.c ****    * According to RFC 1542 section 3.1.1, referred by RFC 2131).
 573:c:/Users/Black_Life/STM32Cube/Repository/STM32Cube_FW_F4_V1.26.2/Middlewares/Third_Party/LwIP/src/core/ipv4\ip4.c ****    *
 574:c:/Users/Black_Life/STM32Cube/Repository/STM32Cube_FW_F4_V1.26.2/Middlewares/Third_Party/LwIP/src/core/ipv4\ip4.c ****    * If you want to accept private broadcast communication while a netif is down,
 575:c:/Users/Black_Life/STM32Cube/Repository/STM32Cube_FW_F4_V1.26.2/Middlewares/Third_Party/LwIP/src/core/ipv4\ip4.c ****    * define LWIP_IP_ACCEPT_UDP_PORT(dst_port), e.g.:
 576:c:/Users/Black_Life/STM32Cube/Repository/STM32Cube_FW_F4_V1.26.2/Middlewares/Third_Party/LwIP/src/core/ipv4\ip4.c ****    *
 577:c:/Users/Black_Life/STM32Cube/Repository/STM32Cube_FW_F4_V1.26.2/Middlewares/Third_Party/LwIP/src/core/ipv4\ip4.c ****    * #define LWIP_IP_ACCEPT_UDP_PORT(dst_port) ((dst_port) == PP_NTOHS(12345))
 578:c:/Users/Black_Life/STM32Cube/Repository/STM32Cube_FW_F4_V1.26.2/Middlewares/Third_Party/LwIP/src/core/ipv4\ip4.c ****    */
 579:c:/Users/Black_Life/STM32Cube/Repository/STM32Cube_FW_F4_V1.26.2/Middlewares/Third_Party/LwIP/src/core/ipv4\ip4.c ****   if (netif == NULL) {
 580:c:/Users/Black_Life/STM32Cube/Repository/STM32Cube_FW_F4_V1.26.2/Middlewares/Third_Party/LwIP/src/core/ipv4\ip4.c ****     /* remote port is DHCP server? */
 581:c:/Users/Black_Life/STM32Cube/Repository/STM32Cube_FW_F4_V1.26.2/Middlewares/Third_Party/LwIP/src/core/ipv4\ip4.c ****     if (IPH_PROTO(iphdr) == IP_PROTO_UDP) {
 582:c:/Users/Black_Life/STM32Cube/Repository/STM32Cube_FW_F4_V1.26.2/Middlewares/Third_Party/LwIP/src/core/ipv4\ip4.c ****       const struct udp_hdr *udphdr = (const struct udp_hdr *)((const u8_t *)iphdr + iphdr_hlen);
 583:c:/Users/Black_Life/STM32Cube/Repository/STM32Cube_FW_F4_V1.26.2/Middlewares/Third_Party/LwIP/src/core/ipv4\ip4.c ****       LWIP_DEBUGF(IP_DEBUG | LWIP_DBG_TRACE, ("ip4_input: UDP packet to DHCP client port %"U16_F"\n
 584:c:/Users/Black_Life/STM32Cube/Repository/STM32Cube_FW_F4_V1.26.2/Middlewares/Third_Party/LwIP/src/core/ipv4\ip4.c ****                                               lwip_ntohs(udphdr->dest)));
 585:c:/Users/Black_Life/STM32Cube/Repository/STM32Cube_FW_F4_V1.26.2/Middlewares/Third_Party/LwIP/src/core/ipv4\ip4.c ****       if (IP_ACCEPT_LINK_LAYER_ADDRESSED_PORT(udphdr->dest)) {
 586:c:/Users/Black_Life/STM32Cube/Repository/STM32Cube_FW_F4_V1.26.2/Middlewares/Third_Party/LwIP/src/core/ipv4\ip4.c ****         LWIP_DEBUGF(IP_DEBUG | LWIP_DBG_TRACE, ("ip4_input: DHCP packet accepted.\n"));
 587:c:/Users/Black_Life/STM32Cube/Repository/STM32Cube_FW_F4_V1.26.2/Middlewares/Third_Party/LwIP/src/core/ipv4\ip4.c ****         netif = inp;
 588:c:/Users/Black_Life/STM32Cube/Repository/STM32Cube_FW_F4_V1.26.2/Middlewares/Third_Party/LwIP/src/core/ipv4\ip4.c ****         check_ip_src = 0;
 589:c:/Users/Black_Life/STM32Cube/Repository/STM32Cube_FW_F4_V1.26.2/Middlewares/Third_Party/LwIP/src/core/ipv4\ip4.c ****       }
 590:c:/Users/Black_Life/STM32Cube/Repository/STM32Cube_FW_F4_V1.26.2/Middlewares/Third_Party/LwIP/src/core/ipv4\ip4.c ****     }
 591:c:/Users/Black_Life/STM32Cube/Repository/STM32Cube_FW_F4_V1.26.2/Middlewares/Third_Party/LwIP/src/core/ipv4\ip4.c ****   }
 592:c:/Users/Black_Life/STM32Cube/Repository/STM32Cube_FW_F4_V1.26.2/Middlewares/Third_Party/LwIP/src/core/ipv4\ip4.c **** #endif /* IP_ACCEPT_LINK_LAYER_ADDRESSING */
ARM GAS  C:\Users\BLACK_~1\AppData\Local\Temp\cct9trHa.s 			page 18


 593:c:/Users/Black_Life/STM32Cube/Repository/STM32Cube_FW_F4_V1.26.2/Middlewares/Third_Party/LwIP/src/core/ipv4\ip4.c **** 
 594:c:/Users/Black_Life/STM32Cube/Repository/STM32Cube_FW_F4_V1.26.2/Middlewares/Third_Party/LwIP/src/core/ipv4\ip4.c ****   /* broadcast or multicast packet source address? Compliant with RFC 1122: 3.2.1.3 */
 595:c:/Users/Black_Life/STM32Cube/Repository/STM32Cube_FW_F4_V1.26.2/Middlewares/Third_Party/LwIP/src/core/ipv4\ip4.c **** #if LWIP_IGMP || IP_ACCEPT_LINK_LAYER_ADDRESSING
 596:c:/Users/Black_Life/STM32Cube/Repository/STM32Cube_FW_F4_V1.26.2/Middlewares/Third_Party/LwIP/src/core/ipv4\ip4.c ****   if (check_ip_src
 597:c:/Users/Black_Life/STM32Cube/Repository/STM32Cube_FW_F4_V1.26.2/Middlewares/Third_Party/LwIP/src/core/ipv4\ip4.c **** #if IP_ACCEPT_LINK_LAYER_ADDRESSING
 598:c:/Users/Black_Life/STM32Cube/Repository/STM32Cube_FW_F4_V1.26.2/Middlewares/Third_Party/LwIP/src/core/ipv4\ip4.c ****       /* DHCP servers need 0.0.0.0 to be allowed as source address (RFC 1.1.2.2: 3.2.1.3/a) */
 599:c:/Users/Black_Life/STM32Cube/Repository/STM32Cube_FW_F4_V1.26.2/Middlewares/Third_Party/LwIP/src/core/ipv4\ip4.c ****       && !ip4_addr_isany_val(*ip4_current_src_addr())
 600:c:/Users/Black_Life/STM32Cube/Repository/STM32Cube_FW_F4_V1.26.2/Middlewares/Third_Party/LwIP/src/core/ipv4\ip4.c **** #endif /* IP_ACCEPT_LINK_LAYER_ADDRESSING */
 601:c:/Users/Black_Life/STM32Cube/Repository/STM32Cube_FW_F4_V1.26.2/Middlewares/Third_Party/LwIP/src/core/ipv4\ip4.c ****      )
 602:c:/Users/Black_Life/STM32Cube/Repository/STM32Cube_FW_F4_V1.26.2/Middlewares/Third_Party/LwIP/src/core/ipv4\ip4.c **** #endif /* LWIP_IGMP || IP_ACCEPT_LINK_LAYER_ADDRESSING */
 603:c:/Users/Black_Life/STM32Cube/Repository/STM32Cube_FW_F4_V1.26.2/Middlewares/Third_Party/LwIP/src/core/ipv4\ip4.c ****   {
 604:c:/Users/Black_Life/STM32Cube/Repository/STM32Cube_FW_F4_V1.26.2/Middlewares/Third_Party/LwIP/src/core/ipv4\ip4.c ****     if ((ip4_addr_isbroadcast(ip4_current_src_addr(), inp)) ||
 605:c:/Users/Black_Life/STM32Cube/Repository/STM32Cube_FW_F4_V1.26.2/Middlewares/Third_Party/LwIP/src/core/ipv4\ip4.c ****         (ip4_addr_ismulticast(ip4_current_src_addr()))) {
 606:c:/Users/Black_Life/STM32Cube/Repository/STM32Cube_FW_F4_V1.26.2/Middlewares/Third_Party/LwIP/src/core/ipv4\ip4.c ****       /* packet source is not valid */
 607:c:/Users/Black_Life/STM32Cube/Repository/STM32Cube_FW_F4_V1.26.2/Middlewares/Third_Party/LwIP/src/core/ipv4\ip4.c ****       LWIP_DEBUGF(IP_DEBUG | LWIP_DBG_TRACE | LWIP_DBG_LEVEL_WARNING, ("ip4_input: packet source is
 608:c:/Users/Black_Life/STM32Cube/Repository/STM32Cube_FW_F4_V1.26.2/Middlewares/Third_Party/LwIP/src/core/ipv4\ip4.c ****       /* free (drop) packet pbufs */
 609:c:/Users/Black_Life/STM32Cube/Repository/STM32Cube_FW_F4_V1.26.2/Middlewares/Third_Party/LwIP/src/core/ipv4\ip4.c ****       pbuf_free(p);
 610:c:/Users/Black_Life/STM32Cube/Repository/STM32Cube_FW_F4_V1.26.2/Middlewares/Third_Party/LwIP/src/core/ipv4\ip4.c ****       IP_STATS_INC(ip.drop);
 611:c:/Users/Black_Life/STM32Cube/Repository/STM32Cube_FW_F4_V1.26.2/Middlewares/Third_Party/LwIP/src/core/ipv4\ip4.c ****       MIB2_STATS_INC(mib2.ipinaddrerrors);
 612:c:/Users/Black_Life/STM32Cube/Repository/STM32Cube_FW_F4_V1.26.2/Middlewares/Third_Party/LwIP/src/core/ipv4\ip4.c ****       MIB2_STATS_INC(mib2.ipindiscards);
 613:c:/Users/Black_Life/STM32Cube/Repository/STM32Cube_FW_F4_V1.26.2/Middlewares/Third_Party/LwIP/src/core/ipv4\ip4.c ****       return ERR_OK;
 614:c:/Users/Black_Life/STM32Cube/Repository/STM32Cube_FW_F4_V1.26.2/Middlewares/Third_Party/LwIP/src/core/ipv4\ip4.c ****     }
 615:c:/Users/Black_Life/STM32Cube/Repository/STM32Cube_FW_F4_V1.26.2/Middlewares/Third_Party/LwIP/src/core/ipv4\ip4.c ****   }
 616:c:/Users/Black_Life/STM32Cube/Repository/STM32Cube_FW_F4_V1.26.2/Middlewares/Third_Party/LwIP/src/core/ipv4\ip4.c **** 
 617:c:/Users/Black_Life/STM32Cube/Repository/STM32Cube_FW_F4_V1.26.2/Middlewares/Third_Party/LwIP/src/core/ipv4\ip4.c ****   /* packet not for us? */
 618:c:/Users/Black_Life/STM32Cube/Repository/STM32Cube_FW_F4_V1.26.2/Middlewares/Third_Party/LwIP/src/core/ipv4\ip4.c ****   if (netif == NULL) {
 619:c:/Users/Black_Life/STM32Cube/Repository/STM32Cube_FW_F4_V1.26.2/Middlewares/Third_Party/LwIP/src/core/ipv4\ip4.c ****     /* packet not for us, route or discard */
 620:c:/Users/Black_Life/STM32Cube/Repository/STM32Cube_FW_F4_V1.26.2/Middlewares/Third_Party/LwIP/src/core/ipv4\ip4.c ****     LWIP_DEBUGF(IP_DEBUG | LWIP_DBG_TRACE, ("ip4_input: packet not for us.\n"));
 621:c:/Users/Black_Life/STM32Cube/Repository/STM32Cube_FW_F4_V1.26.2/Middlewares/Third_Party/LwIP/src/core/ipv4\ip4.c **** #if IP_FORWARD
 622:c:/Users/Black_Life/STM32Cube/Repository/STM32Cube_FW_F4_V1.26.2/Middlewares/Third_Party/LwIP/src/core/ipv4\ip4.c ****     /* non-broadcast packet? */
 623:c:/Users/Black_Life/STM32Cube/Repository/STM32Cube_FW_F4_V1.26.2/Middlewares/Third_Party/LwIP/src/core/ipv4\ip4.c ****     if (!ip4_addr_isbroadcast(ip4_current_dest_addr(), inp)) {
 624:c:/Users/Black_Life/STM32Cube/Repository/STM32Cube_FW_F4_V1.26.2/Middlewares/Third_Party/LwIP/src/core/ipv4\ip4.c ****       /* try to forward IP packet on (other) interfaces */
 625:c:/Users/Black_Life/STM32Cube/Repository/STM32Cube_FW_F4_V1.26.2/Middlewares/Third_Party/LwIP/src/core/ipv4\ip4.c ****       ip4_forward(p, (struct ip_hdr *)p->payload, inp);
 626:c:/Users/Black_Life/STM32Cube/Repository/STM32Cube_FW_F4_V1.26.2/Middlewares/Third_Party/LwIP/src/core/ipv4\ip4.c ****     } else
 627:c:/Users/Black_Life/STM32Cube/Repository/STM32Cube_FW_F4_V1.26.2/Middlewares/Third_Party/LwIP/src/core/ipv4\ip4.c **** #endif /* IP_FORWARD */
 628:c:/Users/Black_Life/STM32Cube/Repository/STM32Cube_FW_F4_V1.26.2/Middlewares/Third_Party/LwIP/src/core/ipv4\ip4.c ****     {
 629:c:/Users/Black_Life/STM32Cube/Repository/STM32Cube_FW_F4_V1.26.2/Middlewares/Third_Party/LwIP/src/core/ipv4\ip4.c ****       IP_STATS_INC(ip.drop);
 630:c:/Users/Black_Life/STM32Cube/Repository/STM32Cube_FW_F4_V1.26.2/Middlewares/Third_Party/LwIP/src/core/ipv4\ip4.c ****       MIB2_STATS_INC(mib2.ipinaddrerrors);
 631:c:/Users/Black_Life/STM32Cube/Repository/STM32Cube_FW_F4_V1.26.2/Middlewares/Third_Party/LwIP/src/core/ipv4\ip4.c ****       MIB2_STATS_INC(mib2.ipindiscards);
 632:c:/Users/Black_Life/STM32Cube/Repository/STM32Cube_FW_F4_V1.26.2/Middlewares/Third_Party/LwIP/src/core/ipv4\ip4.c ****     }
 633:c:/Users/Black_Life/STM32Cube/Repository/STM32Cube_FW_F4_V1.26.2/Middlewares/Third_Party/LwIP/src/core/ipv4\ip4.c ****     pbuf_free(p);
 634:c:/Users/Black_Life/STM32Cube/Repository/STM32Cube_FW_F4_V1.26.2/Middlewares/Third_Party/LwIP/src/core/ipv4\ip4.c ****     return ERR_OK;
 635:c:/Users/Black_Life/STM32Cube/Repository/STM32Cube_FW_F4_V1.26.2/Middlewares/Third_Party/LwIP/src/core/ipv4\ip4.c ****   }
 636:c:/Users/Black_Life/STM32Cube/Repository/STM32Cube_FW_F4_V1.26.2/Middlewares/Third_Party/LwIP/src/core/ipv4\ip4.c ****   /* packet consists of multiple fragments? */
 637:c:/Users/Black_Life/STM32Cube/Repository/STM32Cube_FW_F4_V1.26.2/Middlewares/Third_Party/LwIP/src/core/ipv4\ip4.c ****   if ((IPH_OFFSET(iphdr) & PP_HTONS(IP_OFFMASK | IP_MF)) != 0) {
 638:c:/Users/Black_Life/STM32Cube/Repository/STM32Cube_FW_F4_V1.26.2/Middlewares/Third_Party/LwIP/src/core/ipv4\ip4.c **** #if IP_REASSEMBLY /* packet fragment reassembly code present? */
 639:c:/Users/Black_Life/STM32Cube/Repository/STM32Cube_FW_F4_V1.26.2/Middlewares/Third_Party/LwIP/src/core/ipv4\ip4.c ****     LWIP_DEBUGF(IP_DEBUG, ("IP packet is a fragment (id=0x%04"X16_F" tot_len=%"U16_F" len=%"U16_F" 
 640:c:/Users/Black_Life/STM32Cube/Repository/STM32Cube_FW_F4_V1.26.2/Middlewares/Third_Party/LwIP/src/core/ipv4\ip4.c ****                            lwip_ntohs(IPH_ID(iphdr)), p->tot_len, lwip_ntohs(IPH_LEN(iphdr)), (u16_
 641:c:/Users/Black_Life/STM32Cube/Repository/STM32Cube_FW_F4_V1.26.2/Middlewares/Third_Party/LwIP/src/core/ipv4\ip4.c ****     /* reassemble the packet*/
 642:c:/Users/Black_Life/STM32Cube/Repository/STM32Cube_FW_F4_V1.26.2/Middlewares/Third_Party/LwIP/src/core/ipv4\ip4.c ****     p = ip4_reass(p);
 643:c:/Users/Black_Life/STM32Cube/Repository/STM32Cube_FW_F4_V1.26.2/Middlewares/Third_Party/LwIP/src/core/ipv4\ip4.c ****     /* packet not fully reassembled yet? */
 644:c:/Users/Black_Life/STM32Cube/Repository/STM32Cube_FW_F4_V1.26.2/Middlewares/Third_Party/LwIP/src/core/ipv4\ip4.c ****     if (p == NULL) {
 645:c:/Users/Black_Life/STM32Cube/Repository/STM32Cube_FW_F4_V1.26.2/Middlewares/Third_Party/LwIP/src/core/ipv4\ip4.c ****       return ERR_OK;
 646:c:/Users/Black_Life/STM32Cube/Repository/STM32Cube_FW_F4_V1.26.2/Middlewares/Third_Party/LwIP/src/core/ipv4\ip4.c ****     }
 647:c:/Users/Black_Life/STM32Cube/Repository/STM32Cube_FW_F4_V1.26.2/Middlewares/Third_Party/LwIP/src/core/ipv4\ip4.c ****     iphdr = (const struct ip_hdr *)p->payload;
 648:c:/Users/Black_Life/STM32Cube/Repository/STM32Cube_FW_F4_V1.26.2/Middlewares/Third_Party/LwIP/src/core/ipv4\ip4.c **** #else /* IP_REASSEMBLY == 0, no packet fragment reassembly code present */
 649:c:/Users/Black_Life/STM32Cube/Repository/STM32Cube_FW_F4_V1.26.2/Middlewares/Third_Party/LwIP/src/core/ipv4\ip4.c ****     pbuf_free(p);
ARM GAS  C:\Users\BLACK_~1\AppData\Local\Temp\cct9trHa.s 			page 19


 650:c:/Users/Black_Life/STM32Cube/Repository/STM32Cube_FW_F4_V1.26.2/Middlewares/Third_Party/LwIP/src/core/ipv4\ip4.c ****     LWIP_DEBUGF(IP_DEBUG | LWIP_DBG_LEVEL_SERIOUS, ("IP packet dropped since it was fragmented (0x%
 651:c:/Users/Black_Life/STM32Cube/Repository/STM32Cube_FW_F4_V1.26.2/Middlewares/Third_Party/LwIP/src/core/ipv4\ip4.c ****                 lwip_ntohs(IPH_OFFSET(iphdr))));
 652:c:/Users/Black_Life/STM32Cube/Repository/STM32Cube_FW_F4_V1.26.2/Middlewares/Third_Party/LwIP/src/core/ipv4\ip4.c ****     IP_STATS_INC(ip.opterr);
 653:c:/Users/Black_Life/STM32Cube/Repository/STM32Cube_FW_F4_V1.26.2/Middlewares/Third_Party/LwIP/src/core/ipv4\ip4.c ****     IP_STATS_INC(ip.drop);
 654:c:/Users/Black_Life/STM32Cube/Repository/STM32Cube_FW_F4_V1.26.2/Middlewares/Third_Party/LwIP/src/core/ipv4\ip4.c ****     /* unsupported protocol feature */
 655:c:/Users/Black_Life/STM32Cube/Repository/STM32Cube_FW_F4_V1.26.2/Middlewares/Third_Party/LwIP/src/core/ipv4\ip4.c ****     MIB2_STATS_INC(mib2.ipinunknownprotos);
 656:c:/Users/Black_Life/STM32Cube/Repository/STM32Cube_FW_F4_V1.26.2/Middlewares/Third_Party/LwIP/src/core/ipv4\ip4.c ****     return ERR_OK;
 657:c:/Users/Black_Life/STM32Cube/Repository/STM32Cube_FW_F4_V1.26.2/Middlewares/Third_Party/LwIP/src/core/ipv4\ip4.c **** #endif /* IP_REASSEMBLY */
 658:c:/Users/Black_Life/STM32Cube/Repository/STM32Cube_FW_F4_V1.26.2/Middlewares/Third_Party/LwIP/src/core/ipv4\ip4.c ****   }
 659:c:/Users/Black_Life/STM32Cube/Repository/STM32Cube_FW_F4_V1.26.2/Middlewares/Third_Party/LwIP/src/core/ipv4\ip4.c **** 
 660:c:/Users/Black_Life/STM32Cube/Repository/STM32Cube_FW_F4_V1.26.2/Middlewares/Third_Party/LwIP/src/core/ipv4\ip4.c **** #if IP_OPTIONS_ALLOWED == 0 /* no support for IP options in the IP header? */
 661:c:/Users/Black_Life/STM32Cube/Repository/STM32Cube_FW_F4_V1.26.2/Middlewares/Third_Party/LwIP/src/core/ipv4\ip4.c **** 
 662:c:/Users/Black_Life/STM32Cube/Repository/STM32Cube_FW_F4_V1.26.2/Middlewares/Third_Party/LwIP/src/core/ipv4\ip4.c **** #if LWIP_IGMP
 663:c:/Users/Black_Life/STM32Cube/Repository/STM32Cube_FW_F4_V1.26.2/Middlewares/Third_Party/LwIP/src/core/ipv4\ip4.c ****   /* there is an extra "router alert" option in IGMP messages which we allow for but do not police 
 664:c:/Users/Black_Life/STM32Cube/Repository/STM32Cube_FW_F4_V1.26.2/Middlewares/Third_Party/LwIP/src/core/ipv4\ip4.c ****   if ((iphdr_hlen > IP_HLEN) &&  (IPH_PROTO(iphdr) != IP_PROTO_IGMP)) {
 665:c:/Users/Black_Life/STM32Cube/Repository/STM32Cube_FW_F4_V1.26.2/Middlewares/Third_Party/LwIP/src/core/ipv4\ip4.c **** #else
 666:c:/Users/Black_Life/STM32Cube/Repository/STM32Cube_FW_F4_V1.26.2/Middlewares/Third_Party/LwIP/src/core/ipv4\ip4.c ****   if (iphdr_hlen > IP_HLEN) {
 667:c:/Users/Black_Life/STM32Cube/Repository/STM32Cube_FW_F4_V1.26.2/Middlewares/Third_Party/LwIP/src/core/ipv4\ip4.c **** #endif /* LWIP_IGMP */
 668:c:/Users/Black_Life/STM32Cube/Repository/STM32Cube_FW_F4_V1.26.2/Middlewares/Third_Party/LwIP/src/core/ipv4\ip4.c ****     LWIP_DEBUGF(IP_DEBUG | LWIP_DBG_LEVEL_SERIOUS, ("IP packet dropped since there were IP options 
 669:c:/Users/Black_Life/STM32Cube/Repository/STM32Cube_FW_F4_V1.26.2/Middlewares/Third_Party/LwIP/src/core/ipv4\ip4.c ****     pbuf_free(p);
 670:c:/Users/Black_Life/STM32Cube/Repository/STM32Cube_FW_F4_V1.26.2/Middlewares/Third_Party/LwIP/src/core/ipv4\ip4.c ****     IP_STATS_INC(ip.opterr);
 671:c:/Users/Black_Life/STM32Cube/Repository/STM32Cube_FW_F4_V1.26.2/Middlewares/Third_Party/LwIP/src/core/ipv4\ip4.c ****     IP_STATS_INC(ip.drop);
 672:c:/Users/Black_Life/STM32Cube/Repository/STM32Cube_FW_F4_V1.26.2/Middlewares/Third_Party/LwIP/src/core/ipv4\ip4.c ****     /* unsupported protocol feature */
 673:c:/Users/Black_Life/STM32Cube/Repository/STM32Cube_FW_F4_V1.26.2/Middlewares/Third_Party/LwIP/src/core/ipv4\ip4.c ****     MIB2_STATS_INC(mib2.ipinunknownprotos);
 674:c:/Users/Black_Life/STM32Cube/Repository/STM32Cube_FW_F4_V1.26.2/Middlewares/Third_Party/LwIP/src/core/ipv4\ip4.c ****     return ERR_OK;
 675:c:/Users/Black_Life/STM32Cube/Repository/STM32Cube_FW_F4_V1.26.2/Middlewares/Third_Party/LwIP/src/core/ipv4\ip4.c ****   }
 676:c:/Users/Black_Life/STM32Cube/Repository/STM32Cube_FW_F4_V1.26.2/Middlewares/Third_Party/LwIP/src/core/ipv4\ip4.c **** #endif /* IP_OPTIONS_ALLOWED == 0 */
 677:c:/Users/Black_Life/STM32Cube/Repository/STM32Cube_FW_F4_V1.26.2/Middlewares/Third_Party/LwIP/src/core/ipv4\ip4.c **** 
 678:c:/Users/Black_Life/STM32Cube/Repository/STM32Cube_FW_F4_V1.26.2/Middlewares/Third_Party/LwIP/src/core/ipv4\ip4.c ****   /* send to upper layers */
 679:c:/Users/Black_Life/STM32Cube/Repository/STM32Cube_FW_F4_V1.26.2/Middlewares/Third_Party/LwIP/src/core/ipv4\ip4.c ****   LWIP_DEBUGF(IP_DEBUG, ("ip4_input: \n"));
 680:c:/Users/Black_Life/STM32Cube/Repository/STM32Cube_FW_F4_V1.26.2/Middlewares/Third_Party/LwIP/src/core/ipv4\ip4.c ****   ip4_debug_print(p);
 681:c:/Users/Black_Life/STM32Cube/Repository/STM32Cube_FW_F4_V1.26.2/Middlewares/Third_Party/LwIP/src/core/ipv4\ip4.c ****   LWIP_DEBUGF(IP_DEBUG, ("ip4_input: p->len %"U16_F" p->tot_len %"U16_F"\n", p->len, p->tot_len));
 682:c:/Users/Black_Life/STM32Cube/Repository/STM32Cube_FW_F4_V1.26.2/Middlewares/Third_Party/LwIP/src/core/ipv4\ip4.c **** 
 683:c:/Users/Black_Life/STM32Cube/Repository/STM32Cube_FW_F4_V1.26.2/Middlewares/Third_Party/LwIP/src/core/ipv4\ip4.c ****   ip_data.current_netif = netif;
 684:c:/Users/Black_Life/STM32Cube/Repository/STM32Cube_FW_F4_V1.26.2/Middlewares/Third_Party/LwIP/src/core/ipv4\ip4.c ****   ip_data.current_input_netif = inp;
 685:c:/Users/Black_Life/STM32Cube/Repository/STM32Cube_FW_F4_V1.26.2/Middlewares/Third_Party/LwIP/src/core/ipv4\ip4.c ****   ip_data.current_ip4_header = iphdr;
 686:c:/Users/Black_Life/STM32Cube/Repository/STM32Cube_FW_F4_V1.26.2/Middlewares/Third_Party/LwIP/src/core/ipv4\ip4.c ****   ip_data.current_ip_header_tot_len = IPH_HL_BYTES(iphdr);
 687:c:/Users/Black_Life/STM32Cube/Repository/STM32Cube_FW_F4_V1.26.2/Middlewares/Third_Party/LwIP/src/core/ipv4\ip4.c **** 
 688:c:/Users/Black_Life/STM32Cube/Repository/STM32Cube_FW_F4_V1.26.2/Middlewares/Third_Party/LwIP/src/core/ipv4\ip4.c **** #if LWIP_RAW
 689:c:/Users/Black_Life/STM32Cube/Repository/STM32Cube_FW_F4_V1.26.2/Middlewares/Third_Party/LwIP/src/core/ipv4\ip4.c ****   /* raw input did not eat the packet? */
 690:c:/Users/Black_Life/STM32Cube/Repository/STM32Cube_FW_F4_V1.26.2/Middlewares/Third_Party/LwIP/src/core/ipv4\ip4.c ****   raw_status = raw_input(p, inp);
 691:c:/Users/Black_Life/STM32Cube/Repository/STM32Cube_FW_F4_V1.26.2/Middlewares/Third_Party/LwIP/src/core/ipv4\ip4.c ****   if (raw_status != RAW_INPUT_EATEN)
 692:c:/Users/Black_Life/STM32Cube/Repository/STM32Cube_FW_F4_V1.26.2/Middlewares/Third_Party/LwIP/src/core/ipv4\ip4.c **** #endif /* LWIP_RAW */
 693:c:/Users/Black_Life/STM32Cube/Repository/STM32Cube_FW_F4_V1.26.2/Middlewares/Third_Party/LwIP/src/core/ipv4\ip4.c ****   {
 694:c:/Users/Black_Life/STM32Cube/Repository/STM32Cube_FW_F4_V1.26.2/Middlewares/Third_Party/LwIP/src/core/ipv4\ip4.c ****     pbuf_remove_header(p, iphdr_hlen); /* Move to payload, no check necessary. */
 695:c:/Users/Black_Life/STM32Cube/Repository/STM32Cube_FW_F4_V1.26.2/Middlewares/Third_Party/LwIP/src/core/ipv4\ip4.c **** 
 696:c:/Users/Black_Life/STM32Cube/Repository/STM32Cube_FW_F4_V1.26.2/Middlewares/Third_Party/LwIP/src/core/ipv4\ip4.c ****     switch (IPH_PROTO(iphdr)) {
 697:c:/Users/Black_Life/STM32Cube/Repository/STM32Cube_FW_F4_V1.26.2/Middlewares/Third_Party/LwIP/src/core/ipv4\ip4.c **** #if LWIP_UDP
 698:c:/Users/Black_Life/STM32Cube/Repository/STM32Cube_FW_F4_V1.26.2/Middlewares/Third_Party/LwIP/src/core/ipv4\ip4.c ****       case IP_PROTO_UDP:
 699:c:/Users/Black_Life/STM32Cube/Repository/STM32Cube_FW_F4_V1.26.2/Middlewares/Third_Party/LwIP/src/core/ipv4\ip4.c **** #if LWIP_UDPLITE
 700:c:/Users/Black_Life/STM32Cube/Repository/STM32Cube_FW_F4_V1.26.2/Middlewares/Third_Party/LwIP/src/core/ipv4\ip4.c ****       case IP_PROTO_UDPLITE:
 701:c:/Users/Black_Life/STM32Cube/Repository/STM32Cube_FW_F4_V1.26.2/Middlewares/Third_Party/LwIP/src/core/ipv4\ip4.c **** #endif /* LWIP_UDPLITE */
 702:c:/Users/Black_Life/STM32Cube/Repository/STM32Cube_FW_F4_V1.26.2/Middlewares/Third_Party/LwIP/src/core/ipv4\ip4.c ****         MIB2_STATS_INC(mib2.ipindelivers);
 703:c:/Users/Black_Life/STM32Cube/Repository/STM32Cube_FW_F4_V1.26.2/Middlewares/Third_Party/LwIP/src/core/ipv4\ip4.c ****         udp_input(p, inp);
 704:c:/Users/Black_Life/STM32Cube/Repository/STM32Cube_FW_F4_V1.26.2/Middlewares/Third_Party/LwIP/src/core/ipv4\ip4.c ****         break;
 705:c:/Users/Black_Life/STM32Cube/Repository/STM32Cube_FW_F4_V1.26.2/Middlewares/Third_Party/LwIP/src/core/ipv4\ip4.c **** #endif /* LWIP_UDP */
 706:c:/Users/Black_Life/STM32Cube/Repository/STM32Cube_FW_F4_V1.26.2/Middlewares/Third_Party/LwIP/src/core/ipv4\ip4.c **** #if LWIP_TCP
ARM GAS  C:\Users\BLACK_~1\AppData\Local\Temp\cct9trHa.s 			page 20


 707:c:/Users/Black_Life/STM32Cube/Repository/STM32Cube_FW_F4_V1.26.2/Middlewares/Third_Party/LwIP/src/core/ipv4\ip4.c ****       case IP_PROTO_TCP:
 708:c:/Users/Black_Life/STM32Cube/Repository/STM32Cube_FW_F4_V1.26.2/Middlewares/Third_Party/LwIP/src/core/ipv4\ip4.c ****         MIB2_STATS_INC(mib2.ipindelivers);
 709:c:/Users/Black_Life/STM32Cube/Repository/STM32Cube_FW_F4_V1.26.2/Middlewares/Third_Party/LwIP/src/core/ipv4\ip4.c ****         tcp_input(p, inp);
 710:c:/Users/Black_Life/STM32Cube/Repository/STM32Cube_FW_F4_V1.26.2/Middlewares/Third_Party/LwIP/src/core/ipv4\ip4.c ****         break;
 711:c:/Users/Black_Life/STM32Cube/Repository/STM32Cube_FW_F4_V1.26.2/Middlewares/Third_Party/LwIP/src/core/ipv4\ip4.c **** #endif /* LWIP_TCP */
 712:c:/Users/Black_Life/STM32Cube/Repository/STM32Cube_FW_F4_V1.26.2/Middlewares/Third_Party/LwIP/src/core/ipv4\ip4.c **** #if LWIP_ICMP
 713:c:/Users/Black_Life/STM32Cube/Repository/STM32Cube_FW_F4_V1.26.2/Middlewares/Third_Party/LwIP/src/core/ipv4\ip4.c ****       case IP_PROTO_ICMP:
 714:c:/Users/Black_Life/STM32Cube/Repository/STM32Cube_FW_F4_V1.26.2/Middlewares/Third_Party/LwIP/src/core/ipv4\ip4.c ****         MIB2_STATS_INC(mib2.ipindelivers);
 715:c:/Users/Black_Life/STM32Cube/Repository/STM32Cube_FW_F4_V1.26.2/Middlewares/Third_Party/LwIP/src/core/ipv4\ip4.c ****         icmp_input(p, inp);
 716:c:/Users/Black_Life/STM32Cube/Repository/STM32Cube_FW_F4_V1.26.2/Middlewares/Third_Party/LwIP/src/core/ipv4\ip4.c ****         break;
 717:c:/Users/Black_Life/STM32Cube/Repository/STM32Cube_FW_F4_V1.26.2/Middlewares/Third_Party/LwIP/src/core/ipv4\ip4.c **** #endif /* LWIP_ICMP */
 718:c:/Users/Black_Life/STM32Cube/Repository/STM32Cube_FW_F4_V1.26.2/Middlewares/Third_Party/LwIP/src/core/ipv4\ip4.c **** #if LWIP_IGMP
 719:c:/Users/Black_Life/STM32Cube/Repository/STM32Cube_FW_F4_V1.26.2/Middlewares/Third_Party/LwIP/src/core/ipv4\ip4.c ****       case IP_PROTO_IGMP:
 720:c:/Users/Black_Life/STM32Cube/Repository/STM32Cube_FW_F4_V1.26.2/Middlewares/Third_Party/LwIP/src/core/ipv4\ip4.c ****         igmp_input(p, inp, ip4_current_dest_addr());
 721:c:/Users/Black_Life/STM32Cube/Repository/STM32Cube_FW_F4_V1.26.2/Middlewares/Third_Party/LwIP/src/core/ipv4\ip4.c ****         break;
 722:c:/Users/Black_Life/STM32Cube/Repository/STM32Cube_FW_F4_V1.26.2/Middlewares/Third_Party/LwIP/src/core/ipv4\ip4.c **** #endif /* LWIP_IGMP */
 723:c:/Users/Black_Life/STM32Cube/Repository/STM32Cube_FW_F4_V1.26.2/Middlewares/Third_Party/LwIP/src/core/ipv4\ip4.c ****       default:
 724:c:/Users/Black_Life/STM32Cube/Repository/STM32Cube_FW_F4_V1.26.2/Middlewares/Third_Party/LwIP/src/core/ipv4\ip4.c **** #if LWIP_RAW
 725:c:/Users/Black_Life/STM32Cube/Repository/STM32Cube_FW_F4_V1.26.2/Middlewares/Third_Party/LwIP/src/core/ipv4\ip4.c ****         if (raw_status == RAW_INPUT_DELIVERED) {
 726:c:/Users/Black_Life/STM32Cube/Repository/STM32Cube_FW_F4_V1.26.2/Middlewares/Third_Party/LwIP/src/core/ipv4\ip4.c ****           MIB2_STATS_INC(mib2.ipindelivers);
 727:c:/Users/Black_Life/STM32Cube/Repository/STM32Cube_FW_F4_V1.26.2/Middlewares/Third_Party/LwIP/src/core/ipv4\ip4.c ****         } else
 728:c:/Users/Black_Life/STM32Cube/Repository/STM32Cube_FW_F4_V1.26.2/Middlewares/Third_Party/LwIP/src/core/ipv4\ip4.c **** #endif /* LWIP_RAW */
 729:c:/Users/Black_Life/STM32Cube/Repository/STM32Cube_FW_F4_V1.26.2/Middlewares/Third_Party/LwIP/src/core/ipv4\ip4.c ****         {
 730:c:/Users/Black_Life/STM32Cube/Repository/STM32Cube_FW_F4_V1.26.2/Middlewares/Third_Party/LwIP/src/core/ipv4\ip4.c **** #if LWIP_ICMP
 731:c:/Users/Black_Life/STM32Cube/Repository/STM32Cube_FW_F4_V1.26.2/Middlewares/Third_Party/LwIP/src/core/ipv4\ip4.c ****           /* send ICMP destination protocol unreachable unless is was a broadcast */
 732:c:/Users/Black_Life/STM32Cube/Repository/STM32Cube_FW_F4_V1.26.2/Middlewares/Third_Party/LwIP/src/core/ipv4\ip4.c ****           if (!ip4_addr_isbroadcast(ip4_current_dest_addr(), netif) &&
 733:c:/Users/Black_Life/STM32Cube/Repository/STM32Cube_FW_F4_V1.26.2/Middlewares/Third_Party/LwIP/src/core/ipv4\ip4.c ****               !ip4_addr_ismulticast(ip4_current_dest_addr())) {
 734:c:/Users/Black_Life/STM32Cube/Repository/STM32Cube_FW_F4_V1.26.2/Middlewares/Third_Party/LwIP/src/core/ipv4\ip4.c ****             pbuf_header_force(p, (s16_t)iphdr_hlen); /* Move to ip header, no check necessary. */
 735:c:/Users/Black_Life/STM32Cube/Repository/STM32Cube_FW_F4_V1.26.2/Middlewares/Third_Party/LwIP/src/core/ipv4\ip4.c ****             icmp_dest_unreach(p, ICMP_DUR_PROTO);
 736:c:/Users/Black_Life/STM32Cube/Repository/STM32Cube_FW_F4_V1.26.2/Middlewares/Third_Party/LwIP/src/core/ipv4\ip4.c ****           }
 737:c:/Users/Black_Life/STM32Cube/Repository/STM32Cube_FW_F4_V1.26.2/Middlewares/Third_Party/LwIP/src/core/ipv4\ip4.c **** #endif /* LWIP_ICMP */
 738:c:/Users/Black_Life/STM32Cube/Repository/STM32Cube_FW_F4_V1.26.2/Middlewares/Third_Party/LwIP/src/core/ipv4\ip4.c **** 
 739:c:/Users/Black_Life/STM32Cube/Repository/STM32Cube_FW_F4_V1.26.2/Middlewares/Third_Party/LwIP/src/core/ipv4\ip4.c ****           LWIP_DEBUGF(IP_DEBUG | LWIP_DBG_LEVEL_SERIOUS, ("Unsupported transport protocol %"U16_F"\
 740:c:/Users/Black_Life/STM32Cube/Repository/STM32Cube_FW_F4_V1.26.2/Middlewares/Third_Party/LwIP/src/core/ipv4\ip4.c **** 
 741:c:/Users/Black_Life/STM32Cube/Repository/STM32Cube_FW_F4_V1.26.2/Middlewares/Third_Party/LwIP/src/core/ipv4\ip4.c ****           IP_STATS_INC(ip.proterr);
 742:c:/Users/Black_Life/STM32Cube/Repository/STM32Cube_FW_F4_V1.26.2/Middlewares/Third_Party/LwIP/src/core/ipv4\ip4.c ****           IP_STATS_INC(ip.drop);
 743:c:/Users/Black_Life/STM32Cube/Repository/STM32Cube_FW_F4_V1.26.2/Middlewares/Third_Party/LwIP/src/core/ipv4\ip4.c ****           MIB2_STATS_INC(mib2.ipinunknownprotos);
 744:c:/Users/Black_Life/STM32Cube/Repository/STM32Cube_FW_F4_V1.26.2/Middlewares/Third_Party/LwIP/src/core/ipv4\ip4.c ****         }
 745:c:/Users/Black_Life/STM32Cube/Repository/STM32Cube_FW_F4_V1.26.2/Middlewares/Third_Party/LwIP/src/core/ipv4\ip4.c ****         pbuf_free(p);
 746:c:/Users/Black_Life/STM32Cube/Repository/STM32Cube_FW_F4_V1.26.2/Middlewares/Third_Party/LwIP/src/core/ipv4\ip4.c ****         break;
 747:c:/Users/Black_Life/STM32Cube/Repository/STM32Cube_FW_F4_V1.26.2/Middlewares/Third_Party/LwIP/src/core/ipv4\ip4.c ****     }
 748:c:/Users/Black_Life/STM32Cube/Repository/STM32Cube_FW_F4_V1.26.2/Middlewares/Third_Party/LwIP/src/core/ipv4\ip4.c ****   }
 749:c:/Users/Black_Life/STM32Cube/Repository/STM32Cube_FW_F4_V1.26.2/Middlewares/Third_Party/LwIP/src/core/ipv4\ip4.c **** 
 750:c:/Users/Black_Life/STM32Cube/Repository/STM32Cube_FW_F4_V1.26.2/Middlewares/Third_Party/LwIP/src/core/ipv4\ip4.c ****   /* @todo: this is not really necessary... */
 751:c:/Users/Black_Life/STM32Cube/Repository/STM32Cube_FW_F4_V1.26.2/Middlewares/Third_Party/LwIP/src/core/ipv4\ip4.c ****   ip_data.current_netif = NULL;
 752:c:/Users/Black_Life/STM32Cube/Repository/STM32Cube_FW_F4_V1.26.2/Middlewares/Third_Party/LwIP/src/core/ipv4\ip4.c ****   ip_data.current_input_netif = NULL;
 753:c:/Users/Black_Life/STM32Cube/Repository/STM32Cube_FW_F4_V1.26.2/Middlewares/Third_Party/LwIP/src/core/ipv4\ip4.c ****   ip_data.current_ip4_header = NULL;
 754:c:/Users/Black_Life/STM32Cube/Repository/STM32Cube_FW_F4_V1.26.2/Middlewares/Third_Party/LwIP/src/core/ipv4\ip4.c ****   ip_data.current_ip_header_tot_len = 0;
 755:c:/Users/Black_Life/STM32Cube/Repository/STM32Cube_FW_F4_V1.26.2/Middlewares/Third_Party/LwIP/src/core/ipv4\ip4.c ****   ip4_addr_set_any(ip4_current_src_addr());
 756:c:/Users/Black_Life/STM32Cube/Repository/STM32Cube_FW_F4_V1.26.2/Middlewares/Third_Party/LwIP/src/core/ipv4\ip4.c ****   ip4_addr_set_any(ip4_current_dest_addr());
 757:c:/Users/Black_Life/STM32Cube/Repository/STM32Cube_FW_F4_V1.26.2/Middlewares/Third_Party/LwIP/src/core/ipv4\ip4.c **** 
 758:c:/Users/Black_Life/STM32Cube/Repository/STM32Cube_FW_F4_V1.26.2/Middlewares/Third_Party/LwIP/src/core/ipv4\ip4.c ****   return ERR_OK;
 759:c:/Users/Black_Life/STM32Cube/Repository/STM32Cube_FW_F4_V1.26.2/Middlewares/Third_Party/LwIP/src/core/ipv4\ip4.c **** }
 323              		.loc 1 759 1 is_stmt 0 view .LVU98
 324 0018 0020     		movs	r0, #0
 325 001a BDE8F883 		pop	{r3, r4, r5, r6, r7, r8, r9, pc}
 326              	.LVL19:
ARM GAS  C:\Users\BLACK_~1\AppData\Local\Temp\cct9trHa.s 			page 21


 327              	.L34:
 328              		.loc 1 759 1 view .LVU99
 329 001e 0F46     		mov	r7, r1
 464:c:/Users/Black_Life/STM32Cube/Repository/STM32Cube_FW_F4_V1.26.2/Middlewares/Third_Party/LwIP/src/core/ipv4\ip4.c ****   /* obtain ip length in bytes */
 330              		.loc 1 464 3 is_stmt 1 view .LVU100
 464:c:/Users/Black_Life/STM32Cube/Repository/STM32Cube_FW_F4_V1.26.2/Middlewares/Third_Party/LwIP/src/core/ipv4\ip4.c ****   /* obtain ip length in bytes */
 331              		.loc 1 464 16 is_stmt 0 view .LVU101
 332 0020 03F00F03 		and	r3, r3, #15
 333 0024 4FEA8309 		lsl	r9, r3, #2
 464:c:/Users/Black_Life/STM32Cube/Repository/STM32Cube_FW_F4_V1.26.2/Middlewares/Third_Party/LwIP/src/core/ipv4\ip4.c ****   /* obtain ip length in bytes */
 334              		.loc 1 464 14 view .LVU102
 335 0028 4D46     		mov	r5, r9
 336              	.LVL20:
 466:c:/Users/Black_Life/STM32Cube/Repository/STM32Cube_FW_F4_V1.26.2/Middlewares/Third_Party/LwIP/src/core/ipv4\ip4.c **** 
 337              		.loc 1 466 3 is_stmt 1 view .LVU103
 466:c:/Users/Black_Life/STM32Cube/Repository/STM32Cube_FW_F4_V1.26.2/Middlewares/Third_Party/LwIP/src/core/ipv4\ip4.c **** 
 338              		.loc 1 466 15 is_stmt 0 view .LVU104
 339 002a B8F80200 		ldrh	r0, [r8, #2]	@ unaligned
 340              	.LVL21:
 466:c:/Users/Black_Life/STM32Cube/Repository/STM32Cube_FW_F4_V1.26.2/Middlewares/Third_Party/LwIP/src/core/ipv4\ip4.c **** 
 341              		.loc 1 466 15 view .LVU105
 342 002e FFF7FEFF 		bl	lwip_htons
 343              	.LVL22:
 466:c:/Users/Black_Life/STM32Cube/Repository/STM32Cube_FW_F4_V1.26.2/Middlewares/Third_Party/LwIP/src/core/ipv4\ip4.c **** 
 344              		.loc 1 466 15 view .LVU106
 345 0032 0646     		mov	r6, r0
 346              	.LVL23:
 469:c:/Users/Black_Life/STM32Cube/Repository/STM32Cube_FW_F4_V1.26.2/Middlewares/Third_Party/LwIP/src/core/ipv4\ip4.c ****     pbuf_realloc(p, iphdr_len);
 347              		.loc 1 469 3 is_stmt 1 view .LVU107
 469:c:/Users/Black_Life/STM32Cube/Repository/STM32Cube_FW_F4_V1.26.2/Middlewares/Third_Party/LwIP/src/core/ipv4\ip4.c ****     pbuf_realloc(p, iphdr_len);
 348              		.loc 1 469 20 is_stmt 0 view .LVU108
 349 0034 2389     		ldrh	r3, [r4, #8]
 469:c:/Users/Black_Life/STM32Cube/Repository/STM32Cube_FW_F4_V1.26.2/Middlewares/Third_Party/LwIP/src/core/ipv4\ip4.c ****     pbuf_realloc(p, iphdr_len);
 350              		.loc 1 469 6 view .LVU109
 351 0036 8342     		cmp	r3, r0
 352 0038 1BD8     		bhi	.L63
 353              	.LVL24:
 354              	.L36:
 474:c:/Users/Black_Life/STM32Cube/Repository/STM32Cube_FW_F4_V1.26.2/Middlewares/Third_Party/LwIP/src/core/ipv4\ip4.c ****     if (iphdr_hlen < IP_HLEN) {
 355              		.loc 1 474 3 is_stmt 1 view .LVU110
 474:c:/Users/Black_Life/STM32Cube/Repository/STM32Cube_FW_F4_V1.26.2/Middlewares/Third_Party/LwIP/src/core/ipv4\ip4.c ****     if (iphdr_hlen < IP_HLEN) {
 356              		.loc 1 474 22 is_stmt 0 view .LVU111
 357 003a 6389     		ldrh	r3, [r4, #10]
 474:c:/Users/Black_Life/STM32Cube/Repository/STM32Cube_FW_F4_V1.26.2/Middlewares/Third_Party/LwIP/src/core/ipv4\ip4.c ****     if (iphdr_hlen < IP_HLEN) {
 358              		.loc 1 474 6 view .LVU112
 359 003c AB42     		cmp	r3, r5
 360 003e 1DD3     		bcc	.L37
 474:c:/Users/Black_Life/STM32Cube/Repository/STM32Cube_FW_F4_V1.26.2/Middlewares/Third_Party/LwIP/src/core/ipv4\ip4.c ****     if (iphdr_hlen < IP_HLEN) {
 361              		.loc 1 474 46 discriminator 1 view .LVU113
 362 0040 2389     		ldrh	r3, [r4, #8]
 474:c:/Users/Black_Life/STM32Cube/Repository/STM32Cube_FW_F4_V1.26.2/Middlewares/Third_Party/LwIP/src/core/ipv4\ip4.c ****     if (iphdr_hlen < IP_HLEN) {
 363              		.loc 1 474 29 discriminator 1 view .LVU114
 364 0042 B342     		cmp	r3, r6
 365 0044 1AD3     		bcc	.L37
 474:c:/Users/Black_Life/STM32Cube/Repository/STM32Cube_FW_F4_V1.26.2/Middlewares/Third_Party/LwIP/src/core/ipv4\ip4.c ****     if (iphdr_hlen < IP_HLEN) {
 366              		.loc 1 474 57 discriminator 2 view .LVU115
 367 0046 132D     		cmp	r5, #19
ARM GAS  C:\Users\BLACK_~1\AppData\Local\Temp\cct9trHa.s 			page 22


 368 0048 18D9     		bls	.L37
 515:c:/Users/Black_Life/STM32Cube/Repository/STM32Cube_FW_F4_V1.26.2/Middlewares/Third_Party/LwIP/src/core/ipv4\ip4.c ****   ip_addr_copy_from_ip4(ip_data.current_iphdr_src, iphdr->src);
 369              		.loc 1 515 3 is_stmt 1 view .LVU116
 370 004a D8F81030 		ldr	r3, [r8, #16]	@ unaligned
 371 004e 584A     		ldr	r2, .L69
 372 0050 5361     		str	r3, [r2, #20]
 516:c:/Users/Black_Life/STM32Cube/Repository/STM32Cube_FW_F4_V1.26.2/Middlewares/Third_Party/LwIP/src/core/ipv4\ip4.c **** 
 373              		.loc 1 516 3 view .LVU117
 374 0052 D8F80C10 		ldr	r1, [r8, #12]	@ unaligned
 375 0056 1161     		str	r1, [r2, #16]
 519:c:/Users/Black_Life/STM32Cube/Repository/STM32Cube_FW_F4_V1.26.2/Middlewares/Third_Party/LwIP/src/core/ipv4\ip4.c **** #if LWIP_IGMP
 376              		.loc 1 519 3 view .LVU118
 519:c:/Users/Black_Life/STM32Cube/Repository/STM32Cube_FW_F4_V1.26.2/Middlewares/Third_Party/LwIP/src/core/ipv4\ip4.c **** #if LWIP_IGMP
 377              		.loc 1 519 7 is_stmt 0 view .LVU119
 378 0058 03F0F003 		and	r3, r3, #240
 519:c:/Users/Black_Life/STM32Cube/Repository/STM32Cube_FW_F4_V1.26.2/Middlewares/Third_Party/LwIP/src/core/ipv4\ip4.c **** #if LWIP_IGMP
 379              		.loc 1 519 6 view .LVU120
 380 005c E02B     		cmp	r3, #224
 381 005e 11D1     		bne	.L39
 534:c:/Users/Black_Life/STM32Cube/Repository/STM32Cube_FW_F4_V1.26.2/Middlewares/Third_Party/LwIP/src/core/ipv4\ip4.c ****       netif = inp;
 382              		.loc 1 534 5 is_stmt 1 view .LVU121
 534:c:/Users/Black_Life/STM32Cube/Repository/STM32Cube_FW_F4_V1.26.2/Middlewares/Third_Party/LwIP/src/core/ipv4\ip4.c ****       netif = inp;
 383              		.loc 1 534 10 is_stmt 0 view .LVU122
 384 0060 97F83130 		ldrb	r3, [r7, #49]	@ zero_extendqisi2
 534:c:/Users/Black_Life/STM32Cube/Repository/STM32Cube_FW_F4_V1.26.2/Middlewares/Third_Party/LwIP/src/core/ipv4\ip4.c ****       netif = inp;
 385              		.loc 1 534 8 view .LVU123
 386 0064 13F0010F 		tst	r3, #1
 387 0068 26D0     		beq	.L56
 534:c:/Users/Black_Life/STM32Cube/Repository/STM32Cube_FW_F4_V1.26.2/Middlewares/Third_Party/LwIP/src/core/ipv4\ip4.c ****       netif = inp;
 388              		.loc 1 534 33 discriminator 1 view .LVU124
 389 006a 7B68     		ldr	r3, [r7, #4]
 534:c:/Users/Black_Life/STM32Cube/Repository/STM32Cube_FW_F4_V1.26.2/Middlewares/Third_Party/LwIP/src/core/ipv4\ip4.c ****       netif = inp;
 390              		.loc 1 534 28 discriminator 1 view .LVU125
 391 006c FBB9     		cbnz	r3, .L57
 537:c:/Users/Black_Life/STM32Cube/Repository/STM32Cube_FW_F4_V1.26.2/Middlewares/Third_Party/LwIP/src/core/ipv4\ip4.c ****     }
 392              		.loc 1 537 13 view .LVU126
 393 006e 0025     		movs	r5, #0
 394 0070 23E0     		b	.L40
 395              	.LVL25:
 396              	.L63:
 470:c:/Users/Black_Life/STM32Cube/Repository/STM32Cube_FW_F4_V1.26.2/Middlewares/Third_Party/LwIP/src/core/ipv4\ip4.c ****   }
 397              		.loc 1 470 5 is_stmt 1 view .LVU127
 398 0072 0146     		mov	r1, r0
 399 0074 2046     		mov	r0, r4
 400              	.LVL26:
 470:c:/Users/Black_Life/STM32Cube/Repository/STM32Cube_FW_F4_V1.26.2/Middlewares/Third_Party/LwIP/src/core/ipv4\ip4.c ****   }
 401              		.loc 1 470 5 is_stmt 0 view .LVU128
 402 0076 FFF7FEFF 		bl	pbuf_realloc
 403              	.LVL27:
 404 007a DEE7     		b	.L36
 405              	.L37:
 475:c:/Users/Black_Life/STM32Cube/Repository/STM32Cube_FW_F4_V1.26.2/Middlewares/Third_Party/LwIP/src/core/ipv4\ip4.c ****       LWIP_DEBUGF(IP_DEBUG | LWIP_DBG_LEVEL_SERIOUS,
 406              		.loc 1 475 5 is_stmt 1 view .LVU129
 477:c:/Users/Black_Life/STM32Cube/Repository/STM32Cube_FW_F4_V1.26.2/Middlewares/Third_Party/LwIP/src/core/ipv4\ip4.c ****     }
 407              		.loc 1 477 109 view .LVU130
 479:c:/Users/Black_Life/STM32Cube/Repository/STM32Cube_FW_F4_V1.26.2/Middlewares/Third_Party/LwIP/src/core/ipv4\ip4.c ****       LWIP_DEBUGF(IP_DEBUG | LWIP_DBG_LEVEL_SERIOUS,
 408              		.loc 1 479 5 view .LVU131
ARM GAS  C:\Users\BLACK_~1\AppData\Local\Temp\cct9trHa.s 			page 23


 482:c:/Users/Black_Life/STM32Cube/Repository/STM32Cube_FW_F4_V1.26.2/Middlewares/Third_Party/LwIP/src/core/ipv4\ip4.c ****     }
 409              		.loc 1 482 40 view .LVU132
 484:c:/Users/Black_Life/STM32Cube/Repository/STM32Cube_FW_F4_V1.26.2/Middlewares/Third_Party/LwIP/src/core/ipv4\ip4.c ****       LWIP_DEBUGF(IP_DEBUG | LWIP_DBG_LEVEL_SERIOUS,
 410              		.loc 1 484 5 view .LVU133
 487:c:/Users/Black_Life/STM32Cube/Repository/STM32Cube_FW_F4_V1.26.2/Middlewares/Third_Party/LwIP/src/core/ipv4\ip4.c ****     }
 411              		.loc 1 487 43 view .LVU134
 490:c:/Users/Black_Life/STM32Cube/Repository/STM32Cube_FW_F4_V1.26.2/Middlewares/Third_Party/LwIP/src/core/ipv4\ip4.c ****     IP_STATS_INC(ip.lenerr);
 412              		.loc 1 490 5 view .LVU135
 413 007c 2046     		mov	r0, r4
 414 007e FFF7FEFF 		bl	pbuf_free
 415              	.LVL28:
 491:c:/Users/Black_Life/STM32Cube/Repository/STM32Cube_FW_F4_V1.26.2/Middlewares/Third_Party/LwIP/src/core/ipv4\ip4.c ****     IP_STATS_INC(ip.drop);
 416              		.loc 1 491 28 view .LVU136
 492:c:/Users/Black_Life/STM32Cube/Repository/STM32Cube_FW_F4_V1.26.2/Middlewares/Third_Party/LwIP/src/core/ipv4\ip4.c ****     MIB2_STATS_INC(mib2.ipindiscards);
 417              		.loc 1 492 26 view .LVU137
 493:c:/Users/Black_Life/STM32Cube/Repository/STM32Cube_FW_F4_V1.26.2/Middlewares/Third_Party/LwIP/src/core/ipv4\ip4.c ****     return ERR_OK;
 418              		.loc 1 493 38 view .LVU138
 494:c:/Users/Black_Life/STM32Cube/Repository/STM32Cube_FW_F4_V1.26.2/Middlewares/Third_Party/LwIP/src/core/ipv4\ip4.c ****   }
 419              		.loc 1 494 5 view .LVU139
 494:c:/Users/Black_Life/STM32Cube/Repository/STM32Cube_FW_F4_V1.26.2/Middlewares/Third_Party/LwIP/src/core/ipv4\ip4.c ****   }
 420              		.loc 1 494 12 is_stmt 0 view .LVU140
 421 0082 C9E7     		b	.L35
 422              	.L39:
 543:c:/Users/Black_Life/STM32Cube/Repository/STM32Cube_FW_F4_V1.26.2/Middlewares/Third_Party/LwIP/src/core/ipv4\ip4.c ****       netif = inp;
 423              		.loc 1 543 5 is_stmt 1 view .LVU141
 543:c:/Users/Black_Life/STM32Cube/Repository/STM32Cube_FW_F4_V1.26.2/Middlewares/Third_Party/LwIP/src/core/ipv4\ip4.c ****       netif = inp;
 424              		.loc 1 543 9 is_stmt 0 view .LVU142
 425 0084 3846     		mov	r0, r7
 426 0086 FFF7FEFF 		bl	ip4_input_accept
 427              	.LVL29:
 543:c:/Users/Black_Life/STM32Cube/Repository/STM32Cube_FW_F4_V1.26.2/Middlewares/Third_Party/LwIP/src/core/ipv4\ip4.c ****       netif = inp;
 428              		.loc 1 543 8 view .LVU143
 429 008a 90B9     		cbnz	r0, .L58
 546:c:/Users/Black_Life/STM32Cube/Repository/STM32Cube_FW_F4_V1.26.2/Middlewares/Third_Party/LwIP/src/core/ipv4\ip4.c **** #if !LWIP_NETIF_LOOPBACK || LWIP_HAVE_LOOPIF
 430              		.loc 1 546 7 is_stmt 1 view .LVU144
 431              	.LVL30:
 551:c:/Users/Black_Life/STM32Cube/Repository/STM32Cube_FW_F4_V1.26.2/Middlewares/Third_Party/LwIP/src/core/ipv4\ip4.c **** #endif /* !LWIP_NETIF_LOOPBACK || LWIP_HAVE_LOOPIF */
 432              		.loc 1 551 7 view .LVU145
 551:c:/Users/Black_Life/STM32Cube/Repository/STM32Cube_FW_F4_V1.26.2/Middlewares/Third_Party/LwIP/src/core/ipv4\ip4.c **** #endif /* !LWIP_NETIF_LOOPBACK || LWIP_HAVE_LOOPIF */
 433              		.loc 1 551 12 is_stmt 0 view .LVU146
 434 008c 484B     		ldr	r3, .L69
 435 008e 1B7D     		ldrb	r3, [r3, #20]	@ zero_extendqisi2
 551:c:/Users/Black_Life/STM32Cube/Repository/STM32Cube_FW_F4_V1.26.2/Middlewares/Third_Party/LwIP/src/core/ipv4\ip4.c **** #endif /* !LWIP_NETIF_LOOPBACK || LWIP_HAVE_LOOPIF */
 436              		.loc 1 551 10 view .LVU147
 437 0090 7F2B     		cmp	r3, #127
 438 0092 51D0     		beq	.L59
 555:c:/Users/Black_Life/STM32Cube/Repository/STM32Cube_FW_F4_V1.26.2/Middlewares/Third_Party/LwIP/src/core/ipv4\ip4.c ****           if (netif == inp) {
 439              		.loc 1 555 9 is_stmt 1 view .LVU148
 440 0094 474B     		ldr	r3, .L69+4
 441 0096 1D68     		ldr	r5, [r3]
 442              	.LVL31:
 555:c:/Users/Black_Life/STM32Cube/Repository/STM32Cube_FW_F4_V1.26.2/Middlewares/Third_Party/LwIP/src/core/ipv4\ip4.c ****           if (netif == inp) {
 443              		.loc 1 555 9 is_stmt 0 view .LVU149
 444 0098 00E0     		b	.L42
 445              	.L43:
 555:c:/Users/Black_Life/STM32Cube/Repository/STM32Cube_FW_F4_V1.26.2/Middlewares/Third_Party/LwIP/src/core/ipv4\ip4.c ****           if (netif == inp) {
 446              		.loc 1 555 9 is_stmt 1 discriminator 2 view .LVU150
ARM GAS  C:\Users\BLACK_~1\AppData\Local\Temp\cct9trHa.s 			page 24


 447 009a 2D68     		ldr	r5, [r5]
 448              	.LVL32:
 449              	.L42:
 555:c:/Users/Black_Life/STM32Cube/Repository/STM32Cube_FW_F4_V1.26.2/Middlewares/Third_Party/LwIP/src/core/ipv4\ip4.c ****           if (netif == inp) {
 450              		.loc 1 555 9 discriminator 1 view .LVU151
 451 009c 55B1     		cbz	r5, .L41
 556:c:/Users/Black_Life/STM32Cube/Repository/STM32Cube_FW_F4_V1.26.2/Middlewares/Third_Party/LwIP/src/core/ipv4\ip4.c ****             /* we checked that before already */
 452              		.loc 1 556 11 view .LVU152
 556:c:/Users/Black_Life/STM32Cube/Repository/STM32Cube_FW_F4_V1.26.2/Middlewares/Third_Party/LwIP/src/core/ipv4\ip4.c ****             /* we checked that before already */
 453              		.loc 1 556 14 is_stmt 0 view .LVU153
 454 009e BD42     		cmp	r5, r7
 455 00a0 FBD0     		beq	.L43
 560:c:/Users/Black_Life/STM32Cube/Repository/STM32Cube_FW_F4_V1.26.2/Middlewares/Third_Party/LwIP/src/core/ipv4\ip4.c ****             break;
 456              		.loc 1 560 11 is_stmt 1 view .LVU154
 560:c:/Users/Black_Life/STM32Cube/Repository/STM32Cube_FW_F4_V1.26.2/Middlewares/Third_Party/LwIP/src/core/ipv4\ip4.c ****             break;
 457              		.loc 1 560 15 is_stmt 0 view .LVU155
 458 00a2 2846     		mov	r0, r5
 459 00a4 FFF7FEFF 		bl	ip4_input_accept
 460              	.LVL33:
 560:c:/Users/Black_Life/STM32Cube/Repository/STM32Cube_FW_F4_V1.26.2/Middlewares/Third_Party/LwIP/src/core/ipv4\ip4.c ****             break;
 461              		.loc 1 560 14 view .LVU156
 462 00a8 0028     		cmp	r0, #0
 463 00aa F6D0     		beq	.L43
 464 00ac 02E0     		b	.L41
 465              	.LVL34:
 466              	.L57:
 535:c:/Users/Black_Life/STM32Cube/Repository/STM32Cube_FW_F4_V1.26.2/Middlewares/Third_Party/LwIP/src/core/ipv4\ip4.c ****     } else {
 467              		.loc 1 535 13 view .LVU157
 468 00ae 3D46     		mov	r5, r7
 469 00b0 00E0     		b	.L41
 470              	.L58:
 544:c:/Users/Black_Life/STM32Cube/Repository/STM32Cube_FW_F4_V1.26.2/Middlewares/Third_Party/LwIP/src/core/ipv4\ip4.c ****     } else {
 471              		.loc 1 544 13 view .LVU158
 472 00b2 3D46     		mov	r5, r7
 473              	.L41:
 474              	.LVL35:
 579:c:/Users/Black_Life/STM32Cube/Repository/STM32Cube_FW_F4_V1.26.2/Middlewares/Third_Party/LwIP/src/core/ipv4\ip4.c ****     /* remote port is DHCP server? */
 475              		.loc 1 579 3 is_stmt 1 view .LVU159
 579:c:/Users/Black_Life/STM32Cube/Repository/STM32Cube_FW_F4_V1.26.2/Middlewares/Third_Party/LwIP/src/core/ipv4\ip4.c ****     /* remote port is DHCP server? */
 476              		.loc 1 579 6 is_stmt 0 view .LVU160
 477 00b4 2DB9     		cbnz	r5, .L45
 478 00b6 00E0     		b	.L40
 479              	.LVL36:
 480              	.L56:
 537:c:/Users/Black_Life/STM32Cube/Repository/STM32Cube_FW_F4_V1.26.2/Middlewares/Third_Party/LwIP/src/core/ipv4\ip4.c ****     }
 481              		.loc 1 537 13 view .LVU161
 482 00b8 0025     		movs	r5, #0
 483              	.L40:
 581:c:/Users/Black_Life/STM32Cube/Repository/STM32Cube_FW_F4_V1.26.2/Middlewares/Third_Party/LwIP/src/core/ipv4\ip4.c ****       const struct udp_hdr *udphdr = (const struct udp_hdr *)((const u8_t *)iphdr + iphdr_hlen);
 484              		.loc 1 581 5 is_stmt 1 view .LVU162
 581:c:/Users/Black_Life/STM32Cube/Repository/STM32Cube_FW_F4_V1.26.2/Middlewares/Third_Party/LwIP/src/core/ipv4\ip4.c ****       const struct udp_hdr *udphdr = (const struct udp_hdr *)((const u8_t *)iphdr + iphdr_hlen);
 485              		.loc 1 581 9 is_stmt 0 view .LVU163
 486 00ba 98F80930 		ldrb	r3, [r8, #9]	@ zero_extendqisi2
 581:c:/Users/Black_Life/STM32Cube/Repository/STM32Cube_FW_F4_V1.26.2/Middlewares/Third_Party/LwIP/src/core/ipv4\ip4.c ****       const struct udp_hdr *udphdr = (const struct udp_hdr *)((const u8_t *)iphdr + iphdr_hlen);
 487              		.loc 1 581 8 view .LVU164
 488 00be 112B     		cmp	r3, #17
 489 00c0 3CD0     		beq	.L64
ARM GAS  C:\Users\BLACK_~1\AppData\Local\Temp\cct9trHa.s 			page 25


 490              	.L45:
 491              	.LVL37:
 599:c:/Users/Black_Life/STM32Cube/Repository/STM32Cube_FW_F4_V1.26.2/Middlewares/Third_Party/LwIP/src/core/ipv4\ip4.c **** #endif /* IP_ACCEPT_LINK_LAYER_ADDRESSING */
 492              		.loc 1 599 11 view .LVU165
 493 00c2 3B4B     		ldr	r3, .L69
 494 00c4 1869     		ldr	r0, [r3, #16]
 599:c:/Users/Black_Life/STM32Cube/Repository/STM32Cube_FW_F4_V1.26.2/Middlewares/Third_Party/LwIP/src/core/ipv4\ip4.c **** #endif /* IP_ACCEPT_LINK_LAYER_ADDRESSING */
 495              		.loc 1 599 7 view .LVU166
 496 00c6 0028     		cmp	r0, #0
 497 00c8 40D1     		bne	.L65
 498              	.L46:
 618:c:/Users/Black_Life/STM32Cube/Repository/STM32Cube_FW_F4_V1.26.2/Middlewares/Third_Party/LwIP/src/core/ipv4\ip4.c ****     /* packet not for us, route or discard */
 499              		.loc 1 618 3 is_stmt 1 view .LVU167
 618:c:/Users/Black_Life/STM32Cube/Repository/STM32Cube_FW_F4_V1.26.2/Middlewares/Third_Party/LwIP/src/core/ipv4\ip4.c ****     /* packet not for us, route or discard */
 500              		.loc 1 618 6 is_stmt 0 view .LVU168
 501 00ca 002D     		cmp	r5, #0
 502 00cc 4CD0     		beq	.L66
 637:c:/Users/Black_Life/STM32Cube/Repository/STM32Cube_FW_F4_V1.26.2/Middlewares/Third_Party/LwIP/src/core/ipv4\ip4.c **** #if IP_REASSEMBLY /* packet fragment reassembly code present? */
 503              		.loc 1 637 3 is_stmt 1 view .LVU169
 637:c:/Users/Black_Life/STM32Cube/Repository/STM32Cube_FW_F4_V1.26.2/Middlewares/Third_Party/LwIP/src/core/ipv4\ip4.c **** #if IP_REASSEMBLY /* packet fragment reassembly code present? */
 504              		.loc 1 637 8 is_stmt 0 view .LVU170
 505 00ce B8F80630 		ldrh	r3, [r8, #6]	@ unaligned
 637:c:/Users/Black_Life/STM32Cube/Repository/STM32Cube_FW_F4_V1.26.2/Middlewares/Third_Party/LwIP/src/core/ipv4\ip4.c **** #if IP_REASSEMBLY /* packet fragment reassembly code present? */
 506              		.loc 1 637 6 view .LVU171
 507 00d2 23F0C003 		bic	r3, r3, #192
 508 00d6 9BB2     		uxth	r3, r3
 509 00d8 3BB1     		cbz	r3, .L49
 640:c:/Users/Black_Life/STM32Cube/Repository/STM32Cube_FW_F4_V1.26.2/Middlewares/Third_Party/LwIP/src/core/ipv4\ip4.c ****     /* reassemble the packet*/
 510              		.loc 1 640 202 is_stmt 1 view .LVU172
 642:c:/Users/Black_Life/STM32Cube/Repository/STM32Cube_FW_F4_V1.26.2/Middlewares/Third_Party/LwIP/src/core/ipv4\ip4.c ****     /* packet not fully reassembled yet? */
 511              		.loc 1 642 5 view .LVU173
 642:c:/Users/Black_Life/STM32Cube/Repository/STM32Cube_FW_F4_V1.26.2/Middlewares/Third_Party/LwIP/src/core/ipv4\ip4.c ****     /* packet not fully reassembled yet? */
 512              		.loc 1 642 9 is_stmt 0 view .LVU174
 513 00da 2046     		mov	r0, r4
 514 00dc FFF7FEFF 		bl	ip4_reass
 515              	.LVL38:
 644:c:/Users/Black_Life/STM32Cube/Repository/STM32Cube_FW_F4_V1.26.2/Middlewares/Third_Party/LwIP/src/core/ipv4\ip4.c ****       return ERR_OK;
 516              		.loc 1 644 5 is_stmt 1 view .LVU175
 644:c:/Users/Black_Life/STM32Cube/Repository/STM32Cube_FW_F4_V1.26.2/Middlewares/Third_Party/LwIP/src/core/ipv4\ip4.c ****       return ERR_OK;
 517              		.loc 1 644 8 is_stmt 0 view .LVU176
 518 00e0 0446     		mov	r4, r0
 519 00e2 0028     		cmp	r0, #0
 520 00e4 98D0     		beq	.L35
 647:c:/Users/Black_Life/STM32Cube/Repository/STM32Cube_FW_F4_V1.26.2/Middlewares/Third_Party/LwIP/src/core/ipv4\ip4.c **** #else /* IP_REASSEMBLY == 0, no packet fragment reassembly code present */
 521              		.loc 1 647 5 is_stmt 1 view .LVU177
 647:c:/Users/Black_Life/STM32Cube/Repository/STM32Cube_FW_F4_V1.26.2/Middlewares/Third_Party/LwIP/src/core/ipv4\ip4.c **** #else /* IP_REASSEMBLY == 0, no packet fragment reassembly code present */
 522              		.loc 1 647 11 is_stmt 0 view .LVU178
 523 00e6 D0F80480 		ldr	r8, [r0, #4]
 524              	.LVL39:
 525              	.L49:
 679:c:/Users/Black_Life/STM32Cube/Repository/STM32Cube_FW_F4_V1.26.2/Middlewares/Third_Party/LwIP/src/core/ipv4\ip4.c ****   ip4_debug_print(p);
 526              		.loc 1 679 43 is_stmt 1 view .LVU179
 680:c:/Users/Black_Life/STM32Cube/Repository/STM32Cube_FW_F4_V1.26.2/Middlewares/Third_Party/LwIP/src/core/ipv4\ip4.c ****   LWIP_DEBUGF(IP_DEBUG, ("ip4_input: p->len %"U16_F" p->tot_len %"U16_F"\n", p->len, p->tot_len));
 527              		.loc 1 680 21 view .LVU180
 681:c:/Users/Black_Life/STM32Cube/Repository/STM32Cube_FW_F4_V1.26.2/Middlewares/Third_Party/LwIP/src/core/ipv4\ip4.c **** 
 528              		.loc 1 681 98 view .LVU181
 683:c:/Users/Black_Life/STM32Cube/Repository/STM32Cube_FW_F4_V1.26.2/Middlewares/Third_Party/LwIP/src/core/ipv4\ip4.c ****   ip_data.current_input_netif = inp;
ARM GAS  C:\Users\BLACK_~1\AppData\Local\Temp\cct9trHa.s 			page 26


 529              		.loc 1 683 3 view .LVU182
 683:c:/Users/Black_Life/STM32Cube/Repository/STM32Cube_FW_F4_V1.26.2/Middlewares/Third_Party/LwIP/src/core/ipv4\ip4.c ****   ip_data.current_input_netif = inp;
 530              		.loc 1 683 25 is_stmt 0 view .LVU183
 531 00ea 314A     		ldr	r2, .L69
 532 00ec 1560     		str	r5, [r2]
 684:c:/Users/Black_Life/STM32Cube/Repository/STM32Cube_FW_F4_V1.26.2/Middlewares/Third_Party/LwIP/src/core/ipv4\ip4.c ****   ip_data.current_ip4_header = iphdr;
 533              		.loc 1 684 3 is_stmt 1 view .LVU184
 684:c:/Users/Black_Life/STM32Cube/Repository/STM32Cube_FW_F4_V1.26.2/Middlewares/Third_Party/LwIP/src/core/ipv4\ip4.c ****   ip_data.current_ip4_header = iphdr;
 534              		.loc 1 684 31 is_stmt 0 view .LVU185
 535 00ee 5760     		str	r7, [r2, #4]
 685:c:/Users/Black_Life/STM32Cube/Repository/STM32Cube_FW_F4_V1.26.2/Middlewares/Third_Party/LwIP/src/core/ipv4\ip4.c ****   ip_data.current_ip_header_tot_len = IPH_HL_BYTES(iphdr);
 536              		.loc 1 685 3 is_stmt 1 view .LVU186
 685:c:/Users/Black_Life/STM32Cube/Repository/STM32Cube_FW_F4_V1.26.2/Middlewares/Third_Party/LwIP/src/core/ipv4\ip4.c ****   ip_data.current_ip_header_tot_len = IPH_HL_BYTES(iphdr);
 537              		.loc 1 685 30 is_stmt 0 view .LVU187
 538 00f0 C2F80880 		str	r8, [r2, #8]
 686:c:/Users/Black_Life/STM32Cube/Repository/STM32Cube_FW_F4_V1.26.2/Middlewares/Third_Party/LwIP/src/core/ipv4\ip4.c **** 
 539              		.loc 1 686 3 is_stmt 1 view .LVU188
 686:c:/Users/Black_Life/STM32Cube/Repository/STM32Cube_FW_F4_V1.26.2/Middlewares/Third_Party/LwIP/src/core/ipv4\ip4.c **** 
 540              		.loc 1 686 39 is_stmt 0 view .LVU189
 541 00f4 98F80030 		ldrb	r3, [r8]	@ zero_extendqisi2
 542 00f8 03F00F03 		and	r3, r3, #15
 543 00fc 9B00     		lsls	r3, r3, #2
 686:c:/Users/Black_Life/STM32Cube/Repository/STM32Cube_FW_F4_V1.26.2/Middlewares/Third_Party/LwIP/src/core/ipv4\ip4.c **** 
 544              		.loc 1 686 37 view .LVU190
 545 00fe 9381     		strh	r3, [r2, #12]	@ movhi
 694:c:/Users/Black_Life/STM32Cube/Repository/STM32Cube_FW_F4_V1.26.2/Middlewares/Third_Party/LwIP/src/core/ipv4\ip4.c **** 
 546              		.loc 1 694 5 is_stmt 1 view .LVU191
 547 0100 4946     		mov	r1, r9
 548 0102 2046     		mov	r0, r4
 549 0104 FFF7FEFF 		bl	pbuf_remove_header
 550              	.LVL40:
 696:c:/Users/Black_Life/STM32Cube/Repository/STM32Cube_FW_F4_V1.26.2/Middlewares/Third_Party/LwIP/src/core/ipv4\ip4.c **** #if LWIP_UDP
 551              		.loc 1 696 5 view .LVU192
 696:c:/Users/Black_Life/STM32Cube/Repository/STM32Cube_FW_F4_V1.26.2/Middlewares/Third_Party/LwIP/src/core/ipv4\ip4.c **** #if LWIP_UDP
 552              		.loc 1 696 13 is_stmt 0 view .LVU193
 553 0108 98F80930 		ldrb	r3, [r8, #9]	@ zero_extendqisi2
 696:c:/Users/Black_Life/STM32Cube/Repository/STM32Cube_FW_F4_V1.26.2/Middlewares/Third_Party/LwIP/src/core/ipv4\ip4.c **** #if LWIP_UDP
 554              		.loc 1 696 5 view .LVU194
 555 010c 062B     		cmp	r3, #6
 556 010e 3CD0     		beq	.L50
 696:c:/Users/Black_Life/STM32Cube/Repository/STM32Cube_FW_F4_V1.26.2/Middlewares/Third_Party/LwIP/src/core/ipv4\ip4.c **** #if LWIP_UDP
 557              		.loc 1 696 5 view .LVU195
 558 0110 112B     		cmp	r3, #17
 559 0112 2DD0     		beq	.L51
 560 0114 012B     		cmp	r3, #1
 561 0116 3DD0     		beq	.L67
 732:c:/Users/Black_Life/STM32Cube/Repository/STM32Cube_FW_F4_V1.26.2/Middlewares/Third_Party/LwIP/src/core/ipv4\ip4.c ****               !ip4_addr_ismulticast(ip4_current_dest_addr())) {
 562              		.loc 1 732 11 is_stmt 1 view .LVU196
 732:c:/Users/Black_Life/STM32Cube/Repository/STM32Cube_FW_F4_V1.26.2/Middlewares/Third_Party/LwIP/src/core/ipv4\ip4.c ****               !ip4_addr_ismulticast(ip4_current_dest_addr())) {
 563              		.loc 1 732 16 is_stmt 0 view .LVU197
 564 0118 2946     		mov	r1, r5
 565 011a 254B     		ldr	r3, .L69
 566 011c 5869     		ldr	r0, [r3, #20]
 567 011e FFF7FEFF 		bl	ip4_addr_isbroadcast_u32
 568              	.LVL41:
 732:c:/Users/Black_Life/STM32Cube/Repository/STM32Cube_FW_F4_V1.26.2/Middlewares/Third_Party/LwIP/src/core/ipv4\ip4.c ****               !ip4_addr_ismulticast(ip4_current_dest_addr())) {
 569              		.loc 1 732 14 view .LVU198
ARM GAS  C:\Users\BLACK_~1\AppData\Local\Temp\cct9trHa.s 			page 27


 570 0122 28B9     		cbnz	r0, .L55
 733:c:/Users/Black_Life/STM32Cube/Repository/STM32Cube_FW_F4_V1.26.2/Middlewares/Third_Party/LwIP/src/core/ipv4\ip4.c ****             pbuf_header_force(p, (s16_t)iphdr_hlen); /* Move to ip header, no check necessary. */
 571              		.loc 1 733 16 discriminator 1 view .LVU199
 572 0124 224B     		ldr	r3, .L69
 573 0126 5B69     		ldr	r3, [r3, #20]
 574 0128 03F0F003 		and	r3, r3, #240
 732:c:/Users/Black_Life/STM32Cube/Repository/STM32Cube_FW_F4_V1.26.2/Middlewares/Third_Party/LwIP/src/core/ipv4\ip4.c ****               !ip4_addr_ismulticast(ip4_current_dest_addr())) {
 575              		.loc 1 732 69 discriminator 1 view .LVU200
 576 012c E02B     		cmp	r3, #224
 577 012e 36D1     		bne	.L68
 578              	.L55:
 739:c:/Users/Black_Life/STM32Cube/Repository/STM32Cube_FW_F4_V1.26.2/Middlewares/Third_Party/LwIP/src/core/ipv4\ip4.c **** 
 579              		.loc 1 739 129 is_stmt 1 view .LVU201
 741:c:/Users/Black_Life/STM32Cube/Repository/STM32Cube_FW_F4_V1.26.2/Middlewares/Third_Party/LwIP/src/core/ipv4\ip4.c ****           IP_STATS_INC(ip.drop);
 580              		.loc 1 741 35 view .LVU202
 742:c:/Users/Black_Life/STM32Cube/Repository/STM32Cube_FW_F4_V1.26.2/Middlewares/Third_Party/LwIP/src/core/ipv4\ip4.c ****           MIB2_STATS_INC(mib2.ipinunknownprotos);
 581              		.loc 1 742 32 view .LVU203
 743:c:/Users/Black_Life/STM32Cube/Repository/STM32Cube_FW_F4_V1.26.2/Middlewares/Third_Party/LwIP/src/core/ipv4\ip4.c ****         }
 582              		.loc 1 743 49 view .LVU204
 745:c:/Users/Black_Life/STM32Cube/Repository/STM32Cube_FW_F4_V1.26.2/Middlewares/Third_Party/LwIP/src/core/ipv4\ip4.c ****         break;
 583              		.loc 1 745 9 view .LVU205
 584 0130 2046     		mov	r0, r4
 585 0132 FFF7FEFF 		bl	pbuf_free
 586              	.LVL42:
 746:c:/Users/Black_Life/STM32Cube/Repository/STM32Cube_FW_F4_V1.26.2/Middlewares/Third_Party/LwIP/src/core/ipv4\ip4.c ****     }
 587              		.loc 1 746 9 view .LVU206
 588 0136 1FE0     		b	.L54
 589              	.LVL43:
 590              	.L59:
 546:c:/Users/Black_Life/STM32Cube/Repository/STM32Cube_FW_F4_V1.26.2/Middlewares/Third_Party/LwIP/src/core/ipv4\ip4.c **** #if !LWIP_NETIF_LOOPBACK || LWIP_HAVE_LOOPIF
 591              		.loc 1 546 13 is_stmt 0 view .LVU207
 592 0138 0025     		movs	r5, #0
 593 013a BEE7     		b	.L40
 594              	.LVL44:
 595              	.L64:
 596              	.LBB2:
 582:c:/Users/Black_Life/STM32Cube/Repository/STM32Cube_FW_F4_V1.26.2/Middlewares/Third_Party/LwIP/src/core/ipv4\ip4.c ****       LWIP_DEBUGF(IP_DEBUG | LWIP_DBG_TRACE, ("ip4_input: UDP packet to DHCP client port %"U16_F"\n
 597              		.loc 1 582 7 is_stmt 1 view .LVU208
 582:c:/Users/Black_Life/STM32Cube/Repository/STM32Cube_FW_F4_V1.26.2/Middlewares/Third_Party/LwIP/src/core/ipv4\ip4.c ****       LWIP_DEBUGF(IP_DEBUG | LWIP_DBG_TRACE, ("ip4_input: UDP packet to DHCP client port %"U16_F"\n
 598              		.loc 1 582 29 is_stmt 0 view .LVU209
 599 013c 08EB0903 		add	r3, r8, r9
 600              	.LVL45:
 584:c:/Users/Black_Life/STM32Cube/Repository/STM32Cube_FW_F4_V1.26.2/Middlewares/Third_Party/LwIP/src/core/ipv4\ip4.c ****       if (IP_ACCEPT_LINK_LAYER_ADDRESSED_PORT(udphdr->dest)) {
 601              		.loc 1 584 73 is_stmt 1 view .LVU210
 585:c:/Users/Black_Life/STM32Cube/Repository/STM32Cube_FW_F4_V1.26.2/Middlewares/Third_Party/LwIP/src/core/ipv4\ip4.c ****         LWIP_DEBUGF(IP_DEBUG | LWIP_DBG_TRACE, ("ip4_input: DHCP packet accepted.\n"));
 602              		.loc 1 585 7 view .LVU211
 585:c:/Users/Black_Life/STM32Cube/Repository/STM32Cube_FW_F4_V1.26.2/Middlewares/Third_Party/LwIP/src/core/ipv4\ip4.c ****         LWIP_DEBUGF(IP_DEBUG | LWIP_DBG_TRACE, ("ip4_input: DHCP packet accepted.\n"));
 603              		.loc 1 585 11 is_stmt 0 view .LVU212
 604 0140 5B88     		ldrh	r3, [r3, #2]	@ unaligned
 605              	.LVL46:
 585:c:/Users/Black_Life/STM32Cube/Repository/STM32Cube_FW_F4_V1.26.2/Middlewares/Third_Party/LwIP/src/core/ipv4\ip4.c ****         LWIP_DEBUGF(IP_DEBUG | LWIP_DBG_TRACE, ("ip4_input: DHCP packet accepted.\n"));
 606              		.loc 1 585 10 view .LVU213
 607 0142 B3F5884F 		cmp	r3, #17408
 608 0146 BCD1     		bne	.L45
 587:c:/Users/Black_Life/STM32Cube/Repository/STM32Cube_FW_F4_V1.26.2/Middlewares/Third_Party/LwIP/src/core/ipv4\ip4.c ****         check_ip_src = 0;
 609              		.loc 1 587 15 view .LVU214
 610 0148 3D46     		mov	r5, r7
ARM GAS  C:\Users\BLACK_~1\AppData\Local\Temp\cct9trHa.s 			page 28


 611 014a BEE7     		b	.L46
 612              	.LVL47:
 613              	.L65:
 587:c:/Users/Black_Life/STM32Cube/Repository/STM32Cube_FW_F4_V1.26.2/Middlewares/Third_Party/LwIP/src/core/ipv4\ip4.c ****         check_ip_src = 0;
 614              		.loc 1 587 15 view .LVU215
 615              	.LBE2:
 604:c:/Users/Black_Life/STM32Cube/Repository/STM32Cube_FW_F4_V1.26.2/Middlewares/Third_Party/LwIP/src/core/ipv4\ip4.c ****         (ip4_addr_ismulticast(ip4_current_src_addr()))) {
 616              		.loc 1 604 5 is_stmt 1 view .LVU216
 604:c:/Users/Black_Life/STM32Cube/Repository/STM32Cube_FW_F4_V1.26.2/Middlewares/Third_Party/LwIP/src/core/ipv4\ip4.c ****         (ip4_addr_ismulticast(ip4_current_src_addr()))) {
 617              		.loc 1 604 10 is_stmt 0 view .LVU217
 618 014c 3946     		mov	r1, r7
 619 014e FFF7FEFF 		bl	ip4_addr_isbroadcast_u32
 620              	.LVL48:
 604:c:/Users/Black_Life/STM32Cube/Repository/STM32Cube_FW_F4_V1.26.2/Middlewares/Third_Party/LwIP/src/core/ipv4\ip4.c ****         (ip4_addr_ismulticast(ip4_current_src_addr()))) {
 621              		.loc 1 604 8 view .LVU218
 622 0152 28B9     		cbnz	r0, .L47
 605:c:/Users/Black_Life/STM32Cube/Repository/STM32Cube_FW_F4_V1.26.2/Middlewares/Third_Party/LwIP/src/core/ipv4\ip4.c ****       /* packet source is not valid */
 623              		.loc 1 605 10 discriminator 1 view .LVU219
 624 0154 164B     		ldr	r3, .L69
 625 0156 1B69     		ldr	r3, [r3, #16]
 626 0158 03F0F003 		and	r3, r3, #240
 604:c:/Users/Black_Life/STM32Cube/Repository/STM32Cube_FW_F4_V1.26.2/Middlewares/Third_Party/LwIP/src/core/ipv4\ip4.c ****         (ip4_addr_ismulticast(ip4_current_src_addr()))) {
 627              		.loc 1 604 61 discriminator 1 view .LVU220
 628 015c E02B     		cmp	r3, #224
 629 015e B4D1     		bne	.L46
 630              	.L47:
 607:c:/Users/Black_Life/STM32Cube/Repository/STM32Cube_FW_F4_V1.26.2/Middlewares/Third_Party/LwIP/src/core/ipv4\ip4.c ****       /* free (drop) packet pbufs */
 631              		.loc 1 607 116 is_stmt 1 view .LVU221
 609:c:/Users/Black_Life/STM32Cube/Repository/STM32Cube_FW_F4_V1.26.2/Middlewares/Third_Party/LwIP/src/core/ipv4\ip4.c ****       IP_STATS_INC(ip.drop);
 632              		.loc 1 609 7 view .LVU222
 633 0160 2046     		mov	r0, r4
 634 0162 FFF7FEFF 		bl	pbuf_free
 635              	.LVL49:
 610:c:/Users/Black_Life/STM32Cube/Repository/STM32Cube_FW_F4_V1.26.2/Middlewares/Third_Party/LwIP/src/core/ipv4\ip4.c ****       MIB2_STATS_INC(mib2.ipinaddrerrors);
 636              		.loc 1 610 28 view .LVU223
 611:c:/Users/Black_Life/STM32Cube/Repository/STM32Cube_FW_F4_V1.26.2/Middlewares/Third_Party/LwIP/src/core/ipv4\ip4.c ****       MIB2_STATS_INC(mib2.ipindiscards);
 637              		.loc 1 611 42 view .LVU224
 612:c:/Users/Black_Life/STM32Cube/Repository/STM32Cube_FW_F4_V1.26.2/Middlewares/Third_Party/LwIP/src/core/ipv4\ip4.c ****       return ERR_OK;
 638              		.loc 1 612 40 view .LVU225
 613:c:/Users/Black_Life/STM32Cube/Repository/STM32Cube_FW_F4_V1.26.2/Middlewares/Third_Party/LwIP/src/core/ipv4\ip4.c ****     }
 639              		.loc 1 613 7 view .LVU226
 613:c:/Users/Black_Life/STM32Cube/Repository/STM32Cube_FW_F4_V1.26.2/Middlewares/Third_Party/LwIP/src/core/ipv4\ip4.c ****     }
 640              		.loc 1 613 14 is_stmt 0 view .LVU227
 641 0166 57E7     		b	.L35
 642              	.L66:
 620:c:/Users/Black_Life/STM32Cube/Repository/STM32Cube_FW_F4_V1.26.2/Middlewares/Third_Party/LwIP/src/core/ipv4\ip4.c **** #if IP_FORWARD
 643              		.loc 1 620 80 is_stmt 1 view .LVU228
 629:c:/Users/Black_Life/STM32Cube/Repository/STM32Cube_FW_F4_V1.26.2/Middlewares/Third_Party/LwIP/src/core/ipv4\ip4.c ****       MIB2_STATS_INC(mib2.ipinaddrerrors);
 644              		.loc 1 629 28 view .LVU229
 630:c:/Users/Black_Life/STM32Cube/Repository/STM32Cube_FW_F4_V1.26.2/Middlewares/Third_Party/LwIP/src/core/ipv4\ip4.c ****       MIB2_STATS_INC(mib2.ipindiscards);
 645              		.loc 1 630 42 view .LVU230
 631:c:/Users/Black_Life/STM32Cube/Repository/STM32Cube_FW_F4_V1.26.2/Middlewares/Third_Party/LwIP/src/core/ipv4\ip4.c ****     }
 646              		.loc 1 631 40 view .LVU231
 633:c:/Users/Black_Life/STM32Cube/Repository/STM32Cube_FW_F4_V1.26.2/Middlewares/Third_Party/LwIP/src/core/ipv4\ip4.c ****     return ERR_OK;
 647              		.loc 1 633 5 view .LVU232
 648 0168 2046     		mov	r0, r4
 649 016a FFF7FEFF 		bl	pbuf_free
ARM GAS  C:\Users\BLACK_~1\AppData\Local\Temp\cct9trHa.s 			page 29


 650              	.LVL50:
 634:c:/Users/Black_Life/STM32Cube/Repository/STM32Cube_FW_F4_V1.26.2/Middlewares/Third_Party/LwIP/src/core/ipv4\ip4.c ****   }
 651              		.loc 1 634 5 view .LVU233
 634:c:/Users/Black_Life/STM32Cube/Repository/STM32Cube_FW_F4_V1.26.2/Middlewares/Third_Party/LwIP/src/core/ipv4\ip4.c ****   }
 652              		.loc 1 634 12 is_stmt 0 view .LVU234
 653 016e 53E7     		b	.L35
 654              	.L51:
 702:c:/Users/Black_Life/STM32Cube/Repository/STM32Cube_FW_F4_V1.26.2/Middlewares/Third_Party/LwIP/src/core/ipv4\ip4.c ****         udp_input(p, inp);
 655              		.loc 1 702 42 is_stmt 1 view .LVU235
 703:c:/Users/Black_Life/STM32Cube/Repository/STM32Cube_FW_F4_V1.26.2/Middlewares/Third_Party/LwIP/src/core/ipv4\ip4.c ****         break;
 656              		.loc 1 703 9 view .LVU236
 657 0170 3946     		mov	r1, r7
 658 0172 2046     		mov	r0, r4
 659 0174 FFF7FEFF 		bl	udp_input
 660              	.LVL51:
 704:c:/Users/Black_Life/STM32Cube/Repository/STM32Cube_FW_F4_V1.26.2/Middlewares/Third_Party/LwIP/src/core/ipv4\ip4.c **** #endif /* LWIP_UDP */
 661              		.loc 1 704 9 view .LVU237
 662              	.L54:
 751:c:/Users/Black_Life/STM32Cube/Repository/STM32Cube_FW_F4_V1.26.2/Middlewares/Third_Party/LwIP/src/core/ipv4\ip4.c ****   ip_data.current_input_netif = NULL;
 663              		.loc 1 751 3 view .LVU238
 751:c:/Users/Black_Life/STM32Cube/Repository/STM32Cube_FW_F4_V1.26.2/Middlewares/Third_Party/LwIP/src/core/ipv4\ip4.c ****   ip_data.current_input_netif = NULL;
 664              		.loc 1 751 25 is_stmt 0 view .LVU239
 665 0178 0D4B     		ldr	r3, .L69
 666 017a 0022     		movs	r2, #0
 667 017c 1A60     		str	r2, [r3]
 752:c:/Users/Black_Life/STM32Cube/Repository/STM32Cube_FW_F4_V1.26.2/Middlewares/Third_Party/LwIP/src/core/ipv4\ip4.c ****   ip_data.current_ip4_header = NULL;
 668              		.loc 1 752 3 is_stmt 1 view .LVU240
 752:c:/Users/Black_Life/STM32Cube/Repository/STM32Cube_FW_F4_V1.26.2/Middlewares/Third_Party/LwIP/src/core/ipv4\ip4.c ****   ip_data.current_ip4_header = NULL;
 669              		.loc 1 752 31 is_stmt 0 view .LVU241
 670 017e 5A60     		str	r2, [r3, #4]
 753:c:/Users/Black_Life/STM32Cube/Repository/STM32Cube_FW_F4_V1.26.2/Middlewares/Third_Party/LwIP/src/core/ipv4\ip4.c ****   ip_data.current_ip_header_tot_len = 0;
 671              		.loc 1 753 3 is_stmt 1 view .LVU242
 753:c:/Users/Black_Life/STM32Cube/Repository/STM32Cube_FW_F4_V1.26.2/Middlewares/Third_Party/LwIP/src/core/ipv4\ip4.c ****   ip_data.current_ip_header_tot_len = 0;
 672              		.loc 1 753 30 is_stmt 0 view .LVU243
 673 0180 9A60     		str	r2, [r3, #8]
 754:c:/Users/Black_Life/STM32Cube/Repository/STM32Cube_FW_F4_V1.26.2/Middlewares/Third_Party/LwIP/src/core/ipv4\ip4.c ****   ip4_addr_set_any(ip4_current_src_addr());
 674              		.loc 1 754 3 is_stmt 1 view .LVU244
 754:c:/Users/Black_Life/STM32Cube/Repository/STM32Cube_FW_F4_V1.26.2/Middlewares/Third_Party/LwIP/src/core/ipv4\ip4.c ****   ip4_addr_set_any(ip4_current_src_addr());
 675              		.loc 1 754 37 is_stmt 0 view .LVU245
 676 0182 9A81     		strh	r2, [r3, #12]	@ movhi
 755:c:/Users/Black_Life/STM32Cube/Repository/STM32Cube_FW_F4_V1.26.2/Middlewares/Third_Party/LwIP/src/core/ipv4\ip4.c ****   ip4_addr_set_any(ip4_current_dest_addr());
 677              		.loc 1 755 3 is_stmt 1 view .LVU246
 678 0184 1A61     		str	r2, [r3, #16]
 756:c:/Users/Black_Life/STM32Cube/Repository/STM32Cube_FW_F4_V1.26.2/Middlewares/Third_Party/LwIP/src/core/ipv4\ip4.c **** 
 679              		.loc 1 756 3 view .LVU247
 680 0186 5A61     		str	r2, [r3, #20]
 758:c:/Users/Black_Life/STM32Cube/Repository/STM32Cube_FW_F4_V1.26.2/Middlewares/Third_Party/LwIP/src/core/ipv4\ip4.c **** }
 681              		.loc 1 758 3 view .LVU248
 758:c:/Users/Black_Life/STM32Cube/Repository/STM32Cube_FW_F4_V1.26.2/Middlewares/Third_Party/LwIP/src/core/ipv4\ip4.c **** }
 682              		.loc 1 758 10 is_stmt 0 view .LVU249
 683 0188 46E7     		b	.L35
 684              	.L50:
 708:c:/Users/Black_Life/STM32Cube/Repository/STM32Cube_FW_F4_V1.26.2/Middlewares/Third_Party/LwIP/src/core/ipv4\ip4.c ****         tcp_input(p, inp);
 685              		.loc 1 708 42 is_stmt 1 view .LVU250
 709:c:/Users/Black_Life/STM32Cube/Repository/STM32Cube_FW_F4_V1.26.2/Middlewares/Third_Party/LwIP/src/core/ipv4\ip4.c ****         break;
 686              		.loc 1 709 9 view .LVU251
 687 018a 3946     		mov	r1, r7
ARM GAS  C:\Users\BLACK_~1\AppData\Local\Temp\cct9trHa.s 			page 30


 688 018c 2046     		mov	r0, r4
 689 018e FFF7FEFF 		bl	tcp_input
 690              	.LVL52:
 710:c:/Users/Black_Life/STM32Cube/Repository/STM32Cube_FW_F4_V1.26.2/Middlewares/Third_Party/LwIP/src/core/ipv4\ip4.c **** #endif /* LWIP_TCP */
 691              		.loc 1 710 9 view .LVU252
 692 0192 F1E7     		b	.L54
 693              	.L67:
 714:c:/Users/Black_Life/STM32Cube/Repository/STM32Cube_FW_F4_V1.26.2/Middlewares/Third_Party/LwIP/src/core/ipv4\ip4.c ****         icmp_input(p, inp);
 694              		.loc 1 714 42 view .LVU253
 715:c:/Users/Black_Life/STM32Cube/Repository/STM32Cube_FW_F4_V1.26.2/Middlewares/Third_Party/LwIP/src/core/ipv4\ip4.c ****         break;
 695              		.loc 1 715 9 view .LVU254
 696 0194 3946     		mov	r1, r7
 697 0196 2046     		mov	r0, r4
 698 0198 FFF7FEFF 		bl	icmp_input
 699              	.LVL53:
 716:c:/Users/Black_Life/STM32Cube/Repository/STM32Cube_FW_F4_V1.26.2/Middlewares/Third_Party/LwIP/src/core/ipv4\ip4.c **** #endif /* LWIP_ICMP */
 700              		.loc 1 716 9 view .LVU255
 701 019c ECE7     		b	.L54
 702              	.L68:
 734:c:/Users/Black_Life/STM32Cube/Repository/STM32Cube_FW_F4_V1.26.2/Middlewares/Third_Party/LwIP/src/core/ipv4\ip4.c ****             icmp_dest_unreach(p, ICMP_DUR_PROTO);
 703              		.loc 1 734 13 view .LVU256
 704 019e 4946     		mov	r1, r9
 705 01a0 2046     		mov	r0, r4
 706 01a2 FFF7FEFF 		bl	pbuf_header_force
 707              	.LVL54:
 735:c:/Users/Black_Life/STM32Cube/Repository/STM32Cube_FW_F4_V1.26.2/Middlewares/Third_Party/LwIP/src/core/ipv4\ip4.c ****           }
 708              		.loc 1 735 13 view .LVU257
 709 01a6 0221     		movs	r1, #2
 710 01a8 2046     		mov	r0, r4
 711 01aa FFF7FEFF 		bl	icmp_dest_unreach
 712              	.LVL55:
 713 01ae BFE7     		b	.L55
 714              	.L70:
 715              		.align	2
 716              	.L69:
 717 01b0 00000000 		.word	ip_data
 718 01b4 00000000 		.word	netif_list
 719              		.cfi_endproc
 720              	.LFE158:
 722              		.section	.rodata.ip4_output_if_src.str1.4,"aMS",%progbits,1
 723              		.align	2
 724              	.LC0:
 725 0000 633A2F55 		.ascii	"c:/Users/Black_Life/STM32Cube/Repository/STM32Cube_"
 725      73657273 
 725      2F426C61 
 725      636B5F4C 
 725      6966652F 
 726 0033 46575F46 		.ascii	"FW_F4_V1.26.2/Middlewares/Third_Party/LwIP/src/core"
 726      345F5631 
 726      2E32362E 
 726      322F4D69 
 726      64646C65 
 727 0066 2F697076 		.ascii	"/ipv4/ip4.c\000"
 727      342F6970 
 727      342E6300 
 728 0072 0000     		.align	2
 729              	.LC1:
ARM GAS  C:\Users\BLACK_~1\AppData\Local\Temp\cct9trHa.s 			page 31


 730 0074 702D3E72 		.ascii	"p->ref == 1\000"
 730      6566203D 
 730      3D203100 
 731              		.align	2
 732              	.LC2:
 733 0080 41737365 		.ascii	"Assertion \"%s\" failed at line %d in %s\012\000"
 733      7274696F 
 733      6E202225 
 733      73222066 
 733      61696C65 
 734              		.align	2
 735              	.LC3:
 736 00a8 63686563 		.ascii	"check that first pbuf can hold struct ip_hdr\000"
 736      6B207468 
 736      61742066 
 736      69727374 
 736      20706275 
 737              		.section	.text.ip4_output_if_src,"ax",%progbits
 738              		.align	1
 739              		.global	ip4_output_if_src
 740              		.syntax unified
 741              		.thumb
 742              		.thumb_func
 744              	ip4_output_if_src:
 745              	.LVL56:
 746              	.LFB160:
 760:c:/Users/Black_Life/STM32Cube/Repository/STM32Cube_FW_F4_V1.26.2/Middlewares/Third_Party/LwIP/src/core/ipv4\ip4.c **** 
 761:c:/Users/Black_Life/STM32Cube/Repository/STM32Cube_FW_F4_V1.26.2/Middlewares/Third_Party/LwIP/src/core/ipv4\ip4.c **** /**
 762:c:/Users/Black_Life/STM32Cube/Repository/STM32Cube_FW_F4_V1.26.2/Middlewares/Third_Party/LwIP/src/core/ipv4\ip4.c ****  * Sends an IP packet on a network interface. This function constructs
 763:c:/Users/Black_Life/STM32Cube/Repository/STM32Cube_FW_F4_V1.26.2/Middlewares/Third_Party/LwIP/src/core/ipv4\ip4.c ****  * the IP header and calculates the IP header checksum. If the source
 764:c:/Users/Black_Life/STM32Cube/Repository/STM32Cube_FW_F4_V1.26.2/Middlewares/Third_Party/LwIP/src/core/ipv4\ip4.c ****  * IP address is NULL, the IP address of the outgoing network
 765:c:/Users/Black_Life/STM32Cube/Repository/STM32Cube_FW_F4_V1.26.2/Middlewares/Third_Party/LwIP/src/core/ipv4\ip4.c ****  * interface is filled in as source address.
 766:c:/Users/Black_Life/STM32Cube/Repository/STM32Cube_FW_F4_V1.26.2/Middlewares/Third_Party/LwIP/src/core/ipv4\ip4.c ****  * If the destination IP address is LWIP_IP_HDRINCL, p is assumed to already
 767:c:/Users/Black_Life/STM32Cube/Repository/STM32Cube_FW_F4_V1.26.2/Middlewares/Third_Party/LwIP/src/core/ipv4\ip4.c ****  * include an IP header and p->payload points to it instead of the data.
 768:c:/Users/Black_Life/STM32Cube/Repository/STM32Cube_FW_F4_V1.26.2/Middlewares/Third_Party/LwIP/src/core/ipv4\ip4.c ****  *
 769:c:/Users/Black_Life/STM32Cube/Repository/STM32Cube_FW_F4_V1.26.2/Middlewares/Third_Party/LwIP/src/core/ipv4\ip4.c ****  * @param p the packet to send (p->payload points to the data, e.g. next
 770:c:/Users/Black_Life/STM32Cube/Repository/STM32Cube_FW_F4_V1.26.2/Middlewares/Third_Party/LwIP/src/core/ipv4\ip4.c ****             protocol header; if dest == LWIP_IP_HDRINCL, p already includes an
 771:c:/Users/Black_Life/STM32Cube/Repository/STM32Cube_FW_F4_V1.26.2/Middlewares/Third_Party/LwIP/src/core/ipv4\ip4.c ****             IP header and p->payload points to that IP header)
 772:c:/Users/Black_Life/STM32Cube/Repository/STM32Cube_FW_F4_V1.26.2/Middlewares/Third_Party/LwIP/src/core/ipv4\ip4.c ****  * @param src the source IP address to send from (if src == IP4_ADDR_ANY, the
 773:c:/Users/Black_Life/STM32Cube/Repository/STM32Cube_FW_F4_V1.26.2/Middlewares/Third_Party/LwIP/src/core/ipv4\ip4.c ****  *         IP  address of the netif used to send is used as source address)
 774:c:/Users/Black_Life/STM32Cube/Repository/STM32Cube_FW_F4_V1.26.2/Middlewares/Third_Party/LwIP/src/core/ipv4\ip4.c ****  * @param dest the destination IP address to send the packet to
 775:c:/Users/Black_Life/STM32Cube/Repository/STM32Cube_FW_F4_V1.26.2/Middlewares/Third_Party/LwIP/src/core/ipv4\ip4.c ****  * @param ttl the TTL value to be set in the IP header
 776:c:/Users/Black_Life/STM32Cube/Repository/STM32Cube_FW_F4_V1.26.2/Middlewares/Third_Party/LwIP/src/core/ipv4\ip4.c ****  * @param tos the TOS value to be set in the IP header
 777:c:/Users/Black_Life/STM32Cube/Repository/STM32Cube_FW_F4_V1.26.2/Middlewares/Third_Party/LwIP/src/core/ipv4\ip4.c ****  * @param proto the PROTOCOL to be set in the IP header
 778:c:/Users/Black_Life/STM32Cube/Repository/STM32Cube_FW_F4_V1.26.2/Middlewares/Third_Party/LwIP/src/core/ipv4\ip4.c ****  * @param netif the netif on which to send this packet
 779:c:/Users/Black_Life/STM32Cube/Repository/STM32Cube_FW_F4_V1.26.2/Middlewares/Third_Party/LwIP/src/core/ipv4\ip4.c ****  * @return ERR_OK if the packet was sent OK
 780:c:/Users/Black_Life/STM32Cube/Repository/STM32Cube_FW_F4_V1.26.2/Middlewares/Third_Party/LwIP/src/core/ipv4\ip4.c ****  *         ERR_BUF if p doesn't have enough space for IP/LINK headers
 781:c:/Users/Black_Life/STM32Cube/Repository/STM32Cube_FW_F4_V1.26.2/Middlewares/Third_Party/LwIP/src/core/ipv4\ip4.c ****  *         returns errors returned by netif->output
 782:c:/Users/Black_Life/STM32Cube/Repository/STM32Cube_FW_F4_V1.26.2/Middlewares/Third_Party/LwIP/src/core/ipv4\ip4.c ****  *
 783:c:/Users/Black_Life/STM32Cube/Repository/STM32Cube_FW_F4_V1.26.2/Middlewares/Third_Party/LwIP/src/core/ipv4\ip4.c ****  * @note ip_id: RFC791 "some host may be able to simply use
 784:c:/Users/Black_Life/STM32Cube/Repository/STM32Cube_FW_F4_V1.26.2/Middlewares/Third_Party/LwIP/src/core/ipv4\ip4.c ****  *  unique identifiers independent of destination"
 785:c:/Users/Black_Life/STM32Cube/Repository/STM32Cube_FW_F4_V1.26.2/Middlewares/Third_Party/LwIP/src/core/ipv4\ip4.c ****  */
 786:c:/Users/Black_Life/STM32Cube/Repository/STM32Cube_FW_F4_V1.26.2/Middlewares/Third_Party/LwIP/src/core/ipv4\ip4.c **** err_t
 787:c:/Users/Black_Life/STM32Cube/Repository/STM32Cube_FW_F4_V1.26.2/Middlewares/Third_Party/LwIP/src/core/ipv4\ip4.c **** ip4_output_if(struct pbuf *p, const ip4_addr_t *src, const ip4_addr_t *dest,
 788:c:/Users/Black_Life/STM32Cube/Repository/STM32Cube_FW_F4_V1.26.2/Middlewares/Third_Party/LwIP/src/core/ipv4\ip4.c ****               u8_t ttl, u8_t tos,
 789:c:/Users/Black_Life/STM32Cube/Repository/STM32Cube_FW_F4_V1.26.2/Middlewares/Third_Party/LwIP/src/core/ipv4\ip4.c ****               u8_t proto, struct netif *netif)
 790:c:/Users/Black_Life/STM32Cube/Repository/STM32Cube_FW_F4_V1.26.2/Middlewares/Third_Party/LwIP/src/core/ipv4\ip4.c **** {
ARM GAS  C:\Users\BLACK_~1\AppData\Local\Temp\cct9trHa.s 			page 32


 791:c:/Users/Black_Life/STM32Cube/Repository/STM32Cube_FW_F4_V1.26.2/Middlewares/Third_Party/LwIP/src/core/ipv4\ip4.c **** #if IP_OPTIONS_SEND
 792:c:/Users/Black_Life/STM32Cube/Repository/STM32Cube_FW_F4_V1.26.2/Middlewares/Third_Party/LwIP/src/core/ipv4\ip4.c ****   return ip4_output_if_opt(p, src, dest, ttl, tos, proto, netif, NULL, 0);
 793:c:/Users/Black_Life/STM32Cube/Repository/STM32Cube_FW_F4_V1.26.2/Middlewares/Third_Party/LwIP/src/core/ipv4\ip4.c **** }
 794:c:/Users/Black_Life/STM32Cube/Repository/STM32Cube_FW_F4_V1.26.2/Middlewares/Third_Party/LwIP/src/core/ipv4\ip4.c **** 
 795:c:/Users/Black_Life/STM32Cube/Repository/STM32Cube_FW_F4_V1.26.2/Middlewares/Third_Party/LwIP/src/core/ipv4\ip4.c **** /**
 796:c:/Users/Black_Life/STM32Cube/Repository/STM32Cube_FW_F4_V1.26.2/Middlewares/Third_Party/LwIP/src/core/ipv4\ip4.c ****  * Same as ip_output_if() but with the possibility to include IP options:
 797:c:/Users/Black_Life/STM32Cube/Repository/STM32Cube_FW_F4_V1.26.2/Middlewares/Third_Party/LwIP/src/core/ipv4\ip4.c ****  *
 798:c:/Users/Black_Life/STM32Cube/Repository/STM32Cube_FW_F4_V1.26.2/Middlewares/Third_Party/LwIP/src/core/ipv4\ip4.c ****  * @ param ip_options pointer to the IP options, copied into the IP header
 799:c:/Users/Black_Life/STM32Cube/Repository/STM32Cube_FW_F4_V1.26.2/Middlewares/Third_Party/LwIP/src/core/ipv4\ip4.c ****  * @ param optlen length of ip_options
 800:c:/Users/Black_Life/STM32Cube/Repository/STM32Cube_FW_F4_V1.26.2/Middlewares/Third_Party/LwIP/src/core/ipv4\ip4.c ****  */
 801:c:/Users/Black_Life/STM32Cube/Repository/STM32Cube_FW_F4_V1.26.2/Middlewares/Third_Party/LwIP/src/core/ipv4\ip4.c **** err_t
 802:c:/Users/Black_Life/STM32Cube/Repository/STM32Cube_FW_F4_V1.26.2/Middlewares/Third_Party/LwIP/src/core/ipv4\ip4.c **** ip4_output_if_opt(struct pbuf *p, const ip4_addr_t *src, const ip4_addr_t *dest,
 803:c:/Users/Black_Life/STM32Cube/Repository/STM32Cube_FW_F4_V1.26.2/Middlewares/Third_Party/LwIP/src/core/ipv4\ip4.c ****                   u8_t ttl, u8_t tos, u8_t proto, struct netif *netif, void *ip_options,
 804:c:/Users/Black_Life/STM32Cube/Repository/STM32Cube_FW_F4_V1.26.2/Middlewares/Third_Party/LwIP/src/core/ipv4\ip4.c ****                   u16_t optlen)
 805:c:/Users/Black_Life/STM32Cube/Repository/STM32Cube_FW_F4_V1.26.2/Middlewares/Third_Party/LwIP/src/core/ipv4\ip4.c **** {
 806:c:/Users/Black_Life/STM32Cube/Repository/STM32Cube_FW_F4_V1.26.2/Middlewares/Third_Party/LwIP/src/core/ipv4\ip4.c **** #endif /* IP_OPTIONS_SEND */
 807:c:/Users/Black_Life/STM32Cube/Repository/STM32Cube_FW_F4_V1.26.2/Middlewares/Third_Party/LwIP/src/core/ipv4\ip4.c ****   const ip4_addr_t *src_used = src;
 808:c:/Users/Black_Life/STM32Cube/Repository/STM32Cube_FW_F4_V1.26.2/Middlewares/Third_Party/LwIP/src/core/ipv4\ip4.c ****   if (dest != LWIP_IP_HDRINCL) {
 809:c:/Users/Black_Life/STM32Cube/Repository/STM32Cube_FW_F4_V1.26.2/Middlewares/Third_Party/LwIP/src/core/ipv4\ip4.c ****     if (ip4_addr_isany(src)) {
 810:c:/Users/Black_Life/STM32Cube/Repository/STM32Cube_FW_F4_V1.26.2/Middlewares/Third_Party/LwIP/src/core/ipv4\ip4.c ****       src_used = netif_ip4_addr(netif);
 811:c:/Users/Black_Life/STM32Cube/Repository/STM32Cube_FW_F4_V1.26.2/Middlewares/Third_Party/LwIP/src/core/ipv4\ip4.c ****     }
 812:c:/Users/Black_Life/STM32Cube/Repository/STM32Cube_FW_F4_V1.26.2/Middlewares/Third_Party/LwIP/src/core/ipv4\ip4.c ****   }
 813:c:/Users/Black_Life/STM32Cube/Repository/STM32Cube_FW_F4_V1.26.2/Middlewares/Third_Party/LwIP/src/core/ipv4\ip4.c **** 
 814:c:/Users/Black_Life/STM32Cube/Repository/STM32Cube_FW_F4_V1.26.2/Middlewares/Third_Party/LwIP/src/core/ipv4\ip4.c **** #if IP_OPTIONS_SEND
 815:c:/Users/Black_Life/STM32Cube/Repository/STM32Cube_FW_F4_V1.26.2/Middlewares/Third_Party/LwIP/src/core/ipv4\ip4.c ****   return ip4_output_if_opt_src(p, src_used, dest, ttl, tos, proto, netif,
 816:c:/Users/Black_Life/STM32Cube/Repository/STM32Cube_FW_F4_V1.26.2/Middlewares/Third_Party/LwIP/src/core/ipv4\ip4.c ****                                ip_options, optlen);
 817:c:/Users/Black_Life/STM32Cube/Repository/STM32Cube_FW_F4_V1.26.2/Middlewares/Third_Party/LwIP/src/core/ipv4\ip4.c **** #else /* IP_OPTIONS_SEND */
 818:c:/Users/Black_Life/STM32Cube/Repository/STM32Cube_FW_F4_V1.26.2/Middlewares/Third_Party/LwIP/src/core/ipv4\ip4.c ****   return ip4_output_if_src(p, src_used, dest, ttl, tos, proto, netif);
 819:c:/Users/Black_Life/STM32Cube/Repository/STM32Cube_FW_F4_V1.26.2/Middlewares/Third_Party/LwIP/src/core/ipv4\ip4.c **** #endif /* IP_OPTIONS_SEND */
 820:c:/Users/Black_Life/STM32Cube/Repository/STM32Cube_FW_F4_V1.26.2/Middlewares/Third_Party/LwIP/src/core/ipv4\ip4.c **** }
 821:c:/Users/Black_Life/STM32Cube/Repository/STM32Cube_FW_F4_V1.26.2/Middlewares/Third_Party/LwIP/src/core/ipv4\ip4.c **** 
 822:c:/Users/Black_Life/STM32Cube/Repository/STM32Cube_FW_F4_V1.26.2/Middlewares/Third_Party/LwIP/src/core/ipv4\ip4.c **** /**
 823:c:/Users/Black_Life/STM32Cube/Repository/STM32Cube_FW_F4_V1.26.2/Middlewares/Third_Party/LwIP/src/core/ipv4\ip4.c ****  * Same as ip_output_if() but 'src' address is not replaced by netif address
 824:c:/Users/Black_Life/STM32Cube/Repository/STM32Cube_FW_F4_V1.26.2/Middlewares/Third_Party/LwIP/src/core/ipv4\ip4.c ****  * when it is 'any'.
 825:c:/Users/Black_Life/STM32Cube/Repository/STM32Cube_FW_F4_V1.26.2/Middlewares/Third_Party/LwIP/src/core/ipv4\ip4.c ****  */
 826:c:/Users/Black_Life/STM32Cube/Repository/STM32Cube_FW_F4_V1.26.2/Middlewares/Third_Party/LwIP/src/core/ipv4\ip4.c **** err_t
 827:c:/Users/Black_Life/STM32Cube/Repository/STM32Cube_FW_F4_V1.26.2/Middlewares/Third_Party/LwIP/src/core/ipv4\ip4.c **** ip4_output_if_src(struct pbuf *p, const ip4_addr_t *src, const ip4_addr_t *dest,
 828:c:/Users/Black_Life/STM32Cube/Repository/STM32Cube_FW_F4_V1.26.2/Middlewares/Third_Party/LwIP/src/core/ipv4\ip4.c ****                   u8_t ttl, u8_t tos,
 829:c:/Users/Black_Life/STM32Cube/Repository/STM32Cube_FW_F4_V1.26.2/Middlewares/Third_Party/LwIP/src/core/ipv4\ip4.c ****                   u8_t proto, struct netif *netif)
 830:c:/Users/Black_Life/STM32Cube/Repository/STM32Cube_FW_F4_V1.26.2/Middlewares/Third_Party/LwIP/src/core/ipv4\ip4.c **** {
 747              		.loc 1 830 1 view -0
 748              		.cfi_startproc
 749              		@ args = 12, pretend = 0, frame = 8
 750              		@ frame_needed = 0, uses_anonymous_args = 0
 751              		.loc 1 830 1 is_stmt 0 view .LVU259
 752 0000 2DE9F043 		push	{r4, r5, r6, r7, r8, r9, lr}
 753              	.LCFI6:
 754              		.cfi_def_cfa_offset 28
 755              		.cfi_offset 4, -28
 756              		.cfi_offset 5, -24
 757              		.cfi_offset 6, -20
 758              		.cfi_offset 7, -16
 759              		.cfi_offset 8, -12
 760              		.cfi_offset 9, -8
 761              		.cfi_offset 14, -4
 762 0004 83B0     		sub	sp, sp, #12
 763              	.LCFI7:
ARM GAS  C:\Users\BLACK_~1\AppData\Local\Temp\cct9trHa.s 			page 33


 764              		.cfi_def_cfa_offset 40
 765 0006 0446     		mov	r4, r0
 766 0008 0F46     		mov	r7, r1
 767 000a 1646     		mov	r6, r2
 768 000c 9946     		mov	r9, r3
 769 000e DDF83080 		ldr	r8, [sp, #48]
 831:c:/Users/Black_Life/STM32Cube/Repository/STM32Cube_FW_F4_V1.26.2/Middlewares/Third_Party/LwIP/src/core/ipv4\ip4.c **** #if IP_OPTIONS_SEND
 832:c:/Users/Black_Life/STM32Cube/Repository/STM32Cube_FW_F4_V1.26.2/Middlewares/Third_Party/LwIP/src/core/ipv4\ip4.c ****   return ip4_output_if_opt_src(p, src, dest, ttl, tos, proto, netif, NULL, 0);
 833:c:/Users/Black_Life/STM32Cube/Repository/STM32Cube_FW_F4_V1.26.2/Middlewares/Third_Party/LwIP/src/core/ipv4\ip4.c **** }
 834:c:/Users/Black_Life/STM32Cube/Repository/STM32Cube_FW_F4_V1.26.2/Middlewares/Third_Party/LwIP/src/core/ipv4\ip4.c **** 
 835:c:/Users/Black_Life/STM32Cube/Repository/STM32Cube_FW_F4_V1.26.2/Middlewares/Third_Party/LwIP/src/core/ipv4\ip4.c **** /**
 836:c:/Users/Black_Life/STM32Cube/Repository/STM32Cube_FW_F4_V1.26.2/Middlewares/Third_Party/LwIP/src/core/ipv4\ip4.c ****  * Same as ip_output_if_opt() but 'src' address is not replaced by netif address
 837:c:/Users/Black_Life/STM32Cube/Repository/STM32Cube_FW_F4_V1.26.2/Middlewares/Third_Party/LwIP/src/core/ipv4\ip4.c ****  * when it is 'any'.
 838:c:/Users/Black_Life/STM32Cube/Repository/STM32Cube_FW_F4_V1.26.2/Middlewares/Third_Party/LwIP/src/core/ipv4\ip4.c ****  */
 839:c:/Users/Black_Life/STM32Cube/Repository/STM32Cube_FW_F4_V1.26.2/Middlewares/Third_Party/LwIP/src/core/ipv4\ip4.c **** err_t
 840:c:/Users/Black_Life/STM32Cube/Repository/STM32Cube_FW_F4_V1.26.2/Middlewares/Third_Party/LwIP/src/core/ipv4\ip4.c **** ip4_output_if_opt_src(struct pbuf *p, const ip4_addr_t *src, const ip4_addr_t *dest,
 841:c:/Users/Black_Life/STM32Cube/Repository/STM32Cube_FW_F4_V1.26.2/Middlewares/Third_Party/LwIP/src/core/ipv4\ip4.c ****                       u8_t ttl, u8_t tos, u8_t proto, struct netif *netif, void *ip_options,
 842:c:/Users/Black_Life/STM32Cube/Repository/STM32Cube_FW_F4_V1.26.2/Middlewares/Third_Party/LwIP/src/core/ipv4\ip4.c ****                       u16_t optlen)
 843:c:/Users/Black_Life/STM32Cube/Repository/STM32Cube_FW_F4_V1.26.2/Middlewares/Third_Party/LwIP/src/core/ipv4\ip4.c **** {
 844:c:/Users/Black_Life/STM32Cube/Repository/STM32Cube_FW_F4_V1.26.2/Middlewares/Third_Party/LwIP/src/core/ipv4\ip4.c **** #endif /* IP_OPTIONS_SEND */
 845:c:/Users/Black_Life/STM32Cube/Repository/STM32Cube_FW_F4_V1.26.2/Middlewares/Third_Party/LwIP/src/core/ipv4\ip4.c ****   struct ip_hdr *iphdr;
 770              		.loc 1 845 3 is_stmt 1 view .LVU260
 846:c:/Users/Black_Life/STM32Cube/Repository/STM32Cube_FW_F4_V1.26.2/Middlewares/Third_Party/LwIP/src/core/ipv4\ip4.c ****   ip4_addr_t dest_addr;
 771              		.loc 1 846 3 view .LVU261
 847:c:/Users/Black_Life/STM32Cube/Repository/STM32Cube_FW_F4_V1.26.2/Middlewares/Third_Party/LwIP/src/core/ipv4\ip4.c **** #if CHECKSUM_GEN_IP_INLINE
 848:c:/Users/Black_Life/STM32Cube/Repository/STM32Cube_FW_F4_V1.26.2/Middlewares/Third_Party/LwIP/src/core/ipv4\ip4.c ****   u32_t chk_sum = 0;
 849:c:/Users/Black_Life/STM32Cube/Repository/STM32Cube_FW_F4_V1.26.2/Middlewares/Third_Party/LwIP/src/core/ipv4\ip4.c **** #endif /* CHECKSUM_GEN_IP_INLINE */
 850:c:/Users/Black_Life/STM32Cube/Repository/STM32Cube_FW_F4_V1.26.2/Middlewares/Third_Party/LwIP/src/core/ipv4\ip4.c **** 
 851:c:/Users/Black_Life/STM32Cube/Repository/STM32Cube_FW_F4_V1.26.2/Middlewares/Third_Party/LwIP/src/core/ipv4\ip4.c ****   LWIP_ASSERT_CORE_LOCKED();
 772              		.loc 1 851 28 view .LVU262
 852:c:/Users/Black_Life/STM32Cube/Repository/STM32Cube_FW_F4_V1.26.2/Middlewares/Third_Party/LwIP/src/core/ipv4\ip4.c ****   LWIP_IP_CHECK_PBUF_REF_COUNT_FOR_TX(p);
 773              		.loc 1 852 3 view .LVU263
 774              		.loc 1 852 3 view .LVU264
 775 0012 827B     		ldrb	r2, [r0, #14]	@ zero_extendqisi2
 776              	.LVL57:
 777              		.loc 1 852 3 is_stmt 0 view .LVU265
 778 0014 012A     		cmp	r2, #1
 779 0016 3FD1     		bne	.L83
 780              	.LVL58:
 781              	.L72:
 782              		.loc 1 852 3 is_stmt 1 discriminator 3 view .LVU266
 783              		.loc 1 852 3 discriminator 3 view .LVU267
 853:c:/Users/Black_Life/STM32Cube/Repository/STM32Cube_FW_F4_V1.26.2/Middlewares/Third_Party/LwIP/src/core/ipv4\ip4.c **** 
 854:c:/Users/Black_Life/STM32Cube/Repository/STM32Cube_FW_F4_V1.26.2/Middlewares/Third_Party/LwIP/src/core/ipv4\ip4.c ****   MIB2_STATS_INC(mib2.ipoutrequests);
 784              		.loc 1 854 37 discriminator 3 view .LVU268
 855:c:/Users/Black_Life/STM32Cube/Repository/STM32Cube_FW_F4_V1.26.2/Middlewares/Third_Party/LwIP/src/core/ipv4\ip4.c **** 
 856:c:/Users/Black_Life/STM32Cube/Repository/STM32Cube_FW_F4_V1.26.2/Middlewares/Third_Party/LwIP/src/core/ipv4\ip4.c ****   /* Should the IP header be generated or is it already included in p? */
 857:c:/Users/Black_Life/STM32Cube/Repository/STM32Cube_FW_F4_V1.26.2/Middlewares/Third_Party/LwIP/src/core/ipv4\ip4.c ****   if (dest != LWIP_IP_HDRINCL) {
 785              		.loc 1 857 3 discriminator 3 view .LVU269
 786              		.loc 1 857 6 is_stmt 0 discriminator 3 view .LVU270
 787 0018 002E     		cmp	r6, #0
 788 001a 51D0     		beq	.L73
 789              	.LBB3:
 858:c:/Users/Black_Life/STM32Cube/Repository/STM32Cube_FW_F4_V1.26.2/Middlewares/Third_Party/LwIP/src/core/ipv4\ip4.c ****     u16_t ip_hlen = IP_HLEN;
 790              		.loc 1 858 5 is_stmt 1 view .LVU271
 791              	.LVL59:
 859:c:/Users/Black_Life/STM32Cube/Repository/STM32Cube_FW_F4_V1.26.2/Middlewares/Third_Party/LwIP/src/core/ipv4\ip4.c **** #if IP_OPTIONS_SEND
ARM GAS  C:\Users\BLACK_~1\AppData\Local\Temp\cct9trHa.s 			page 34


 860:c:/Users/Black_Life/STM32Cube/Repository/STM32Cube_FW_F4_V1.26.2/Middlewares/Third_Party/LwIP/src/core/ipv4\ip4.c ****     u16_t optlen_aligned = 0;
 861:c:/Users/Black_Life/STM32Cube/Repository/STM32Cube_FW_F4_V1.26.2/Middlewares/Third_Party/LwIP/src/core/ipv4\ip4.c ****     if (optlen != 0) {
 862:c:/Users/Black_Life/STM32Cube/Repository/STM32Cube_FW_F4_V1.26.2/Middlewares/Third_Party/LwIP/src/core/ipv4\ip4.c **** #if CHECKSUM_GEN_IP_INLINE
 863:c:/Users/Black_Life/STM32Cube/Repository/STM32Cube_FW_F4_V1.26.2/Middlewares/Third_Party/LwIP/src/core/ipv4\ip4.c ****       int i;
 864:c:/Users/Black_Life/STM32Cube/Repository/STM32Cube_FW_F4_V1.26.2/Middlewares/Third_Party/LwIP/src/core/ipv4\ip4.c **** #endif /* CHECKSUM_GEN_IP_INLINE */
 865:c:/Users/Black_Life/STM32Cube/Repository/STM32Cube_FW_F4_V1.26.2/Middlewares/Third_Party/LwIP/src/core/ipv4\ip4.c ****       if (optlen > (IP_HLEN_MAX - IP_HLEN)) {
 866:c:/Users/Black_Life/STM32Cube/Repository/STM32Cube_FW_F4_V1.26.2/Middlewares/Third_Party/LwIP/src/core/ipv4\ip4.c ****         /* optlen too long */
 867:c:/Users/Black_Life/STM32Cube/Repository/STM32Cube_FW_F4_V1.26.2/Middlewares/Third_Party/LwIP/src/core/ipv4\ip4.c ****         LWIP_DEBUGF(IP_DEBUG | LWIP_DBG_LEVEL_SERIOUS, ("ip4_output_if_opt: optlen too long\n"));
 868:c:/Users/Black_Life/STM32Cube/Repository/STM32Cube_FW_F4_V1.26.2/Middlewares/Third_Party/LwIP/src/core/ipv4\ip4.c ****         IP_STATS_INC(ip.err);
 869:c:/Users/Black_Life/STM32Cube/Repository/STM32Cube_FW_F4_V1.26.2/Middlewares/Third_Party/LwIP/src/core/ipv4\ip4.c ****         MIB2_STATS_INC(mib2.ipoutdiscards);
 870:c:/Users/Black_Life/STM32Cube/Repository/STM32Cube_FW_F4_V1.26.2/Middlewares/Third_Party/LwIP/src/core/ipv4\ip4.c ****         return ERR_VAL;
 871:c:/Users/Black_Life/STM32Cube/Repository/STM32Cube_FW_F4_V1.26.2/Middlewares/Third_Party/LwIP/src/core/ipv4\ip4.c ****       }
 872:c:/Users/Black_Life/STM32Cube/Repository/STM32Cube_FW_F4_V1.26.2/Middlewares/Third_Party/LwIP/src/core/ipv4\ip4.c ****       /* round up to a multiple of 4 */
 873:c:/Users/Black_Life/STM32Cube/Repository/STM32Cube_FW_F4_V1.26.2/Middlewares/Third_Party/LwIP/src/core/ipv4\ip4.c ****       optlen_aligned = (u16_t)((optlen + 3) & ~3);
 874:c:/Users/Black_Life/STM32Cube/Repository/STM32Cube_FW_F4_V1.26.2/Middlewares/Third_Party/LwIP/src/core/ipv4\ip4.c ****       ip_hlen = (u16_t)(ip_hlen + optlen_aligned);
 875:c:/Users/Black_Life/STM32Cube/Repository/STM32Cube_FW_F4_V1.26.2/Middlewares/Third_Party/LwIP/src/core/ipv4\ip4.c ****       /* First write in the IP options */
 876:c:/Users/Black_Life/STM32Cube/Repository/STM32Cube_FW_F4_V1.26.2/Middlewares/Third_Party/LwIP/src/core/ipv4\ip4.c ****       if (pbuf_add_header(p, optlen_aligned)) {
 877:c:/Users/Black_Life/STM32Cube/Repository/STM32Cube_FW_F4_V1.26.2/Middlewares/Third_Party/LwIP/src/core/ipv4\ip4.c ****         LWIP_DEBUGF(IP_DEBUG | LWIP_DBG_LEVEL_SERIOUS, ("ip4_output_if_opt: not enough room for IP 
 878:c:/Users/Black_Life/STM32Cube/Repository/STM32Cube_FW_F4_V1.26.2/Middlewares/Third_Party/LwIP/src/core/ipv4\ip4.c ****         IP_STATS_INC(ip.err);
 879:c:/Users/Black_Life/STM32Cube/Repository/STM32Cube_FW_F4_V1.26.2/Middlewares/Third_Party/LwIP/src/core/ipv4\ip4.c ****         MIB2_STATS_INC(mib2.ipoutdiscards);
 880:c:/Users/Black_Life/STM32Cube/Repository/STM32Cube_FW_F4_V1.26.2/Middlewares/Third_Party/LwIP/src/core/ipv4\ip4.c ****         return ERR_BUF;
 881:c:/Users/Black_Life/STM32Cube/Repository/STM32Cube_FW_F4_V1.26.2/Middlewares/Third_Party/LwIP/src/core/ipv4\ip4.c ****       }
 882:c:/Users/Black_Life/STM32Cube/Repository/STM32Cube_FW_F4_V1.26.2/Middlewares/Third_Party/LwIP/src/core/ipv4\ip4.c ****       MEMCPY(p->payload, ip_options, optlen);
 883:c:/Users/Black_Life/STM32Cube/Repository/STM32Cube_FW_F4_V1.26.2/Middlewares/Third_Party/LwIP/src/core/ipv4\ip4.c ****       if (optlen < optlen_aligned) {
 884:c:/Users/Black_Life/STM32Cube/Repository/STM32Cube_FW_F4_V1.26.2/Middlewares/Third_Party/LwIP/src/core/ipv4\ip4.c ****         /* zero the remaining bytes */
 885:c:/Users/Black_Life/STM32Cube/Repository/STM32Cube_FW_F4_V1.26.2/Middlewares/Third_Party/LwIP/src/core/ipv4\ip4.c ****         memset(((char *)p->payload) + optlen, 0, (size_t)(optlen_aligned - optlen));
 886:c:/Users/Black_Life/STM32Cube/Repository/STM32Cube_FW_F4_V1.26.2/Middlewares/Third_Party/LwIP/src/core/ipv4\ip4.c ****       }
 887:c:/Users/Black_Life/STM32Cube/Repository/STM32Cube_FW_F4_V1.26.2/Middlewares/Third_Party/LwIP/src/core/ipv4\ip4.c **** #if CHECKSUM_GEN_IP_INLINE
 888:c:/Users/Black_Life/STM32Cube/Repository/STM32Cube_FW_F4_V1.26.2/Middlewares/Third_Party/LwIP/src/core/ipv4\ip4.c ****       for (i = 0; i < optlen_aligned / 2; i++) {
 889:c:/Users/Black_Life/STM32Cube/Repository/STM32Cube_FW_F4_V1.26.2/Middlewares/Third_Party/LwIP/src/core/ipv4\ip4.c ****         chk_sum += ((u16_t *)p->payload)[i];
 890:c:/Users/Black_Life/STM32Cube/Repository/STM32Cube_FW_F4_V1.26.2/Middlewares/Third_Party/LwIP/src/core/ipv4\ip4.c ****       }
 891:c:/Users/Black_Life/STM32Cube/Repository/STM32Cube_FW_F4_V1.26.2/Middlewares/Third_Party/LwIP/src/core/ipv4\ip4.c **** #endif /* CHECKSUM_GEN_IP_INLINE */
 892:c:/Users/Black_Life/STM32Cube/Repository/STM32Cube_FW_F4_V1.26.2/Middlewares/Third_Party/LwIP/src/core/ipv4\ip4.c ****     }
 893:c:/Users/Black_Life/STM32Cube/Repository/STM32Cube_FW_F4_V1.26.2/Middlewares/Third_Party/LwIP/src/core/ipv4\ip4.c **** #endif /* IP_OPTIONS_SEND */
 894:c:/Users/Black_Life/STM32Cube/Repository/STM32Cube_FW_F4_V1.26.2/Middlewares/Third_Party/LwIP/src/core/ipv4\ip4.c ****     /* generate IP header */
 895:c:/Users/Black_Life/STM32Cube/Repository/STM32Cube_FW_F4_V1.26.2/Middlewares/Third_Party/LwIP/src/core/ipv4\ip4.c ****     if (pbuf_add_header(p, IP_HLEN)) {
 792              		.loc 1 895 5 view .LVU272
 793              		.loc 1 895 9 is_stmt 0 view .LVU273
 794 001c 1421     		movs	r1, #20
 795 001e 2046     		mov	r0, r4
 796 0020 FFF7FEFF 		bl	pbuf_add_header
 797              	.LVL60:
 798              		.loc 1 895 8 view .LVU274
 799 0024 0028     		cmp	r0, #0
 800 0026 59D1     		bne	.L80
 896:c:/Users/Black_Life/STM32Cube/Repository/STM32Cube_FW_F4_V1.26.2/Middlewares/Third_Party/LwIP/src/core/ipv4\ip4.c ****       LWIP_DEBUGF(IP_DEBUG | LWIP_DBG_LEVEL_SERIOUS, ("ip4_output: not enough room for IP header in
 897:c:/Users/Black_Life/STM32Cube/Repository/STM32Cube_FW_F4_V1.26.2/Middlewares/Third_Party/LwIP/src/core/ipv4\ip4.c **** 
 898:c:/Users/Black_Life/STM32Cube/Repository/STM32Cube_FW_F4_V1.26.2/Middlewares/Third_Party/LwIP/src/core/ipv4\ip4.c ****       IP_STATS_INC(ip.err);
 899:c:/Users/Black_Life/STM32Cube/Repository/STM32Cube_FW_F4_V1.26.2/Middlewares/Third_Party/LwIP/src/core/ipv4\ip4.c ****       MIB2_STATS_INC(mib2.ipoutdiscards);
 900:c:/Users/Black_Life/STM32Cube/Repository/STM32Cube_FW_F4_V1.26.2/Middlewares/Third_Party/LwIP/src/core/ipv4\ip4.c ****       return ERR_BUF;
 901:c:/Users/Black_Life/STM32Cube/Repository/STM32Cube_FW_F4_V1.26.2/Middlewares/Third_Party/LwIP/src/core/ipv4\ip4.c ****     }
 902:c:/Users/Black_Life/STM32Cube/Repository/STM32Cube_FW_F4_V1.26.2/Middlewares/Third_Party/LwIP/src/core/ipv4\ip4.c **** 
 903:c:/Users/Black_Life/STM32Cube/Repository/STM32Cube_FW_F4_V1.26.2/Middlewares/Third_Party/LwIP/src/core/ipv4\ip4.c ****     iphdr = (struct ip_hdr *)p->payload;
 801              		.loc 1 903 5 is_stmt 1 view .LVU275
 802              		.loc 1 903 11 is_stmt 0 view .LVU276
 803 0028 6568     		ldr	r5, [r4, #4]
 804              	.LVL61:
ARM GAS  C:\Users\BLACK_~1\AppData\Local\Temp\cct9trHa.s 			page 35


 904:c:/Users/Black_Life/STM32Cube/Repository/STM32Cube_FW_F4_V1.26.2/Middlewares/Third_Party/LwIP/src/core/ipv4\ip4.c ****     LWIP_ASSERT("check that first pbuf can hold struct ip_hdr",
 805              		.loc 1 904 5 is_stmt 1 view .LVU277
 806              		.loc 1 904 5 view .LVU278
 807 002a 6389     		ldrh	r3, [r4, #10]
 808 002c 132B     		cmp	r3, #19
 809 002e 3BD9     		bls	.L84
 810              	.L75:
 811              		.loc 1 904 5 discriminator 3 view .LVU279
 812              		.loc 1 904 5 discriminator 3 view .LVU280
 905:c:/Users/Black_Life/STM32Cube/Repository/STM32Cube_FW_F4_V1.26.2/Middlewares/Third_Party/LwIP/src/core/ipv4\ip4.c ****                 (p->len >= sizeof(struct ip_hdr)));
 906:c:/Users/Black_Life/STM32Cube/Repository/STM32Cube_FW_F4_V1.26.2/Middlewares/Third_Party/LwIP/src/core/ipv4\ip4.c **** 
 907:c:/Users/Black_Life/STM32Cube/Repository/STM32Cube_FW_F4_V1.26.2/Middlewares/Third_Party/LwIP/src/core/ipv4\ip4.c ****     IPH_TTL_SET(iphdr, ttl);
 813              		.loc 1 907 5 discriminator 3 view .LVU281
 814 0030 85F80890 		strb	r9, [r5, #8]
 908:c:/Users/Black_Life/STM32Cube/Repository/STM32Cube_FW_F4_V1.26.2/Middlewares/Third_Party/LwIP/src/core/ipv4\ip4.c ****     IPH_PROTO_SET(iphdr, proto);
 815              		.loc 1 908 5 discriminator 3 view .LVU282
 816 0034 9DF82C30 		ldrb	r3, [sp, #44]	@ zero_extendqisi2
 817 0038 6B72     		strb	r3, [r5, #9]
 909:c:/Users/Black_Life/STM32Cube/Repository/STM32Cube_FW_F4_V1.26.2/Middlewares/Third_Party/LwIP/src/core/ipv4\ip4.c **** #if CHECKSUM_GEN_IP_INLINE
 910:c:/Users/Black_Life/STM32Cube/Repository/STM32Cube_FW_F4_V1.26.2/Middlewares/Third_Party/LwIP/src/core/ipv4\ip4.c ****     chk_sum += PP_NTOHS(proto | (ttl << 8));
 911:c:/Users/Black_Life/STM32Cube/Repository/STM32Cube_FW_F4_V1.26.2/Middlewares/Third_Party/LwIP/src/core/ipv4\ip4.c **** #endif /* CHECKSUM_GEN_IP_INLINE */
 912:c:/Users/Black_Life/STM32Cube/Repository/STM32Cube_FW_F4_V1.26.2/Middlewares/Third_Party/LwIP/src/core/ipv4\ip4.c **** 
 913:c:/Users/Black_Life/STM32Cube/Repository/STM32Cube_FW_F4_V1.26.2/Middlewares/Third_Party/LwIP/src/core/ipv4\ip4.c ****     /* dest cannot be NULL here */
 914:c:/Users/Black_Life/STM32Cube/Repository/STM32Cube_FW_F4_V1.26.2/Middlewares/Third_Party/LwIP/src/core/ipv4\ip4.c ****     ip4_addr_copy(iphdr->dest, *dest);
 818              		.loc 1 914 5 discriminator 3 view .LVU283
 819 003a 3368     		ldr	r3, [r6]
 820 003c 2B61     		str	r3, [r5, #16]	@ unaligned
 915:c:/Users/Black_Life/STM32Cube/Repository/STM32Cube_FW_F4_V1.26.2/Middlewares/Third_Party/LwIP/src/core/ipv4\ip4.c **** #if CHECKSUM_GEN_IP_INLINE
 916:c:/Users/Black_Life/STM32Cube/Repository/STM32Cube_FW_F4_V1.26.2/Middlewares/Third_Party/LwIP/src/core/ipv4\ip4.c ****     chk_sum += ip4_addr_get_u32(&iphdr->dest) & 0xFFFF;
 917:c:/Users/Black_Life/STM32Cube/Repository/STM32Cube_FW_F4_V1.26.2/Middlewares/Third_Party/LwIP/src/core/ipv4\ip4.c ****     chk_sum += ip4_addr_get_u32(&iphdr->dest) >> 16;
 918:c:/Users/Black_Life/STM32Cube/Repository/STM32Cube_FW_F4_V1.26.2/Middlewares/Third_Party/LwIP/src/core/ipv4\ip4.c **** #endif /* CHECKSUM_GEN_IP_INLINE */
 919:c:/Users/Black_Life/STM32Cube/Repository/STM32Cube_FW_F4_V1.26.2/Middlewares/Third_Party/LwIP/src/core/ipv4\ip4.c **** 
 920:c:/Users/Black_Life/STM32Cube/Repository/STM32Cube_FW_F4_V1.26.2/Middlewares/Third_Party/LwIP/src/core/ipv4\ip4.c ****     IPH_VHL_SET(iphdr, 4, ip_hlen / 4);
 821              		.loc 1 920 5 discriminator 3 view .LVU284
 822 003e 4523     		movs	r3, #69
 823 0040 2B70     		strb	r3, [r5]
 921:c:/Users/Black_Life/STM32Cube/Repository/STM32Cube_FW_F4_V1.26.2/Middlewares/Third_Party/LwIP/src/core/ipv4\ip4.c ****     IPH_TOS_SET(iphdr, tos);
 824              		.loc 1 921 5 discriminator 3 view .LVU285
 825 0042 9DF82830 		ldrb	r3, [sp, #40]	@ zero_extendqisi2
 826 0046 6B70     		strb	r3, [r5, #1]
 922:c:/Users/Black_Life/STM32Cube/Repository/STM32Cube_FW_F4_V1.26.2/Middlewares/Third_Party/LwIP/src/core/ipv4\ip4.c **** #if CHECKSUM_GEN_IP_INLINE
 923:c:/Users/Black_Life/STM32Cube/Repository/STM32Cube_FW_F4_V1.26.2/Middlewares/Third_Party/LwIP/src/core/ipv4\ip4.c ****     chk_sum += PP_NTOHS(tos | (iphdr->_v_hl << 8));
 924:c:/Users/Black_Life/STM32Cube/Repository/STM32Cube_FW_F4_V1.26.2/Middlewares/Third_Party/LwIP/src/core/ipv4\ip4.c **** #endif /* CHECKSUM_GEN_IP_INLINE */
 925:c:/Users/Black_Life/STM32Cube/Repository/STM32Cube_FW_F4_V1.26.2/Middlewares/Third_Party/LwIP/src/core/ipv4\ip4.c ****     IPH_LEN_SET(iphdr, lwip_htons(p->tot_len));
 827              		.loc 1 925 5 discriminator 3 view .LVU286
 828 0048 2089     		ldrh	r0, [r4, #8]
 829 004a FFF7FEFF 		bl	lwip_htons
 830              	.LVL62:
 831 004e 6880     		strh	r0, [r5, #2]	@ unaligned
 926:c:/Users/Black_Life/STM32Cube/Repository/STM32Cube_FW_F4_V1.26.2/Middlewares/Third_Party/LwIP/src/core/ipv4\ip4.c **** #if CHECKSUM_GEN_IP_INLINE
 927:c:/Users/Black_Life/STM32Cube/Repository/STM32Cube_FW_F4_V1.26.2/Middlewares/Third_Party/LwIP/src/core/ipv4\ip4.c ****     chk_sum += iphdr->_len;
 928:c:/Users/Black_Life/STM32Cube/Repository/STM32Cube_FW_F4_V1.26.2/Middlewares/Third_Party/LwIP/src/core/ipv4\ip4.c **** #endif /* CHECKSUM_GEN_IP_INLINE */
 929:c:/Users/Black_Life/STM32Cube/Repository/STM32Cube_FW_F4_V1.26.2/Middlewares/Third_Party/LwIP/src/core/ipv4\ip4.c ****     IPH_OFFSET_SET(iphdr, 0);
 832              		.loc 1 929 5 discriminator 3 view .LVU287
 833 0050 0023     		movs	r3, #0
 834 0052 AB71     		strb	r3, [r5, #6]
 835 0054 EB71     		strb	r3, [r5, #7]
ARM GAS  C:\Users\BLACK_~1\AppData\Local\Temp\cct9trHa.s 			page 36


 930:c:/Users/Black_Life/STM32Cube/Repository/STM32Cube_FW_F4_V1.26.2/Middlewares/Third_Party/LwIP/src/core/ipv4\ip4.c ****     IPH_ID_SET(iphdr, lwip_htons(ip_id));
 836              		.loc 1 930 5 discriminator 3 view .LVU288
 837 0056 DFF8A490 		ldr	r9, .L87+20
 838 005a B9F80000 		ldrh	r0, [r9]
 839 005e FFF7FEFF 		bl	lwip_htons
 840              	.LVL63:
 841 0062 A880     		strh	r0, [r5, #4]	@ unaligned
 931:c:/Users/Black_Life/STM32Cube/Repository/STM32Cube_FW_F4_V1.26.2/Middlewares/Third_Party/LwIP/src/core/ipv4\ip4.c **** #if CHECKSUM_GEN_IP_INLINE
 932:c:/Users/Black_Life/STM32Cube/Repository/STM32Cube_FW_F4_V1.26.2/Middlewares/Third_Party/LwIP/src/core/ipv4\ip4.c ****     chk_sum += iphdr->_id;
 933:c:/Users/Black_Life/STM32Cube/Repository/STM32Cube_FW_F4_V1.26.2/Middlewares/Third_Party/LwIP/src/core/ipv4\ip4.c **** #endif /* CHECKSUM_GEN_IP_INLINE */
 934:c:/Users/Black_Life/STM32Cube/Repository/STM32Cube_FW_F4_V1.26.2/Middlewares/Third_Party/LwIP/src/core/ipv4\ip4.c ****     ++ip_id;
 842              		.loc 1 934 5 discriminator 3 view .LVU289
 843 0064 B9F80030 		ldrh	r3, [r9]
 844 0068 0133     		adds	r3, r3, #1
 845 006a A9F80030 		strh	r3, [r9]	@ movhi
 935:c:/Users/Black_Life/STM32Cube/Repository/STM32Cube_FW_F4_V1.26.2/Middlewares/Third_Party/LwIP/src/core/ipv4\ip4.c **** 
 936:c:/Users/Black_Life/STM32Cube/Repository/STM32Cube_FW_F4_V1.26.2/Middlewares/Third_Party/LwIP/src/core/ipv4\ip4.c ****     if (src == NULL) {
 846              		.loc 1 936 5 discriminator 3 view .LVU290
 847              		.loc 1 936 8 is_stmt 0 discriminator 3 view .LVU291
 848 006e 1FB3     		cbz	r7, .L85
 937:c:/Users/Black_Life/STM32Cube/Repository/STM32Cube_FW_F4_V1.26.2/Middlewares/Third_Party/LwIP/src/core/ipv4\ip4.c ****       ip4_addr_copy(iphdr->src, *IP4_ADDR_ANY4);
 938:c:/Users/Black_Life/STM32Cube/Repository/STM32Cube_FW_F4_V1.26.2/Middlewares/Third_Party/LwIP/src/core/ipv4\ip4.c ****     } else {
 939:c:/Users/Black_Life/STM32Cube/Repository/STM32Cube_FW_F4_V1.26.2/Middlewares/Third_Party/LwIP/src/core/ipv4\ip4.c ****       /* src cannot be NULL here */
 940:c:/Users/Black_Life/STM32Cube/Repository/STM32Cube_FW_F4_V1.26.2/Middlewares/Third_Party/LwIP/src/core/ipv4\ip4.c ****       ip4_addr_copy(iphdr->src, *src);
 849              		.loc 1 940 7 is_stmt 1 view .LVU292
 850 0070 3B68     		ldr	r3, [r7]
 851 0072 EB60     		str	r3, [r5, #12]	@ unaligned
 852              	.L77:
 941:c:/Users/Black_Life/STM32Cube/Repository/STM32Cube_FW_F4_V1.26.2/Middlewares/Third_Party/LwIP/src/core/ipv4\ip4.c ****     }
 942:c:/Users/Black_Life/STM32Cube/Repository/STM32Cube_FW_F4_V1.26.2/Middlewares/Third_Party/LwIP/src/core/ipv4\ip4.c **** 
 943:c:/Users/Black_Life/STM32Cube/Repository/STM32Cube_FW_F4_V1.26.2/Middlewares/Third_Party/LwIP/src/core/ipv4\ip4.c **** #if CHECKSUM_GEN_IP_INLINE
 944:c:/Users/Black_Life/STM32Cube/Repository/STM32Cube_FW_F4_V1.26.2/Middlewares/Third_Party/LwIP/src/core/ipv4\ip4.c ****     chk_sum += ip4_addr_get_u32(&iphdr->src) & 0xFFFF;
 945:c:/Users/Black_Life/STM32Cube/Repository/STM32Cube_FW_F4_V1.26.2/Middlewares/Third_Party/LwIP/src/core/ipv4\ip4.c ****     chk_sum += ip4_addr_get_u32(&iphdr->src) >> 16;
 946:c:/Users/Black_Life/STM32Cube/Repository/STM32Cube_FW_F4_V1.26.2/Middlewares/Third_Party/LwIP/src/core/ipv4\ip4.c ****     chk_sum = (chk_sum >> 16) + (chk_sum & 0xFFFF);
 947:c:/Users/Black_Life/STM32Cube/Repository/STM32Cube_FW_F4_V1.26.2/Middlewares/Third_Party/LwIP/src/core/ipv4\ip4.c ****     chk_sum = (chk_sum >> 16) + chk_sum;
 948:c:/Users/Black_Life/STM32Cube/Repository/STM32Cube_FW_F4_V1.26.2/Middlewares/Third_Party/LwIP/src/core/ipv4\ip4.c ****     chk_sum = ~chk_sum;
 949:c:/Users/Black_Life/STM32Cube/Repository/STM32Cube_FW_F4_V1.26.2/Middlewares/Third_Party/LwIP/src/core/ipv4\ip4.c ****     IF__NETIF_CHECKSUM_ENABLED(netif, NETIF_CHECKSUM_GEN_IP) {
 950:c:/Users/Black_Life/STM32Cube/Repository/STM32Cube_FW_F4_V1.26.2/Middlewares/Third_Party/LwIP/src/core/ipv4\ip4.c ****       iphdr->_chksum = (u16_t)chk_sum; /* network order */
 951:c:/Users/Black_Life/STM32Cube/Repository/STM32Cube_FW_F4_V1.26.2/Middlewares/Third_Party/LwIP/src/core/ipv4\ip4.c ****     }
 952:c:/Users/Black_Life/STM32Cube/Repository/STM32Cube_FW_F4_V1.26.2/Middlewares/Third_Party/LwIP/src/core/ipv4\ip4.c **** #if LWIP_CHECKSUM_CTRL_PER_NETIF
 953:c:/Users/Black_Life/STM32Cube/Repository/STM32Cube_FW_F4_V1.26.2/Middlewares/Third_Party/LwIP/src/core/ipv4\ip4.c ****     else {
 954:c:/Users/Black_Life/STM32Cube/Repository/STM32Cube_FW_F4_V1.26.2/Middlewares/Third_Party/LwIP/src/core/ipv4\ip4.c ****       IPH_CHKSUM_SET(iphdr, 0);
 955:c:/Users/Black_Life/STM32Cube/Repository/STM32Cube_FW_F4_V1.26.2/Middlewares/Third_Party/LwIP/src/core/ipv4\ip4.c ****     }
 956:c:/Users/Black_Life/STM32Cube/Repository/STM32Cube_FW_F4_V1.26.2/Middlewares/Third_Party/LwIP/src/core/ipv4\ip4.c **** #endif /* LWIP_CHECKSUM_CTRL_PER_NETIF*/
 957:c:/Users/Black_Life/STM32Cube/Repository/STM32Cube_FW_F4_V1.26.2/Middlewares/Third_Party/LwIP/src/core/ipv4\ip4.c **** #else /* CHECKSUM_GEN_IP_INLINE */
 958:c:/Users/Black_Life/STM32Cube/Repository/STM32Cube_FW_F4_V1.26.2/Middlewares/Third_Party/LwIP/src/core/ipv4\ip4.c ****     IPH_CHKSUM_SET(iphdr, 0);
 853              		.loc 1 958 5 view .LVU293
 854 0074 0023     		movs	r3, #0
 855 0076 AB72     		strb	r3, [r5, #10]
 856 0078 EB72     		strb	r3, [r5, #11]
 857              	.LVL64:
 858              	.L78:
 859              		.loc 1 958 5 is_stmt 0 view .LVU294
 860              	.LBE3:
 959:c:/Users/Black_Life/STM32Cube/Repository/STM32Cube_FW_F4_V1.26.2/Middlewares/Third_Party/LwIP/src/core/ipv4\ip4.c **** #if CHECKSUM_GEN_IP
 960:c:/Users/Black_Life/STM32Cube/Repository/STM32Cube_FW_F4_V1.26.2/Middlewares/Third_Party/LwIP/src/core/ipv4\ip4.c ****     IF__NETIF_CHECKSUM_ENABLED(netif, NETIF_CHECKSUM_GEN_IP) {
 961:c:/Users/Black_Life/STM32Cube/Repository/STM32Cube_FW_F4_V1.26.2/Middlewares/Third_Party/LwIP/src/core/ipv4\ip4.c ****       IPH_CHKSUM_SET(iphdr, inet_chksum(iphdr, ip_hlen));
ARM GAS  C:\Users\BLACK_~1\AppData\Local\Temp\cct9trHa.s 			page 37


 962:c:/Users/Black_Life/STM32Cube/Repository/STM32Cube_FW_F4_V1.26.2/Middlewares/Third_Party/LwIP/src/core/ipv4\ip4.c ****     }
 963:c:/Users/Black_Life/STM32Cube/Repository/STM32Cube_FW_F4_V1.26.2/Middlewares/Third_Party/LwIP/src/core/ipv4\ip4.c **** #endif /* CHECKSUM_GEN_IP */
 964:c:/Users/Black_Life/STM32Cube/Repository/STM32Cube_FW_F4_V1.26.2/Middlewares/Third_Party/LwIP/src/core/ipv4\ip4.c **** #endif /* CHECKSUM_GEN_IP_INLINE */
 965:c:/Users/Black_Life/STM32Cube/Repository/STM32Cube_FW_F4_V1.26.2/Middlewares/Third_Party/LwIP/src/core/ipv4\ip4.c ****   } else {
 966:c:/Users/Black_Life/STM32Cube/Repository/STM32Cube_FW_F4_V1.26.2/Middlewares/Third_Party/LwIP/src/core/ipv4\ip4.c ****     /* IP header already included in p */
 967:c:/Users/Black_Life/STM32Cube/Repository/STM32Cube_FW_F4_V1.26.2/Middlewares/Third_Party/LwIP/src/core/ipv4\ip4.c ****     if (p->len < IP_HLEN) {
 968:c:/Users/Black_Life/STM32Cube/Repository/STM32Cube_FW_F4_V1.26.2/Middlewares/Third_Party/LwIP/src/core/ipv4\ip4.c ****       LWIP_DEBUGF(IP_DEBUG | LWIP_DBG_LEVEL_SERIOUS, ("ip4_output: LWIP_IP_HDRINCL but pbuf is too 
 969:c:/Users/Black_Life/STM32Cube/Repository/STM32Cube_FW_F4_V1.26.2/Middlewares/Third_Party/LwIP/src/core/ipv4\ip4.c ****       IP_STATS_INC(ip.err);
 970:c:/Users/Black_Life/STM32Cube/Repository/STM32Cube_FW_F4_V1.26.2/Middlewares/Third_Party/LwIP/src/core/ipv4\ip4.c ****       MIB2_STATS_INC(mib2.ipoutdiscards);
 971:c:/Users/Black_Life/STM32Cube/Repository/STM32Cube_FW_F4_V1.26.2/Middlewares/Third_Party/LwIP/src/core/ipv4\ip4.c ****       return ERR_BUF;
 972:c:/Users/Black_Life/STM32Cube/Repository/STM32Cube_FW_F4_V1.26.2/Middlewares/Third_Party/LwIP/src/core/ipv4\ip4.c ****     }
 973:c:/Users/Black_Life/STM32Cube/Repository/STM32Cube_FW_F4_V1.26.2/Middlewares/Third_Party/LwIP/src/core/ipv4\ip4.c ****     iphdr = (struct ip_hdr *)p->payload;
 974:c:/Users/Black_Life/STM32Cube/Repository/STM32Cube_FW_F4_V1.26.2/Middlewares/Third_Party/LwIP/src/core/ipv4\ip4.c ****     ip4_addr_copy(dest_addr, iphdr->dest);
 975:c:/Users/Black_Life/STM32Cube/Repository/STM32Cube_FW_F4_V1.26.2/Middlewares/Third_Party/LwIP/src/core/ipv4\ip4.c ****     dest = &dest_addr;
 976:c:/Users/Black_Life/STM32Cube/Repository/STM32Cube_FW_F4_V1.26.2/Middlewares/Third_Party/LwIP/src/core/ipv4\ip4.c ****   }
 977:c:/Users/Black_Life/STM32Cube/Repository/STM32Cube_FW_F4_V1.26.2/Middlewares/Third_Party/LwIP/src/core/ipv4\ip4.c **** 
 978:c:/Users/Black_Life/STM32Cube/Repository/STM32Cube_FW_F4_V1.26.2/Middlewares/Third_Party/LwIP/src/core/ipv4\ip4.c ****   IP_STATS_INC(ip.xmit);
 861              		.loc 1 978 24 is_stmt 1 view .LVU295
 979:c:/Users/Black_Life/STM32Cube/Repository/STM32Cube_FW_F4_V1.26.2/Middlewares/Third_Party/LwIP/src/core/ipv4\ip4.c **** 
 980:c:/Users/Black_Life/STM32Cube/Repository/STM32Cube_FW_F4_V1.26.2/Middlewares/Third_Party/LwIP/src/core/ipv4\ip4.c ****   LWIP_DEBUGF(IP_DEBUG, ("ip4_output_if: %c%c%"U16_F"\n", netif->name[0], netif->name[1], (u16_t)ne
 862              		.loc 1 980 110 view .LVU296
 981:c:/Users/Black_Life/STM32Cube/Repository/STM32Cube_FW_F4_V1.26.2/Middlewares/Third_Party/LwIP/src/core/ipv4\ip4.c ****   ip4_debug_print(p);
 863              		.loc 1 981 21 view .LVU297
 982:c:/Users/Black_Life/STM32Cube/Repository/STM32Cube_FW_F4_V1.26.2/Middlewares/Third_Party/LwIP/src/core/ipv4\ip4.c **** 
 983:c:/Users/Black_Life/STM32Cube/Repository/STM32Cube_FW_F4_V1.26.2/Middlewares/Third_Party/LwIP/src/core/ipv4\ip4.c **** #if ENABLE_LOOPBACK
 984:c:/Users/Black_Life/STM32Cube/Repository/STM32Cube_FW_F4_V1.26.2/Middlewares/Third_Party/LwIP/src/core/ipv4\ip4.c ****   if (ip4_addr_cmp(dest, netif_ip4_addr(netif))
 985:c:/Users/Black_Life/STM32Cube/Repository/STM32Cube_FW_F4_V1.26.2/Middlewares/Third_Party/LwIP/src/core/ipv4\ip4.c **** #if !LWIP_HAVE_LOOPIF
 986:c:/Users/Black_Life/STM32Cube/Repository/STM32Cube_FW_F4_V1.26.2/Middlewares/Third_Party/LwIP/src/core/ipv4\ip4.c ****       || ip4_addr_isloopback(dest)
 987:c:/Users/Black_Life/STM32Cube/Repository/STM32Cube_FW_F4_V1.26.2/Middlewares/Third_Party/LwIP/src/core/ipv4\ip4.c **** #endif /* !LWIP_HAVE_LOOPIF */
 988:c:/Users/Black_Life/STM32Cube/Repository/STM32Cube_FW_F4_V1.26.2/Middlewares/Third_Party/LwIP/src/core/ipv4\ip4.c ****      ) {
 989:c:/Users/Black_Life/STM32Cube/Repository/STM32Cube_FW_F4_V1.26.2/Middlewares/Third_Party/LwIP/src/core/ipv4\ip4.c ****     /* Packet to self, enqueue it for loopback */
 990:c:/Users/Black_Life/STM32Cube/Repository/STM32Cube_FW_F4_V1.26.2/Middlewares/Third_Party/LwIP/src/core/ipv4\ip4.c ****     LWIP_DEBUGF(IP_DEBUG, ("netif_loop_output()"));
 991:c:/Users/Black_Life/STM32Cube/Repository/STM32Cube_FW_F4_V1.26.2/Middlewares/Third_Party/LwIP/src/core/ipv4\ip4.c ****     return netif_loop_output(netif, p);
 992:c:/Users/Black_Life/STM32Cube/Repository/STM32Cube_FW_F4_V1.26.2/Middlewares/Third_Party/LwIP/src/core/ipv4\ip4.c ****   }
 993:c:/Users/Black_Life/STM32Cube/Repository/STM32Cube_FW_F4_V1.26.2/Middlewares/Third_Party/LwIP/src/core/ipv4\ip4.c **** #if LWIP_MULTICAST_TX_OPTIONS
 994:c:/Users/Black_Life/STM32Cube/Repository/STM32Cube_FW_F4_V1.26.2/Middlewares/Third_Party/LwIP/src/core/ipv4\ip4.c ****   if ((p->flags & PBUF_FLAG_MCASTLOOP) != 0) {
 995:c:/Users/Black_Life/STM32Cube/Repository/STM32Cube_FW_F4_V1.26.2/Middlewares/Third_Party/LwIP/src/core/ipv4\ip4.c ****     netif_loop_output(netif, p);
 996:c:/Users/Black_Life/STM32Cube/Repository/STM32Cube_FW_F4_V1.26.2/Middlewares/Third_Party/LwIP/src/core/ipv4\ip4.c ****   }
 997:c:/Users/Black_Life/STM32Cube/Repository/STM32Cube_FW_F4_V1.26.2/Middlewares/Third_Party/LwIP/src/core/ipv4\ip4.c **** #endif /* LWIP_MULTICAST_TX_OPTIONS */
 998:c:/Users/Black_Life/STM32Cube/Repository/STM32Cube_FW_F4_V1.26.2/Middlewares/Third_Party/LwIP/src/core/ipv4\ip4.c **** #endif /* ENABLE_LOOPBACK */
 999:c:/Users/Black_Life/STM32Cube/Repository/STM32Cube_FW_F4_V1.26.2/Middlewares/Third_Party/LwIP/src/core/ipv4\ip4.c **** #if IP_FRAG
1000:c:/Users/Black_Life/STM32Cube/Repository/STM32Cube_FW_F4_V1.26.2/Middlewares/Third_Party/LwIP/src/core/ipv4\ip4.c ****   /* don't fragment if interface has mtu set to 0 [loopif] */
1001:c:/Users/Black_Life/STM32Cube/Repository/STM32Cube_FW_F4_V1.26.2/Middlewares/Third_Party/LwIP/src/core/ipv4\ip4.c ****   if (netif->mtu && (p->tot_len > netif->mtu)) {
 864              		.loc 1 1001 3 view .LVU298
 865              		.loc 1 1001 12 is_stmt 0 view .LVU299
 866 007a B8F82830 		ldrh	r3, [r8, #40]
 867              		.loc 1 1001 6 view .LVU300
 868 007e 13B1     		cbz	r3, .L79
 869              		.loc 1 1001 23 discriminator 1 view .LVU301
 870 0080 2289     		ldrh	r2, [r4, #8]
 871              		.loc 1 1001 18 discriminator 1 view .LVU302
 872 0082 9342     		cmp	r3, r2
 873 0084 24D3     		bcc	.L86
 874              	.L79:
1002:c:/Users/Black_Life/STM32Cube/Repository/STM32Cube_FW_F4_V1.26.2/Middlewares/Third_Party/LwIP/src/core/ipv4\ip4.c ****     return ip4_frag(p, netif, dest);
1003:c:/Users/Black_Life/STM32Cube/Repository/STM32Cube_FW_F4_V1.26.2/Middlewares/Third_Party/LwIP/src/core/ipv4\ip4.c ****   }
1004:c:/Users/Black_Life/STM32Cube/Repository/STM32Cube_FW_F4_V1.26.2/Middlewares/Third_Party/LwIP/src/core/ipv4\ip4.c **** #endif /* IP_FRAG */
ARM GAS  C:\Users\BLACK_~1\AppData\Local\Temp\cct9trHa.s 			page 38


1005:c:/Users/Black_Life/STM32Cube/Repository/STM32Cube_FW_F4_V1.26.2/Middlewares/Third_Party/LwIP/src/core/ipv4\ip4.c **** 
1006:c:/Users/Black_Life/STM32Cube/Repository/STM32Cube_FW_F4_V1.26.2/Middlewares/Third_Party/LwIP/src/core/ipv4\ip4.c ****   LWIP_DEBUGF(IP_DEBUG, ("ip4_output_if: call netif->output()\n"));
 875              		.loc 1 1006 67 is_stmt 1 view .LVU303
1007:c:/Users/Black_Life/STM32Cube/Repository/STM32Cube_FW_F4_V1.26.2/Middlewares/Third_Party/LwIP/src/core/ipv4\ip4.c ****   return netif->output(netif, p, dest);
 876              		.loc 1 1007 3 view .LVU304
 877              		.loc 1 1007 15 is_stmt 0 view .LVU305
 878 0086 D8F81430 		ldr	r3, [r8, #20]
 879              		.loc 1 1007 10 view .LVU306
 880 008a 3246     		mov	r2, r6
 881 008c 2146     		mov	r1, r4
 882 008e 4046     		mov	r0, r8
 883 0090 9847     		blx	r3
 884              	.LVL65:
 885              	.L74:
1008:c:/Users/Black_Life/STM32Cube/Repository/STM32Cube_FW_F4_V1.26.2/Middlewares/Third_Party/LwIP/src/core/ipv4\ip4.c **** }
 886              		.loc 1 1008 1 view .LVU307
 887 0092 03B0     		add	sp, sp, #12
 888              	.LCFI8:
 889              		.cfi_remember_state
 890              		.cfi_def_cfa_offset 28
 891              		@ sp needed
 892 0094 BDE8F083 		pop	{r4, r5, r6, r7, r8, r9, pc}
 893              	.LVL66:
 894              	.L83:
 895              	.LCFI9:
 896              		.cfi_restore_state
 852:c:/Users/Black_Life/STM32Cube/Repository/STM32Cube_FW_F4_V1.26.2/Middlewares/Third_Party/LwIP/src/core/ipv4\ip4.c **** 
 897              		.loc 1 852 3 is_stmt 1 discriminator 1 view .LVU308
 852:c:/Users/Black_Life/STM32Cube/Repository/STM32Cube_FW_F4_V1.26.2/Middlewares/Third_Party/LwIP/src/core/ipv4\ip4.c **** 
 898              		.loc 1 852 3 discriminator 1 view .LVU309
 899 0098 134B     		ldr	r3, .L87
 900              	.LVL67:
 852:c:/Users/Black_Life/STM32Cube/Repository/STM32Cube_FW_F4_V1.26.2/Middlewares/Third_Party/LwIP/src/core/ipv4\ip4.c **** 
 901              		.loc 1 852 3 is_stmt 0 discriminator 1 view .LVU310
 902 009a 4FF45572 		mov	r2, #852
 903 009e 1349     		ldr	r1, .L87+4
 904              	.LVL68:
 852:c:/Users/Black_Life/STM32Cube/Repository/STM32Cube_FW_F4_V1.26.2/Middlewares/Third_Party/LwIP/src/core/ipv4\ip4.c **** 
 905              		.loc 1 852 3 discriminator 1 view .LVU311
 906 00a0 1348     		ldr	r0, .L87+8
 907              	.LVL69:
 852:c:/Users/Black_Life/STM32Cube/Repository/STM32Cube_FW_F4_V1.26.2/Middlewares/Third_Party/LwIP/src/core/ipv4\ip4.c **** 
 908              		.loc 1 852 3 discriminator 1 view .LVU312
 909 00a2 FFF7FEFF 		bl	printf
 910              	.LVL70:
 911 00a6 B7E7     		b	.L72
 912              	.LVL71:
 913              	.L84:
 914              	.LBB4:
 904:c:/Users/Black_Life/STM32Cube/Repository/STM32Cube_FW_F4_V1.26.2/Middlewares/Third_Party/LwIP/src/core/ipv4\ip4.c ****                 (p->len >= sizeof(struct ip_hdr)));
 915              		.loc 1 904 5 is_stmt 1 discriminator 1 view .LVU313
 904:c:/Users/Black_Life/STM32Cube/Repository/STM32Cube_FW_F4_V1.26.2/Middlewares/Third_Party/LwIP/src/core/ipv4\ip4.c ****                 (p->len >= sizeof(struct ip_hdr)));
 916              		.loc 1 904 5 discriminator 1 view .LVU314
 917 00a8 0F4B     		ldr	r3, .L87
 918 00aa 4FF46272 		mov	r2, #904
 919 00ae 1149     		ldr	r1, .L87+12
 920 00b0 0F48     		ldr	r0, .L87+8
ARM GAS  C:\Users\BLACK_~1\AppData\Local\Temp\cct9trHa.s 			page 39


 921 00b2 FFF7FEFF 		bl	printf
 922              	.LVL72:
 923 00b6 BBE7     		b	.L75
 924              	.L85:
 937:c:/Users/Black_Life/STM32Cube/Repository/STM32Cube_FW_F4_V1.26.2/Middlewares/Third_Party/LwIP/src/core/ipv4\ip4.c ****     } else {
 925              		.loc 1 937 7 view .LVU315
 926 00b8 0F4B     		ldr	r3, .L87+16
 927 00ba 1B68     		ldr	r3, [r3]
 928 00bc EB60     		str	r3, [r5, #12]	@ unaligned
 929 00be D9E7     		b	.L77
 930              	.LVL73:
 931              	.L73:
 937:c:/Users/Black_Life/STM32Cube/Repository/STM32Cube_FW_F4_V1.26.2/Middlewares/Third_Party/LwIP/src/core/ipv4\ip4.c ****     } else {
 932              		.loc 1 937 7 is_stmt 0 view .LVU316
 933              	.LBE4:
 967:c:/Users/Black_Life/STM32Cube/Repository/STM32Cube_FW_F4_V1.26.2/Middlewares/Third_Party/LwIP/src/core/ipv4\ip4.c ****       LWIP_DEBUGF(IP_DEBUG | LWIP_DBG_LEVEL_SERIOUS, ("ip4_output: LWIP_IP_HDRINCL but pbuf is too 
 934              		.loc 1 967 5 is_stmt 1 view .LVU317
 967:c:/Users/Black_Life/STM32Cube/Repository/STM32Cube_FW_F4_V1.26.2/Middlewares/Third_Party/LwIP/src/core/ipv4\ip4.c ****       LWIP_DEBUGF(IP_DEBUG | LWIP_DBG_LEVEL_SERIOUS, ("ip4_output: LWIP_IP_HDRINCL but pbuf is too 
 935              		.loc 1 967 10 is_stmt 0 view .LVU318
 936 00c0 6389     		ldrh	r3, [r4, #10]
 967:c:/Users/Black_Life/STM32Cube/Repository/STM32Cube_FW_F4_V1.26.2/Middlewares/Third_Party/LwIP/src/core/ipv4\ip4.c ****       LWIP_DEBUGF(IP_DEBUG | LWIP_DBG_LEVEL_SERIOUS, ("ip4_output: LWIP_IP_HDRINCL but pbuf is too 
 937              		.loc 1 967 8 view .LVU319
 938 00c2 132B     		cmp	r3, #19
 939 00c4 0DD9     		bls	.L81
 973:c:/Users/Black_Life/STM32Cube/Repository/STM32Cube_FW_F4_V1.26.2/Middlewares/Third_Party/LwIP/src/core/ipv4\ip4.c ****     ip4_addr_copy(dest_addr, iphdr->dest);
 940              		.loc 1 973 5 is_stmt 1 view .LVU320
 973:c:/Users/Black_Life/STM32Cube/Repository/STM32Cube_FW_F4_V1.26.2/Middlewares/Third_Party/LwIP/src/core/ipv4\ip4.c ****     ip4_addr_copy(dest_addr, iphdr->dest);
 941              		.loc 1 973 11 is_stmt 0 view .LVU321
 942 00c6 6368     		ldr	r3, [r4, #4]
 943              	.LVL74:
 974:c:/Users/Black_Life/STM32Cube/Repository/STM32Cube_FW_F4_V1.26.2/Middlewares/Third_Party/LwIP/src/core/ipv4\ip4.c ****     dest = &dest_addr;
 944              		.loc 1 974 5 is_stmt 1 view .LVU322
 945 00c8 1B69     		ldr	r3, [r3, #16]	@ unaligned
 946              	.LVL75:
 974:c:/Users/Black_Life/STM32Cube/Repository/STM32Cube_FW_F4_V1.26.2/Middlewares/Third_Party/LwIP/src/core/ipv4\ip4.c ****     dest = &dest_addr;
 947              		.loc 1 974 5 is_stmt 0 view .LVU323
 948 00ca 0193     		str	r3, [sp, #4]
 975:c:/Users/Black_Life/STM32Cube/Repository/STM32Cube_FW_F4_V1.26.2/Middlewares/Third_Party/LwIP/src/core/ipv4\ip4.c ****   }
 949              		.loc 1 975 5 is_stmt 1 view .LVU324
 950              	.LVL76:
 975:c:/Users/Black_Life/STM32Cube/Repository/STM32Cube_FW_F4_V1.26.2/Middlewares/Third_Party/LwIP/src/core/ipv4\ip4.c ****   }
 951              		.loc 1 975 10 is_stmt 0 view .LVU325
 952 00cc 01AE     		add	r6, sp, #4
 953              	.LVL77:
 975:c:/Users/Black_Life/STM32Cube/Repository/STM32Cube_FW_F4_V1.26.2/Middlewares/Third_Party/LwIP/src/core/ipv4\ip4.c ****   }
 954              		.loc 1 975 10 view .LVU326
 955 00ce D4E7     		b	.L78
 956              	.LVL78:
 957              	.L86:
1002:c:/Users/Black_Life/STM32Cube/Repository/STM32Cube_FW_F4_V1.26.2/Middlewares/Third_Party/LwIP/src/core/ipv4\ip4.c ****   }
 958              		.loc 1 1002 5 is_stmt 1 view .LVU327
1002:c:/Users/Black_Life/STM32Cube/Repository/STM32Cube_FW_F4_V1.26.2/Middlewares/Third_Party/LwIP/src/core/ipv4\ip4.c ****   }
 959              		.loc 1 1002 12 is_stmt 0 view .LVU328
 960 00d0 3246     		mov	r2, r6
 961 00d2 4146     		mov	r1, r8
 962 00d4 2046     		mov	r0, r4
 963 00d6 FFF7FEFF 		bl	ip4_frag
ARM GAS  C:\Users\BLACK_~1\AppData\Local\Temp\cct9trHa.s 			page 40


 964              	.LVL79:
 965 00da DAE7     		b	.L74
 966              	.LVL80:
 967              	.L80:
 968              	.LBB5:
 900:c:/Users/Black_Life/STM32Cube/Repository/STM32Cube_FW_F4_V1.26.2/Middlewares/Third_Party/LwIP/src/core/ipv4\ip4.c ****     }
 969              		.loc 1 900 14 view .LVU329
 970 00dc 6FF00100 		mvn	r0, #1
 971 00e0 D7E7     		b	.L74
 972              	.LVL81:
 973              	.L81:
 900:c:/Users/Black_Life/STM32Cube/Repository/STM32Cube_FW_F4_V1.26.2/Middlewares/Third_Party/LwIP/src/core/ipv4\ip4.c ****     }
 974              		.loc 1 900 14 view .LVU330
 975              	.LBE5:
 971:c:/Users/Black_Life/STM32Cube/Repository/STM32Cube_FW_F4_V1.26.2/Middlewares/Third_Party/LwIP/src/core/ipv4\ip4.c ****     }
 976              		.loc 1 971 14 view .LVU331
 977 00e2 6FF00100 		mvn	r0, #1
 978 00e6 D4E7     		b	.L74
 979              	.L88:
 980              		.align	2
 981              	.L87:
 982 00e8 00000000 		.word	.LC0
 983 00ec 74000000 		.word	.LC1
 984 00f0 80000000 		.word	.LC2
 985 00f4 A8000000 		.word	.LC3
 986 00f8 00000000 		.word	ip_addr_any
 987 00fc 00000000 		.word	.LANCHOR0
 988              		.cfi_endproc
 989              	.LFE160:
 991              		.section	.text.ip4_output_if,"ax",%progbits
 992              		.align	1
 993              		.global	ip4_output_if
 994              		.syntax unified
 995              		.thumb
 996              		.thumb_func
 998              	ip4_output_if:
 999              	.LVL82:
 1000              	.LFB159:
 790:c:/Users/Black_Life/STM32Cube/Repository/STM32Cube_FW_F4_V1.26.2/Middlewares/Third_Party/LwIP/src/core/ipv4\ip4.c **** #if IP_OPTIONS_SEND
 1001              		.loc 1 790 1 is_stmt 1 view -0
 1002              		.cfi_startproc
 1003              		@ args = 12, pretend = 0, frame = 0
 1004              		@ frame_needed = 0, uses_anonymous_args = 0
 790:c:/Users/Black_Life/STM32Cube/Repository/STM32Cube_FW_F4_V1.26.2/Middlewares/Third_Party/LwIP/src/core/ipv4\ip4.c **** #if IP_OPTIONS_SEND
 1005              		.loc 1 790 1 is_stmt 0 view .LVU333
 1006 0000 10B5     		push	{r4, lr}
 1007              	.LCFI10:
 1008              		.cfi_def_cfa_offset 8
 1009              		.cfi_offset 4, -8
 1010              		.cfi_offset 14, -4
 1011 0002 84B0     		sub	sp, sp, #16
 1012              	.LCFI11:
 1013              		.cfi_def_cfa_offset 24
 1014 0004 089C     		ldr	r4, [sp, #32]
 807:c:/Users/Black_Life/STM32Cube/Repository/STM32Cube_FW_F4_V1.26.2/Middlewares/Third_Party/LwIP/src/core/ipv4\ip4.c ****   if (dest != LWIP_IP_HDRINCL) {
 1015              		.loc 1 807 3 is_stmt 1 view .LVU334
 1016              	.LVL83:
ARM GAS  C:\Users\BLACK_~1\AppData\Local\Temp\cct9trHa.s 			page 41


 808:c:/Users/Black_Life/STM32Cube/Repository/STM32Cube_FW_F4_V1.26.2/Middlewares/Third_Party/LwIP/src/core/ipv4\ip4.c ****     if (ip4_addr_isany(src)) {
 1017              		.loc 1 808 3 view .LVU335
 808:c:/Users/Black_Life/STM32Cube/Repository/STM32Cube_FW_F4_V1.26.2/Middlewares/Third_Party/LwIP/src/core/ipv4\ip4.c ****     if (ip4_addr_isany(src)) {
 1018              		.loc 1 808 6 is_stmt 0 view .LVU336
 1019 0006 9446     		mov	ip, r2
 1020 0008 1AB1     		cbz	r2, .L90
 809:c:/Users/Black_Life/STM32Cube/Repository/STM32Cube_FW_F4_V1.26.2/Middlewares/Third_Party/LwIP/src/core/ipv4\ip4.c ****       src_used = netif_ip4_addr(netif);
 1021              		.loc 1 809 5 is_stmt 1 view .LVU337
 809:c:/Users/Black_Life/STM32Cube/Repository/STM32Cube_FW_F4_V1.26.2/Middlewares/Third_Party/LwIP/src/core/ipv4\ip4.c ****       src_used = netif_ip4_addr(netif);
 1022              		.loc 1 809 8 is_stmt 0 view .LVU338
 1023 000a 09B1     		cbz	r1, .L91
 809:c:/Users/Black_Life/STM32Cube/Repository/STM32Cube_FW_F4_V1.26.2/Middlewares/Third_Party/LwIP/src/core/ipv4\ip4.c ****       src_used = netif_ip4_addr(netif);
 1024              		.loc 1 809 9 discriminator 1 view .LVU339
 1025 000c 0A68     		ldr	r2, [r1]
 1026              	.LVL84:
 809:c:/Users/Black_Life/STM32Cube/Repository/STM32Cube_FW_F4_V1.26.2/Middlewares/Third_Party/LwIP/src/core/ipv4\ip4.c ****       src_used = netif_ip4_addr(netif);
 1027              		.loc 1 809 9 discriminator 1 view .LVU340
 1028 000e 02B9     		cbnz	r2, .L90
 1029              	.L91:
 810:c:/Users/Black_Life/STM32Cube/Repository/STM32Cube_FW_F4_V1.26.2/Middlewares/Third_Party/LwIP/src/core/ipv4\ip4.c ****     }
 1030              		.loc 1 810 7 is_stmt 1 view .LVU341
 810:c:/Users/Black_Life/STM32Cube/Repository/STM32Cube_FW_F4_V1.26.2/Middlewares/Third_Party/LwIP/src/core/ipv4\ip4.c ****     }
 1031              		.loc 1 810 16 is_stmt 0 view .LVU342
 1032 0010 211D     		adds	r1, r4, #4
 1033              	.LVL85:
 1034              	.L90:
 818:c:/Users/Black_Life/STM32Cube/Repository/STM32Cube_FW_F4_V1.26.2/Middlewares/Third_Party/LwIP/src/core/ipv4\ip4.c **** #endif /* IP_OPTIONS_SEND */
 1035              		.loc 1 818 3 is_stmt 1 view .LVU343
 818:c:/Users/Black_Life/STM32Cube/Repository/STM32Cube_FW_F4_V1.26.2/Middlewares/Third_Party/LwIP/src/core/ipv4\ip4.c **** #endif /* IP_OPTIONS_SEND */
 1036              		.loc 1 818 10 is_stmt 0 view .LVU344
 1037 0012 0294     		str	r4, [sp, #8]
 1038 0014 9DF81C20 		ldrb	r2, [sp, #28]	@ zero_extendqisi2
 1039 0018 0192     		str	r2, [sp, #4]
 1040 001a 9DF81820 		ldrb	r2, [sp, #24]	@ zero_extendqisi2
 1041 001e 0092     		str	r2, [sp]
 1042 0020 6246     		mov	r2, ip
 1043 0022 FFF7FEFF 		bl	ip4_output_if_src
 1044              	.LVL86:
 820:c:/Users/Black_Life/STM32Cube/Repository/STM32Cube_FW_F4_V1.26.2/Middlewares/Third_Party/LwIP/src/core/ipv4\ip4.c **** 
 1045              		.loc 1 820 1 view .LVU345
 1046 0026 04B0     		add	sp, sp, #16
 1047              	.LCFI12:
 1048              		.cfi_def_cfa_offset 8
 1049              		@ sp needed
 1050 0028 10BD     		pop	{r4, pc}
 820:c:/Users/Black_Life/STM32Cube/Repository/STM32Cube_FW_F4_V1.26.2/Middlewares/Third_Party/LwIP/src/core/ipv4\ip4.c **** 
 1051              		.loc 1 820 1 view .LVU346
 1052              		.cfi_endproc
 1053              	.LFE159:
 1055              		.section	.text.ip4_output,"ax",%progbits
 1056              		.align	1
 1057              		.global	ip4_output
 1058              		.syntax unified
 1059              		.thumb
 1060              		.thumb_func
 1062              	ip4_output:
 1063              	.LVL87:
ARM GAS  C:\Users\BLACK_~1\AppData\Local\Temp\cct9trHa.s 			page 42


 1064              	.LFB161:
1009:c:/Users/Black_Life/STM32Cube/Repository/STM32Cube_FW_F4_V1.26.2/Middlewares/Third_Party/LwIP/src/core/ipv4\ip4.c **** 
1010:c:/Users/Black_Life/STM32Cube/Repository/STM32Cube_FW_F4_V1.26.2/Middlewares/Third_Party/LwIP/src/core/ipv4\ip4.c **** /**
1011:c:/Users/Black_Life/STM32Cube/Repository/STM32Cube_FW_F4_V1.26.2/Middlewares/Third_Party/LwIP/src/core/ipv4\ip4.c ****  * Simple interface to ip_output_if. It finds the outgoing network
1012:c:/Users/Black_Life/STM32Cube/Repository/STM32Cube_FW_F4_V1.26.2/Middlewares/Third_Party/LwIP/src/core/ipv4\ip4.c ****  * interface and calls upon ip_output_if to do the actual work.
1013:c:/Users/Black_Life/STM32Cube/Repository/STM32Cube_FW_F4_V1.26.2/Middlewares/Third_Party/LwIP/src/core/ipv4\ip4.c ****  *
1014:c:/Users/Black_Life/STM32Cube/Repository/STM32Cube_FW_F4_V1.26.2/Middlewares/Third_Party/LwIP/src/core/ipv4\ip4.c ****  * @param p the packet to send (p->payload points to the data, e.g. next
1015:c:/Users/Black_Life/STM32Cube/Repository/STM32Cube_FW_F4_V1.26.2/Middlewares/Third_Party/LwIP/src/core/ipv4\ip4.c ****             protocol header; if dest == LWIP_IP_HDRINCL, p already includes an
1016:c:/Users/Black_Life/STM32Cube/Repository/STM32Cube_FW_F4_V1.26.2/Middlewares/Third_Party/LwIP/src/core/ipv4\ip4.c ****             IP header and p->payload points to that IP header)
1017:c:/Users/Black_Life/STM32Cube/Repository/STM32Cube_FW_F4_V1.26.2/Middlewares/Third_Party/LwIP/src/core/ipv4\ip4.c ****  * @param src the source IP address to send from (if src == IP4_ADDR_ANY, the
1018:c:/Users/Black_Life/STM32Cube/Repository/STM32Cube_FW_F4_V1.26.2/Middlewares/Third_Party/LwIP/src/core/ipv4\ip4.c ****  *         IP  address of the netif used to send is used as source address)
1019:c:/Users/Black_Life/STM32Cube/Repository/STM32Cube_FW_F4_V1.26.2/Middlewares/Third_Party/LwIP/src/core/ipv4\ip4.c ****  * @param dest the destination IP address to send the packet to
1020:c:/Users/Black_Life/STM32Cube/Repository/STM32Cube_FW_F4_V1.26.2/Middlewares/Third_Party/LwIP/src/core/ipv4\ip4.c ****  * @param ttl the TTL value to be set in the IP header
1021:c:/Users/Black_Life/STM32Cube/Repository/STM32Cube_FW_F4_V1.26.2/Middlewares/Third_Party/LwIP/src/core/ipv4\ip4.c ****  * @param tos the TOS value to be set in the IP header
1022:c:/Users/Black_Life/STM32Cube/Repository/STM32Cube_FW_F4_V1.26.2/Middlewares/Third_Party/LwIP/src/core/ipv4\ip4.c ****  * @param proto the PROTOCOL to be set in the IP header
1023:c:/Users/Black_Life/STM32Cube/Repository/STM32Cube_FW_F4_V1.26.2/Middlewares/Third_Party/LwIP/src/core/ipv4\ip4.c ****  *
1024:c:/Users/Black_Life/STM32Cube/Repository/STM32Cube_FW_F4_V1.26.2/Middlewares/Third_Party/LwIP/src/core/ipv4\ip4.c ****  * @return ERR_RTE if no route is found
1025:c:/Users/Black_Life/STM32Cube/Repository/STM32Cube_FW_F4_V1.26.2/Middlewares/Third_Party/LwIP/src/core/ipv4\ip4.c ****  *         see ip_output_if() for more return values
1026:c:/Users/Black_Life/STM32Cube/Repository/STM32Cube_FW_F4_V1.26.2/Middlewares/Third_Party/LwIP/src/core/ipv4\ip4.c ****  */
1027:c:/Users/Black_Life/STM32Cube/Repository/STM32Cube_FW_F4_V1.26.2/Middlewares/Third_Party/LwIP/src/core/ipv4\ip4.c **** err_t
1028:c:/Users/Black_Life/STM32Cube/Repository/STM32Cube_FW_F4_V1.26.2/Middlewares/Third_Party/LwIP/src/core/ipv4\ip4.c **** ip4_output(struct pbuf *p, const ip4_addr_t *src, const ip4_addr_t *dest,
1029:c:/Users/Black_Life/STM32Cube/Repository/STM32Cube_FW_F4_V1.26.2/Middlewares/Third_Party/LwIP/src/core/ipv4\ip4.c ****            u8_t ttl, u8_t tos, u8_t proto)
1030:c:/Users/Black_Life/STM32Cube/Repository/STM32Cube_FW_F4_V1.26.2/Middlewares/Third_Party/LwIP/src/core/ipv4\ip4.c **** {
 1065              		.loc 1 1030 1 is_stmt 1 view -0
 1066              		.cfi_startproc
 1067              		@ args = 8, pretend = 0, frame = 0
 1068              		@ frame_needed = 0, uses_anonymous_args = 0
 1069              		.loc 1 1030 1 is_stmt 0 view .LVU348
 1070 0000 F0B5     		push	{r4, r5, r6, r7, lr}
 1071              	.LCFI13:
 1072              		.cfi_def_cfa_offset 20
 1073              		.cfi_offset 4, -20
 1074              		.cfi_offset 5, -16
 1075              		.cfi_offset 6, -12
 1076              		.cfi_offset 7, -8
 1077              		.cfi_offset 14, -4
 1078 0002 85B0     		sub	sp, sp, #20
 1079              	.LCFI14:
 1080              		.cfi_def_cfa_offset 40
 1081 0004 0446     		mov	r4, r0
 1082 0006 0F46     		mov	r7, r1
 1083 0008 1546     		mov	r5, r2
 1084 000a 1E46     		mov	r6, r3
1031:c:/Users/Black_Life/STM32Cube/Repository/STM32Cube_FW_F4_V1.26.2/Middlewares/Third_Party/LwIP/src/core/ipv4\ip4.c ****   struct netif *netif;
 1085              		.loc 1 1031 3 is_stmt 1 view .LVU349
1032:c:/Users/Black_Life/STM32Cube/Repository/STM32Cube_FW_F4_V1.26.2/Middlewares/Third_Party/LwIP/src/core/ipv4\ip4.c **** 
1033:c:/Users/Black_Life/STM32Cube/Repository/STM32Cube_FW_F4_V1.26.2/Middlewares/Third_Party/LwIP/src/core/ipv4\ip4.c ****   LWIP_IP_CHECK_PBUF_REF_COUNT_FOR_TX(p);
 1086              		.loc 1 1033 3 view .LVU350
 1087              		.loc 1 1033 3 view .LVU351
 1088 000c 827B     		ldrb	r2, [r0, #14]	@ zero_extendqisi2
 1089              	.LVL88:
 1090              		.loc 1 1033 3 is_stmt 0 view .LVU352
 1091 000e 012A     		cmp	r2, #1
 1092 0010 12D1     		bne	.L98
 1093              	.LVL89:
 1094              	.L94:
 1095              		.loc 1 1033 3 is_stmt 1 discriminator 3 view .LVU353
ARM GAS  C:\Users\BLACK_~1\AppData\Local\Temp\cct9trHa.s 			page 43


 1096              		.loc 1 1033 3 discriminator 3 view .LVU354
1034:c:/Users/Black_Life/STM32Cube/Repository/STM32Cube_FW_F4_V1.26.2/Middlewares/Third_Party/LwIP/src/core/ipv4\ip4.c **** 
1035:c:/Users/Black_Life/STM32Cube/Repository/STM32Cube_FW_F4_V1.26.2/Middlewares/Third_Party/LwIP/src/core/ipv4\ip4.c ****   if ((netif = ip4_route_src(src, dest)) == NULL) {
 1097              		.loc 1 1035 3 discriminator 3 view .LVU355
 1098              		.loc 1 1035 16 is_stmt 0 discriminator 3 view .LVU356
 1099 0012 2846     		mov	r0, r5
 1100 0014 FFF7FEFF 		bl	ip4_route
 1101              	.LVL90:
 1102              		.loc 1 1035 6 discriminator 3 view .LVU357
 1103 0018 B0B1     		cbz	r0, .L96
1036:c:/Users/Black_Life/STM32Cube/Repository/STM32Cube_FW_F4_V1.26.2/Middlewares/Third_Party/LwIP/src/core/ipv4\ip4.c ****     LWIP_DEBUGF(IP_DEBUG, ("ip4_output: No route to %"U16_F".%"U16_F".%"U16_F".%"U16_F"\n",
1037:c:/Users/Black_Life/STM32Cube/Repository/STM32Cube_FW_F4_V1.26.2/Middlewares/Third_Party/LwIP/src/core/ipv4\ip4.c ****                            ip4_addr1_16(dest), ip4_addr2_16(dest), ip4_addr3_16(dest), ip4_addr4_16
1038:c:/Users/Black_Life/STM32Cube/Repository/STM32Cube_FW_F4_V1.26.2/Middlewares/Third_Party/LwIP/src/core/ipv4\ip4.c ****     IP_STATS_INC(ip.rterr);
1039:c:/Users/Black_Life/STM32Cube/Repository/STM32Cube_FW_F4_V1.26.2/Middlewares/Third_Party/LwIP/src/core/ipv4\ip4.c ****     return ERR_RTE;
1040:c:/Users/Black_Life/STM32Cube/Repository/STM32Cube_FW_F4_V1.26.2/Middlewares/Third_Party/LwIP/src/core/ipv4\ip4.c ****   }
1041:c:/Users/Black_Life/STM32Cube/Repository/STM32Cube_FW_F4_V1.26.2/Middlewares/Third_Party/LwIP/src/core/ipv4\ip4.c **** 
1042:c:/Users/Black_Life/STM32Cube/Repository/STM32Cube_FW_F4_V1.26.2/Middlewares/Third_Party/LwIP/src/core/ipv4\ip4.c ****   return ip4_output_if(p, src, dest, ttl, tos, proto, netif);
 1104              		.loc 1 1042 3 is_stmt 1 view .LVU358
 1105              		.loc 1 1042 10 is_stmt 0 view .LVU359
 1106 001a 0290     		str	r0, [sp, #8]
 1107 001c 9DF82C30 		ldrb	r3, [sp, #44]	@ zero_extendqisi2
 1108 0020 0193     		str	r3, [sp, #4]
 1109 0022 9DF82830 		ldrb	r3, [sp, #40]	@ zero_extendqisi2
 1110 0026 0093     		str	r3, [sp]
 1111 0028 3346     		mov	r3, r6
 1112 002a 2A46     		mov	r2, r5
 1113 002c 3946     		mov	r1, r7
 1114 002e 2046     		mov	r0, r4
 1115              	.LVL91:
 1116              		.loc 1 1042 10 view .LVU360
 1117 0030 FFF7FEFF 		bl	ip4_output_if
 1118              	.LVL92:
 1119              	.L95:
1043:c:/Users/Black_Life/STM32Cube/Repository/STM32Cube_FW_F4_V1.26.2/Middlewares/Third_Party/LwIP/src/core/ipv4\ip4.c **** }
 1120              		.loc 1 1043 1 view .LVU361
 1121 0034 05B0     		add	sp, sp, #20
 1122              	.LCFI15:
 1123              		.cfi_remember_state
 1124              		.cfi_def_cfa_offset 20
 1125              		@ sp needed
 1126 0036 F0BD     		pop	{r4, r5, r6, r7, pc}
 1127              	.LVL93:
 1128              	.L98:
 1129              	.LCFI16:
 1130              		.cfi_restore_state
1033:c:/Users/Black_Life/STM32Cube/Repository/STM32Cube_FW_F4_V1.26.2/Middlewares/Third_Party/LwIP/src/core/ipv4\ip4.c **** 
 1131              		.loc 1 1033 3 is_stmt 1 discriminator 1 view .LVU362
1033:c:/Users/Black_Life/STM32Cube/Repository/STM32Cube_FW_F4_V1.26.2/Middlewares/Third_Party/LwIP/src/core/ipv4\ip4.c **** 
 1132              		.loc 1 1033 3 discriminator 1 view .LVU363
 1133 0038 054B     		ldr	r3, .L99
 1134              	.LVL94:
1033:c:/Users/Black_Life/STM32Cube/Repository/STM32Cube_FW_F4_V1.26.2/Middlewares/Third_Party/LwIP/src/core/ipv4\ip4.c **** 
 1135              		.loc 1 1033 3 is_stmt 0 discriminator 1 view .LVU364
 1136 003a 40F20942 		movw	r2, #1033
 1137 003e 0549     		ldr	r1, .L99+4
 1138              	.LVL95:
1033:c:/Users/Black_Life/STM32Cube/Repository/STM32Cube_FW_F4_V1.26.2/Middlewares/Third_Party/LwIP/src/core/ipv4\ip4.c **** 
ARM GAS  C:\Users\BLACK_~1\AppData\Local\Temp\cct9trHa.s 			page 44


 1139              		.loc 1 1033 3 discriminator 1 view .LVU365
 1140 0040 0548     		ldr	r0, .L99+8
 1141              	.LVL96:
1033:c:/Users/Black_Life/STM32Cube/Repository/STM32Cube_FW_F4_V1.26.2/Middlewares/Third_Party/LwIP/src/core/ipv4\ip4.c **** 
 1142              		.loc 1 1033 3 discriminator 1 view .LVU366
 1143 0042 FFF7FEFF 		bl	printf
 1144              	.LVL97:
 1145 0046 E4E7     		b	.L94
 1146              	.LVL98:
 1147              	.L96:
1039:c:/Users/Black_Life/STM32Cube/Repository/STM32Cube_FW_F4_V1.26.2/Middlewares/Third_Party/LwIP/src/core/ipv4\ip4.c ****   }
 1148              		.loc 1 1039 12 view .LVU367
 1149 0048 6FF00300 		mvn	r0, #3
 1150              	.LVL99:
1039:c:/Users/Black_Life/STM32Cube/Repository/STM32Cube_FW_F4_V1.26.2/Middlewares/Third_Party/LwIP/src/core/ipv4\ip4.c ****   }
 1151              		.loc 1 1039 12 view .LVU368
 1152 004c F2E7     		b	.L95
 1153              	.L100:
 1154 004e 00BF     		.align	2
 1155              	.L99:
 1156 0050 00000000 		.word	.LC0
 1157 0054 74000000 		.word	.LC1
 1158 0058 80000000 		.word	.LC2
 1159              		.cfi_endproc
 1160              	.LFE161:
 1162              		.section	.bss.ip_id,"aw",%nobits
 1163              		.align	1
 1164              		.set	.LANCHOR0,. + 0
 1167              	ip_id:
 1168 0000 0000     		.space	2
 1169              		.text
 1170              	.Letext0:
 1171              		.file 2 "e:\\gnu arm embedded toolchain\\10 2021.10\\arm-none-eabi\\include\\machine\\_default_typ
 1172              		.file 3 "e:\\gnu arm embedded toolchain\\10 2021.10\\arm-none-eabi\\include\\sys\\_stdint.h"
 1173              		.file 4 "c:/Users/Black_Life/STM32Cube/Repository/STM32Cube_FW_F4_V1.26.2/Middlewares/Third_Party/
 1174              		.file 5 "c:/Users/Black_Life/STM32Cube/Repository/STM32Cube_FW_F4_V1.26.2/Middlewares/Third_Party/
 1175              		.file 6 "c:/Users/Black_Life/STM32Cube/Repository/STM32Cube_FW_F4_V1.26.2/Middlewares/Third_Party/
 1176              		.file 7 "c:/Users/Black_Life/STM32Cube/Repository/STM32Cube_FW_F4_V1.26.2/Middlewares/Third_Party/
 1177              		.file 8 "c:/Users/Black_Life/STM32Cube/Repository/STM32Cube_FW_F4_V1.26.2/Middlewares/Third_Party/
 1178              		.file 9 "c:/Users/Black_Life/STM32Cube/Repository/STM32Cube_FW_F4_V1.26.2/Middlewares/Third_Party/
 1179              		.file 10 "c:/Users/Black_Life/STM32Cube/Repository/STM32Cube_FW_F4_V1.26.2/Middlewares/Third_Party
 1180              		.file 11 "c:/Users/Black_Life/STM32Cube/Repository/STM32Cube_FW_F4_V1.26.2/Middlewares/Third_Party
 1181              		.file 12 "c:/Users/Black_Life/STM32Cube/Repository/STM32Cube_FW_F4_V1.26.2/Middlewares/Third_Party
 1182              		.file 13 "c:/Users/Black_Life/STM32Cube/Repository/STM32Cube_FW_F4_V1.26.2/Middlewares/Third_Party
 1183              		.file 14 "c:/Users/Black_Life/STM32Cube/Repository/STM32Cube_FW_F4_V1.26.2/Middlewares/Third_Party
 1184              		.file 15 "c:/Users/Black_Life/STM32Cube/Repository/STM32Cube_FW_F4_V1.26.2/Middlewares/Third_Party
 1185              		.file 16 "e:\\gnu arm embedded toolchain\\10 2021.10\\arm-none-eabi\\include\\stdio.h"
 1186              		.file 17 "c:/Users/Black_Life/STM32Cube/Repository/STM32Cube_FW_F4_V1.26.2/Middlewares/Third_Party
 1187              		.file 18 "c:/Users/Black_Life/STM32Cube/Repository/STM32Cube_FW_F4_V1.26.2/Middlewares/Third_Party
 1188              		.file 19 "c:/Users/Black_Life/STM32Cube/Repository/STM32Cube_FW_F4_V1.26.2/Middlewares/Third_Party
 1189              		.file 20 "c:/Users/Black_Life/STM32Cube/Repository/STM32Cube_FW_F4_V1.26.2/Middlewares/Third_Party
ARM GAS  C:\Users\BLACK_~1\AppData\Local\Temp\cct9trHa.s 			page 45


DEFINED SYMBOLS
                            *ABS*:00000000 ip4.c
C:\Users\BLACK_~1\AppData\Local\Temp\cct9trHa.s:20     .text.ip4_input_accept:00000000 $t
C:\Users\BLACK_~1\AppData\Local\Temp\cct9trHa.s:25     .text.ip4_input_accept:00000000 ip4_input_accept
C:\Users\BLACK_~1\AppData\Local\Temp\cct9trHa.s:91     .text.ip4_input_accept:00000030 $d
C:\Users\BLACK_~1\AppData\Local\Temp\cct9trHa.s:96     .text.ip4_route:00000000 $t
C:\Users\BLACK_~1\AppData\Local\Temp\cct9trHa.s:102    .text.ip4_route:00000000 ip4_route
C:\Users\BLACK_~1\AppData\Local\Temp\cct9trHa.s:260    .text.ip4_route:000000a4 $d
C:\Users\BLACK_~1\AppData\Local\Temp\cct9trHa.s:266    .text.ip4_input:00000000 $t
C:\Users\BLACK_~1\AppData\Local\Temp\cct9trHa.s:272    .text.ip4_input:00000000 ip4_input
C:\Users\BLACK_~1\AppData\Local\Temp\cct9trHa.s:717    .text.ip4_input:000001b0 $d
C:\Users\BLACK_~1\AppData\Local\Temp\cct9trHa.s:723    .rodata.ip4_output_if_src.str1.4:00000000 $d
C:\Users\BLACK_~1\AppData\Local\Temp\cct9trHa.s:738    .text.ip4_output_if_src:00000000 $t
C:\Users\BLACK_~1\AppData\Local\Temp\cct9trHa.s:744    .text.ip4_output_if_src:00000000 ip4_output_if_src
C:\Users\BLACK_~1\AppData\Local\Temp\cct9trHa.s:982    .text.ip4_output_if_src:000000e8 $d
C:\Users\BLACK_~1\AppData\Local\Temp\cct9trHa.s:992    .text.ip4_output_if:00000000 $t
C:\Users\BLACK_~1\AppData\Local\Temp\cct9trHa.s:998    .text.ip4_output_if:00000000 ip4_output_if
C:\Users\BLACK_~1\AppData\Local\Temp\cct9trHa.s:1056   .text.ip4_output:00000000 $t
C:\Users\BLACK_~1\AppData\Local\Temp\cct9trHa.s:1062   .text.ip4_output:00000000 ip4_output
C:\Users\BLACK_~1\AppData\Local\Temp\cct9trHa.s:1156   .text.ip4_output:00000050 $d
C:\Users\BLACK_~1\AppData\Local\Temp\cct9trHa.s:1163   .bss.ip_id:00000000 $d
C:\Users\BLACK_~1\AppData\Local\Temp\cct9trHa.s:1167   .bss.ip_id:00000000 ip_id

UNDEFINED SYMBOLS
ip4_addr_isbroadcast_u32
ip_data
netif_list
netif_default
pbuf_free
lwip_htons
pbuf_realloc
ip4_reass
pbuf_remove_header
udp_input
tcp_input
icmp_input
pbuf_header_force
icmp_dest_unreach
pbuf_add_header
printf
ip4_frag
ip_addr_any
