ARM GAS  /var/folders/k2/cd9bl_j17z77g23y6ffqb_400000gn/T//ccJwgoEp.s 			page 1


   1              		.cpu cortex-m4
   2              		.eabi_attribute 27, 1
   3              		.eabi_attribute 28, 1
   4              		.eabi_attribute 20, 1
   5              		.eabi_attribute 21, 1
   6              		.eabi_attribute 23, 3
   7              		.eabi_attribute 24, 1
   8              		.eabi_attribute 25, 1
   9              		.eabi_attribute 26, 1
  10              		.eabi_attribute 30, 1
  11              		.eabi_attribute 34, 1
  12              		.eabi_attribute 18, 4
  13              		.file	"ip4.c"
  14              		.text
  15              	.Ltext0:
  16              		.cfi_sections	.debug_frame
  17              		.section	.text.ip4_input_accept,"ax",%progbits
  18              		.align	1
  19              		.arch armv7e-m
  20              		.syntax unified
  21              		.thumb
  22              		.thumb_func
  23              		.fpu fpv4-sp-d16
  25              	ip4_input_accept:
  26              	.LVL0:
  27              	.LFB156:
  28              		.file 1 "/Users/nhantt/STM32Cube/Repository/STM32Cube_FW_F4_V1.26.0/Middlewares/Third_Party/LwIP/s
   1:/Users/nhantt/STM32Cube/Repository/STM32Cube_FW_F4_V1.26.0/Middlewares/Third_Party/LwIP/src/core/ipv4/ip4.c **** /**
   2:/Users/nhantt/STM32Cube/Repository/STM32Cube_FW_F4_V1.26.0/Middlewares/Third_Party/LwIP/src/core/ipv4/ip4.c ****  * @file
   3:/Users/nhantt/STM32Cube/Repository/STM32Cube_FW_F4_V1.26.0/Middlewares/Third_Party/LwIP/src/core/ipv4/ip4.c ****  * This is the IPv4 layer implementation for incoming and outgoing IP traffic.
   4:/Users/nhantt/STM32Cube/Repository/STM32Cube_FW_F4_V1.26.0/Middlewares/Third_Party/LwIP/src/core/ipv4/ip4.c ****  *
   5:/Users/nhantt/STM32Cube/Repository/STM32Cube_FW_F4_V1.26.0/Middlewares/Third_Party/LwIP/src/core/ipv4/ip4.c ****  * @see ip_frag.c
   6:/Users/nhantt/STM32Cube/Repository/STM32Cube_FW_F4_V1.26.0/Middlewares/Third_Party/LwIP/src/core/ipv4/ip4.c ****  *
   7:/Users/nhantt/STM32Cube/Repository/STM32Cube_FW_F4_V1.26.0/Middlewares/Third_Party/LwIP/src/core/ipv4/ip4.c ****  */
   8:/Users/nhantt/STM32Cube/Repository/STM32Cube_FW_F4_V1.26.0/Middlewares/Third_Party/LwIP/src/core/ipv4/ip4.c **** 
   9:/Users/nhantt/STM32Cube/Repository/STM32Cube_FW_F4_V1.26.0/Middlewares/Third_Party/LwIP/src/core/ipv4/ip4.c **** /*
  10:/Users/nhantt/STM32Cube/Repository/STM32Cube_FW_F4_V1.26.0/Middlewares/Third_Party/LwIP/src/core/ipv4/ip4.c ****  * Copyright (c) 2001-2004 Swedish Institute of Computer Science.
  11:/Users/nhantt/STM32Cube/Repository/STM32Cube_FW_F4_V1.26.0/Middlewares/Third_Party/LwIP/src/core/ipv4/ip4.c ****  * All rights reserved.
  12:/Users/nhantt/STM32Cube/Repository/STM32Cube_FW_F4_V1.26.0/Middlewares/Third_Party/LwIP/src/core/ipv4/ip4.c ****  *
  13:/Users/nhantt/STM32Cube/Repository/STM32Cube_FW_F4_V1.26.0/Middlewares/Third_Party/LwIP/src/core/ipv4/ip4.c ****  * Redistribution and use in source and binary forms, with or without modification,
  14:/Users/nhantt/STM32Cube/Repository/STM32Cube_FW_F4_V1.26.0/Middlewares/Third_Party/LwIP/src/core/ipv4/ip4.c ****  * are permitted provided that the following conditions are met:
  15:/Users/nhantt/STM32Cube/Repository/STM32Cube_FW_F4_V1.26.0/Middlewares/Third_Party/LwIP/src/core/ipv4/ip4.c ****  *
  16:/Users/nhantt/STM32Cube/Repository/STM32Cube_FW_F4_V1.26.0/Middlewares/Third_Party/LwIP/src/core/ipv4/ip4.c ****  * 1. Redistributions of source code must retain the above copyright notice,
  17:/Users/nhantt/STM32Cube/Repository/STM32Cube_FW_F4_V1.26.0/Middlewares/Third_Party/LwIP/src/core/ipv4/ip4.c ****  *    this list of conditions and the following disclaimer.
  18:/Users/nhantt/STM32Cube/Repository/STM32Cube_FW_F4_V1.26.0/Middlewares/Third_Party/LwIP/src/core/ipv4/ip4.c ****  * 2. Redistributions in binary form must reproduce the above copyright notice,
  19:/Users/nhantt/STM32Cube/Repository/STM32Cube_FW_F4_V1.26.0/Middlewares/Third_Party/LwIP/src/core/ipv4/ip4.c ****  *    this list of conditions and the following disclaimer in the documentation
  20:/Users/nhantt/STM32Cube/Repository/STM32Cube_FW_F4_V1.26.0/Middlewares/Third_Party/LwIP/src/core/ipv4/ip4.c ****  *    and/or other materials provided with the distribution.
  21:/Users/nhantt/STM32Cube/Repository/STM32Cube_FW_F4_V1.26.0/Middlewares/Third_Party/LwIP/src/core/ipv4/ip4.c ****  * 3. The name of the author may not be used to endorse or promote products
  22:/Users/nhantt/STM32Cube/Repository/STM32Cube_FW_F4_V1.26.0/Middlewares/Third_Party/LwIP/src/core/ipv4/ip4.c ****  *    derived from this software without specific prior written permission.
  23:/Users/nhantt/STM32Cube/Repository/STM32Cube_FW_F4_V1.26.0/Middlewares/Third_Party/LwIP/src/core/ipv4/ip4.c ****  *
  24:/Users/nhantt/STM32Cube/Repository/STM32Cube_FW_F4_V1.26.0/Middlewares/Third_Party/LwIP/src/core/ipv4/ip4.c ****  * THIS SOFTWARE IS PROVIDED BY THE AUTHOR ``AS IS'' AND ANY EXPRESS OR IMPLIED
  25:/Users/nhantt/STM32Cube/Repository/STM32Cube_FW_F4_V1.26.0/Middlewares/Third_Party/LwIP/src/core/ipv4/ip4.c ****  * WARRANTIES, INCLUDING, BUT NOT LIMITED TO, THE IMPLIED WARRANTIES OF
  26:/Users/nhantt/STM32Cube/Repository/STM32Cube_FW_F4_V1.26.0/Middlewares/Third_Party/LwIP/src/core/ipv4/ip4.c ****  * MERCHANTABILITY AND FITNESS FOR A PARTICULAR PURPOSE ARE DISCLAIMED. IN NO EVENT
  27:/Users/nhantt/STM32Cube/Repository/STM32Cube_FW_F4_V1.26.0/Middlewares/Third_Party/LwIP/src/core/ipv4/ip4.c ****  * SHALL THE AUTHOR BE LIABLE FOR ANY DIRECT, INDIRECT, INCIDENTAL, SPECIAL,
  28:/Users/nhantt/STM32Cube/Repository/STM32Cube_FW_F4_V1.26.0/Middlewares/Third_Party/LwIP/src/core/ipv4/ip4.c ****  * EXEMPLARY, OR CONSEQUENTIAL DAMAGES (INCLUDING, BUT NOT LIMITED TO, PROCUREMENT
  29:/Users/nhantt/STM32Cube/Repository/STM32Cube_FW_F4_V1.26.0/Middlewares/Third_Party/LwIP/src/core/ipv4/ip4.c ****  * OF SUBSTITUTE GOODS OR SERVICES; LOSS OF USE, DATA, OR PROFITS; OR BUSINESS
  30:/Users/nhantt/STM32Cube/Repository/STM32Cube_FW_F4_V1.26.0/Middlewares/Third_Party/LwIP/src/core/ipv4/ip4.c ****  * INTERRUPTION) HOWEVER CAUSED AND ON ANY THEORY OF LIABILITY, WHETHER IN
ARM GAS  /var/folders/k2/cd9bl_j17z77g23y6ffqb_400000gn/T//ccJwgoEp.s 			page 2


  31:/Users/nhantt/STM32Cube/Repository/STM32Cube_FW_F4_V1.26.0/Middlewares/Third_Party/LwIP/src/core/ipv4/ip4.c ****  * CONTRACT, STRICT LIABILITY, OR TORT (INCLUDING NEGLIGENCE OR OTHERWISE) ARISING
  32:/Users/nhantt/STM32Cube/Repository/STM32Cube_FW_F4_V1.26.0/Middlewares/Third_Party/LwIP/src/core/ipv4/ip4.c ****  * IN ANY WAY OUT OF THE USE OF THIS SOFTWARE, EVEN IF ADVISED OF THE POSSIBILITY
  33:/Users/nhantt/STM32Cube/Repository/STM32Cube_FW_F4_V1.26.0/Middlewares/Third_Party/LwIP/src/core/ipv4/ip4.c ****  * OF SUCH DAMAGE.
  34:/Users/nhantt/STM32Cube/Repository/STM32Cube_FW_F4_V1.26.0/Middlewares/Third_Party/LwIP/src/core/ipv4/ip4.c ****  *
  35:/Users/nhantt/STM32Cube/Repository/STM32Cube_FW_F4_V1.26.0/Middlewares/Third_Party/LwIP/src/core/ipv4/ip4.c ****  * This file is part of the lwIP TCP/IP stack.
  36:/Users/nhantt/STM32Cube/Repository/STM32Cube_FW_F4_V1.26.0/Middlewares/Third_Party/LwIP/src/core/ipv4/ip4.c ****  *
  37:/Users/nhantt/STM32Cube/Repository/STM32Cube_FW_F4_V1.26.0/Middlewares/Third_Party/LwIP/src/core/ipv4/ip4.c ****  * Author: Adam Dunkels <adam@sics.se>
  38:/Users/nhantt/STM32Cube/Repository/STM32Cube_FW_F4_V1.26.0/Middlewares/Third_Party/LwIP/src/core/ipv4/ip4.c ****  *
  39:/Users/nhantt/STM32Cube/Repository/STM32Cube_FW_F4_V1.26.0/Middlewares/Third_Party/LwIP/src/core/ipv4/ip4.c ****  */
  40:/Users/nhantt/STM32Cube/Repository/STM32Cube_FW_F4_V1.26.0/Middlewares/Third_Party/LwIP/src/core/ipv4/ip4.c **** 
  41:/Users/nhantt/STM32Cube/Repository/STM32Cube_FW_F4_V1.26.0/Middlewares/Third_Party/LwIP/src/core/ipv4/ip4.c **** #include "lwip/opt.h"
  42:/Users/nhantt/STM32Cube/Repository/STM32Cube_FW_F4_V1.26.0/Middlewares/Third_Party/LwIP/src/core/ipv4/ip4.c **** 
  43:/Users/nhantt/STM32Cube/Repository/STM32Cube_FW_F4_V1.26.0/Middlewares/Third_Party/LwIP/src/core/ipv4/ip4.c **** #if LWIP_IPV4
  44:/Users/nhantt/STM32Cube/Repository/STM32Cube_FW_F4_V1.26.0/Middlewares/Third_Party/LwIP/src/core/ipv4/ip4.c **** 
  45:/Users/nhantt/STM32Cube/Repository/STM32Cube_FW_F4_V1.26.0/Middlewares/Third_Party/LwIP/src/core/ipv4/ip4.c **** #include "lwip/ip.h"
  46:/Users/nhantt/STM32Cube/Repository/STM32Cube_FW_F4_V1.26.0/Middlewares/Third_Party/LwIP/src/core/ipv4/ip4.c **** #include "lwip/def.h"
  47:/Users/nhantt/STM32Cube/Repository/STM32Cube_FW_F4_V1.26.0/Middlewares/Third_Party/LwIP/src/core/ipv4/ip4.c **** #include "lwip/mem.h"
  48:/Users/nhantt/STM32Cube/Repository/STM32Cube_FW_F4_V1.26.0/Middlewares/Third_Party/LwIP/src/core/ipv4/ip4.c **** #include "lwip/ip4_frag.h"
  49:/Users/nhantt/STM32Cube/Repository/STM32Cube_FW_F4_V1.26.0/Middlewares/Third_Party/LwIP/src/core/ipv4/ip4.c **** #include "lwip/inet_chksum.h"
  50:/Users/nhantt/STM32Cube/Repository/STM32Cube_FW_F4_V1.26.0/Middlewares/Third_Party/LwIP/src/core/ipv4/ip4.c **** #include "lwip/netif.h"
  51:/Users/nhantt/STM32Cube/Repository/STM32Cube_FW_F4_V1.26.0/Middlewares/Third_Party/LwIP/src/core/ipv4/ip4.c **** #include "lwip/icmp.h"
  52:/Users/nhantt/STM32Cube/Repository/STM32Cube_FW_F4_V1.26.0/Middlewares/Third_Party/LwIP/src/core/ipv4/ip4.c **** #include "lwip/igmp.h"
  53:/Users/nhantt/STM32Cube/Repository/STM32Cube_FW_F4_V1.26.0/Middlewares/Third_Party/LwIP/src/core/ipv4/ip4.c **** #include "lwip/priv/raw_priv.h"
  54:/Users/nhantt/STM32Cube/Repository/STM32Cube_FW_F4_V1.26.0/Middlewares/Third_Party/LwIP/src/core/ipv4/ip4.c **** #include "lwip/udp.h"
  55:/Users/nhantt/STM32Cube/Repository/STM32Cube_FW_F4_V1.26.0/Middlewares/Third_Party/LwIP/src/core/ipv4/ip4.c **** #include "lwip/priv/tcp_priv.h"
  56:/Users/nhantt/STM32Cube/Repository/STM32Cube_FW_F4_V1.26.0/Middlewares/Third_Party/LwIP/src/core/ipv4/ip4.c **** #include "lwip/autoip.h"
  57:/Users/nhantt/STM32Cube/Repository/STM32Cube_FW_F4_V1.26.0/Middlewares/Third_Party/LwIP/src/core/ipv4/ip4.c **** #include "lwip/stats.h"
  58:/Users/nhantt/STM32Cube/Repository/STM32Cube_FW_F4_V1.26.0/Middlewares/Third_Party/LwIP/src/core/ipv4/ip4.c **** #include "lwip/prot/iana.h"
  59:/Users/nhantt/STM32Cube/Repository/STM32Cube_FW_F4_V1.26.0/Middlewares/Third_Party/LwIP/src/core/ipv4/ip4.c **** 
  60:/Users/nhantt/STM32Cube/Repository/STM32Cube_FW_F4_V1.26.0/Middlewares/Third_Party/LwIP/src/core/ipv4/ip4.c **** #include <string.h>
  61:/Users/nhantt/STM32Cube/Repository/STM32Cube_FW_F4_V1.26.0/Middlewares/Third_Party/LwIP/src/core/ipv4/ip4.c **** 
  62:/Users/nhantt/STM32Cube/Repository/STM32Cube_FW_F4_V1.26.0/Middlewares/Third_Party/LwIP/src/core/ipv4/ip4.c **** #ifdef LWIP_HOOK_FILENAME
  63:/Users/nhantt/STM32Cube/Repository/STM32Cube_FW_F4_V1.26.0/Middlewares/Third_Party/LwIP/src/core/ipv4/ip4.c **** #include LWIP_HOOK_FILENAME
  64:/Users/nhantt/STM32Cube/Repository/STM32Cube_FW_F4_V1.26.0/Middlewares/Third_Party/LwIP/src/core/ipv4/ip4.c **** #endif
  65:/Users/nhantt/STM32Cube/Repository/STM32Cube_FW_F4_V1.26.0/Middlewares/Third_Party/LwIP/src/core/ipv4/ip4.c **** 
  66:/Users/nhantt/STM32Cube/Repository/STM32Cube_FW_F4_V1.26.0/Middlewares/Third_Party/LwIP/src/core/ipv4/ip4.c **** /** Set this to 0 in the rare case of wanting to call an extra function to
  67:/Users/nhantt/STM32Cube/Repository/STM32Cube_FW_F4_V1.26.0/Middlewares/Third_Party/LwIP/src/core/ipv4/ip4.c ****  * generate the IP checksum (in contrast to calculating it on-the-fly). */
  68:/Users/nhantt/STM32Cube/Repository/STM32Cube_FW_F4_V1.26.0/Middlewares/Third_Party/LwIP/src/core/ipv4/ip4.c **** #ifndef LWIP_INLINE_IP_CHKSUM
  69:/Users/nhantt/STM32Cube/Repository/STM32Cube_FW_F4_V1.26.0/Middlewares/Third_Party/LwIP/src/core/ipv4/ip4.c **** #if LWIP_CHECKSUM_CTRL_PER_NETIF
  70:/Users/nhantt/STM32Cube/Repository/STM32Cube_FW_F4_V1.26.0/Middlewares/Third_Party/LwIP/src/core/ipv4/ip4.c **** #define LWIP_INLINE_IP_CHKSUM   0
  71:/Users/nhantt/STM32Cube/Repository/STM32Cube_FW_F4_V1.26.0/Middlewares/Third_Party/LwIP/src/core/ipv4/ip4.c **** #else /* LWIP_CHECKSUM_CTRL_PER_NETIF */
  72:/Users/nhantt/STM32Cube/Repository/STM32Cube_FW_F4_V1.26.0/Middlewares/Third_Party/LwIP/src/core/ipv4/ip4.c **** #define LWIP_INLINE_IP_CHKSUM   1
  73:/Users/nhantt/STM32Cube/Repository/STM32Cube_FW_F4_V1.26.0/Middlewares/Third_Party/LwIP/src/core/ipv4/ip4.c **** #endif /* LWIP_CHECKSUM_CTRL_PER_NETIF */
  74:/Users/nhantt/STM32Cube/Repository/STM32Cube_FW_F4_V1.26.0/Middlewares/Third_Party/LwIP/src/core/ipv4/ip4.c **** #endif
  75:/Users/nhantt/STM32Cube/Repository/STM32Cube_FW_F4_V1.26.0/Middlewares/Third_Party/LwIP/src/core/ipv4/ip4.c **** 
  76:/Users/nhantt/STM32Cube/Repository/STM32Cube_FW_F4_V1.26.0/Middlewares/Third_Party/LwIP/src/core/ipv4/ip4.c **** #if LWIP_INLINE_IP_CHKSUM && CHECKSUM_GEN_IP
  77:/Users/nhantt/STM32Cube/Repository/STM32Cube_FW_F4_V1.26.0/Middlewares/Third_Party/LwIP/src/core/ipv4/ip4.c **** #define CHECKSUM_GEN_IP_INLINE  1
  78:/Users/nhantt/STM32Cube/Repository/STM32Cube_FW_F4_V1.26.0/Middlewares/Third_Party/LwIP/src/core/ipv4/ip4.c **** #else
  79:/Users/nhantt/STM32Cube/Repository/STM32Cube_FW_F4_V1.26.0/Middlewares/Third_Party/LwIP/src/core/ipv4/ip4.c **** #define CHECKSUM_GEN_IP_INLINE  0
  80:/Users/nhantt/STM32Cube/Repository/STM32Cube_FW_F4_V1.26.0/Middlewares/Third_Party/LwIP/src/core/ipv4/ip4.c **** #endif
  81:/Users/nhantt/STM32Cube/Repository/STM32Cube_FW_F4_V1.26.0/Middlewares/Third_Party/LwIP/src/core/ipv4/ip4.c **** 
  82:/Users/nhantt/STM32Cube/Repository/STM32Cube_FW_F4_V1.26.0/Middlewares/Third_Party/LwIP/src/core/ipv4/ip4.c **** #if LWIP_DHCP || defined(LWIP_IP_ACCEPT_UDP_PORT)
  83:/Users/nhantt/STM32Cube/Repository/STM32Cube_FW_F4_V1.26.0/Middlewares/Third_Party/LwIP/src/core/ipv4/ip4.c **** #define IP_ACCEPT_LINK_LAYER_ADDRESSING 1
  84:/Users/nhantt/STM32Cube/Repository/STM32Cube_FW_F4_V1.26.0/Middlewares/Third_Party/LwIP/src/core/ipv4/ip4.c **** 
  85:/Users/nhantt/STM32Cube/Repository/STM32Cube_FW_F4_V1.26.0/Middlewares/Third_Party/LwIP/src/core/ipv4/ip4.c **** /** Some defines for DHCP to let link-layer-addressed packets through while the
  86:/Users/nhantt/STM32Cube/Repository/STM32Cube_FW_F4_V1.26.0/Middlewares/Third_Party/LwIP/src/core/ipv4/ip4.c ****  * netif is down.
  87:/Users/nhantt/STM32Cube/Repository/STM32Cube_FW_F4_V1.26.0/Middlewares/Third_Party/LwIP/src/core/ipv4/ip4.c ****  * To use this in your own application/protocol, define LWIP_IP_ACCEPT_UDP_PORT(port)
ARM GAS  /var/folders/k2/cd9bl_j17z77g23y6ffqb_400000gn/T//ccJwgoEp.s 			page 3


  88:/Users/nhantt/STM32Cube/Repository/STM32Cube_FW_F4_V1.26.0/Middlewares/Third_Party/LwIP/src/core/ipv4/ip4.c ****  * to return 1 if the port is accepted and 0 if the port is not accepted.
  89:/Users/nhantt/STM32Cube/Repository/STM32Cube_FW_F4_V1.26.0/Middlewares/Third_Party/LwIP/src/core/ipv4/ip4.c ****  */
  90:/Users/nhantt/STM32Cube/Repository/STM32Cube_FW_F4_V1.26.0/Middlewares/Third_Party/LwIP/src/core/ipv4/ip4.c **** #if LWIP_DHCP && defined(LWIP_IP_ACCEPT_UDP_PORT)
  91:/Users/nhantt/STM32Cube/Repository/STM32Cube_FW_F4_V1.26.0/Middlewares/Third_Party/LwIP/src/core/ipv4/ip4.c **** /* accept DHCP client port and custom port */
  92:/Users/nhantt/STM32Cube/Repository/STM32Cube_FW_F4_V1.26.0/Middlewares/Third_Party/LwIP/src/core/ipv4/ip4.c **** #define IP_ACCEPT_LINK_LAYER_ADDRESSED_PORT(port) (((port) == PP_NTOHS(LWIP_IANA_PORT_DHCP_CLIENT))
  93:/Users/nhantt/STM32Cube/Repository/STM32Cube_FW_F4_V1.26.0/Middlewares/Third_Party/LwIP/src/core/ipv4/ip4.c ****          || (LWIP_IP_ACCEPT_UDP_PORT(port)))
  94:/Users/nhantt/STM32Cube/Repository/STM32Cube_FW_F4_V1.26.0/Middlewares/Third_Party/LwIP/src/core/ipv4/ip4.c **** #elif defined(LWIP_IP_ACCEPT_UDP_PORT) /* LWIP_DHCP && defined(LWIP_IP_ACCEPT_UDP_PORT) */
  95:/Users/nhantt/STM32Cube/Repository/STM32Cube_FW_F4_V1.26.0/Middlewares/Third_Party/LwIP/src/core/ipv4/ip4.c **** /* accept custom port only */
  96:/Users/nhantt/STM32Cube/Repository/STM32Cube_FW_F4_V1.26.0/Middlewares/Third_Party/LwIP/src/core/ipv4/ip4.c **** #define IP_ACCEPT_LINK_LAYER_ADDRESSED_PORT(port) (LWIP_IP_ACCEPT_UDP_PORT(port))
  97:/Users/nhantt/STM32Cube/Repository/STM32Cube_FW_F4_V1.26.0/Middlewares/Third_Party/LwIP/src/core/ipv4/ip4.c **** #else /* LWIP_DHCP && defined(LWIP_IP_ACCEPT_UDP_PORT) */
  98:/Users/nhantt/STM32Cube/Repository/STM32Cube_FW_F4_V1.26.0/Middlewares/Third_Party/LwIP/src/core/ipv4/ip4.c **** /* accept DHCP client port only */
  99:/Users/nhantt/STM32Cube/Repository/STM32Cube_FW_F4_V1.26.0/Middlewares/Third_Party/LwIP/src/core/ipv4/ip4.c **** #define IP_ACCEPT_LINK_LAYER_ADDRESSED_PORT(port) ((port) == PP_NTOHS(LWIP_IANA_PORT_DHCP_CLIENT))
 100:/Users/nhantt/STM32Cube/Repository/STM32Cube_FW_F4_V1.26.0/Middlewares/Third_Party/LwIP/src/core/ipv4/ip4.c **** #endif /* LWIP_DHCP && defined(LWIP_IP_ACCEPT_UDP_PORT) */
 101:/Users/nhantt/STM32Cube/Repository/STM32Cube_FW_F4_V1.26.0/Middlewares/Third_Party/LwIP/src/core/ipv4/ip4.c **** 
 102:/Users/nhantt/STM32Cube/Repository/STM32Cube_FW_F4_V1.26.0/Middlewares/Third_Party/LwIP/src/core/ipv4/ip4.c **** #else /* LWIP_DHCP */
 103:/Users/nhantt/STM32Cube/Repository/STM32Cube_FW_F4_V1.26.0/Middlewares/Third_Party/LwIP/src/core/ipv4/ip4.c **** #define IP_ACCEPT_LINK_LAYER_ADDRESSING 0
 104:/Users/nhantt/STM32Cube/Repository/STM32Cube_FW_F4_V1.26.0/Middlewares/Third_Party/LwIP/src/core/ipv4/ip4.c **** #endif /* LWIP_DHCP */
 105:/Users/nhantt/STM32Cube/Repository/STM32Cube_FW_F4_V1.26.0/Middlewares/Third_Party/LwIP/src/core/ipv4/ip4.c **** 
 106:/Users/nhantt/STM32Cube/Repository/STM32Cube_FW_F4_V1.26.0/Middlewares/Third_Party/LwIP/src/core/ipv4/ip4.c **** /** The IP header ID of the next outgoing IP packet */
 107:/Users/nhantt/STM32Cube/Repository/STM32Cube_FW_F4_V1.26.0/Middlewares/Third_Party/LwIP/src/core/ipv4/ip4.c **** static u16_t ip_id;
 108:/Users/nhantt/STM32Cube/Repository/STM32Cube_FW_F4_V1.26.0/Middlewares/Third_Party/LwIP/src/core/ipv4/ip4.c **** 
 109:/Users/nhantt/STM32Cube/Repository/STM32Cube_FW_F4_V1.26.0/Middlewares/Third_Party/LwIP/src/core/ipv4/ip4.c **** #if LWIP_MULTICAST_TX_OPTIONS
 110:/Users/nhantt/STM32Cube/Repository/STM32Cube_FW_F4_V1.26.0/Middlewares/Third_Party/LwIP/src/core/ipv4/ip4.c **** /** The default netif used for multicast */
 111:/Users/nhantt/STM32Cube/Repository/STM32Cube_FW_F4_V1.26.0/Middlewares/Third_Party/LwIP/src/core/ipv4/ip4.c **** static struct netif *ip4_default_multicast_netif;
 112:/Users/nhantt/STM32Cube/Repository/STM32Cube_FW_F4_V1.26.0/Middlewares/Third_Party/LwIP/src/core/ipv4/ip4.c **** 
 113:/Users/nhantt/STM32Cube/Repository/STM32Cube_FW_F4_V1.26.0/Middlewares/Third_Party/LwIP/src/core/ipv4/ip4.c **** /**
 114:/Users/nhantt/STM32Cube/Repository/STM32Cube_FW_F4_V1.26.0/Middlewares/Third_Party/LwIP/src/core/ipv4/ip4.c ****  * @ingroup ip4
 115:/Users/nhantt/STM32Cube/Repository/STM32Cube_FW_F4_V1.26.0/Middlewares/Third_Party/LwIP/src/core/ipv4/ip4.c ****  * Set a default netif for IPv4 multicast. */
 116:/Users/nhantt/STM32Cube/Repository/STM32Cube_FW_F4_V1.26.0/Middlewares/Third_Party/LwIP/src/core/ipv4/ip4.c **** void
 117:/Users/nhantt/STM32Cube/Repository/STM32Cube_FW_F4_V1.26.0/Middlewares/Third_Party/LwIP/src/core/ipv4/ip4.c **** ip4_set_default_multicast_netif(struct netif *default_multicast_netif)
 118:/Users/nhantt/STM32Cube/Repository/STM32Cube_FW_F4_V1.26.0/Middlewares/Third_Party/LwIP/src/core/ipv4/ip4.c **** {
 119:/Users/nhantt/STM32Cube/Repository/STM32Cube_FW_F4_V1.26.0/Middlewares/Third_Party/LwIP/src/core/ipv4/ip4.c ****   ip4_default_multicast_netif = default_multicast_netif;
 120:/Users/nhantt/STM32Cube/Repository/STM32Cube_FW_F4_V1.26.0/Middlewares/Third_Party/LwIP/src/core/ipv4/ip4.c **** }
 121:/Users/nhantt/STM32Cube/Repository/STM32Cube_FW_F4_V1.26.0/Middlewares/Third_Party/LwIP/src/core/ipv4/ip4.c **** #endif /* LWIP_MULTICAST_TX_OPTIONS */
 122:/Users/nhantt/STM32Cube/Repository/STM32Cube_FW_F4_V1.26.0/Middlewares/Third_Party/LwIP/src/core/ipv4/ip4.c **** 
 123:/Users/nhantt/STM32Cube/Repository/STM32Cube_FW_F4_V1.26.0/Middlewares/Third_Party/LwIP/src/core/ipv4/ip4.c **** #ifdef LWIP_HOOK_IP4_ROUTE_SRC
 124:/Users/nhantt/STM32Cube/Repository/STM32Cube_FW_F4_V1.26.0/Middlewares/Third_Party/LwIP/src/core/ipv4/ip4.c **** /**
 125:/Users/nhantt/STM32Cube/Repository/STM32Cube_FW_F4_V1.26.0/Middlewares/Third_Party/LwIP/src/core/ipv4/ip4.c ****  * Source based IPv4 routing must be fully implemented in
 126:/Users/nhantt/STM32Cube/Repository/STM32Cube_FW_F4_V1.26.0/Middlewares/Third_Party/LwIP/src/core/ipv4/ip4.c ****  * LWIP_HOOK_IP4_ROUTE_SRC(). This function only provides the parameters.
 127:/Users/nhantt/STM32Cube/Repository/STM32Cube_FW_F4_V1.26.0/Middlewares/Third_Party/LwIP/src/core/ipv4/ip4.c ****  */
 128:/Users/nhantt/STM32Cube/Repository/STM32Cube_FW_F4_V1.26.0/Middlewares/Third_Party/LwIP/src/core/ipv4/ip4.c **** struct netif *
 129:/Users/nhantt/STM32Cube/Repository/STM32Cube_FW_F4_V1.26.0/Middlewares/Third_Party/LwIP/src/core/ipv4/ip4.c **** ip4_route_src(const ip4_addr_t *src, const ip4_addr_t *dest)
 130:/Users/nhantt/STM32Cube/Repository/STM32Cube_FW_F4_V1.26.0/Middlewares/Third_Party/LwIP/src/core/ipv4/ip4.c **** {
 131:/Users/nhantt/STM32Cube/Repository/STM32Cube_FW_F4_V1.26.0/Middlewares/Third_Party/LwIP/src/core/ipv4/ip4.c ****   if (src != NULL) {
 132:/Users/nhantt/STM32Cube/Repository/STM32Cube_FW_F4_V1.26.0/Middlewares/Third_Party/LwIP/src/core/ipv4/ip4.c ****     /* when src==NULL, the hook is called from ip4_route(dest) */
 133:/Users/nhantt/STM32Cube/Repository/STM32Cube_FW_F4_V1.26.0/Middlewares/Third_Party/LwIP/src/core/ipv4/ip4.c ****     struct netif *netif = LWIP_HOOK_IP4_ROUTE_SRC(src, dest);
 134:/Users/nhantt/STM32Cube/Repository/STM32Cube_FW_F4_V1.26.0/Middlewares/Third_Party/LwIP/src/core/ipv4/ip4.c ****     if (netif != NULL) {
 135:/Users/nhantt/STM32Cube/Repository/STM32Cube_FW_F4_V1.26.0/Middlewares/Third_Party/LwIP/src/core/ipv4/ip4.c ****       return netif;
 136:/Users/nhantt/STM32Cube/Repository/STM32Cube_FW_F4_V1.26.0/Middlewares/Third_Party/LwIP/src/core/ipv4/ip4.c ****     }
 137:/Users/nhantt/STM32Cube/Repository/STM32Cube_FW_F4_V1.26.0/Middlewares/Third_Party/LwIP/src/core/ipv4/ip4.c ****   }
 138:/Users/nhantt/STM32Cube/Repository/STM32Cube_FW_F4_V1.26.0/Middlewares/Third_Party/LwIP/src/core/ipv4/ip4.c ****   return ip4_route(dest);
 139:/Users/nhantt/STM32Cube/Repository/STM32Cube_FW_F4_V1.26.0/Middlewares/Third_Party/LwIP/src/core/ipv4/ip4.c **** }
 140:/Users/nhantt/STM32Cube/Repository/STM32Cube_FW_F4_V1.26.0/Middlewares/Third_Party/LwIP/src/core/ipv4/ip4.c **** #endif /* LWIP_HOOK_IP4_ROUTE_SRC */
 141:/Users/nhantt/STM32Cube/Repository/STM32Cube_FW_F4_V1.26.0/Middlewares/Third_Party/LwIP/src/core/ipv4/ip4.c **** 
 142:/Users/nhantt/STM32Cube/Repository/STM32Cube_FW_F4_V1.26.0/Middlewares/Third_Party/LwIP/src/core/ipv4/ip4.c **** /**
 143:/Users/nhantt/STM32Cube/Repository/STM32Cube_FW_F4_V1.26.0/Middlewares/Third_Party/LwIP/src/core/ipv4/ip4.c ****  * Finds the appropriate network interface for a given IP address. It
 144:/Users/nhantt/STM32Cube/Repository/STM32Cube_FW_F4_V1.26.0/Middlewares/Third_Party/LwIP/src/core/ipv4/ip4.c ****  * searches the list of network interfaces linearly. A match is found
ARM GAS  /var/folders/k2/cd9bl_j17z77g23y6ffqb_400000gn/T//ccJwgoEp.s 			page 4


 145:/Users/nhantt/STM32Cube/Repository/STM32Cube_FW_F4_V1.26.0/Middlewares/Third_Party/LwIP/src/core/ipv4/ip4.c ****  * if the masked IP address of the network interface equals the masked
 146:/Users/nhantt/STM32Cube/Repository/STM32Cube_FW_F4_V1.26.0/Middlewares/Third_Party/LwIP/src/core/ipv4/ip4.c ****  * IP address given to the function.
 147:/Users/nhantt/STM32Cube/Repository/STM32Cube_FW_F4_V1.26.0/Middlewares/Third_Party/LwIP/src/core/ipv4/ip4.c ****  *
 148:/Users/nhantt/STM32Cube/Repository/STM32Cube_FW_F4_V1.26.0/Middlewares/Third_Party/LwIP/src/core/ipv4/ip4.c ****  * @param dest the destination IP address for which to find the route
 149:/Users/nhantt/STM32Cube/Repository/STM32Cube_FW_F4_V1.26.0/Middlewares/Third_Party/LwIP/src/core/ipv4/ip4.c ****  * @return the netif on which to send to reach dest
 150:/Users/nhantt/STM32Cube/Repository/STM32Cube_FW_F4_V1.26.0/Middlewares/Third_Party/LwIP/src/core/ipv4/ip4.c ****  */
 151:/Users/nhantt/STM32Cube/Repository/STM32Cube_FW_F4_V1.26.0/Middlewares/Third_Party/LwIP/src/core/ipv4/ip4.c **** struct netif *
 152:/Users/nhantt/STM32Cube/Repository/STM32Cube_FW_F4_V1.26.0/Middlewares/Third_Party/LwIP/src/core/ipv4/ip4.c **** ip4_route(const ip4_addr_t *dest)
 153:/Users/nhantt/STM32Cube/Repository/STM32Cube_FW_F4_V1.26.0/Middlewares/Third_Party/LwIP/src/core/ipv4/ip4.c **** {
 154:/Users/nhantt/STM32Cube/Repository/STM32Cube_FW_F4_V1.26.0/Middlewares/Third_Party/LwIP/src/core/ipv4/ip4.c **** #if !LWIP_SINGLE_NETIF
 155:/Users/nhantt/STM32Cube/Repository/STM32Cube_FW_F4_V1.26.0/Middlewares/Third_Party/LwIP/src/core/ipv4/ip4.c ****   struct netif *netif;
 156:/Users/nhantt/STM32Cube/Repository/STM32Cube_FW_F4_V1.26.0/Middlewares/Third_Party/LwIP/src/core/ipv4/ip4.c **** 
 157:/Users/nhantt/STM32Cube/Repository/STM32Cube_FW_F4_V1.26.0/Middlewares/Third_Party/LwIP/src/core/ipv4/ip4.c ****   LWIP_ASSERT_CORE_LOCKED();
 158:/Users/nhantt/STM32Cube/Repository/STM32Cube_FW_F4_V1.26.0/Middlewares/Third_Party/LwIP/src/core/ipv4/ip4.c **** 
 159:/Users/nhantt/STM32Cube/Repository/STM32Cube_FW_F4_V1.26.0/Middlewares/Third_Party/LwIP/src/core/ipv4/ip4.c **** #if LWIP_MULTICAST_TX_OPTIONS
 160:/Users/nhantt/STM32Cube/Repository/STM32Cube_FW_F4_V1.26.0/Middlewares/Third_Party/LwIP/src/core/ipv4/ip4.c ****   /* Use administratively selected interface for multicast by default */
 161:/Users/nhantt/STM32Cube/Repository/STM32Cube_FW_F4_V1.26.0/Middlewares/Third_Party/LwIP/src/core/ipv4/ip4.c ****   if (ip4_addr_ismulticast(dest) && ip4_default_multicast_netif) {
 162:/Users/nhantt/STM32Cube/Repository/STM32Cube_FW_F4_V1.26.0/Middlewares/Third_Party/LwIP/src/core/ipv4/ip4.c ****     return ip4_default_multicast_netif;
 163:/Users/nhantt/STM32Cube/Repository/STM32Cube_FW_F4_V1.26.0/Middlewares/Third_Party/LwIP/src/core/ipv4/ip4.c ****   }
 164:/Users/nhantt/STM32Cube/Repository/STM32Cube_FW_F4_V1.26.0/Middlewares/Third_Party/LwIP/src/core/ipv4/ip4.c **** #endif /* LWIP_MULTICAST_TX_OPTIONS */
 165:/Users/nhantt/STM32Cube/Repository/STM32Cube_FW_F4_V1.26.0/Middlewares/Third_Party/LwIP/src/core/ipv4/ip4.c **** 
 166:/Users/nhantt/STM32Cube/Repository/STM32Cube_FW_F4_V1.26.0/Middlewares/Third_Party/LwIP/src/core/ipv4/ip4.c ****   /* bug #54569: in case LWIP_SINGLE_NETIF=1 and LWIP_DEBUGF() disabled, the following loop is opti
 167:/Users/nhantt/STM32Cube/Repository/STM32Cube_FW_F4_V1.26.0/Middlewares/Third_Party/LwIP/src/core/ipv4/ip4.c ****   LWIP_UNUSED_ARG(dest);
 168:/Users/nhantt/STM32Cube/Repository/STM32Cube_FW_F4_V1.26.0/Middlewares/Third_Party/LwIP/src/core/ipv4/ip4.c **** 
 169:/Users/nhantt/STM32Cube/Repository/STM32Cube_FW_F4_V1.26.0/Middlewares/Third_Party/LwIP/src/core/ipv4/ip4.c ****   /* iterate through netifs */
 170:/Users/nhantt/STM32Cube/Repository/STM32Cube_FW_F4_V1.26.0/Middlewares/Third_Party/LwIP/src/core/ipv4/ip4.c ****   NETIF_FOREACH(netif) {
 171:/Users/nhantt/STM32Cube/Repository/STM32Cube_FW_F4_V1.26.0/Middlewares/Third_Party/LwIP/src/core/ipv4/ip4.c ****     /* is the netif up, does it have a link and a valid address? */
 172:/Users/nhantt/STM32Cube/Repository/STM32Cube_FW_F4_V1.26.0/Middlewares/Third_Party/LwIP/src/core/ipv4/ip4.c ****     if (netif_is_up(netif) && netif_is_link_up(netif) && !ip4_addr_isany_val(*netif_ip4_addr(netif)
 173:/Users/nhantt/STM32Cube/Repository/STM32Cube_FW_F4_V1.26.0/Middlewares/Third_Party/LwIP/src/core/ipv4/ip4.c ****       /* network mask matches? */
 174:/Users/nhantt/STM32Cube/Repository/STM32Cube_FW_F4_V1.26.0/Middlewares/Third_Party/LwIP/src/core/ipv4/ip4.c ****       if (ip4_addr_netcmp(dest, netif_ip4_addr(netif), netif_ip4_netmask(netif))) {
 175:/Users/nhantt/STM32Cube/Repository/STM32Cube_FW_F4_V1.26.0/Middlewares/Third_Party/LwIP/src/core/ipv4/ip4.c ****         /* return netif on which to forward IP packet */
 176:/Users/nhantt/STM32Cube/Repository/STM32Cube_FW_F4_V1.26.0/Middlewares/Third_Party/LwIP/src/core/ipv4/ip4.c ****         return netif;
 177:/Users/nhantt/STM32Cube/Repository/STM32Cube_FW_F4_V1.26.0/Middlewares/Third_Party/LwIP/src/core/ipv4/ip4.c ****       }
 178:/Users/nhantt/STM32Cube/Repository/STM32Cube_FW_F4_V1.26.0/Middlewares/Third_Party/LwIP/src/core/ipv4/ip4.c ****       /* gateway matches on a non broadcast interface? (i.e. peer in a point to point interface) */
 179:/Users/nhantt/STM32Cube/Repository/STM32Cube_FW_F4_V1.26.0/Middlewares/Third_Party/LwIP/src/core/ipv4/ip4.c ****       if (((netif->flags & NETIF_FLAG_BROADCAST) == 0) && ip4_addr_cmp(dest, netif_ip4_gw(netif))) 
 180:/Users/nhantt/STM32Cube/Repository/STM32Cube_FW_F4_V1.26.0/Middlewares/Third_Party/LwIP/src/core/ipv4/ip4.c ****         /* return netif on which to forward IP packet */
 181:/Users/nhantt/STM32Cube/Repository/STM32Cube_FW_F4_V1.26.0/Middlewares/Third_Party/LwIP/src/core/ipv4/ip4.c ****         return netif;
 182:/Users/nhantt/STM32Cube/Repository/STM32Cube_FW_F4_V1.26.0/Middlewares/Third_Party/LwIP/src/core/ipv4/ip4.c ****       }
 183:/Users/nhantt/STM32Cube/Repository/STM32Cube_FW_F4_V1.26.0/Middlewares/Third_Party/LwIP/src/core/ipv4/ip4.c ****     }
 184:/Users/nhantt/STM32Cube/Repository/STM32Cube_FW_F4_V1.26.0/Middlewares/Third_Party/LwIP/src/core/ipv4/ip4.c ****   }
 185:/Users/nhantt/STM32Cube/Repository/STM32Cube_FW_F4_V1.26.0/Middlewares/Third_Party/LwIP/src/core/ipv4/ip4.c **** 
 186:/Users/nhantt/STM32Cube/Repository/STM32Cube_FW_F4_V1.26.0/Middlewares/Third_Party/LwIP/src/core/ipv4/ip4.c **** #if LWIP_NETIF_LOOPBACK && !LWIP_HAVE_LOOPIF
 187:/Users/nhantt/STM32Cube/Repository/STM32Cube_FW_F4_V1.26.0/Middlewares/Third_Party/LwIP/src/core/ipv4/ip4.c ****   /* loopif is disabled, looopback traffic is passed through any netif */
 188:/Users/nhantt/STM32Cube/Repository/STM32Cube_FW_F4_V1.26.0/Middlewares/Third_Party/LwIP/src/core/ipv4/ip4.c ****   if (ip4_addr_isloopback(dest)) {
 189:/Users/nhantt/STM32Cube/Repository/STM32Cube_FW_F4_V1.26.0/Middlewares/Third_Party/LwIP/src/core/ipv4/ip4.c ****     /* don't check for link on loopback traffic */
 190:/Users/nhantt/STM32Cube/Repository/STM32Cube_FW_F4_V1.26.0/Middlewares/Third_Party/LwIP/src/core/ipv4/ip4.c ****     if (netif_default != NULL && netif_is_up(netif_default)) {
 191:/Users/nhantt/STM32Cube/Repository/STM32Cube_FW_F4_V1.26.0/Middlewares/Third_Party/LwIP/src/core/ipv4/ip4.c ****       return netif_default;
 192:/Users/nhantt/STM32Cube/Repository/STM32Cube_FW_F4_V1.26.0/Middlewares/Third_Party/LwIP/src/core/ipv4/ip4.c ****     }
 193:/Users/nhantt/STM32Cube/Repository/STM32Cube_FW_F4_V1.26.0/Middlewares/Third_Party/LwIP/src/core/ipv4/ip4.c ****     /* default netif is not up, just use any netif for loopback traffic */
 194:/Users/nhantt/STM32Cube/Repository/STM32Cube_FW_F4_V1.26.0/Middlewares/Third_Party/LwIP/src/core/ipv4/ip4.c ****     NETIF_FOREACH(netif) {
 195:/Users/nhantt/STM32Cube/Repository/STM32Cube_FW_F4_V1.26.0/Middlewares/Third_Party/LwIP/src/core/ipv4/ip4.c ****       if (netif_is_up(netif)) {
 196:/Users/nhantt/STM32Cube/Repository/STM32Cube_FW_F4_V1.26.0/Middlewares/Third_Party/LwIP/src/core/ipv4/ip4.c ****         return netif;
 197:/Users/nhantt/STM32Cube/Repository/STM32Cube_FW_F4_V1.26.0/Middlewares/Third_Party/LwIP/src/core/ipv4/ip4.c ****       }
 198:/Users/nhantt/STM32Cube/Repository/STM32Cube_FW_F4_V1.26.0/Middlewares/Third_Party/LwIP/src/core/ipv4/ip4.c ****     }
 199:/Users/nhantt/STM32Cube/Repository/STM32Cube_FW_F4_V1.26.0/Middlewares/Third_Party/LwIP/src/core/ipv4/ip4.c ****     return NULL;
 200:/Users/nhantt/STM32Cube/Repository/STM32Cube_FW_F4_V1.26.0/Middlewares/Third_Party/LwIP/src/core/ipv4/ip4.c ****   }
 201:/Users/nhantt/STM32Cube/Repository/STM32Cube_FW_F4_V1.26.0/Middlewares/Third_Party/LwIP/src/core/ipv4/ip4.c **** #endif /* LWIP_NETIF_LOOPBACK && !LWIP_HAVE_LOOPIF */
ARM GAS  /var/folders/k2/cd9bl_j17z77g23y6ffqb_400000gn/T//ccJwgoEp.s 			page 5


 202:/Users/nhantt/STM32Cube/Repository/STM32Cube_FW_F4_V1.26.0/Middlewares/Third_Party/LwIP/src/core/ipv4/ip4.c **** 
 203:/Users/nhantt/STM32Cube/Repository/STM32Cube_FW_F4_V1.26.0/Middlewares/Third_Party/LwIP/src/core/ipv4/ip4.c **** #ifdef LWIP_HOOK_IP4_ROUTE_SRC
 204:/Users/nhantt/STM32Cube/Repository/STM32Cube_FW_F4_V1.26.0/Middlewares/Third_Party/LwIP/src/core/ipv4/ip4.c ****   netif = LWIP_HOOK_IP4_ROUTE_SRC(NULL, dest);
 205:/Users/nhantt/STM32Cube/Repository/STM32Cube_FW_F4_V1.26.0/Middlewares/Third_Party/LwIP/src/core/ipv4/ip4.c ****   if (netif != NULL) {
 206:/Users/nhantt/STM32Cube/Repository/STM32Cube_FW_F4_V1.26.0/Middlewares/Third_Party/LwIP/src/core/ipv4/ip4.c ****     return netif;
 207:/Users/nhantt/STM32Cube/Repository/STM32Cube_FW_F4_V1.26.0/Middlewares/Third_Party/LwIP/src/core/ipv4/ip4.c ****   }
 208:/Users/nhantt/STM32Cube/Repository/STM32Cube_FW_F4_V1.26.0/Middlewares/Third_Party/LwIP/src/core/ipv4/ip4.c **** #elif defined(LWIP_HOOK_IP4_ROUTE)
 209:/Users/nhantt/STM32Cube/Repository/STM32Cube_FW_F4_V1.26.0/Middlewares/Third_Party/LwIP/src/core/ipv4/ip4.c ****   netif = LWIP_HOOK_IP4_ROUTE(dest);
 210:/Users/nhantt/STM32Cube/Repository/STM32Cube_FW_F4_V1.26.0/Middlewares/Third_Party/LwIP/src/core/ipv4/ip4.c ****   if (netif != NULL) {
 211:/Users/nhantt/STM32Cube/Repository/STM32Cube_FW_F4_V1.26.0/Middlewares/Third_Party/LwIP/src/core/ipv4/ip4.c ****     return netif;
 212:/Users/nhantt/STM32Cube/Repository/STM32Cube_FW_F4_V1.26.0/Middlewares/Third_Party/LwIP/src/core/ipv4/ip4.c ****   }
 213:/Users/nhantt/STM32Cube/Repository/STM32Cube_FW_F4_V1.26.0/Middlewares/Third_Party/LwIP/src/core/ipv4/ip4.c **** #endif
 214:/Users/nhantt/STM32Cube/Repository/STM32Cube_FW_F4_V1.26.0/Middlewares/Third_Party/LwIP/src/core/ipv4/ip4.c **** #endif /* !LWIP_SINGLE_NETIF */
 215:/Users/nhantt/STM32Cube/Repository/STM32Cube_FW_F4_V1.26.0/Middlewares/Third_Party/LwIP/src/core/ipv4/ip4.c **** 
 216:/Users/nhantt/STM32Cube/Repository/STM32Cube_FW_F4_V1.26.0/Middlewares/Third_Party/LwIP/src/core/ipv4/ip4.c ****   if ((netif_default == NULL) || !netif_is_up(netif_default) || !netif_is_link_up(netif_default) ||
 217:/Users/nhantt/STM32Cube/Repository/STM32Cube_FW_F4_V1.26.0/Middlewares/Third_Party/LwIP/src/core/ipv4/ip4.c ****       ip4_addr_isany_val(*netif_ip4_addr(netif_default)) || ip4_addr_isloopback(dest)) {
 218:/Users/nhantt/STM32Cube/Repository/STM32Cube_FW_F4_V1.26.0/Middlewares/Third_Party/LwIP/src/core/ipv4/ip4.c ****     /* No matching netif found and default netif is not usable.
 219:/Users/nhantt/STM32Cube/Repository/STM32Cube_FW_F4_V1.26.0/Middlewares/Third_Party/LwIP/src/core/ipv4/ip4.c ****        If this is not good enough for you, use LWIP_HOOK_IP4_ROUTE() */
 220:/Users/nhantt/STM32Cube/Repository/STM32Cube_FW_F4_V1.26.0/Middlewares/Third_Party/LwIP/src/core/ipv4/ip4.c ****     LWIP_DEBUGF(IP_DEBUG | LWIP_DBG_LEVEL_SERIOUS, ("ip4_route: No route to %"U16_F".%"U16_F".%"U16
 221:/Users/nhantt/STM32Cube/Repository/STM32Cube_FW_F4_V1.26.0/Middlewares/Third_Party/LwIP/src/core/ipv4/ip4.c ****                 ip4_addr1_16(dest), ip4_addr2_16(dest), ip4_addr3_16(dest), ip4_addr4_16(dest)));
 222:/Users/nhantt/STM32Cube/Repository/STM32Cube_FW_F4_V1.26.0/Middlewares/Third_Party/LwIP/src/core/ipv4/ip4.c ****     IP_STATS_INC(ip.rterr);
 223:/Users/nhantt/STM32Cube/Repository/STM32Cube_FW_F4_V1.26.0/Middlewares/Third_Party/LwIP/src/core/ipv4/ip4.c ****     MIB2_STATS_INC(mib2.ipoutnoroutes);
 224:/Users/nhantt/STM32Cube/Repository/STM32Cube_FW_F4_V1.26.0/Middlewares/Third_Party/LwIP/src/core/ipv4/ip4.c ****     return NULL;
 225:/Users/nhantt/STM32Cube/Repository/STM32Cube_FW_F4_V1.26.0/Middlewares/Third_Party/LwIP/src/core/ipv4/ip4.c ****   }
 226:/Users/nhantt/STM32Cube/Repository/STM32Cube_FW_F4_V1.26.0/Middlewares/Third_Party/LwIP/src/core/ipv4/ip4.c **** 
 227:/Users/nhantt/STM32Cube/Repository/STM32Cube_FW_F4_V1.26.0/Middlewares/Third_Party/LwIP/src/core/ipv4/ip4.c ****   return netif_default;
 228:/Users/nhantt/STM32Cube/Repository/STM32Cube_FW_F4_V1.26.0/Middlewares/Third_Party/LwIP/src/core/ipv4/ip4.c **** }
 229:/Users/nhantt/STM32Cube/Repository/STM32Cube_FW_F4_V1.26.0/Middlewares/Third_Party/LwIP/src/core/ipv4/ip4.c **** 
 230:/Users/nhantt/STM32Cube/Repository/STM32Cube_FW_F4_V1.26.0/Middlewares/Third_Party/LwIP/src/core/ipv4/ip4.c **** #if IP_FORWARD
 231:/Users/nhantt/STM32Cube/Repository/STM32Cube_FW_F4_V1.26.0/Middlewares/Third_Party/LwIP/src/core/ipv4/ip4.c **** /**
 232:/Users/nhantt/STM32Cube/Repository/STM32Cube_FW_F4_V1.26.0/Middlewares/Third_Party/LwIP/src/core/ipv4/ip4.c ****  * Determine whether an IP address is in a reserved set of addresses
 233:/Users/nhantt/STM32Cube/Repository/STM32Cube_FW_F4_V1.26.0/Middlewares/Third_Party/LwIP/src/core/ipv4/ip4.c ****  * that may not be forwarded, or whether datagrams to that destination
 234:/Users/nhantt/STM32Cube/Repository/STM32Cube_FW_F4_V1.26.0/Middlewares/Third_Party/LwIP/src/core/ipv4/ip4.c ****  * may be forwarded.
 235:/Users/nhantt/STM32Cube/Repository/STM32Cube_FW_F4_V1.26.0/Middlewares/Third_Party/LwIP/src/core/ipv4/ip4.c ****  * @param p the packet to forward
 236:/Users/nhantt/STM32Cube/Repository/STM32Cube_FW_F4_V1.26.0/Middlewares/Third_Party/LwIP/src/core/ipv4/ip4.c ****  * @return 1: can forward 0: discard
 237:/Users/nhantt/STM32Cube/Repository/STM32Cube_FW_F4_V1.26.0/Middlewares/Third_Party/LwIP/src/core/ipv4/ip4.c ****  */
 238:/Users/nhantt/STM32Cube/Repository/STM32Cube_FW_F4_V1.26.0/Middlewares/Third_Party/LwIP/src/core/ipv4/ip4.c **** static int
 239:/Users/nhantt/STM32Cube/Repository/STM32Cube_FW_F4_V1.26.0/Middlewares/Third_Party/LwIP/src/core/ipv4/ip4.c **** ip4_canforward(struct pbuf *p)
 240:/Users/nhantt/STM32Cube/Repository/STM32Cube_FW_F4_V1.26.0/Middlewares/Third_Party/LwIP/src/core/ipv4/ip4.c **** {
 241:/Users/nhantt/STM32Cube/Repository/STM32Cube_FW_F4_V1.26.0/Middlewares/Third_Party/LwIP/src/core/ipv4/ip4.c ****   u32_t addr = lwip_htonl(ip4_addr_get_u32(ip4_current_dest_addr()));
 242:/Users/nhantt/STM32Cube/Repository/STM32Cube_FW_F4_V1.26.0/Middlewares/Third_Party/LwIP/src/core/ipv4/ip4.c **** 
 243:/Users/nhantt/STM32Cube/Repository/STM32Cube_FW_F4_V1.26.0/Middlewares/Third_Party/LwIP/src/core/ipv4/ip4.c **** #ifdef LWIP_HOOK_IP4_CANFORWARD
 244:/Users/nhantt/STM32Cube/Repository/STM32Cube_FW_F4_V1.26.0/Middlewares/Third_Party/LwIP/src/core/ipv4/ip4.c ****   int ret = LWIP_HOOK_IP4_CANFORWARD(p, addr);
 245:/Users/nhantt/STM32Cube/Repository/STM32Cube_FW_F4_V1.26.0/Middlewares/Third_Party/LwIP/src/core/ipv4/ip4.c ****   if (ret >= 0) {
 246:/Users/nhantt/STM32Cube/Repository/STM32Cube_FW_F4_V1.26.0/Middlewares/Third_Party/LwIP/src/core/ipv4/ip4.c ****     return ret;
 247:/Users/nhantt/STM32Cube/Repository/STM32Cube_FW_F4_V1.26.0/Middlewares/Third_Party/LwIP/src/core/ipv4/ip4.c ****   }
 248:/Users/nhantt/STM32Cube/Repository/STM32Cube_FW_F4_V1.26.0/Middlewares/Third_Party/LwIP/src/core/ipv4/ip4.c **** #endif /* LWIP_HOOK_IP4_CANFORWARD */
 249:/Users/nhantt/STM32Cube/Repository/STM32Cube_FW_F4_V1.26.0/Middlewares/Third_Party/LwIP/src/core/ipv4/ip4.c **** 
 250:/Users/nhantt/STM32Cube/Repository/STM32Cube_FW_F4_V1.26.0/Middlewares/Third_Party/LwIP/src/core/ipv4/ip4.c ****   if (p->flags & PBUF_FLAG_LLBCAST) {
 251:/Users/nhantt/STM32Cube/Repository/STM32Cube_FW_F4_V1.26.0/Middlewares/Third_Party/LwIP/src/core/ipv4/ip4.c ****     /* don't route link-layer broadcasts */
 252:/Users/nhantt/STM32Cube/Repository/STM32Cube_FW_F4_V1.26.0/Middlewares/Third_Party/LwIP/src/core/ipv4/ip4.c ****     return 0;
 253:/Users/nhantt/STM32Cube/Repository/STM32Cube_FW_F4_V1.26.0/Middlewares/Third_Party/LwIP/src/core/ipv4/ip4.c ****   }
 254:/Users/nhantt/STM32Cube/Repository/STM32Cube_FW_F4_V1.26.0/Middlewares/Third_Party/LwIP/src/core/ipv4/ip4.c ****   if ((p->flags & PBUF_FLAG_LLMCAST) || IP_MULTICAST(addr)) {
 255:/Users/nhantt/STM32Cube/Repository/STM32Cube_FW_F4_V1.26.0/Middlewares/Third_Party/LwIP/src/core/ipv4/ip4.c ****     /* don't route link-layer multicasts (use LWIP_HOOK_IP4_CANFORWARD instead) */
 256:/Users/nhantt/STM32Cube/Repository/STM32Cube_FW_F4_V1.26.0/Middlewares/Third_Party/LwIP/src/core/ipv4/ip4.c ****     return 0;
 257:/Users/nhantt/STM32Cube/Repository/STM32Cube_FW_F4_V1.26.0/Middlewares/Third_Party/LwIP/src/core/ipv4/ip4.c ****   }
 258:/Users/nhantt/STM32Cube/Repository/STM32Cube_FW_F4_V1.26.0/Middlewares/Third_Party/LwIP/src/core/ipv4/ip4.c ****   if (IP_EXPERIMENTAL(addr)) {
ARM GAS  /var/folders/k2/cd9bl_j17z77g23y6ffqb_400000gn/T//ccJwgoEp.s 			page 6


 259:/Users/nhantt/STM32Cube/Repository/STM32Cube_FW_F4_V1.26.0/Middlewares/Third_Party/LwIP/src/core/ipv4/ip4.c ****     return 0;
 260:/Users/nhantt/STM32Cube/Repository/STM32Cube_FW_F4_V1.26.0/Middlewares/Third_Party/LwIP/src/core/ipv4/ip4.c ****   }
 261:/Users/nhantt/STM32Cube/Repository/STM32Cube_FW_F4_V1.26.0/Middlewares/Third_Party/LwIP/src/core/ipv4/ip4.c ****   if (IP_CLASSA(addr)) {
 262:/Users/nhantt/STM32Cube/Repository/STM32Cube_FW_F4_V1.26.0/Middlewares/Third_Party/LwIP/src/core/ipv4/ip4.c ****     u32_t net = addr & IP_CLASSA_NET;
 263:/Users/nhantt/STM32Cube/Repository/STM32Cube_FW_F4_V1.26.0/Middlewares/Third_Party/LwIP/src/core/ipv4/ip4.c ****     if ((net == 0) || (net == ((u32_t)IP_LOOPBACKNET << IP_CLASSA_NSHIFT))) {
 264:/Users/nhantt/STM32Cube/Repository/STM32Cube_FW_F4_V1.26.0/Middlewares/Third_Party/LwIP/src/core/ipv4/ip4.c ****       /* don't route loopback packets */
 265:/Users/nhantt/STM32Cube/Repository/STM32Cube_FW_F4_V1.26.0/Middlewares/Third_Party/LwIP/src/core/ipv4/ip4.c ****       return 0;
 266:/Users/nhantt/STM32Cube/Repository/STM32Cube_FW_F4_V1.26.0/Middlewares/Third_Party/LwIP/src/core/ipv4/ip4.c ****     }
 267:/Users/nhantt/STM32Cube/Repository/STM32Cube_FW_F4_V1.26.0/Middlewares/Third_Party/LwIP/src/core/ipv4/ip4.c ****   }
 268:/Users/nhantt/STM32Cube/Repository/STM32Cube_FW_F4_V1.26.0/Middlewares/Third_Party/LwIP/src/core/ipv4/ip4.c ****   return 1;
 269:/Users/nhantt/STM32Cube/Repository/STM32Cube_FW_F4_V1.26.0/Middlewares/Third_Party/LwIP/src/core/ipv4/ip4.c **** }
 270:/Users/nhantt/STM32Cube/Repository/STM32Cube_FW_F4_V1.26.0/Middlewares/Third_Party/LwIP/src/core/ipv4/ip4.c **** 
 271:/Users/nhantt/STM32Cube/Repository/STM32Cube_FW_F4_V1.26.0/Middlewares/Third_Party/LwIP/src/core/ipv4/ip4.c **** /**
 272:/Users/nhantt/STM32Cube/Repository/STM32Cube_FW_F4_V1.26.0/Middlewares/Third_Party/LwIP/src/core/ipv4/ip4.c ****  * Forwards an IP packet. It finds an appropriate route for the
 273:/Users/nhantt/STM32Cube/Repository/STM32Cube_FW_F4_V1.26.0/Middlewares/Third_Party/LwIP/src/core/ipv4/ip4.c ****  * packet, decrements the TTL value of the packet, adjusts the
 274:/Users/nhantt/STM32Cube/Repository/STM32Cube_FW_F4_V1.26.0/Middlewares/Third_Party/LwIP/src/core/ipv4/ip4.c ****  * checksum and outputs the packet on the appropriate interface.
 275:/Users/nhantt/STM32Cube/Repository/STM32Cube_FW_F4_V1.26.0/Middlewares/Third_Party/LwIP/src/core/ipv4/ip4.c ****  *
 276:/Users/nhantt/STM32Cube/Repository/STM32Cube_FW_F4_V1.26.0/Middlewares/Third_Party/LwIP/src/core/ipv4/ip4.c ****  * @param p the packet to forward (p->payload points to IP header)
 277:/Users/nhantt/STM32Cube/Repository/STM32Cube_FW_F4_V1.26.0/Middlewares/Third_Party/LwIP/src/core/ipv4/ip4.c ****  * @param iphdr the IP header of the input packet
 278:/Users/nhantt/STM32Cube/Repository/STM32Cube_FW_F4_V1.26.0/Middlewares/Third_Party/LwIP/src/core/ipv4/ip4.c ****  * @param inp the netif on which this packet was received
 279:/Users/nhantt/STM32Cube/Repository/STM32Cube_FW_F4_V1.26.0/Middlewares/Third_Party/LwIP/src/core/ipv4/ip4.c ****  */
 280:/Users/nhantt/STM32Cube/Repository/STM32Cube_FW_F4_V1.26.0/Middlewares/Third_Party/LwIP/src/core/ipv4/ip4.c **** static void
 281:/Users/nhantt/STM32Cube/Repository/STM32Cube_FW_F4_V1.26.0/Middlewares/Third_Party/LwIP/src/core/ipv4/ip4.c **** ip4_forward(struct pbuf *p, struct ip_hdr *iphdr, struct netif *inp)
 282:/Users/nhantt/STM32Cube/Repository/STM32Cube_FW_F4_V1.26.0/Middlewares/Third_Party/LwIP/src/core/ipv4/ip4.c **** {
 283:/Users/nhantt/STM32Cube/Repository/STM32Cube_FW_F4_V1.26.0/Middlewares/Third_Party/LwIP/src/core/ipv4/ip4.c ****   struct netif *netif;
 284:/Users/nhantt/STM32Cube/Repository/STM32Cube_FW_F4_V1.26.0/Middlewares/Third_Party/LwIP/src/core/ipv4/ip4.c **** 
 285:/Users/nhantt/STM32Cube/Repository/STM32Cube_FW_F4_V1.26.0/Middlewares/Third_Party/LwIP/src/core/ipv4/ip4.c ****   PERF_START;
 286:/Users/nhantt/STM32Cube/Repository/STM32Cube_FW_F4_V1.26.0/Middlewares/Third_Party/LwIP/src/core/ipv4/ip4.c ****   LWIP_UNUSED_ARG(inp);
 287:/Users/nhantt/STM32Cube/Repository/STM32Cube_FW_F4_V1.26.0/Middlewares/Third_Party/LwIP/src/core/ipv4/ip4.c **** 
 288:/Users/nhantt/STM32Cube/Repository/STM32Cube_FW_F4_V1.26.0/Middlewares/Third_Party/LwIP/src/core/ipv4/ip4.c ****   if (!ip4_canforward(p)) {
 289:/Users/nhantt/STM32Cube/Repository/STM32Cube_FW_F4_V1.26.0/Middlewares/Third_Party/LwIP/src/core/ipv4/ip4.c ****     goto return_noroute;
 290:/Users/nhantt/STM32Cube/Repository/STM32Cube_FW_F4_V1.26.0/Middlewares/Third_Party/LwIP/src/core/ipv4/ip4.c ****   }
 291:/Users/nhantt/STM32Cube/Repository/STM32Cube_FW_F4_V1.26.0/Middlewares/Third_Party/LwIP/src/core/ipv4/ip4.c **** 
 292:/Users/nhantt/STM32Cube/Repository/STM32Cube_FW_F4_V1.26.0/Middlewares/Third_Party/LwIP/src/core/ipv4/ip4.c ****   /* RFC3927 2.7: do not forward link-local addresses */
 293:/Users/nhantt/STM32Cube/Repository/STM32Cube_FW_F4_V1.26.0/Middlewares/Third_Party/LwIP/src/core/ipv4/ip4.c ****   if (ip4_addr_islinklocal(ip4_current_dest_addr())) {
 294:/Users/nhantt/STM32Cube/Repository/STM32Cube_FW_F4_V1.26.0/Middlewares/Third_Party/LwIP/src/core/ipv4/ip4.c ****     LWIP_DEBUGF(IP_DEBUG, ("ip4_forward: not forwarding LLA %"U16_F".%"U16_F".%"U16_F".%"U16_F"\n",
 295:/Users/nhantt/STM32Cube/Repository/STM32Cube_FW_F4_V1.26.0/Middlewares/Third_Party/LwIP/src/core/ipv4/ip4.c ****                            ip4_addr1_16(ip4_current_dest_addr()), ip4_addr2_16(ip4_current_dest_add
 296:/Users/nhantt/STM32Cube/Repository/STM32Cube_FW_F4_V1.26.0/Middlewares/Third_Party/LwIP/src/core/ipv4/ip4.c ****                            ip4_addr3_16(ip4_current_dest_addr()), ip4_addr4_16(ip4_current_dest_add
 297:/Users/nhantt/STM32Cube/Repository/STM32Cube_FW_F4_V1.26.0/Middlewares/Third_Party/LwIP/src/core/ipv4/ip4.c ****     goto return_noroute;
 298:/Users/nhantt/STM32Cube/Repository/STM32Cube_FW_F4_V1.26.0/Middlewares/Third_Party/LwIP/src/core/ipv4/ip4.c ****   }
 299:/Users/nhantt/STM32Cube/Repository/STM32Cube_FW_F4_V1.26.0/Middlewares/Third_Party/LwIP/src/core/ipv4/ip4.c **** 
 300:/Users/nhantt/STM32Cube/Repository/STM32Cube_FW_F4_V1.26.0/Middlewares/Third_Party/LwIP/src/core/ipv4/ip4.c ****   /* Find network interface where to forward this IP packet to. */
 301:/Users/nhantt/STM32Cube/Repository/STM32Cube_FW_F4_V1.26.0/Middlewares/Third_Party/LwIP/src/core/ipv4/ip4.c ****   netif = ip4_route_src(ip4_current_src_addr(), ip4_current_dest_addr());
 302:/Users/nhantt/STM32Cube/Repository/STM32Cube_FW_F4_V1.26.0/Middlewares/Third_Party/LwIP/src/core/ipv4/ip4.c ****   if (netif == NULL) {
 303:/Users/nhantt/STM32Cube/Repository/STM32Cube_FW_F4_V1.26.0/Middlewares/Third_Party/LwIP/src/core/ipv4/ip4.c ****     LWIP_DEBUGF(IP_DEBUG, ("ip4_forward: no forwarding route for %"U16_F".%"U16_F".%"U16_F".%"U16_F
 304:/Users/nhantt/STM32Cube/Repository/STM32Cube_FW_F4_V1.26.0/Middlewares/Third_Party/LwIP/src/core/ipv4/ip4.c ****                            ip4_addr1_16(ip4_current_dest_addr()), ip4_addr2_16(ip4_current_dest_add
 305:/Users/nhantt/STM32Cube/Repository/STM32Cube_FW_F4_V1.26.0/Middlewares/Third_Party/LwIP/src/core/ipv4/ip4.c ****                            ip4_addr3_16(ip4_current_dest_addr()), ip4_addr4_16(ip4_current_dest_add
 306:/Users/nhantt/STM32Cube/Repository/STM32Cube_FW_F4_V1.26.0/Middlewares/Third_Party/LwIP/src/core/ipv4/ip4.c ****     /* @todo: send ICMP_DUR_NET? */
 307:/Users/nhantt/STM32Cube/Repository/STM32Cube_FW_F4_V1.26.0/Middlewares/Third_Party/LwIP/src/core/ipv4/ip4.c ****     goto return_noroute;
 308:/Users/nhantt/STM32Cube/Repository/STM32Cube_FW_F4_V1.26.0/Middlewares/Third_Party/LwIP/src/core/ipv4/ip4.c ****   }
 309:/Users/nhantt/STM32Cube/Repository/STM32Cube_FW_F4_V1.26.0/Middlewares/Third_Party/LwIP/src/core/ipv4/ip4.c **** #if !IP_FORWARD_ALLOW_TX_ON_RX_NETIF
 310:/Users/nhantt/STM32Cube/Repository/STM32Cube_FW_F4_V1.26.0/Middlewares/Third_Party/LwIP/src/core/ipv4/ip4.c ****   /* Do not forward packets onto the same network interface on which
 311:/Users/nhantt/STM32Cube/Repository/STM32Cube_FW_F4_V1.26.0/Middlewares/Third_Party/LwIP/src/core/ipv4/ip4.c ****    * they arrived. */
 312:/Users/nhantt/STM32Cube/Repository/STM32Cube_FW_F4_V1.26.0/Middlewares/Third_Party/LwIP/src/core/ipv4/ip4.c ****   if (netif == inp) {
 313:/Users/nhantt/STM32Cube/Repository/STM32Cube_FW_F4_V1.26.0/Middlewares/Third_Party/LwIP/src/core/ipv4/ip4.c ****     LWIP_DEBUGF(IP_DEBUG, ("ip4_forward: not bouncing packets back on incoming interface.\n"));
 314:/Users/nhantt/STM32Cube/Repository/STM32Cube_FW_F4_V1.26.0/Middlewares/Third_Party/LwIP/src/core/ipv4/ip4.c ****     goto return_noroute;
 315:/Users/nhantt/STM32Cube/Repository/STM32Cube_FW_F4_V1.26.0/Middlewares/Third_Party/LwIP/src/core/ipv4/ip4.c ****   }
ARM GAS  /var/folders/k2/cd9bl_j17z77g23y6ffqb_400000gn/T//ccJwgoEp.s 			page 7


 316:/Users/nhantt/STM32Cube/Repository/STM32Cube_FW_F4_V1.26.0/Middlewares/Third_Party/LwIP/src/core/ipv4/ip4.c **** #endif /* IP_FORWARD_ALLOW_TX_ON_RX_NETIF */
 317:/Users/nhantt/STM32Cube/Repository/STM32Cube_FW_F4_V1.26.0/Middlewares/Third_Party/LwIP/src/core/ipv4/ip4.c **** 
 318:/Users/nhantt/STM32Cube/Repository/STM32Cube_FW_F4_V1.26.0/Middlewares/Third_Party/LwIP/src/core/ipv4/ip4.c ****   /* decrement TTL */
 319:/Users/nhantt/STM32Cube/Repository/STM32Cube_FW_F4_V1.26.0/Middlewares/Third_Party/LwIP/src/core/ipv4/ip4.c ****   IPH_TTL_SET(iphdr, IPH_TTL(iphdr) - 1);
 320:/Users/nhantt/STM32Cube/Repository/STM32Cube_FW_F4_V1.26.0/Middlewares/Third_Party/LwIP/src/core/ipv4/ip4.c ****   /* send ICMP if TTL == 0 */
 321:/Users/nhantt/STM32Cube/Repository/STM32Cube_FW_F4_V1.26.0/Middlewares/Third_Party/LwIP/src/core/ipv4/ip4.c ****   if (IPH_TTL(iphdr) == 0) {
 322:/Users/nhantt/STM32Cube/Repository/STM32Cube_FW_F4_V1.26.0/Middlewares/Third_Party/LwIP/src/core/ipv4/ip4.c ****     MIB2_STATS_INC(mib2.ipinhdrerrors);
 323:/Users/nhantt/STM32Cube/Repository/STM32Cube_FW_F4_V1.26.0/Middlewares/Third_Party/LwIP/src/core/ipv4/ip4.c **** #if LWIP_ICMP
 324:/Users/nhantt/STM32Cube/Repository/STM32Cube_FW_F4_V1.26.0/Middlewares/Third_Party/LwIP/src/core/ipv4/ip4.c ****     /* Don't send ICMP messages in response to ICMP messages */
 325:/Users/nhantt/STM32Cube/Repository/STM32Cube_FW_F4_V1.26.0/Middlewares/Third_Party/LwIP/src/core/ipv4/ip4.c ****     if (IPH_PROTO(iphdr) != IP_PROTO_ICMP) {
 326:/Users/nhantt/STM32Cube/Repository/STM32Cube_FW_F4_V1.26.0/Middlewares/Third_Party/LwIP/src/core/ipv4/ip4.c ****       icmp_time_exceeded(p, ICMP_TE_TTL);
 327:/Users/nhantt/STM32Cube/Repository/STM32Cube_FW_F4_V1.26.0/Middlewares/Third_Party/LwIP/src/core/ipv4/ip4.c ****     }
 328:/Users/nhantt/STM32Cube/Repository/STM32Cube_FW_F4_V1.26.0/Middlewares/Third_Party/LwIP/src/core/ipv4/ip4.c **** #endif /* LWIP_ICMP */
 329:/Users/nhantt/STM32Cube/Repository/STM32Cube_FW_F4_V1.26.0/Middlewares/Third_Party/LwIP/src/core/ipv4/ip4.c ****     return;
 330:/Users/nhantt/STM32Cube/Repository/STM32Cube_FW_F4_V1.26.0/Middlewares/Third_Party/LwIP/src/core/ipv4/ip4.c ****   }
 331:/Users/nhantt/STM32Cube/Repository/STM32Cube_FW_F4_V1.26.0/Middlewares/Third_Party/LwIP/src/core/ipv4/ip4.c **** 
 332:/Users/nhantt/STM32Cube/Repository/STM32Cube_FW_F4_V1.26.0/Middlewares/Third_Party/LwIP/src/core/ipv4/ip4.c ****   /* Incrementally update the IP checksum. */
 333:/Users/nhantt/STM32Cube/Repository/STM32Cube_FW_F4_V1.26.0/Middlewares/Third_Party/LwIP/src/core/ipv4/ip4.c ****   if (IPH_CHKSUM(iphdr) >= PP_HTONS(0xffffU - 0x100)) {
 334:/Users/nhantt/STM32Cube/Repository/STM32Cube_FW_F4_V1.26.0/Middlewares/Third_Party/LwIP/src/core/ipv4/ip4.c ****     IPH_CHKSUM_SET(iphdr, (u16_t)(IPH_CHKSUM(iphdr) + PP_HTONS(0x100) + 1));
 335:/Users/nhantt/STM32Cube/Repository/STM32Cube_FW_F4_V1.26.0/Middlewares/Third_Party/LwIP/src/core/ipv4/ip4.c ****   } else {
 336:/Users/nhantt/STM32Cube/Repository/STM32Cube_FW_F4_V1.26.0/Middlewares/Third_Party/LwIP/src/core/ipv4/ip4.c ****     IPH_CHKSUM_SET(iphdr, (u16_t)(IPH_CHKSUM(iphdr) + PP_HTONS(0x100)));
 337:/Users/nhantt/STM32Cube/Repository/STM32Cube_FW_F4_V1.26.0/Middlewares/Third_Party/LwIP/src/core/ipv4/ip4.c ****   }
 338:/Users/nhantt/STM32Cube/Repository/STM32Cube_FW_F4_V1.26.0/Middlewares/Third_Party/LwIP/src/core/ipv4/ip4.c **** 
 339:/Users/nhantt/STM32Cube/Repository/STM32Cube_FW_F4_V1.26.0/Middlewares/Third_Party/LwIP/src/core/ipv4/ip4.c ****   LWIP_DEBUGF(IP_DEBUG, ("ip4_forward: forwarding packet to %"U16_F".%"U16_F".%"U16_F".%"U16_F"\n",
 340:/Users/nhantt/STM32Cube/Repository/STM32Cube_FW_F4_V1.26.0/Middlewares/Third_Party/LwIP/src/core/ipv4/ip4.c ****                          ip4_addr1_16(ip4_current_dest_addr()), ip4_addr2_16(ip4_current_dest_addr(
 341:/Users/nhantt/STM32Cube/Repository/STM32Cube_FW_F4_V1.26.0/Middlewares/Third_Party/LwIP/src/core/ipv4/ip4.c ****                          ip4_addr3_16(ip4_current_dest_addr()), ip4_addr4_16(ip4_current_dest_addr(
 342:/Users/nhantt/STM32Cube/Repository/STM32Cube_FW_F4_V1.26.0/Middlewares/Third_Party/LwIP/src/core/ipv4/ip4.c **** 
 343:/Users/nhantt/STM32Cube/Repository/STM32Cube_FW_F4_V1.26.0/Middlewares/Third_Party/LwIP/src/core/ipv4/ip4.c ****   IP_STATS_INC(ip.fw);
 344:/Users/nhantt/STM32Cube/Repository/STM32Cube_FW_F4_V1.26.0/Middlewares/Third_Party/LwIP/src/core/ipv4/ip4.c ****   MIB2_STATS_INC(mib2.ipforwdatagrams);
 345:/Users/nhantt/STM32Cube/Repository/STM32Cube_FW_F4_V1.26.0/Middlewares/Third_Party/LwIP/src/core/ipv4/ip4.c ****   IP_STATS_INC(ip.xmit);
 346:/Users/nhantt/STM32Cube/Repository/STM32Cube_FW_F4_V1.26.0/Middlewares/Third_Party/LwIP/src/core/ipv4/ip4.c **** 
 347:/Users/nhantt/STM32Cube/Repository/STM32Cube_FW_F4_V1.26.0/Middlewares/Third_Party/LwIP/src/core/ipv4/ip4.c ****   PERF_STOP("ip4_forward");
 348:/Users/nhantt/STM32Cube/Repository/STM32Cube_FW_F4_V1.26.0/Middlewares/Third_Party/LwIP/src/core/ipv4/ip4.c ****   /* don't fragment if interface has mtu set to 0 [loopif] */
 349:/Users/nhantt/STM32Cube/Repository/STM32Cube_FW_F4_V1.26.0/Middlewares/Third_Party/LwIP/src/core/ipv4/ip4.c ****   if (netif->mtu && (p->tot_len > netif->mtu)) {
 350:/Users/nhantt/STM32Cube/Repository/STM32Cube_FW_F4_V1.26.0/Middlewares/Third_Party/LwIP/src/core/ipv4/ip4.c ****     if ((IPH_OFFSET(iphdr) & PP_NTOHS(IP_DF)) == 0) {
 351:/Users/nhantt/STM32Cube/Repository/STM32Cube_FW_F4_V1.26.0/Middlewares/Third_Party/LwIP/src/core/ipv4/ip4.c **** #if IP_FRAG
 352:/Users/nhantt/STM32Cube/Repository/STM32Cube_FW_F4_V1.26.0/Middlewares/Third_Party/LwIP/src/core/ipv4/ip4.c ****       ip4_frag(p, netif, ip4_current_dest_addr());
 353:/Users/nhantt/STM32Cube/Repository/STM32Cube_FW_F4_V1.26.0/Middlewares/Third_Party/LwIP/src/core/ipv4/ip4.c **** #else /* IP_FRAG */
 354:/Users/nhantt/STM32Cube/Repository/STM32Cube_FW_F4_V1.26.0/Middlewares/Third_Party/LwIP/src/core/ipv4/ip4.c ****       /* @todo: send ICMP Destination Unreachable code 13 "Communication administratively prohibite
 355:/Users/nhantt/STM32Cube/Repository/STM32Cube_FW_F4_V1.26.0/Middlewares/Third_Party/LwIP/src/core/ipv4/ip4.c **** #endif /* IP_FRAG */
 356:/Users/nhantt/STM32Cube/Repository/STM32Cube_FW_F4_V1.26.0/Middlewares/Third_Party/LwIP/src/core/ipv4/ip4.c ****     } else {
 357:/Users/nhantt/STM32Cube/Repository/STM32Cube_FW_F4_V1.26.0/Middlewares/Third_Party/LwIP/src/core/ipv4/ip4.c **** #if LWIP_ICMP
 358:/Users/nhantt/STM32Cube/Repository/STM32Cube_FW_F4_V1.26.0/Middlewares/Third_Party/LwIP/src/core/ipv4/ip4.c ****       /* send ICMP Destination Unreachable code 4: "Fragmentation Needed and DF Set" */
 359:/Users/nhantt/STM32Cube/Repository/STM32Cube_FW_F4_V1.26.0/Middlewares/Third_Party/LwIP/src/core/ipv4/ip4.c ****       icmp_dest_unreach(p, ICMP_DUR_FRAG);
 360:/Users/nhantt/STM32Cube/Repository/STM32Cube_FW_F4_V1.26.0/Middlewares/Third_Party/LwIP/src/core/ipv4/ip4.c **** #endif /* LWIP_ICMP */
 361:/Users/nhantt/STM32Cube/Repository/STM32Cube_FW_F4_V1.26.0/Middlewares/Third_Party/LwIP/src/core/ipv4/ip4.c ****     }
 362:/Users/nhantt/STM32Cube/Repository/STM32Cube_FW_F4_V1.26.0/Middlewares/Third_Party/LwIP/src/core/ipv4/ip4.c ****     return;
 363:/Users/nhantt/STM32Cube/Repository/STM32Cube_FW_F4_V1.26.0/Middlewares/Third_Party/LwIP/src/core/ipv4/ip4.c ****   }
 364:/Users/nhantt/STM32Cube/Repository/STM32Cube_FW_F4_V1.26.0/Middlewares/Third_Party/LwIP/src/core/ipv4/ip4.c ****   /* transmit pbuf on chosen interface */
 365:/Users/nhantt/STM32Cube/Repository/STM32Cube_FW_F4_V1.26.0/Middlewares/Third_Party/LwIP/src/core/ipv4/ip4.c ****   netif->output(netif, p, ip4_current_dest_addr());
 366:/Users/nhantt/STM32Cube/Repository/STM32Cube_FW_F4_V1.26.0/Middlewares/Third_Party/LwIP/src/core/ipv4/ip4.c ****   return;
 367:/Users/nhantt/STM32Cube/Repository/STM32Cube_FW_F4_V1.26.0/Middlewares/Third_Party/LwIP/src/core/ipv4/ip4.c **** return_noroute:
 368:/Users/nhantt/STM32Cube/Repository/STM32Cube_FW_F4_V1.26.0/Middlewares/Third_Party/LwIP/src/core/ipv4/ip4.c ****   MIB2_STATS_INC(mib2.ipoutnoroutes);
 369:/Users/nhantt/STM32Cube/Repository/STM32Cube_FW_F4_V1.26.0/Middlewares/Third_Party/LwIP/src/core/ipv4/ip4.c **** }
 370:/Users/nhantt/STM32Cube/Repository/STM32Cube_FW_F4_V1.26.0/Middlewares/Third_Party/LwIP/src/core/ipv4/ip4.c **** #endif /* IP_FORWARD */
 371:/Users/nhantt/STM32Cube/Repository/STM32Cube_FW_F4_V1.26.0/Middlewares/Third_Party/LwIP/src/core/ipv4/ip4.c **** 
 372:/Users/nhantt/STM32Cube/Repository/STM32Cube_FW_F4_V1.26.0/Middlewares/Third_Party/LwIP/src/core/ipv4/ip4.c **** /** Return true if the current input packet should be accepted on this netif */
ARM GAS  /var/folders/k2/cd9bl_j17z77g23y6ffqb_400000gn/T//ccJwgoEp.s 			page 8


 373:/Users/nhantt/STM32Cube/Repository/STM32Cube_FW_F4_V1.26.0/Middlewares/Third_Party/LwIP/src/core/ipv4/ip4.c **** static int
 374:/Users/nhantt/STM32Cube/Repository/STM32Cube_FW_F4_V1.26.0/Middlewares/Third_Party/LwIP/src/core/ipv4/ip4.c **** ip4_input_accept(struct netif *netif)
 375:/Users/nhantt/STM32Cube/Repository/STM32Cube_FW_F4_V1.26.0/Middlewares/Third_Party/LwIP/src/core/ipv4/ip4.c **** {
  29              		.loc 1 375 1 view -0
  30              		.cfi_startproc
  31              		@ args = 0, pretend = 0, frame = 0
  32              		@ frame_needed = 0, uses_anonymous_args = 0
  33              		.loc 1 375 1 is_stmt 0 view .LVU1
  34 0000 08B5     		push	{r3, lr}
  35              	.LCFI0:
  36              		.cfi_def_cfa_offset 8
  37              		.cfi_offset 3, -8
  38              		.cfi_offset 14, -4
 376:/Users/nhantt/STM32Cube/Repository/STM32Cube_FW_F4_V1.26.0/Middlewares/Third_Party/LwIP/src/core/ipv4/ip4.c ****   LWIP_DEBUGF(IP_DEBUG, ("ip_input: iphdr->dest 0x%"X32_F" netif->ip_addr 0x%"X32_F" (0x%"X32_F", 0
 377:/Users/nhantt/STM32Cube/Repository/STM32Cube_FW_F4_V1.26.0/Middlewares/Third_Party/LwIP/src/core/ipv4/ip4.c ****                          ip4_addr_get_u32(ip4_current_dest_addr()), ip4_addr_get_u32(netif_ip4_addr
 378:/Users/nhantt/STM32Cube/Repository/STM32Cube_FW_F4_V1.26.0/Middlewares/Third_Party/LwIP/src/core/ipv4/ip4.c ****                          ip4_addr_get_u32(ip4_current_dest_addr()) & ip4_addr_get_u32(netif_ip4_net
 379:/Users/nhantt/STM32Cube/Repository/STM32Cube_FW_F4_V1.26.0/Middlewares/Third_Party/LwIP/src/core/ipv4/ip4.c ****                          ip4_addr_get_u32(netif_ip4_addr(netif)) & ip4_addr_get_u32(netif_ip4_netma
 380:/Users/nhantt/STM32Cube/Repository/STM32Cube_FW_F4_V1.26.0/Middlewares/Third_Party/LwIP/src/core/ipv4/ip4.c ****                          ip4_addr_get_u32(ip4_current_dest_addr()) & ~ip4_addr_get_u32(netif_ip4_ne
  39              		.loc 1 380 115 is_stmt 1 view .LVU2
 381:/Users/nhantt/STM32Cube/Repository/STM32Cube_FW_F4_V1.26.0/Middlewares/Third_Party/LwIP/src/core/ipv4/ip4.c **** 
 382:/Users/nhantt/STM32Cube/Repository/STM32Cube_FW_F4_V1.26.0/Middlewares/Third_Party/LwIP/src/core/ipv4/ip4.c ****   /* interface is up and configured? */
 383:/Users/nhantt/STM32Cube/Repository/STM32Cube_FW_F4_V1.26.0/Middlewares/Third_Party/LwIP/src/core/ipv4/ip4.c ****   if ((netif_is_up(netif)) && (!ip4_addr_isany_val(*netif_ip4_addr(netif)))) {
  40              		.loc 1 383 3 view .LVU3
  41              		.loc 1 383 8 is_stmt 0 view .LVU4
  42 0002 90F83130 		ldrb	r3, [r0, #49]	@ zero_extendqisi2
  43              		.loc 1 383 6 view .LVU5
  44 0006 13F0010F 		tst	r3, #1
  45 000a 0DD0     		beq	.L4
  46 000c 0146     		mov	r1, r0
  47              		.loc 1 383 33 discriminator 1 view .LVU6
  48 000e 4368     		ldr	r3, [r0, #4]
  49              		.loc 1 383 28 discriminator 1 view .LVU7
  50 0010 63B1     		cbz	r3, .L5
 384:/Users/nhantt/STM32Cube/Repository/STM32Cube_FW_F4_V1.26.0/Middlewares/Third_Party/LwIP/src/core/ipv4/ip4.c ****     /* unicast to this interface address? */
 385:/Users/nhantt/STM32Cube/Repository/STM32Cube_FW_F4_V1.26.0/Middlewares/Third_Party/LwIP/src/core/ipv4/ip4.c ****     if (ip4_addr_cmp(ip4_current_dest_addr(), netif_ip4_addr(netif)) ||
  51              		.loc 1 385 5 is_stmt 1 view .LVU8
  52              		.loc 1 385 9 is_stmt 0 view .LVU9
  53 0012 074A     		ldr	r2, .L8
  54 0014 5069     		ldr	r0, [r2, #20]
  55              	.LVL1:
  56              		.loc 1 385 8 view .LVU10
  57 0016 8342     		cmp	r3, r0
  58 0018 04D0     		beq	.L3
 386:/Users/nhantt/STM32Cube/Repository/STM32Cube_FW_F4_V1.26.0/Middlewares/Third_Party/LwIP/src/core/ipv4/ip4.c ****         /* or broadcast on this interface network address? */
 387:/Users/nhantt/STM32Cube/Repository/STM32Cube_FW_F4_V1.26.0/Middlewares/Third_Party/LwIP/src/core/ipv4/ip4.c ****         ip4_addr_isbroadcast(ip4_current_dest_addr(), netif)
  59              		.loc 1 387 9 discriminator 1 view .LVU11
  60 001a FFF7FEFF 		bl	ip4_addr_isbroadcast_u32
  61              	.LVL2:
 385:/Users/nhantt/STM32Cube/Repository/STM32Cube_FW_F4_V1.26.0/Middlewares/Third_Party/LwIP/src/core/ipv4/ip4.c ****         /* or broadcast on this interface network address? */
  62              		.loc 1 385 70 discriminator 1 view .LVU12
  63 001e 08B9     		cbnz	r0, .L3
 388:/Users/nhantt/STM32Cube/Repository/STM32Cube_FW_F4_V1.26.0/Middlewares/Third_Party/LwIP/src/core/ipv4/ip4.c **** #if LWIP_NETIF_LOOPBACK && !LWIP_HAVE_LOOPIF
 389:/Users/nhantt/STM32Cube/Repository/STM32Cube_FW_F4_V1.26.0/Middlewares/Third_Party/LwIP/src/core/ipv4/ip4.c ****         || (ip4_addr_get_u32(ip4_current_dest_addr()) == PP_HTONL(IPADDR_LOOPBACK))
 390:/Users/nhantt/STM32Cube/Repository/STM32Cube_FW_F4_V1.26.0/Middlewares/Third_Party/LwIP/src/core/ipv4/ip4.c **** #endif /* LWIP_NETIF_LOOPBACK && !LWIP_HAVE_LOOPIF */
 391:/Users/nhantt/STM32Cube/Repository/STM32Cube_FW_F4_V1.26.0/Middlewares/Third_Party/LwIP/src/core/ipv4/ip4.c ****        ) {
 392:/Users/nhantt/STM32Cube/Repository/STM32Cube_FW_F4_V1.26.0/Middlewares/Third_Party/LwIP/src/core/ipv4/ip4.c ****       LWIP_DEBUGF(IP_DEBUG, ("ip4_input: packet accepted on interface %c%c\n",
 393:/Users/nhantt/STM32Cube/Repository/STM32Cube_FW_F4_V1.26.0/Middlewares/Third_Party/LwIP/src/core/ipv4/ip4.c ****                              netif->name[0], netif->name[1]));
ARM GAS  /var/folders/k2/cd9bl_j17z77g23y6ffqb_400000gn/T//ccJwgoEp.s 			page 9


 394:/Users/nhantt/STM32Cube/Repository/STM32Cube_FW_F4_V1.26.0/Middlewares/Third_Party/LwIP/src/core/ipv4/ip4.c ****       /* accept on this netif */
 395:/Users/nhantt/STM32Cube/Repository/STM32Cube_FW_F4_V1.26.0/Middlewares/Third_Party/LwIP/src/core/ipv4/ip4.c ****       return 1;
 396:/Users/nhantt/STM32Cube/Repository/STM32Cube_FW_F4_V1.26.0/Middlewares/Third_Party/LwIP/src/core/ipv4/ip4.c ****     }
 397:/Users/nhantt/STM32Cube/Repository/STM32Cube_FW_F4_V1.26.0/Middlewares/Third_Party/LwIP/src/core/ipv4/ip4.c **** #if LWIP_AUTOIP
 398:/Users/nhantt/STM32Cube/Repository/STM32Cube_FW_F4_V1.26.0/Middlewares/Third_Party/LwIP/src/core/ipv4/ip4.c ****     /* connections to link-local addresses must persist after changing
 399:/Users/nhantt/STM32Cube/Repository/STM32Cube_FW_F4_V1.26.0/Middlewares/Third_Party/LwIP/src/core/ipv4/ip4.c ****         the netif's address (RFC3927 ch. 1.9) */
 400:/Users/nhantt/STM32Cube/Repository/STM32Cube_FW_F4_V1.26.0/Middlewares/Third_Party/LwIP/src/core/ipv4/ip4.c ****     if (autoip_accept_packet(netif, ip4_current_dest_addr())) {
 401:/Users/nhantt/STM32Cube/Repository/STM32Cube_FW_F4_V1.26.0/Middlewares/Third_Party/LwIP/src/core/ipv4/ip4.c ****       LWIP_DEBUGF(IP_DEBUG, ("ip4_input: LLA packet accepted on interface %c%c\n",
 402:/Users/nhantt/STM32Cube/Repository/STM32Cube_FW_F4_V1.26.0/Middlewares/Third_Party/LwIP/src/core/ipv4/ip4.c ****                              netif->name[0], netif->name[1]));
 403:/Users/nhantt/STM32Cube/Repository/STM32Cube_FW_F4_V1.26.0/Middlewares/Third_Party/LwIP/src/core/ipv4/ip4.c ****       /* accept on this netif */
 404:/Users/nhantt/STM32Cube/Repository/STM32Cube_FW_F4_V1.26.0/Middlewares/Third_Party/LwIP/src/core/ipv4/ip4.c ****       return 1;
 405:/Users/nhantt/STM32Cube/Repository/STM32Cube_FW_F4_V1.26.0/Middlewares/Third_Party/LwIP/src/core/ipv4/ip4.c ****     }
 406:/Users/nhantt/STM32Cube/Repository/STM32Cube_FW_F4_V1.26.0/Middlewares/Third_Party/LwIP/src/core/ipv4/ip4.c **** #endif /* LWIP_AUTOIP */
 407:/Users/nhantt/STM32Cube/Repository/STM32Cube_FW_F4_V1.26.0/Middlewares/Third_Party/LwIP/src/core/ipv4/ip4.c ****   }
 408:/Users/nhantt/STM32Cube/Repository/STM32Cube_FW_F4_V1.26.0/Middlewares/Third_Party/LwIP/src/core/ipv4/ip4.c ****   return 0;
  64              		.loc 1 408 10 view .LVU13
  65 0020 0020     		movs	r0, #0
  66 0022 02E0     		b	.L1
  67              	.L3:
 393:/Users/nhantt/STM32Cube/Repository/STM32Cube_FW_F4_V1.26.0/Middlewares/Third_Party/LwIP/src/core/ipv4/ip4.c ****       /* accept on this netif */
  68              		.loc 1 393 62 is_stmt 1 view .LVU14
 395:/Users/nhantt/STM32Cube/Repository/STM32Cube_FW_F4_V1.26.0/Middlewares/Third_Party/LwIP/src/core/ipv4/ip4.c ****     }
  69              		.loc 1 395 7 view .LVU15
 395:/Users/nhantt/STM32Cube/Repository/STM32Cube_FW_F4_V1.26.0/Middlewares/Third_Party/LwIP/src/core/ipv4/ip4.c ****     }
  70              		.loc 1 395 14 is_stmt 0 view .LVU16
  71 0024 0120     		movs	r0, #1
  72 0026 00E0     		b	.L1
  73              	.LVL3:
  74              	.L4:
  75              		.loc 1 408 10 view .LVU17
  76 0028 0020     		movs	r0, #0
  77              	.LVL4:
  78              	.L1:
 409:/Users/nhantt/STM32Cube/Repository/STM32Cube_FW_F4_V1.26.0/Middlewares/Third_Party/LwIP/src/core/ipv4/ip4.c **** }
  79              		.loc 1 409 1 view .LVU18
  80 002a 08BD     		pop	{r3, pc}
  81              	.LVL5:
  82              	.L5:
 408:/Users/nhantt/STM32Cube/Repository/STM32Cube_FW_F4_V1.26.0/Middlewares/Third_Party/LwIP/src/core/ipv4/ip4.c **** }
  83              		.loc 1 408 10 view .LVU19
  84 002c 0020     		movs	r0, #0
  85              	.LVL6:
 408:/Users/nhantt/STM32Cube/Repository/STM32Cube_FW_F4_V1.26.0/Middlewares/Third_Party/LwIP/src/core/ipv4/ip4.c **** }
  86              		.loc 1 408 10 view .LVU20
  87 002e FCE7     		b	.L1
  88              	.L9:
  89              		.align	2
  90              	.L8:
  91 0030 00000000 		.word	ip_data
  92              		.cfi_endproc
  93              	.LFE156:
  95              		.section	.text.ip4_route,"ax",%progbits
  96              		.align	1
  97              		.global	ip4_route
  98              		.syntax unified
  99              		.thumb
 100              		.thumb_func
ARM GAS  /var/folders/k2/cd9bl_j17z77g23y6ffqb_400000gn/T//ccJwgoEp.s 			page 10


 101              		.fpu fpv4-sp-d16
 103              	ip4_route:
 104              	.LVL7:
 105              	.LFB155:
 153:/Users/nhantt/STM32Cube/Repository/STM32Cube_FW_F4_V1.26.0/Middlewares/Third_Party/LwIP/src/core/ipv4/ip4.c **** #if !LWIP_SINGLE_NETIF
 106              		.loc 1 153 1 is_stmt 1 view -0
 107              		.cfi_startproc
 108              		@ args = 0, pretend = 0, frame = 0
 109              		@ frame_needed = 0, uses_anonymous_args = 0
 110              		@ link register save eliminated.
 153:/Users/nhantt/STM32Cube/Repository/STM32Cube_FW_F4_V1.26.0/Middlewares/Third_Party/LwIP/src/core/ipv4/ip4.c **** #if !LWIP_SINGLE_NETIF
 111              		.loc 1 153 1 is_stmt 0 view .LVU22
 112 0000 8446     		mov	ip, r0
 155:/Users/nhantt/STM32Cube/Repository/STM32Cube_FW_F4_V1.26.0/Middlewares/Third_Party/LwIP/src/core/ipv4/ip4.c **** 
 113              		.loc 1 155 3 is_stmt 1 view .LVU23
 157:/Users/nhantt/STM32Cube/Repository/STM32Cube_FW_F4_V1.26.0/Middlewares/Third_Party/LwIP/src/core/ipv4/ip4.c **** 
 114              		.loc 1 157 28 view .LVU24
 167:/Users/nhantt/STM32Cube/Repository/STM32Cube_FW_F4_V1.26.0/Middlewares/Third_Party/LwIP/src/core/ipv4/ip4.c **** 
 115              		.loc 1 167 3 view .LVU25
 170:/Users/nhantt/STM32Cube/Repository/STM32Cube_FW_F4_V1.26.0/Middlewares/Third_Party/LwIP/src/core/ipv4/ip4.c ****     /* is the netif up, does it have a link and a valid address? */
 116              		.loc 1 170 3 view .LVU26
 117 0002 284B     		ldr	r3, .L31
 118 0004 1868     		ldr	r0, [r3]
 119              	.LVL8:
 170:/Users/nhantt/STM32Cube/Repository/STM32Cube_FW_F4_V1.26.0/Middlewares/Third_Party/LwIP/src/core/ipv4/ip4.c ****     /* is the netif up, does it have a link and a valid address? */
 120              		.loc 1 170 3 is_stmt 0 view .LVU27
 121 0006 2DE0     		b	.L16
 122              	.L12:
 123              	.LCFI1:
 124              		.cfi_def_cfa_offset 4
 125              		.cfi_offset 4, -4
 170:/Users/nhantt/STM32Cube/Repository/STM32Cube_FW_F4_V1.26.0/Middlewares/Third_Party/LwIP/src/core/ipv4/ip4.c ****     /* is the netif up, does it have a link and a valid address? */
 126              		.loc 1 170 3 is_stmt 1 discriminator 2 view .LVU28
 127 0008 0068     		ldr	r0, [r0]
 128              	.LVL9:
 170:/Users/nhantt/STM32Cube/Repository/STM32Cube_FW_F4_V1.26.0/Middlewares/Third_Party/LwIP/src/core/ipv4/ip4.c ****     /* is the netif up, does it have a link and a valid address? */
 129              		.loc 1 170 3 discriminator 2 view .LVU29
 130 000a B8B1     		cbz	r0, .L29
 172:/Users/nhantt/STM32Cube/Repository/STM32Cube_FW_F4_V1.26.0/Middlewares/Third_Party/LwIP/src/core/ipv4/ip4.c ****       /* network mask matches? */
 131              		.loc 1 172 5 view .LVU30
 172:/Users/nhantt/STM32Cube/Repository/STM32Cube_FW_F4_V1.26.0/Middlewares/Third_Party/LwIP/src/core/ipv4/ip4.c ****       /* network mask matches? */
 132              		.loc 1 172 9 is_stmt 0 view .LVU31
 133 000c 90F83130 		ldrb	r3, [r0, #49]	@ zero_extendqisi2
 172:/Users/nhantt/STM32Cube/Repository/STM32Cube_FW_F4_V1.26.0/Middlewares/Third_Party/LwIP/src/core/ipv4/ip4.c ****       /* network mask matches? */
 134              		.loc 1 172 8 view .LVU32
 135 0010 13F0010F 		tst	r3, #1
 136 0014 F8D0     		beq	.L12
 172:/Users/nhantt/STM32Cube/Repository/STM32Cube_FW_F4_V1.26.0/Middlewares/Third_Party/LwIP/src/core/ipv4/ip4.c ****       /* network mask matches? */
 137              		.loc 1 172 28 discriminator 1 view .LVU33
 138 0016 13F0040F 		tst	r3, #4
 139 001a F5D0     		beq	.L12
 172:/Users/nhantt/STM32Cube/Repository/STM32Cube_FW_F4_V1.26.0/Middlewares/Third_Party/LwIP/src/core/ipv4/ip4.c ****       /* network mask matches? */
 140              		.loc 1 172 59 discriminator 2 view .LVU34
 141 001c 4268     		ldr	r2, [r0, #4]
 172:/Users/nhantt/STM32Cube/Repository/STM32Cube_FW_F4_V1.26.0/Middlewares/Third_Party/LwIP/src/core/ipv4/ip4.c ****       /* network mask matches? */
 142              		.loc 1 172 55 discriminator 2 view .LVU35
 143 001e 002A     		cmp	r2, #0
ARM GAS  /var/folders/k2/cd9bl_j17z77g23y6ffqb_400000gn/T//ccJwgoEp.s 			page 11


 144 0020 F2D0     		beq	.L12
 145              	.L20:
 174:/Users/nhantt/STM32Cube/Repository/STM32Cube_FW_F4_V1.26.0/Middlewares/Third_Party/LwIP/src/core/ipv4/ip4.c ****         /* return netif on which to forward IP packet */
 146              		.loc 1 174 7 is_stmt 1 view .LVU36
 174:/Users/nhantt/STM32Cube/Repository/STM32Cube_FW_F4_V1.26.0/Middlewares/Third_Party/LwIP/src/core/ipv4/ip4.c ****         /* return netif on which to forward IP packet */
 147              		.loc 1 174 11 is_stmt 0 view .LVU37
 148 0022 DCF80010 		ldr	r1, [ip]
 149 0026 4A40     		eors	r2, r2, r1
 174:/Users/nhantt/STM32Cube/Repository/STM32Cube_FW_F4_V1.26.0/Middlewares/Third_Party/LwIP/src/core/ipv4/ip4.c ****         /* return netif on which to forward IP packet */
 150              		.loc 1 174 10 view .LVU38
 151 0028 8468     		ldr	r4, [r0, #8]
 152 002a 2242     		tst	r2, r4
 153 002c 16D0     		beq	.L10
 179:/Users/nhantt/STM32Cube/Repository/STM32Cube_FW_F4_V1.26.0/Middlewares/Third_Party/LwIP/src/core/ipv4/ip4.c ****         /* return netif on which to forward IP packet */
 154              		.loc 1 179 7 is_stmt 1 view .LVU39
 179:/Users/nhantt/STM32Cube/Repository/STM32Cube_FW_F4_V1.26.0/Middlewares/Third_Party/LwIP/src/core/ipv4/ip4.c ****         /* return netif on which to forward IP packet */
 155              		.loc 1 179 10 is_stmt 0 view .LVU40
 156 002e 13F0020F 		tst	r3, #2
 157 0032 E9D1     		bne	.L12
 179:/Users/nhantt/STM32Cube/Repository/STM32Cube_FW_F4_V1.26.0/Middlewares/Third_Party/LwIP/src/core/ipv4/ip4.c ****         /* return netif on which to forward IP packet */
 158              		.loc 1 179 59 discriminator 1 view .LVU41
 159 0034 C368     		ldr	r3, [r0, #12]
 179:/Users/nhantt/STM32Cube/Repository/STM32Cube_FW_F4_V1.26.0/Middlewares/Third_Party/LwIP/src/core/ipv4/ip4.c ****         /* return netif on which to forward IP packet */
 160              		.loc 1 179 56 discriminator 1 view .LVU42
 161 0036 9942     		cmp	r1, r3
 162 0038 E6D1     		bne	.L12
 163 003a 0FE0     		b	.L10
 164              	.L29:
 216:/Users/nhantt/STM32Cube/Repository/STM32Cube_FW_F4_V1.26.0/Middlewares/Third_Party/LwIP/src/core/ipv4/ip4.c ****       ip4_addr_isany_val(*netif_ip4_addr(netif_default)) || ip4_addr_isloopback(dest)) {
 165              		.loc 1 216 3 is_stmt 1 view .LVU43
 216:/Users/nhantt/STM32Cube/Repository/STM32Cube_FW_F4_V1.26.0/Middlewares/Third_Party/LwIP/src/core/ipv4/ip4.c ****       ip4_addr_isany_val(*netif_ip4_addr(netif_default)) || ip4_addr_isloopback(dest)) {
 166              		.loc 1 216 22 is_stmt 0 view .LVU44
 167 003c 1A4B     		ldr	r3, .L31+4
 168 003e 1B68     		ldr	r3, [r3]
 216:/Users/nhantt/STM32Cube/Repository/STM32Cube_FW_F4_V1.26.0/Middlewares/Third_Party/LwIP/src/core/ipv4/ip4.c ****       ip4_addr_isany_val(*netif_ip4_addr(netif_default)) || ip4_addr_isloopback(dest)) {
 169              		.loc 1 216 6 view .LVU45
 170 0040 63B1     		cbz	r3, .L10
 216:/Users/nhantt/STM32Cube/Repository/STM32Cube_FW_F4_V1.26.0/Middlewares/Third_Party/LwIP/src/core/ipv4/ip4.c ****       ip4_addr_isany_val(*netif_ip4_addr(netif_default)) || ip4_addr_isloopback(dest)) {
 171              		.loc 1 216 35 discriminator 1 view .LVU46
 172 0042 93F83120 		ldrb	r2, [r3, #49]	@ zero_extendqisi2
 216:/Users/nhantt/STM32Cube/Repository/STM32Cube_FW_F4_V1.26.0/Middlewares/Third_Party/LwIP/src/core/ipv4/ip4.c ****       ip4_addr_isany_val(*netif_ip4_addr(netif_default)) || ip4_addr_isloopback(dest)) {
 173              		.loc 1 216 62 discriminator 1 view .LVU47
 174 0046 02F00502 		and	r2, r2, #5
 175 004a 052A     		cmp	r2, #5
 176 004c 06D1     		bne	.L10
 217:/Users/nhantt/STM32Cube/Repository/STM32Cube_FW_F4_V1.26.0/Middlewares/Third_Party/LwIP/src/core/ipv4/ip4.c ****     /* No matching netif found and default netif is not usable.
 177              		.loc 1 217 7 discriminator 2 view .LVU48
 178 004e 5A68     		ldr	r2, [r3, #4]
 216:/Users/nhantt/STM32Cube/Repository/STM32Cube_FW_F4_V1.26.0/Middlewares/Third_Party/LwIP/src/core/ipv4/ip4.c ****       ip4_addr_isany_val(*netif_ip4_addr(netif_default)) || ip4_addr_isloopback(dest)) {
 179              		.loc 1 216 98 discriminator 2 view .LVU49
 180 0050 22B1     		cbz	r2, .L10
 217:/Users/nhantt/STM32Cube/Repository/STM32Cube_FW_F4_V1.26.0/Middlewares/Third_Party/LwIP/src/core/ipv4/ip4.c ****     /* No matching netif found and default netif is not usable.
 181              		.loc 1 217 61 view .LVU50
 182 0052 9CF80020 		ldrb	r2, [ip]	@ zero_extendqisi2
 217:/Users/nhantt/STM32Cube/Repository/STM32Cube_FW_F4_V1.26.0/Middlewares/Third_Party/LwIP/src/core/ipv4/ip4.c ****     /* No matching netif found and default netif is not usable.
 183              		.loc 1 217 58 view .LVU51
 184 0056 7F2A     		cmp	r2, #127
ARM GAS  /var/folders/k2/cd9bl_j17z77g23y6ffqb_400000gn/T//ccJwgoEp.s 			page 12


 185 0058 00D0     		beq	.L10
 227:/Users/nhantt/STM32Cube/Repository/STM32Cube_FW_F4_V1.26.0/Middlewares/Third_Party/LwIP/src/core/ipv4/ip4.c **** }
 186              		.loc 1 227 10 view .LVU52
 187 005a 1846     		mov	r0, r3
 188              	.LVL10:
 189              	.L10:
 228:/Users/nhantt/STM32Cube/Repository/STM32Cube_FW_F4_V1.26.0/Middlewares/Third_Party/LwIP/src/core/ipv4/ip4.c **** 
 190              		.loc 1 228 1 view .LVU53
 191 005c 5DF8044B 		ldr	r4, [sp], #4
 192              	.LCFI2:
 193              		.cfi_restore 4
 194              		.cfi_def_cfa_offset 0
 195 0060 7047     		bx	lr
 196              	.LVL11:
 197              	.L18:
 170:/Users/nhantt/STM32Cube/Repository/STM32Cube_FW_F4_V1.26.0/Middlewares/Third_Party/LwIP/src/core/ipv4/ip4.c ****     /* is the netif up, does it have a link and a valid address? */
 198              		.loc 1 170 3 is_stmt 1 view .LVU54
 199 0062 0068     		ldr	r0, [r0]
 200              	.LVL12:
 201              	.L16:
 170:/Users/nhantt/STM32Cube/Repository/STM32Cube_FW_F4_V1.26.0/Middlewares/Third_Party/LwIP/src/core/ipv4/ip4.c ****     /* is the netif up, does it have a link and a valid address? */
 202              		.loc 1 170 3 view .LVU55
 203 0064 60B1     		cbz	r0, .L30
 172:/Users/nhantt/STM32Cube/Repository/STM32Cube_FW_F4_V1.26.0/Middlewares/Third_Party/LwIP/src/core/ipv4/ip4.c ****       /* network mask matches? */
 204              		.loc 1 172 5 view .LVU56
 172:/Users/nhantt/STM32Cube/Repository/STM32Cube_FW_F4_V1.26.0/Middlewares/Third_Party/LwIP/src/core/ipv4/ip4.c ****       /* network mask matches? */
 205              		.loc 1 172 9 is_stmt 0 view .LVU57
 206 0066 90F83130 		ldrb	r3, [r0, #49]	@ zero_extendqisi2
 172:/Users/nhantt/STM32Cube/Repository/STM32Cube_FW_F4_V1.26.0/Middlewares/Third_Party/LwIP/src/core/ipv4/ip4.c ****       /* network mask matches? */
 207              		.loc 1 172 8 view .LVU58
 208 006a 13F0010F 		tst	r3, #1
 209 006e F8D0     		beq	.L18
 172:/Users/nhantt/STM32Cube/Repository/STM32Cube_FW_F4_V1.26.0/Middlewares/Third_Party/LwIP/src/core/ipv4/ip4.c ****       /* network mask matches? */
 210              		.loc 1 172 28 view .LVU59
 211 0070 13F0040F 		tst	r3, #4
 212 0074 F5D0     		beq	.L18
 172:/Users/nhantt/STM32Cube/Repository/STM32Cube_FW_F4_V1.26.0/Middlewares/Third_Party/LwIP/src/core/ipv4/ip4.c ****       /* network mask matches? */
 213              		.loc 1 172 59 view .LVU60
 214 0076 4268     		ldr	r2, [r0, #4]
 172:/Users/nhantt/STM32Cube/Repository/STM32Cube_FW_F4_V1.26.0/Middlewares/Third_Party/LwIP/src/core/ipv4/ip4.c ****       /* network mask matches? */
 215              		.loc 1 172 55 view .LVU61
 216 0078 002A     		cmp	r2, #0
 217 007a F2D0     		beq	.L18
 153:/Users/nhantt/STM32Cube/Repository/STM32Cube_FW_F4_V1.26.0/Middlewares/Third_Party/LwIP/src/core/ipv4/ip4.c **** #if !LWIP_SINGLE_NETIF
 218              		.loc 1 153 1 view .LVU62
 219 007c 10B4     		push	{r4}
 220              	.LCFI3:
 221              		.cfi_def_cfa_offset 4
 222              		.cfi_offset 4, -4
 223 007e D0E7     		b	.L20
 224              	.L30:
 225              	.LCFI4:
 226              		.cfi_def_cfa_offset 0
 227              		.cfi_restore 4
 216:/Users/nhantt/STM32Cube/Repository/STM32Cube_FW_F4_V1.26.0/Middlewares/Third_Party/LwIP/src/core/ipv4/ip4.c ****       ip4_addr_isany_val(*netif_ip4_addr(netif_default)) || ip4_addr_isloopback(dest)) {
 228              		.loc 1 216 3 is_stmt 1 view .LVU63
 216:/Users/nhantt/STM32Cube/Repository/STM32Cube_FW_F4_V1.26.0/Middlewares/Third_Party/LwIP/src/core/ipv4/ip4.c ****       ip4_addr_isany_val(*netif_ip4_addr(netif_default)) || ip4_addr_isloopback(dest)) {
ARM GAS  /var/folders/k2/cd9bl_j17z77g23y6ffqb_400000gn/T//ccJwgoEp.s 			page 13


 229              		.loc 1 216 22 is_stmt 0 view .LVU64
 230 0080 094B     		ldr	r3, .L31+4
 231 0082 1B68     		ldr	r3, [r3]
 216:/Users/nhantt/STM32Cube/Repository/STM32Cube_FW_F4_V1.26.0/Middlewares/Third_Party/LwIP/src/core/ipv4/ip4.c ****       ip4_addr_isany_val(*netif_ip4_addr(netif_default)) || ip4_addr_isloopback(dest)) {
 232              		.loc 1 216 6 view .LVU65
 233 0084 6BB1     		cbz	r3, .L23
 216:/Users/nhantt/STM32Cube/Repository/STM32Cube_FW_F4_V1.26.0/Middlewares/Third_Party/LwIP/src/core/ipv4/ip4.c ****       ip4_addr_isany_val(*netif_ip4_addr(netif_default)) || ip4_addr_isloopback(dest)) {
 234              		.loc 1 216 35 view .LVU66
 235 0086 93F83120 		ldrb	r2, [r3, #49]	@ zero_extendqisi2
 216:/Users/nhantt/STM32Cube/Repository/STM32Cube_FW_F4_V1.26.0/Middlewares/Third_Party/LwIP/src/core/ipv4/ip4.c ****       ip4_addr_isany_val(*netif_ip4_addr(netif_default)) || ip4_addr_isloopback(dest)) {
 236              		.loc 1 216 62 view .LVU67
 237 008a 02F00502 		and	r2, r2, #5
 238 008e 052A     		cmp	r2, #5
 239 0090 07D1     		bne	.L23
 217:/Users/nhantt/STM32Cube/Repository/STM32Cube_FW_F4_V1.26.0/Middlewares/Third_Party/LwIP/src/core/ipv4/ip4.c ****     /* No matching netif found and default netif is not usable.
 240              		.loc 1 217 7 view .LVU68
 241 0092 5A68     		ldr	r2, [r3, #4]
 216:/Users/nhantt/STM32Cube/Repository/STM32Cube_FW_F4_V1.26.0/Middlewares/Third_Party/LwIP/src/core/ipv4/ip4.c ****       ip4_addr_isany_val(*netif_ip4_addr(netif_default)) || ip4_addr_isloopback(dest)) {
 242              		.loc 1 216 98 view .LVU69
 243 0094 2AB1     		cbz	r2, .L23
 217:/Users/nhantt/STM32Cube/Repository/STM32Cube_FW_F4_V1.26.0/Middlewares/Third_Party/LwIP/src/core/ipv4/ip4.c ****     /* No matching netif found and default netif is not usable.
 244              		.loc 1 217 61 view .LVU70
 245 0096 9CF80020 		ldrb	r2, [ip]	@ zero_extendqisi2
 217:/Users/nhantt/STM32Cube/Repository/STM32Cube_FW_F4_V1.26.0/Middlewares/Third_Party/LwIP/src/core/ipv4/ip4.c ****     /* No matching netif found and default netif is not usable.
 246              		.loc 1 217 58 view .LVU71
 247 009a 7F2A     		cmp	r2, #127
 248 009c 01D0     		beq	.L23
 227:/Users/nhantt/STM32Cube/Repository/STM32Cube_FW_F4_V1.26.0/Middlewares/Third_Party/LwIP/src/core/ipv4/ip4.c **** }
 249              		.loc 1 227 10 view .LVU72
 250 009e 1846     		mov	r0, r3
 251              	.LVL13:
 227:/Users/nhantt/STM32Cube/Repository/STM32Cube_FW_F4_V1.26.0/Middlewares/Third_Party/LwIP/src/core/ipv4/ip4.c **** }
 252              		.loc 1 227 10 view .LVU73
 253 00a0 7047     		bx	lr
 254              	.LVL14:
 255              	.L23:
 228:/Users/nhantt/STM32Cube/Repository/STM32Cube_FW_F4_V1.26.0/Middlewares/Third_Party/LwIP/src/core/ipv4/ip4.c **** 
 256              		.loc 1 228 1 view .LVU74
 257 00a2 7047     		bx	lr
 258              	.L32:
 259              		.align	2
 260              	.L31:
 261 00a4 00000000 		.word	netif_list
 262 00a8 00000000 		.word	netif_default
 263              		.cfi_endproc
 264              	.LFE155:
 266              		.section	.text.ip4_input,"ax",%progbits
 267              		.align	1
 268              		.global	ip4_input
 269              		.syntax unified
 270              		.thumb
 271              		.thumb_func
 272              		.fpu fpv4-sp-d16
 274              	ip4_input:
 275              	.LVL15:
 276              	.LFB157:
 410:/Users/nhantt/STM32Cube/Repository/STM32Cube_FW_F4_V1.26.0/Middlewares/Third_Party/LwIP/src/core/ipv4/ip4.c **** 
ARM GAS  /var/folders/k2/cd9bl_j17z77g23y6ffqb_400000gn/T//ccJwgoEp.s 			page 14


 411:/Users/nhantt/STM32Cube/Repository/STM32Cube_FW_F4_V1.26.0/Middlewares/Third_Party/LwIP/src/core/ipv4/ip4.c **** /**
 412:/Users/nhantt/STM32Cube/Repository/STM32Cube_FW_F4_V1.26.0/Middlewares/Third_Party/LwIP/src/core/ipv4/ip4.c ****  * This function is called by the network interface device driver when
 413:/Users/nhantt/STM32Cube/Repository/STM32Cube_FW_F4_V1.26.0/Middlewares/Third_Party/LwIP/src/core/ipv4/ip4.c ****  * an IP packet is received. The function does the basic checks of the
 414:/Users/nhantt/STM32Cube/Repository/STM32Cube_FW_F4_V1.26.0/Middlewares/Third_Party/LwIP/src/core/ipv4/ip4.c ****  * IP header such as packet size being at least larger than the header
 415:/Users/nhantt/STM32Cube/Repository/STM32Cube_FW_F4_V1.26.0/Middlewares/Third_Party/LwIP/src/core/ipv4/ip4.c ****  * size etc. If the packet was not destined for us, the packet is
 416:/Users/nhantt/STM32Cube/Repository/STM32Cube_FW_F4_V1.26.0/Middlewares/Third_Party/LwIP/src/core/ipv4/ip4.c ****  * forwarded (using ip_forward). The IP checksum is always checked.
 417:/Users/nhantt/STM32Cube/Repository/STM32Cube_FW_F4_V1.26.0/Middlewares/Third_Party/LwIP/src/core/ipv4/ip4.c ****  *
 418:/Users/nhantt/STM32Cube/Repository/STM32Cube_FW_F4_V1.26.0/Middlewares/Third_Party/LwIP/src/core/ipv4/ip4.c ****  * Finally, the packet is sent to the upper layer protocol input function.
 419:/Users/nhantt/STM32Cube/Repository/STM32Cube_FW_F4_V1.26.0/Middlewares/Third_Party/LwIP/src/core/ipv4/ip4.c ****  *
 420:/Users/nhantt/STM32Cube/Repository/STM32Cube_FW_F4_V1.26.0/Middlewares/Third_Party/LwIP/src/core/ipv4/ip4.c ****  * @param p the received IP packet (p->payload points to IP header)
 421:/Users/nhantt/STM32Cube/Repository/STM32Cube_FW_F4_V1.26.0/Middlewares/Third_Party/LwIP/src/core/ipv4/ip4.c ****  * @param inp the netif on which this packet was received
 422:/Users/nhantt/STM32Cube/Repository/STM32Cube_FW_F4_V1.26.0/Middlewares/Third_Party/LwIP/src/core/ipv4/ip4.c ****  * @return ERR_OK if the packet was processed (could return ERR_* if it wasn't
 423:/Users/nhantt/STM32Cube/Repository/STM32Cube_FW_F4_V1.26.0/Middlewares/Third_Party/LwIP/src/core/ipv4/ip4.c ****  *         processed, but currently always returns ERR_OK)
 424:/Users/nhantt/STM32Cube/Repository/STM32Cube_FW_F4_V1.26.0/Middlewares/Third_Party/LwIP/src/core/ipv4/ip4.c ****  */
 425:/Users/nhantt/STM32Cube/Repository/STM32Cube_FW_F4_V1.26.0/Middlewares/Third_Party/LwIP/src/core/ipv4/ip4.c **** err_t
 426:/Users/nhantt/STM32Cube/Repository/STM32Cube_FW_F4_V1.26.0/Middlewares/Third_Party/LwIP/src/core/ipv4/ip4.c **** ip4_input(struct pbuf *p, struct netif *inp)
 427:/Users/nhantt/STM32Cube/Repository/STM32Cube_FW_F4_V1.26.0/Middlewares/Third_Party/LwIP/src/core/ipv4/ip4.c **** {
 277              		.loc 1 427 1 is_stmt 1 view -0
 278              		.cfi_startproc
 279              		@ args = 0, pretend = 0, frame = 0
 280              		@ frame_needed = 0, uses_anonymous_args = 0
 281              		.loc 1 427 1 is_stmt 0 view .LVU76
 282 0000 2DE9F843 		push	{r3, r4, r5, r6, r7, r8, r9, lr}
 283              	.LCFI5:
 284              		.cfi_def_cfa_offset 32
 285              		.cfi_offset 3, -32
 286              		.cfi_offset 4, -28
 287              		.cfi_offset 5, -24
 288              		.cfi_offset 6, -20
 289              		.cfi_offset 7, -16
 290              		.cfi_offset 8, -12
 291              		.cfi_offset 9, -8
 292              		.cfi_offset 14, -4
 293 0004 0446     		mov	r4, r0
 428:/Users/nhantt/STM32Cube/Repository/STM32Cube_FW_F4_V1.26.0/Middlewares/Third_Party/LwIP/src/core/ipv4/ip4.c ****   const struct ip_hdr *iphdr;
 294              		.loc 1 428 3 is_stmt 1 view .LVU77
 429:/Users/nhantt/STM32Cube/Repository/STM32Cube_FW_F4_V1.26.0/Middlewares/Third_Party/LwIP/src/core/ipv4/ip4.c ****   struct netif *netif;
 295              		.loc 1 429 3 view .LVU78
 430:/Users/nhantt/STM32Cube/Repository/STM32Cube_FW_F4_V1.26.0/Middlewares/Third_Party/LwIP/src/core/ipv4/ip4.c ****   u16_t iphdr_hlen;
 296              		.loc 1 430 3 view .LVU79
 431:/Users/nhantt/STM32Cube/Repository/STM32Cube_FW_F4_V1.26.0/Middlewares/Third_Party/LwIP/src/core/ipv4/ip4.c ****   u16_t iphdr_len;
 297              		.loc 1 431 3 view .LVU80
 432:/Users/nhantt/STM32Cube/Repository/STM32Cube_FW_F4_V1.26.0/Middlewares/Third_Party/LwIP/src/core/ipv4/ip4.c **** #if IP_ACCEPT_LINK_LAYER_ADDRESSING || LWIP_IGMP
 433:/Users/nhantt/STM32Cube/Repository/STM32Cube_FW_F4_V1.26.0/Middlewares/Third_Party/LwIP/src/core/ipv4/ip4.c ****   int check_ip_src = 1;
 298              		.loc 1 433 3 view .LVU81
 299              	.LVL16:
 434:/Users/nhantt/STM32Cube/Repository/STM32Cube_FW_F4_V1.26.0/Middlewares/Third_Party/LwIP/src/core/ipv4/ip4.c **** #endif /* IP_ACCEPT_LINK_LAYER_ADDRESSING || LWIP_IGMP */
 435:/Users/nhantt/STM32Cube/Repository/STM32Cube_FW_F4_V1.26.0/Middlewares/Third_Party/LwIP/src/core/ipv4/ip4.c **** #if LWIP_RAW
 436:/Users/nhantt/STM32Cube/Repository/STM32Cube_FW_F4_V1.26.0/Middlewares/Third_Party/LwIP/src/core/ipv4/ip4.c ****   raw_input_state_t raw_status;
 437:/Users/nhantt/STM32Cube/Repository/STM32Cube_FW_F4_V1.26.0/Middlewares/Third_Party/LwIP/src/core/ipv4/ip4.c **** #endif /* LWIP_RAW */
 438:/Users/nhantt/STM32Cube/Repository/STM32Cube_FW_F4_V1.26.0/Middlewares/Third_Party/LwIP/src/core/ipv4/ip4.c **** 
 439:/Users/nhantt/STM32Cube/Repository/STM32Cube_FW_F4_V1.26.0/Middlewares/Third_Party/LwIP/src/core/ipv4/ip4.c ****   LWIP_ASSERT_CORE_LOCKED();
 300              		.loc 1 439 28 view .LVU82
 440:/Users/nhantt/STM32Cube/Repository/STM32Cube_FW_F4_V1.26.0/Middlewares/Third_Party/LwIP/src/core/ipv4/ip4.c **** 
 441:/Users/nhantt/STM32Cube/Repository/STM32Cube_FW_F4_V1.26.0/Middlewares/Third_Party/LwIP/src/core/ipv4/ip4.c ****   IP_STATS_INC(ip.recv);
 301              		.loc 1 441 24 view .LVU83
 442:/Users/nhantt/STM32Cube/Repository/STM32Cube_FW_F4_V1.26.0/Middlewares/Third_Party/LwIP/src/core/ipv4/ip4.c ****   MIB2_STATS_INC(mib2.ipinreceives);
ARM GAS  /var/folders/k2/cd9bl_j17z77g23y6ffqb_400000gn/T//ccJwgoEp.s 			page 15


 302              		.loc 1 442 36 view .LVU84
 443:/Users/nhantt/STM32Cube/Repository/STM32Cube_FW_F4_V1.26.0/Middlewares/Third_Party/LwIP/src/core/ipv4/ip4.c **** 
 444:/Users/nhantt/STM32Cube/Repository/STM32Cube_FW_F4_V1.26.0/Middlewares/Third_Party/LwIP/src/core/ipv4/ip4.c ****   /* identify the IP header */
 445:/Users/nhantt/STM32Cube/Repository/STM32Cube_FW_F4_V1.26.0/Middlewares/Third_Party/LwIP/src/core/ipv4/ip4.c ****   iphdr = (struct ip_hdr *)p->payload;
 303              		.loc 1 445 3 view .LVU85
 304              		.loc 1 445 9 is_stmt 0 view .LVU86
 305 0006 D0F80480 		ldr	r8, [r0, #4]
 306              	.LVL17:
 446:/Users/nhantt/STM32Cube/Repository/STM32Cube_FW_F4_V1.26.0/Middlewares/Third_Party/LwIP/src/core/ipv4/ip4.c ****   if (IPH_V(iphdr) != 4) {
 307              		.loc 1 446 3 is_stmt 1 view .LVU87
 308              		.loc 1 446 7 is_stmt 0 view .LVU88
 309 000a 98F80030 		ldrb	r3, [r8]	@ zero_extendqisi2
 310              		.loc 1 446 20 view .LVU89
 311 000e 1A09     		lsrs	r2, r3, #4
 312              		.loc 1 446 6 view .LVU90
 313 0010 042A     		cmp	r2, #4
 314 0012 04D0     		beq	.L34
 447:/Users/nhantt/STM32Cube/Repository/STM32Cube_FW_F4_V1.26.0/Middlewares/Third_Party/LwIP/src/core/ipv4/ip4.c ****     LWIP_DEBUGF(IP_DEBUG | LWIP_DBG_LEVEL_WARNING, ("IP packet dropped due to bad version number %"
 315              		.loc 1 447 132 is_stmt 1 view .LVU91
 448:/Users/nhantt/STM32Cube/Repository/STM32Cube_FW_F4_V1.26.0/Middlewares/Third_Party/LwIP/src/core/ipv4/ip4.c ****     ip4_debug_print(p);
 316              		.loc 1 448 23 view .LVU92
 449:/Users/nhantt/STM32Cube/Repository/STM32Cube_FW_F4_V1.26.0/Middlewares/Third_Party/LwIP/src/core/ipv4/ip4.c ****     pbuf_free(p);
 317              		.loc 1 449 5 view .LVU93
 318 0014 FFF7FEFF 		bl	pbuf_free
 319              	.LVL18:
 450:/Users/nhantt/STM32Cube/Repository/STM32Cube_FW_F4_V1.26.0/Middlewares/Third_Party/LwIP/src/core/ipv4/ip4.c ****     IP_STATS_INC(ip.err);
 320              		.loc 1 450 25 view .LVU94
 451:/Users/nhantt/STM32Cube/Repository/STM32Cube_FW_F4_V1.26.0/Middlewares/Third_Party/LwIP/src/core/ipv4/ip4.c ****     IP_STATS_INC(ip.drop);
 321              		.loc 1 451 26 view .LVU95
 452:/Users/nhantt/STM32Cube/Repository/STM32Cube_FW_F4_V1.26.0/Middlewares/Third_Party/LwIP/src/core/ipv4/ip4.c ****     MIB2_STATS_INC(mib2.ipinhdrerrors);
 322              		.loc 1 452 39 view .LVU96
 453:/Users/nhantt/STM32Cube/Repository/STM32Cube_FW_F4_V1.26.0/Middlewares/Third_Party/LwIP/src/core/ipv4/ip4.c ****     return ERR_OK;
 323              		.loc 1 453 5 view .LVU97
 324              	.L35:
 454:/Users/nhantt/STM32Cube/Repository/STM32Cube_FW_F4_V1.26.0/Middlewares/Third_Party/LwIP/src/core/ipv4/ip4.c ****   }
 455:/Users/nhantt/STM32Cube/Repository/STM32Cube_FW_F4_V1.26.0/Middlewares/Third_Party/LwIP/src/core/ipv4/ip4.c **** 
 456:/Users/nhantt/STM32Cube/Repository/STM32Cube_FW_F4_V1.26.0/Middlewares/Third_Party/LwIP/src/core/ipv4/ip4.c **** #ifdef LWIP_HOOK_IP4_INPUT
 457:/Users/nhantt/STM32Cube/Repository/STM32Cube_FW_F4_V1.26.0/Middlewares/Third_Party/LwIP/src/core/ipv4/ip4.c ****   if (LWIP_HOOK_IP4_INPUT(p, inp)) {
 458:/Users/nhantt/STM32Cube/Repository/STM32Cube_FW_F4_V1.26.0/Middlewares/Third_Party/LwIP/src/core/ipv4/ip4.c ****     /* the packet has been eaten */
 459:/Users/nhantt/STM32Cube/Repository/STM32Cube_FW_F4_V1.26.0/Middlewares/Third_Party/LwIP/src/core/ipv4/ip4.c ****     return ERR_OK;
 460:/Users/nhantt/STM32Cube/Repository/STM32Cube_FW_F4_V1.26.0/Middlewares/Third_Party/LwIP/src/core/ipv4/ip4.c ****   }
 461:/Users/nhantt/STM32Cube/Repository/STM32Cube_FW_F4_V1.26.0/Middlewares/Third_Party/LwIP/src/core/ipv4/ip4.c **** #endif
 462:/Users/nhantt/STM32Cube/Repository/STM32Cube_FW_F4_V1.26.0/Middlewares/Third_Party/LwIP/src/core/ipv4/ip4.c **** 
 463:/Users/nhantt/STM32Cube/Repository/STM32Cube_FW_F4_V1.26.0/Middlewares/Third_Party/LwIP/src/core/ipv4/ip4.c ****   /* obtain IP header length in bytes */
 464:/Users/nhantt/STM32Cube/Repository/STM32Cube_FW_F4_V1.26.0/Middlewares/Third_Party/LwIP/src/core/ipv4/ip4.c ****   iphdr_hlen = IPH_HL_BYTES(iphdr);
 465:/Users/nhantt/STM32Cube/Repository/STM32Cube_FW_F4_V1.26.0/Middlewares/Third_Party/LwIP/src/core/ipv4/ip4.c ****   /* obtain ip length in bytes */
 466:/Users/nhantt/STM32Cube/Repository/STM32Cube_FW_F4_V1.26.0/Middlewares/Third_Party/LwIP/src/core/ipv4/ip4.c ****   iphdr_len = lwip_ntohs(IPH_LEN(iphdr));
 467:/Users/nhantt/STM32Cube/Repository/STM32Cube_FW_F4_V1.26.0/Middlewares/Third_Party/LwIP/src/core/ipv4/ip4.c **** 
 468:/Users/nhantt/STM32Cube/Repository/STM32Cube_FW_F4_V1.26.0/Middlewares/Third_Party/LwIP/src/core/ipv4/ip4.c ****   /* Trim pbuf. This is especially required for packets < 60 bytes. */
 469:/Users/nhantt/STM32Cube/Repository/STM32Cube_FW_F4_V1.26.0/Middlewares/Third_Party/LwIP/src/core/ipv4/ip4.c ****   if (iphdr_len < p->tot_len) {
 470:/Users/nhantt/STM32Cube/Repository/STM32Cube_FW_F4_V1.26.0/Middlewares/Third_Party/LwIP/src/core/ipv4/ip4.c ****     pbuf_realloc(p, iphdr_len);
 471:/Users/nhantt/STM32Cube/Repository/STM32Cube_FW_F4_V1.26.0/Middlewares/Third_Party/LwIP/src/core/ipv4/ip4.c ****   }
 472:/Users/nhantt/STM32Cube/Repository/STM32Cube_FW_F4_V1.26.0/Middlewares/Third_Party/LwIP/src/core/ipv4/ip4.c **** 
 473:/Users/nhantt/STM32Cube/Repository/STM32Cube_FW_F4_V1.26.0/Middlewares/Third_Party/LwIP/src/core/ipv4/ip4.c ****   /* header length exceeds first pbuf length, or ip length exceeds total pbuf length? */
 474:/Users/nhantt/STM32Cube/Repository/STM32Cube_FW_F4_V1.26.0/Middlewares/Third_Party/LwIP/src/core/ipv4/ip4.c ****   if ((iphdr_hlen > p->len) || (iphdr_len > p->tot_len) || (iphdr_hlen < IP_HLEN)) {
 475:/Users/nhantt/STM32Cube/Repository/STM32Cube_FW_F4_V1.26.0/Middlewares/Third_Party/LwIP/src/core/ipv4/ip4.c ****     if (iphdr_hlen < IP_HLEN) {
 476:/Users/nhantt/STM32Cube/Repository/STM32Cube_FW_F4_V1.26.0/Middlewares/Third_Party/LwIP/src/core/ipv4/ip4.c ****       LWIP_DEBUGF(IP_DEBUG | LWIP_DBG_LEVEL_SERIOUS,
ARM GAS  /var/folders/k2/cd9bl_j17z77g23y6ffqb_400000gn/T//ccJwgoEp.s 			page 16


 477:/Users/nhantt/STM32Cube/Repository/STM32Cube_FW_F4_V1.26.0/Middlewares/Third_Party/LwIP/src/core/ipv4/ip4.c ****                   ("ip4_input: short IP header (%"U16_F" bytes) received, IP packet dropped\n", iph
 478:/Users/nhantt/STM32Cube/Repository/STM32Cube_FW_F4_V1.26.0/Middlewares/Third_Party/LwIP/src/core/ipv4/ip4.c ****     }
 479:/Users/nhantt/STM32Cube/Repository/STM32Cube_FW_F4_V1.26.0/Middlewares/Third_Party/LwIP/src/core/ipv4/ip4.c ****     if (iphdr_hlen > p->len) {
 480:/Users/nhantt/STM32Cube/Repository/STM32Cube_FW_F4_V1.26.0/Middlewares/Third_Party/LwIP/src/core/ipv4/ip4.c ****       LWIP_DEBUGF(IP_DEBUG | LWIP_DBG_LEVEL_SERIOUS,
 481:/Users/nhantt/STM32Cube/Repository/STM32Cube_FW_F4_V1.26.0/Middlewares/Third_Party/LwIP/src/core/ipv4/ip4.c ****                   ("IP header (len %"U16_F") does not fit in first pbuf (len %"U16_F"), IP packet d
 482:/Users/nhantt/STM32Cube/Repository/STM32Cube_FW_F4_V1.26.0/Middlewares/Third_Party/LwIP/src/core/ipv4/ip4.c ****                    iphdr_hlen, p->len));
 483:/Users/nhantt/STM32Cube/Repository/STM32Cube_FW_F4_V1.26.0/Middlewares/Third_Party/LwIP/src/core/ipv4/ip4.c ****     }
 484:/Users/nhantt/STM32Cube/Repository/STM32Cube_FW_F4_V1.26.0/Middlewares/Third_Party/LwIP/src/core/ipv4/ip4.c ****     if (iphdr_len > p->tot_len) {
 485:/Users/nhantt/STM32Cube/Repository/STM32Cube_FW_F4_V1.26.0/Middlewares/Third_Party/LwIP/src/core/ipv4/ip4.c ****       LWIP_DEBUGF(IP_DEBUG | LWIP_DBG_LEVEL_SERIOUS,
 486:/Users/nhantt/STM32Cube/Repository/STM32Cube_FW_F4_V1.26.0/Middlewares/Third_Party/LwIP/src/core/ipv4/ip4.c ****                   ("IP (len %"U16_F") is longer than pbuf (len %"U16_F"), IP packet dropped.\n",
 487:/Users/nhantt/STM32Cube/Repository/STM32Cube_FW_F4_V1.26.0/Middlewares/Third_Party/LwIP/src/core/ipv4/ip4.c ****                    iphdr_len, p->tot_len));
 488:/Users/nhantt/STM32Cube/Repository/STM32Cube_FW_F4_V1.26.0/Middlewares/Third_Party/LwIP/src/core/ipv4/ip4.c ****     }
 489:/Users/nhantt/STM32Cube/Repository/STM32Cube_FW_F4_V1.26.0/Middlewares/Third_Party/LwIP/src/core/ipv4/ip4.c ****     /* free (drop) packet pbufs */
 490:/Users/nhantt/STM32Cube/Repository/STM32Cube_FW_F4_V1.26.0/Middlewares/Third_Party/LwIP/src/core/ipv4/ip4.c ****     pbuf_free(p);
 491:/Users/nhantt/STM32Cube/Repository/STM32Cube_FW_F4_V1.26.0/Middlewares/Third_Party/LwIP/src/core/ipv4/ip4.c ****     IP_STATS_INC(ip.lenerr);
 492:/Users/nhantt/STM32Cube/Repository/STM32Cube_FW_F4_V1.26.0/Middlewares/Third_Party/LwIP/src/core/ipv4/ip4.c ****     IP_STATS_INC(ip.drop);
 493:/Users/nhantt/STM32Cube/Repository/STM32Cube_FW_F4_V1.26.0/Middlewares/Third_Party/LwIP/src/core/ipv4/ip4.c ****     MIB2_STATS_INC(mib2.ipindiscards);
 494:/Users/nhantt/STM32Cube/Repository/STM32Cube_FW_F4_V1.26.0/Middlewares/Third_Party/LwIP/src/core/ipv4/ip4.c ****     return ERR_OK;
 495:/Users/nhantt/STM32Cube/Repository/STM32Cube_FW_F4_V1.26.0/Middlewares/Third_Party/LwIP/src/core/ipv4/ip4.c ****   }
 496:/Users/nhantt/STM32Cube/Repository/STM32Cube_FW_F4_V1.26.0/Middlewares/Third_Party/LwIP/src/core/ipv4/ip4.c **** 
 497:/Users/nhantt/STM32Cube/Repository/STM32Cube_FW_F4_V1.26.0/Middlewares/Third_Party/LwIP/src/core/ipv4/ip4.c ****   /* verify checksum */
 498:/Users/nhantt/STM32Cube/Repository/STM32Cube_FW_F4_V1.26.0/Middlewares/Third_Party/LwIP/src/core/ipv4/ip4.c **** #if CHECKSUM_CHECK_IP
 499:/Users/nhantt/STM32Cube/Repository/STM32Cube_FW_F4_V1.26.0/Middlewares/Third_Party/LwIP/src/core/ipv4/ip4.c ****   IF__NETIF_CHECKSUM_ENABLED(inp, NETIF_CHECKSUM_CHECK_IP) {
 500:/Users/nhantt/STM32Cube/Repository/STM32Cube_FW_F4_V1.26.0/Middlewares/Third_Party/LwIP/src/core/ipv4/ip4.c ****     if (inet_chksum(iphdr, iphdr_hlen) != 0) {
 501:/Users/nhantt/STM32Cube/Repository/STM32Cube_FW_F4_V1.26.0/Middlewares/Third_Party/LwIP/src/core/ipv4/ip4.c **** 
 502:/Users/nhantt/STM32Cube/Repository/STM32Cube_FW_F4_V1.26.0/Middlewares/Third_Party/LwIP/src/core/ipv4/ip4.c ****       LWIP_DEBUGF(IP_DEBUG | LWIP_DBG_LEVEL_SERIOUS,
 503:/Users/nhantt/STM32Cube/Repository/STM32Cube_FW_F4_V1.26.0/Middlewares/Third_Party/LwIP/src/core/ipv4/ip4.c ****                   ("Checksum (0x%"X16_F") failed, IP packet dropped.\n", inet_chksum(iphdr, iphdr_h
 504:/Users/nhantt/STM32Cube/Repository/STM32Cube_FW_F4_V1.26.0/Middlewares/Third_Party/LwIP/src/core/ipv4/ip4.c ****       ip4_debug_print(p);
 505:/Users/nhantt/STM32Cube/Repository/STM32Cube_FW_F4_V1.26.0/Middlewares/Third_Party/LwIP/src/core/ipv4/ip4.c ****       pbuf_free(p);
 506:/Users/nhantt/STM32Cube/Repository/STM32Cube_FW_F4_V1.26.0/Middlewares/Third_Party/LwIP/src/core/ipv4/ip4.c ****       IP_STATS_INC(ip.chkerr);
 507:/Users/nhantt/STM32Cube/Repository/STM32Cube_FW_F4_V1.26.0/Middlewares/Third_Party/LwIP/src/core/ipv4/ip4.c ****       IP_STATS_INC(ip.drop);
 508:/Users/nhantt/STM32Cube/Repository/STM32Cube_FW_F4_V1.26.0/Middlewares/Third_Party/LwIP/src/core/ipv4/ip4.c ****       MIB2_STATS_INC(mib2.ipinhdrerrors);
 509:/Users/nhantt/STM32Cube/Repository/STM32Cube_FW_F4_V1.26.0/Middlewares/Third_Party/LwIP/src/core/ipv4/ip4.c ****       return ERR_OK;
 510:/Users/nhantt/STM32Cube/Repository/STM32Cube_FW_F4_V1.26.0/Middlewares/Third_Party/LwIP/src/core/ipv4/ip4.c ****     }
 511:/Users/nhantt/STM32Cube/Repository/STM32Cube_FW_F4_V1.26.0/Middlewares/Third_Party/LwIP/src/core/ipv4/ip4.c ****   }
 512:/Users/nhantt/STM32Cube/Repository/STM32Cube_FW_F4_V1.26.0/Middlewares/Third_Party/LwIP/src/core/ipv4/ip4.c **** #endif
 513:/Users/nhantt/STM32Cube/Repository/STM32Cube_FW_F4_V1.26.0/Middlewares/Third_Party/LwIP/src/core/ipv4/ip4.c **** 
 514:/Users/nhantt/STM32Cube/Repository/STM32Cube_FW_F4_V1.26.0/Middlewares/Third_Party/LwIP/src/core/ipv4/ip4.c ****   /* copy IP addresses to aligned ip_addr_t */
 515:/Users/nhantt/STM32Cube/Repository/STM32Cube_FW_F4_V1.26.0/Middlewares/Third_Party/LwIP/src/core/ipv4/ip4.c ****   ip_addr_copy_from_ip4(ip_data.current_iphdr_dest, iphdr->dest);
 516:/Users/nhantt/STM32Cube/Repository/STM32Cube_FW_F4_V1.26.0/Middlewares/Third_Party/LwIP/src/core/ipv4/ip4.c ****   ip_addr_copy_from_ip4(ip_data.current_iphdr_src, iphdr->src);
 517:/Users/nhantt/STM32Cube/Repository/STM32Cube_FW_F4_V1.26.0/Middlewares/Third_Party/LwIP/src/core/ipv4/ip4.c **** 
 518:/Users/nhantt/STM32Cube/Repository/STM32Cube_FW_F4_V1.26.0/Middlewares/Third_Party/LwIP/src/core/ipv4/ip4.c ****   /* match packet against an interface, i.e. is this packet for us? */
 519:/Users/nhantt/STM32Cube/Repository/STM32Cube_FW_F4_V1.26.0/Middlewares/Third_Party/LwIP/src/core/ipv4/ip4.c ****   if (ip4_addr_ismulticast(ip4_current_dest_addr())) {
 520:/Users/nhantt/STM32Cube/Repository/STM32Cube_FW_F4_V1.26.0/Middlewares/Third_Party/LwIP/src/core/ipv4/ip4.c **** #if LWIP_IGMP
 521:/Users/nhantt/STM32Cube/Repository/STM32Cube_FW_F4_V1.26.0/Middlewares/Third_Party/LwIP/src/core/ipv4/ip4.c ****     if ((inp->flags & NETIF_FLAG_IGMP) && (igmp_lookfor_group(inp, ip4_current_dest_addr()))) {
 522:/Users/nhantt/STM32Cube/Repository/STM32Cube_FW_F4_V1.26.0/Middlewares/Third_Party/LwIP/src/core/ipv4/ip4.c ****       /* IGMP snooping switches need 0.0.0.0 to be allowed as source address (RFC 4541) */
 523:/Users/nhantt/STM32Cube/Repository/STM32Cube_FW_F4_V1.26.0/Middlewares/Third_Party/LwIP/src/core/ipv4/ip4.c ****       ip4_addr_t allsystems;
 524:/Users/nhantt/STM32Cube/Repository/STM32Cube_FW_F4_V1.26.0/Middlewares/Third_Party/LwIP/src/core/ipv4/ip4.c ****       IP4_ADDR(&allsystems, 224, 0, 0, 1);
 525:/Users/nhantt/STM32Cube/Repository/STM32Cube_FW_F4_V1.26.0/Middlewares/Third_Party/LwIP/src/core/ipv4/ip4.c ****       if (ip4_addr_cmp(ip4_current_dest_addr(), &allsystems) &&
 526:/Users/nhantt/STM32Cube/Repository/STM32Cube_FW_F4_V1.26.0/Middlewares/Third_Party/LwIP/src/core/ipv4/ip4.c ****           ip4_addr_isany(ip4_current_src_addr())) {
 527:/Users/nhantt/STM32Cube/Repository/STM32Cube_FW_F4_V1.26.0/Middlewares/Third_Party/LwIP/src/core/ipv4/ip4.c ****         check_ip_src = 0;
 528:/Users/nhantt/STM32Cube/Repository/STM32Cube_FW_F4_V1.26.0/Middlewares/Third_Party/LwIP/src/core/ipv4/ip4.c ****       }
 529:/Users/nhantt/STM32Cube/Repository/STM32Cube_FW_F4_V1.26.0/Middlewares/Third_Party/LwIP/src/core/ipv4/ip4.c ****       netif = inp;
 530:/Users/nhantt/STM32Cube/Repository/STM32Cube_FW_F4_V1.26.0/Middlewares/Third_Party/LwIP/src/core/ipv4/ip4.c ****     } else {
 531:/Users/nhantt/STM32Cube/Repository/STM32Cube_FW_F4_V1.26.0/Middlewares/Third_Party/LwIP/src/core/ipv4/ip4.c ****       netif = NULL;
 532:/Users/nhantt/STM32Cube/Repository/STM32Cube_FW_F4_V1.26.0/Middlewares/Third_Party/LwIP/src/core/ipv4/ip4.c ****     }
 533:/Users/nhantt/STM32Cube/Repository/STM32Cube_FW_F4_V1.26.0/Middlewares/Third_Party/LwIP/src/core/ipv4/ip4.c **** #else /* LWIP_IGMP */
ARM GAS  /var/folders/k2/cd9bl_j17z77g23y6ffqb_400000gn/T//ccJwgoEp.s 			page 17


 534:/Users/nhantt/STM32Cube/Repository/STM32Cube_FW_F4_V1.26.0/Middlewares/Third_Party/LwIP/src/core/ipv4/ip4.c ****     if ((netif_is_up(inp)) && (!ip4_addr_isany_val(*netif_ip4_addr(inp)))) {
 535:/Users/nhantt/STM32Cube/Repository/STM32Cube_FW_F4_V1.26.0/Middlewares/Third_Party/LwIP/src/core/ipv4/ip4.c ****       netif = inp;
 536:/Users/nhantt/STM32Cube/Repository/STM32Cube_FW_F4_V1.26.0/Middlewares/Third_Party/LwIP/src/core/ipv4/ip4.c ****     } else {
 537:/Users/nhantt/STM32Cube/Repository/STM32Cube_FW_F4_V1.26.0/Middlewares/Third_Party/LwIP/src/core/ipv4/ip4.c ****       netif = NULL;
 538:/Users/nhantt/STM32Cube/Repository/STM32Cube_FW_F4_V1.26.0/Middlewares/Third_Party/LwIP/src/core/ipv4/ip4.c ****     }
 539:/Users/nhantt/STM32Cube/Repository/STM32Cube_FW_F4_V1.26.0/Middlewares/Third_Party/LwIP/src/core/ipv4/ip4.c **** #endif /* LWIP_IGMP */
 540:/Users/nhantt/STM32Cube/Repository/STM32Cube_FW_F4_V1.26.0/Middlewares/Third_Party/LwIP/src/core/ipv4/ip4.c ****   } else {
 541:/Users/nhantt/STM32Cube/Repository/STM32Cube_FW_F4_V1.26.0/Middlewares/Third_Party/LwIP/src/core/ipv4/ip4.c ****     /* start trying with inp. if that's not acceptable, start walking the
 542:/Users/nhantt/STM32Cube/Repository/STM32Cube_FW_F4_V1.26.0/Middlewares/Third_Party/LwIP/src/core/ipv4/ip4.c ****        list of configured netifs. */
 543:/Users/nhantt/STM32Cube/Repository/STM32Cube_FW_F4_V1.26.0/Middlewares/Third_Party/LwIP/src/core/ipv4/ip4.c ****     if (ip4_input_accept(inp)) {
 544:/Users/nhantt/STM32Cube/Repository/STM32Cube_FW_F4_V1.26.0/Middlewares/Third_Party/LwIP/src/core/ipv4/ip4.c ****       netif = inp;
 545:/Users/nhantt/STM32Cube/Repository/STM32Cube_FW_F4_V1.26.0/Middlewares/Third_Party/LwIP/src/core/ipv4/ip4.c ****     } else {
 546:/Users/nhantt/STM32Cube/Repository/STM32Cube_FW_F4_V1.26.0/Middlewares/Third_Party/LwIP/src/core/ipv4/ip4.c ****       netif = NULL;
 547:/Users/nhantt/STM32Cube/Repository/STM32Cube_FW_F4_V1.26.0/Middlewares/Third_Party/LwIP/src/core/ipv4/ip4.c **** #if !LWIP_NETIF_LOOPBACK || LWIP_HAVE_LOOPIF
 548:/Users/nhantt/STM32Cube/Repository/STM32Cube_FW_F4_V1.26.0/Middlewares/Third_Party/LwIP/src/core/ipv4/ip4.c ****       /* Packets sent to the loopback address must not be accepted on an
 549:/Users/nhantt/STM32Cube/Repository/STM32Cube_FW_F4_V1.26.0/Middlewares/Third_Party/LwIP/src/core/ipv4/ip4.c ****        * interface that does not have the loopback address assigned to it,
 550:/Users/nhantt/STM32Cube/Repository/STM32Cube_FW_F4_V1.26.0/Middlewares/Third_Party/LwIP/src/core/ipv4/ip4.c ****        * unless a non-loopback interface is used for loopback traffic. */
 551:/Users/nhantt/STM32Cube/Repository/STM32Cube_FW_F4_V1.26.0/Middlewares/Third_Party/LwIP/src/core/ipv4/ip4.c ****       if (!ip4_addr_isloopback(ip4_current_dest_addr()))
 552:/Users/nhantt/STM32Cube/Repository/STM32Cube_FW_F4_V1.26.0/Middlewares/Third_Party/LwIP/src/core/ipv4/ip4.c **** #endif /* !LWIP_NETIF_LOOPBACK || LWIP_HAVE_LOOPIF */
 553:/Users/nhantt/STM32Cube/Repository/STM32Cube_FW_F4_V1.26.0/Middlewares/Third_Party/LwIP/src/core/ipv4/ip4.c ****       {
 554:/Users/nhantt/STM32Cube/Repository/STM32Cube_FW_F4_V1.26.0/Middlewares/Third_Party/LwIP/src/core/ipv4/ip4.c **** #if !LWIP_SINGLE_NETIF
 555:/Users/nhantt/STM32Cube/Repository/STM32Cube_FW_F4_V1.26.0/Middlewares/Third_Party/LwIP/src/core/ipv4/ip4.c ****         NETIF_FOREACH(netif) {
 556:/Users/nhantt/STM32Cube/Repository/STM32Cube_FW_F4_V1.26.0/Middlewares/Third_Party/LwIP/src/core/ipv4/ip4.c ****           if (netif == inp) {
 557:/Users/nhantt/STM32Cube/Repository/STM32Cube_FW_F4_V1.26.0/Middlewares/Third_Party/LwIP/src/core/ipv4/ip4.c ****             /* we checked that before already */
 558:/Users/nhantt/STM32Cube/Repository/STM32Cube_FW_F4_V1.26.0/Middlewares/Third_Party/LwIP/src/core/ipv4/ip4.c ****             continue;
 559:/Users/nhantt/STM32Cube/Repository/STM32Cube_FW_F4_V1.26.0/Middlewares/Third_Party/LwIP/src/core/ipv4/ip4.c ****           }
 560:/Users/nhantt/STM32Cube/Repository/STM32Cube_FW_F4_V1.26.0/Middlewares/Third_Party/LwIP/src/core/ipv4/ip4.c ****           if (ip4_input_accept(netif)) {
 561:/Users/nhantt/STM32Cube/Repository/STM32Cube_FW_F4_V1.26.0/Middlewares/Third_Party/LwIP/src/core/ipv4/ip4.c ****             break;
 562:/Users/nhantt/STM32Cube/Repository/STM32Cube_FW_F4_V1.26.0/Middlewares/Third_Party/LwIP/src/core/ipv4/ip4.c ****           }
 563:/Users/nhantt/STM32Cube/Repository/STM32Cube_FW_F4_V1.26.0/Middlewares/Third_Party/LwIP/src/core/ipv4/ip4.c ****         }
 564:/Users/nhantt/STM32Cube/Repository/STM32Cube_FW_F4_V1.26.0/Middlewares/Third_Party/LwIP/src/core/ipv4/ip4.c **** #endif /* !LWIP_SINGLE_NETIF */
 565:/Users/nhantt/STM32Cube/Repository/STM32Cube_FW_F4_V1.26.0/Middlewares/Third_Party/LwIP/src/core/ipv4/ip4.c ****       }
 566:/Users/nhantt/STM32Cube/Repository/STM32Cube_FW_F4_V1.26.0/Middlewares/Third_Party/LwIP/src/core/ipv4/ip4.c ****     }
 567:/Users/nhantt/STM32Cube/Repository/STM32Cube_FW_F4_V1.26.0/Middlewares/Third_Party/LwIP/src/core/ipv4/ip4.c ****   }
 568:/Users/nhantt/STM32Cube/Repository/STM32Cube_FW_F4_V1.26.0/Middlewares/Third_Party/LwIP/src/core/ipv4/ip4.c **** 
 569:/Users/nhantt/STM32Cube/Repository/STM32Cube_FW_F4_V1.26.0/Middlewares/Third_Party/LwIP/src/core/ipv4/ip4.c **** #if IP_ACCEPT_LINK_LAYER_ADDRESSING
 570:/Users/nhantt/STM32Cube/Repository/STM32Cube_FW_F4_V1.26.0/Middlewares/Third_Party/LwIP/src/core/ipv4/ip4.c ****   /* Pass DHCP messages regardless of destination address. DHCP traffic is addressed
 571:/Users/nhantt/STM32Cube/Repository/STM32Cube_FW_F4_V1.26.0/Middlewares/Third_Party/LwIP/src/core/ipv4/ip4.c ****    * using link layer addressing (such as Ethernet MAC) so we must not filter on IP.
 572:/Users/nhantt/STM32Cube/Repository/STM32Cube_FW_F4_V1.26.0/Middlewares/Third_Party/LwIP/src/core/ipv4/ip4.c ****    * According to RFC 1542 section 3.1.1, referred by RFC 2131).
 573:/Users/nhantt/STM32Cube/Repository/STM32Cube_FW_F4_V1.26.0/Middlewares/Third_Party/LwIP/src/core/ipv4/ip4.c ****    *
 574:/Users/nhantt/STM32Cube/Repository/STM32Cube_FW_F4_V1.26.0/Middlewares/Third_Party/LwIP/src/core/ipv4/ip4.c ****    * If you want to accept private broadcast communication while a netif is down,
 575:/Users/nhantt/STM32Cube/Repository/STM32Cube_FW_F4_V1.26.0/Middlewares/Third_Party/LwIP/src/core/ipv4/ip4.c ****    * define LWIP_IP_ACCEPT_UDP_PORT(dst_port), e.g.:
 576:/Users/nhantt/STM32Cube/Repository/STM32Cube_FW_F4_V1.26.0/Middlewares/Third_Party/LwIP/src/core/ipv4/ip4.c ****    *
 577:/Users/nhantt/STM32Cube/Repository/STM32Cube_FW_F4_V1.26.0/Middlewares/Third_Party/LwIP/src/core/ipv4/ip4.c ****    * #define LWIP_IP_ACCEPT_UDP_PORT(dst_port) ((dst_port) == PP_NTOHS(12345))
 578:/Users/nhantt/STM32Cube/Repository/STM32Cube_FW_F4_V1.26.0/Middlewares/Third_Party/LwIP/src/core/ipv4/ip4.c ****    */
 579:/Users/nhantt/STM32Cube/Repository/STM32Cube_FW_F4_V1.26.0/Middlewares/Third_Party/LwIP/src/core/ipv4/ip4.c ****   if (netif == NULL) {
 580:/Users/nhantt/STM32Cube/Repository/STM32Cube_FW_F4_V1.26.0/Middlewares/Third_Party/LwIP/src/core/ipv4/ip4.c ****     /* remote port is DHCP server? */
 581:/Users/nhantt/STM32Cube/Repository/STM32Cube_FW_F4_V1.26.0/Middlewares/Third_Party/LwIP/src/core/ipv4/ip4.c ****     if (IPH_PROTO(iphdr) == IP_PROTO_UDP) {
 582:/Users/nhantt/STM32Cube/Repository/STM32Cube_FW_F4_V1.26.0/Middlewares/Third_Party/LwIP/src/core/ipv4/ip4.c ****       const struct udp_hdr *udphdr = (const struct udp_hdr *)((const u8_t *)iphdr + iphdr_hlen);
 583:/Users/nhantt/STM32Cube/Repository/STM32Cube_FW_F4_V1.26.0/Middlewares/Third_Party/LwIP/src/core/ipv4/ip4.c ****       LWIP_DEBUGF(IP_DEBUG | LWIP_DBG_TRACE, ("ip4_input: UDP packet to DHCP client port %"U16_F"\n
 584:/Users/nhantt/STM32Cube/Repository/STM32Cube_FW_F4_V1.26.0/Middlewares/Third_Party/LwIP/src/core/ipv4/ip4.c ****                                               lwip_ntohs(udphdr->dest)));
 585:/Users/nhantt/STM32Cube/Repository/STM32Cube_FW_F4_V1.26.0/Middlewares/Third_Party/LwIP/src/core/ipv4/ip4.c ****       if (IP_ACCEPT_LINK_LAYER_ADDRESSED_PORT(udphdr->dest)) {
 586:/Users/nhantt/STM32Cube/Repository/STM32Cube_FW_F4_V1.26.0/Middlewares/Third_Party/LwIP/src/core/ipv4/ip4.c ****         LWIP_DEBUGF(IP_DEBUG | LWIP_DBG_TRACE, ("ip4_input: DHCP packet accepted.\n"));
 587:/Users/nhantt/STM32Cube/Repository/STM32Cube_FW_F4_V1.26.0/Middlewares/Third_Party/LwIP/src/core/ipv4/ip4.c ****         netif = inp;
 588:/Users/nhantt/STM32Cube/Repository/STM32Cube_FW_F4_V1.26.0/Middlewares/Third_Party/LwIP/src/core/ipv4/ip4.c ****         check_ip_src = 0;
 589:/Users/nhantt/STM32Cube/Repository/STM32Cube_FW_F4_V1.26.0/Middlewares/Third_Party/LwIP/src/core/ipv4/ip4.c ****       }
 590:/Users/nhantt/STM32Cube/Repository/STM32Cube_FW_F4_V1.26.0/Middlewares/Third_Party/LwIP/src/core/ipv4/ip4.c ****     }
ARM GAS  /var/folders/k2/cd9bl_j17z77g23y6ffqb_400000gn/T//ccJwgoEp.s 			page 18


 591:/Users/nhantt/STM32Cube/Repository/STM32Cube_FW_F4_V1.26.0/Middlewares/Third_Party/LwIP/src/core/ipv4/ip4.c ****   }
 592:/Users/nhantt/STM32Cube/Repository/STM32Cube_FW_F4_V1.26.0/Middlewares/Third_Party/LwIP/src/core/ipv4/ip4.c **** #endif /* IP_ACCEPT_LINK_LAYER_ADDRESSING */
 593:/Users/nhantt/STM32Cube/Repository/STM32Cube_FW_F4_V1.26.0/Middlewares/Third_Party/LwIP/src/core/ipv4/ip4.c **** 
 594:/Users/nhantt/STM32Cube/Repository/STM32Cube_FW_F4_V1.26.0/Middlewares/Third_Party/LwIP/src/core/ipv4/ip4.c ****   /* broadcast or multicast packet source address? Compliant with RFC 1122: 3.2.1.3 */
 595:/Users/nhantt/STM32Cube/Repository/STM32Cube_FW_F4_V1.26.0/Middlewares/Third_Party/LwIP/src/core/ipv4/ip4.c **** #if LWIP_IGMP || IP_ACCEPT_LINK_LAYER_ADDRESSING
 596:/Users/nhantt/STM32Cube/Repository/STM32Cube_FW_F4_V1.26.0/Middlewares/Third_Party/LwIP/src/core/ipv4/ip4.c ****   if (check_ip_src
 597:/Users/nhantt/STM32Cube/Repository/STM32Cube_FW_F4_V1.26.0/Middlewares/Third_Party/LwIP/src/core/ipv4/ip4.c **** #if IP_ACCEPT_LINK_LAYER_ADDRESSING
 598:/Users/nhantt/STM32Cube/Repository/STM32Cube_FW_F4_V1.26.0/Middlewares/Third_Party/LwIP/src/core/ipv4/ip4.c ****       /* DHCP servers need 0.0.0.0 to be allowed as source address (RFC 1.1.2.2: 3.2.1.3/a) */
 599:/Users/nhantt/STM32Cube/Repository/STM32Cube_FW_F4_V1.26.0/Middlewares/Third_Party/LwIP/src/core/ipv4/ip4.c ****       && !ip4_addr_isany_val(*ip4_current_src_addr())
 600:/Users/nhantt/STM32Cube/Repository/STM32Cube_FW_F4_V1.26.0/Middlewares/Third_Party/LwIP/src/core/ipv4/ip4.c **** #endif /* IP_ACCEPT_LINK_LAYER_ADDRESSING */
 601:/Users/nhantt/STM32Cube/Repository/STM32Cube_FW_F4_V1.26.0/Middlewares/Third_Party/LwIP/src/core/ipv4/ip4.c ****      )
 602:/Users/nhantt/STM32Cube/Repository/STM32Cube_FW_F4_V1.26.0/Middlewares/Third_Party/LwIP/src/core/ipv4/ip4.c **** #endif /* LWIP_IGMP || IP_ACCEPT_LINK_LAYER_ADDRESSING */
 603:/Users/nhantt/STM32Cube/Repository/STM32Cube_FW_F4_V1.26.0/Middlewares/Third_Party/LwIP/src/core/ipv4/ip4.c ****   {
 604:/Users/nhantt/STM32Cube/Repository/STM32Cube_FW_F4_V1.26.0/Middlewares/Third_Party/LwIP/src/core/ipv4/ip4.c ****     if ((ip4_addr_isbroadcast(ip4_current_src_addr(), inp)) ||
 605:/Users/nhantt/STM32Cube/Repository/STM32Cube_FW_F4_V1.26.0/Middlewares/Third_Party/LwIP/src/core/ipv4/ip4.c ****         (ip4_addr_ismulticast(ip4_current_src_addr()))) {
 606:/Users/nhantt/STM32Cube/Repository/STM32Cube_FW_F4_V1.26.0/Middlewares/Third_Party/LwIP/src/core/ipv4/ip4.c ****       /* packet source is not valid */
 607:/Users/nhantt/STM32Cube/Repository/STM32Cube_FW_F4_V1.26.0/Middlewares/Third_Party/LwIP/src/core/ipv4/ip4.c ****       LWIP_DEBUGF(IP_DEBUG | LWIP_DBG_TRACE | LWIP_DBG_LEVEL_WARNING, ("ip4_input: packet source is
 608:/Users/nhantt/STM32Cube/Repository/STM32Cube_FW_F4_V1.26.0/Middlewares/Third_Party/LwIP/src/core/ipv4/ip4.c ****       /* free (drop) packet pbufs */
 609:/Users/nhantt/STM32Cube/Repository/STM32Cube_FW_F4_V1.26.0/Middlewares/Third_Party/LwIP/src/core/ipv4/ip4.c ****       pbuf_free(p);
 610:/Users/nhantt/STM32Cube/Repository/STM32Cube_FW_F4_V1.26.0/Middlewares/Third_Party/LwIP/src/core/ipv4/ip4.c ****       IP_STATS_INC(ip.drop);
 611:/Users/nhantt/STM32Cube/Repository/STM32Cube_FW_F4_V1.26.0/Middlewares/Third_Party/LwIP/src/core/ipv4/ip4.c ****       MIB2_STATS_INC(mib2.ipinaddrerrors);
 612:/Users/nhantt/STM32Cube/Repository/STM32Cube_FW_F4_V1.26.0/Middlewares/Third_Party/LwIP/src/core/ipv4/ip4.c ****       MIB2_STATS_INC(mib2.ipindiscards);
 613:/Users/nhantt/STM32Cube/Repository/STM32Cube_FW_F4_V1.26.0/Middlewares/Third_Party/LwIP/src/core/ipv4/ip4.c ****       return ERR_OK;
 614:/Users/nhantt/STM32Cube/Repository/STM32Cube_FW_F4_V1.26.0/Middlewares/Third_Party/LwIP/src/core/ipv4/ip4.c ****     }
 615:/Users/nhantt/STM32Cube/Repository/STM32Cube_FW_F4_V1.26.0/Middlewares/Third_Party/LwIP/src/core/ipv4/ip4.c ****   }
 616:/Users/nhantt/STM32Cube/Repository/STM32Cube_FW_F4_V1.26.0/Middlewares/Third_Party/LwIP/src/core/ipv4/ip4.c **** 
 617:/Users/nhantt/STM32Cube/Repository/STM32Cube_FW_F4_V1.26.0/Middlewares/Third_Party/LwIP/src/core/ipv4/ip4.c ****   /* packet not for us? */
 618:/Users/nhantt/STM32Cube/Repository/STM32Cube_FW_F4_V1.26.0/Middlewares/Third_Party/LwIP/src/core/ipv4/ip4.c ****   if (netif == NULL) {
 619:/Users/nhantt/STM32Cube/Repository/STM32Cube_FW_F4_V1.26.0/Middlewares/Third_Party/LwIP/src/core/ipv4/ip4.c ****     /* packet not for us, route or discard */
 620:/Users/nhantt/STM32Cube/Repository/STM32Cube_FW_F4_V1.26.0/Middlewares/Third_Party/LwIP/src/core/ipv4/ip4.c ****     LWIP_DEBUGF(IP_DEBUG | LWIP_DBG_TRACE, ("ip4_input: packet not for us.\n"));
 621:/Users/nhantt/STM32Cube/Repository/STM32Cube_FW_F4_V1.26.0/Middlewares/Third_Party/LwIP/src/core/ipv4/ip4.c **** #if IP_FORWARD
 622:/Users/nhantt/STM32Cube/Repository/STM32Cube_FW_F4_V1.26.0/Middlewares/Third_Party/LwIP/src/core/ipv4/ip4.c ****     /* non-broadcast packet? */
 623:/Users/nhantt/STM32Cube/Repository/STM32Cube_FW_F4_V1.26.0/Middlewares/Third_Party/LwIP/src/core/ipv4/ip4.c ****     if (!ip4_addr_isbroadcast(ip4_current_dest_addr(), inp)) {
 624:/Users/nhantt/STM32Cube/Repository/STM32Cube_FW_F4_V1.26.0/Middlewares/Third_Party/LwIP/src/core/ipv4/ip4.c ****       /* try to forward IP packet on (other) interfaces */
 625:/Users/nhantt/STM32Cube/Repository/STM32Cube_FW_F4_V1.26.0/Middlewares/Third_Party/LwIP/src/core/ipv4/ip4.c ****       ip4_forward(p, (struct ip_hdr *)p->payload, inp);
 626:/Users/nhantt/STM32Cube/Repository/STM32Cube_FW_F4_V1.26.0/Middlewares/Third_Party/LwIP/src/core/ipv4/ip4.c ****     } else
 627:/Users/nhantt/STM32Cube/Repository/STM32Cube_FW_F4_V1.26.0/Middlewares/Third_Party/LwIP/src/core/ipv4/ip4.c **** #endif /* IP_FORWARD */
 628:/Users/nhantt/STM32Cube/Repository/STM32Cube_FW_F4_V1.26.0/Middlewares/Third_Party/LwIP/src/core/ipv4/ip4.c ****     {
 629:/Users/nhantt/STM32Cube/Repository/STM32Cube_FW_F4_V1.26.0/Middlewares/Third_Party/LwIP/src/core/ipv4/ip4.c ****       IP_STATS_INC(ip.drop);
 630:/Users/nhantt/STM32Cube/Repository/STM32Cube_FW_F4_V1.26.0/Middlewares/Third_Party/LwIP/src/core/ipv4/ip4.c ****       MIB2_STATS_INC(mib2.ipinaddrerrors);
 631:/Users/nhantt/STM32Cube/Repository/STM32Cube_FW_F4_V1.26.0/Middlewares/Third_Party/LwIP/src/core/ipv4/ip4.c ****       MIB2_STATS_INC(mib2.ipindiscards);
 632:/Users/nhantt/STM32Cube/Repository/STM32Cube_FW_F4_V1.26.0/Middlewares/Third_Party/LwIP/src/core/ipv4/ip4.c ****     }
 633:/Users/nhantt/STM32Cube/Repository/STM32Cube_FW_F4_V1.26.0/Middlewares/Third_Party/LwIP/src/core/ipv4/ip4.c ****     pbuf_free(p);
 634:/Users/nhantt/STM32Cube/Repository/STM32Cube_FW_F4_V1.26.0/Middlewares/Third_Party/LwIP/src/core/ipv4/ip4.c ****     return ERR_OK;
 635:/Users/nhantt/STM32Cube/Repository/STM32Cube_FW_F4_V1.26.0/Middlewares/Third_Party/LwIP/src/core/ipv4/ip4.c ****   }
 636:/Users/nhantt/STM32Cube/Repository/STM32Cube_FW_F4_V1.26.0/Middlewares/Third_Party/LwIP/src/core/ipv4/ip4.c ****   /* packet consists of multiple fragments? */
 637:/Users/nhantt/STM32Cube/Repository/STM32Cube_FW_F4_V1.26.0/Middlewares/Third_Party/LwIP/src/core/ipv4/ip4.c ****   if ((IPH_OFFSET(iphdr) & PP_HTONS(IP_OFFMASK | IP_MF)) != 0) {
 638:/Users/nhantt/STM32Cube/Repository/STM32Cube_FW_F4_V1.26.0/Middlewares/Third_Party/LwIP/src/core/ipv4/ip4.c **** #if IP_REASSEMBLY /* packet fragment reassembly code present? */
 639:/Users/nhantt/STM32Cube/Repository/STM32Cube_FW_F4_V1.26.0/Middlewares/Third_Party/LwIP/src/core/ipv4/ip4.c ****     LWIP_DEBUGF(IP_DEBUG, ("IP packet is a fragment (id=0x%04"X16_F" tot_len=%"U16_F" len=%"U16_F" 
 640:/Users/nhantt/STM32Cube/Repository/STM32Cube_FW_F4_V1.26.0/Middlewares/Third_Party/LwIP/src/core/ipv4/ip4.c ****                            lwip_ntohs(IPH_ID(iphdr)), p->tot_len, lwip_ntohs(IPH_LEN(iphdr)), (u16_
 641:/Users/nhantt/STM32Cube/Repository/STM32Cube_FW_F4_V1.26.0/Middlewares/Third_Party/LwIP/src/core/ipv4/ip4.c ****     /* reassemble the packet*/
 642:/Users/nhantt/STM32Cube/Repository/STM32Cube_FW_F4_V1.26.0/Middlewares/Third_Party/LwIP/src/core/ipv4/ip4.c ****     p = ip4_reass(p);
 643:/Users/nhantt/STM32Cube/Repository/STM32Cube_FW_F4_V1.26.0/Middlewares/Third_Party/LwIP/src/core/ipv4/ip4.c ****     /* packet not fully reassembled yet? */
 644:/Users/nhantt/STM32Cube/Repository/STM32Cube_FW_F4_V1.26.0/Middlewares/Third_Party/LwIP/src/core/ipv4/ip4.c ****     if (p == NULL) {
 645:/Users/nhantt/STM32Cube/Repository/STM32Cube_FW_F4_V1.26.0/Middlewares/Third_Party/LwIP/src/core/ipv4/ip4.c ****       return ERR_OK;
 646:/Users/nhantt/STM32Cube/Repository/STM32Cube_FW_F4_V1.26.0/Middlewares/Third_Party/LwIP/src/core/ipv4/ip4.c ****     }
 647:/Users/nhantt/STM32Cube/Repository/STM32Cube_FW_F4_V1.26.0/Middlewares/Third_Party/LwIP/src/core/ipv4/ip4.c ****     iphdr = (const struct ip_hdr *)p->payload;
ARM GAS  /var/folders/k2/cd9bl_j17z77g23y6ffqb_400000gn/T//ccJwgoEp.s 			page 19


 648:/Users/nhantt/STM32Cube/Repository/STM32Cube_FW_F4_V1.26.0/Middlewares/Third_Party/LwIP/src/core/ipv4/ip4.c **** #else /* IP_REASSEMBLY == 0, no packet fragment reassembly code present */
 649:/Users/nhantt/STM32Cube/Repository/STM32Cube_FW_F4_V1.26.0/Middlewares/Third_Party/LwIP/src/core/ipv4/ip4.c ****     pbuf_free(p);
 650:/Users/nhantt/STM32Cube/Repository/STM32Cube_FW_F4_V1.26.0/Middlewares/Third_Party/LwIP/src/core/ipv4/ip4.c ****     LWIP_DEBUGF(IP_DEBUG | LWIP_DBG_LEVEL_SERIOUS, ("IP packet dropped since it was fragmented (0x%
 651:/Users/nhantt/STM32Cube/Repository/STM32Cube_FW_F4_V1.26.0/Middlewares/Third_Party/LwIP/src/core/ipv4/ip4.c ****                 lwip_ntohs(IPH_OFFSET(iphdr))));
 652:/Users/nhantt/STM32Cube/Repository/STM32Cube_FW_F4_V1.26.0/Middlewares/Third_Party/LwIP/src/core/ipv4/ip4.c ****     IP_STATS_INC(ip.opterr);
 653:/Users/nhantt/STM32Cube/Repository/STM32Cube_FW_F4_V1.26.0/Middlewares/Third_Party/LwIP/src/core/ipv4/ip4.c ****     IP_STATS_INC(ip.drop);
 654:/Users/nhantt/STM32Cube/Repository/STM32Cube_FW_F4_V1.26.0/Middlewares/Third_Party/LwIP/src/core/ipv4/ip4.c ****     /* unsupported protocol feature */
 655:/Users/nhantt/STM32Cube/Repository/STM32Cube_FW_F4_V1.26.0/Middlewares/Third_Party/LwIP/src/core/ipv4/ip4.c ****     MIB2_STATS_INC(mib2.ipinunknownprotos);
 656:/Users/nhantt/STM32Cube/Repository/STM32Cube_FW_F4_V1.26.0/Middlewares/Third_Party/LwIP/src/core/ipv4/ip4.c ****     return ERR_OK;
 657:/Users/nhantt/STM32Cube/Repository/STM32Cube_FW_F4_V1.26.0/Middlewares/Third_Party/LwIP/src/core/ipv4/ip4.c **** #endif /* IP_REASSEMBLY */
 658:/Users/nhantt/STM32Cube/Repository/STM32Cube_FW_F4_V1.26.0/Middlewares/Third_Party/LwIP/src/core/ipv4/ip4.c ****   }
 659:/Users/nhantt/STM32Cube/Repository/STM32Cube_FW_F4_V1.26.0/Middlewares/Third_Party/LwIP/src/core/ipv4/ip4.c **** 
 660:/Users/nhantt/STM32Cube/Repository/STM32Cube_FW_F4_V1.26.0/Middlewares/Third_Party/LwIP/src/core/ipv4/ip4.c **** #if IP_OPTIONS_ALLOWED == 0 /* no support for IP options in the IP header? */
 661:/Users/nhantt/STM32Cube/Repository/STM32Cube_FW_F4_V1.26.0/Middlewares/Third_Party/LwIP/src/core/ipv4/ip4.c **** 
 662:/Users/nhantt/STM32Cube/Repository/STM32Cube_FW_F4_V1.26.0/Middlewares/Third_Party/LwIP/src/core/ipv4/ip4.c **** #if LWIP_IGMP
 663:/Users/nhantt/STM32Cube/Repository/STM32Cube_FW_F4_V1.26.0/Middlewares/Third_Party/LwIP/src/core/ipv4/ip4.c ****   /* there is an extra "router alert" option in IGMP messages which we allow for but do not police 
 664:/Users/nhantt/STM32Cube/Repository/STM32Cube_FW_F4_V1.26.0/Middlewares/Third_Party/LwIP/src/core/ipv4/ip4.c ****   if ((iphdr_hlen > IP_HLEN) &&  (IPH_PROTO(iphdr) != IP_PROTO_IGMP)) {
 665:/Users/nhantt/STM32Cube/Repository/STM32Cube_FW_F4_V1.26.0/Middlewares/Third_Party/LwIP/src/core/ipv4/ip4.c **** #else
 666:/Users/nhantt/STM32Cube/Repository/STM32Cube_FW_F4_V1.26.0/Middlewares/Third_Party/LwIP/src/core/ipv4/ip4.c ****   if (iphdr_hlen > IP_HLEN) {
 667:/Users/nhantt/STM32Cube/Repository/STM32Cube_FW_F4_V1.26.0/Middlewares/Third_Party/LwIP/src/core/ipv4/ip4.c **** #endif /* LWIP_IGMP */
 668:/Users/nhantt/STM32Cube/Repository/STM32Cube_FW_F4_V1.26.0/Middlewares/Third_Party/LwIP/src/core/ipv4/ip4.c ****     LWIP_DEBUGF(IP_DEBUG | LWIP_DBG_LEVEL_SERIOUS, ("IP packet dropped since there were IP options 
 669:/Users/nhantt/STM32Cube/Repository/STM32Cube_FW_F4_V1.26.0/Middlewares/Third_Party/LwIP/src/core/ipv4/ip4.c ****     pbuf_free(p);
 670:/Users/nhantt/STM32Cube/Repository/STM32Cube_FW_F4_V1.26.0/Middlewares/Third_Party/LwIP/src/core/ipv4/ip4.c ****     IP_STATS_INC(ip.opterr);
 671:/Users/nhantt/STM32Cube/Repository/STM32Cube_FW_F4_V1.26.0/Middlewares/Third_Party/LwIP/src/core/ipv4/ip4.c ****     IP_STATS_INC(ip.drop);
 672:/Users/nhantt/STM32Cube/Repository/STM32Cube_FW_F4_V1.26.0/Middlewares/Third_Party/LwIP/src/core/ipv4/ip4.c ****     /* unsupported protocol feature */
 673:/Users/nhantt/STM32Cube/Repository/STM32Cube_FW_F4_V1.26.0/Middlewares/Third_Party/LwIP/src/core/ipv4/ip4.c ****     MIB2_STATS_INC(mib2.ipinunknownprotos);
 674:/Users/nhantt/STM32Cube/Repository/STM32Cube_FW_F4_V1.26.0/Middlewares/Third_Party/LwIP/src/core/ipv4/ip4.c ****     return ERR_OK;
 675:/Users/nhantt/STM32Cube/Repository/STM32Cube_FW_F4_V1.26.0/Middlewares/Third_Party/LwIP/src/core/ipv4/ip4.c ****   }
 676:/Users/nhantt/STM32Cube/Repository/STM32Cube_FW_F4_V1.26.0/Middlewares/Third_Party/LwIP/src/core/ipv4/ip4.c **** #endif /* IP_OPTIONS_ALLOWED == 0 */
 677:/Users/nhantt/STM32Cube/Repository/STM32Cube_FW_F4_V1.26.0/Middlewares/Third_Party/LwIP/src/core/ipv4/ip4.c **** 
 678:/Users/nhantt/STM32Cube/Repository/STM32Cube_FW_F4_V1.26.0/Middlewares/Third_Party/LwIP/src/core/ipv4/ip4.c ****   /* send to upper layers */
 679:/Users/nhantt/STM32Cube/Repository/STM32Cube_FW_F4_V1.26.0/Middlewares/Third_Party/LwIP/src/core/ipv4/ip4.c ****   LWIP_DEBUGF(IP_DEBUG, ("ip4_input: \n"));
 680:/Users/nhantt/STM32Cube/Repository/STM32Cube_FW_F4_V1.26.0/Middlewares/Third_Party/LwIP/src/core/ipv4/ip4.c ****   ip4_debug_print(p);
 681:/Users/nhantt/STM32Cube/Repository/STM32Cube_FW_F4_V1.26.0/Middlewares/Third_Party/LwIP/src/core/ipv4/ip4.c ****   LWIP_DEBUGF(IP_DEBUG, ("ip4_input: p->len %"U16_F" p->tot_len %"U16_F"\n", p->len, p->tot_len));
 682:/Users/nhantt/STM32Cube/Repository/STM32Cube_FW_F4_V1.26.0/Middlewares/Third_Party/LwIP/src/core/ipv4/ip4.c **** 
 683:/Users/nhantt/STM32Cube/Repository/STM32Cube_FW_F4_V1.26.0/Middlewares/Third_Party/LwIP/src/core/ipv4/ip4.c ****   ip_data.current_netif = netif;
 684:/Users/nhantt/STM32Cube/Repository/STM32Cube_FW_F4_V1.26.0/Middlewares/Third_Party/LwIP/src/core/ipv4/ip4.c ****   ip_data.current_input_netif = inp;
 685:/Users/nhantt/STM32Cube/Repository/STM32Cube_FW_F4_V1.26.0/Middlewares/Third_Party/LwIP/src/core/ipv4/ip4.c ****   ip_data.current_ip4_header = iphdr;
 686:/Users/nhantt/STM32Cube/Repository/STM32Cube_FW_F4_V1.26.0/Middlewares/Third_Party/LwIP/src/core/ipv4/ip4.c ****   ip_data.current_ip_header_tot_len = IPH_HL_BYTES(iphdr);
 687:/Users/nhantt/STM32Cube/Repository/STM32Cube_FW_F4_V1.26.0/Middlewares/Third_Party/LwIP/src/core/ipv4/ip4.c **** 
 688:/Users/nhantt/STM32Cube/Repository/STM32Cube_FW_F4_V1.26.0/Middlewares/Third_Party/LwIP/src/core/ipv4/ip4.c **** #if LWIP_RAW
 689:/Users/nhantt/STM32Cube/Repository/STM32Cube_FW_F4_V1.26.0/Middlewares/Third_Party/LwIP/src/core/ipv4/ip4.c ****   /* raw input did not eat the packet? */
 690:/Users/nhantt/STM32Cube/Repository/STM32Cube_FW_F4_V1.26.0/Middlewares/Third_Party/LwIP/src/core/ipv4/ip4.c ****   raw_status = raw_input(p, inp);
 691:/Users/nhantt/STM32Cube/Repository/STM32Cube_FW_F4_V1.26.0/Middlewares/Third_Party/LwIP/src/core/ipv4/ip4.c ****   if (raw_status != RAW_INPUT_EATEN)
 692:/Users/nhantt/STM32Cube/Repository/STM32Cube_FW_F4_V1.26.0/Middlewares/Third_Party/LwIP/src/core/ipv4/ip4.c **** #endif /* LWIP_RAW */
 693:/Users/nhantt/STM32Cube/Repository/STM32Cube_FW_F4_V1.26.0/Middlewares/Third_Party/LwIP/src/core/ipv4/ip4.c ****   {
 694:/Users/nhantt/STM32Cube/Repository/STM32Cube_FW_F4_V1.26.0/Middlewares/Third_Party/LwIP/src/core/ipv4/ip4.c ****     pbuf_remove_header(p, iphdr_hlen); /* Move to payload, no check necessary. */
 695:/Users/nhantt/STM32Cube/Repository/STM32Cube_FW_F4_V1.26.0/Middlewares/Third_Party/LwIP/src/core/ipv4/ip4.c **** 
 696:/Users/nhantt/STM32Cube/Repository/STM32Cube_FW_F4_V1.26.0/Middlewares/Third_Party/LwIP/src/core/ipv4/ip4.c ****     switch (IPH_PROTO(iphdr)) {
 697:/Users/nhantt/STM32Cube/Repository/STM32Cube_FW_F4_V1.26.0/Middlewares/Third_Party/LwIP/src/core/ipv4/ip4.c **** #if LWIP_UDP
 698:/Users/nhantt/STM32Cube/Repository/STM32Cube_FW_F4_V1.26.0/Middlewares/Third_Party/LwIP/src/core/ipv4/ip4.c ****       case IP_PROTO_UDP:
 699:/Users/nhantt/STM32Cube/Repository/STM32Cube_FW_F4_V1.26.0/Middlewares/Third_Party/LwIP/src/core/ipv4/ip4.c **** #if LWIP_UDPLITE
 700:/Users/nhantt/STM32Cube/Repository/STM32Cube_FW_F4_V1.26.0/Middlewares/Third_Party/LwIP/src/core/ipv4/ip4.c ****       case IP_PROTO_UDPLITE:
 701:/Users/nhantt/STM32Cube/Repository/STM32Cube_FW_F4_V1.26.0/Middlewares/Third_Party/LwIP/src/core/ipv4/ip4.c **** #endif /* LWIP_UDPLITE */
 702:/Users/nhantt/STM32Cube/Repository/STM32Cube_FW_F4_V1.26.0/Middlewares/Third_Party/LwIP/src/core/ipv4/ip4.c ****         MIB2_STATS_INC(mib2.ipindelivers);
 703:/Users/nhantt/STM32Cube/Repository/STM32Cube_FW_F4_V1.26.0/Middlewares/Third_Party/LwIP/src/core/ipv4/ip4.c ****         udp_input(p, inp);
 704:/Users/nhantt/STM32Cube/Repository/STM32Cube_FW_F4_V1.26.0/Middlewares/Third_Party/LwIP/src/core/ipv4/ip4.c ****         break;
ARM GAS  /var/folders/k2/cd9bl_j17z77g23y6ffqb_400000gn/T//ccJwgoEp.s 			page 20


 705:/Users/nhantt/STM32Cube/Repository/STM32Cube_FW_F4_V1.26.0/Middlewares/Third_Party/LwIP/src/core/ipv4/ip4.c **** #endif /* LWIP_UDP */
 706:/Users/nhantt/STM32Cube/Repository/STM32Cube_FW_F4_V1.26.0/Middlewares/Third_Party/LwIP/src/core/ipv4/ip4.c **** #if LWIP_TCP
 707:/Users/nhantt/STM32Cube/Repository/STM32Cube_FW_F4_V1.26.0/Middlewares/Third_Party/LwIP/src/core/ipv4/ip4.c ****       case IP_PROTO_TCP:
 708:/Users/nhantt/STM32Cube/Repository/STM32Cube_FW_F4_V1.26.0/Middlewares/Third_Party/LwIP/src/core/ipv4/ip4.c ****         MIB2_STATS_INC(mib2.ipindelivers);
 709:/Users/nhantt/STM32Cube/Repository/STM32Cube_FW_F4_V1.26.0/Middlewares/Third_Party/LwIP/src/core/ipv4/ip4.c ****         tcp_input(p, inp);
 710:/Users/nhantt/STM32Cube/Repository/STM32Cube_FW_F4_V1.26.0/Middlewares/Third_Party/LwIP/src/core/ipv4/ip4.c ****         break;
 711:/Users/nhantt/STM32Cube/Repository/STM32Cube_FW_F4_V1.26.0/Middlewares/Third_Party/LwIP/src/core/ipv4/ip4.c **** #endif /* LWIP_TCP */
 712:/Users/nhantt/STM32Cube/Repository/STM32Cube_FW_F4_V1.26.0/Middlewares/Third_Party/LwIP/src/core/ipv4/ip4.c **** #if LWIP_ICMP
 713:/Users/nhantt/STM32Cube/Repository/STM32Cube_FW_F4_V1.26.0/Middlewares/Third_Party/LwIP/src/core/ipv4/ip4.c ****       case IP_PROTO_ICMP:
 714:/Users/nhantt/STM32Cube/Repository/STM32Cube_FW_F4_V1.26.0/Middlewares/Third_Party/LwIP/src/core/ipv4/ip4.c ****         MIB2_STATS_INC(mib2.ipindelivers);
 715:/Users/nhantt/STM32Cube/Repository/STM32Cube_FW_F4_V1.26.0/Middlewares/Third_Party/LwIP/src/core/ipv4/ip4.c ****         icmp_input(p, inp);
 716:/Users/nhantt/STM32Cube/Repository/STM32Cube_FW_F4_V1.26.0/Middlewares/Third_Party/LwIP/src/core/ipv4/ip4.c ****         break;
 717:/Users/nhantt/STM32Cube/Repository/STM32Cube_FW_F4_V1.26.0/Middlewares/Third_Party/LwIP/src/core/ipv4/ip4.c **** #endif /* LWIP_ICMP */
 718:/Users/nhantt/STM32Cube/Repository/STM32Cube_FW_F4_V1.26.0/Middlewares/Third_Party/LwIP/src/core/ipv4/ip4.c **** #if LWIP_IGMP
 719:/Users/nhantt/STM32Cube/Repository/STM32Cube_FW_F4_V1.26.0/Middlewares/Third_Party/LwIP/src/core/ipv4/ip4.c ****       case IP_PROTO_IGMP:
 720:/Users/nhantt/STM32Cube/Repository/STM32Cube_FW_F4_V1.26.0/Middlewares/Third_Party/LwIP/src/core/ipv4/ip4.c ****         igmp_input(p, inp, ip4_current_dest_addr());
 721:/Users/nhantt/STM32Cube/Repository/STM32Cube_FW_F4_V1.26.0/Middlewares/Third_Party/LwIP/src/core/ipv4/ip4.c ****         break;
 722:/Users/nhantt/STM32Cube/Repository/STM32Cube_FW_F4_V1.26.0/Middlewares/Third_Party/LwIP/src/core/ipv4/ip4.c **** #endif /* LWIP_IGMP */
 723:/Users/nhantt/STM32Cube/Repository/STM32Cube_FW_F4_V1.26.0/Middlewares/Third_Party/LwIP/src/core/ipv4/ip4.c ****       default:
 724:/Users/nhantt/STM32Cube/Repository/STM32Cube_FW_F4_V1.26.0/Middlewares/Third_Party/LwIP/src/core/ipv4/ip4.c **** #if LWIP_RAW
 725:/Users/nhantt/STM32Cube/Repository/STM32Cube_FW_F4_V1.26.0/Middlewares/Third_Party/LwIP/src/core/ipv4/ip4.c ****         if (raw_status == RAW_INPUT_DELIVERED) {
 726:/Users/nhantt/STM32Cube/Repository/STM32Cube_FW_F4_V1.26.0/Middlewares/Third_Party/LwIP/src/core/ipv4/ip4.c ****           MIB2_STATS_INC(mib2.ipindelivers);
 727:/Users/nhantt/STM32Cube/Repository/STM32Cube_FW_F4_V1.26.0/Middlewares/Third_Party/LwIP/src/core/ipv4/ip4.c ****         } else
 728:/Users/nhantt/STM32Cube/Repository/STM32Cube_FW_F4_V1.26.0/Middlewares/Third_Party/LwIP/src/core/ipv4/ip4.c **** #endif /* LWIP_RAW */
 729:/Users/nhantt/STM32Cube/Repository/STM32Cube_FW_F4_V1.26.0/Middlewares/Third_Party/LwIP/src/core/ipv4/ip4.c ****         {
 730:/Users/nhantt/STM32Cube/Repository/STM32Cube_FW_F4_V1.26.0/Middlewares/Third_Party/LwIP/src/core/ipv4/ip4.c **** #if LWIP_ICMP
 731:/Users/nhantt/STM32Cube/Repository/STM32Cube_FW_F4_V1.26.0/Middlewares/Third_Party/LwIP/src/core/ipv4/ip4.c ****           /* send ICMP destination protocol unreachable unless is was a broadcast */
 732:/Users/nhantt/STM32Cube/Repository/STM32Cube_FW_F4_V1.26.0/Middlewares/Third_Party/LwIP/src/core/ipv4/ip4.c ****           if (!ip4_addr_isbroadcast(ip4_current_dest_addr(), netif) &&
 733:/Users/nhantt/STM32Cube/Repository/STM32Cube_FW_F4_V1.26.0/Middlewares/Third_Party/LwIP/src/core/ipv4/ip4.c ****               !ip4_addr_ismulticast(ip4_current_dest_addr())) {
 734:/Users/nhantt/STM32Cube/Repository/STM32Cube_FW_F4_V1.26.0/Middlewares/Third_Party/LwIP/src/core/ipv4/ip4.c ****             pbuf_header_force(p, (s16_t)iphdr_hlen); /* Move to ip header, no check necessary. */
 735:/Users/nhantt/STM32Cube/Repository/STM32Cube_FW_F4_V1.26.0/Middlewares/Third_Party/LwIP/src/core/ipv4/ip4.c ****             icmp_dest_unreach(p, ICMP_DUR_PROTO);
 736:/Users/nhantt/STM32Cube/Repository/STM32Cube_FW_F4_V1.26.0/Middlewares/Third_Party/LwIP/src/core/ipv4/ip4.c ****           }
 737:/Users/nhantt/STM32Cube/Repository/STM32Cube_FW_F4_V1.26.0/Middlewares/Third_Party/LwIP/src/core/ipv4/ip4.c **** #endif /* LWIP_ICMP */
 738:/Users/nhantt/STM32Cube/Repository/STM32Cube_FW_F4_V1.26.0/Middlewares/Third_Party/LwIP/src/core/ipv4/ip4.c **** 
 739:/Users/nhantt/STM32Cube/Repository/STM32Cube_FW_F4_V1.26.0/Middlewares/Third_Party/LwIP/src/core/ipv4/ip4.c ****           LWIP_DEBUGF(IP_DEBUG | LWIP_DBG_LEVEL_SERIOUS, ("Unsupported transport protocol %"U16_F"\
 740:/Users/nhantt/STM32Cube/Repository/STM32Cube_FW_F4_V1.26.0/Middlewares/Third_Party/LwIP/src/core/ipv4/ip4.c **** 
 741:/Users/nhantt/STM32Cube/Repository/STM32Cube_FW_F4_V1.26.0/Middlewares/Third_Party/LwIP/src/core/ipv4/ip4.c ****           IP_STATS_INC(ip.proterr);
 742:/Users/nhantt/STM32Cube/Repository/STM32Cube_FW_F4_V1.26.0/Middlewares/Third_Party/LwIP/src/core/ipv4/ip4.c ****           IP_STATS_INC(ip.drop);
 743:/Users/nhantt/STM32Cube/Repository/STM32Cube_FW_F4_V1.26.0/Middlewares/Third_Party/LwIP/src/core/ipv4/ip4.c ****           MIB2_STATS_INC(mib2.ipinunknownprotos);
 744:/Users/nhantt/STM32Cube/Repository/STM32Cube_FW_F4_V1.26.0/Middlewares/Third_Party/LwIP/src/core/ipv4/ip4.c ****         }
 745:/Users/nhantt/STM32Cube/Repository/STM32Cube_FW_F4_V1.26.0/Middlewares/Third_Party/LwIP/src/core/ipv4/ip4.c ****         pbuf_free(p);
 746:/Users/nhantt/STM32Cube/Repository/STM32Cube_FW_F4_V1.26.0/Middlewares/Third_Party/LwIP/src/core/ipv4/ip4.c ****         break;
 747:/Users/nhantt/STM32Cube/Repository/STM32Cube_FW_F4_V1.26.0/Middlewares/Third_Party/LwIP/src/core/ipv4/ip4.c ****     }
 748:/Users/nhantt/STM32Cube/Repository/STM32Cube_FW_F4_V1.26.0/Middlewares/Third_Party/LwIP/src/core/ipv4/ip4.c ****   }
 749:/Users/nhantt/STM32Cube/Repository/STM32Cube_FW_F4_V1.26.0/Middlewares/Third_Party/LwIP/src/core/ipv4/ip4.c **** 
 750:/Users/nhantt/STM32Cube/Repository/STM32Cube_FW_F4_V1.26.0/Middlewares/Third_Party/LwIP/src/core/ipv4/ip4.c ****   /* @todo: this is not really necessary... */
 751:/Users/nhantt/STM32Cube/Repository/STM32Cube_FW_F4_V1.26.0/Middlewares/Third_Party/LwIP/src/core/ipv4/ip4.c ****   ip_data.current_netif = NULL;
 752:/Users/nhantt/STM32Cube/Repository/STM32Cube_FW_F4_V1.26.0/Middlewares/Third_Party/LwIP/src/core/ipv4/ip4.c ****   ip_data.current_input_netif = NULL;
 753:/Users/nhantt/STM32Cube/Repository/STM32Cube_FW_F4_V1.26.0/Middlewares/Third_Party/LwIP/src/core/ipv4/ip4.c ****   ip_data.current_ip4_header = NULL;
 754:/Users/nhantt/STM32Cube/Repository/STM32Cube_FW_F4_V1.26.0/Middlewares/Third_Party/LwIP/src/core/ipv4/ip4.c ****   ip_data.current_ip_header_tot_len = 0;
 755:/Users/nhantt/STM32Cube/Repository/STM32Cube_FW_F4_V1.26.0/Middlewares/Third_Party/LwIP/src/core/ipv4/ip4.c ****   ip4_addr_set_any(ip4_current_src_addr());
 756:/Users/nhantt/STM32Cube/Repository/STM32Cube_FW_F4_V1.26.0/Middlewares/Third_Party/LwIP/src/core/ipv4/ip4.c ****   ip4_addr_set_any(ip4_current_dest_addr());
 757:/Users/nhantt/STM32Cube/Repository/STM32Cube_FW_F4_V1.26.0/Middlewares/Third_Party/LwIP/src/core/ipv4/ip4.c **** 
 758:/Users/nhantt/STM32Cube/Repository/STM32Cube_FW_F4_V1.26.0/Middlewares/Third_Party/LwIP/src/core/ipv4/ip4.c ****   return ERR_OK;
 759:/Users/nhantt/STM32Cube/Repository/STM32Cube_FW_F4_V1.26.0/Middlewares/Third_Party/LwIP/src/core/ipv4/ip4.c **** }
 325              		.loc 1 759 1 is_stmt 0 view .LVU98
 326 0018 0020     		movs	r0, #0
ARM GAS  /var/folders/k2/cd9bl_j17z77g23y6ffqb_400000gn/T//ccJwgoEp.s 			page 21


 327 001a BDE8F883 		pop	{r3, r4, r5, r6, r7, r8, r9, pc}
 328              	.LVL19:
 329              	.L34:
 330              		.loc 1 759 1 view .LVU99
 331 001e 0F46     		mov	r7, r1
 464:/Users/nhantt/STM32Cube/Repository/STM32Cube_FW_F4_V1.26.0/Middlewares/Third_Party/LwIP/src/core/ipv4/ip4.c ****   /* obtain ip length in bytes */
 332              		.loc 1 464 3 is_stmt 1 view .LVU100
 464:/Users/nhantt/STM32Cube/Repository/STM32Cube_FW_F4_V1.26.0/Middlewares/Third_Party/LwIP/src/core/ipv4/ip4.c ****   /* obtain ip length in bytes */
 333              		.loc 1 464 16 is_stmt 0 view .LVU101
 334 0020 03F00F03 		and	r3, r3, #15
 335 0024 4FEA8309 		lsl	r9, r3, #2
 464:/Users/nhantt/STM32Cube/Repository/STM32Cube_FW_F4_V1.26.0/Middlewares/Third_Party/LwIP/src/core/ipv4/ip4.c ****   /* obtain ip length in bytes */
 336              		.loc 1 464 14 view .LVU102
 337 0028 4D46     		mov	r5, r9
 338              	.LVL20:
 466:/Users/nhantt/STM32Cube/Repository/STM32Cube_FW_F4_V1.26.0/Middlewares/Third_Party/LwIP/src/core/ipv4/ip4.c **** 
 339              		.loc 1 466 3 is_stmt 1 view .LVU103
 466:/Users/nhantt/STM32Cube/Repository/STM32Cube_FW_F4_V1.26.0/Middlewares/Third_Party/LwIP/src/core/ipv4/ip4.c **** 
 340              		.loc 1 466 15 is_stmt 0 view .LVU104
 341 002a B8F80200 		ldrh	r0, [r8, #2]	@ unaligned
 342              	.LVL21:
 466:/Users/nhantt/STM32Cube/Repository/STM32Cube_FW_F4_V1.26.0/Middlewares/Third_Party/LwIP/src/core/ipv4/ip4.c **** 
 343              		.loc 1 466 15 view .LVU105
 344 002e FFF7FEFF 		bl	lwip_htons
 345              	.LVL22:
 466:/Users/nhantt/STM32Cube/Repository/STM32Cube_FW_F4_V1.26.0/Middlewares/Third_Party/LwIP/src/core/ipv4/ip4.c **** 
 346              		.loc 1 466 15 view .LVU106
 347 0032 0646     		mov	r6, r0
 348              	.LVL23:
 469:/Users/nhantt/STM32Cube/Repository/STM32Cube_FW_F4_V1.26.0/Middlewares/Third_Party/LwIP/src/core/ipv4/ip4.c ****     pbuf_realloc(p, iphdr_len);
 349              		.loc 1 469 3 is_stmt 1 view .LVU107
 469:/Users/nhantt/STM32Cube/Repository/STM32Cube_FW_F4_V1.26.0/Middlewares/Third_Party/LwIP/src/core/ipv4/ip4.c ****     pbuf_realloc(p, iphdr_len);
 350              		.loc 1 469 20 is_stmt 0 view .LVU108
 351 0034 2389     		ldrh	r3, [r4, #8]
 469:/Users/nhantt/STM32Cube/Repository/STM32Cube_FW_F4_V1.26.0/Middlewares/Third_Party/LwIP/src/core/ipv4/ip4.c ****     pbuf_realloc(p, iphdr_len);
 352              		.loc 1 469 6 view .LVU109
 353 0036 8342     		cmp	r3, r0
 354 0038 1BD8     		bhi	.L63
 355              	.LVL24:
 356              	.L36:
 474:/Users/nhantt/STM32Cube/Repository/STM32Cube_FW_F4_V1.26.0/Middlewares/Third_Party/LwIP/src/core/ipv4/ip4.c ****     if (iphdr_hlen < IP_HLEN) {
 357              		.loc 1 474 3 is_stmt 1 view .LVU110
 474:/Users/nhantt/STM32Cube/Repository/STM32Cube_FW_F4_V1.26.0/Middlewares/Third_Party/LwIP/src/core/ipv4/ip4.c ****     if (iphdr_hlen < IP_HLEN) {
 358              		.loc 1 474 22 is_stmt 0 view .LVU111
 359 003a 6389     		ldrh	r3, [r4, #10]
 474:/Users/nhantt/STM32Cube/Repository/STM32Cube_FW_F4_V1.26.0/Middlewares/Third_Party/LwIP/src/core/ipv4/ip4.c ****     if (iphdr_hlen < IP_HLEN) {
 360              		.loc 1 474 6 view .LVU112
 361 003c AB42     		cmp	r3, r5
 362 003e 1DD3     		bcc	.L37
 474:/Users/nhantt/STM32Cube/Repository/STM32Cube_FW_F4_V1.26.0/Middlewares/Third_Party/LwIP/src/core/ipv4/ip4.c ****     if (iphdr_hlen < IP_HLEN) {
 363              		.loc 1 474 46 discriminator 1 view .LVU113
 364 0040 2389     		ldrh	r3, [r4, #8]
 474:/Users/nhantt/STM32Cube/Repository/STM32Cube_FW_F4_V1.26.0/Middlewares/Third_Party/LwIP/src/core/ipv4/ip4.c ****     if (iphdr_hlen < IP_HLEN) {
 365              		.loc 1 474 29 discriminator 1 view .LVU114
 366 0042 B342     		cmp	r3, r6
 367 0044 1AD3     		bcc	.L37
 474:/Users/nhantt/STM32Cube/Repository/STM32Cube_FW_F4_V1.26.0/Middlewares/Third_Party/LwIP/src/core/ipv4/ip4.c ****     if (iphdr_hlen < IP_HLEN) {
ARM GAS  /var/folders/k2/cd9bl_j17z77g23y6ffqb_400000gn/T//ccJwgoEp.s 			page 22


 368              		.loc 1 474 57 discriminator 2 view .LVU115
 369 0046 132D     		cmp	r5, #19
 370 0048 18D9     		bls	.L37
 515:/Users/nhantt/STM32Cube/Repository/STM32Cube_FW_F4_V1.26.0/Middlewares/Third_Party/LwIP/src/core/ipv4/ip4.c ****   ip_addr_copy_from_ip4(ip_data.current_iphdr_src, iphdr->src);
 371              		.loc 1 515 3 is_stmt 1 view .LVU116
 372 004a D8F81030 		ldr	r3, [r8, #16]	@ unaligned
 373 004e 584A     		ldr	r2, .L69
 374 0050 5361     		str	r3, [r2, #20]
 516:/Users/nhantt/STM32Cube/Repository/STM32Cube_FW_F4_V1.26.0/Middlewares/Third_Party/LwIP/src/core/ipv4/ip4.c **** 
 375              		.loc 1 516 3 view .LVU117
 376 0052 D8F80C10 		ldr	r1, [r8, #12]	@ unaligned
 377 0056 1161     		str	r1, [r2, #16]
 519:/Users/nhantt/STM32Cube/Repository/STM32Cube_FW_F4_V1.26.0/Middlewares/Third_Party/LwIP/src/core/ipv4/ip4.c **** #if LWIP_IGMP
 378              		.loc 1 519 3 view .LVU118
 519:/Users/nhantt/STM32Cube/Repository/STM32Cube_FW_F4_V1.26.0/Middlewares/Third_Party/LwIP/src/core/ipv4/ip4.c **** #if LWIP_IGMP
 379              		.loc 1 519 7 is_stmt 0 view .LVU119
 380 0058 03F0F003 		and	r3, r3, #240
 519:/Users/nhantt/STM32Cube/Repository/STM32Cube_FW_F4_V1.26.0/Middlewares/Third_Party/LwIP/src/core/ipv4/ip4.c **** #if LWIP_IGMP
 381              		.loc 1 519 6 view .LVU120
 382 005c E02B     		cmp	r3, #224
 383 005e 11D1     		bne	.L39
 534:/Users/nhantt/STM32Cube/Repository/STM32Cube_FW_F4_V1.26.0/Middlewares/Third_Party/LwIP/src/core/ipv4/ip4.c ****       netif = inp;
 384              		.loc 1 534 5 is_stmt 1 view .LVU121
 534:/Users/nhantt/STM32Cube/Repository/STM32Cube_FW_F4_V1.26.0/Middlewares/Third_Party/LwIP/src/core/ipv4/ip4.c ****       netif = inp;
 385              		.loc 1 534 10 is_stmt 0 view .LVU122
 386 0060 97F83130 		ldrb	r3, [r7, #49]	@ zero_extendqisi2
 534:/Users/nhantt/STM32Cube/Repository/STM32Cube_FW_F4_V1.26.0/Middlewares/Third_Party/LwIP/src/core/ipv4/ip4.c ****       netif = inp;
 387              		.loc 1 534 8 view .LVU123
 388 0064 13F0010F 		tst	r3, #1
 389 0068 26D0     		beq	.L56
 534:/Users/nhantt/STM32Cube/Repository/STM32Cube_FW_F4_V1.26.0/Middlewares/Third_Party/LwIP/src/core/ipv4/ip4.c ****       netif = inp;
 390              		.loc 1 534 33 discriminator 1 view .LVU124
 391 006a 7B68     		ldr	r3, [r7, #4]
 534:/Users/nhantt/STM32Cube/Repository/STM32Cube_FW_F4_V1.26.0/Middlewares/Third_Party/LwIP/src/core/ipv4/ip4.c ****       netif = inp;
 392              		.loc 1 534 28 discriminator 1 view .LVU125
 393 006c FBB9     		cbnz	r3, .L57
 537:/Users/nhantt/STM32Cube/Repository/STM32Cube_FW_F4_V1.26.0/Middlewares/Third_Party/LwIP/src/core/ipv4/ip4.c ****     }
 394              		.loc 1 537 13 view .LVU126
 395 006e 0025     		movs	r5, #0
 396 0070 23E0     		b	.L40
 397              	.LVL25:
 398              	.L63:
 470:/Users/nhantt/STM32Cube/Repository/STM32Cube_FW_F4_V1.26.0/Middlewares/Third_Party/LwIP/src/core/ipv4/ip4.c ****   }
 399              		.loc 1 470 5 is_stmt 1 view .LVU127
 400 0072 0146     		mov	r1, r0
 401 0074 2046     		mov	r0, r4
 402              	.LVL26:
 470:/Users/nhantt/STM32Cube/Repository/STM32Cube_FW_F4_V1.26.0/Middlewares/Third_Party/LwIP/src/core/ipv4/ip4.c ****   }
 403              		.loc 1 470 5 is_stmt 0 view .LVU128
 404 0076 FFF7FEFF 		bl	pbuf_realloc
 405              	.LVL27:
 406 007a DEE7     		b	.L36
 407              	.L37:
 475:/Users/nhantt/STM32Cube/Repository/STM32Cube_FW_F4_V1.26.0/Middlewares/Third_Party/LwIP/src/core/ipv4/ip4.c ****       LWIP_DEBUGF(IP_DEBUG | LWIP_DBG_LEVEL_SERIOUS,
 408              		.loc 1 475 5 is_stmt 1 view .LVU129
 477:/Users/nhantt/STM32Cube/Repository/STM32Cube_FW_F4_V1.26.0/Middlewares/Third_Party/LwIP/src/core/ipv4/ip4.c ****     }
 409              		.loc 1 477 109 view .LVU130
ARM GAS  /var/folders/k2/cd9bl_j17z77g23y6ffqb_400000gn/T//ccJwgoEp.s 			page 23


 479:/Users/nhantt/STM32Cube/Repository/STM32Cube_FW_F4_V1.26.0/Middlewares/Third_Party/LwIP/src/core/ipv4/ip4.c ****       LWIP_DEBUGF(IP_DEBUG | LWIP_DBG_LEVEL_SERIOUS,
 410              		.loc 1 479 5 view .LVU131
 482:/Users/nhantt/STM32Cube/Repository/STM32Cube_FW_F4_V1.26.0/Middlewares/Third_Party/LwIP/src/core/ipv4/ip4.c ****     }
 411              		.loc 1 482 40 view .LVU132
 484:/Users/nhantt/STM32Cube/Repository/STM32Cube_FW_F4_V1.26.0/Middlewares/Third_Party/LwIP/src/core/ipv4/ip4.c ****       LWIP_DEBUGF(IP_DEBUG | LWIP_DBG_LEVEL_SERIOUS,
 412              		.loc 1 484 5 view .LVU133
 487:/Users/nhantt/STM32Cube/Repository/STM32Cube_FW_F4_V1.26.0/Middlewares/Third_Party/LwIP/src/core/ipv4/ip4.c ****     }
 413              		.loc 1 487 43 view .LVU134
 490:/Users/nhantt/STM32Cube/Repository/STM32Cube_FW_F4_V1.26.0/Middlewares/Third_Party/LwIP/src/core/ipv4/ip4.c ****     IP_STATS_INC(ip.lenerr);
 414              		.loc 1 490 5 view .LVU135
 415 007c 2046     		mov	r0, r4
 416 007e FFF7FEFF 		bl	pbuf_free
 417              	.LVL28:
 491:/Users/nhantt/STM32Cube/Repository/STM32Cube_FW_F4_V1.26.0/Middlewares/Third_Party/LwIP/src/core/ipv4/ip4.c ****     IP_STATS_INC(ip.drop);
 418              		.loc 1 491 28 view .LVU136
 492:/Users/nhantt/STM32Cube/Repository/STM32Cube_FW_F4_V1.26.0/Middlewares/Third_Party/LwIP/src/core/ipv4/ip4.c ****     MIB2_STATS_INC(mib2.ipindiscards);
 419              		.loc 1 492 26 view .LVU137
 493:/Users/nhantt/STM32Cube/Repository/STM32Cube_FW_F4_V1.26.0/Middlewares/Third_Party/LwIP/src/core/ipv4/ip4.c ****     return ERR_OK;
 420              		.loc 1 493 38 view .LVU138
 494:/Users/nhantt/STM32Cube/Repository/STM32Cube_FW_F4_V1.26.0/Middlewares/Third_Party/LwIP/src/core/ipv4/ip4.c ****   }
 421              		.loc 1 494 5 view .LVU139
 494:/Users/nhantt/STM32Cube/Repository/STM32Cube_FW_F4_V1.26.0/Middlewares/Third_Party/LwIP/src/core/ipv4/ip4.c ****   }
 422              		.loc 1 494 12 is_stmt 0 view .LVU140
 423 0082 C9E7     		b	.L35
 424              	.L39:
 543:/Users/nhantt/STM32Cube/Repository/STM32Cube_FW_F4_V1.26.0/Middlewares/Third_Party/LwIP/src/core/ipv4/ip4.c ****       netif = inp;
 425              		.loc 1 543 5 is_stmt 1 view .LVU141
 543:/Users/nhantt/STM32Cube/Repository/STM32Cube_FW_F4_V1.26.0/Middlewares/Third_Party/LwIP/src/core/ipv4/ip4.c ****       netif = inp;
 426              		.loc 1 543 9 is_stmt 0 view .LVU142
 427 0084 3846     		mov	r0, r7
 428 0086 FFF7FEFF 		bl	ip4_input_accept
 429              	.LVL29:
 543:/Users/nhantt/STM32Cube/Repository/STM32Cube_FW_F4_V1.26.0/Middlewares/Third_Party/LwIP/src/core/ipv4/ip4.c ****       netif = inp;
 430              		.loc 1 543 8 view .LVU143
 431 008a 90B9     		cbnz	r0, .L58
 546:/Users/nhantt/STM32Cube/Repository/STM32Cube_FW_F4_V1.26.0/Middlewares/Third_Party/LwIP/src/core/ipv4/ip4.c **** #if !LWIP_NETIF_LOOPBACK || LWIP_HAVE_LOOPIF
 432              		.loc 1 546 7 is_stmt 1 view .LVU144
 433              	.LVL30:
 551:/Users/nhantt/STM32Cube/Repository/STM32Cube_FW_F4_V1.26.0/Middlewares/Third_Party/LwIP/src/core/ipv4/ip4.c **** #endif /* !LWIP_NETIF_LOOPBACK || LWIP_HAVE_LOOPIF */
 434              		.loc 1 551 7 view .LVU145
 551:/Users/nhantt/STM32Cube/Repository/STM32Cube_FW_F4_V1.26.0/Middlewares/Third_Party/LwIP/src/core/ipv4/ip4.c **** #endif /* !LWIP_NETIF_LOOPBACK || LWIP_HAVE_LOOPIF */
 435              		.loc 1 551 12 is_stmt 0 view .LVU146
 436 008c 484B     		ldr	r3, .L69
 437 008e 1B7D     		ldrb	r3, [r3, #20]	@ zero_extendqisi2
 551:/Users/nhantt/STM32Cube/Repository/STM32Cube_FW_F4_V1.26.0/Middlewares/Third_Party/LwIP/src/core/ipv4/ip4.c **** #endif /* !LWIP_NETIF_LOOPBACK || LWIP_HAVE_LOOPIF */
 438              		.loc 1 551 10 view .LVU147
 439 0090 7F2B     		cmp	r3, #127
 440 0092 51D0     		beq	.L59
 555:/Users/nhantt/STM32Cube/Repository/STM32Cube_FW_F4_V1.26.0/Middlewares/Third_Party/LwIP/src/core/ipv4/ip4.c ****           if (netif == inp) {
 441              		.loc 1 555 9 is_stmt 1 view .LVU148
 442 0094 474B     		ldr	r3, .L69+4
 443 0096 1D68     		ldr	r5, [r3]
 444              	.LVL31:
 555:/Users/nhantt/STM32Cube/Repository/STM32Cube_FW_F4_V1.26.0/Middlewares/Third_Party/LwIP/src/core/ipv4/ip4.c ****           if (netif == inp) {
 445              		.loc 1 555 9 is_stmt 0 view .LVU149
 446 0098 00E0     		b	.L42
 447              	.L43:
ARM GAS  /var/folders/k2/cd9bl_j17z77g23y6ffqb_400000gn/T//ccJwgoEp.s 			page 24


 555:/Users/nhantt/STM32Cube/Repository/STM32Cube_FW_F4_V1.26.0/Middlewares/Third_Party/LwIP/src/core/ipv4/ip4.c ****           if (netif == inp) {
 448              		.loc 1 555 9 is_stmt 1 discriminator 2 view .LVU150
 449 009a 2D68     		ldr	r5, [r5]
 450              	.LVL32:
 451              	.L42:
 555:/Users/nhantt/STM32Cube/Repository/STM32Cube_FW_F4_V1.26.0/Middlewares/Third_Party/LwIP/src/core/ipv4/ip4.c ****           if (netif == inp) {
 452              		.loc 1 555 9 discriminator 1 view .LVU151
 453 009c 55B1     		cbz	r5, .L41
 556:/Users/nhantt/STM32Cube/Repository/STM32Cube_FW_F4_V1.26.0/Middlewares/Third_Party/LwIP/src/core/ipv4/ip4.c ****             /* we checked that before already */
 454              		.loc 1 556 11 view .LVU152
 556:/Users/nhantt/STM32Cube/Repository/STM32Cube_FW_F4_V1.26.0/Middlewares/Third_Party/LwIP/src/core/ipv4/ip4.c ****             /* we checked that before already */
 455              		.loc 1 556 14 is_stmt 0 view .LVU153
 456 009e BD42     		cmp	r5, r7
 457 00a0 FBD0     		beq	.L43
 560:/Users/nhantt/STM32Cube/Repository/STM32Cube_FW_F4_V1.26.0/Middlewares/Third_Party/LwIP/src/core/ipv4/ip4.c ****             break;
 458              		.loc 1 560 11 is_stmt 1 view .LVU154
 560:/Users/nhantt/STM32Cube/Repository/STM32Cube_FW_F4_V1.26.0/Middlewares/Third_Party/LwIP/src/core/ipv4/ip4.c ****             break;
 459              		.loc 1 560 15 is_stmt 0 view .LVU155
 460 00a2 2846     		mov	r0, r5
 461 00a4 FFF7FEFF 		bl	ip4_input_accept
 462              	.LVL33:
 560:/Users/nhantt/STM32Cube/Repository/STM32Cube_FW_F4_V1.26.0/Middlewares/Third_Party/LwIP/src/core/ipv4/ip4.c ****             break;
 463              		.loc 1 560 14 view .LVU156
 464 00a8 0028     		cmp	r0, #0
 465 00aa F6D0     		beq	.L43
 466 00ac 02E0     		b	.L41
 467              	.LVL34:
 468              	.L57:
 535:/Users/nhantt/STM32Cube/Repository/STM32Cube_FW_F4_V1.26.0/Middlewares/Third_Party/LwIP/src/core/ipv4/ip4.c ****     } else {
 469              		.loc 1 535 13 view .LVU157
 470 00ae 3D46     		mov	r5, r7
 471 00b0 00E0     		b	.L41
 472              	.L58:
 544:/Users/nhantt/STM32Cube/Repository/STM32Cube_FW_F4_V1.26.0/Middlewares/Third_Party/LwIP/src/core/ipv4/ip4.c ****     } else {
 473              		.loc 1 544 13 view .LVU158
 474 00b2 3D46     		mov	r5, r7
 475              	.L41:
 476              	.LVL35:
 579:/Users/nhantt/STM32Cube/Repository/STM32Cube_FW_F4_V1.26.0/Middlewares/Third_Party/LwIP/src/core/ipv4/ip4.c ****     /* remote port is DHCP server? */
 477              		.loc 1 579 3 is_stmt 1 view .LVU159
 579:/Users/nhantt/STM32Cube/Repository/STM32Cube_FW_F4_V1.26.0/Middlewares/Third_Party/LwIP/src/core/ipv4/ip4.c ****     /* remote port is DHCP server? */
 478              		.loc 1 579 6 is_stmt 0 view .LVU160
 479 00b4 2DB9     		cbnz	r5, .L45
 480 00b6 00E0     		b	.L40
 481              	.LVL36:
 482              	.L56:
 537:/Users/nhantt/STM32Cube/Repository/STM32Cube_FW_F4_V1.26.0/Middlewares/Third_Party/LwIP/src/core/ipv4/ip4.c ****     }
 483              		.loc 1 537 13 view .LVU161
 484 00b8 0025     		movs	r5, #0
 485              	.L40:
 581:/Users/nhantt/STM32Cube/Repository/STM32Cube_FW_F4_V1.26.0/Middlewares/Third_Party/LwIP/src/core/ipv4/ip4.c ****       const struct udp_hdr *udphdr = (const struct udp_hdr *)((const u8_t *)iphdr + iphdr_hlen);
 486              		.loc 1 581 5 is_stmt 1 view .LVU162
 581:/Users/nhantt/STM32Cube/Repository/STM32Cube_FW_F4_V1.26.0/Middlewares/Third_Party/LwIP/src/core/ipv4/ip4.c ****       const struct udp_hdr *udphdr = (const struct udp_hdr *)((const u8_t *)iphdr + iphdr_hlen);
 487              		.loc 1 581 9 is_stmt 0 view .LVU163
 488 00ba 98F80930 		ldrb	r3, [r8, #9]	@ zero_extendqisi2
 581:/Users/nhantt/STM32Cube/Repository/STM32Cube_FW_F4_V1.26.0/Middlewares/Third_Party/LwIP/src/core/ipv4/ip4.c ****       const struct udp_hdr *udphdr = (const struct udp_hdr *)((const u8_t *)iphdr + iphdr_hlen);
 489              		.loc 1 581 8 view .LVU164
ARM GAS  /var/folders/k2/cd9bl_j17z77g23y6ffqb_400000gn/T//ccJwgoEp.s 			page 25


 490 00be 112B     		cmp	r3, #17
 491 00c0 3CD0     		beq	.L64
 492              	.L45:
 493              	.LVL37:
 599:/Users/nhantt/STM32Cube/Repository/STM32Cube_FW_F4_V1.26.0/Middlewares/Third_Party/LwIP/src/core/ipv4/ip4.c **** #endif /* IP_ACCEPT_LINK_LAYER_ADDRESSING */
 494              		.loc 1 599 11 view .LVU165
 495 00c2 3B4B     		ldr	r3, .L69
 496 00c4 1869     		ldr	r0, [r3, #16]
 599:/Users/nhantt/STM32Cube/Repository/STM32Cube_FW_F4_V1.26.0/Middlewares/Third_Party/LwIP/src/core/ipv4/ip4.c **** #endif /* IP_ACCEPT_LINK_LAYER_ADDRESSING */
 497              		.loc 1 599 7 view .LVU166
 498 00c6 0028     		cmp	r0, #0
 499 00c8 40D1     		bne	.L65
 500              	.L46:
 618:/Users/nhantt/STM32Cube/Repository/STM32Cube_FW_F4_V1.26.0/Middlewares/Third_Party/LwIP/src/core/ipv4/ip4.c ****     /* packet not for us, route or discard */
 501              		.loc 1 618 3 is_stmt 1 view .LVU167
 618:/Users/nhantt/STM32Cube/Repository/STM32Cube_FW_F4_V1.26.0/Middlewares/Third_Party/LwIP/src/core/ipv4/ip4.c ****     /* packet not for us, route or discard */
 502              		.loc 1 618 6 is_stmt 0 view .LVU168
 503 00ca 002D     		cmp	r5, #0
 504 00cc 4CD0     		beq	.L66
 637:/Users/nhantt/STM32Cube/Repository/STM32Cube_FW_F4_V1.26.0/Middlewares/Third_Party/LwIP/src/core/ipv4/ip4.c **** #if IP_REASSEMBLY /* packet fragment reassembly code present? */
 505              		.loc 1 637 3 is_stmt 1 view .LVU169
 637:/Users/nhantt/STM32Cube/Repository/STM32Cube_FW_F4_V1.26.0/Middlewares/Third_Party/LwIP/src/core/ipv4/ip4.c **** #if IP_REASSEMBLY /* packet fragment reassembly code present? */
 506              		.loc 1 637 8 is_stmt 0 view .LVU170
 507 00ce B8F80630 		ldrh	r3, [r8, #6]	@ unaligned
 637:/Users/nhantt/STM32Cube/Repository/STM32Cube_FW_F4_V1.26.0/Middlewares/Third_Party/LwIP/src/core/ipv4/ip4.c **** #if IP_REASSEMBLY /* packet fragment reassembly code present? */
 508              		.loc 1 637 6 view .LVU171
 509 00d2 23F0C003 		bic	r3, r3, #192
 510 00d6 9BB2     		uxth	r3, r3
 511 00d8 3BB1     		cbz	r3, .L49
 640:/Users/nhantt/STM32Cube/Repository/STM32Cube_FW_F4_V1.26.0/Middlewares/Third_Party/LwIP/src/core/ipv4/ip4.c ****     /* reassemble the packet*/
 512              		.loc 1 640 202 is_stmt 1 view .LVU172
 642:/Users/nhantt/STM32Cube/Repository/STM32Cube_FW_F4_V1.26.0/Middlewares/Third_Party/LwIP/src/core/ipv4/ip4.c ****     /* packet not fully reassembled yet? */
 513              		.loc 1 642 5 view .LVU173
 642:/Users/nhantt/STM32Cube/Repository/STM32Cube_FW_F4_V1.26.0/Middlewares/Third_Party/LwIP/src/core/ipv4/ip4.c ****     /* packet not fully reassembled yet? */
 514              		.loc 1 642 9 is_stmt 0 view .LVU174
 515 00da 2046     		mov	r0, r4
 516 00dc FFF7FEFF 		bl	ip4_reass
 517              	.LVL38:
 644:/Users/nhantt/STM32Cube/Repository/STM32Cube_FW_F4_V1.26.0/Middlewares/Third_Party/LwIP/src/core/ipv4/ip4.c ****       return ERR_OK;
 518              		.loc 1 644 5 is_stmt 1 view .LVU175
 644:/Users/nhantt/STM32Cube/Repository/STM32Cube_FW_F4_V1.26.0/Middlewares/Third_Party/LwIP/src/core/ipv4/ip4.c ****       return ERR_OK;
 519              		.loc 1 644 8 is_stmt 0 view .LVU176
 520 00e0 0446     		mov	r4, r0
 521 00e2 0028     		cmp	r0, #0
 522 00e4 98D0     		beq	.L35
 647:/Users/nhantt/STM32Cube/Repository/STM32Cube_FW_F4_V1.26.0/Middlewares/Third_Party/LwIP/src/core/ipv4/ip4.c **** #else /* IP_REASSEMBLY == 0, no packet fragment reassembly code present */
 523              		.loc 1 647 5 is_stmt 1 view .LVU177
 647:/Users/nhantt/STM32Cube/Repository/STM32Cube_FW_F4_V1.26.0/Middlewares/Third_Party/LwIP/src/core/ipv4/ip4.c **** #else /* IP_REASSEMBLY == 0, no packet fragment reassembly code present */
 524              		.loc 1 647 11 is_stmt 0 view .LVU178
 525 00e6 D0F80480 		ldr	r8, [r0, #4]
 526              	.LVL39:
 527              	.L49:
 679:/Users/nhantt/STM32Cube/Repository/STM32Cube_FW_F4_V1.26.0/Middlewares/Third_Party/LwIP/src/core/ipv4/ip4.c ****   ip4_debug_print(p);
 528              		.loc 1 679 43 is_stmt 1 view .LVU179
 680:/Users/nhantt/STM32Cube/Repository/STM32Cube_FW_F4_V1.26.0/Middlewares/Third_Party/LwIP/src/core/ipv4/ip4.c ****   LWIP_DEBUGF(IP_DEBUG, ("ip4_input: p->len %"U16_F" p->tot_len %"U16_F"\n", p->len, p->tot_len));
 529              		.loc 1 680 21 view .LVU180
 681:/Users/nhantt/STM32Cube/Repository/STM32Cube_FW_F4_V1.26.0/Middlewares/Third_Party/LwIP/src/core/ipv4/ip4.c **** 
ARM GAS  /var/folders/k2/cd9bl_j17z77g23y6ffqb_400000gn/T//ccJwgoEp.s 			page 26


 530              		.loc 1 681 98 view .LVU181
 683:/Users/nhantt/STM32Cube/Repository/STM32Cube_FW_F4_V1.26.0/Middlewares/Third_Party/LwIP/src/core/ipv4/ip4.c ****   ip_data.current_input_netif = inp;
 531              		.loc 1 683 3 view .LVU182
 683:/Users/nhantt/STM32Cube/Repository/STM32Cube_FW_F4_V1.26.0/Middlewares/Third_Party/LwIP/src/core/ipv4/ip4.c ****   ip_data.current_input_netif = inp;
 532              		.loc 1 683 25 is_stmt 0 view .LVU183
 533 00ea 314A     		ldr	r2, .L69
 534 00ec 1560     		str	r5, [r2]
 684:/Users/nhantt/STM32Cube/Repository/STM32Cube_FW_F4_V1.26.0/Middlewares/Third_Party/LwIP/src/core/ipv4/ip4.c ****   ip_data.current_ip4_header = iphdr;
 535              		.loc 1 684 3 is_stmt 1 view .LVU184
 684:/Users/nhantt/STM32Cube/Repository/STM32Cube_FW_F4_V1.26.0/Middlewares/Third_Party/LwIP/src/core/ipv4/ip4.c ****   ip_data.current_ip4_header = iphdr;
 536              		.loc 1 684 31 is_stmt 0 view .LVU185
 537 00ee 5760     		str	r7, [r2, #4]
 685:/Users/nhantt/STM32Cube/Repository/STM32Cube_FW_F4_V1.26.0/Middlewares/Third_Party/LwIP/src/core/ipv4/ip4.c ****   ip_data.current_ip_header_tot_len = IPH_HL_BYTES(iphdr);
 538              		.loc 1 685 3 is_stmt 1 view .LVU186
 685:/Users/nhantt/STM32Cube/Repository/STM32Cube_FW_F4_V1.26.0/Middlewares/Third_Party/LwIP/src/core/ipv4/ip4.c ****   ip_data.current_ip_header_tot_len = IPH_HL_BYTES(iphdr);
 539              		.loc 1 685 30 is_stmt 0 view .LVU187
 540 00f0 C2F80880 		str	r8, [r2, #8]
 686:/Users/nhantt/STM32Cube/Repository/STM32Cube_FW_F4_V1.26.0/Middlewares/Third_Party/LwIP/src/core/ipv4/ip4.c **** 
 541              		.loc 1 686 3 is_stmt 1 view .LVU188
 686:/Users/nhantt/STM32Cube/Repository/STM32Cube_FW_F4_V1.26.0/Middlewares/Third_Party/LwIP/src/core/ipv4/ip4.c **** 
 542              		.loc 1 686 39 is_stmt 0 view .LVU189
 543 00f4 98F80030 		ldrb	r3, [r8]	@ zero_extendqisi2
 544 00f8 03F00F03 		and	r3, r3, #15
 545 00fc 9B00     		lsls	r3, r3, #2
 686:/Users/nhantt/STM32Cube/Repository/STM32Cube_FW_F4_V1.26.0/Middlewares/Third_Party/LwIP/src/core/ipv4/ip4.c **** 
 546              		.loc 1 686 37 view .LVU190
 547 00fe 9381     		strh	r3, [r2, #12]	@ movhi
 694:/Users/nhantt/STM32Cube/Repository/STM32Cube_FW_F4_V1.26.0/Middlewares/Third_Party/LwIP/src/core/ipv4/ip4.c **** 
 548              		.loc 1 694 5 is_stmt 1 view .LVU191
 549 0100 4946     		mov	r1, r9
 550 0102 2046     		mov	r0, r4
 551 0104 FFF7FEFF 		bl	pbuf_remove_header
 552              	.LVL40:
 696:/Users/nhantt/STM32Cube/Repository/STM32Cube_FW_F4_V1.26.0/Middlewares/Third_Party/LwIP/src/core/ipv4/ip4.c **** #if LWIP_UDP
 553              		.loc 1 696 5 view .LVU192
 696:/Users/nhantt/STM32Cube/Repository/STM32Cube_FW_F4_V1.26.0/Middlewares/Third_Party/LwIP/src/core/ipv4/ip4.c **** #if LWIP_UDP
 554              		.loc 1 696 13 is_stmt 0 view .LVU193
 555 0108 98F80930 		ldrb	r3, [r8, #9]	@ zero_extendqisi2
 696:/Users/nhantt/STM32Cube/Repository/STM32Cube_FW_F4_V1.26.0/Middlewares/Third_Party/LwIP/src/core/ipv4/ip4.c **** #if LWIP_UDP
 556              		.loc 1 696 5 view .LVU194
 557 010c 062B     		cmp	r3, #6
 558 010e 3CD0     		beq	.L50
 696:/Users/nhantt/STM32Cube/Repository/STM32Cube_FW_F4_V1.26.0/Middlewares/Third_Party/LwIP/src/core/ipv4/ip4.c **** #if LWIP_UDP
 559              		.loc 1 696 5 view .LVU195
 560 0110 112B     		cmp	r3, #17
 561 0112 2DD0     		beq	.L51
 562 0114 012B     		cmp	r3, #1
 563 0116 3DD0     		beq	.L67
 732:/Users/nhantt/STM32Cube/Repository/STM32Cube_FW_F4_V1.26.0/Middlewares/Third_Party/LwIP/src/core/ipv4/ip4.c ****               !ip4_addr_ismulticast(ip4_current_dest_addr())) {
 564              		.loc 1 732 11 is_stmt 1 view .LVU196
 732:/Users/nhantt/STM32Cube/Repository/STM32Cube_FW_F4_V1.26.0/Middlewares/Third_Party/LwIP/src/core/ipv4/ip4.c ****               !ip4_addr_ismulticast(ip4_current_dest_addr())) {
 565              		.loc 1 732 16 is_stmt 0 view .LVU197
 566 0118 2946     		mov	r1, r5
 567 011a 254B     		ldr	r3, .L69
 568 011c 5869     		ldr	r0, [r3, #20]
 569 011e FFF7FEFF 		bl	ip4_addr_isbroadcast_u32
 570              	.LVL41:
ARM GAS  /var/folders/k2/cd9bl_j17z77g23y6ffqb_400000gn/T//ccJwgoEp.s 			page 27


 732:/Users/nhantt/STM32Cube/Repository/STM32Cube_FW_F4_V1.26.0/Middlewares/Third_Party/LwIP/src/core/ipv4/ip4.c ****               !ip4_addr_ismulticast(ip4_current_dest_addr())) {
 571              		.loc 1 732 14 view .LVU198
 572 0122 28B9     		cbnz	r0, .L55
 733:/Users/nhantt/STM32Cube/Repository/STM32Cube_FW_F4_V1.26.0/Middlewares/Third_Party/LwIP/src/core/ipv4/ip4.c ****             pbuf_header_force(p, (s16_t)iphdr_hlen); /* Move to ip header, no check necessary. */
 573              		.loc 1 733 16 discriminator 1 view .LVU199
 574 0124 224B     		ldr	r3, .L69
 575 0126 5B69     		ldr	r3, [r3, #20]
 576 0128 03F0F003 		and	r3, r3, #240
 732:/Users/nhantt/STM32Cube/Repository/STM32Cube_FW_F4_V1.26.0/Middlewares/Third_Party/LwIP/src/core/ipv4/ip4.c ****               !ip4_addr_ismulticast(ip4_current_dest_addr())) {
 577              		.loc 1 732 69 discriminator 1 view .LVU200
 578 012c E02B     		cmp	r3, #224
 579 012e 36D1     		bne	.L68
 580              	.L55:
 739:/Users/nhantt/STM32Cube/Repository/STM32Cube_FW_F4_V1.26.0/Middlewares/Third_Party/LwIP/src/core/ipv4/ip4.c **** 
 581              		.loc 1 739 129 is_stmt 1 view .LVU201
 741:/Users/nhantt/STM32Cube/Repository/STM32Cube_FW_F4_V1.26.0/Middlewares/Third_Party/LwIP/src/core/ipv4/ip4.c ****           IP_STATS_INC(ip.drop);
 582              		.loc 1 741 35 view .LVU202
 742:/Users/nhantt/STM32Cube/Repository/STM32Cube_FW_F4_V1.26.0/Middlewares/Third_Party/LwIP/src/core/ipv4/ip4.c ****           MIB2_STATS_INC(mib2.ipinunknownprotos);
 583              		.loc 1 742 32 view .LVU203
 743:/Users/nhantt/STM32Cube/Repository/STM32Cube_FW_F4_V1.26.0/Middlewares/Third_Party/LwIP/src/core/ipv4/ip4.c ****         }
 584              		.loc 1 743 49 view .LVU204
 745:/Users/nhantt/STM32Cube/Repository/STM32Cube_FW_F4_V1.26.0/Middlewares/Third_Party/LwIP/src/core/ipv4/ip4.c ****         break;
 585              		.loc 1 745 9 view .LVU205
 586 0130 2046     		mov	r0, r4
 587 0132 FFF7FEFF 		bl	pbuf_free
 588              	.LVL42:
 746:/Users/nhantt/STM32Cube/Repository/STM32Cube_FW_F4_V1.26.0/Middlewares/Third_Party/LwIP/src/core/ipv4/ip4.c ****     }
 589              		.loc 1 746 9 view .LVU206
 590 0136 1FE0     		b	.L54
 591              	.LVL43:
 592              	.L59:
 546:/Users/nhantt/STM32Cube/Repository/STM32Cube_FW_F4_V1.26.0/Middlewares/Third_Party/LwIP/src/core/ipv4/ip4.c **** #if !LWIP_NETIF_LOOPBACK || LWIP_HAVE_LOOPIF
 593              		.loc 1 546 13 is_stmt 0 view .LVU207
 594 0138 0025     		movs	r5, #0
 595 013a BEE7     		b	.L40
 596              	.LVL44:
 597              	.L64:
 598              	.LBB2:
 582:/Users/nhantt/STM32Cube/Repository/STM32Cube_FW_F4_V1.26.0/Middlewares/Third_Party/LwIP/src/core/ipv4/ip4.c ****       LWIP_DEBUGF(IP_DEBUG | LWIP_DBG_TRACE, ("ip4_input: UDP packet to DHCP client port %"U16_F"\n
 599              		.loc 1 582 7 is_stmt 1 view .LVU208
 582:/Users/nhantt/STM32Cube/Repository/STM32Cube_FW_F4_V1.26.0/Middlewares/Third_Party/LwIP/src/core/ipv4/ip4.c ****       LWIP_DEBUGF(IP_DEBUG | LWIP_DBG_TRACE, ("ip4_input: UDP packet to DHCP client port %"U16_F"\n
 600              		.loc 1 582 29 is_stmt 0 view .LVU209
 601 013c 08EB0903 		add	r3, r8, r9
 602              	.LVL45:
 584:/Users/nhantt/STM32Cube/Repository/STM32Cube_FW_F4_V1.26.0/Middlewares/Third_Party/LwIP/src/core/ipv4/ip4.c ****       if (IP_ACCEPT_LINK_LAYER_ADDRESSED_PORT(udphdr->dest)) {
 603              		.loc 1 584 73 is_stmt 1 view .LVU210
 585:/Users/nhantt/STM32Cube/Repository/STM32Cube_FW_F4_V1.26.0/Middlewares/Third_Party/LwIP/src/core/ipv4/ip4.c ****         LWIP_DEBUGF(IP_DEBUG | LWIP_DBG_TRACE, ("ip4_input: DHCP packet accepted.\n"));
 604              		.loc 1 585 7 view .LVU211
 585:/Users/nhantt/STM32Cube/Repository/STM32Cube_FW_F4_V1.26.0/Middlewares/Third_Party/LwIP/src/core/ipv4/ip4.c ****         LWIP_DEBUGF(IP_DEBUG | LWIP_DBG_TRACE, ("ip4_input: DHCP packet accepted.\n"));
 605              		.loc 1 585 11 is_stmt 0 view .LVU212
 606 0140 5B88     		ldrh	r3, [r3, #2]	@ unaligned
 607              	.LVL46:
 585:/Users/nhantt/STM32Cube/Repository/STM32Cube_FW_F4_V1.26.0/Middlewares/Third_Party/LwIP/src/core/ipv4/ip4.c ****         LWIP_DEBUGF(IP_DEBUG | LWIP_DBG_TRACE, ("ip4_input: DHCP packet accepted.\n"));
 608              		.loc 1 585 10 view .LVU213
 609 0142 B3F5884F 		cmp	r3, #17408
 610 0146 BCD1     		bne	.L45
 587:/Users/nhantt/STM32Cube/Repository/STM32Cube_FW_F4_V1.26.0/Middlewares/Third_Party/LwIP/src/core/ipv4/ip4.c ****         check_ip_src = 0;
ARM GAS  /var/folders/k2/cd9bl_j17z77g23y6ffqb_400000gn/T//ccJwgoEp.s 			page 28


 611              		.loc 1 587 15 view .LVU214
 612 0148 3D46     		mov	r5, r7
 613 014a BEE7     		b	.L46
 614              	.LVL47:
 615              	.L65:
 587:/Users/nhantt/STM32Cube/Repository/STM32Cube_FW_F4_V1.26.0/Middlewares/Third_Party/LwIP/src/core/ipv4/ip4.c ****         check_ip_src = 0;
 616              		.loc 1 587 15 view .LVU215
 617              	.LBE2:
 604:/Users/nhantt/STM32Cube/Repository/STM32Cube_FW_F4_V1.26.0/Middlewares/Third_Party/LwIP/src/core/ipv4/ip4.c ****         (ip4_addr_ismulticast(ip4_current_src_addr()))) {
 618              		.loc 1 604 5 is_stmt 1 view .LVU216
 604:/Users/nhantt/STM32Cube/Repository/STM32Cube_FW_F4_V1.26.0/Middlewares/Third_Party/LwIP/src/core/ipv4/ip4.c ****         (ip4_addr_ismulticast(ip4_current_src_addr()))) {
 619              		.loc 1 604 10 is_stmt 0 view .LVU217
 620 014c 3946     		mov	r1, r7
 621 014e FFF7FEFF 		bl	ip4_addr_isbroadcast_u32
 622              	.LVL48:
 604:/Users/nhantt/STM32Cube/Repository/STM32Cube_FW_F4_V1.26.0/Middlewares/Third_Party/LwIP/src/core/ipv4/ip4.c ****         (ip4_addr_ismulticast(ip4_current_src_addr()))) {
 623              		.loc 1 604 8 view .LVU218
 624 0152 28B9     		cbnz	r0, .L47
 605:/Users/nhantt/STM32Cube/Repository/STM32Cube_FW_F4_V1.26.0/Middlewares/Third_Party/LwIP/src/core/ipv4/ip4.c ****       /* packet source is not valid */
 625              		.loc 1 605 10 discriminator 1 view .LVU219
 626 0154 164B     		ldr	r3, .L69
 627 0156 1B69     		ldr	r3, [r3, #16]
 628 0158 03F0F003 		and	r3, r3, #240
 604:/Users/nhantt/STM32Cube/Repository/STM32Cube_FW_F4_V1.26.0/Middlewares/Third_Party/LwIP/src/core/ipv4/ip4.c ****         (ip4_addr_ismulticast(ip4_current_src_addr()))) {
 629              		.loc 1 604 61 discriminator 1 view .LVU220
 630 015c E02B     		cmp	r3, #224
 631 015e B4D1     		bne	.L46
 632              	.L47:
 607:/Users/nhantt/STM32Cube/Repository/STM32Cube_FW_F4_V1.26.0/Middlewares/Third_Party/LwIP/src/core/ipv4/ip4.c ****       /* free (drop) packet pbufs */
 633              		.loc 1 607 116 is_stmt 1 view .LVU221
 609:/Users/nhantt/STM32Cube/Repository/STM32Cube_FW_F4_V1.26.0/Middlewares/Third_Party/LwIP/src/core/ipv4/ip4.c ****       IP_STATS_INC(ip.drop);
 634              		.loc 1 609 7 view .LVU222
 635 0160 2046     		mov	r0, r4
 636 0162 FFF7FEFF 		bl	pbuf_free
 637              	.LVL49:
 610:/Users/nhantt/STM32Cube/Repository/STM32Cube_FW_F4_V1.26.0/Middlewares/Third_Party/LwIP/src/core/ipv4/ip4.c ****       MIB2_STATS_INC(mib2.ipinaddrerrors);
 638              		.loc 1 610 28 view .LVU223
 611:/Users/nhantt/STM32Cube/Repository/STM32Cube_FW_F4_V1.26.0/Middlewares/Third_Party/LwIP/src/core/ipv4/ip4.c ****       MIB2_STATS_INC(mib2.ipindiscards);
 639              		.loc 1 611 42 view .LVU224
 612:/Users/nhantt/STM32Cube/Repository/STM32Cube_FW_F4_V1.26.0/Middlewares/Third_Party/LwIP/src/core/ipv4/ip4.c ****       return ERR_OK;
 640              		.loc 1 612 40 view .LVU225
 613:/Users/nhantt/STM32Cube/Repository/STM32Cube_FW_F4_V1.26.0/Middlewares/Third_Party/LwIP/src/core/ipv4/ip4.c ****     }
 641              		.loc 1 613 7 view .LVU226
 613:/Users/nhantt/STM32Cube/Repository/STM32Cube_FW_F4_V1.26.0/Middlewares/Third_Party/LwIP/src/core/ipv4/ip4.c ****     }
 642              		.loc 1 613 14 is_stmt 0 view .LVU227
 643 0166 57E7     		b	.L35
 644              	.L66:
 620:/Users/nhantt/STM32Cube/Repository/STM32Cube_FW_F4_V1.26.0/Middlewares/Third_Party/LwIP/src/core/ipv4/ip4.c **** #if IP_FORWARD
 645              		.loc 1 620 80 is_stmt 1 view .LVU228
 629:/Users/nhantt/STM32Cube/Repository/STM32Cube_FW_F4_V1.26.0/Middlewares/Third_Party/LwIP/src/core/ipv4/ip4.c ****       MIB2_STATS_INC(mib2.ipinaddrerrors);
 646              		.loc 1 629 28 view .LVU229
 630:/Users/nhantt/STM32Cube/Repository/STM32Cube_FW_F4_V1.26.0/Middlewares/Third_Party/LwIP/src/core/ipv4/ip4.c ****       MIB2_STATS_INC(mib2.ipindiscards);
 647              		.loc 1 630 42 view .LVU230
 631:/Users/nhantt/STM32Cube/Repository/STM32Cube_FW_F4_V1.26.0/Middlewares/Third_Party/LwIP/src/core/ipv4/ip4.c ****     }
 648              		.loc 1 631 40 view .LVU231
 633:/Users/nhantt/STM32Cube/Repository/STM32Cube_FW_F4_V1.26.0/Middlewares/Third_Party/LwIP/src/core/ipv4/ip4.c ****     return ERR_OK;
 649              		.loc 1 633 5 view .LVU232
ARM GAS  /var/folders/k2/cd9bl_j17z77g23y6ffqb_400000gn/T//ccJwgoEp.s 			page 29


 650 0168 2046     		mov	r0, r4
 651 016a FFF7FEFF 		bl	pbuf_free
 652              	.LVL50:
 634:/Users/nhantt/STM32Cube/Repository/STM32Cube_FW_F4_V1.26.0/Middlewares/Third_Party/LwIP/src/core/ipv4/ip4.c ****   }
 653              		.loc 1 634 5 view .LVU233
 634:/Users/nhantt/STM32Cube/Repository/STM32Cube_FW_F4_V1.26.0/Middlewares/Third_Party/LwIP/src/core/ipv4/ip4.c ****   }
 654              		.loc 1 634 12 is_stmt 0 view .LVU234
 655 016e 53E7     		b	.L35
 656              	.L51:
 702:/Users/nhantt/STM32Cube/Repository/STM32Cube_FW_F4_V1.26.0/Middlewares/Third_Party/LwIP/src/core/ipv4/ip4.c ****         udp_input(p, inp);
 657              		.loc 1 702 42 is_stmt 1 view .LVU235
 703:/Users/nhantt/STM32Cube/Repository/STM32Cube_FW_F4_V1.26.0/Middlewares/Third_Party/LwIP/src/core/ipv4/ip4.c ****         break;
 658              		.loc 1 703 9 view .LVU236
 659 0170 3946     		mov	r1, r7
 660 0172 2046     		mov	r0, r4
 661 0174 FFF7FEFF 		bl	udp_input
 662              	.LVL51:
 704:/Users/nhantt/STM32Cube/Repository/STM32Cube_FW_F4_V1.26.0/Middlewares/Third_Party/LwIP/src/core/ipv4/ip4.c **** #endif /* LWIP_UDP */
 663              		.loc 1 704 9 view .LVU237
 664              	.L54:
 751:/Users/nhantt/STM32Cube/Repository/STM32Cube_FW_F4_V1.26.0/Middlewares/Third_Party/LwIP/src/core/ipv4/ip4.c ****   ip_data.current_input_netif = NULL;
 665              		.loc 1 751 3 view .LVU238
 751:/Users/nhantt/STM32Cube/Repository/STM32Cube_FW_F4_V1.26.0/Middlewares/Third_Party/LwIP/src/core/ipv4/ip4.c ****   ip_data.current_input_netif = NULL;
 666              		.loc 1 751 25 is_stmt 0 view .LVU239
 667 0178 0D4B     		ldr	r3, .L69
 668 017a 0022     		movs	r2, #0
 669 017c 1A60     		str	r2, [r3]
 752:/Users/nhantt/STM32Cube/Repository/STM32Cube_FW_F4_V1.26.0/Middlewares/Third_Party/LwIP/src/core/ipv4/ip4.c ****   ip_data.current_ip4_header = NULL;
 670              		.loc 1 752 3 is_stmt 1 view .LVU240
 752:/Users/nhantt/STM32Cube/Repository/STM32Cube_FW_F4_V1.26.0/Middlewares/Third_Party/LwIP/src/core/ipv4/ip4.c ****   ip_data.current_ip4_header = NULL;
 671              		.loc 1 752 31 is_stmt 0 view .LVU241
 672 017e 5A60     		str	r2, [r3, #4]
 753:/Users/nhantt/STM32Cube/Repository/STM32Cube_FW_F4_V1.26.0/Middlewares/Third_Party/LwIP/src/core/ipv4/ip4.c ****   ip_data.current_ip_header_tot_len = 0;
 673              		.loc 1 753 3 is_stmt 1 view .LVU242
 753:/Users/nhantt/STM32Cube/Repository/STM32Cube_FW_F4_V1.26.0/Middlewares/Third_Party/LwIP/src/core/ipv4/ip4.c ****   ip_data.current_ip_header_tot_len = 0;
 674              		.loc 1 753 30 is_stmt 0 view .LVU243
 675 0180 9A60     		str	r2, [r3, #8]
 754:/Users/nhantt/STM32Cube/Repository/STM32Cube_FW_F4_V1.26.0/Middlewares/Third_Party/LwIP/src/core/ipv4/ip4.c ****   ip4_addr_set_any(ip4_current_src_addr());
 676              		.loc 1 754 3 is_stmt 1 view .LVU244
 754:/Users/nhantt/STM32Cube/Repository/STM32Cube_FW_F4_V1.26.0/Middlewares/Third_Party/LwIP/src/core/ipv4/ip4.c ****   ip4_addr_set_any(ip4_current_src_addr());
 677              		.loc 1 754 37 is_stmt 0 view .LVU245
 678 0182 9A81     		strh	r2, [r3, #12]	@ movhi
 755:/Users/nhantt/STM32Cube/Repository/STM32Cube_FW_F4_V1.26.0/Middlewares/Third_Party/LwIP/src/core/ipv4/ip4.c ****   ip4_addr_set_any(ip4_current_dest_addr());
 679              		.loc 1 755 3 is_stmt 1 view .LVU246
 680 0184 1A61     		str	r2, [r3, #16]
 756:/Users/nhantt/STM32Cube/Repository/STM32Cube_FW_F4_V1.26.0/Middlewares/Third_Party/LwIP/src/core/ipv4/ip4.c **** 
 681              		.loc 1 756 3 view .LVU247
 682 0186 5A61     		str	r2, [r3, #20]
 758:/Users/nhantt/STM32Cube/Repository/STM32Cube_FW_F4_V1.26.0/Middlewares/Third_Party/LwIP/src/core/ipv4/ip4.c **** }
 683              		.loc 1 758 3 view .LVU248
 758:/Users/nhantt/STM32Cube/Repository/STM32Cube_FW_F4_V1.26.0/Middlewares/Third_Party/LwIP/src/core/ipv4/ip4.c **** }
 684              		.loc 1 758 10 is_stmt 0 view .LVU249
 685 0188 46E7     		b	.L35
 686              	.L50:
 708:/Users/nhantt/STM32Cube/Repository/STM32Cube_FW_F4_V1.26.0/Middlewares/Third_Party/LwIP/src/core/ipv4/ip4.c ****         tcp_input(p, inp);
 687              		.loc 1 708 42 is_stmt 1 view .LVU250
 709:/Users/nhantt/STM32Cube/Repository/STM32Cube_FW_F4_V1.26.0/Middlewares/Third_Party/LwIP/src/core/ipv4/ip4.c ****         break;
ARM GAS  /var/folders/k2/cd9bl_j17z77g23y6ffqb_400000gn/T//ccJwgoEp.s 			page 30


 688              		.loc 1 709 9 view .LVU251
 689 018a 3946     		mov	r1, r7
 690 018c 2046     		mov	r0, r4
 691 018e FFF7FEFF 		bl	tcp_input
 692              	.LVL52:
 710:/Users/nhantt/STM32Cube/Repository/STM32Cube_FW_F4_V1.26.0/Middlewares/Third_Party/LwIP/src/core/ipv4/ip4.c **** #endif /* LWIP_TCP */
 693              		.loc 1 710 9 view .LVU252
 694 0192 F1E7     		b	.L54
 695              	.L67:
 714:/Users/nhantt/STM32Cube/Repository/STM32Cube_FW_F4_V1.26.0/Middlewares/Third_Party/LwIP/src/core/ipv4/ip4.c ****         icmp_input(p, inp);
 696              		.loc 1 714 42 view .LVU253
 715:/Users/nhantt/STM32Cube/Repository/STM32Cube_FW_F4_V1.26.0/Middlewares/Third_Party/LwIP/src/core/ipv4/ip4.c ****         break;
 697              		.loc 1 715 9 view .LVU254
 698 0194 3946     		mov	r1, r7
 699 0196 2046     		mov	r0, r4
 700 0198 FFF7FEFF 		bl	icmp_input
 701              	.LVL53:
 716:/Users/nhantt/STM32Cube/Repository/STM32Cube_FW_F4_V1.26.0/Middlewares/Third_Party/LwIP/src/core/ipv4/ip4.c **** #endif /* LWIP_ICMP */
 702              		.loc 1 716 9 view .LVU255
 703 019c ECE7     		b	.L54
 704              	.L68:
 734:/Users/nhantt/STM32Cube/Repository/STM32Cube_FW_F4_V1.26.0/Middlewares/Third_Party/LwIP/src/core/ipv4/ip4.c ****             icmp_dest_unreach(p, ICMP_DUR_PROTO);
 705              		.loc 1 734 13 view .LVU256
 706 019e 4946     		mov	r1, r9
 707 01a0 2046     		mov	r0, r4
 708 01a2 FFF7FEFF 		bl	pbuf_header_force
 709              	.LVL54:
 735:/Users/nhantt/STM32Cube/Repository/STM32Cube_FW_F4_V1.26.0/Middlewares/Third_Party/LwIP/src/core/ipv4/ip4.c ****           }
 710              		.loc 1 735 13 view .LVU257
 711 01a6 0221     		movs	r1, #2
 712 01a8 2046     		mov	r0, r4
 713 01aa FFF7FEFF 		bl	icmp_dest_unreach
 714              	.LVL55:
 715 01ae BFE7     		b	.L55
 716              	.L70:
 717              		.align	2
 718              	.L69:
 719 01b0 00000000 		.word	ip_data
 720 01b4 00000000 		.word	netif_list
 721              		.cfi_endproc
 722              	.LFE157:
 724              		.section	.rodata.ip4_output_if_src.str1.4,"aMS",%progbits,1
 725              		.align	2
 726              	.LC0:
 727 0000 2F557365 		.ascii	"/Users/nhantt/STM32Cube/Repository/STM32Cube_FW_F4_"
 727      72732F6E 
 727      68616E74 
 727      742F5354 
 727      4D333243 
 728 0033 56312E32 		.ascii	"V1.26.0/Middlewares/Third_Party/LwIP/src/core/ipv4/"
 728      362E302F 
 728      4D696464 
 728      6C657761 
 728      7265732F 
 729 0066 6970342E 		.ascii	"ip4.c\000"
 729      6300
 730              		.align	2
ARM GAS  /var/folders/k2/cd9bl_j17z77g23y6ffqb_400000gn/T//ccJwgoEp.s 			page 31


 731              	.LC1:
 732 006c 702D3E72 		.ascii	"p->ref == 1\000"
 732      6566203D 
 732      3D203100 
 733              		.align	2
 734              	.LC2:
 735 0078 41737365 		.ascii	"Assertion \"%s\" failed at line %d in %s\012\000"
 735      7274696F 
 735      6E202225 
 735      73222066 
 735      61696C65 
 736              		.align	2
 737              	.LC3:
 738 00a0 63686563 		.ascii	"check that first pbuf can hold struct ip_hdr\000"
 738      6B207468 
 738      61742066 
 738      69727374 
 738      20706275 
 739              		.section	.text.ip4_output_if_src,"ax",%progbits
 740              		.align	1
 741              		.global	ip4_output_if_src
 742              		.syntax unified
 743              		.thumb
 744              		.thumb_func
 745              		.fpu fpv4-sp-d16
 747              	ip4_output_if_src:
 748              	.LVL56:
 749              	.LFB159:
 760:/Users/nhantt/STM32Cube/Repository/STM32Cube_FW_F4_V1.26.0/Middlewares/Third_Party/LwIP/src/core/ipv4/ip4.c **** 
 761:/Users/nhantt/STM32Cube/Repository/STM32Cube_FW_F4_V1.26.0/Middlewares/Third_Party/LwIP/src/core/ipv4/ip4.c **** /**
 762:/Users/nhantt/STM32Cube/Repository/STM32Cube_FW_F4_V1.26.0/Middlewares/Third_Party/LwIP/src/core/ipv4/ip4.c ****  * Sends an IP packet on a network interface. This function constructs
 763:/Users/nhantt/STM32Cube/Repository/STM32Cube_FW_F4_V1.26.0/Middlewares/Third_Party/LwIP/src/core/ipv4/ip4.c ****  * the IP header and calculates the IP header checksum. If the source
 764:/Users/nhantt/STM32Cube/Repository/STM32Cube_FW_F4_V1.26.0/Middlewares/Third_Party/LwIP/src/core/ipv4/ip4.c ****  * IP address is NULL, the IP address of the outgoing network
 765:/Users/nhantt/STM32Cube/Repository/STM32Cube_FW_F4_V1.26.0/Middlewares/Third_Party/LwIP/src/core/ipv4/ip4.c ****  * interface is filled in as source address.
 766:/Users/nhantt/STM32Cube/Repository/STM32Cube_FW_F4_V1.26.0/Middlewares/Third_Party/LwIP/src/core/ipv4/ip4.c ****  * If the destination IP address is LWIP_IP_HDRINCL, p is assumed to already
 767:/Users/nhantt/STM32Cube/Repository/STM32Cube_FW_F4_V1.26.0/Middlewares/Third_Party/LwIP/src/core/ipv4/ip4.c ****  * include an IP header and p->payload points to it instead of the data.
 768:/Users/nhantt/STM32Cube/Repository/STM32Cube_FW_F4_V1.26.0/Middlewares/Third_Party/LwIP/src/core/ipv4/ip4.c ****  *
 769:/Users/nhantt/STM32Cube/Repository/STM32Cube_FW_F4_V1.26.0/Middlewares/Third_Party/LwIP/src/core/ipv4/ip4.c ****  * @param p the packet to send (p->payload points to the data, e.g. next
 770:/Users/nhantt/STM32Cube/Repository/STM32Cube_FW_F4_V1.26.0/Middlewares/Third_Party/LwIP/src/core/ipv4/ip4.c ****             protocol header; if dest == LWIP_IP_HDRINCL, p already includes an
 771:/Users/nhantt/STM32Cube/Repository/STM32Cube_FW_F4_V1.26.0/Middlewares/Third_Party/LwIP/src/core/ipv4/ip4.c ****             IP header and p->payload points to that IP header)
 772:/Users/nhantt/STM32Cube/Repository/STM32Cube_FW_F4_V1.26.0/Middlewares/Third_Party/LwIP/src/core/ipv4/ip4.c ****  * @param src the source IP address to send from (if src == IP4_ADDR_ANY, the
 773:/Users/nhantt/STM32Cube/Repository/STM32Cube_FW_F4_V1.26.0/Middlewares/Third_Party/LwIP/src/core/ipv4/ip4.c ****  *         IP  address of the netif used to send is used as source address)
 774:/Users/nhantt/STM32Cube/Repository/STM32Cube_FW_F4_V1.26.0/Middlewares/Third_Party/LwIP/src/core/ipv4/ip4.c ****  * @param dest the destination IP address to send the packet to
 775:/Users/nhantt/STM32Cube/Repository/STM32Cube_FW_F4_V1.26.0/Middlewares/Third_Party/LwIP/src/core/ipv4/ip4.c ****  * @param ttl the TTL value to be set in the IP header
 776:/Users/nhantt/STM32Cube/Repository/STM32Cube_FW_F4_V1.26.0/Middlewares/Third_Party/LwIP/src/core/ipv4/ip4.c ****  * @param tos the TOS value to be set in the IP header
 777:/Users/nhantt/STM32Cube/Repository/STM32Cube_FW_F4_V1.26.0/Middlewares/Third_Party/LwIP/src/core/ipv4/ip4.c ****  * @param proto the PROTOCOL to be set in the IP header
 778:/Users/nhantt/STM32Cube/Repository/STM32Cube_FW_F4_V1.26.0/Middlewares/Third_Party/LwIP/src/core/ipv4/ip4.c ****  * @param netif the netif on which to send this packet
 779:/Users/nhantt/STM32Cube/Repository/STM32Cube_FW_F4_V1.26.0/Middlewares/Third_Party/LwIP/src/core/ipv4/ip4.c ****  * @return ERR_OK if the packet was sent OK
 780:/Users/nhantt/STM32Cube/Repository/STM32Cube_FW_F4_V1.26.0/Middlewares/Third_Party/LwIP/src/core/ipv4/ip4.c ****  *         ERR_BUF if p doesn't have enough space for IP/LINK headers
 781:/Users/nhantt/STM32Cube/Repository/STM32Cube_FW_F4_V1.26.0/Middlewares/Third_Party/LwIP/src/core/ipv4/ip4.c ****  *         returns errors returned by netif->output
 782:/Users/nhantt/STM32Cube/Repository/STM32Cube_FW_F4_V1.26.0/Middlewares/Third_Party/LwIP/src/core/ipv4/ip4.c ****  *
 783:/Users/nhantt/STM32Cube/Repository/STM32Cube_FW_F4_V1.26.0/Middlewares/Third_Party/LwIP/src/core/ipv4/ip4.c ****  * @note ip_id: RFC791 "some host may be able to simply use
 784:/Users/nhantt/STM32Cube/Repository/STM32Cube_FW_F4_V1.26.0/Middlewares/Third_Party/LwIP/src/core/ipv4/ip4.c ****  *  unique identifiers independent of destination"
 785:/Users/nhantt/STM32Cube/Repository/STM32Cube_FW_F4_V1.26.0/Middlewares/Third_Party/LwIP/src/core/ipv4/ip4.c ****  */
 786:/Users/nhantt/STM32Cube/Repository/STM32Cube_FW_F4_V1.26.0/Middlewares/Third_Party/LwIP/src/core/ipv4/ip4.c **** err_t
 787:/Users/nhantt/STM32Cube/Repository/STM32Cube_FW_F4_V1.26.0/Middlewares/Third_Party/LwIP/src/core/ipv4/ip4.c **** ip4_output_if(struct pbuf *p, const ip4_addr_t *src, const ip4_addr_t *dest,
 788:/Users/nhantt/STM32Cube/Repository/STM32Cube_FW_F4_V1.26.0/Middlewares/Third_Party/LwIP/src/core/ipv4/ip4.c ****               u8_t ttl, u8_t tos,
ARM GAS  /var/folders/k2/cd9bl_j17z77g23y6ffqb_400000gn/T//ccJwgoEp.s 			page 32


 789:/Users/nhantt/STM32Cube/Repository/STM32Cube_FW_F4_V1.26.0/Middlewares/Third_Party/LwIP/src/core/ipv4/ip4.c ****               u8_t proto, struct netif *netif)
 790:/Users/nhantt/STM32Cube/Repository/STM32Cube_FW_F4_V1.26.0/Middlewares/Third_Party/LwIP/src/core/ipv4/ip4.c **** {
 791:/Users/nhantt/STM32Cube/Repository/STM32Cube_FW_F4_V1.26.0/Middlewares/Third_Party/LwIP/src/core/ipv4/ip4.c **** #if IP_OPTIONS_SEND
 792:/Users/nhantt/STM32Cube/Repository/STM32Cube_FW_F4_V1.26.0/Middlewares/Third_Party/LwIP/src/core/ipv4/ip4.c ****   return ip4_output_if_opt(p, src, dest, ttl, tos, proto, netif, NULL, 0);
 793:/Users/nhantt/STM32Cube/Repository/STM32Cube_FW_F4_V1.26.0/Middlewares/Third_Party/LwIP/src/core/ipv4/ip4.c **** }
 794:/Users/nhantt/STM32Cube/Repository/STM32Cube_FW_F4_V1.26.0/Middlewares/Third_Party/LwIP/src/core/ipv4/ip4.c **** 
 795:/Users/nhantt/STM32Cube/Repository/STM32Cube_FW_F4_V1.26.0/Middlewares/Third_Party/LwIP/src/core/ipv4/ip4.c **** /**
 796:/Users/nhantt/STM32Cube/Repository/STM32Cube_FW_F4_V1.26.0/Middlewares/Third_Party/LwIP/src/core/ipv4/ip4.c ****  * Same as ip_output_if() but with the possibility to include IP options:
 797:/Users/nhantt/STM32Cube/Repository/STM32Cube_FW_F4_V1.26.0/Middlewares/Third_Party/LwIP/src/core/ipv4/ip4.c ****  *
 798:/Users/nhantt/STM32Cube/Repository/STM32Cube_FW_F4_V1.26.0/Middlewares/Third_Party/LwIP/src/core/ipv4/ip4.c ****  * @ param ip_options pointer to the IP options, copied into the IP header
 799:/Users/nhantt/STM32Cube/Repository/STM32Cube_FW_F4_V1.26.0/Middlewares/Third_Party/LwIP/src/core/ipv4/ip4.c ****  * @ param optlen length of ip_options
 800:/Users/nhantt/STM32Cube/Repository/STM32Cube_FW_F4_V1.26.0/Middlewares/Third_Party/LwIP/src/core/ipv4/ip4.c ****  */
 801:/Users/nhantt/STM32Cube/Repository/STM32Cube_FW_F4_V1.26.0/Middlewares/Third_Party/LwIP/src/core/ipv4/ip4.c **** err_t
 802:/Users/nhantt/STM32Cube/Repository/STM32Cube_FW_F4_V1.26.0/Middlewares/Third_Party/LwIP/src/core/ipv4/ip4.c **** ip4_output_if_opt(struct pbuf *p, const ip4_addr_t *src, const ip4_addr_t *dest,
 803:/Users/nhantt/STM32Cube/Repository/STM32Cube_FW_F4_V1.26.0/Middlewares/Third_Party/LwIP/src/core/ipv4/ip4.c ****                   u8_t ttl, u8_t tos, u8_t proto, struct netif *netif, void *ip_options,
 804:/Users/nhantt/STM32Cube/Repository/STM32Cube_FW_F4_V1.26.0/Middlewares/Third_Party/LwIP/src/core/ipv4/ip4.c ****                   u16_t optlen)
 805:/Users/nhantt/STM32Cube/Repository/STM32Cube_FW_F4_V1.26.0/Middlewares/Third_Party/LwIP/src/core/ipv4/ip4.c **** {
 806:/Users/nhantt/STM32Cube/Repository/STM32Cube_FW_F4_V1.26.0/Middlewares/Third_Party/LwIP/src/core/ipv4/ip4.c **** #endif /* IP_OPTIONS_SEND */
 807:/Users/nhantt/STM32Cube/Repository/STM32Cube_FW_F4_V1.26.0/Middlewares/Third_Party/LwIP/src/core/ipv4/ip4.c ****   const ip4_addr_t *src_used = src;
 808:/Users/nhantt/STM32Cube/Repository/STM32Cube_FW_F4_V1.26.0/Middlewares/Third_Party/LwIP/src/core/ipv4/ip4.c ****   if (dest != LWIP_IP_HDRINCL) {
 809:/Users/nhantt/STM32Cube/Repository/STM32Cube_FW_F4_V1.26.0/Middlewares/Third_Party/LwIP/src/core/ipv4/ip4.c ****     if (ip4_addr_isany(src)) {
 810:/Users/nhantt/STM32Cube/Repository/STM32Cube_FW_F4_V1.26.0/Middlewares/Third_Party/LwIP/src/core/ipv4/ip4.c ****       src_used = netif_ip4_addr(netif);
 811:/Users/nhantt/STM32Cube/Repository/STM32Cube_FW_F4_V1.26.0/Middlewares/Third_Party/LwIP/src/core/ipv4/ip4.c ****     }
 812:/Users/nhantt/STM32Cube/Repository/STM32Cube_FW_F4_V1.26.0/Middlewares/Third_Party/LwIP/src/core/ipv4/ip4.c ****   }
 813:/Users/nhantt/STM32Cube/Repository/STM32Cube_FW_F4_V1.26.0/Middlewares/Third_Party/LwIP/src/core/ipv4/ip4.c **** 
 814:/Users/nhantt/STM32Cube/Repository/STM32Cube_FW_F4_V1.26.0/Middlewares/Third_Party/LwIP/src/core/ipv4/ip4.c **** #if IP_OPTIONS_SEND
 815:/Users/nhantt/STM32Cube/Repository/STM32Cube_FW_F4_V1.26.0/Middlewares/Third_Party/LwIP/src/core/ipv4/ip4.c ****   return ip4_output_if_opt_src(p, src_used, dest, ttl, tos, proto, netif,
 816:/Users/nhantt/STM32Cube/Repository/STM32Cube_FW_F4_V1.26.0/Middlewares/Third_Party/LwIP/src/core/ipv4/ip4.c ****                                ip_options, optlen);
 817:/Users/nhantt/STM32Cube/Repository/STM32Cube_FW_F4_V1.26.0/Middlewares/Third_Party/LwIP/src/core/ipv4/ip4.c **** #else /* IP_OPTIONS_SEND */
 818:/Users/nhantt/STM32Cube/Repository/STM32Cube_FW_F4_V1.26.0/Middlewares/Third_Party/LwIP/src/core/ipv4/ip4.c ****   return ip4_output_if_src(p, src_used, dest, ttl, tos, proto, netif);
 819:/Users/nhantt/STM32Cube/Repository/STM32Cube_FW_F4_V1.26.0/Middlewares/Third_Party/LwIP/src/core/ipv4/ip4.c **** #endif /* IP_OPTIONS_SEND */
 820:/Users/nhantt/STM32Cube/Repository/STM32Cube_FW_F4_V1.26.0/Middlewares/Third_Party/LwIP/src/core/ipv4/ip4.c **** }
 821:/Users/nhantt/STM32Cube/Repository/STM32Cube_FW_F4_V1.26.0/Middlewares/Third_Party/LwIP/src/core/ipv4/ip4.c **** 
 822:/Users/nhantt/STM32Cube/Repository/STM32Cube_FW_F4_V1.26.0/Middlewares/Third_Party/LwIP/src/core/ipv4/ip4.c **** /**
 823:/Users/nhantt/STM32Cube/Repository/STM32Cube_FW_F4_V1.26.0/Middlewares/Third_Party/LwIP/src/core/ipv4/ip4.c ****  * Same as ip_output_if() but 'src' address is not replaced by netif address
 824:/Users/nhantt/STM32Cube/Repository/STM32Cube_FW_F4_V1.26.0/Middlewares/Third_Party/LwIP/src/core/ipv4/ip4.c ****  * when it is 'any'.
 825:/Users/nhantt/STM32Cube/Repository/STM32Cube_FW_F4_V1.26.0/Middlewares/Third_Party/LwIP/src/core/ipv4/ip4.c ****  */
 826:/Users/nhantt/STM32Cube/Repository/STM32Cube_FW_F4_V1.26.0/Middlewares/Third_Party/LwIP/src/core/ipv4/ip4.c **** err_t
 827:/Users/nhantt/STM32Cube/Repository/STM32Cube_FW_F4_V1.26.0/Middlewares/Third_Party/LwIP/src/core/ipv4/ip4.c **** ip4_output_if_src(struct pbuf *p, const ip4_addr_t *src, const ip4_addr_t *dest,
 828:/Users/nhantt/STM32Cube/Repository/STM32Cube_FW_F4_V1.26.0/Middlewares/Third_Party/LwIP/src/core/ipv4/ip4.c ****                   u8_t ttl, u8_t tos,
 829:/Users/nhantt/STM32Cube/Repository/STM32Cube_FW_F4_V1.26.0/Middlewares/Third_Party/LwIP/src/core/ipv4/ip4.c ****                   u8_t proto, struct netif *netif)
 830:/Users/nhantt/STM32Cube/Repository/STM32Cube_FW_F4_V1.26.0/Middlewares/Third_Party/LwIP/src/core/ipv4/ip4.c **** {
 750              		.loc 1 830 1 view -0
 751              		.cfi_startproc
 752              		@ args = 12, pretend = 0, frame = 8
 753              		@ frame_needed = 0, uses_anonymous_args = 0
 754              		.loc 1 830 1 is_stmt 0 view .LVU259
 755 0000 2DE9F043 		push	{r4, r5, r6, r7, r8, r9, lr}
 756              	.LCFI6:
 757              		.cfi_def_cfa_offset 28
 758              		.cfi_offset 4, -28
 759              		.cfi_offset 5, -24
 760              		.cfi_offset 6, -20
 761              		.cfi_offset 7, -16
 762              		.cfi_offset 8, -12
 763              		.cfi_offset 9, -8
 764              		.cfi_offset 14, -4
ARM GAS  /var/folders/k2/cd9bl_j17z77g23y6ffqb_400000gn/T//ccJwgoEp.s 			page 33


 765 0004 83B0     		sub	sp, sp, #12
 766              	.LCFI7:
 767              		.cfi_def_cfa_offset 40
 768 0006 0446     		mov	r4, r0
 769 0008 0F46     		mov	r7, r1
 770 000a 1646     		mov	r6, r2
 771 000c 9946     		mov	r9, r3
 772 000e DDF83080 		ldr	r8, [sp, #48]
 831:/Users/nhantt/STM32Cube/Repository/STM32Cube_FW_F4_V1.26.0/Middlewares/Third_Party/LwIP/src/core/ipv4/ip4.c **** #if IP_OPTIONS_SEND
 832:/Users/nhantt/STM32Cube/Repository/STM32Cube_FW_F4_V1.26.0/Middlewares/Third_Party/LwIP/src/core/ipv4/ip4.c ****   return ip4_output_if_opt_src(p, src, dest, ttl, tos, proto, netif, NULL, 0);
 833:/Users/nhantt/STM32Cube/Repository/STM32Cube_FW_F4_V1.26.0/Middlewares/Third_Party/LwIP/src/core/ipv4/ip4.c **** }
 834:/Users/nhantt/STM32Cube/Repository/STM32Cube_FW_F4_V1.26.0/Middlewares/Third_Party/LwIP/src/core/ipv4/ip4.c **** 
 835:/Users/nhantt/STM32Cube/Repository/STM32Cube_FW_F4_V1.26.0/Middlewares/Third_Party/LwIP/src/core/ipv4/ip4.c **** /**
 836:/Users/nhantt/STM32Cube/Repository/STM32Cube_FW_F4_V1.26.0/Middlewares/Third_Party/LwIP/src/core/ipv4/ip4.c ****  * Same as ip_output_if_opt() but 'src' address is not replaced by netif address
 837:/Users/nhantt/STM32Cube/Repository/STM32Cube_FW_F4_V1.26.0/Middlewares/Third_Party/LwIP/src/core/ipv4/ip4.c ****  * when it is 'any'.
 838:/Users/nhantt/STM32Cube/Repository/STM32Cube_FW_F4_V1.26.0/Middlewares/Third_Party/LwIP/src/core/ipv4/ip4.c ****  */
 839:/Users/nhantt/STM32Cube/Repository/STM32Cube_FW_F4_V1.26.0/Middlewares/Third_Party/LwIP/src/core/ipv4/ip4.c **** err_t
 840:/Users/nhantt/STM32Cube/Repository/STM32Cube_FW_F4_V1.26.0/Middlewares/Third_Party/LwIP/src/core/ipv4/ip4.c **** ip4_output_if_opt_src(struct pbuf *p, const ip4_addr_t *src, const ip4_addr_t *dest,
 841:/Users/nhantt/STM32Cube/Repository/STM32Cube_FW_F4_V1.26.0/Middlewares/Third_Party/LwIP/src/core/ipv4/ip4.c ****                       u8_t ttl, u8_t tos, u8_t proto, struct netif *netif, void *ip_options,
 842:/Users/nhantt/STM32Cube/Repository/STM32Cube_FW_F4_V1.26.0/Middlewares/Third_Party/LwIP/src/core/ipv4/ip4.c ****                       u16_t optlen)
 843:/Users/nhantt/STM32Cube/Repository/STM32Cube_FW_F4_V1.26.0/Middlewares/Third_Party/LwIP/src/core/ipv4/ip4.c **** {
 844:/Users/nhantt/STM32Cube/Repository/STM32Cube_FW_F4_V1.26.0/Middlewares/Third_Party/LwIP/src/core/ipv4/ip4.c **** #endif /* IP_OPTIONS_SEND */
 845:/Users/nhantt/STM32Cube/Repository/STM32Cube_FW_F4_V1.26.0/Middlewares/Third_Party/LwIP/src/core/ipv4/ip4.c ****   struct ip_hdr *iphdr;
 773              		.loc 1 845 3 is_stmt 1 view .LVU260
 846:/Users/nhantt/STM32Cube/Repository/STM32Cube_FW_F4_V1.26.0/Middlewares/Third_Party/LwIP/src/core/ipv4/ip4.c ****   ip4_addr_t dest_addr;
 774              		.loc 1 846 3 view .LVU261
 847:/Users/nhantt/STM32Cube/Repository/STM32Cube_FW_F4_V1.26.0/Middlewares/Third_Party/LwIP/src/core/ipv4/ip4.c **** #if CHECKSUM_GEN_IP_INLINE
 848:/Users/nhantt/STM32Cube/Repository/STM32Cube_FW_F4_V1.26.0/Middlewares/Third_Party/LwIP/src/core/ipv4/ip4.c ****   u32_t chk_sum = 0;
 849:/Users/nhantt/STM32Cube/Repository/STM32Cube_FW_F4_V1.26.0/Middlewares/Third_Party/LwIP/src/core/ipv4/ip4.c **** #endif /* CHECKSUM_GEN_IP_INLINE */
 850:/Users/nhantt/STM32Cube/Repository/STM32Cube_FW_F4_V1.26.0/Middlewares/Third_Party/LwIP/src/core/ipv4/ip4.c **** 
 851:/Users/nhantt/STM32Cube/Repository/STM32Cube_FW_F4_V1.26.0/Middlewares/Third_Party/LwIP/src/core/ipv4/ip4.c ****   LWIP_ASSERT_CORE_LOCKED();
 775              		.loc 1 851 28 view .LVU262
 852:/Users/nhantt/STM32Cube/Repository/STM32Cube_FW_F4_V1.26.0/Middlewares/Third_Party/LwIP/src/core/ipv4/ip4.c ****   LWIP_IP_CHECK_PBUF_REF_COUNT_FOR_TX(p);
 776              		.loc 1 852 3 view .LVU263
 777              		.loc 1 852 3 view .LVU264
 778 0012 827B     		ldrb	r2, [r0, #14]	@ zero_extendqisi2
 779              	.LVL57:
 780              		.loc 1 852 3 is_stmt 0 view .LVU265
 781 0014 012A     		cmp	r2, #1
 782 0016 3FD1     		bne	.L83
 783              	.LVL58:
 784              	.L72:
 785              		.loc 1 852 3 is_stmt 1 discriminator 3 view .LVU266
 786              		.loc 1 852 3 discriminator 3 view .LVU267
 853:/Users/nhantt/STM32Cube/Repository/STM32Cube_FW_F4_V1.26.0/Middlewares/Third_Party/LwIP/src/core/ipv4/ip4.c **** 
 854:/Users/nhantt/STM32Cube/Repository/STM32Cube_FW_F4_V1.26.0/Middlewares/Third_Party/LwIP/src/core/ipv4/ip4.c ****   MIB2_STATS_INC(mib2.ipoutrequests);
 787              		.loc 1 854 37 discriminator 3 view .LVU268
 855:/Users/nhantt/STM32Cube/Repository/STM32Cube_FW_F4_V1.26.0/Middlewares/Third_Party/LwIP/src/core/ipv4/ip4.c **** 
 856:/Users/nhantt/STM32Cube/Repository/STM32Cube_FW_F4_V1.26.0/Middlewares/Third_Party/LwIP/src/core/ipv4/ip4.c ****   /* Should the IP header be generated or is it already included in p? */
 857:/Users/nhantt/STM32Cube/Repository/STM32Cube_FW_F4_V1.26.0/Middlewares/Third_Party/LwIP/src/core/ipv4/ip4.c ****   if (dest != LWIP_IP_HDRINCL) {
 788              		.loc 1 857 3 discriminator 3 view .LVU269
 789              		.loc 1 857 6 is_stmt 0 discriminator 3 view .LVU270
 790 0018 002E     		cmp	r6, #0
 791 001a 51D0     		beq	.L73
 792              	.LBB3:
 858:/Users/nhantt/STM32Cube/Repository/STM32Cube_FW_F4_V1.26.0/Middlewares/Third_Party/LwIP/src/core/ipv4/ip4.c ****     u16_t ip_hlen = IP_HLEN;
 793              		.loc 1 858 5 is_stmt 1 view .LVU271
ARM GAS  /var/folders/k2/cd9bl_j17z77g23y6ffqb_400000gn/T//ccJwgoEp.s 			page 34


 794              	.LVL59:
 859:/Users/nhantt/STM32Cube/Repository/STM32Cube_FW_F4_V1.26.0/Middlewares/Third_Party/LwIP/src/core/ipv4/ip4.c **** #if IP_OPTIONS_SEND
 860:/Users/nhantt/STM32Cube/Repository/STM32Cube_FW_F4_V1.26.0/Middlewares/Third_Party/LwIP/src/core/ipv4/ip4.c ****     u16_t optlen_aligned = 0;
 861:/Users/nhantt/STM32Cube/Repository/STM32Cube_FW_F4_V1.26.0/Middlewares/Third_Party/LwIP/src/core/ipv4/ip4.c ****     if (optlen != 0) {
 862:/Users/nhantt/STM32Cube/Repository/STM32Cube_FW_F4_V1.26.0/Middlewares/Third_Party/LwIP/src/core/ipv4/ip4.c **** #if CHECKSUM_GEN_IP_INLINE
 863:/Users/nhantt/STM32Cube/Repository/STM32Cube_FW_F4_V1.26.0/Middlewares/Third_Party/LwIP/src/core/ipv4/ip4.c ****       int i;
 864:/Users/nhantt/STM32Cube/Repository/STM32Cube_FW_F4_V1.26.0/Middlewares/Third_Party/LwIP/src/core/ipv4/ip4.c **** #endif /* CHECKSUM_GEN_IP_INLINE */
 865:/Users/nhantt/STM32Cube/Repository/STM32Cube_FW_F4_V1.26.0/Middlewares/Third_Party/LwIP/src/core/ipv4/ip4.c ****       if (optlen > (IP_HLEN_MAX - IP_HLEN)) {
 866:/Users/nhantt/STM32Cube/Repository/STM32Cube_FW_F4_V1.26.0/Middlewares/Third_Party/LwIP/src/core/ipv4/ip4.c ****         /* optlen too long */
 867:/Users/nhantt/STM32Cube/Repository/STM32Cube_FW_F4_V1.26.0/Middlewares/Third_Party/LwIP/src/core/ipv4/ip4.c ****         LWIP_DEBUGF(IP_DEBUG | LWIP_DBG_LEVEL_SERIOUS, ("ip4_output_if_opt: optlen too long\n"));
 868:/Users/nhantt/STM32Cube/Repository/STM32Cube_FW_F4_V1.26.0/Middlewares/Third_Party/LwIP/src/core/ipv4/ip4.c ****         IP_STATS_INC(ip.err);
 869:/Users/nhantt/STM32Cube/Repository/STM32Cube_FW_F4_V1.26.0/Middlewares/Third_Party/LwIP/src/core/ipv4/ip4.c ****         MIB2_STATS_INC(mib2.ipoutdiscards);
 870:/Users/nhantt/STM32Cube/Repository/STM32Cube_FW_F4_V1.26.0/Middlewares/Third_Party/LwIP/src/core/ipv4/ip4.c ****         return ERR_VAL;
 871:/Users/nhantt/STM32Cube/Repository/STM32Cube_FW_F4_V1.26.0/Middlewares/Third_Party/LwIP/src/core/ipv4/ip4.c ****       }
 872:/Users/nhantt/STM32Cube/Repository/STM32Cube_FW_F4_V1.26.0/Middlewares/Third_Party/LwIP/src/core/ipv4/ip4.c ****       /* round up to a multiple of 4 */
 873:/Users/nhantt/STM32Cube/Repository/STM32Cube_FW_F4_V1.26.0/Middlewares/Third_Party/LwIP/src/core/ipv4/ip4.c ****       optlen_aligned = (u16_t)((optlen + 3) & ~3);
 874:/Users/nhantt/STM32Cube/Repository/STM32Cube_FW_F4_V1.26.0/Middlewares/Third_Party/LwIP/src/core/ipv4/ip4.c ****       ip_hlen = (u16_t)(ip_hlen + optlen_aligned);
 875:/Users/nhantt/STM32Cube/Repository/STM32Cube_FW_F4_V1.26.0/Middlewares/Third_Party/LwIP/src/core/ipv4/ip4.c ****       /* First write in the IP options */
 876:/Users/nhantt/STM32Cube/Repository/STM32Cube_FW_F4_V1.26.0/Middlewares/Third_Party/LwIP/src/core/ipv4/ip4.c ****       if (pbuf_add_header(p, optlen_aligned)) {
 877:/Users/nhantt/STM32Cube/Repository/STM32Cube_FW_F4_V1.26.0/Middlewares/Third_Party/LwIP/src/core/ipv4/ip4.c ****         LWIP_DEBUGF(IP_DEBUG | LWIP_DBG_LEVEL_SERIOUS, ("ip4_output_if_opt: not enough room for IP 
 878:/Users/nhantt/STM32Cube/Repository/STM32Cube_FW_F4_V1.26.0/Middlewares/Third_Party/LwIP/src/core/ipv4/ip4.c ****         IP_STATS_INC(ip.err);
 879:/Users/nhantt/STM32Cube/Repository/STM32Cube_FW_F4_V1.26.0/Middlewares/Third_Party/LwIP/src/core/ipv4/ip4.c ****         MIB2_STATS_INC(mib2.ipoutdiscards);
 880:/Users/nhantt/STM32Cube/Repository/STM32Cube_FW_F4_V1.26.0/Middlewares/Third_Party/LwIP/src/core/ipv4/ip4.c ****         return ERR_BUF;
 881:/Users/nhantt/STM32Cube/Repository/STM32Cube_FW_F4_V1.26.0/Middlewares/Third_Party/LwIP/src/core/ipv4/ip4.c ****       }
 882:/Users/nhantt/STM32Cube/Repository/STM32Cube_FW_F4_V1.26.0/Middlewares/Third_Party/LwIP/src/core/ipv4/ip4.c ****       MEMCPY(p->payload, ip_options, optlen);
 883:/Users/nhantt/STM32Cube/Repository/STM32Cube_FW_F4_V1.26.0/Middlewares/Third_Party/LwIP/src/core/ipv4/ip4.c ****       if (optlen < optlen_aligned) {
 884:/Users/nhantt/STM32Cube/Repository/STM32Cube_FW_F4_V1.26.0/Middlewares/Third_Party/LwIP/src/core/ipv4/ip4.c ****         /* zero the remaining bytes */
 885:/Users/nhantt/STM32Cube/Repository/STM32Cube_FW_F4_V1.26.0/Middlewares/Third_Party/LwIP/src/core/ipv4/ip4.c ****         memset(((char *)p->payload) + optlen, 0, (size_t)(optlen_aligned - optlen));
 886:/Users/nhantt/STM32Cube/Repository/STM32Cube_FW_F4_V1.26.0/Middlewares/Third_Party/LwIP/src/core/ipv4/ip4.c ****       }
 887:/Users/nhantt/STM32Cube/Repository/STM32Cube_FW_F4_V1.26.0/Middlewares/Third_Party/LwIP/src/core/ipv4/ip4.c **** #if CHECKSUM_GEN_IP_INLINE
 888:/Users/nhantt/STM32Cube/Repository/STM32Cube_FW_F4_V1.26.0/Middlewares/Third_Party/LwIP/src/core/ipv4/ip4.c ****       for (i = 0; i < optlen_aligned / 2; i++) {
 889:/Users/nhantt/STM32Cube/Repository/STM32Cube_FW_F4_V1.26.0/Middlewares/Third_Party/LwIP/src/core/ipv4/ip4.c ****         chk_sum += ((u16_t *)p->payload)[i];
 890:/Users/nhantt/STM32Cube/Repository/STM32Cube_FW_F4_V1.26.0/Middlewares/Third_Party/LwIP/src/core/ipv4/ip4.c ****       }
 891:/Users/nhantt/STM32Cube/Repository/STM32Cube_FW_F4_V1.26.0/Middlewares/Third_Party/LwIP/src/core/ipv4/ip4.c **** #endif /* CHECKSUM_GEN_IP_INLINE */
 892:/Users/nhantt/STM32Cube/Repository/STM32Cube_FW_F4_V1.26.0/Middlewares/Third_Party/LwIP/src/core/ipv4/ip4.c ****     }
 893:/Users/nhantt/STM32Cube/Repository/STM32Cube_FW_F4_V1.26.0/Middlewares/Third_Party/LwIP/src/core/ipv4/ip4.c **** #endif /* IP_OPTIONS_SEND */
 894:/Users/nhantt/STM32Cube/Repository/STM32Cube_FW_F4_V1.26.0/Middlewares/Third_Party/LwIP/src/core/ipv4/ip4.c ****     /* generate IP header */
 895:/Users/nhantt/STM32Cube/Repository/STM32Cube_FW_F4_V1.26.0/Middlewares/Third_Party/LwIP/src/core/ipv4/ip4.c ****     if (pbuf_add_header(p, IP_HLEN)) {
 795              		.loc 1 895 5 view .LVU272
 796              		.loc 1 895 9 is_stmt 0 view .LVU273
 797 001c 1421     		movs	r1, #20
 798 001e 2046     		mov	r0, r4
 799 0020 FFF7FEFF 		bl	pbuf_add_header
 800              	.LVL60:
 801              		.loc 1 895 8 view .LVU274
 802 0024 0028     		cmp	r0, #0
 803 0026 59D1     		bne	.L80
 896:/Users/nhantt/STM32Cube/Repository/STM32Cube_FW_F4_V1.26.0/Middlewares/Third_Party/LwIP/src/core/ipv4/ip4.c ****       LWIP_DEBUGF(IP_DEBUG | LWIP_DBG_LEVEL_SERIOUS, ("ip4_output: not enough room for IP header in
 897:/Users/nhantt/STM32Cube/Repository/STM32Cube_FW_F4_V1.26.0/Middlewares/Third_Party/LwIP/src/core/ipv4/ip4.c **** 
 898:/Users/nhantt/STM32Cube/Repository/STM32Cube_FW_F4_V1.26.0/Middlewares/Third_Party/LwIP/src/core/ipv4/ip4.c ****       IP_STATS_INC(ip.err);
 899:/Users/nhantt/STM32Cube/Repository/STM32Cube_FW_F4_V1.26.0/Middlewares/Third_Party/LwIP/src/core/ipv4/ip4.c ****       MIB2_STATS_INC(mib2.ipoutdiscards);
 900:/Users/nhantt/STM32Cube/Repository/STM32Cube_FW_F4_V1.26.0/Middlewares/Third_Party/LwIP/src/core/ipv4/ip4.c ****       return ERR_BUF;
 901:/Users/nhantt/STM32Cube/Repository/STM32Cube_FW_F4_V1.26.0/Middlewares/Third_Party/LwIP/src/core/ipv4/ip4.c ****     }
 902:/Users/nhantt/STM32Cube/Repository/STM32Cube_FW_F4_V1.26.0/Middlewares/Third_Party/LwIP/src/core/ipv4/ip4.c **** 
 903:/Users/nhantt/STM32Cube/Repository/STM32Cube_FW_F4_V1.26.0/Middlewares/Third_Party/LwIP/src/core/ipv4/ip4.c ****     iphdr = (struct ip_hdr *)p->payload;
 804              		.loc 1 903 5 is_stmt 1 view .LVU275
 805              		.loc 1 903 11 is_stmt 0 view .LVU276
ARM GAS  /var/folders/k2/cd9bl_j17z77g23y6ffqb_400000gn/T//ccJwgoEp.s 			page 35


 806 0028 6568     		ldr	r5, [r4, #4]
 807              	.LVL61:
 904:/Users/nhantt/STM32Cube/Repository/STM32Cube_FW_F4_V1.26.0/Middlewares/Third_Party/LwIP/src/core/ipv4/ip4.c ****     LWIP_ASSERT("check that first pbuf can hold struct ip_hdr",
 808              		.loc 1 904 5 is_stmt 1 view .LVU277
 809              		.loc 1 904 5 view .LVU278
 810 002a 6389     		ldrh	r3, [r4, #10]
 811 002c 132B     		cmp	r3, #19
 812 002e 3BD9     		bls	.L84
 813              	.L75:
 814              		.loc 1 904 5 discriminator 3 view .LVU279
 815              		.loc 1 904 5 discriminator 3 view .LVU280
 905:/Users/nhantt/STM32Cube/Repository/STM32Cube_FW_F4_V1.26.0/Middlewares/Third_Party/LwIP/src/core/ipv4/ip4.c ****                 (p->len >= sizeof(struct ip_hdr)));
 906:/Users/nhantt/STM32Cube/Repository/STM32Cube_FW_F4_V1.26.0/Middlewares/Third_Party/LwIP/src/core/ipv4/ip4.c **** 
 907:/Users/nhantt/STM32Cube/Repository/STM32Cube_FW_F4_V1.26.0/Middlewares/Third_Party/LwIP/src/core/ipv4/ip4.c ****     IPH_TTL_SET(iphdr, ttl);
 816              		.loc 1 907 5 discriminator 3 view .LVU281
 817 0030 85F80890 		strb	r9, [r5, #8]
 908:/Users/nhantt/STM32Cube/Repository/STM32Cube_FW_F4_V1.26.0/Middlewares/Third_Party/LwIP/src/core/ipv4/ip4.c ****     IPH_PROTO_SET(iphdr, proto);
 818              		.loc 1 908 5 discriminator 3 view .LVU282
 819 0034 9DF82C30 		ldrb	r3, [sp, #44]	@ zero_extendqisi2
 820 0038 6B72     		strb	r3, [r5, #9]
 909:/Users/nhantt/STM32Cube/Repository/STM32Cube_FW_F4_V1.26.0/Middlewares/Third_Party/LwIP/src/core/ipv4/ip4.c **** #if CHECKSUM_GEN_IP_INLINE
 910:/Users/nhantt/STM32Cube/Repository/STM32Cube_FW_F4_V1.26.0/Middlewares/Third_Party/LwIP/src/core/ipv4/ip4.c ****     chk_sum += PP_NTOHS(proto | (ttl << 8));
 911:/Users/nhantt/STM32Cube/Repository/STM32Cube_FW_F4_V1.26.0/Middlewares/Third_Party/LwIP/src/core/ipv4/ip4.c **** #endif /* CHECKSUM_GEN_IP_INLINE */
 912:/Users/nhantt/STM32Cube/Repository/STM32Cube_FW_F4_V1.26.0/Middlewares/Third_Party/LwIP/src/core/ipv4/ip4.c **** 
 913:/Users/nhantt/STM32Cube/Repository/STM32Cube_FW_F4_V1.26.0/Middlewares/Third_Party/LwIP/src/core/ipv4/ip4.c ****     /* dest cannot be NULL here */
 914:/Users/nhantt/STM32Cube/Repository/STM32Cube_FW_F4_V1.26.0/Middlewares/Third_Party/LwIP/src/core/ipv4/ip4.c ****     ip4_addr_copy(iphdr->dest, *dest);
 821              		.loc 1 914 5 discriminator 3 view .LVU283
 822 003a 3368     		ldr	r3, [r6]
 823 003c 2B61     		str	r3, [r5, #16]	@ unaligned
 915:/Users/nhantt/STM32Cube/Repository/STM32Cube_FW_F4_V1.26.0/Middlewares/Third_Party/LwIP/src/core/ipv4/ip4.c **** #if CHECKSUM_GEN_IP_INLINE
 916:/Users/nhantt/STM32Cube/Repository/STM32Cube_FW_F4_V1.26.0/Middlewares/Third_Party/LwIP/src/core/ipv4/ip4.c ****     chk_sum += ip4_addr_get_u32(&iphdr->dest) & 0xFFFF;
 917:/Users/nhantt/STM32Cube/Repository/STM32Cube_FW_F4_V1.26.0/Middlewares/Third_Party/LwIP/src/core/ipv4/ip4.c ****     chk_sum += ip4_addr_get_u32(&iphdr->dest) >> 16;
 918:/Users/nhantt/STM32Cube/Repository/STM32Cube_FW_F4_V1.26.0/Middlewares/Third_Party/LwIP/src/core/ipv4/ip4.c **** #endif /* CHECKSUM_GEN_IP_INLINE */
 919:/Users/nhantt/STM32Cube/Repository/STM32Cube_FW_F4_V1.26.0/Middlewares/Third_Party/LwIP/src/core/ipv4/ip4.c **** 
 920:/Users/nhantt/STM32Cube/Repository/STM32Cube_FW_F4_V1.26.0/Middlewares/Third_Party/LwIP/src/core/ipv4/ip4.c ****     IPH_VHL_SET(iphdr, 4, ip_hlen / 4);
 824              		.loc 1 920 5 discriminator 3 view .LVU284
 825 003e 4523     		movs	r3, #69
 826 0040 2B70     		strb	r3, [r5]
 921:/Users/nhantt/STM32Cube/Repository/STM32Cube_FW_F4_V1.26.0/Middlewares/Third_Party/LwIP/src/core/ipv4/ip4.c ****     IPH_TOS_SET(iphdr, tos);
 827              		.loc 1 921 5 discriminator 3 view .LVU285
 828 0042 9DF82830 		ldrb	r3, [sp, #40]	@ zero_extendqisi2
 829 0046 6B70     		strb	r3, [r5, #1]
 922:/Users/nhantt/STM32Cube/Repository/STM32Cube_FW_F4_V1.26.0/Middlewares/Third_Party/LwIP/src/core/ipv4/ip4.c **** #if CHECKSUM_GEN_IP_INLINE
 923:/Users/nhantt/STM32Cube/Repository/STM32Cube_FW_F4_V1.26.0/Middlewares/Third_Party/LwIP/src/core/ipv4/ip4.c ****     chk_sum += PP_NTOHS(tos | (iphdr->_v_hl << 8));
 924:/Users/nhantt/STM32Cube/Repository/STM32Cube_FW_F4_V1.26.0/Middlewares/Third_Party/LwIP/src/core/ipv4/ip4.c **** #endif /* CHECKSUM_GEN_IP_INLINE */
 925:/Users/nhantt/STM32Cube/Repository/STM32Cube_FW_F4_V1.26.0/Middlewares/Third_Party/LwIP/src/core/ipv4/ip4.c ****     IPH_LEN_SET(iphdr, lwip_htons(p->tot_len));
 830              		.loc 1 925 5 discriminator 3 view .LVU286
 831 0048 2089     		ldrh	r0, [r4, #8]
 832 004a FFF7FEFF 		bl	lwip_htons
 833              	.LVL62:
 834 004e 6880     		strh	r0, [r5, #2]	@ unaligned
 926:/Users/nhantt/STM32Cube/Repository/STM32Cube_FW_F4_V1.26.0/Middlewares/Third_Party/LwIP/src/core/ipv4/ip4.c **** #if CHECKSUM_GEN_IP_INLINE
 927:/Users/nhantt/STM32Cube/Repository/STM32Cube_FW_F4_V1.26.0/Middlewares/Third_Party/LwIP/src/core/ipv4/ip4.c ****     chk_sum += iphdr->_len;
 928:/Users/nhantt/STM32Cube/Repository/STM32Cube_FW_F4_V1.26.0/Middlewares/Third_Party/LwIP/src/core/ipv4/ip4.c **** #endif /* CHECKSUM_GEN_IP_INLINE */
 929:/Users/nhantt/STM32Cube/Repository/STM32Cube_FW_F4_V1.26.0/Middlewares/Third_Party/LwIP/src/core/ipv4/ip4.c ****     IPH_OFFSET_SET(iphdr, 0);
 835              		.loc 1 929 5 discriminator 3 view .LVU287
 836 0050 0023     		movs	r3, #0
ARM GAS  /var/folders/k2/cd9bl_j17z77g23y6ffqb_400000gn/T//ccJwgoEp.s 			page 36


 837 0052 AB71     		strb	r3, [r5, #6]
 838 0054 EB71     		strb	r3, [r5, #7]
 930:/Users/nhantt/STM32Cube/Repository/STM32Cube_FW_F4_V1.26.0/Middlewares/Third_Party/LwIP/src/core/ipv4/ip4.c ****     IPH_ID_SET(iphdr, lwip_htons(ip_id));
 839              		.loc 1 930 5 discriminator 3 view .LVU288
 840 0056 DFF8A490 		ldr	r9, .L87+20
 841 005a B9F80000 		ldrh	r0, [r9]
 842 005e FFF7FEFF 		bl	lwip_htons
 843              	.LVL63:
 844 0062 A880     		strh	r0, [r5, #4]	@ unaligned
 931:/Users/nhantt/STM32Cube/Repository/STM32Cube_FW_F4_V1.26.0/Middlewares/Third_Party/LwIP/src/core/ipv4/ip4.c **** #if CHECKSUM_GEN_IP_INLINE
 932:/Users/nhantt/STM32Cube/Repository/STM32Cube_FW_F4_V1.26.0/Middlewares/Third_Party/LwIP/src/core/ipv4/ip4.c ****     chk_sum += iphdr->_id;
 933:/Users/nhantt/STM32Cube/Repository/STM32Cube_FW_F4_V1.26.0/Middlewares/Third_Party/LwIP/src/core/ipv4/ip4.c **** #endif /* CHECKSUM_GEN_IP_INLINE */
 934:/Users/nhantt/STM32Cube/Repository/STM32Cube_FW_F4_V1.26.0/Middlewares/Third_Party/LwIP/src/core/ipv4/ip4.c ****     ++ip_id;
 845              		.loc 1 934 5 discriminator 3 view .LVU289
 846 0064 B9F80030 		ldrh	r3, [r9]
 847 0068 0133     		adds	r3, r3, #1
 848 006a A9F80030 		strh	r3, [r9]	@ movhi
 935:/Users/nhantt/STM32Cube/Repository/STM32Cube_FW_F4_V1.26.0/Middlewares/Third_Party/LwIP/src/core/ipv4/ip4.c **** 
 936:/Users/nhantt/STM32Cube/Repository/STM32Cube_FW_F4_V1.26.0/Middlewares/Third_Party/LwIP/src/core/ipv4/ip4.c ****     if (src == NULL) {
 849              		.loc 1 936 5 discriminator 3 view .LVU290
 850              		.loc 1 936 8 is_stmt 0 discriminator 3 view .LVU291
 851 006e 1FB3     		cbz	r7, .L85
 937:/Users/nhantt/STM32Cube/Repository/STM32Cube_FW_F4_V1.26.0/Middlewares/Third_Party/LwIP/src/core/ipv4/ip4.c ****       ip4_addr_copy(iphdr->src, *IP4_ADDR_ANY4);
 938:/Users/nhantt/STM32Cube/Repository/STM32Cube_FW_F4_V1.26.0/Middlewares/Third_Party/LwIP/src/core/ipv4/ip4.c ****     } else {
 939:/Users/nhantt/STM32Cube/Repository/STM32Cube_FW_F4_V1.26.0/Middlewares/Third_Party/LwIP/src/core/ipv4/ip4.c ****       /* src cannot be NULL here */
 940:/Users/nhantt/STM32Cube/Repository/STM32Cube_FW_F4_V1.26.0/Middlewares/Third_Party/LwIP/src/core/ipv4/ip4.c ****       ip4_addr_copy(iphdr->src, *src);
 852              		.loc 1 940 7 is_stmt 1 view .LVU292
 853 0070 3B68     		ldr	r3, [r7]
 854 0072 EB60     		str	r3, [r5, #12]	@ unaligned
 855              	.L77:
 941:/Users/nhantt/STM32Cube/Repository/STM32Cube_FW_F4_V1.26.0/Middlewares/Third_Party/LwIP/src/core/ipv4/ip4.c ****     }
 942:/Users/nhantt/STM32Cube/Repository/STM32Cube_FW_F4_V1.26.0/Middlewares/Third_Party/LwIP/src/core/ipv4/ip4.c **** 
 943:/Users/nhantt/STM32Cube/Repository/STM32Cube_FW_F4_V1.26.0/Middlewares/Third_Party/LwIP/src/core/ipv4/ip4.c **** #if CHECKSUM_GEN_IP_INLINE
 944:/Users/nhantt/STM32Cube/Repository/STM32Cube_FW_F4_V1.26.0/Middlewares/Third_Party/LwIP/src/core/ipv4/ip4.c ****     chk_sum += ip4_addr_get_u32(&iphdr->src) & 0xFFFF;
 945:/Users/nhantt/STM32Cube/Repository/STM32Cube_FW_F4_V1.26.0/Middlewares/Third_Party/LwIP/src/core/ipv4/ip4.c ****     chk_sum += ip4_addr_get_u32(&iphdr->src) >> 16;
 946:/Users/nhantt/STM32Cube/Repository/STM32Cube_FW_F4_V1.26.0/Middlewares/Third_Party/LwIP/src/core/ipv4/ip4.c ****     chk_sum = (chk_sum >> 16) + (chk_sum & 0xFFFF);
 947:/Users/nhantt/STM32Cube/Repository/STM32Cube_FW_F4_V1.26.0/Middlewares/Third_Party/LwIP/src/core/ipv4/ip4.c ****     chk_sum = (chk_sum >> 16) + chk_sum;
 948:/Users/nhantt/STM32Cube/Repository/STM32Cube_FW_F4_V1.26.0/Middlewares/Third_Party/LwIP/src/core/ipv4/ip4.c ****     chk_sum = ~chk_sum;
 949:/Users/nhantt/STM32Cube/Repository/STM32Cube_FW_F4_V1.26.0/Middlewares/Third_Party/LwIP/src/core/ipv4/ip4.c ****     IF__NETIF_CHECKSUM_ENABLED(netif, NETIF_CHECKSUM_GEN_IP) {
 950:/Users/nhantt/STM32Cube/Repository/STM32Cube_FW_F4_V1.26.0/Middlewares/Third_Party/LwIP/src/core/ipv4/ip4.c ****       iphdr->_chksum = (u16_t)chk_sum; /* network order */
 951:/Users/nhantt/STM32Cube/Repository/STM32Cube_FW_F4_V1.26.0/Middlewares/Third_Party/LwIP/src/core/ipv4/ip4.c ****     }
 952:/Users/nhantt/STM32Cube/Repository/STM32Cube_FW_F4_V1.26.0/Middlewares/Third_Party/LwIP/src/core/ipv4/ip4.c **** #if LWIP_CHECKSUM_CTRL_PER_NETIF
 953:/Users/nhantt/STM32Cube/Repository/STM32Cube_FW_F4_V1.26.0/Middlewares/Third_Party/LwIP/src/core/ipv4/ip4.c ****     else {
 954:/Users/nhantt/STM32Cube/Repository/STM32Cube_FW_F4_V1.26.0/Middlewares/Third_Party/LwIP/src/core/ipv4/ip4.c ****       IPH_CHKSUM_SET(iphdr, 0);
 955:/Users/nhantt/STM32Cube/Repository/STM32Cube_FW_F4_V1.26.0/Middlewares/Third_Party/LwIP/src/core/ipv4/ip4.c ****     }
 956:/Users/nhantt/STM32Cube/Repository/STM32Cube_FW_F4_V1.26.0/Middlewares/Third_Party/LwIP/src/core/ipv4/ip4.c **** #endif /* LWIP_CHECKSUM_CTRL_PER_NETIF*/
 957:/Users/nhantt/STM32Cube/Repository/STM32Cube_FW_F4_V1.26.0/Middlewares/Third_Party/LwIP/src/core/ipv4/ip4.c **** #else /* CHECKSUM_GEN_IP_INLINE */
 958:/Users/nhantt/STM32Cube/Repository/STM32Cube_FW_F4_V1.26.0/Middlewares/Third_Party/LwIP/src/core/ipv4/ip4.c ****     IPH_CHKSUM_SET(iphdr, 0);
 856              		.loc 1 958 5 view .LVU293
 857 0074 0023     		movs	r3, #0
 858 0076 AB72     		strb	r3, [r5, #10]
 859 0078 EB72     		strb	r3, [r5, #11]
 860              	.LVL64:
 861              	.L78:
 862              		.loc 1 958 5 is_stmt 0 view .LVU294
 863              	.LBE3:
 959:/Users/nhantt/STM32Cube/Repository/STM32Cube_FW_F4_V1.26.0/Middlewares/Third_Party/LwIP/src/core/ipv4/ip4.c **** #if CHECKSUM_GEN_IP
ARM GAS  /var/folders/k2/cd9bl_j17z77g23y6ffqb_400000gn/T//ccJwgoEp.s 			page 37


 960:/Users/nhantt/STM32Cube/Repository/STM32Cube_FW_F4_V1.26.0/Middlewares/Third_Party/LwIP/src/core/ipv4/ip4.c ****     IF__NETIF_CHECKSUM_ENABLED(netif, NETIF_CHECKSUM_GEN_IP) {
 961:/Users/nhantt/STM32Cube/Repository/STM32Cube_FW_F4_V1.26.0/Middlewares/Third_Party/LwIP/src/core/ipv4/ip4.c ****       IPH_CHKSUM_SET(iphdr, inet_chksum(iphdr, ip_hlen));
 962:/Users/nhantt/STM32Cube/Repository/STM32Cube_FW_F4_V1.26.0/Middlewares/Third_Party/LwIP/src/core/ipv4/ip4.c ****     }
 963:/Users/nhantt/STM32Cube/Repository/STM32Cube_FW_F4_V1.26.0/Middlewares/Third_Party/LwIP/src/core/ipv4/ip4.c **** #endif /* CHECKSUM_GEN_IP */
 964:/Users/nhantt/STM32Cube/Repository/STM32Cube_FW_F4_V1.26.0/Middlewares/Third_Party/LwIP/src/core/ipv4/ip4.c **** #endif /* CHECKSUM_GEN_IP_INLINE */
 965:/Users/nhantt/STM32Cube/Repository/STM32Cube_FW_F4_V1.26.0/Middlewares/Third_Party/LwIP/src/core/ipv4/ip4.c ****   } else {
 966:/Users/nhantt/STM32Cube/Repository/STM32Cube_FW_F4_V1.26.0/Middlewares/Third_Party/LwIP/src/core/ipv4/ip4.c ****     /* IP header already included in p */
 967:/Users/nhantt/STM32Cube/Repository/STM32Cube_FW_F4_V1.26.0/Middlewares/Third_Party/LwIP/src/core/ipv4/ip4.c ****     if (p->len < IP_HLEN) {
 968:/Users/nhantt/STM32Cube/Repository/STM32Cube_FW_F4_V1.26.0/Middlewares/Third_Party/LwIP/src/core/ipv4/ip4.c ****       LWIP_DEBUGF(IP_DEBUG | LWIP_DBG_LEVEL_SERIOUS, ("ip4_output: LWIP_IP_HDRINCL but pbuf is too 
 969:/Users/nhantt/STM32Cube/Repository/STM32Cube_FW_F4_V1.26.0/Middlewares/Third_Party/LwIP/src/core/ipv4/ip4.c ****       IP_STATS_INC(ip.err);
 970:/Users/nhantt/STM32Cube/Repository/STM32Cube_FW_F4_V1.26.0/Middlewares/Third_Party/LwIP/src/core/ipv4/ip4.c ****       MIB2_STATS_INC(mib2.ipoutdiscards);
 971:/Users/nhantt/STM32Cube/Repository/STM32Cube_FW_F4_V1.26.0/Middlewares/Third_Party/LwIP/src/core/ipv4/ip4.c ****       return ERR_BUF;
 972:/Users/nhantt/STM32Cube/Repository/STM32Cube_FW_F4_V1.26.0/Middlewares/Third_Party/LwIP/src/core/ipv4/ip4.c ****     }
 973:/Users/nhantt/STM32Cube/Repository/STM32Cube_FW_F4_V1.26.0/Middlewares/Third_Party/LwIP/src/core/ipv4/ip4.c ****     iphdr = (struct ip_hdr *)p->payload;
 974:/Users/nhantt/STM32Cube/Repository/STM32Cube_FW_F4_V1.26.0/Middlewares/Third_Party/LwIP/src/core/ipv4/ip4.c ****     ip4_addr_copy(dest_addr, iphdr->dest);
 975:/Users/nhantt/STM32Cube/Repository/STM32Cube_FW_F4_V1.26.0/Middlewares/Third_Party/LwIP/src/core/ipv4/ip4.c ****     dest = &dest_addr;
 976:/Users/nhantt/STM32Cube/Repository/STM32Cube_FW_F4_V1.26.0/Middlewares/Third_Party/LwIP/src/core/ipv4/ip4.c ****   }
 977:/Users/nhantt/STM32Cube/Repository/STM32Cube_FW_F4_V1.26.0/Middlewares/Third_Party/LwIP/src/core/ipv4/ip4.c **** 
 978:/Users/nhantt/STM32Cube/Repository/STM32Cube_FW_F4_V1.26.0/Middlewares/Third_Party/LwIP/src/core/ipv4/ip4.c ****   IP_STATS_INC(ip.xmit);
 864              		.loc 1 978 24 is_stmt 1 view .LVU295
 979:/Users/nhantt/STM32Cube/Repository/STM32Cube_FW_F4_V1.26.0/Middlewares/Third_Party/LwIP/src/core/ipv4/ip4.c **** 
 980:/Users/nhantt/STM32Cube/Repository/STM32Cube_FW_F4_V1.26.0/Middlewares/Third_Party/LwIP/src/core/ipv4/ip4.c ****   LWIP_DEBUGF(IP_DEBUG, ("ip4_output_if: %c%c%"U16_F"\n", netif->name[0], netif->name[1], (u16_t)ne
 865              		.loc 1 980 110 view .LVU296
 981:/Users/nhantt/STM32Cube/Repository/STM32Cube_FW_F4_V1.26.0/Middlewares/Third_Party/LwIP/src/core/ipv4/ip4.c ****   ip4_debug_print(p);
 866              		.loc 1 981 21 view .LVU297
 982:/Users/nhantt/STM32Cube/Repository/STM32Cube_FW_F4_V1.26.0/Middlewares/Third_Party/LwIP/src/core/ipv4/ip4.c **** 
 983:/Users/nhantt/STM32Cube/Repository/STM32Cube_FW_F4_V1.26.0/Middlewares/Third_Party/LwIP/src/core/ipv4/ip4.c **** #if ENABLE_LOOPBACK
 984:/Users/nhantt/STM32Cube/Repository/STM32Cube_FW_F4_V1.26.0/Middlewares/Third_Party/LwIP/src/core/ipv4/ip4.c ****   if (ip4_addr_cmp(dest, netif_ip4_addr(netif))
 985:/Users/nhantt/STM32Cube/Repository/STM32Cube_FW_F4_V1.26.0/Middlewares/Third_Party/LwIP/src/core/ipv4/ip4.c **** #if !LWIP_HAVE_LOOPIF
 986:/Users/nhantt/STM32Cube/Repository/STM32Cube_FW_F4_V1.26.0/Middlewares/Third_Party/LwIP/src/core/ipv4/ip4.c ****       || ip4_addr_isloopback(dest)
 987:/Users/nhantt/STM32Cube/Repository/STM32Cube_FW_F4_V1.26.0/Middlewares/Third_Party/LwIP/src/core/ipv4/ip4.c **** #endif /* !LWIP_HAVE_LOOPIF */
 988:/Users/nhantt/STM32Cube/Repository/STM32Cube_FW_F4_V1.26.0/Middlewares/Third_Party/LwIP/src/core/ipv4/ip4.c ****      ) {
 989:/Users/nhantt/STM32Cube/Repository/STM32Cube_FW_F4_V1.26.0/Middlewares/Third_Party/LwIP/src/core/ipv4/ip4.c ****     /* Packet to self, enqueue it for loopback */
 990:/Users/nhantt/STM32Cube/Repository/STM32Cube_FW_F4_V1.26.0/Middlewares/Third_Party/LwIP/src/core/ipv4/ip4.c ****     LWIP_DEBUGF(IP_DEBUG, ("netif_loop_output()"));
 991:/Users/nhantt/STM32Cube/Repository/STM32Cube_FW_F4_V1.26.0/Middlewares/Third_Party/LwIP/src/core/ipv4/ip4.c ****     return netif_loop_output(netif, p);
 992:/Users/nhantt/STM32Cube/Repository/STM32Cube_FW_F4_V1.26.0/Middlewares/Third_Party/LwIP/src/core/ipv4/ip4.c ****   }
 993:/Users/nhantt/STM32Cube/Repository/STM32Cube_FW_F4_V1.26.0/Middlewares/Third_Party/LwIP/src/core/ipv4/ip4.c **** #if LWIP_MULTICAST_TX_OPTIONS
 994:/Users/nhantt/STM32Cube/Repository/STM32Cube_FW_F4_V1.26.0/Middlewares/Third_Party/LwIP/src/core/ipv4/ip4.c ****   if ((p->flags & PBUF_FLAG_MCASTLOOP) != 0) {
 995:/Users/nhantt/STM32Cube/Repository/STM32Cube_FW_F4_V1.26.0/Middlewares/Third_Party/LwIP/src/core/ipv4/ip4.c ****     netif_loop_output(netif, p);
 996:/Users/nhantt/STM32Cube/Repository/STM32Cube_FW_F4_V1.26.0/Middlewares/Third_Party/LwIP/src/core/ipv4/ip4.c ****   }
 997:/Users/nhantt/STM32Cube/Repository/STM32Cube_FW_F4_V1.26.0/Middlewares/Third_Party/LwIP/src/core/ipv4/ip4.c **** #endif /* LWIP_MULTICAST_TX_OPTIONS */
 998:/Users/nhantt/STM32Cube/Repository/STM32Cube_FW_F4_V1.26.0/Middlewares/Third_Party/LwIP/src/core/ipv4/ip4.c **** #endif /* ENABLE_LOOPBACK */
 999:/Users/nhantt/STM32Cube/Repository/STM32Cube_FW_F4_V1.26.0/Middlewares/Third_Party/LwIP/src/core/ipv4/ip4.c **** #if IP_FRAG
1000:/Users/nhantt/STM32Cube/Repository/STM32Cube_FW_F4_V1.26.0/Middlewares/Third_Party/LwIP/src/core/ipv4/ip4.c ****   /* don't fragment if interface has mtu set to 0 [loopif] */
1001:/Users/nhantt/STM32Cube/Repository/STM32Cube_FW_F4_V1.26.0/Middlewares/Third_Party/LwIP/src/core/ipv4/ip4.c ****   if (netif->mtu && (p->tot_len > netif->mtu)) {
 867              		.loc 1 1001 3 view .LVU298
 868              		.loc 1 1001 12 is_stmt 0 view .LVU299
 869 007a B8F82830 		ldrh	r3, [r8, #40]
 870              		.loc 1 1001 6 view .LVU300
 871 007e 13B1     		cbz	r3, .L79
 872              		.loc 1 1001 23 discriminator 1 view .LVU301
 873 0080 2289     		ldrh	r2, [r4, #8]
 874              		.loc 1 1001 18 discriminator 1 view .LVU302
 875 0082 9342     		cmp	r3, r2
 876 0084 24D3     		bcc	.L86
 877              	.L79:
1002:/Users/nhantt/STM32Cube/Repository/STM32Cube_FW_F4_V1.26.0/Middlewares/Third_Party/LwIP/src/core/ipv4/ip4.c ****     return ip4_frag(p, netif, dest);
ARM GAS  /var/folders/k2/cd9bl_j17z77g23y6ffqb_400000gn/T//ccJwgoEp.s 			page 38


1003:/Users/nhantt/STM32Cube/Repository/STM32Cube_FW_F4_V1.26.0/Middlewares/Third_Party/LwIP/src/core/ipv4/ip4.c ****   }
1004:/Users/nhantt/STM32Cube/Repository/STM32Cube_FW_F4_V1.26.0/Middlewares/Third_Party/LwIP/src/core/ipv4/ip4.c **** #endif /* IP_FRAG */
1005:/Users/nhantt/STM32Cube/Repository/STM32Cube_FW_F4_V1.26.0/Middlewares/Third_Party/LwIP/src/core/ipv4/ip4.c **** 
1006:/Users/nhantt/STM32Cube/Repository/STM32Cube_FW_F4_V1.26.0/Middlewares/Third_Party/LwIP/src/core/ipv4/ip4.c ****   LWIP_DEBUGF(IP_DEBUG, ("ip4_output_if: call netif->output()\n"));
 878              		.loc 1 1006 67 is_stmt 1 view .LVU303
1007:/Users/nhantt/STM32Cube/Repository/STM32Cube_FW_F4_V1.26.0/Middlewares/Third_Party/LwIP/src/core/ipv4/ip4.c ****   return netif->output(netif, p, dest);
 879              		.loc 1 1007 3 view .LVU304
 880              		.loc 1 1007 15 is_stmt 0 view .LVU305
 881 0086 D8F81430 		ldr	r3, [r8, #20]
 882              		.loc 1 1007 10 view .LVU306
 883 008a 3246     		mov	r2, r6
 884 008c 2146     		mov	r1, r4
 885 008e 4046     		mov	r0, r8
 886 0090 9847     		blx	r3
 887              	.LVL65:
 888              	.L74:
1008:/Users/nhantt/STM32Cube/Repository/STM32Cube_FW_F4_V1.26.0/Middlewares/Third_Party/LwIP/src/core/ipv4/ip4.c **** }
 889              		.loc 1 1008 1 view .LVU307
 890 0092 03B0     		add	sp, sp, #12
 891              	.LCFI8:
 892              		.cfi_remember_state
 893              		.cfi_def_cfa_offset 28
 894              		@ sp needed
 895 0094 BDE8F083 		pop	{r4, r5, r6, r7, r8, r9, pc}
 896              	.LVL66:
 897              	.L83:
 898              	.LCFI9:
 899              		.cfi_restore_state
 852:/Users/nhantt/STM32Cube/Repository/STM32Cube_FW_F4_V1.26.0/Middlewares/Third_Party/LwIP/src/core/ipv4/ip4.c **** 
 900              		.loc 1 852 3 is_stmt 1 discriminator 1 view .LVU308
 852:/Users/nhantt/STM32Cube/Repository/STM32Cube_FW_F4_V1.26.0/Middlewares/Third_Party/LwIP/src/core/ipv4/ip4.c **** 
 901              		.loc 1 852 3 discriminator 1 view .LVU309
 902 0098 134B     		ldr	r3, .L87
 903              	.LVL67:
 852:/Users/nhantt/STM32Cube/Repository/STM32Cube_FW_F4_V1.26.0/Middlewares/Third_Party/LwIP/src/core/ipv4/ip4.c **** 
 904              		.loc 1 852 3 is_stmt 0 discriminator 1 view .LVU310
 905 009a 4FF45572 		mov	r2, #852
 906 009e 1349     		ldr	r1, .L87+4
 907              	.LVL68:
 852:/Users/nhantt/STM32Cube/Repository/STM32Cube_FW_F4_V1.26.0/Middlewares/Third_Party/LwIP/src/core/ipv4/ip4.c **** 
 908              		.loc 1 852 3 discriminator 1 view .LVU311
 909 00a0 1348     		ldr	r0, .L87+8
 910              	.LVL69:
 852:/Users/nhantt/STM32Cube/Repository/STM32Cube_FW_F4_V1.26.0/Middlewares/Third_Party/LwIP/src/core/ipv4/ip4.c **** 
 911              		.loc 1 852 3 discriminator 1 view .LVU312
 912 00a2 FFF7FEFF 		bl	printf
 913              	.LVL70:
 914 00a6 B7E7     		b	.L72
 915              	.LVL71:
 916              	.L84:
 917              	.LBB4:
 904:/Users/nhantt/STM32Cube/Repository/STM32Cube_FW_F4_V1.26.0/Middlewares/Third_Party/LwIP/src/core/ipv4/ip4.c ****                 (p->len >= sizeof(struct ip_hdr)));
 918              		.loc 1 904 5 is_stmt 1 discriminator 1 view .LVU313
 904:/Users/nhantt/STM32Cube/Repository/STM32Cube_FW_F4_V1.26.0/Middlewares/Third_Party/LwIP/src/core/ipv4/ip4.c ****                 (p->len >= sizeof(struct ip_hdr)));
 919              		.loc 1 904 5 discriminator 1 view .LVU314
 920 00a8 0F4B     		ldr	r3, .L87
 921 00aa 4FF46272 		mov	r2, #904
ARM GAS  /var/folders/k2/cd9bl_j17z77g23y6ffqb_400000gn/T//ccJwgoEp.s 			page 39


 922 00ae 1149     		ldr	r1, .L87+12
 923 00b0 0F48     		ldr	r0, .L87+8
 924 00b2 FFF7FEFF 		bl	printf
 925              	.LVL72:
 926 00b6 BBE7     		b	.L75
 927              	.L85:
 937:/Users/nhantt/STM32Cube/Repository/STM32Cube_FW_F4_V1.26.0/Middlewares/Third_Party/LwIP/src/core/ipv4/ip4.c ****     } else {
 928              		.loc 1 937 7 view .LVU315
 929 00b8 0F4B     		ldr	r3, .L87+16
 930 00ba 1B68     		ldr	r3, [r3]
 931 00bc EB60     		str	r3, [r5, #12]	@ unaligned
 932 00be D9E7     		b	.L77
 933              	.LVL73:
 934              	.L73:
 937:/Users/nhantt/STM32Cube/Repository/STM32Cube_FW_F4_V1.26.0/Middlewares/Third_Party/LwIP/src/core/ipv4/ip4.c ****     } else {
 935              		.loc 1 937 7 is_stmt 0 view .LVU316
 936              	.LBE4:
 967:/Users/nhantt/STM32Cube/Repository/STM32Cube_FW_F4_V1.26.0/Middlewares/Third_Party/LwIP/src/core/ipv4/ip4.c ****       LWIP_DEBUGF(IP_DEBUG | LWIP_DBG_LEVEL_SERIOUS, ("ip4_output: LWIP_IP_HDRINCL but pbuf is too 
 937              		.loc 1 967 5 is_stmt 1 view .LVU317
 967:/Users/nhantt/STM32Cube/Repository/STM32Cube_FW_F4_V1.26.0/Middlewares/Third_Party/LwIP/src/core/ipv4/ip4.c ****       LWIP_DEBUGF(IP_DEBUG | LWIP_DBG_LEVEL_SERIOUS, ("ip4_output: LWIP_IP_HDRINCL but pbuf is too 
 938              		.loc 1 967 10 is_stmt 0 view .LVU318
 939 00c0 6389     		ldrh	r3, [r4, #10]
 967:/Users/nhantt/STM32Cube/Repository/STM32Cube_FW_F4_V1.26.0/Middlewares/Third_Party/LwIP/src/core/ipv4/ip4.c ****       LWIP_DEBUGF(IP_DEBUG | LWIP_DBG_LEVEL_SERIOUS, ("ip4_output: LWIP_IP_HDRINCL but pbuf is too 
 940              		.loc 1 967 8 view .LVU319
 941 00c2 132B     		cmp	r3, #19
 942 00c4 0DD9     		bls	.L81
 973:/Users/nhantt/STM32Cube/Repository/STM32Cube_FW_F4_V1.26.0/Middlewares/Third_Party/LwIP/src/core/ipv4/ip4.c ****     ip4_addr_copy(dest_addr, iphdr->dest);
 943              		.loc 1 973 5 is_stmt 1 view .LVU320
 973:/Users/nhantt/STM32Cube/Repository/STM32Cube_FW_F4_V1.26.0/Middlewares/Third_Party/LwIP/src/core/ipv4/ip4.c ****     ip4_addr_copy(dest_addr, iphdr->dest);
 944              		.loc 1 973 11 is_stmt 0 view .LVU321
 945 00c6 6368     		ldr	r3, [r4, #4]
 946              	.LVL74:
 974:/Users/nhantt/STM32Cube/Repository/STM32Cube_FW_F4_V1.26.0/Middlewares/Third_Party/LwIP/src/core/ipv4/ip4.c ****     dest = &dest_addr;
 947              		.loc 1 974 5 is_stmt 1 view .LVU322
 948 00c8 1B69     		ldr	r3, [r3, #16]	@ unaligned
 949              	.LVL75:
 974:/Users/nhantt/STM32Cube/Repository/STM32Cube_FW_F4_V1.26.0/Middlewares/Third_Party/LwIP/src/core/ipv4/ip4.c ****     dest = &dest_addr;
 950              		.loc 1 974 5 is_stmt 0 view .LVU323
 951 00ca 0193     		str	r3, [sp, #4]
 975:/Users/nhantt/STM32Cube/Repository/STM32Cube_FW_F4_V1.26.0/Middlewares/Third_Party/LwIP/src/core/ipv4/ip4.c ****   }
 952              		.loc 1 975 5 is_stmt 1 view .LVU324
 953              	.LVL76:
 975:/Users/nhantt/STM32Cube/Repository/STM32Cube_FW_F4_V1.26.0/Middlewares/Third_Party/LwIP/src/core/ipv4/ip4.c ****   }
 954              		.loc 1 975 10 is_stmt 0 view .LVU325
 955 00cc 01AE     		add	r6, sp, #4
 956              	.LVL77:
 975:/Users/nhantt/STM32Cube/Repository/STM32Cube_FW_F4_V1.26.0/Middlewares/Third_Party/LwIP/src/core/ipv4/ip4.c ****   }
 957              		.loc 1 975 10 view .LVU326
 958 00ce D4E7     		b	.L78
 959              	.LVL78:
 960              	.L86:
1002:/Users/nhantt/STM32Cube/Repository/STM32Cube_FW_F4_V1.26.0/Middlewares/Third_Party/LwIP/src/core/ipv4/ip4.c ****   }
 961              		.loc 1 1002 5 is_stmt 1 view .LVU327
1002:/Users/nhantt/STM32Cube/Repository/STM32Cube_FW_F4_V1.26.0/Middlewares/Third_Party/LwIP/src/core/ipv4/ip4.c ****   }
 962              		.loc 1 1002 12 is_stmt 0 view .LVU328
 963 00d0 3246     		mov	r2, r6
 964 00d2 4146     		mov	r1, r8
ARM GAS  /var/folders/k2/cd9bl_j17z77g23y6ffqb_400000gn/T//ccJwgoEp.s 			page 40


 965 00d4 2046     		mov	r0, r4
 966 00d6 FFF7FEFF 		bl	ip4_frag
 967              	.LVL79:
 968 00da DAE7     		b	.L74
 969              	.LVL80:
 970              	.L80:
 971              	.LBB5:
 900:/Users/nhantt/STM32Cube/Repository/STM32Cube_FW_F4_V1.26.0/Middlewares/Third_Party/LwIP/src/core/ipv4/ip4.c ****     }
 972              		.loc 1 900 14 view .LVU329
 973 00dc 6FF00100 		mvn	r0, #1
 974 00e0 D7E7     		b	.L74
 975              	.LVL81:
 976              	.L81:
 900:/Users/nhantt/STM32Cube/Repository/STM32Cube_FW_F4_V1.26.0/Middlewares/Third_Party/LwIP/src/core/ipv4/ip4.c ****     }
 977              		.loc 1 900 14 view .LVU330
 978              	.LBE5:
 971:/Users/nhantt/STM32Cube/Repository/STM32Cube_FW_F4_V1.26.0/Middlewares/Third_Party/LwIP/src/core/ipv4/ip4.c ****     }
 979              		.loc 1 971 14 view .LVU331
 980 00e2 6FF00100 		mvn	r0, #1
 981 00e6 D4E7     		b	.L74
 982              	.L88:
 983              		.align	2
 984              	.L87:
 985 00e8 00000000 		.word	.LC0
 986 00ec 6C000000 		.word	.LC1
 987 00f0 78000000 		.word	.LC2
 988 00f4 A0000000 		.word	.LC3
 989 00f8 00000000 		.word	ip_addr_any
 990 00fc 00000000 		.word	.LANCHOR0
 991              		.cfi_endproc
 992              	.LFE159:
 994              		.section	.text.ip4_output_if,"ax",%progbits
 995              		.align	1
 996              		.global	ip4_output_if
 997              		.syntax unified
 998              		.thumb
 999              		.thumb_func
 1000              		.fpu fpv4-sp-d16
 1002              	ip4_output_if:
 1003              	.LVL82:
 1004              	.LFB158:
 790:/Users/nhantt/STM32Cube/Repository/STM32Cube_FW_F4_V1.26.0/Middlewares/Third_Party/LwIP/src/core/ipv4/ip4.c **** #if IP_OPTIONS_SEND
 1005              		.loc 1 790 1 is_stmt 1 view -0
 1006              		.cfi_startproc
 1007              		@ args = 12, pretend = 0, frame = 0
 1008              		@ frame_needed = 0, uses_anonymous_args = 0
 790:/Users/nhantt/STM32Cube/Repository/STM32Cube_FW_F4_V1.26.0/Middlewares/Third_Party/LwIP/src/core/ipv4/ip4.c **** #if IP_OPTIONS_SEND
 1009              		.loc 1 790 1 is_stmt 0 view .LVU333
 1010 0000 10B5     		push	{r4, lr}
 1011              	.LCFI10:
 1012              		.cfi_def_cfa_offset 8
 1013              		.cfi_offset 4, -8
 1014              		.cfi_offset 14, -4
 1015 0002 84B0     		sub	sp, sp, #16
 1016              	.LCFI11:
 1017              		.cfi_def_cfa_offset 24
 1018 0004 089C     		ldr	r4, [sp, #32]
ARM GAS  /var/folders/k2/cd9bl_j17z77g23y6ffqb_400000gn/T//ccJwgoEp.s 			page 41


 807:/Users/nhantt/STM32Cube/Repository/STM32Cube_FW_F4_V1.26.0/Middlewares/Third_Party/LwIP/src/core/ipv4/ip4.c ****   if (dest != LWIP_IP_HDRINCL) {
 1019              		.loc 1 807 3 is_stmt 1 view .LVU334
 1020              	.LVL83:
 808:/Users/nhantt/STM32Cube/Repository/STM32Cube_FW_F4_V1.26.0/Middlewares/Third_Party/LwIP/src/core/ipv4/ip4.c ****     if (ip4_addr_isany(src)) {
 1021              		.loc 1 808 3 view .LVU335
 808:/Users/nhantt/STM32Cube/Repository/STM32Cube_FW_F4_V1.26.0/Middlewares/Third_Party/LwIP/src/core/ipv4/ip4.c ****     if (ip4_addr_isany(src)) {
 1022              		.loc 1 808 6 is_stmt 0 view .LVU336
 1023 0006 9446     		mov	ip, r2
 1024 0008 1AB1     		cbz	r2, .L90
 809:/Users/nhantt/STM32Cube/Repository/STM32Cube_FW_F4_V1.26.0/Middlewares/Third_Party/LwIP/src/core/ipv4/ip4.c ****       src_used = netif_ip4_addr(netif);
 1025              		.loc 1 809 5 is_stmt 1 view .LVU337
 809:/Users/nhantt/STM32Cube/Repository/STM32Cube_FW_F4_V1.26.0/Middlewares/Third_Party/LwIP/src/core/ipv4/ip4.c ****       src_used = netif_ip4_addr(netif);
 1026              		.loc 1 809 8 is_stmt 0 view .LVU338
 1027 000a 09B1     		cbz	r1, .L91
 809:/Users/nhantt/STM32Cube/Repository/STM32Cube_FW_F4_V1.26.0/Middlewares/Third_Party/LwIP/src/core/ipv4/ip4.c ****       src_used = netif_ip4_addr(netif);
 1028              		.loc 1 809 9 discriminator 1 view .LVU339
 1029 000c 0A68     		ldr	r2, [r1]
 1030              	.LVL84:
 809:/Users/nhantt/STM32Cube/Repository/STM32Cube_FW_F4_V1.26.0/Middlewares/Third_Party/LwIP/src/core/ipv4/ip4.c ****       src_used = netif_ip4_addr(netif);
 1031              		.loc 1 809 9 discriminator 1 view .LVU340
 1032 000e 02B9     		cbnz	r2, .L90
 1033              	.L91:
 810:/Users/nhantt/STM32Cube/Repository/STM32Cube_FW_F4_V1.26.0/Middlewares/Third_Party/LwIP/src/core/ipv4/ip4.c ****     }
 1034              		.loc 1 810 7 is_stmt 1 view .LVU341
 810:/Users/nhantt/STM32Cube/Repository/STM32Cube_FW_F4_V1.26.0/Middlewares/Third_Party/LwIP/src/core/ipv4/ip4.c ****     }
 1035              		.loc 1 810 16 is_stmt 0 view .LVU342
 1036 0010 211D     		adds	r1, r4, #4
 1037              	.LVL85:
 1038              	.L90:
 818:/Users/nhantt/STM32Cube/Repository/STM32Cube_FW_F4_V1.26.0/Middlewares/Third_Party/LwIP/src/core/ipv4/ip4.c **** #endif /* IP_OPTIONS_SEND */
 1039              		.loc 1 818 3 is_stmt 1 view .LVU343
 818:/Users/nhantt/STM32Cube/Repository/STM32Cube_FW_F4_V1.26.0/Middlewares/Third_Party/LwIP/src/core/ipv4/ip4.c **** #endif /* IP_OPTIONS_SEND */
 1040              		.loc 1 818 10 is_stmt 0 view .LVU344
 1041 0012 0294     		str	r4, [sp, #8]
 1042 0014 9DF81C20 		ldrb	r2, [sp, #28]	@ zero_extendqisi2
 1043 0018 0192     		str	r2, [sp, #4]
 1044 001a 9DF81820 		ldrb	r2, [sp, #24]	@ zero_extendqisi2
 1045 001e 0092     		str	r2, [sp]
 1046 0020 6246     		mov	r2, ip
 1047 0022 FFF7FEFF 		bl	ip4_output_if_src
 1048              	.LVL86:
 820:/Users/nhantt/STM32Cube/Repository/STM32Cube_FW_F4_V1.26.0/Middlewares/Third_Party/LwIP/src/core/ipv4/ip4.c **** 
 1049              		.loc 1 820 1 view .LVU345
 1050 0026 04B0     		add	sp, sp, #16
 1051              	.LCFI12:
 1052              		.cfi_def_cfa_offset 8
 1053              		@ sp needed
 1054 0028 10BD     		pop	{r4, pc}
 820:/Users/nhantt/STM32Cube/Repository/STM32Cube_FW_F4_V1.26.0/Middlewares/Third_Party/LwIP/src/core/ipv4/ip4.c **** 
 1055              		.loc 1 820 1 view .LVU346
 1056              		.cfi_endproc
 1057              	.LFE158:
 1059              		.section	.text.ip4_output,"ax",%progbits
 1060              		.align	1
 1061              		.global	ip4_output
 1062              		.syntax unified
 1063              		.thumb
ARM GAS  /var/folders/k2/cd9bl_j17z77g23y6ffqb_400000gn/T//ccJwgoEp.s 			page 42


 1064              		.thumb_func
 1065              		.fpu fpv4-sp-d16
 1067              	ip4_output:
 1068              	.LVL87:
 1069              	.LFB160:
1009:/Users/nhantt/STM32Cube/Repository/STM32Cube_FW_F4_V1.26.0/Middlewares/Third_Party/LwIP/src/core/ipv4/ip4.c **** 
1010:/Users/nhantt/STM32Cube/Repository/STM32Cube_FW_F4_V1.26.0/Middlewares/Third_Party/LwIP/src/core/ipv4/ip4.c **** /**
1011:/Users/nhantt/STM32Cube/Repository/STM32Cube_FW_F4_V1.26.0/Middlewares/Third_Party/LwIP/src/core/ipv4/ip4.c ****  * Simple interface to ip_output_if. It finds the outgoing network
1012:/Users/nhantt/STM32Cube/Repository/STM32Cube_FW_F4_V1.26.0/Middlewares/Third_Party/LwIP/src/core/ipv4/ip4.c ****  * interface and calls upon ip_output_if to do the actual work.
1013:/Users/nhantt/STM32Cube/Repository/STM32Cube_FW_F4_V1.26.0/Middlewares/Third_Party/LwIP/src/core/ipv4/ip4.c ****  *
1014:/Users/nhantt/STM32Cube/Repository/STM32Cube_FW_F4_V1.26.0/Middlewares/Third_Party/LwIP/src/core/ipv4/ip4.c ****  * @param p the packet to send (p->payload points to the data, e.g. next
1015:/Users/nhantt/STM32Cube/Repository/STM32Cube_FW_F4_V1.26.0/Middlewares/Third_Party/LwIP/src/core/ipv4/ip4.c ****             protocol header; if dest == LWIP_IP_HDRINCL, p already includes an
1016:/Users/nhantt/STM32Cube/Repository/STM32Cube_FW_F4_V1.26.0/Middlewares/Third_Party/LwIP/src/core/ipv4/ip4.c ****             IP header and p->payload points to that IP header)
1017:/Users/nhantt/STM32Cube/Repository/STM32Cube_FW_F4_V1.26.0/Middlewares/Third_Party/LwIP/src/core/ipv4/ip4.c ****  * @param src the source IP address to send from (if src == IP4_ADDR_ANY, the
1018:/Users/nhantt/STM32Cube/Repository/STM32Cube_FW_F4_V1.26.0/Middlewares/Third_Party/LwIP/src/core/ipv4/ip4.c ****  *         IP  address of the netif used to send is used as source address)
1019:/Users/nhantt/STM32Cube/Repository/STM32Cube_FW_F4_V1.26.0/Middlewares/Third_Party/LwIP/src/core/ipv4/ip4.c ****  * @param dest the destination IP address to send the packet to
1020:/Users/nhantt/STM32Cube/Repository/STM32Cube_FW_F4_V1.26.0/Middlewares/Third_Party/LwIP/src/core/ipv4/ip4.c ****  * @param ttl the TTL value to be set in the IP header
1021:/Users/nhantt/STM32Cube/Repository/STM32Cube_FW_F4_V1.26.0/Middlewares/Third_Party/LwIP/src/core/ipv4/ip4.c ****  * @param tos the TOS value to be set in the IP header
1022:/Users/nhantt/STM32Cube/Repository/STM32Cube_FW_F4_V1.26.0/Middlewares/Third_Party/LwIP/src/core/ipv4/ip4.c ****  * @param proto the PROTOCOL to be set in the IP header
1023:/Users/nhantt/STM32Cube/Repository/STM32Cube_FW_F4_V1.26.0/Middlewares/Third_Party/LwIP/src/core/ipv4/ip4.c ****  *
1024:/Users/nhantt/STM32Cube/Repository/STM32Cube_FW_F4_V1.26.0/Middlewares/Third_Party/LwIP/src/core/ipv4/ip4.c ****  * @return ERR_RTE if no route is found
1025:/Users/nhantt/STM32Cube/Repository/STM32Cube_FW_F4_V1.26.0/Middlewares/Third_Party/LwIP/src/core/ipv4/ip4.c ****  *         see ip_output_if() for more return values
1026:/Users/nhantt/STM32Cube/Repository/STM32Cube_FW_F4_V1.26.0/Middlewares/Third_Party/LwIP/src/core/ipv4/ip4.c ****  */
1027:/Users/nhantt/STM32Cube/Repository/STM32Cube_FW_F4_V1.26.0/Middlewares/Third_Party/LwIP/src/core/ipv4/ip4.c **** err_t
1028:/Users/nhantt/STM32Cube/Repository/STM32Cube_FW_F4_V1.26.0/Middlewares/Third_Party/LwIP/src/core/ipv4/ip4.c **** ip4_output(struct pbuf *p, const ip4_addr_t *src, const ip4_addr_t *dest,
1029:/Users/nhantt/STM32Cube/Repository/STM32Cube_FW_F4_V1.26.0/Middlewares/Third_Party/LwIP/src/core/ipv4/ip4.c ****            u8_t ttl, u8_t tos, u8_t proto)
1030:/Users/nhantt/STM32Cube/Repository/STM32Cube_FW_F4_V1.26.0/Middlewares/Third_Party/LwIP/src/core/ipv4/ip4.c **** {
 1070              		.loc 1 1030 1 is_stmt 1 view -0
 1071              		.cfi_startproc
 1072              		@ args = 8, pretend = 0, frame = 0
 1073              		@ frame_needed = 0, uses_anonymous_args = 0
 1074              		.loc 1 1030 1 is_stmt 0 view .LVU348
 1075 0000 F0B5     		push	{r4, r5, r6, r7, lr}
 1076              	.LCFI13:
 1077              		.cfi_def_cfa_offset 20
 1078              		.cfi_offset 4, -20
 1079              		.cfi_offset 5, -16
 1080              		.cfi_offset 6, -12
 1081              		.cfi_offset 7, -8
 1082              		.cfi_offset 14, -4
 1083 0002 85B0     		sub	sp, sp, #20
 1084              	.LCFI14:
 1085              		.cfi_def_cfa_offset 40
 1086 0004 0446     		mov	r4, r0
 1087 0006 0F46     		mov	r7, r1
 1088 0008 1546     		mov	r5, r2
 1089 000a 1E46     		mov	r6, r3
1031:/Users/nhantt/STM32Cube/Repository/STM32Cube_FW_F4_V1.26.0/Middlewares/Third_Party/LwIP/src/core/ipv4/ip4.c ****   struct netif *netif;
 1090              		.loc 1 1031 3 is_stmt 1 view .LVU349
1032:/Users/nhantt/STM32Cube/Repository/STM32Cube_FW_F4_V1.26.0/Middlewares/Third_Party/LwIP/src/core/ipv4/ip4.c **** 
1033:/Users/nhantt/STM32Cube/Repository/STM32Cube_FW_F4_V1.26.0/Middlewares/Third_Party/LwIP/src/core/ipv4/ip4.c ****   LWIP_IP_CHECK_PBUF_REF_COUNT_FOR_TX(p);
 1091              		.loc 1 1033 3 view .LVU350
 1092              		.loc 1 1033 3 view .LVU351
 1093 000c 827B     		ldrb	r2, [r0, #14]	@ zero_extendqisi2
 1094              	.LVL88:
 1095              		.loc 1 1033 3 is_stmt 0 view .LVU352
 1096 000e 012A     		cmp	r2, #1
ARM GAS  /var/folders/k2/cd9bl_j17z77g23y6ffqb_400000gn/T//ccJwgoEp.s 			page 43


 1097 0010 12D1     		bne	.L98
 1098              	.LVL89:
 1099              	.L94:
 1100              		.loc 1 1033 3 is_stmt 1 discriminator 3 view .LVU353
 1101              		.loc 1 1033 3 discriminator 3 view .LVU354
1034:/Users/nhantt/STM32Cube/Repository/STM32Cube_FW_F4_V1.26.0/Middlewares/Third_Party/LwIP/src/core/ipv4/ip4.c **** 
1035:/Users/nhantt/STM32Cube/Repository/STM32Cube_FW_F4_V1.26.0/Middlewares/Third_Party/LwIP/src/core/ipv4/ip4.c ****   if ((netif = ip4_route_src(src, dest)) == NULL) {
 1102              		.loc 1 1035 3 discriminator 3 view .LVU355
 1103              		.loc 1 1035 16 is_stmt 0 discriminator 3 view .LVU356
 1104 0012 2846     		mov	r0, r5
 1105 0014 FFF7FEFF 		bl	ip4_route
 1106              	.LVL90:
 1107              		.loc 1 1035 6 discriminator 3 view .LVU357
 1108 0018 B0B1     		cbz	r0, .L96
1036:/Users/nhantt/STM32Cube/Repository/STM32Cube_FW_F4_V1.26.0/Middlewares/Third_Party/LwIP/src/core/ipv4/ip4.c ****     LWIP_DEBUGF(IP_DEBUG, ("ip4_output: No route to %"U16_F".%"U16_F".%"U16_F".%"U16_F"\n",
1037:/Users/nhantt/STM32Cube/Repository/STM32Cube_FW_F4_V1.26.0/Middlewares/Third_Party/LwIP/src/core/ipv4/ip4.c ****                            ip4_addr1_16(dest), ip4_addr2_16(dest), ip4_addr3_16(dest), ip4_addr4_16
1038:/Users/nhantt/STM32Cube/Repository/STM32Cube_FW_F4_V1.26.0/Middlewares/Third_Party/LwIP/src/core/ipv4/ip4.c ****     IP_STATS_INC(ip.rterr);
1039:/Users/nhantt/STM32Cube/Repository/STM32Cube_FW_F4_V1.26.0/Middlewares/Third_Party/LwIP/src/core/ipv4/ip4.c ****     return ERR_RTE;
1040:/Users/nhantt/STM32Cube/Repository/STM32Cube_FW_F4_V1.26.0/Middlewares/Third_Party/LwIP/src/core/ipv4/ip4.c ****   }
1041:/Users/nhantt/STM32Cube/Repository/STM32Cube_FW_F4_V1.26.0/Middlewares/Third_Party/LwIP/src/core/ipv4/ip4.c **** 
1042:/Users/nhantt/STM32Cube/Repository/STM32Cube_FW_F4_V1.26.0/Middlewares/Third_Party/LwIP/src/core/ipv4/ip4.c ****   return ip4_output_if(p, src, dest, ttl, tos, proto, netif);
 1109              		.loc 1 1042 3 is_stmt 1 view .LVU358
 1110              		.loc 1 1042 10 is_stmt 0 view .LVU359
 1111 001a 0290     		str	r0, [sp, #8]
 1112 001c 9DF82C30 		ldrb	r3, [sp, #44]	@ zero_extendqisi2
 1113 0020 0193     		str	r3, [sp, #4]
 1114 0022 9DF82830 		ldrb	r3, [sp, #40]	@ zero_extendqisi2
 1115 0026 0093     		str	r3, [sp]
 1116 0028 3346     		mov	r3, r6
 1117 002a 2A46     		mov	r2, r5
 1118 002c 3946     		mov	r1, r7
 1119 002e 2046     		mov	r0, r4
 1120              	.LVL91:
 1121              		.loc 1 1042 10 view .LVU360
 1122 0030 FFF7FEFF 		bl	ip4_output_if
 1123              	.LVL92:
 1124              	.L95:
1043:/Users/nhantt/STM32Cube/Repository/STM32Cube_FW_F4_V1.26.0/Middlewares/Third_Party/LwIP/src/core/ipv4/ip4.c **** }
 1125              		.loc 1 1043 1 view .LVU361
 1126 0034 05B0     		add	sp, sp, #20
 1127              	.LCFI15:
 1128              		.cfi_remember_state
 1129              		.cfi_def_cfa_offset 20
 1130              		@ sp needed
 1131 0036 F0BD     		pop	{r4, r5, r6, r7, pc}
 1132              	.LVL93:
 1133              	.L98:
 1134              	.LCFI16:
 1135              		.cfi_restore_state
1033:/Users/nhantt/STM32Cube/Repository/STM32Cube_FW_F4_V1.26.0/Middlewares/Third_Party/LwIP/src/core/ipv4/ip4.c **** 
 1136              		.loc 1 1033 3 is_stmt 1 discriminator 1 view .LVU362
1033:/Users/nhantt/STM32Cube/Repository/STM32Cube_FW_F4_V1.26.0/Middlewares/Third_Party/LwIP/src/core/ipv4/ip4.c **** 
 1137              		.loc 1 1033 3 discriminator 1 view .LVU363
 1138 0038 054B     		ldr	r3, .L99
 1139              	.LVL94:
1033:/Users/nhantt/STM32Cube/Repository/STM32Cube_FW_F4_V1.26.0/Middlewares/Third_Party/LwIP/src/core/ipv4/ip4.c **** 
 1140              		.loc 1 1033 3 is_stmt 0 discriminator 1 view .LVU364
ARM GAS  /var/folders/k2/cd9bl_j17z77g23y6ffqb_400000gn/T//ccJwgoEp.s 			page 44


 1141 003a 40F20942 		movw	r2, #1033
 1142 003e 0549     		ldr	r1, .L99+4
 1143              	.LVL95:
1033:/Users/nhantt/STM32Cube/Repository/STM32Cube_FW_F4_V1.26.0/Middlewares/Third_Party/LwIP/src/core/ipv4/ip4.c **** 
 1144              		.loc 1 1033 3 discriminator 1 view .LVU365
 1145 0040 0548     		ldr	r0, .L99+8
 1146              	.LVL96:
1033:/Users/nhantt/STM32Cube/Repository/STM32Cube_FW_F4_V1.26.0/Middlewares/Third_Party/LwIP/src/core/ipv4/ip4.c **** 
 1147              		.loc 1 1033 3 discriminator 1 view .LVU366
 1148 0042 FFF7FEFF 		bl	printf
 1149              	.LVL97:
 1150 0046 E4E7     		b	.L94
 1151              	.LVL98:
 1152              	.L96:
1039:/Users/nhantt/STM32Cube/Repository/STM32Cube_FW_F4_V1.26.0/Middlewares/Third_Party/LwIP/src/core/ipv4/ip4.c ****   }
 1153              		.loc 1 1039 12 view .LVU367
