ARM GAS  /var/folders/k2/cd9bl_j17z77g23y6ffqb_400000gn/T//cca38xqy.s 			page 1


   1              		.cpu cortex-m4
   2              		.eabi_attribute 27, 1
   3              		.eabi_attribute 28, 1
   4              		.eabi_attribute 20, 1
   5              		.eabi_attribute 21, 1
   6              		.eabi_attribute 23, 3
   7              		.eabi_attribute 24, 1
   8              		.eabi_attribute 25, 1
   9              		.eabi_attribute 26, 1
  10              		.eabi_attribute 30, 1
  11              		.eabi_attribute 34, 1
  12              		.eabi_attribute 18, 4
  13              		.file	"ip4_addr.c"
  14              		.text
  15              	.Ltext0:
  16              		.cfi_sections	.debug_frame
  17              		.section	.text.ip4_addr_isbroadcast_u32,"ax",%progbits
  18              		.align	1
  19              		.global	ip4_addr_isbroadcast_u32
  20              		.arch armv7e-m
  21              		.syntax unified
  22              		.thumb
  23              		.thumb_func
  24              		.fpu fpv4-sp-d16
  26              	ip4_addr_isbroadcast_u32:
  27              	.LVL0:
  28              	.LFB155:
  29              		.file 1 "/Users/nhantt/STM32Cube/Repository/STM32Cube_FW_F4_V1.26.0/Middlewares/Third_Party/LwIP/s
   1:/Users/nhantt/STM32Cube/Repository/STM32Cube_FW_F4_V1.26.0/Middlewares/Third_Party/LwIP/src/core/ipv4/ip4_addr.c **** /**
   2:/Users/nhantt/STM32Cube/Repository/STM32Cube_FW_F4_V1.26.0/Middlewares/Third_Party/LwIP/src/core/ipv4/ip4_addr.c ****  * @file
   3:/Users/nhantt/STM32Cube/Repository/STM32Cube_FW_F4_V1.26.0/Middlewares/Third_Party/LwIP/src/core/ipv4/ip4_addr.c ****  * This is the IPv4 address tools implementation.
   4:/Users/nhantt/STM32Cube/Repository/STM32Cube_FW_F4_V1.26.0/Middlewares/Third_Party/LwIP/src/core/ipv4/ip4_addr.c ****  *
   5:/Users/nhantt/STM32Cube/Repository/STM32Cube_FW_F4_V1.26.0/Middlewares/Third_Party/LwIP/src/core/ipv4/ip4_addr.c ****  */
   6:/Users/nhantt/STM32Cube/Repository/STM32Cube_FW_F4_V1.26.0/Middlewares/Third_Party/LwIP/src/core/ipv4/ip4_addr.c **** 
   7:/Users/nhantt/STM32Cube/Repository/STM32Cube_FW_F4_V1.26.0/Middlewares/Third_Party/LwIP/src/core/ipv4/ip4_addr.c **** /*
   8:/Users/nhantt/STM32Cube/Repository/STM32Cube_FW_F4_V1.26.0/Middlewares/Third_Party/LwIP/src/core/ipv4/ip4_addr.c ****  * Copyright (c) 2001-2004 Swedish Institute of Computer Science.
   9:/Users/nhantt/STM32Cube/Repository/STM32Cube_FW_F4_V1.26.0/Middlewares/Third_Party/LwIP/src/core/ipv4/ip4_addr.c ****  * All rights reserved.
  10:/Users/nhantt/STM32Cube/Repository/STM32Cube_FW_F4_V1.26.0/Middlewares/Third_Party/LwIP/src/core/ipv4/ip4_addr.c ****  *
  11:/Users/nhantt/STM32Cube/Repository/STM32Cube_FW_F4_V1.26.0/Middlewares/Third_Party/LwIP/src/core/ipv4/ip4_addr.c ****  * Redistribution and use in source and binary forms, with or without modification,
  12:/Users/nhantt/STM32Cube/Repository/STM32Cube_FW_F4_V1.26.0/Middlewares/Third_Party/LwIP/src/core/ipv4/ip4_addr.c ****  * are permitted provided that the following conditions are met:
  13:/Users/nhantt/STM32Cube/Repository/STM32Cube_FW_F4_V1.26.0/Middlewares/Third_Party/LwIP/src/core/ipv4/ip4_addr.c ****  *
  14:/Users/nhantt/STM32Cube/Repository/STM32Cube_FW_F4_V1.26.0/Middlewares/Third_Party/LwIP/src/core/ipv4/ip4_addr.c ****  * 1. Redistributions of source code must retain the above copyright notice,
  15:/Users/nhantt/STM32Cube/Repository/STM32Cube_FW_F4_V1.26.0/Middlewares/Third_Party/LwIP/src/core/ipv4/ip4_addr.c ****  *    this list of conditions and the following disclaimer.
  16:/Users/nhantt/STM32Cube/Repository/STM32Cube_FW_F4_V1.26.0/Middlewares/Third_Party/LwIP/src/core/ipv4/ip4_addr.c ****  * 2. Redistributions in binary form must reproduce the above copyright notice,
  17:/Users/nhantt/STM32Cube/Repository/STM32Cube_FW_F4_V1.26.0/Middlewares/Third_Party/LwIP/src/core/ipv4/ip4_addr.c ****  *    this list of conditions and the following disclaimer in the documentation
  18:/Users/nhantt/STM32Cube/Repository/STM32Cube_FW_F4_V1.26.0/Middlewares/Third_Party/LwIP/src/core/ipv4/ip4_addr.c ****  *    and/or other materials provided with the distribution.
  19:/Users/nhantt/STM32Cube/Repository/STM32Cube_FW_F4_V1.26.0/Middlewares/Third_Party/LwIP/src/core/ipv4/ip4_addr.c ****  * 3. The name of the author may not be used to endorse or promote products
  20:/Users/nhantt/STM32Cube/Repository/STM32Cube_FW_F4_V1.26.0/Middlewares/Third_Party/LwIP/src/core/ipv4/ip4_addr.c ****  *    derived from this software without specific prior written permission.
  21:/Users/nhantt/STM32Cube/Repository/STM32Cube_FW_F4_V1.26.0/Middlewares/Third_Party/LwIP/src/core/ipv4/ip4_addr.c ****  *
  22:/Users/nhantt/STM32Cube/Repository/STM32Cube_FW_F4_V1.26.0/Middlewares/Third_Party/LwIP/src/core/ipv4/ip4_addr.c ****  * THIS SOFTWARE IS PROVIDED BY THE AUTHOR ``AS IS'' AND ANY EXPRESS OR IMPLIED
  23:/Users/nhantt/STM32Cube/Repository/STM32Cube_FW_F4_V1.26.0/Middlewares/Third_Party/LwIP/src/core/ipv4/ip4_addr.c ****  * WARRANTIES, INCLUDING, BUT NOT LIMITED TO, THE IMPLIED WARRANTIES OF
  24:/Users/nhantt/STM32Cube/Repository/STM32Cube_FW_F4_V1.26.0/Middlewares/Third_Party/LwIP/src/core/ipv4/ip4_addr.c ****  * MERCHANTABILITY AND FITNESS FOR A PARTICULAR PURPOSE ARE DISCLAIMED. IN NO EVENT
  25:/Users/nhantt/STM32Cube/Repository/STM32Cube_FW_F4_V1.26.0/Middlewares/Third_Party/LwIP/src/core/ipv4/ip4_addr.c ****  * SHALL THE AUTHOR BE LIABLE FOR ANY DIRECT, INDIRECT, INCIDENTAL, SPECIAL,
  26:/Users/nhantt/STM32Cube/Repository/STM32Cube_FW_F4_V1.26.0/Middlewares/Third_Party/LwIP/src/core/ipv4/ip4_addr.c ****  * EXEMPLARY, OR CONSEQUENTIAL DAMAGES (INCLUDING, BUT NOT LIMITED TO, PROCUREMENT
  27:/Users/nhantt/STM32Cube/Repository/STM32Cube_FW_F4_V1.26.0/Middlewares/Third_Party/LwIP/src/core/ipv4/ip4_addr.c ****  * OF SUBSTITUTE GOODS OR SERVICES; LOSS OF USE, DATA, OR PROFITS; OR BUSINESS
  28:/Users/nhantt/STM32Cube/Repository/STM32Cube_FW_F4_V1.26.0/Middlewares/Third_Party/LwIP/src/core/ipv4/ip4_addr.c ****  * INTERRUPTION) HOWEVER CAUSED AND ON ANY THEORY OF LIABILITY, WHETHER IN
  29:/Users/nhantt/STM32Cube/Repository/STM32Cube_FW_F4_V1.26.0/Middlewares/Third_Party/LwIP/src/core/ipv4/ip4_addr.c ****  * CONTRACT, STRICT LIABILITY, OR TORT (INCLUDING NEGLIGENCE OR OTHERWISE) ARISING
ARM GAS  /var/folders/k2/cd9bl_j17z77g23y6ffqb_400000gn/T//cca38xqy.s 			page 2


  30:/Users/nhantt/STM32Cube/Repository/STM32Cube_FW_F4_V1.26.0/Middlewares/Third_Party/LwIP/src/core/ipv4/ip4_addr.c ****  * IN ANY WAY OUT OF THE USE OF THIS SOFTWARE, EVEN IF ADVISED OF THE POSSIBILITY
  31:/Users/nhantt/STM32Cube/Repository/STM32Cube_FW_F4_V1.26.0/Middlewares/Third_Party/LwIP/src/core/ipv4/ip4_addr.c ****  * OF SUCH DAMAGE.
  32:/Users/nhantt/STM32Cube/Repository/STM32Cube_FW_F4_V1.26.0/Middlewares/Third_Party/LwIP/src/core/ipv4/ip4_addr.c ****  *
  33:/Users/nhantt/STM32Cube/Repository/STM32Cube_FW_F4_V1.26.0/Middlewares/Third_Party/LwIP/src/core/ipv4/ip4_addr.c ****  * This file is part of the lwIP TCP/IP stack.
  34:/Users/nhantt/STM32Cube/Repository/STM32Cube_FW_F4_V1.26.0/Middlewares/Third_Party/LwIP/src/core/ipv4/ip4_addr.c ****  *
  35:/Users/nhantt/STM32Cube/Repository/STM32Cube_FW_F4_V1.26.0/Middlewares/Third_Party/LwIP/src/core/ipv4/ip4_addr.c ****  * Author: Adam Dunkels <adam@sics.se>
  36:/Users/nhantt/STM32Cube/Repository/STM32Cube_FW_F4_V1.26.0/Middlewares/Third_Party/LwIP/src/core/ipv4/ip4_addr.c ****  *
  37:/Users/nhantt/STM32Cube/Repository/STM32Cube_FW_F4_V1.26.0/Middlewares/Third_Party/LwIP/src/core/ipv4/ip4_addr.c ****  */
  38:/Users/nhantt/STM32Cube/Repository/STM32Cube_FW_F4_V1.26.0/Middlewares/Third_Party/LwIP/src/core/ipv4/ip4_addr.c **** 
  39:/Users/nhantt/STM32Cube/Repository/STM32Cube_FW_F4_V1.26.0/Middlewares/Third_Party/LwIP/src/core/ipv4/ip4_addr.c **** #include "lwip/opt.h"
  40:/Users/nhantt/STM32Cube/Repository/STM32Cube_FW_F4_V1.26.0/Middlewares/Third_Party/LwIP/src/core/ipv4/ip4_addr.c **** 
  41:/Users/nhantt/STM32Cube/Repository/STM32Cube_FW_F4_V1.26.0/Middlewares/Third_Party/LwIP/src/core/ipv4/ip4_addr.c **** #if LWIP_IPV4
  42:/Users/nhantt/STM32Cube/Repository/STM32Cube_FW_F4_V1.26.0/Middlewares/Third_Party/LwIP/src/core/ipv4/ip4_addr.c **** 
  43:/Users/nhantt/STM32Cube/Repository/STM32Cube_FW_F4_V1.26.0/Middlewares/Third_Party/LwIP/src/core/ipv4/ip4_addr.c **** #include "lwip/ip_addr.h"
  44:/Users/nhantt/STM32Cube/Repository/STM32Cube_FW_F4_V1.26.0/Middlewares/Third_Party/LwIP/src/core/ipv4/ip4_addr.c **** #include "lwip/netif.h"
  45:/Users/nhantt/STM32Cube/Repository/STM32Cube_FW_F4_V1.26.0/Middlewares/Third_Party/LwIP/src/core/ipv4/ip4_addr.c **** 
  46:/Users/nhantt/STM32Cube/Repository/STM32Cube_FW_F4_V1.26.0/Middlewares/Third_Party/LwIP/src/core/ipv4/ip4_addr.c **** /* used by IP4_ADDR_ANY and IP_ADDR_BROADCAST in ip_addr.h */
  47:/Users/nhantt/STM32Cube/Repository/STM32Cube_FW_F4_V1.26.0/Middlewares/Third_Party/LwIP/src/core/ipv4/ip4_addr.c **** const ip_addr_t ip_addr_any = IPADDR4_INIT(IPADDR_ANY);
  48:/Users/nhantt/STM32Cube/Repository/STM32Cube_FW_F4_V1.26.0/Middlewares/Third_Party/LwIP/src/core/ipv4/ip4_addr.c **** const ip_addr_t ip_addr_broadcast = IPADDR4_INIT(IPADDR_BROADCAST);
  49:/Users/nhantt/STM32Cube/Repository/STM32Cube_FW_F4_V1.26.0/Middlewares/Third_Party/LwIP/src/core/ipv4/ip4_addr.c **** 
  50:/Users/nhantt/STM32Cube/Repository/STM32Cube_FW_F4_V1.26.0/Middlewares/Third_Party/LwIP/src/core/ipv4/ip4_addr.c **** /**
  51:/Users/nhantt/STM32Cube/Repository/STM32Cube_FW_F4_V1.26.0/Middlewares/Third_Party/LwIP/src/core/ipv4/ip4_addr.c ****  * Determine if an address is a broadcast address on a network interface
  52:/Users/nhantt/STM32Cube/Repository/STM32Cube_FW_F4_V1.26.0/Middlewares/Third_Party/LwIP/src/core/ipv4/ip4_addr.c ****  *
  53:/Users/nhantt/STM32Cube/Repository/STM32Cube_FW_F4_V1.26.0/Middlewares/Third_Party/LwIP/src/core/ipv4/ip4_addr.c ****  * @param addr address to be checked
  54:/Users/nhantt/STM32Cube/Repository/STM32Cube_FW_F4_V1.26.0/Middlewares/Third_Party/LwIP/src/core/ipv4/ip4_addr.c ****  * @param netif the network interface against which the address is checked
  55:/Users/nhantt/STM32Cube/Repository/STM32Cube_FW_F4_V1.26.0/Middlewares/Third_Party/LwIP/src/core/ipv4/ip4_addr.c ****  * @return returns non-zero if the address is a broadcast address
  56:/Users/nhantt/STM32Cube/Repository/STM32Cube_FW_F4_V1.26.0/Middlewares/Third_Party/LwIP/src/core/ipv4/ip4_addr.c ****  */
  57:/Users/nhantt/STM32Cube/Repository/STM32Cube_FW_F4_V1.26.0/Middlewares/Third_Party/LwIP/src/core/ipv4/ip4_addr.c **** u8_t
  58:/Users/nhantt/STM32Cube/Repository/STM32Cube_FW_F4_V1.26.0/Middlewares/Third_Party/LwIP/src/core/ipv4/ip4_addr.c **** ip4_addr_isbroadcast_u32(u32_t addr, const struct netif *netif)
  59:/Users/nhantt/STM32Cube/Repository/STM32Cube_FW_F4_V1.26.0/Middlewares/Third_Party/LwIP/src/core/ipv4/ip4_addr.c **** {
  30              		.loc 1 59 1 view -0
  31              		.cfi_startproc
  32              		@ args = 0, pretend = 0, frame = 0
  33              		@ frame_needed = 0, uses_anonymous_args = 0
  34              		@ link register save eliminated.
  35              		.loc 1 59 1 is_stmt 0 view .LVU1
  36 0000 0346     		mov	r3, r0
  60:/Users/nhantt/STM32Cube/Repository/STM32Cube_FW_F4_V1.26.0/Middlewares/Third_Party/LwIP/src/core/ipv4/ip4_addr.c ****   ip4_addr_t ipaddr;
  37              		.loc 1 60 3 is_stmt 1 view .LVU2
  61:/Users/nhantt/STM32Cube/Repository/STM32Cube_FW_F4_V1.26.0/Middlewares/Third_Party/LwIP/src/core/ipv4/ip4_addr.c ****   ip4_addr_set_u32(&ipaddr, addr);
  38              		.loc 1 61 3 view .LVU3
  62:/Users/nhantt/STM32Cube/Repository/STM32Cube_FW_F4_V1.26.0/Middlewares/Third_Party/LwIP/src/core/ipv4/ip4_addr.c **** 
  63:/Users/nhantt/STM32Cube/Repository/STM32Cube_FW_F4_V1.26.0/Middlewares/Third_Party/LwIP/src/core/ipv4/ip4_addr.c ****   /* all ones (broadcast) or all zeroes (old skool broadcast) */
  64:/Users/nhantt/STM32Cube/Repository/STM32Cube_FW_F4_V1.26.0/Middlewares/Third_Party/LwIP/src/core/ipv4/ip4_addr.c ****   if ((~addr == IPADDR_ANY) ||
  39              		.loc 1 64 3 view .LVU4
  40              		.loc 1 64 29 is_stmt 0 view .LVU5
  41 0002 421E     		subs	r2, r0, #1
  42              		.loc 1 64 6 view .LVU6
  43 0004 12F1030F 		cmn	r2, #3
  44 0008 12D8     		bhi	.L3
  65:/Users/nhantt/STM32Cube/Repository/STM32Cube_FW_F4_V1.26.0/Middlewares/Third_Party/LwIP/src/core/ipv4/ip4_addr.c ****       (addr == IPADDR_ANY)) {
  66:/Users/nhantt/STM32Cube/Repository/STM32Cube_FW_F4_V1.26.0/Middlewares/Third_Party/LwIP/src/core/ipv4/ip4_addr.c ****     return 1;
  67:/Users/nhantt/STM32Cube/Repository/STM32Cube_FW_F4_V1.26.0/Middlewares/Third_Party/LwIP/src/core/ipv4/ip4_addr.c ****     /* no broadcast support on this network interface? */
  68:/Users/nhantt/STM32Cube/Repository/STM32Cube_FW_F4_V1.26.0/Middlewares/Third_Party/LwIP/src/core/ipv4/ip4_addr.c ****   } else if ((netif->flags & NETIF_FLAG_BROADCAST) == 0) {
  45              		.loc 1 68 10 is_stmt 1 view .LVU7
  46              		.loc 1 68 20 is_stmt 0 view .LVU8
  47 000a 91F83100 		ldrb	r0, [r1, #49]	@ zero_extendqisi2
ARM GAS  /var/folders/k2/cd9bl_j17z77g23y6ffqb_400000gn/T//cca38xqy.s 			page 3


  48              	.LVL1:
  49              		.loc 1 68 13 view .LVU9
  50 000e 10F00200 		ands	r0, r0, #2
  51 0012 14D0     		beq	.L2
  69:/Users/nhantt/STM32Cube/Repository/STM32Cube_FW_F4_V1.26.0/Middlewares/Third_Party/LwIP/src/core/ipv4/ip4_addr.c ****     /* the given address cannot be a broadcast address
  70:/Users/nhantt/STM32Cube/Repository/STM32Cube_FW_F4_V1.26.0/Middlewares/Third_Party/LwIP/src/core/ipv4/ip4_addr.c ****      * nor can we check against any broadcast addresses */
  71:/Users/nhantt/STM32Cube/Repository/STM32Cube_FW_F4_V1.26.0/Middlewares/Third_Party/LwIP/src/core/ipv4/ip4_addr.c ****     return 0;
  72:/Users/nhantt/STM32Cube/Repository/STM32Cube_FW_F4_V1.26.0/Middlewares/Third_Party/LwIP/src/core/ipv4/ip4_addr.c ****     /* address matches network interface address exactly? => no broadcast */
  73:/Users/nhantt/STM32Cube/Repository/STM32Cube_FW_F4_V1.26.0/Middlewares/Third_Party/LwIP/src/core/ipv4/ip4_addr.c ****   } else if (addr == ip4_addr_get_u32(netif_ip4_addr(netif))) {
  52              		.loc 1 73 10 is_stmt 1 view .LVU10
  53              		.loc 1 73 22 is_stmt 0 view .LVU11
  54 0014 4A68     		ldr	r2, [r1, #4]
  55              		.loc 1 73 13 view .LVU12
  56 0016 9A42     		cmp	r2, r3
  57 0018 0CD0     		beq	.L4
  74:/Users/nhantt/STM32Cube/Repository/STM32Cube_FW_F4_V1.26.0/Middlewares/Third_Party/LwIP/src/core/ipv4/ip4_addr.c ****     return 0;
  75:/Users/nhantt/STM32Cube/Repository/STM32Cube_FW_F4_V1.26.0/Middlewares/Third_Party/LwIP/src/core/ipv4/ip4_addr.c ****     /*  on the same (sub) network... */
  76:/Users/nhantt/STM32Cube/Repository/STM32Cube_FW_F4_V1.26.0/Middlewares/Third_Party/LwIP/src/core/ipv4/ip4_addr.c ****   } else if (ip4_addr_netcmp(&ipaddr, netif_ip4_addr(netif), netif_ip4_netmask(netif))
  58              		.loc 1 76 10 is_stmt 1 view .LVU13
  59              		.loc 1 76 14 is_stmt 0 view .LVU14
  60 001a 8868     		ldr	r0, [r1, #8]
  61 001c 5A40     		eors	r2, r2, r3
  62              		.loc 1 76 13 view .LVU15
  63 001e 0242     		tst	r2, r0
  64 0020 0AD1     		bne	.L5
  77:/Users/nhantt/STM32Cube/Repository/STM32Cube_FW_F4_V1.26.0/Middlewares/Third_Party/LwIP/src/core/ipv4/ip4_addr.c ****              /* ...and host identifier bits are all ones? =>... */
  78:/Users/nhantt/STM32Cube/Repository/STM32Cube_FW_F4_V1.26.0/Middlewares/Third_Party/LwIP/src/core/ipv4/ip4_addr.c ****              && ((addr & ~ip4_addr_get_u32(netif_ip4_netmask(netif))) ==
  65              		.loc 1 78 26 view .LVU16
  66 0022 C243     		mvns	r2, r0
  67              		.loc 1 78 24 view .LVU17
  68 0024 23EA0003 		bic	r3, r3, r0
  69              	.LVL2:
  70              		.loc 1 78 14 view .LVU18
  71 0028 9A42     		cmp	r2, r3
  72 002a 07D0     		beq	.L6
  79:/Users/nhantt/STM32Cube/Repository/STM32Cube_FW_F4_V1.26.0/Middlewares/Third_Party/LwIP/src/core/ipv4/ip4_addr.c ****                  (IPADDR_BROADCAST & ~ip4_addr_get_u32(netif_ip4_netmask(netif))))) {
  80:/Users/nhantt/STM32Cube/Repository/STM32Cube_FW_F4_V1.26.0/Middlewares/Third_Party/LwIP/src/core/ipv4/ip4_addr.c ****     /* => network broadcast address */
  81:/Users/nhantt/STM32Cube/Repository/STM32Cube_FW_F4_V1.26.0/Middlewares/Third_Party/LwIP/src/core/ipv4/ip4_addr.c ****     return 1;
  82:/Users/nhantt/STM32Cube/Repository/STM32Cube_FW_F4_V1.26.0/Middlewares/Third_Party/LwIP/src/core/ipv4/ip4_addr.c ****   } else {
  83:/Users/nhantt/STM32Cube/Repository/STM32Cube_FW_F4_V1.26.0/Middlewares/Third_Party/LwIP/src/core/ipv4/ip4_addr.c ****     return 0;
  73              		.loc 1 83 12 view .LVU19
  74 002c 0020     		movs	r0, #0
  75 002e 7047     		bx	lr
  76              	.LVL3:
  77              	.L3:
  66:/Users/nhantt/STM32Cube/Repository/STM32Cube_FW_F4_V1.26.0/Middlewares/Third_Party/LwIP/src/core/ipv4/ip4_addr.c ****     /* no broadcast support on this network interface? */
  78              		.loc 1 66 12 view .LVU20
  79 0030 0120     		movs	r0, #1
  80              	.LVL4:
  66:/Users/nhantt/STM32Cube/Repository/STM32Cube_FW_F4_V1.26.0/Middlewares/Third_Party/LwIP/src/core/ipv4/ip4_addr.c ****     /* no broadcast support on this network interface? */
  81              		.loc 1 66 12 view .LVU21
  82 0032 7047     		bx	lr
  83              	.L4:
  74:/Users/nhantt/STM32Cube/Repository/STM32Cube_FW_F4_V1.26.0/Middlewares/Third_Party/LwIP/src/core/ipv4/ip4_addr.c ****     /*  on the same (sub) network... */
  84              		.loc 1 74 12 view .LVU22
  85 0034 0020     		movs	r0, #0
  86 0036 7047     		bx	lr
ARM GAS  /var/folders/k2/cd9bl_j17z77g23y6ffqb_400000gn/T//cca38xqy.s 			page 4


  87              	.L5:
  88              		.loc 1 83 12 view .LVU23
  89 0038 0020     		movs	r0, #0
  90 003a 7047     		bx	lr
  91              	.LVL5:
  92              	.L6:
  81:/Users/nhantt/STM32Cube/Repository/STM32Cube_FW_F4_V1.26.0/Middlewares/Third_Party/LwIP/src/core/ipv4/ip4_addr.c ****   } else {
  93              		.loc 1 81 12 view .LVU24
  94 003c 0120     		movs	r0, #1
  95              	.L2:
  84:/Users/nhantt/STM32Cube/Repository/STM32Cube_FW_F4_V1.26.0/Middlewares/Third_Party/LwIP/src/core/ipv4/ip4_addr.c ****   }
  85:/Users/nhantt/STM32Cube/Repository/STM32Cube_FW_F4_V1.26.0/Middlewares/Third_Party/LwIP/src/core/ipv4/ip4_addr.c **** }
  96              		.loc 1 85 1 view .LVU25
  97 003e 7047     		bx	lr
  98              		.cfi_endproc
  99              	.LFE155:
 101              		.section	.text.ip4_addr_netmask_valid,"ax",%progbits
 102              		.align	1
 103              		.global	ip4_addr_netmask_valid
 104              		.syntax unified
 105              		.thumb
 106              		.thumb_func
 107              		.fpu fpv4-sp-d16
 109              	ip4_addr_netmask_valid:
 110              	.LVL6:
 111              	.LFB156:
  86:/Users/nhantt/STM32Cube/Repository/STM32Cube_FW_F4_V1.26.0/Middlewares/Third_Party/LwIP/src/core/ipv4/ip4_addr.c **** 
  87:/Users/nhantt/STM32Cube/Repository/STM32Cube_FW_F4_V1.26.0/Middlewares/Third_Party/LwIP/src/core/ipv4/ip4_addr.c **** /** Checks if a netmask is valid (starting with ones, then only zeros)
  88:/Users/nhantt/STM32Cube/Repository/STM32Cube_FW_F4_V1.26.0/Middlewares/Third_Party/LwIP/src/core/ipv4/ip4_addr.c ****  *
  89:/Users/nhantt/STM32Cube/Repository/STM32Cube_FW_F4_V1.26.0/Middlewares/Third_Party/LwIP/src/core/ipv4/ip4_addr.c ****  * @param netmask the IPv4 netmask to check (in network byte order!)
  90:/Users/nhantt/STM32Cube/Repository/STM32Cube_FW_F4_V1.26.0/Middlewares/Third_Party/LwIP/src/core/ipv4/ip4_addr.c ****  * @return 1 if the netmask is valid, 0 if it is not
  91:/Users/nhantt/STM32Cube/Repository/STM32Cube_FW_F4_V1.26.0/Middlewares/Third_Party/LwIP/src/core/ipv4/ip4_addr.c ****  */
  92:/Users/nhantt/STM32Cube/Repository/STM32Cube_FW_F4_V1.26.0/Middlewares/Third_Party/LwIP/src/core/ipv4/ip4_addr.c **** u8_t
  93:/Users/nhantt/STM32Cube/Repository/STM32Cube_FW_F4_V1.26.0/Middlewares/Third_Party/LwIP/src/core/ipv4/ip4_addr.c **** ip4_addr_netmask_valid(u32_t netmask)
  94:/Users/nhantt/STM32Cube/Repository/STM32Cube_FW_F4_V1.26.0/Middlewares/Third_Party/LwIP/src/core/ipv4/ip4_addr.c **** {
 112              		.loc 1 94 1 is_stmt 1 view -0
 113              		.cfi_startproc
 114              		@ args = 0, pretend = 0, frame = 0
 115              		@ frame_needed = 0, uses_anonymous_args = 0
 116              		.loc 1 94 1 is_stmt 0 view .LVU27
 117 0000 08B5     		push	{r3, lr}
 118              	.LCFI0:
 119              		.cfi_def_cfa_offset 8
 120              		.cfi_offset 3, -8
 121              		.cfi_offset 14, -4
  95:/Users/nhantt/STM32Cube/Repository/STM32Cube_FW_F4_V1.26.0/Middlewares/Third_Party/LwIP/src/core/ipv4/ip4_addr.c ****   u32_t mask;
 122              		.loc 1 95 3 is_stmt 1 view .LVU28
  96:/Users/nhantt/STM32Cube/Repository/STM32Cube_FW_F4_V1.26.0/Middlewares/Third_Party/LwIP/src/core/ipv4/ip4_addr.c ****   u32_t nm_hostorder = lwip_htonl(netmask);
 123              		.loc 1 96 3 view .LVU29
 124              		.loc 1 96 24 is_stmt 0 view .LVU30
 125 0002 FFF7FEFF 		bl	lwip_htonl
 126              	.LVL7:
  97:/Users/nhantt/STM32Cube/Repository/STM32Cube_FW_F4_V1.26.0/Middlewares/Third_Party/LwIP/src/core/ipv4/ip4_addr.c **** 
  98:/Users/nhantt/STM32Cube/Repository/STM32Cube_FW_F4_V1.26.0/Middlewares/Third_Party/LwIP/src/core/ipv4/ip4_addr.c ****   /* first, check for the first zero */
  99:/Users/nhantt/STM32Cube/Repository/STM32Cube_FW_F4_V1.26.0/Middlewares/Third_Party/LwIP/src/core/ipv4/ip4_addr.c ****   for (mask = 1UL << 31 ; mask != 0; mask >>= 1) {
 127              		.loc 1 99 3 is_stmt 1 view .LVU31
 128              		.loc 1 99 13 is_stmt 0 view .LVU32
ARM GAS  /var/folders/k2/cd9bl_j17z77g23y6ffqb_400000gn/T//cca38xqy.s 			page 5


 129 0006 4FF00043 		mov	r3, #-2147483648
 130              	.LVL8:
 131              	.L8:
 132              		.loc 1 99 27 is_stmt 1 discriminator 1 view .LVU33
 133              		.loc 1 99 3 is_stmt 0 discriminator 1 view .LVU34
 134 000a 1BB1     		cbz	r3, .L12
 100:/Users/nhantt/STM32Cube/Repository/STM32Cube_FW_F4_V1.26.0/Middlewares/Third_Party/LwIP/src/core/ipv4/ip4_addr.c ****     if ((nm_hostorder & mask) == 0) {
 135              		.loc 1 100 5 is_stmt 1 view .LVU35
 136              		.loc 1 100 8 is_stmt 0 view .LVU36
 137 000c 0342     		tst	r3, r0
 138 000e 01D0     		beq	.L12
  99:/Users/nhantt/STM32Cube/Repository/STM32Cube_FW_F4_V1.26.0/Middlewares/Third_Party/LwIP/src/core/ipv4/ip4_addr.c ****     if ((nm_hostorder & mask) == 0) {
 139              		.loc 1 99 38 is_stmt 1 discriminator 2 view .LVU37
  99:/Users/nhantt/STM32Cube/Repository/STM32Cube_FW_F4_V1.26.0/Middlewares/Third_Party/LwIP/src/core/ipv4/ip4_addr.c ****     if ((nm_hostorder & mask) == 0) {
 140              		.loc 1 99 43 is_stmt 0 discriminator 2 view .LVU38
 141 0010 5B08     		lsrs	r3, r3, #1
 142              	.LVL9:
  99:/Users/nhantt/STM32Cube/Repository/STM32Cube_FW_F4_V1.26.0/Middlewares/Third_Party/LwIP/src/core/ipv4/ip4_addr.c ****     if ((nm_hostorder & mask) == 0) {
 143              		.loc 1 99 43 discriminator 2 view .LVU39
 144 0012 FAE7     		b	.L8
 145              	.L12:
 101:/Users/nhantt/STM32Cube/Repository/STM32Cube_FW_F4_V1.26.0/Middlewares/Third_Party/LwIP/src/core/ipv4/ip4_addr.c ****       break;
 102:/Users/nhantt/STM32Cube/Repository/STM32Cube_FW_F4_V1.26.0/Middlewares/Third_Party/LwIP/src/core/ipv4/ip4_addr.c ****     }
 103:/Users/nhantt/STM32Cube/Repository/STM32Cube_FW_F4_V1.26.0/Middlewares/Third_Party/LwIP/src/core/ipv4/ip4_addr.c ****   }
 104:/Users/nhantt/STM32Cube/Repository/STM32Cube_FW_F4_V1.26.0/Middlewares/Third_Party/LwIP/src/core/ipv4/ip4_addr.c ****   /* then check that there is no one */
 105:/Users/nhantt/STM32Cube/Repository/STM32Cube_FW_F4_V1.26.0/Middlewares/Third_Party/LwIP/src/core/ipv4/ip4_addr.c ****   for (; mask != 0; mask >>= 1) {
 146              		.loc 1 105 10 is_stmt 1 discriminator 1 view .LVU40
 147              		.loc 1 105 3 is_stmt 0 discriminator 1 view .LVU41
 148 0014 1BB1     		cbz	r3, .L16
 106:/Users/nhantt/STM32Cube/Repository/STM32Cube_FW_F4_V1.26.0/Middlewares/Third_Party/LwIP/src/core/ipv4/ip4_addr.c ****     if ((nm_hostorder & mask) != 0) {
 149              		.loc 1 106 5 is_stmt 1 view .LVU42
 150              		.loc 1 106 8 is_stmt 0 view .LVU43
 151 0016 0342     		tst	r3, r0
 152 0018 03D1     		bne	.L14
 105:/Users/nhantt/STM32Cube/Repository/STM32Cube_FW_F4_V1.26.0/Middlewares/Third_Party/LwIP/src/core/ipv4/ip4_addr.c ****     if ((nm_hostorder & mask) != 0) {
 153              		.loc 1 105 21 is_stmt 1 view .LVU44
 105:/Users/nhantt/STM32Cube/Repository/STM32Cube_FW_F4_V1.26.0/Middlewares/Third_Party/LwIP/src/core/ipv4/ip4_addr.c ****     if ((nm_hostorder & mask) != 0) {
 154              		.loc 1 105 26 is_stmt 0 view .LVU45
 155 001a 5B08     		lsrs	r3, r3, #1
 156              	.LVL10:
 105:/Users/nhantt/STM32Cube/Repository/STM32Cube_FW_F4_V1.26.0/Middlewares/Third_Party/LwIP/src/core/ipv4/ip4_addr.c ****     if ((nm_hostorder & mask) != 0) {
 157              		.loc 1 105 26 view .LVU46
 158 001c FAE7     		b	.L12
 159              	.L16:
 107:/Users/nhantt/STM32Cube/Repository/STM32Cube_FW_F4_V1.26.0/Middlewares/Third_Party/LwIP/src/core/ipv4/ip4_addr.c ****       /* there is a one after the first zero -> invalid */
 108:/Users/nhantt/STM32Cube/Repository/STM32Cube_FW_F4_V1.26.0/Middlewares/Third_Party/LwIP/src/core/ipv4/ip4_addr.c ****       return 0;
 109:/Users/nhantt/STM32Cube/Repository/STM32Cube_FW_F4_V1.26.0/Middlewares/Third_Party/LwIP/src/core/ipv4/ip4_addr.c ****     }
 110:/Users/nhantt/STM32Cube/Repository/STM32Cube_FW_F4_V1.26.0/Middlewares/Third_Party/LwIP/src/core/ipv4/ip4_addr.c ****   }
 111:/Users/nhantt/STM32Cube/Repository/STM32Cube_FW_F4_V1.26.0/Middlewares/Third_Party/LwIP/src/core/ipv4/ip4_addr.c ****   /* no one after the first zero -> valid */
 112:/Users/nhantt/STM32Cube/Repository/STM32Cube_FW_F4_V1.26.0/Middlewares/Third_Party/LwIP/src/core/ipv4/ip4_addr.c ****   return 1;
 160              		.loc 1 112 10 view .LVU47
 161 001e 0120     		movs	r0, #1
 162              	.LVL11:
 163              	.L11:
 113:/Users/nhantt/STM32Cube/Repository/STM32Cube_FW_F4_V1.26.0/Middlewares/Third_Party/LwIP/src/core/ipv4/ip4_addr.c **** }
 164              		.loc 1 113 1 view .LVU48
 165 0020 08BD     		pop	{r3, pc}
ARM GAS  /var/folders/k2/cd9bl_j17z77g23y6ffqb_400000gn/T//cca38xqy.s 			page 6


 166              	.LVL12:
 167              	.L14:
 108:/Users/nhantt/STM32Cube/Repository/STM32Cube_FW_F4_V1.26.0/Middlewares/Third_Party/LwIP/src/core/ipv4/ip4_addr.c ****     }
 168              		.loc 1 108 14 view .LVU49
 169 0022 0020     		movs	r0, #0
 170              	.LVL13:
 108:/Users/nhantt/STM32Cube/Repository/STM32Cube_FW_F4_V1.26.0/Middlewares/Third_Party/LwIP/src/core/ipv4/ip4_addr.c ****     }
 171              		.loc 1 108 14 view .LVU50
 172 0024 FCE7     		b	.L11
 173              		.cfi_endproc
 174              	.LFE156:
 176              		.section	.rodata.ip4addr_aton.str1.4,"aMS",%progbits,1
 177              		.align	2
 178              	.LC0:
 179 0000 2F557365 		.ascii	"/Users/nhantt/STM32Cube/Repository/STM32Cube_FW_F4_"
 179      72732F6E 
 179      68616E74 
 179      742F5354 
 179      4D333243 
 180 0033 56312E32 		.ascii	"V1.26.0/Middlewares/Third_Party/LwIP/src/core/ipv4/"
 180      362E302F 
 180      4D696464 
 180      6C657761 
 180      7265732F 
 181 0066 6970345F 		.ascii	"ip4_addr.c\000"
 181      61646472 
 181      2E6300
 182 0071 000000   		.align	2
 183              	.LC1:
 184 0074 756E6861 		.ascii	"unhandled\000"
 184      6E646C65 
 184      6400
 185 007e 0000     		.align	2
 186              	.LC2:
 187 0080 41737365 		.ascii	"Assertion \"%s\" failed at line %d in %s\012\000"
 187      7274696F 
 187      6E202225 
 187      73222066 
 187      61696C65 
 188              		.section	.text.ip4addr_aton,"ax",%progbits
 189              		.align	1
 190              		.global	ip4addr_aton
 191              		.syntax unified
 192              		.thumb
 193              		.thumb_func
 194              		.fpu fpv4-sp-d16
 196              	ip4addr_aton:
 197              	.LVL14:
 198              	.LFB158:
 114:/Users/nhantt/STM32Cube/Repository/STM32Cube_FW_F4_V1.26.0/Middlewares/Third_Party/LwIP/src/core/ipv4/ip4_addr.c **** 
 115:/Users/nhantt/STM32Cube/Repository/STM32Cube_FW_F4_V1.26.0/Middlewares/Third_Party/LwIP/src/core/ipv4/ip4_addr.c **** /**
 116:/Users/nhantt/STM32Cube/Repository/STM32Cube_FW_F4_V1.26.0/Middlewares/Third_Party/LwIP/src/core/ipv4/ip4_addr.c ****  * Ascii internet address interpretation routine.
 117:/Users/nhantt/STM32Cube/Repository/STM32Cube_FW_F4_V1.26.0/Middlewares/Third_Party/LwIP/src/core/ipv4/ip4_addr.c ****  * The value returned is in network order.
 118:/Users/nhantt/STM32Cube/Repository/STM32Cube_FW_F4_V1.26.0/Middlewares/Third_Party/LwIP/src/core/ipv4/ip4_addr.c ****  *
 119:/Users/nhantt/STM32Cube/Repository/STM32Cube_FW_F4_V1.26.0/Middlewares/Third_Party/LwIP/src/core/ipv4/ip4_addr.c ****  * @param cp IP address in ascii representation (e.g. "127.0.0.1")
 120:/Users/nhantt/STM32Cube/Repository/STM32Cube_FW_F4_V1.26.0/Middlewares/Third_Party/LwIP/src/core/ipv4/ip4_addr.c ****  * @return ip address in network order
 121:/Users/nhantt/STM32Cube/Repository/STM32Cube_FW_F4_V1.26.0/Middlewares/Third_Party/LwIP/src/core/ipv4/ip4_addr.c ****  */
ARM GAS  /var/folders/k2/cd9bl_j17z77g23y6ffqb_400000gn/T//cca38xqy.s 			page 7


 122:/Users/nhantt/STM32Cube/Repository/STM32Cube_FW_F4_V1.26.0/Middlewares/Third_Party/LwIP/src/core/ipv4/ip4_addr.c **** u32_t
 123:/Users/nhantt/STM32Cube/Repository/STM32Cube_FW_F4_V1.26.0/Middlewares/Third_Party/LwIP/src/core/ipv4/ip4_addr.c **** ipaddr_addr(const char *cp)
 124:/Users/nhantt/STM32Cube/Repository/STM32Cube_FW_F4_V1.26.0/Middlewares/Third_Party/LwIP/src/core/ipv4/ip4_addr.c **** {
 125:/Users/nhantt/STM32Cube/Repository/STM32Cube_FW_F4_V1.26.0/Middlewares/Third_Party/LwIP/src/core/ipv4/ip4_addr.c ****   ip4_addr_t val;
 126:/Users/nhantt/STM32Cube/Repository/STM32Cube_FW_F4_V1.26.0/Middlewares/Third_Party/LwIP/src/core/ipv4/ip4_addr.c **** 
 127:/Users/nhantt/STM32Cube/Repository/STM32Cube_FW_F4_V1.26.0/Middlewares/Third_Party/LwIP/src/core/ipv4/ip4_addr.c ****   if (ip4addr_aton(cp, &val)) {
 128:/Users/nhantt/STM32Cube/Repository/STM32Cube_FW_F4_V1.26.0/Middlewares/Third_Party/LwIP/src/core/ipv4/ip4_addr.c ****     return ip4_addr_get_u32(&val);
 129:/Users/nhantt/STM32Cube/Repository/STM32Cube_FW_F4_V1.26.0/Middlewares/Third_Party/LwIP/src/core/ipv4/ip4_addr.c ****   }
 130:/Users/nhantt/STM32Cube/Repository/STM32Cube_FW_F4_V1.26.0/Middlewares/Third_Party/LwIP/src/core/ipv4/ip4_addr.c ****   return (IPADDR_NONE);
 131:/Users/nhantt/STM32Cube/Repository/STM32Cube_FW_F4_V1.26.0/Middlewares/Third_Party/LwIP/src/core/ipv4/ip4_addr.c **** }
 132:/Users/nhantt/STM32Cube/Repository/STM32Cube_FW_F4_V1.26.0/Middlewares/Third_Party/LwIP/src/core/ipv4/ip4_addr.c **** 
 133:/Users/nhantt/STM32Cube/Repository/STM32Cube_FW_F4_V1.26.0/Middlewares/Third_Party/LwIP/src/core/ipv4/ip4_addr.c **** /**
 134:/Users/nhantt/STM32Cube/Repository/STM32Cube_FW_F4_V1.26.0/Middlewares/Third_Party/LwIP/src/core/ipv4/ip4_addr.c ****  * Check whether "cp" is a valid ascii representation
 135:/Users/nhantt/STM32Cube/Repository/STM32Cube_FW_F4_V1.26.0/Middlewares/Third_Party/LwIP/src/core/ipv4/ip4_addr.c ****  * of an Internet address and convert to a binary address.
 136:/Users/nhantt/STM32Cube/Repository/STM32Cube_FW_F4_V1.26.0/Middlewares/Third_Party/LwIP/src/core/ipv4/ip4_addr.c ****  * Returns 1 if the address is valid, 0 if not.
 137:/Users/nhantt/STM32Cube/Repository/STM32Cube_FW_F4_V1.26.0/Middlewares/Third_Party/LwIP/src/core/ipv4/ip4_addr.c ****  * This replaces inet_addr, the return value from which
 138:/Users/nhantt/STM32Cube/Repository/STM32Cube_FW_F4_V1.26.0/Middlewares/Third_Party/LwIP/src/core/ipv4/ip4_addr.c ****  * cannot distinguish between failure and a local broadcast address.
 139:/Users/nhantt/STM32Cube/Repository/STM32Cube_FW_F4_V1.26.0/Middlewares/Third_Party/LwIP/src/core/ipv4/ip4_addr.c ****  *
 140:/Users/nhantt/STM32Cube/Repository/STM32Cube_FW_F4_V1.26.0/Middlewares/Third_Party/LwIP/src/core/ipv4/ip4_addr.c ****  * @param cp IP address in ascii representation (e.g. "127.0.0.1")
 141:/Users/nhantt/STM32Cube/Repository/STM32Cube_FW_F4_V1.26.0/Middlewares/Third_Party/LwIP/src/core/ipv4/ip4_addr.c ****  * @param addr pointer to which to save the ip address in network order
 142:/Users/nhantt/STM32Cube/Repository/STM32Cube_FW_F4_V1.26.0/Middlewares/Third_Party/LwIP/src/core/ipv4/ip4_addr.c ****  * @return 1 if cp could be converted to addr, 0 on failure
 143:/Users/nhantt/STM32Cube/Repository/STM32Cube_FW_F4_V1.26.0/Middlewares/Third_Party/LwIP/src/core/ipv4/ip4_addr.c ****  */
 144:/Users/nhantt/STM32Cube/Repository/STM32Cube_FW_F4_V1.26.0/Middlewares/Third_Party/LwIP/src/core/ipv4/ip4_addr.c **** int
 145:/Users/nhantt/STM32Cube/Repository/STM32Cube_FW_F4_V1.26.0/Middlewares/Third_Party/LwIP/src/core/ipv4/ip4_addr.c **** ip4addr_aton(const char *cp, ip4_addr_t *addr)
 146:/Users/nhantt/STM32Cube/Repository/STM32Cube_FW_F4_V1.26.0/Middlewares/Third_Party/LwIP/src/core/ipv4/ip4_addr.c **** {
 199              		.loc 1 146 1 is_stmt 1 view -0
 200              		.cfi_startproc
 201              		@ args = 0, pretend = 0, frame = 16
 202              		@ frame_needed = 0, uses_anonymous_args = 0
 203              		.loc 1 146 1 is_stmt 0 view .LVU52
 204 0000 30B5     		push	{r4, r5, lr}
 205              	.LCFI1:
 206              		.cfi_def_cfa_offset 12
 207              		.cfi_offset 4, -12
 208              		.cfi_offset 5, -8
 209              		.cfi_offset 14, -4
 210 0002 85B0     		sub	sp, sp, #20
 211              	.LCFI2:
 212              		.cfi_def_cfa_offset 32
 213 0004 0D46     		mov	r5, r1
 147:/Users/nhantt/STM32Cube/Repository/STM32Cube_FW_F4_V1.26.0/Middlewares/Third_Party/LwIP/src/core/ipv4/ip4_addr.c ****   u32_t val;
 214              		.loc 1 147 3 is_stmt 1 view .LVU53
 148:/Users/nhantt/STM32Cube/Repository/STM32Cube_FW_F4_V1.26.0/Middlewares/Third_Party/LwIP/src/core/ipv4/ip4_addr.c ****   u8_t base;
 215              		.loc 1 148 3 view .LVU54
 149:/Users/nhantt/STM32Cube/Repository/STM32Cube_FW_F4_V1.26.0/Middlewares/Third_Party/LwIP/src/core/ipv4/ip4_addr.c ****   char c;
 216              		.loc 1 149 3 view .LVU55
 150:/Users/nhantt/STM32Cube/Repository/STM32Cube_FW_F4_V1.26.0/Middlewares/Third_Party/LwIP/src/core/ipv4/ip4_addr.c ****   u32_t parts[4];
 217              		.loc 1 150 3 view .LVU56
 151:/Users/nhantt/STM32Cube/Repository/STM32Cube_FW_F4_V1.26.0/Middlewares/Third_Party/LwIP/src/core/ipv4/ip4_addr.c ****   u32_t *pp = parts;
 218              		.loc 1 151 3 view .LVU57
 219              	.LVL15:
 152:/Users/nhantt/STM32Cube/Repository/STM32Cube_FW_F4_V1.26.0/Middlewares/Third_Party/LwIP/src/core/ipv4/ip4_addr.c **** 
 153:/Users/nhantt/STM32Cube/Repository/STM32Cube_FW_F4_V1.26.0/Middlewares/Third_Party/LwIP/src/core/ipv4/ip4_addr.c ****   c = *cp;
 220              		.loc 1 153 3 view .LVU58
 221              		.loc 1 153 5 is_stmt 0 view .LVU59
 222 0006 0378     		ldrb	r3, [r0]	@ zero_extendqisi2
 223              	.LVL16:
ARM GAS  /var/folders/k2/cd9bl_j17z77g23y6ffqb_400000gn/T//cca38xqy.s 			page 8


 151:/Users/nhantt/STM32Cube/Repository/STM32Cube_FW_F4_V1.26.0/Middlewares/Third_Party/LwIP/src/core/ipv4/ip4_addr.c ****   u32_t *pp = parts;
 224              		.loc 1 151 10 view .LVU60
 225 0008 EE46     		mov	lr, sp
 226 000a 38E0     		b	.L27
 227              	.LVL17:
 228              	.L54:
 154:/Users/nhantt/STM32Cube/Repository/STM32Cube_FW_F4_V1.26.0/Middlewares/Third_Party/LwIP/src/core/ipv4/ip4_addr.c ****   for (;;) {
 155:/Users/nhantt/STM32Cube/Repository/STM32Cube_FW_F4_V1.26.0/Middlewares/Third_Party/LwIP/src/core/ipv4/ip4_addr.c ****     /*
 156:/Users/nhantt/STM32Cube/Repository/STM32Cube_FW_F4_V1.26.0/Middlewares/Third_Party/LwIP/src/core/ipv4/ip4_addr.c ****      * Collect number up to ``.''.
 157:/Users/nhantt/STM32Cube/Repository/STM32Cube_FW_F4_V1.26.0/Middlewares/Third_Party/LwIP/src/core/ipv4/ip4_addr.c ****      * Values are specified as for C:
 158:/Users/nhantt/STM32Cube/Repository/STM32Cube_FW_F4_V1.26.0/Middlewares/Third_Party/LwIP/src/core/ipv4/ip4_addr.c ****      * 0x=hex, 0=octal, 1-9=decimal.
 159:/Users/nhantt/STM32Cube/Repository/STM32Cube_FW_F4_V1.26.0/Middlewares/Third_Party/LwIP/src/core/ipv4/ip4_addr.c ****      */
 160:/Users/nhantt/STM32Cube/Repository/STM32Cube_FW_F4_V1.26.0/Middlewares/Third_Party/LwIP/src/core/ipv4/ip4_addr.c ****     if (!lwip_isdigit(c)) {
 161:/Users/nhantt/STM32Cube/Repository/STM32Cube_FW_F4_V1.26.0/Middlewares/Third_Party/LwIP/src/core/ipv4/ip4_addr.c ****       return 0;
 162:/Users/nhantt/STM32Cube/Repository/STM32Cube_FW_F4_V1.26.0/Middlewares/Third_Party/LwIP/src/core/ipv4/ip4_addr.c ****     }
 163:/Users/nhantt/STM32Cube/Repository/STM32Cube_FW_F4_V1.26.0/Middlewares/Third_Party/LwIP/src/core/ipv4/ip4_addr.c ****     val = 0;
 164:/Users/nhantt/STM32Cube/Repository/STM32Cube_FW_F4_V1.26.0/Middlewares/Third_Party/LwIP/src/core/ipv4/ip4_addr.c ****     base = 10;
 165:/Users/nhantt/STM32Cube/Repository/STM32Cube_FW_F4_V1.26.0/Middlewares/Third_Party/LwIP/src/core/ipv4/ip4_addr.c ****     if (c == '0') {
 166:/Users/nhantt/STM32Cube/Repository/STM32Cube_FW_F4_V1.26.0/Middlewares/Third_Party/LwIP/src/core/ipv4/ip4_addr.c ****       c = *++cp;
 229              		.loc 1 166 7 is_stmt 1 view .LVU61
 230              		.loc 1 166 9 is_stmt 0 view .LVU62
 231 000c 421C     		adds	r2, r0, #1
 232              	.LVL18:
 233              		.loc 1 166 9 view .LVU63
 234 000e 4378     		ldrb	r3, [r0, #1]	@ zero_extendqisi2
 235              	.LVL19:
 167:/Users/nhantt/STM32Cube/Repository/STM32Cube_FW_F4_V1.26.0/Middlewares/Third_Party/LwIP/src/core/ipv4/ip4_addr.c ****       if (c == 'x' || c == 'X') {
 236              		.loc 1 167 7 is_stmt 1 view .LVU64
 237              		.loc 1 167 10 is_stmt 0 view .LVU65
 238 0010 782B     		cmp	r3, #120
 239 0012 04D0     		beq	.L20
 240              		.loc 1 167 20 discriminator 1 view .LVU66
 241 0014 582B     		cmp	r3, #88
 242 0016 02D0     		beq	.L20
 166:/Users/nhantt/STM32Cube/Repository/STM32Cube_FW_F4_V1.26.0/Middlewares/Third_Party/LwIP/src/core/ipv4/ip4_addr.c ****       if (c == 'x' || c == 'X') {
 243              		.loc 1 166 9 view .LVU67
 244 0018 1046     		mov	r0, r2
 168:/Users/nhantt/STM32Cube/Repository/STM32Cube_FW_F4_V1.26.0/Middlewares/Third_Party/LwIP/src/core/ipv4/ip4_addr.c ****         base = 16;
 169:/Users/nhantt/STM32Cube/Repository/STM32Cube_FW_F4_V1.26.0/Middlewares/Third_Party/LwIP/src/core/ipv4/ip4_addr.c ****         c = *++cp;
 170:/Users/nhantt/STM32Cube/Repository/STM32Cube_FW_F4_V1.26.0/Middlewares/Third_Party/LwIP/src/core/ipv4/ip4_addr.c ****       } else {
 171:/Users/nhantt/STM32Cube/Repository/STM32Cube_FW_F4_V1.26.0/Middlewares/Third_Party/LwIP/src/core/ipv4/ip4_addr.c ****         base = 8;
 245              		.loc 1 171 14 view .LVU68
 246 001a 0821     		movs	r1, #8
 247 001c 37E0     		b	.L19
 248              	.L20:
 168:/Users/nhantt/STM32Cube/Repository/STM32Cube_FW_F4_V1.26.0/Middlewares/Third_Party/LwIP/src/core/ipv4/ip4_addr.c ****         base = 16;
 249              		.loc 1 168 9 is_stmt 1 view .LVU69
 250              	.LVL20:
 169:/Users/nhantt/STM32Cube/Repository/STM32Cube_FW_F4_V1.26.0/Middlewares/Third_Party/LwIP/src/core/ipv4/ip4_addr.c ****       } else {
 251              		.loc 1 169 9 view .LVU70
 169:/Users/nhantt/STM32Cube/Repository/STM32Cube_FW_F4_V1.26.0/Middlewares/Third_Party/LwIP/src/core/ipv4/ip4_addr.c ****       } else {
 252              		.loc 1 169 11 is_stmt 0 view .LVU71
 253 001e 8378     		ldrb	r3, [r0, #2]	@ zero_extendqisi2
 254              	.LVL21:
 169:/Users/nhantt/STM32Cube/Repository/STM32Cube_FW_F4_V1.26.0/Middlewares/Third_Party/LwIP/src/core/ipv4/ip4_addr.c ****       } else {
 255              		.loc 1 169 11 view .LVU72
 256 0020 0230     		adds	r0, r0, #2
ARM GAS  /var/folders/k2/cd9bl_j17z77g23y6ffqb_400000gn/T//cca38xqy.s 			page 9


 257              	.LVL22:
 168:/Users/nhantt/STM32Cube/Repository/STM32Cube_FW_F4_V1.26.0/Middlewares/Third_Party/LwIP/src/core/ipv4/ip4_addr.c ****         base = 16;
 258              		.loc 1 168 14 view .LVU73
 259 0022 1021     		movs	r1, #16
 169:/Users/nhantt/STM32Cube/Repository/STM32Cube_FW_F4_V1.26.0/Middlewares/Third_Party/LwIP/src/core/ipv4/ip4_addr.c ****       } else {
 260              		.loc 1 169 11 view .LVU74
 261 0024 33E0     		b	.L19
 262              	.LVL23:
 263              	.L52:
 172:/Users/nhantt/STM32Cube/Repository/STM32Cube_FW_F4_V1.26.0/Middlewares/Third_Party/LwIP/src/core/ipv4/ip4_addr.c ****       }
 173:/Users/nhantt/STM32Cube/Repository/STM32Cube_FW_F4_V1.26.0/Middlewares/Third_Party/LwIP/src/core/ipv4/ip4_addr.c ****     }
 174:/Users/nhantt/STM32Cube/Repository/STM32Cube_FW_F4_V1.26.0/Middlewares/Third_Party/LwIP/src/core/ipv4/ip4_addr.c ****     for (;;) {
 175:/Users/nhantt/STM32Cube/Repository/STM32Cube_FW_F4_V1.26.0/Middlewares/Third_Party/LwIP/src/core/ipv4/ip4_addr.c ****       if (lwip_isdigit(c)) {
 176:/Users/nhantt/STM32Cube/Repository/STM32Cube_FW_F4_V1.26.0/Middlewares/Third_Party/LwIP/src/core/ipv4/ip4_addr.c ****         val = (val * base) + (u32_t)(c - '0');
 264              		.loc 1 176 9 is_stmt 1 view .LVU75
 265              		.loc 1 176 28 is_stmt 0 view .LVU76
 266 0026 04FB0133 		mla	r3, r4, r1, r3
 267              	.LVL24:
 268              		.loc 1 176 13 view .LVU77
 269 002a A3F13004 		sub	r4, r3, #48
 270              	.LVL25:
 177:/Users/nhantt/STM32Cube/Repository/STM32Cube_FW_F4_V1.26.0/Middlewares/Third_Party/LwIP/src/core/ipv4/ip4_addr.c ****         c = *++cp;
 271              		.loc 1 177 9 is_stmt 1 view .LVU78
 272              		.loc 1 177 11 is_stmt 0 view .LVU79
 273 002e 10F8013F 		ldrb	r3, [r0, #1]!	@ zero_extendqisi2
 274              	.LVL26:
 275              	.L21:
 174:/Users/nhantt/STM32Cube/Repository/STM32Cube_FW_F4_V1.26.0/Middlewares/Third_Party/LwIP/src/core/ipv4/ip4_addr.c ****       if (lwip_isdigit(c)) {
 276              		.loc 1 174 5 is_stmt 1 view .LVU80
 175:/Users/nhantt/STM32Cube/Repository/STM32Cube_FW_F4_V1.26.0/Middlewares/Third_Party/LwIP/src/core/ipv4/ip4_addr.c ****         val = (val * base) + (u32_t)(c - '0');
 277              		.loc 1 175 7 view .LVU81
 175:/Users/nhantt/STM32Cube/Repository/STM32Cube_FW_F4_V1.26.0/Middlewares/Third_Party/LwIP/src/core/ipv4/ip4_addr.c ****         val = (val * base) + (u32_t)(c - '0');
 278              		.loc 1 175 11 is_stmt 0 view .LVU82
 279 0032 494A     		ldr	r2, .L55
 280 0034 13F802C0 		ldrb	ip, [r3, r2]	@ zero_extendqisi2
 175:/Users/nhantt/STM32Cube/Repository/STM32Cube_FW_F4_V1.26.0/Middlewares/Third_Party/LwIP/src/core/ipv4/ip4_addr.c ****         val = (val * base) + (u32_t)(c - '0');
 281              		.loc 1 175 10 view .LVU83
 282 0038 1CF0040F 		tst	ip, #4
 283 003c F3D1     		bne	.L52
 178:/Users/nhantt/STM32Cube/Repository/STM32Cube_FW_F4_V1.26.0/Middlewares/Third_Party/LwIP/src/core/ipv4/ip4_addr.c ****       } else if (base == 16 && lwip_isxdigit(c)) {
 284              		.loc 1 178 14 is_stmt 1 view .LVU84
 285              		.loc 1 178 17 is_stmt 0 view .LVU85
 286 003e 1029     		cmp	r1, #16
 287 0040 12D1     		bne	.L24
 288              		.loc 1 178 29 discriminator 1 view .LVU86
 289 0042 1CF0440F 		tst	ip, #68
 290 0046 0FD0     		beq	.L24
 179:/Users/nhantt/STM32Cube/Repository/STM32Cube_FW_F4_V1.26.0/Middlewares/Third_Party/LwIP/src/core/ipv4/ip4_addr.c ****         val = (val << 4) | (u32_t)(c + 10 - (lwip_islower(c) ? 'a' : 'A'));
 291              		.loc 1 179 9 is_stmt 1 view .LVU87
 292              		.loc 1 179 20 is_stmt 0 view .LVU88
 293 0048 2401     		lsls	r4, r4, #4
 294              	.LVL27:
 295              		.loc 1 179 38 view .LVU89
 296 004a 03F10A02 		add	r2, r3, #10
 297              		.loc 1 179 68 view .LVU90
 298 004e 0CF0030C 		and	ip, ip, #3
 299 0052 BCF1020F 		cmp	ip, #2
ARM GAS  /var/folders/k2/cd9bl_j17z77g23y6ffqb_400000gn/T//cca38xqy.s 			page 10


 300 0056 05D0     		beq	.L53
 301 0058 4123     		movs	r3, #65
 302              	.LVL28:
 303              	.L25:
 304              		.loc 1 179 43 discriminator 4 view .LVU91
 305 005a D21A     		subs	r2, r2, r3
 306              		.loc 1 179 13 discriminator 4 view .LVU92
 307 005c 1443     		orrs	r4, r4, r2
 308              	.LVL29:
 180:/Users/nhantt/STM32Cube/Repository/STM32Cube_FW_F4_V1.26.0/Middlewares/Third_Party/LwIP/src/core/ipv4/ip4_addr.c ****         c = *++cp;
 309              		.loc 1 180 9 is_stmt 1 discriminator 4 view .LVU93
 310              		.loc 1 180 11 is_stmt 0 discriminator 4 view .LVU94
 311 005e 10F8013F 		ldrb	r3, [r0, #1]!	@ zero_extendqisi2
 312              	.LVL30:
 313              		.loc 1 180 11 discriminator 4 view .LVU95
 314 0062 E6E7     		b	.L21
 315              	.LVL31:
 316              	.L53:
 179:/Users/nhantt/STM32Cube/Repository/STM32Cube_FW_F4_V1.26.0/Middlewares/Third_Party/LwIP/src/core/ipv4/ip4_addr.c ****         val = (val << 4) | (u32_t)(c + 10 - (lwip_islower(c) ? 'a' : 'A'));
 317              		.loc 1 179 68 view .LVU96
 318 0064 6123     		movs	r3, #97
 319              	.LVL32:
 179:/Users/nhantt/STM32Cube/Repository/STM32Cube_FW_F4_V1.26.0/Middlewares/Third_Party/LwIP/src/core/ipv4/ip4_addr.c ****         val = (val << 4) | (u32_t)(c + 10 - (lwip_islower(c) ? 'a' : 'A'));
 320              		.loc 1 179 68 view .LVU97
 321 0066 F8E7     		b	.L25
 322              	.LVL33:
 323              	.L24:
 181:/Users/nhantt/STM32Cube/Repository/STM32Cube_FW_F4_V1.26.0/Middlewares/Third_Party/LwIP/src/core/ipv4/ip4_addr.c ****       } else {
 182:/Users/nhantt/STM32Cube/Repository/STM32Cube_FW_F4_V1.26.0/Middlewares/Third_Party/LwIP/src/core/ipv4/ip4_addr.c ****         break;
 183:/Users/nhantt/STM32Cube/Repository/STM32Cube_FW_F4_V1.26.0/Middlewares/Third_Party/LwIP/src/core/ipv4/ip4_addr.c ****       }
 184:/Users/nhantt/STM32Cube/Repository/STM32Cube_FW_F4_V1.26.0/Middlewares/Third_Party/LwIP/src/core/ipv4/ip4_addr.c ****     }
 185:/Users/nhantt/STM32Cube/Repository/STM32Cube_FW_F4_V1.26.0/Middlewares/Third_Party/LwIP/src/core/ipv4/ip4_addr.c ****     if (c == '.') {
 324              		.loc 1 185 5 is_stmt 1 view .LVU98
 325              		.loc 1 185 8 is_stmt 0 view .LVU99
 326 0068 2E2B     		cmp	r3, #46
 327 006a 12D1     		bne	.L26
 186:/Users/nhantt/STM32Cube/Repository/STM32Cube_FW_F4_V1.26.0/Middlewares/Third_Party/LwIP/src/core/ipv4/ip4_addr.c ****       /*
 187:/Users/nhantt/STM32Cube/Repository/STM32Cube_FW_F4_V1.26.0/Middlewares/Third_Party/LwIP/src/core/ipv4/ip4_addr.c ****        * Internet format:
 188:/Users/nhantt/STM32Cube/Repository/STM32Cube_FW_F4_V1.26.0/Middlewares/Third_Party/LwIP/src/core/ipv4/ip4_addr.c ****        *  a.b.c.d
 189:/Users/nhantt/STM32Cube/Repository/STM32Cube_FW_F4_V1.26.0/Middlewares/Third_Party/LwIP/src/core/ipv4/ip4_addr.c ****        *  a.b.c   (with c treated as 16 bits)
 190:/Users/nhantt/STM32Cube/Repository/STM32Cube_FW_F4_V1.26.0/Middlewares/Third_Party/LwIP/src/core/ipv4/ip4_addr.c ****        *  a.b (with b treated as 24 bits)
 191:/Users/nhantt/STM32Cube/Repository/STM32Cube_FW_F4_V1.26.0/Middlewares/Third_Party/LwIP/src/core/ipv4/ip4_addr.c ****        */
 192:/Users/nhantt/STM32Cube/Repository/STM32Cube_FW_F4_V1.26.0/Middlewares/Third_Party/LwIP/src/core/ipv4/ip4_addr.c ****       if (pp >= parts + 3) {
 328              		.loc 1 192 7 is_stmt 1 view .LVU100
 329              		.loc 1 192 10 is_stmt 0 view .LVU101
 330 006c 03AB     		add	r3, sp, #12
 331              	.LVL34:
 332              		.loc 1 192 10 view .LVU102
 333 006e 9E45     		cmp	lr, r3
 334 0070 58D2     		bcs	.L39
 193:/Users/nhantt/STM32Cube/Repository/STM32Cube_FW_F4_V1.26.0/Middlewares/Third_Party/LwIP/src/core/ipv4/ip4_addr.c ****         return 0;
 194:/Users/nhantt/STM32Cube/Repository/STM32Cube_FW_F4_V1.26.0/Middlewares/Third_Party/LwIP/src/core/ipv4/ip4_addr.c ****       }
 195:/Users/nhantt/STM32Cube/Repository/STM32Cube_FW_F4_V1.26.0/Middlewares/Third_Party/LwIP/src/core/ipv4/ip4_addr.c ****       *pp++ = val;
 335              		.loc 1 195 7 is_stmt 1 view .LVU103
 336              		.loc 1 195 10 is_stmt 0 view .LVU104
 337 0072 7246     		mov	r2, lr
 338              	.LVL35:
ARM GAS  /var/folders/k2/cd9bl_j17z77g23y6ffqb_400000gn/T//cca38xqy.s 			page 11


 339              		.loc 1 195 13 view .LVU105
 340 0074 42F8044B 		str	r4, [r2], #4
 341              	.LVL36:
 196:/Users/nhantt/STM32Cube/Repository/STM32Cube_FW_F4_V1.26.0/Middlewares/Third_Party/LwIP/src/core/ipv4/ip4_addr.c ****       c = *++cp;
 342              		.loc 1 196 7 is_stmt 1 view .LVU106
 343              		.loc 1 196 9 is_stmt 0 view .LVU107
 344 0078 4378     		ldrb	r3, [r0, #1]	@ zero_extendqisi2
 345              	.LVL37:
 154:/Users/nhantt/STM32Cube/Repository/STM32Cube_FW_F4_V1.26.0/Middlewares/Third_Party/LwIP/src/core/ipv4/ip4_addr.c ****     /*
 346              		.loc 1 154 9 is_stmt 1 view .LVU108
 195:/Users/nhantt/STM32Cube/Repository/STM32Cube_FW_F4_V1.26.0/Middlewares/Third_Party/LwIP/src/core/ipv4/ip4_addr.c ****       c = *++cp;
 347              		.loc 1 195 10 is_stmt 0 view .LVU109
 348 007a 9646     		mov	lr, r2
 349              		.loc 1 196 9 view .LVU110
 350 007c 0130     		adds	r0, r0, #1
 351              	.LVL38:
 352              	.L27:
 154:/Users/nhantt/STM32Cube/Repository/STM32Cube_FW_F4_V1.26.0/Middlewares/Third_Party/LwIP/src/core/ipv4/ip4_addr.c ****     /*
 353              		.loc 1 154 3 is_stmt 1 view .LVU111
 160:/Users/nhantt/STM32Cube/Repository/STM32Cube_FW_F4_V1.26.0/Middlewares/Third_Party/LwIP/src/core/ipv4/ip4_addr.c ****       return 0;
 354              		.loc 1 160 5 view .LVU112
 160:/Users/nhantt/STM32Cube/Repository/STM32Cube_FW_F4_V1.26.0/Middlewares/Third_Party/LwIP/src/core/ipv4/ip4_addr.c ****       return 0;
 355              		.loc 1 160 10 is_stmt 0 view .LVU113
 356 007e 364A     		ldr	r2, .L55
 357 0080 9A5C     		ldrb	r2, [r3, r2]	@ zero_extendqisi2
 160:/Users/nhantt/STM32Cube/Repository/STM32Cube_FW_F4_V1.26.0/Middlewares/Third_Party/LwIP/src/core/ipv4/ip4_addr.c ****       return 0;
 358              		.loc 1 160 8 view .LVU114
 359 0082 12F0040F 		tst	r2, #4
 360 0086 4BD0     		beq	.L35
 163:/Users/nhantt/STM32Cube/Repository/STM32Cube_FW_F4_V1.26.0/Middlewares/Third_Party/LwIP/src/core/ipv4/ip4_addr.c ****     base = 10;
 361              		.loc 1 163 5 is_stmt 1 view .LVU115
 362              	.LVL39:
 164:/Users/nhantt/STM32Cube/Repository/STM32Cube_FW_F4_V1.26.0/Middlewares/Third_Party/LwIP/src/core/ipv4/ip4_addr.c ****     if (c == '0') {
 363              		.loc 1 164 5 view .LVU116
 165:/Users/nhantt/STM32Cube/Repository/STM32Cube_FW_F4_V1.26.0/Middlewares/Third_Party/LwIP/src/core/ipv4/ip4_addr.c ****       c = *++cp;
 364              		.loc 1 165 5 view .LVU117
 165:/Users/nhantt/STM32Cube/Repository/STM32Cube_FW_F4_V1.26.0/Middlewares/Third_Party/LwIP/src/core/ipv4/ip4_addr.c ****       c = *++cp;
 365              		.loc 1 165 8 is_stmt 0 view .LVU118
 366 0088 302B     		cmp	r3, #48
 367 008a BFD0     		beq	.L54
 164:/Users/nhantt/STM32Cube/Repository/STM32Cube_FW_F4_V1.26.0/Middlewares/Third_Party/LwIP/src/core/ipv4/ip4_addr.c ****     if (c == '0') {
 368              		.loc 1 164 10 view .LVU119
 369 008c 0A21     		movs	r1, #10
 370              	.LVL40:
 371              	.L19:
 171:/Users/nhantt/STM32Cube/Repository/STM32Cube_FW_F4_V1.26.0/Middlewares/Third_Party/LwIP/src/core/ipv4/ip4_addr.c ****       }
 372              		.loc 1 171 14 view .LVU120
 373 008e 0024     		movs	r4, #0
 374 0090 CFE7     		b	.L21
 375              	.LVL41:
 376              	.L26:
 197:/Users/nhantt/STM32Cube/Repository/STM32Cube_FW_F4_V1.26.0/Middlewares/Third_Party/LwIP/src/core/ipv4/ip4_addr.c ****     } else {
 198:/Users/nhantt/STM32Cube/Repository/STM32Cube_FW_F4_V1.26.0/Middlewares/Third_Party/LwIP/src/core/ipv4/ip4_addr.c ****       break;
 199:/Users/nhantt/STM32Cube/Repository/STM32Cube_FW_F4_V1.26.0/Middlewares/Third_Party/LwIP/src/core/ipv4/ip4_addr.c ****     }
 200:/Users/nhantt/STM32Cube/Repository/STM32Cube_FW_F4_V1.26.0/Middlewares/Third_Party/LwIP/src/core/ipv4/ip4_addr.c ****   }
 201:/Users/nhantt/STM32Cube/Repository/STM32Cube_FW_F4_V1.26.0/Middlewares/Third_Party/LwIP/src/core/ipv4/ip4_addr.c ****   /*
 202:/Users/nhantt/STM32Cube/Repository/STM32Cube_FW_F4_V1.26.0/Middlewares/Third_Party/LwIP/src/core/ipv4/ip4_addr.c ****    * Check for trailing characters.
ARM GAS  /var/folders/k2/cd9bl_j17z77g23y6ffqb_400000gn/T//cca38xqy.s 			page 12


 203:/Users/nhantt/STM32Cube/Repository/STM32Cube_FW_F4_V1.26.0/Middlewares/Third_Party/LwIP/src/core/ipv4/ip4_addr.c ****    */
 204:/Users/nhantt/STM32Cube/Repository/STM32Cube_FW_F4_V1.26.0/Middlewares/Third_Party/LwIP/src/core/ipv4/ip4_addr.c ****   if (c != '\0' && !lwip_isspace(c)) {
 377              		.loc 1 204 3 is_stmt 1 view .LVU121
 378              		.loc 1 204 6 is_stmt 0 view .LVU122
 379 0092 13B1     		cbz	r3, .L28
 380              		.loc 1 204 17 discriminator 1 view .LVU123
 381 0094 1CF0080F 		tst	ip, #8
 382 0098 47D0     		beq	.L40
 383              	.L28:
 205:/Users/nhantt/STM32Cube/Repository/STM32Cube_FW_F4_V1.26.0/Middlewares/Third_Party/LwIP/src/core/ipv4/ip4_addr.c ****     return 0;
 206:/Users/nhantt/STM32Cube/Repository/STM32Cube_FW_F4_V1.26.0/Middlewares/Third_Party/LwIP/src/core/ipv4/ip4_addr.c ****   }
 207:/Users/nhantt/STM32Cube/Repository/STM32Cube_FW_F4_V1.26.0/Middlewares/Third_Party/LwIP/src/core/ipv4/ip4_addr.c ****   /*
 208:/Users/nhantt/STM32Cube/Repository/STM32Cube_FW_F4_V1.26.0/Middlewares/Third_Party/LwIP/src/core/ipv4/ip4_addr.c ****    * Concoct the address according to
 209:/Users/nhantt/STM32Cube/Repository/STM32Cube_FW_F4_V1.26.0/Middlewares/Third_Party/LwIP/src/core/ipv4/ip4_addr.c ****    * the number of parts specified.
 210:/Users/nhantt/STM32Cube/Repository/STM32Cube_FW_F4_V1.26.0/Middlewares/Third_Party/LwIP/src/core/ipv4/ip4_addr.c ****    */
 211:/Users/nhantt/STM32Cube/Repository/STM32Cube_FW_F4_V1.26.0/Middlewares/Third_Party/LwIP/src/core/ipv4/ip4_addr.c ****   switch (pp - parts + 1) {
 384              		.loc 1 211 3 is_stmt 1 view .LVU124
 385              		.loc 1 211 14 is_stmt 0 view .LVU125
 386 009a 6846     		mov	r0, sp
 387              	.LVL42:
 388              		.loc 1 211 14 view .LVU126
 389 009c AEEB0000 		sub	r0, lr, r0
 390 00a0 8010     		asrs	r0, r0, #2
 391              		.loc 1 211 22 view .LVU127
 392 00a2 0130     		adds	r0, r0, #1
 393 00a4 0428     		cmp	r0, #4
 394 00a6 34D8     		bhi	.L29
 395 00a8 DFE800F0 		tbb	[pc, r0]
 396              	.LVL43:
 397              	.L31:
 398 00ac 3D       		.byte	(.L17-.L31)/2
 399 00ad 0B       		.byte	(.L34-.L31)/2
 400 00ae 03       		.byte	(.L33-.L31)/2
 401 00af 13       		.byte	(.L32-.L31)/2
 402 00b0 21       		.byte	(.L30-.L31)/2
 403 00b1 00       		.p2align 1
 404              	.L33:
 212:/Users/nhantt/STM32Cube/Repository/STM32Cube_FW_F4_V1.26.0/Middlewares/Third_Party/LwIP/src/core/ipv4/ip4_addr.c **** 
 213:/Users/nhantt/STM32Cube/Repository/STM32Cube_FW_F4_V1.26.0/Middlewares/Third_Party/LwIP/src/core/ipv4/ip4_addr.c ****     case 0:
 214:/Users/nhantt/STM32Cube/Repository/STM32Cube_FW_F4_V1.26.0/Middlewares/Third_Party/LwIP/src/core/ipv4/ip4_addr.c ****       return 0;       /* initial nondigit */
 215:/Users/nhantt/STM32Cube/Repository/STM32Cube_FW_F4_V1.26.0/Middlewares/Third_Party/LwIP/src/core/ipv4/ip4_addr.c **** 
 216:/Users/nhantt/STM32Cube/Repository/STM32Cube_FW_F4_V1.26.0/Middlewares/Third_Party/LwIP/src/core/ipv4/ip4_addr.c ****     case 1:             /* a -- 32 bits */
 217:/Users/nhantt/STM32Cube/Repository/STM32Cube_FW_F4_V1.26.0/Middlewares/Third_Party/LwIP/src/core/ipv4/ip4_addr.c ****       break;
 218:/Users/nhantt/STM32Cube/Repository/STM32Cube_FW_F4_V1.26.0/Middlewares/Third_Party/LwIP/src/core/ipv4/ip4_addr.c **** 
 219:/Users/nhantt/STM32Cube/Repository/STM32Cube_FW_F4_V1.26.0/Middlewares/Third_Party/LwIP/src/core/ipv4/ip4_addr.c ****     case 2:             /* a.b -- 8.24 bits */
 220:/Users/nhantt/STM32Cube/Repository/STM32Cube_FW_F4_V1.26.0/Middlewares/Third_Party/LwIP/src/core/ipv4/ip4_addr.c ****       if (val > 0xffffffUL) {
 405              		.loc 1 220 7 is_stmt 1 view .LVU128
 406              		.loc 1 220 10 is_stmt 0 view .LVU129
 407 00b2 B4F1807F 		cmp	r4, #16777216
 408 00b6 3AD2     		bcs	.L41
 221:/Users/nhantt/STM32Cube/Repository/STM32Cube_FW_F4_V1.26.0/Middlewares/Third_Party/LwIP/src/core/ipv4/ip4_addr.c ****         return 0;
 222:/Users/nhantt/STM32Cube/Repository/STM32Cube_FW_F4_V1.26.0/Middlewares/Third_Party/LwIP/src/core/ipv4/ip4_addr.c ****       }
 223:/Users/nhantt/STM32Cube/Repository/STM32Cube_FW_F4_V1.26.0/Middlewares/Third_Party/LwIP/src/core/ipv4/ip4_addr.c ****       if (parts[0] > 0xff) {
 409              		.loc 1 223 7 is_stmt 1 view .LVU130
 410              		.loc 1 223 16 is_stmt 0 view .LVU131
 411 00b8 009B     		ldr	r3, [sp]
 412              		.loc 1 223 10 view .LVU132
ARM GAS  /var/folders/k2/cd9bl_j17z77g23y6ffqb_400000gn/T//cca38xqy.s 			page 13


 413 00ba FF2B     		cmp	r3, #255
 414 00bc 39D8     		bhi	.L42
 224:/Users/nhantt/STM32Cube/Repository/STM32Cube_FW_F4_V1.26.0/Middlewares/Third_Party/LwIP/src/core/ipv4/ip4_addr.c ****         return 0;
 225:/Users/nhantt/STM32Cube/Repository/STM32Cube_FW_F4_V1.26.0/Middlewares/Third_Party/LwIP/src/core/ipv4/ip4_addr.c ****       }
 226:/Users/nhantt/STM32Cube/Repository/STM32Cube_FW_F4_V1.26.0/Middlewares/Third_Party/LwIP/src/core/ipv4/ip4_addr.c ****       val |= parts[0] << 24;
 415              		.loc 1 226 7 is_stmt 1 view .LVU133
 416              		.loc 1 226 11 is_stmt 0 view .LVU134
 417 00be 44EA0364 		orr	r4, r4, r3, lsl #24
 418              	.LVL44:
 227:/Users/nhantt/STM32Cube/Repository/STM32Cube_FW_F4_V1.26.0/Middlewares/Third_Party/LwIP/src/core/ipv4/ip4_addr.c ****       break;
 419              		.loc 1 227 7 is_stmt 1 view .LVU135
 420              	.L34:
 228:/Users/nhantt/STM32Cube/Repository/STM32Cube_FW_F4_V1.26.0/Middlewares/Third_Party/LwIP/src/core/ipv4/ip4_addr.c **** 
 229:/Users/nhantt/STM32Cube/Repository/STM32Cube_FW_F4_V1.26.0/Middlewares/Third_Party/LwIP/src/core/ipv4/ip4_addr.c ****     case 3:             /* a.b.c -- 8.8.16 bits */
 230:/Users/nhantt/STM32Cube/Repository/STM32Cube_FW_F4_V1.26.0/Middlewares/Third_Party/LwIP/src/core/ipv4/ip4_addr.c ****       if (val > 0xffff) {
 231:/Users/nhantt/STM32Cube/Repository/STM32Cube_FW_F4_V1.26.0/Middlewares/Third_Party/LwIP/src/core/ipv4/ip4_addr.c ****         return 0;
 232:/Users/nhantt/STM32Cube/Repository/STM32Cube_FW_F4_V1.26.0/Middlewares/Third_Party/LwIP/src/core/ipv4/ip4_addr.c ****       }
 233:/Users/nhantt/STM32Cube/Repository/STM32Cube_FW_F4_V1.26.0/Middlewares/Third_Party/LwIP/src/core/ipv4/ip4_addr.c ****       if ((parts[0] > 0xff) || (parts[1] > 0xff)) {
 234:/Users/nhantt/STM32Cube/Repository/STM32Cube_FW_F4_V1.26.0/Middlewares/Third_Party/LwIP/src/core/ipv4/ip4_addr.c ****         return 0;
 235:/Users/nhantt/STM32Cube/Repository/STM32Cube_FW_F4_V1.26.0/Middlewares/Third_Party/LwIP/src/core/ipv4/ip4_addr.c ****       }
 236:/Users/nhantt/STM32Cube/Repository/STM32Cube_FW_F4_V1.26.0/Middlewares/Third_Party/LwIP/src/core/ipv4/ip4_addr.c ****       val |= (parts[0] << 24) | (parts[1] << 16);
 237:/Users/nhantt/STM32Cube/Repository/STM32Cube_FW_F4_V1.26.0/Middlewares/Third_Party/LwIP/src/core/ipv4/ip4_addr.c ****       break;
 238:/Users/nhantt/STM32Cube/Repository/STM32Cube_FW_F4_V1.26.0/Middlewares/Third_Party/LwIP/src/core/ipv4/ip4_addr.c **** 
 239:/Users/nhantt/STM32Cube/Repository/STM32Cube_FW_F4_V1.26.0/Middlewares/Third_Party/LwIP/src/core/ipv4/ip4_addr.c ****     case 4:             /* a.b.c.d -- 8.8.8.8 bits */
 240:/Users/nhantt/STM32Cube/Repository/STM32Cube_FW_F4_V1.26.0/Middlewares/Third_Party/LwIP/src/core/ipv4/ip4_addr.c ****       if (val > 0xff) {
 241:/Users/nhantt/STM32Cube/Repository/STM32Cube_FW_F4_V1.26.0/Middlewares/Third_Party/LwIP/src/core/ipv4/ip4_addr.c ****         return 0;
 242:/Users/nhantt/STM32Cube/Repository/STM32Cube_FW_F4_V1.26.0/Middlewares/Third_Party/LwIP/src/core/ipv4/ip4_addr.c ****       }
 243:/Users/nhantt/STM32Cube/Repository/STM32Cube_FW_F4_V1.26.0/Middlewares/Third_Party/LwIP/src/core/ipv4/ip4_addr.c ****       if ((parts[0] > 0xff) || (parts[1] > 0xff) || (parts[2] > 0xff)) {
 244:/Users/nhantt/STM32Cube/Repository/STM32Cube_FW_F4_V1.26.0/Middlewares/Third_Party/LwIP/src/core/ipv4/ip4_addr.c ****         return 0;
 245:/Users/nhantt/STM32Cube/Repository/STM32Cube_FW_F4_V1.26.0/Middlewares/Third_Party/LwIP/src/core/ipv4/ip4_addr.c ****       }
 246:/Users/nhantt/STM32Cube/Repository/STM32Cube_FW_F4_V1.26.0/Middlewares/Third_Party/LwIP/src/core/ipv4/ip4_addr.c ****       val |= (parts[0] << 24) | (parts[1] << 16) | (parts[2] << 8);
 247:/Users/nhantt/STM32Cube/Repository/STM32Cube_FW_F4_V1.26.0/Middlewares/Third_Party/LwIP/src/core/ipv4/ip4_addr.c ****       break;
 248:/Users/nhantt/STM32Cube/Repository/STM32Cube_FW_F4_V1.26.0/Middlewares/Third_Party/LwIP/src/core/ipv4/ip4_addr.c ****     default:
 249:/Users/nhantt/STM32Cube/Repository/STM32Cube_FW_F4_V1.26.0/Middlewares/Third_Party/LwIP/src/core/ipv4/ip4_addr.c ****       LWIP_ASSERT("unhandled", 0);
 250:/Users/nhantt/STM32Cube/Repository/STM32Cube_FW_F4_V1.26.0/Middlewares/Third_Party/LwIP/src/core/ipv4/ip4_addr.c ****       break;
 251:/Users/nhantt/STM32Cube/Repository/STM32Cube_FW_F4_V1.26.0/Middlewares/Third_Party/LwIP/src/core/ipv4/ip4_addr.c ****   }
 252:/Users/nhantt/STM32Cube/Repository/STM32Cube_FW_F4_V1.26.0/Middlewares/Third_Party/LwIP/src/core/ipv4/ip4_addr.c ****   if (addr) {
 421              		.loc 1 252 3 view .LVU136
 422              		.loc 1 252 6 is_stmt 0 view .LVU137
 423 00c2 002D     		cmp	r5, #0
 424 00c4 45D0     		beq	.L50
 253:/Users/nhantt/STM32Cube/Repository/STM32Cube_FW_F4_V1.26.0/Middlewares/Third_Party/LwIP/src/core/ipv4/ip4_addr.c ****     ip4_addr_set_u32(addr, lwip_htonl(val));
 425              		.loc 1 253 5 is_stmt 1 view .LVU138
 426 00c6 2046     		mov	r0, r4
 427 00c8 FFF7FEFF 		bl	lwip_htonl
 428              	.LVL45:
 429 00cc 2860     		str	r0, [r5]
 254:/Users/nhantt/STM32Cube/Repository/STM32Cube_FW_F4_V1.26.0/Middlewares/Third_Party/LwIP/src/core/ipv4/ip4_addr.c ****   }
 255:/Users/nhantt/STM32Cube/Repository/STM32Cube_FW_F4_V1.26.0/Middlewares/Third_Party/LwIP/src/core/ipv4/ip4_addr.c ****   return 1;
 430              		.loc 1 255 10 is_stmt 0 view .LVU139
 431 00ce 0120     		movs	r0, #1
 432 00d0 29E0     		b	.L17
 433              	.LVL46:
 434              	.L32:
 230:/Users/nhantt/STM32Cube/Repository/STM32Cube_FW_F4_V1.26.0/Middlewares/Third_Party/LwIP/src/core/ipv4/ip4_addr.c ****         return 0;
 435              		.loc 1 230 7 is_stmt 1 view .LVU140
 230:/Users/nhantt/STM32Cube/Repository/STM32Cube_FW_F4_V1.26.0/Middlewares/Third_Party/LwIP/src/core/ipv4/ip4_addr.c ****         return 0;
ARM GAS  /var/folders/k2/cd9bl_j17z77g23y6ffqb_400000gn/T//cca38xqy.s 			page 14


 436              		.loc 1 230 10 is_stmt 0 view .LVU141
 437 00d2 B4F5803F 		cmp	r4, #65536
 438 00d6 2ED2     		bcs	.L43
 233:/Users/nhantt/STM32Cube/Repository/STM32Cube_FW_F4_V1.26.0/Middlewares/Third_Party/LwIP/src/core/ipv4/ip4_addr.c ****         return 0;
 439              		.loc 1 233 7 is_stmt 1 view .LVU142
 233:/Users/nhantt/STM32Cube/Repository/STM32Cube_FW_F4_V1.26.0/Middlewares/Third_Party/LwIP/src/core/ipv4/ip4_addr.c ****         return 0;
 440              		.loc 1 233 17 is_stmt 0 view .LVU143
 441 00d8 009A     		ldr	r2, [sp]
 233:/Users/nhantt/STM32Cube/Repository/STM32Cube_FW_F4_V1.26.0/Middlewares/Third_Party/LwIP/src/core/ipv4/ip4_addr.c ****         return 0;
 442              		.loc 1 233 10 view .LVU144
 443 00da FF2A     		cmp	r2, #255
 444 00dc 2DD8     		bhi	.L44
 233:/Users/nhantt/STM32Cube/Repository/STM32Cube_FW_F4_V1.26.0/Middlewares/Third_Party/LwIP/src/core/ipv4/ip4_addr.c ****         return 0;
 445              		.loc 1 233 38 discriminator 1 view .LVU145
 446 00de 019B     		ldr	r3, [sp, #4]
 233:/Users/nhantt/STM32Cube/Repository/STM32Cube_FW_F4_V1.26.0/Middlewares/Third_Party/LwIP/src/core/ipv4/ip4_addr.c ****         return 0;
 447              		.loc 1 233 29 discriminator 1 view .LVU146
 448 00e0 FF2B     		cmp	r3, #255
 449 00e2 2CD8     		bhi	.L45
 236:/Users/nhantt/STM32Cube/Repository/STM32Cube_FW_F4_V1.26.0/Middlewares/Third_Party/LwIP/src/core/ipv4/ip4_addr.c ****       break;
 450              		.loc 1 236 7 is_stmt 1 view .LVU147
 236:/Users/nhantt/STM32Cube/Repository/STM32Cube_FW_F4_V1.26.0/Middlewares/Third_Party/LwIP/src/core/ipv4/ip4_addr.c ****       break;
 451              		.loc 1 236 43 is_stmt 0 view .LVU148
 452 00e4 1B04     		lsls	r3, r3, #16
 236:/Users/nhantt/STM32Cube/Repository/STM32Cube_FW_F4_V1.26.0/Middlewares/Third_Party/LwIP/src/core/ipv4/ip4_addr.c ****       break;
 453              		.loc 1 236 31 view .LVU149
 454 00e6 43EA0263 		orr	r3, r3, r2, lsl #24
 236:/Users/nhantt/STM32Cube/Repository/STM32Cube_FW_F4_V1.26.0/Middlewares/Third_Party/LwIP/src/core/ipv4/ip4_addr.c ****       break;
 455              		.loc 1 236 11 view .LVU150
 456 00ea 1C43     		orrs	r4, r4, r3
 457              	.LVL47:
 237:/Users/nhantt/STM32Cube/Repository/STM32Cube_FW_F4_V1.26.0/Middlewares/Third_Party/LwIP/src/core/ipv4/ip4_addr.c **** 
 458              		.loc 1 237 7 is_stmt 1 view .LVU151
 459 00ec E9E7     		b	.L34
 460              	.L30:
 240:/Users/nhantt/STM32Cube/Repository/STM32Cube_FW_F4_V1.26.0/Middlewares/Third_Party/LwIP/src/core/ipv4/ip4_addr.c ****         return 0;
 461              		.loc 1 240 7 view .LVU152
 240:/Users/nhantt/STM32Cube/Repository/STM32Cube_FW_F4_V1.26.0/Middlewares/Third_Party/LwIP/src/core/ipv4/ip4_addr.c ****         return 0;
 462              		.loc 1 240 10 is_stmt 0 view .LVU153
 463 00ee FF2C     		cmp	r4, #255
 464 00f0 27D8     		bhi	.L46
 243:/Users/nhantt/STM32Cube/Repository/STM32Cube_FW_F4_V1.26.0/Middlewares/Third_Party/LwIP/src/core/ipv4/ip4_addr.c ****         return 0;
 465              		.loc 1 243 7 is_stmt 1 view .LVU154
 243:/Users/nhantt/STM32Cube/Repository/STM32Cube_FW_F4_V1.26.0/Middlewares/Third_Party/LwIP/src/core/ipv4/ip4_addr.c ****         return 0;
 466              		.loc 1 243 17 is_stmt 0 view .LVU155
 467 00f2 0099     		ldr	r1, [sp]
 468              	.LVL48:
 243:/Users/nhantt/STM32Cube/Repository/STM32Cube_FW_F4_V1.26.0/Middlewares/Third_Party/LwIP/src/core/ipv4/ip4_addr.c ****         return 0;
 469              		.loc 1 243 10 view .LVU156
 470 00f4 FF29     		cmp	r1, #255
 471 00f6 26D8     		bhi	.L47
 243:/Users/nhantt/STM32Cube/Repository/STM32Cube_FW_F4_V1.26.0/Middlewares/Third_Party/LwIP/src/core/ipv4/ip4_addr.c ****         return 0;
 472              		.loc 1 243 38 discriminator 1 view .LVU157
 473 00f8 019B     		ldr	r3, [sp, #4]
 243:/Users/nhantt/STM32Cube/Repository/STM32Cube_FW_F4_V1.26.0/Middlewares/Third_Party/LwIP/src/core/ipv4/ip4_addr.c ****         return 0;
 474              		.loc 1 243 29 discriminator 1 view .LVU158
 475 00fa FF2B     		cmp	r3, #255
ARM GAS  /var/folders/k2/cd9bl_j17z77g23y6ffqb_400000gn/T//cca38xqy.s 			page 15


 476 00fc 25D8     		bhi	.L48
 243:/Users/nhantt/STM32Cube/Repository/STM32Cube_FW_F4_V1.26.0/Middlewares/Third_Party/LwIP/src/core/ipv4/ip4_addr.c ****         return 0;
 477              		.loc 1 243 59 discriminator 2 view .LVU159
 478 00fe 029A     		ldr	r2, [sp, #8]
 243:/Users/nhantt/STM32Cube/Repository/STM32Cube_FW_F4_V1.26.0/Middlewares/Third_Party/LwIP/src/core/ipv4/ip4_addr.c ****         return 0;
 479              		.loc 1 243 50 discriminator 2 view .LVU160
 480 0100 FF2A     		cmp	r2, #255
 481 0102 24D8     		bhi	.L49
 246:/Users/nhantt/STM32Cube/Repository/STM32Cube_FW_F4_V1.26.0/Middlewares/Third_Party/LwIP/src/core/ipv4/ip4_addr.c ****       break;
 482              		.loc 1 246 7 is_stmt 1 view .LVU161
 246:/Users/nhantt/STM32Cube/Repository/STM32Cube_FW_F4_V1.26.0/Middlewares/Third_Party/LwIP/src/core/ipv4/ip4_addr.c ****       break;
 483              		.loc 1 246 43 is_stmt 0 view .LVU162
 484 0104 1B04     		lsls	r3, r3, #16
 246:/Users/nhantt/STM32Cube/Repository/STM32Cube_FW_F4_V1.26.0/Middlewares/Third_Party/LwIP/src/core/ipv4/ip4_addr.c ****       break;
 485              		.loc 1 246 31 view .LVU163
 486 0106 43EA0163 		orr	r3, r3, r1, lsl #24
 246:/Users/nhantt/STM32Cube/Repository/STM32Cube_FW_F4_V1.26.0/Middlewares/Third_Party/LwIP/src/core/ipv4/ip4_addr.c ****       break;
 487              		.loc 1 246 50 view .LVU164
 488 010a 43EA0223 		orr	r3, r3, r2, lsl #8
 246:/Users/nhantt/STM32Cube/Repository/STM32Cube_FW_F4_V1.26.0/Middlewares/Third_Party/LwIP/src/core/ipv4/ip4_addr.c ****       break;
 489              		.loc 1 246 11 view .LVU165
 490 010e 1C43     		orrs	r4, r4, r3
 491              	.LVL49:
 247:/Users/nhantt/STM32Cube/Repository/STM32Cube_FW_F4_V1.26.0/Middlewares/Third_Party/LwIP/src/core/ipv4/ip4_addr.c ****     default:
 492              		.loc 1 247 7 is_stmt 1 view .LVU166
 493 0110 D7E7     		b	.L34
 494              	.LVL50:
 495              	.L29:
 249:/Users/nhantt/STM32Cube/Repository/STM32Cube_FW_F4_V1.26.0/Middlewares/Third_Party/LwIP/src/core/ipv4/ip4_addr.c ****       break;
 496              		.loc 1 249 7 discriminator 1 view .LVU167
 249:/Users/nhantt/STM32Cube/Repository/STM32Cube_FW_F4_V1.26.0/Middlewares/Third_Party/LwIP/src/core/ipv4/ip4_addr.c ****       break;
 497              		.loc 1 249 7 discriminator 1 view .LVU168
 249:/Users/nhantt/STM32Cube/Repository/STM32Cube_FW_F4_V1.26.0/Middlewares/Third_Party/LwIP/src/core/ipv4/ip4_addr.c ****       break;
 498              		.loc 1 249 7 discriminator 1 view .LVU169
 249:/Users/nhantt/STM32Cube/Repository/STM32Cube_FW_F4_V1.26.0/Middlewares/Third_Party/LwIP/src/core/ipv4/ip4_addr.c ****       break;
 499              		.loc 1 249 7 discriminator 1 view .LVU170
 500 0112 124B     		ldr	r3, .L55+4
 501 0114 F922     		movs	r2, #249
 502 0116 1249     		ldr	r1, .L55+8
 503              	.LVL51:
 249:/Users/nhantt/STM32Cube/Repository/STM32Cube_FW_F4_V1.26.0/Middlewares/Third_Party/LwIP/src/core/ipv4/ip4_addr.c ****       break;
 504              		.loc 1 249 7 is_stmt 0 discriminator 1 view .LVU171
 505 0118 1248     		ldr	r0, .L55+12
 506 011a FFF7FEFF 		bl	printf
 507              	.LVL52:
 249:/Users/nhantt/STM32Cube/Repository/STM32Cube_FW_F4_V1.26.0/Middlewares/Third_Party/LwIP/src/core/ipv4/ip4_addr.c ****       break;
 508              		.loc 1 249 7 is_stmt 1 discriminator 1 view .LVU172
 249:/Users/nhantt/STM32Cube/Repository/STM32Cube_FW_F4_V1.26.0/Middlewares/Third_Party/LwIP/src/core/ipv4/ip4_addr.c ****       break;
 509              		.loc 1 249 7 discriminator 1 view .LVU173
 250:/Users/nhantt/STM32Cube/Repository/STM32Cube_FW_F4_V1.26.0/Middlewares/Third_Party/LwIP/src/core/ipv4/ip4_addr.c ****   }
 510              		.loc 1 250 7 discriminator 1 view .LVU174
 511 011e D0E7     		b	.L34
 512              	.LVL53:
 513              	.L35:
 161:/Users/nhantt/STM32Cube/Repository/STM32Cube_FW_F4_V1.26.0/Middlewares/Third_Party/LwIP/src/core/ipv4/ip4_addr.c ****     }
 514              		.loc 1 161 14 is_stmt 0 view .LVU175
 515 0120 0020     		movs	r0, #0
ARM GAS  /var/folders/k2/cd9bl_j17z77g23y6ffqb_400000gn/T//cca38xqy.s 			page 16


 516              	.LVL54:
 161:/Users/nhantt/STM32Cube/Repository/STM32Cube_FW_F4_V1.26.0/Middlewares/Third_Party/LwIP/src/core/ipv4/ip4_addr.c ****     }
 517              		.loc 1 161 14 view .LVU176
 518 0122 00E0     		b	.L17
 519              	.LVL55:
 520              	.L39:
 193:/Users/nhantt/STM32Cube/Repository/STM32Cube_FW_F4_V1.26.0/Middlewares/Third_Party/LwIP/src/core/ipv4/ip4_addr.c ****       }
 521              		.loc 1 193 16 view .LVU177
 522 0124 0020     		movs	r0, #0
 523              	.LVL56:
 524              	.L17:
 256:/Users/nhantt/STM32Cube/Repository/STM32Cube_FW_F4_V1.26.0/Middlewares/Third_Party/LwIP/src/core/ipv4/ip4_addr.c **** }
 525              		.loc 1 256 1 view .LVU178
 526 0126 05B0     		add	sp, sp, #20
 527              	.LCFI3:
 528              		.cfi_remember_state
 529              		.cfi_def_cfa_offset 12
 530              		@ sp needed
 531 0128 30BD     		pop	{r4, r5, pc}
 532              	.LVL57:
 533              	.L40:
 534              	.LCFI4:
 535              		.cfi_restore_state
 205:/Users/nhantt/STM32Cube/Repository/STM32Cube_FW_F4_V1.26.0/Middlewares/Third_Party/LwIP/src/core/ipv4/ip4_addr.c ****   }
 536              		.loc 1 205 12 view .LVU179
 537 012a 0020     		movs	r0, #0
 538              	.LVL58:
 205:/Users/nhantt/STM32Cube/Repository/STM32Cube_FW_F4_V1.26.0/Middlewares/Third_Party/LwIP/src/core/ipv4/ip4_addr.c ****   }
 539              		.loc 1 205 12 view .LVU180
 540 012c FBE7     		b	.L17
 541              	.LVL59:
 542              	.L41:
 221:/Users/nhantt/STM32Cube/Repository/STM32Cube_FW_F4_V1.26.0/Middlewares/Third_Party/LwIP/src/core/ipv4/ip4_addr.c ****       }
 543              		.loc 1 221 16 view .LVU181
 544 012e 0020     		movs	r0, #0
 545 0130 F9E7     		b	.L17
 546              	.L42:
 224:/Users/nhantt/STM32Cube/Repository/STM32Cube_FW_F4_V1.26.0/Middlewares/Third_Party/LwIP/src/core/ipv4/ip4_addr.c ****       }
 547              		.loc 1 224 16 view .LVU182
 548 0132 0020     		movs	r0, #0
 549 0134 F7E7     		b	.L17
 550              	.L43:
 231:/Users/nhantt/STM32Cube/Repository/STM32Cube_FW_F4_V1.26.0/Middlewares/Third_Party/LwIP/src/core/ipv4/ip4_addr.c ****       }
 551              		.loc 1 231 16 view .LVU183
 552 0136 0020     		movs	r0, #0
 553 0138 F5E7     		b	.L17
 554              	.L44:
 234:/Users/nhantt/STM32Cube/Repository/STM32Cube_FW_F4_V1.26.0/Middlewares/Third_Party/LwIP/src/core/ipv4/ip4_addr.c ****       }
 555              		.loc 1 234 16 view .LVU184
 556 013a 0020     		movs	r0, #0
 557 013c F3E7     		b	.L17
 558              	.L45:
 559 013e 0020     		movs	r0, #0
 560 0140 F1E7     		b	.L17
 561              	.L46:
 241:/Users/nhantt/STM32Cube/Repository/STM32Cube_FW_F4_V1.26.0/Middlewares/Third_Party/LwIP/src/core/ipv4/ip4_addr.c ****       }
 562              		.loc 1 241 16 view .LVU185
ARM GAS  /var/folders/k2/cd9bl_j17z77g23y6ffqb_400000gn/T//cca38xqy.s 			page 17


 563 0142 0020     		movs	r0, #0
 564 0144 EFE7     		b	.L17
 565              	.LVL60:
 566              	.L47:
 244:/Users/nhantt/STM32Cube/Repository/STM32Cube_FW_F4_V1.26.0/Middlewares/Third_Party/LwIP/src/core/ipv4/ip4_addr.c ****       }
 567              		.loc 1 244 16 view .LVU186
 568 0146 0020     		movs	r0, #0
 569 0148 EDE7     		b	.L17
 570              	.L48:
 571 014a 0020     		movs	r0, #0
 572 014c EBE7     		b	.L17
 573              	.L49:
 574 014e 0020     		movs	r0, #0
 575 0150 E9E7     		b	.L17
 576              	.LVL61:
 577              	.L50:
 255:/Users/nhantt/STM32Cube/Repository/STM32Cube_FW_F4_V1.26.0/Middlewares/Third_Party/LwIP/src/core/ipv4/ip4_addr.c **** }
 578              		.loc 1 255 10 view .LVU187
 579 0152 0120     		movs	r0, #1
 580 0154 E7E7     		b	.L17
 581              	.L56:
 582 0156 00BF     		.align	2
 583              	.L55:
 584 0158 01000000 		.word	_ctype_+1
 585 015c 00000000 		.word	.LC0
 586 0160 74000000 		.word	.LC1
 587 0164 80000000 		.word	.LC2
 588              		.cfi_endproc
 589              	.LFE158:
 591              		.section	.text.ipaddr_addr,"ax",%progbits
 592              		.align	1
 593              		.global	ipaddr_addr
 594              		.syntax unified
 595              		.thumb
 596              		.thumb_func
 597              		.fpu fpv4-sp-d16
 599              	ipaddr_addr:
 600              	.LVL62:
 601              	.LFB157:
 124:/Users/nhantt/STM32Cube/Repository/STM32Cube_FW_F4_V1.26.0/Middlewares/Third_Party/LwIP/src/core/ipv4/ip4_addr.c ****   ip4_addr_t val;
 602              		.loc 1 124 1 is_stmt 1 view -0
 603              		.cfi_startproc
 604              		@ args = 0, pretend = 0, frame = 8
 605              		@ frame_needed = 0, uses_anonymous_args = 0
 124:/Users/nhantt/STM32Cube/Repository/STM32Cube_FW_F4_V1.26.0/Middlewares/Third_Party/LwIP/src/core/ipv4/ip4_addr.c ****   ip4_addr_t val;
 606              		.loc 1 124 1 is_stmt 0 view .LVU189
 607 0000 00B5     		push	{lr}
 608              	.LCFI5:
 609              		.cfi_def_cfa_offset 4
 610              		.cfi_offset 14, -4
 611 0002 83B0     		sub	sp, sp, #12
 612              	.LCFI6:
 613              		.cfi_def_cfa_offset 16
 125:/Users/nhantt/STM32Cube/Repository/STM32Cube_FW_F4_V1.26.0/Middlewares/Third_Party/LwIP/src/core/ipv4/ip4_addr.c **** 
 614              		.loc 1 125 3 is_stmt 1 view .LVU190
 127:/Users/nhantt/STM32Cube/Repository/STM32Cube_FW_F4_V1.26.0/Middlewares/Third_Party/LwIP/src/core/ipv4/ip4_addr.c ****     return ip4_addr_get_u32(&val);
 615              		.loc 1 127 3 view .LVU191
ARM GAS  /var/folders/k2/cd9bl_j17z77g23y6ffqb_400000gn/T//cca38xqy.s 			page 18


 127:/Users/nhantt/STM32Cube/Repository/STM32Cube_FW_F4_V1.26.0/Middlewares/Third_Party/LwIP/src/core/ipv4/ip4_addr.c ****     return ip4_addr_get_u32(&val);
 616              		.loc 1 127 7 is_stmt 0 view .LVU192
 617 0004 01A9     		add	r1, sp, #4
 618 0006 FFF7FEFF 		bl	ip4addr_aton
 619              	.LVL63:
 127:/Users/nhantt/STM32Cube/Repository/STM32Cube_FW_F4_V1.26.0/Middlewares/Third_Party/LwIP/src/core/ipv4/ip4_addr.c ****     return ip4_addr_get_u32(&val);
 620              		.loc 1 127 6 view .LVU193
 621 000a 20B9     		cbnz	r0, .L61
 130:/Users/nhantt/STM32Cube/Repository/STM32Cube_FW_F4_V1.26.0/Middlewares/Third_Party/LwIP/src/core/ipv4/ip4_addr.c **** }
 622              		.loc 1 130 10 view .LVU194
 623 000c 4FF0FF30 		mov	r0, #-1
 624              	.L57:
 131:/Users/nhantt/STM32Cube/Repository/STM32Cube_FW_F4_V1.26.0/Middlewares/Third_Party/LwIP/src/core/ipv4/ip4_addr.c **** 
 625              		.loc 1 131 1 view .LVU195
 626 0010 03B0     		add	sp, sp, #12
 627              	.LCFI7:
 628              		.cfi_remember_state
 629              		.cfi_def_cfa_offset 4
 630              		@ sp needed
 631 0012 5DF804FB 		ldr	pc, [sp], #4
 632              	.L61:
 633              	.LCFI8:
 634              		.cfi_restore_state
 128:/Users/nhantt/STM32Cube/Repository/STM32Cube_FW_F4_V1.26.0/Middlewares/Third_Party/LwIP/src/core/ipv4/ip4_addr.c ****   }
 635              		.loc 1 128 5 is_stmt 1 view .LVU196
 128:/Users/nhantt/STM32Cube/Repository/STM32Cube_FW_F4_V1.26.0/Middlewares/Third_Party/LwIP/src/core/ipv4/ip4_addr.c ****   }
 636              		.loc 1 128 12 is_stmt 0 view .LVU197
 637 0016 0198     		ldr	r0, [sp, #4]
 638 0018 FAE7     		b	.L57
 639              		.cfi_endproc
 640              	.LFE157:
 642              		.section	.text.ip4addr_ntoa_r,"ax",%progbits
 643              		.align	1
 644              		.global	ip4addr_ntoa_r
 645              		.syntax unified
 646              		.thumb
 647              		.thumb_func
 648              		.fpu fpv4-sp-d16
 650              	ip4addr_ntoa_r:
 651              	.LVL64:
 652              	.LFB160:
 257:/Users/nhantt/STM32Cube/Repository/STM32Cube_FW_F4_V1.26.0/Middlewares/Third_Party/LwIP/src/core/ipv4/ip4_addr.c **** 
 258:/Users/nhantt/STM32Cube/Repository/STM32Cube_FW_F4_V1.26.0/Middlewares/Third_Party/LwIP/src/core/ipv4/ip4_addr.c **** /**
 259:/Users/nhantt/STM32Cube/Repository/STM32Cube_FW_F4_V1.26.0/Middlewares/Third_Party/LwIP/src/core/ipv4/ip4_addr.c ****  * Convert numeric IP address into decimal dotted ASCII representation.
 260:/Users/nhantt/STM32Cube/Repository/STM32Cube_FW_F4_V1.26.0/Middlewares/Third_Party/LwIP/src/core/ipv4/ip4_addr.c ****  * returns ptr to static buffer; not reentrant!
 261:/Users/nhantt/STM32Cube/Repository/STM32Cube_FW_F4_V1.26.0/Middlewares/Third_Party/LwIP/src/core/ipv4/ip4_addr.c ****  *
 262:/Users/nhantt/STM32Cube/Repository/STM32Cube_FW_F4_V1.26.0/Middlewares/Third_Party/LwIP/src/core/ipv4/ip4_addr.c ****  * @param addr ip address in network order to convert
 263:/Users/nhantt/STM32Cube/Repository/STM32Cube_FW_F4_V1.26.0/Middlewares/Third_Party/LwIP/src/core/ipv4/ip4_addr.c ****  * @return pointer to a global static (!) buffer that holds the ASCII
 264:/Users/nhantt/STM32Cube/Repository/STM32Cube_FW_F4_V1.26.0/Middlewares/Third_Party/LwIP/src/core/ipv4/ip4_addr.c ****  *         representation of addr
 265:/Users/nhantt/STM32Cube/Repository/STM32Cube_FW_F4_V1.26.0/Middlewares/Third_Party/LwIP/src/core/ipv4/ip4_addr.c ****  */
 266:/Users/nhantt/STM32Cube/Repository/STM32Cube_FW_F4_V1.26.0/Middlewares/Third_Party/LwIP/src/core/ipv4/ip4_addr.c **** char *
 267:/Users/nhantt/STM32Cube/Repository/STM32Cube_FW_F4_V1.26.0/Middlewares/Third_Party/LwIP/src/core/ipv4/ip4_addr.c **** ip4addr_ntoa(const ip4_addr_t *addr)
 268:/Users/nhantt/STM32Cube/Repository/STM32Cube_FW_F4_V1.26.0/Middlewares/Third_Party/LwIP/src/core/ipv4/ip4_addr.c **** {
 269:/Users/nhantt/STM32Cube/Repository/STM32Cube_FW_F4_V1.26.0/Middlewares/Third_Party/LwIP/src/core/ipv4/ip4_addr.c ****   static char str[IP4ADDR_STRLEN_MAX];
 270:/Users/nhantt/STM32Cube/Repository/STM32Cube_FW_F4_V1.26.0/Middlewares/Third_Party/LwIP/src/core/ipv4/ip4_addr.c ****   return ip4addr_ntoa_r(addr, str, IP4ADDR_STRLEN_MAX);
 271:/Users/nhantt/STM32Cube/Repository/STM32Cube_FW_F4_V1.26.0/Middlewares/Third_Party/LwIP/src/core/ipv4/ip4_addr.c **** }
 272:/Users/nhantt/STM32Cube/Repository/STM32Cube_FW_F4_V1.26.0/Middlewares/Third_Party/LwIP/src/core/ipv4/ip4_addr.c **** 
ARM GAS  /var/folders/k2/cd9bl_j17z77g23y6ffqb_400000gn/T//cca38xqy.s 			page 19


 273:/Users/nhantt/STM32Cube/Repository/STM32Cube_FW_F4_V1.26.0/Middlewares/Third_Party/LwIP/src/core/ipv4/ip4_addr.c **** /**
 274:/Users/nhantt/STM32Cube/Repository/STM32Cube_FW_F4_V1.26.0/Middlewares/Third_Party/LwIP/src/core/ipv4/ip4_addr.c ****  * Same as ip4addr_ntoa, but reentrant since a user-supplied buffer is used.
 275:/Users/nhantt/STM32Cube/Repository/STM32Cube_FW_F4_V1.26.0/Middlewares/Third_Party/LwIP/src/core/ipv4/ip4_addr.c ****  *
 276:/Users/nhantt/STM32Cube/Repository/STM32Cube_FW_F4_V1.26.0/Middlewares/Third_Party/LwIP/src/core/ipv4/ip4_addr.c ****  * @param addr ip address in network order to convert
 277:/Users/nhantt/STM32Cube/Repository/STM32Cube_FW_F4_V1.26.0/Middlewares/Third_Party/LwIP/src/core/ipv4/ip4_addr.c ****  * @param buf target buffer where the string is stored
 278:/Users/nhantt/STM32Cube/Repository/STM32Cube_FW_F4_V1.26.0/Middlewares/Third_Party/LwIP/src/core/ipv4/ip4_addr.c ****  * @param buflen length of buf
 279:/Users/nhantt/STM32Cube/Repository/STM32Cube_FW_F4_V1.26.0/Middlewares/Third_Party/LwIP/src/core/ipv4/ip4_addr.c ****  * @return either pointer to buf which now holds the ASCII
 280:/Users/nhantt/STM32Cube/Repository/STM32Cube_FW_F4_V1.26.0/Middlewares/Third_Party/LwIP/src/core/ipv4/ip4_addr.c ****  *         representation of addr or NULL if buf was too small
 281:/Users/nhantt/STM32Cube/Repository/STM32Cube_FW_F4_V1.26.0/Middlewares/Third_Party/LwIP/src/core/ipv4/ip4_addr.c ****  */
 282:/Users/nhantt/STM32Cube/Repository/STM32Cube_FW_F4_V1.26.0/Middlewares/Third_Party/LwIP/src/core/ipv4/ip4_addr.c **** char *
 283:/Users/nhantt/STM32Cube/Repository/STM32Cube_FW_F4_V1.26.0/Middlewares/Third_Party/LwIP/src/core/ipv4/ip4_addr.c **** ip4addr_ntoa_r(const ip4_addr_t *addr, char *buf, int buflen)
 284:/Users/nhantt/STM32Cube/Repository/STM32Cube_FW_F4_V1.26.0/Middlewares/Third_Party/LwIP/src/core/ipv4/ip4_addr.c **** {
 653              		.loc 1 284 1 is_stmt 1 view -0
 654              		.cfi_startproc
 655              		@ args = 0, pretend = 0, frame = 8
 656              		@ frame_needed = 0, uses_anonymous_args = 0
 657              		.loc 1 284 1 is_stmt 0 view .LVU199
 658 0000 2DE9F041 		push	{r4, r5, r6, r7, r8, lr}
 659              	.LCFI9:
 660              		.cfi_def_cfa_offset 24
 661              		.cfi_offset 4, -24
 662              		.cfi_offset 5, -20
 663              		.cfi_offset 6, -16
 664              		.cfi_offset 7, -12
 665              		.cfi_offset 8, -8
 666              		.cfi_offset 14, -4
 667 0004 82B0     		sub	sp, sp, #8
 668              	.LCFI10:
 669              		.cfi_def_cfa_offset 32
 285:/Users/nhantt/STM32Cube/Repository/STM32Cube_FW_F4_V1.26.0/Middlewares/Third_Party/LwIP/src/core/ipv4/ip4_addr.c ****   u32_t s_addr;
 670              		.loc 1 285 3 is_stmt 1 view .LVU200
 286:/Users/nhantt/STM32Cube/Repository/STM32Cube_FW_F4_V1.26.0/Middlewares/Third_Party/LwIP/src/core/ipv4/ip4_addr.c ****   char inv[3];
 671              		.loc 1 286 3 view .LVU201
 287:/Users/nhantt/STM32Cube/Repository/STM32Cube_FW_F4_V1.26.0/Middlewares/Third_Party/LwIP/src/core/ipv4/ip4_addr.c ****   char *rp;
 672              		.loc 1 287 3 view .LVU202
 288:/Users/nhantt/STM32Cube/Repository/STM32Cube_FW_F4_V1.26.0/Middlewares/Third_Party/LwIP/src/core/ipv4/ip4_addr.c ****   u8_t *ap;
 673              		.loc 1 288 3 view .LVU203
 289:/Users/nhantt/STM32Cube/Repository/STM32Cube_FW_F4_V1.26.0/Middlewares/Third_Party/LwIP/src/core/ipv4/ip4_addr.c ****   u8_t rem;
 674              		.loc 1 289 3 view .LVU204
 290:/Users/nhantt/STM32Cube/Repository/STM32Cube_FW_F4_V1.26.0/Middlewares/Third_Party/LwIP/src/core/ipv4/ip4_addr.c ****   u8_t n;
 675              		.loc 1 290 3 view .LVU205
 291:/Users/nhantt/STM32Cube/Repository/STM32Cube_FW_F4_V1.26.0/Middlewares/Third_Party/LwIP/src/core/ipv4/ip4_addr.c ****   u8_t i;
 676              		.loc 1 291 3 view .LVU206
 292:/Users/nhantt/STM32Cube/Repository/STM32Cube_FW_F4_V1.26.0/Middlewares/Third_Party/LwIP/src/core/ipv4/ip4_addr.c ****   int len = 0;
 677              		.loc 1 292 3 view .LVU207
 678              	.LVL65:
 293:/Users/nhantt/STM32Cube/Repository/STM32Cube_FW_F4_V1.26.0/Middlewares/Third_Party/LwIP/src/core/ipv4/ip4_addr.c **** 
 294:/Users/nhantt/STM32Cube/Repository/STM32Cube_FW_F4_V1.26.0/Middlewares/Third_Party/LwIP/src/core/ipv4/ip4_addr.c ****   s_addr = ip4_addr_get_u32(addr);
 679              		.loc 1 294 3 view .LVU208
 680              		.loc 1 294 12 is_stmt 0 view .LVU209
 681 0006 0368     		ldr	r3, [r0]
 682              		.loc 1 294 10 view .LVU210
 683 0008 0193     		str	r3, [sp, #4]
 295:/Users/nhantt/STM32Cube/Repository/STM32Cube_FW_F4_V1.26.0/Middlewares/Third_Party/LwIP/src/core/ipv4/ip4_addr.c **** 
 296:/Users/nhantt/STM32Cube/Repository/STM32Cube_FW_F4_V1.26.0/Middlewares/Third_Party/LwIP/src/core/ipv4/ip4_addr.c ****   rp = buf;
 684              		.loc 1 296 3 is_stmt 1 view .LVU211
 685              	.LVL66:
ARM GAS  /var/folders/k2/cd9bl_j17z77g23y6ffqb_400000gn/T//cca38xqy.s 			page 20


 297:/Users/nhantt/STM32Cube/Repository/STM32Cube_FW_F4_V1.26.0/Middlewares/Third_Party/LwIP/src/core/ipv4/ip4_addr.c ****   ap = (u8_t *)&s_addr;
 686              		.loc 1 297 3 view .LVU212
 298:/Users/nhantt/STM32Cube/Repository/STM32Cube_FW_F4_V1.26.0/Middlewares/Third_Party/LwIP/src/core/ipv4/ip4_addr.c ****   for (n = 0; n < 4; n++) {
 687              		.loc 1 298 3 view .LVU213
 296:/Users/nhantt/STM32Cube/Repository/STM32Cube_FW_F4_V1.26.0/Middlewares/Third_Party/LwIP/src/core/ipv4/ip4_addr.c ****   ap = (u8_t *)&s_addr;
 688              		.loc 1 296 6 is_stmt 0 view .LVU214
 689 000a 8E46     		mov	lr, r1
 292:/Users/nhantt/STM32Cube/Repository/STM32Cube_FW_F4_V1.26.0/Middlewares/Third_Party/LwIP/src/core/ipv4/ip4_addr.c **** 
 690              		.loc 1 292 7 view .LVU215
 691 000c 0024     		movs	r4, #0
 692              		.loc 1 298 10 view .LVU216
 693 000e 2646     		mov	r6, r4
 297:/Users/nhantt/STM32Cube/Repository/STM32Cube_FW_F4_V1.26.0/Middlewares/Third_Party/LwIP/src/core/ipv4/ip4_addr.c ****   for (n = 0; n < 4; n++) {
 694              		.loc 1 297 6 view .LVU217
 695 0010 01AD     		add	r5, sp, #4
 696              	.LVL67:
 697              	.L63:
 698              		.loc 1 298 15 is_stmt 1 discriminator 1 view .LVU218
 699              		.loc 1 298 3 is_stmt 0 discriminator 1 view .LVU219
 700 0012 032E     		cmp	r6, #3
 701 0014 38D8     		bhi	.L72
 299:/Users/nhantt/STM32Cube/Repository/STM32Cube_FW_F4_V1.26.0/Middlewares/Third_Party/LwIP/src/core/ipv4/ip4_addr.c ****     i = 0;
 702              		.loc 1 299 7 view .LVU220
 703 0016 0020     		movs	r0, #0
 704              	.L64:
 705              	.LVL68:
 300:/Users/nhantt/STM32Cube/Repository/STM32Cube_FW_F4_V1.26.0/Middlewares/Third_Party/LwIP/src/core/ipv4/ip4_addr.c ****     do {
 706              		.loc 1 300 5 is_stmt 1 discriminator 1 view .LVU221
 301:/Users/nhantt/STM32Cube/Repository/STM32Cube_FW_F4_V1.26.0/Middlewares/Third_Party/LwIP/src/core/ipv4/ip4_addr.c ****       rem = *ap % (u8_t)10;
 707              		.loc 1 301 7 discriminator 1 view .LVU222
 708              		.loc 1 301 13 is_stmt 0 discriminator 1 view .LVU223
 709 0018 95F800C0 		ldrb	ip, [r5]	@ zero_extendqisi2
 710              		.loc 1 301 11 discriminator 1 view .LVU224
 711 001c 1E4B     		ldr	r3, .L75
 712 001e A3FB0C73 		umull	r7, r3, r3, ip
 713 0022 DB08     		lsrs	r3, r3, #3
 714 0024 03EB8307 		add	r7, r3, r3, lsl #2
 715 0028 ACEB470C 		sub	ip, ip, r7, lsl #1
 716 002c 5FFA8CFC 		uxtb	ip, ip
 717              	.LVL69:
 302:/Users/nhantt/STM32Cube/Repository/STM32Cube_FW_F4_V1.26.0/Middlewares/Third_Party/LwIP/src/core/ipv4/ip4_addr.c ****       *ap /= (u8_t)10;
 718              		.loc 1 302 7 is_stmt 1 discriminator 1 view .LVU225
 719              		.loc 1 302 11 is_stmt 0 discriminator 1 view .LVU226
 720 0030 DBB2     		uxtb	r3, r3
 721 0032 2B70     		strb	r3, [r5]
 303:/Users/nhantt/STM32Cube/Repository/STM32Cube_FW_F4_V1.26.0/Middlewares/Third_Party/LwIP/src/core/ipv4/ip4_addr.c ****       inv[i++] = (char)('0' + rem);
 722              		.loc 1 303 7 is_stmt 1 discriminator 1 view .LVU227
 723 0034 0746     		mov	r7, r0
 724              		.loc 1 303 12 is_stmt 0 discriminator 1 view .LVU228
 725 0036 0130     		adds	r0, r0, #1
 726              	.LVL70:
 727              		.loc 1 303 12 discriminator 1 view .LVU229
 728 0038 C0B2     		uxtb	r0, r0
 729              	.LVL71:
 730              		.loc 1 303 18 discriminator 1 view .LVU230
 731 003a 0CF1300C 		add	ip, ip, #48
 732              	.LVL72:
ARM GAS  /var/folders/k2/cd9bl_j17z77g23y6ffqb_400000gn/T//cca38xqy.s 			page 21


 733              		.loc 1 303 16 discriminator 1 view .LVU231
 734 003e 0DF10808 		add	r8, sp, #8
 735 0042 4744     		add	r7, r7, r8
 736 0044 07F808CC 		strb	ip, [r7, #-8]
 304:/Users/nhantt/STM32Cube/Repository/STM32Cube_FW_F4_V1.26.0/Middlewares/Third_Party/LwIP/src/core/ipv4/ip4_addr.c ****     } while (*ap);
 737              		.loc 1 304 13 is_stmt 1 discriminator 1 view .LVU232
 738              		.loc 1 304 5 is_stmt 0 discriminator 1 view .LVU233
 739 0048 002B     		cmp	r3, #0
 740 004a E5D1     		bne	.L64
 741 004c 07E0     		b	.L65
 742              	.LVL73:
 743              	.L74:
 305:/Users/nhantt/STM32Cube/Repository/STM32Cube_FW_F4_V1.26.0/Middlewares/Third_Party/LwIP/src/core/ipv4/ip4_addr.c ****     while (i--) {
 306:/Users/nhantt/STM32Cube/Repository/STM32Cube_FW_F4_V1.26.0/Middlewares/Third_Party/LwIP/src/core/ipv4/ip4_addr.c ****       if (len++ >= buflen) {
 307:/Users/nhantt/STM32Cube/Repository/STM32Cube_FW_F4_V1.26.0/Middlewares/Third_Party/LwIP/src/core/ipv4/ip4_addr.c ****         return NULL;
 308:/Users/nhantt/STM32Cube/Repository/STM32Cube_FW_F4_V1.26.0/Middlewares/Third_Party/LwIP/src/core/ipv4/ip4_addr.c ****       }
 309:/Users/nhantt/STM32Cube/Repository/STM32Cube_FW_F4_V1.26.0/Middlewares/Third_Party/LwIP/src/core/ipv4/ip4_addr.c ****       *rp++ = inv[i];
 744              		.loc 1 309 7 is_stmt 1 view .LVU234
 745              		.loc 1 309 18 is_stmt 0 view .LVU235
 746 004e 02AC     		add	r4, sp, #8
 747 0050 1C44     		add	r4, r4, r3
 748 0052 14F8084C 		ldrb	r4, [r4, #-8]	@ zero_extendqisi2
 749              		.loc 1 309 13 view .LVU236
 750 0056 0EF8014B 		strb	r4, [lr], #1
 751              	.LVL74:
 306:/Users/nhantt/STM32Cube/Repository/STM32Cube_FW_F4_V1.26.0/Middlewares/Third_Party/LwIP/src/core/ipv4/ip4_addr.c ****         return NULL;
 752              		.loc 1 306 14 view .LVU237
 753 005a 0446     		mov	r4, r0
 305:/Users/nhantt/STM32Cube/Repository/STM32Cube_FW_F4_V1.26.0/Middlewares/Third_Party/LwIP/src/core/ipv4/ip4_addr.c ****     while (i--) {
 754              		.loc 1 305 13 view .LVU238
 755 005c 1846     		mov	r0, r3
 756              	.LVL75:
 757              	.L65:
 305:/Users/nhantt/STM32Cube/Repository/STM32Cube_FW_F4_V1.26.0/Middlewares/Third_Party/LwIP/src/core/ipv4/ip4_addr.c ****     while (i--) {
 758              		.loc 1 305 11 is_stmt 1 view .LVU239
 305:/Users/nhantt/STM32Cube/Repository/STM32Cube_FW_F4_V1.26.0/Middlewares/Third_Party/LwIP/src/core/ipv4/ip4_addr.c ****     while (i--) {
 759              		.loc 1 305 13 is_stmt 0 view .LVU240
 760 005e 431E     		subs	r3, r0, #1
 761 0060 DBB2     		uxtb	r3, r3
 762              	.LVL76:
 305:/Users/nhantt/STM32Cube/Repository/STM32Cube_FW_F4_V1.26.0/Middlewares/Third_Party/LwIP/src/core/ipv4/ip4_addr.c ****     while (i--) {
 763              		.loc 1 305 11 view .LVU241
 764 0062 30B1     		cbz	r0, .L73
 306:/Users/nhantt/STM32Cube/Repository/STM32Cube_FW_F4_V1.26.0/Middlewares/Third_Party/LwIP/src/core/ipv4/ip4_addr.c ****         return NULL;
 765              		.loc 1 306 7 is_stmt 1 view .LVU242
 306:/Users/nhantt/STM32Cube/Repository/STM32Cube_FW_F4_V1.26.0/Middlewares/Third_Party/LwIP/src/core/ipv4/ip4_addr.c ****         return NULL;
 766              		.loc 1 306 14 is_stmt 0 view .LVU243
 767 0064 601C     		adds	r0, r4, #1
 768              	.LVL77:
 306:/Users/nhantt/STM32Cube/Repository/STM32Cube_FW_F4_V1.26.0/Middlewares/Third_Party/LwIP/src/core/ipv4/ip4_addr.c ****         return NULL;
 769              		.loc 1 306 10 view .LVU244
 770 0066 9442     		cmp	r4, r2
 771 0068 F1DB     		blt	.L74
 307:/Users/nhantt/STM32Cube/Repository/STM32Cube_FW_F4_V1.26.0/Middlewares/Third_Party/LwIP/src/core/ipv4/ip4_addr.c ****       }
 772              		.loc 1 307 16 view .LVU245
 773 006a 0020     		movs	r0, #0
 774              	.LVL78:
ARM GAS  /var/folders/k2/cd9bl_j17z77g23y6ffqb_400000gn/T//cca38xqy.s 			page 22


 775              	.L62:
 310:/Users/nhantt/STM32Cube/Repository/STM32Cube_FW_F4_V1.26.0/Middlewares/Third_Party/LwIP/src/core/ipv4/ip4_addr.c ****     }
 311:/Users/nhantt/STM32Cube/Repository/STM32Cube_FW_F4_V1.26.0/Middlewares/Third_Party/LwIP/src/core/ipv4/ip4_addr.c ****     if (len++ >= buflen) {
 312:/Users/nhantt/STM32Cube/Repository/STM32Cube_FW_F4_V1.26.0/Middlewares/Third_Party/LwIP/src/core/ipv4/ip4_addr.c ****       return NULL;
 313:/Users/nhantt/STM32Cube/Repository/STM32Cube_FW_F4_V1.26.0/Middlewares/Third_Party/LwIP/src/core/ipv4/ip4_addr.c ****     }
 314:/Users/nhantt/STM32Cube/Repository/STM32Cube_FW_F4_V1.26.0/Middlewares/Third_Party/LwIP/src/core/ipv4/ip4_addr.c ****     *rp++ = '.';
 315:/Users/nhantt/STM32Cube/Repository/STM32Cube_FW_F4_V1.26.0/Middlewares/Third_Party/LwIP/src/core/ipv4/ip4_addr.c ****     ap++;
 316:/Users/nhantt/STM32Cube/Repository/STM32Cube_FW_F4_V1.26.0/Middlewares/Third_Party/LwIP/src/core/ipv4/ip4_addr.c ****   }
 317:/Users/nhantt/STM32Cube/Repository/STM32Cube_FW_F4_V1.26.0/Middlewares/Third_Party/LwIP/src/core/ipv4/ip4_addr.c ****   *--rp = 0;
 318:/Users/nhantt/STM32Cube/Repository/STM32Cube_FW_F4_V1.26.0/Middlewares/Third_Party/LwIP/src/core/ipv4/ip4_addr.c ****   return buf;
 319:/Users/nhantt/STM32Cube/Repository/STM32Cube_FW_F4_V1.26.0/Middlewares/Third_Party/LwIP/src/core/ipv4/ip4_addr.c **** }
 776              		.loc 1 319 1 view .LVU246
 777 006c 02B0     		add	sp, sp, #8
 778              	.LCFI11:
 779              		.cfi_remember_state
 780              		.cfi_def_cfa_offset 24
 781              		@ sp needed
 782 006e BDE8F081 		pop	{r4, r5, r6, r7, r8, pc}
 783              	.LVL79:
 784              	.L73:
 785              	.LCFI12:
 786              		.cfi_restore_state
 311:/Users/nhantt/STM32Cube/Repository/STM32Cube_FW_F4_V1.26.0/Middlewares/Third_Party/LwIP/src/core/ipv4/ip4_addr.c ****       return NULL;
 787              		.loc 1 311 5 is_stmt 1 view .LVU247
 311:/Users/nhantt/STM32Cube/Repository/STM32Cube_FW_F4_V1.26.0/Middlewares/Third_Party/LwIP/src/core/ipv4/ip4_addr.c ****       return NULL;
 788              		.loc 1 311 12 is_stmt 0 view .LVU248
 789 0072 631C     		adds	r3, r4, #1
 790              	.LVL80:
 311:/Users/nhantt/STM32Cube/Repository/STM32Cube_FW_F4_V1.26.0/Middlewares/Third_Party/LwIP/src/core/ipv4/ip4_addr.c ****       return NULL;
 791              		.loc 1 311 8 view .LVU249
 792 0074 9442     		cmp	r4, r2
 793 0076 0CDA     		bge	.L69
 314:/Users/nhantt/STM32Cube/Repository/STM32Cube_FW_F4_V1.26.0/Middlewares/Third_Party/LwIP/src/core/ipv4/ip4_addr.c ****     ap++;
 794              		.loc 1 314 5 is_stmt 1 discriminator 2 view .LVU250
 795              	.LVL81:
 314:/Users/nhantt/STM32Cube/Repository/STM32Cube_FW_F4_V1.26.0/Middlewares/Third_Party/LwIP/src/core/ipv4/ip4_addr.c ****     ap++;
 796              		.loc 1 314 11 is_stmt 0 discriminator 2 view .LVU251
 797 0078 2E20     		movs	r0, #46
 798              	.LVL82:
 314:/Users/nhantt/STM32Cube/Repository/STM32Cube_FW_F4_V1.26.0/Middlewares/Third_Party/LwIP/src/core/ipv4/ip4_addr.c ****     ap++;
 799              		.loc 1 314 11 discriminator 2 view .LVU252
 800 007a 0EF8010B 		strb	r0, [lr], #1
 801              	.LVL83:
 315:/Users/nhantt/STM32Cube/Repository/STM32Cube_FW_F4_V1.26.0/Middlewares/Third_Party/LwIP/src/core/ipv4/ip4_addr.c ****   }
 802              		.loc 1 315 5 is_stmt 1 discriminator 2 view .LVU253
 315:/Users/nhantt/STM32Cube/Repository/STM32Cube_FW_F4_V1.26.0/Middlewares/Third_Party/LwIP/src/core/ipv4/ip4_addr.c ****   }
 803              		.loc 1 315 7 is_stmt 0 discriminator 2 view .LVU254
 804 007e 0135     		adds	r5, r5, #1
 805              	.LVL84:
 298:/Users/nhantt/STM32Cube/Repository/STM32Cube_FW_F4_V1.26.0/Middlewares/Third_Party/LwIP/src/core/ipv4/ip4_addr.c ****     i = 0;
 806              		.loc 1 298 22 is_stmt 1 discriminator 2 view .LVU255
 298:/Users/nhantt/STM32Cube/Repository/STM32Cube_FW_F4_V1.26.0/Middlewares/Third_Party/LwIP/src/core/ipv4/ip4_addr.c ****     i = 0;
 807              		.loc 1 298 23 is_stmt 0 discriminator 2 view .LVU256
 808 0080 0136     		adds	r6, r6, #1
 809              	.LVL85:
 298:/Users/nhantt/STM32Cube/Repository/STM32Cube_FW_F4_V1.26.0/Middlewares/Third_Party/LwIP/src/core/ipv4/ip4_addr.c ****     i = 0;
 810              		.loc 1 298 23 discriminator 2 view .LVU257
ARM GAS  /var/folders/k2/cd9bl_j17z77g23y6ffqb_400000gn/T//cca38xqy.s 			page 23


 811 0082 F6B2     		uxtb	r6, r6
 812              	.LVL86:
 311:/Users/nhantt/STM32Cube/Repository/STM32Cube_FW_F4_V1.26.0/Middlewares/Third_Party/LwIP/src/core/ipv4/ip4_addr.c ****       return NULL;
 813              		.loc 1 311 12 discriminator 2 view .LVU258
 814 0084 1C46     		mov	r4, r3
 815 0086 C4E7     		b	.L63
 816              	.LVL87:
 817              	.L72:
 317:/Users/nhantt/STM32Cube/Repository/STM32Cube_FW_F4_V1.26.0/Middlewares/Third_Party/LwIP/src/core/ipv4/ip4_addr.c ****   return buf;
 818              		.loc 1 317 3 is_stmt 1 view .LVU259
 317:/Users/nhantt/STM32Cube/Repository/STM32Cube_FW_F4_V1.26.0/Middlewares/Third_Party/LwIP/src/core/ipv4/ip4_addr.c ****   return buf;
 819              		.loc 1 317 9 is_stmt 0 view .LVU260
 820 0088 0023     		movs	r3, #0
 821 008a 0EF8013C 		strb	r3, [lr, #-1]
 318:/Users/nhantt/STM32Cube/Repository/STM32Cube_FW_F4_V1.26.0/Middlewares/Third_Party/LwIP/src/core/ipv4/ip4_addr.c **** }
 822              		.loc 1 318 3 is_stmt 1 view .LVU261
 318:/Users/nhantt/STM32Cube/Repository/STM32Cube_FW_F4_V1.26.0/Middlewares/Third_Party/LwIP/src/core/ipv4/ip4_addr.c **** }
 823              		.loc 1 318 10 is_stmt 0 view .LVU262
 824 008e 0846     		mov	r0, r1
 825 0090 ECE7     		b	.L62
 826              	.LVL88:
 827              	.L69:
 312:/Users/nhantt/STM32Cube/Repository/STM32Cube_FW_F4_V1.26.0/Middlewares/Third_Party/LwIP/src/core/ipv4/ip4_addr.c ****     }
 828              		.loc 1 312 14 view .LVU263
 829 0092 0020     		movs	r0, #0
 830              	.LVL89:
 312:/Users/nhantt/STM32Cube/Repository/STM32Cube_FW_F4_V1.26.0/Middlewares/Third_Party/LwIP/src/core/ipv4/ip4_addr.c ****     }
 831              		.loc 1 312 14 view .LVU264
 832 0094 EAE7     		b	.L62
 833              	.L76:
 834 0096 00BF     		.align	2
 835              	.L75:
 836 0098 CDCCCCCC 		.word	-858993459
 837              		.cfi_endproc
 838              	.LFE160:
 840              		.section	.text.ip4addr_ntoa,"ax",%progbits
 841              		.align	1
 842              		.global	ip4addr_ntoa
 843              		.syntax unified
 844              		.thumb
 845              		.thumb_func
 846              		.fpu fpv4-sp-d16
 848              	ip4addr_ntoa:
 849              	.LVL90:
 850              	.LFB159:
 268:/Users/nhantt/STM32Cube/Repository/STM32Cube_FW_F4_V1.26.0/Middlewares/Third_Party/LwIP/src/core/ipv4/ip4_addr.c ****   static char str[IP4ADDR_STRLEN_MAX];
 851              		.loc 1 268 1 is_stmt 1 view -0
 852              		.cfi_startproc
 853              		@ args = 0, pretend = 0, frame = 0
 854              		@ frame_needed = 0, uses_anonymous_args = 0
 268:/Users/nhantt/STM32Cube/Repository/STM32Cube_FW_F4_V1.26.0/Middlewares/Third_Party/LwIP/src/core/ipv4/ip4_addr.c ****   static char str[IP4ADDR_STRLEN_MAX];
 855              		.loc 1 268 1 is_stmt 0 view .LVU266
 856 0000 08B5     		push	{r3, lr}
 857              	.LCFI13:
 858              		.cfi_def_cfa_offset 8
 859              		.cfi_offset 3, -8
 860              		.cfi_offset 14, -4
ARM GAS  /var/folders/k2/cd9bl_j17z77g23y6ffqb_400000gn/T//cca38xqy.s 			page 24


 269:/Users/nhantt/STM32Cube/Repository/STM32Cube_FW_F4_V1.26.0/Middlewares/Third_Party/LwIP/src/core/ipv4/ip4_addr.c ****   return ip4addr_ntoa_r(addr, str, IP4ADDR_STRLEN_MAX);
 861              		.loc 1 269 3 is_stmt 1 view .LVU267
 270:/Users/nhantt/STM32Cube/Repository/STM32Cube_FW_F4_V1.26.0/Middlewares/Third_Party/LwIP/src/core/ipv4/ip4_addr.c **** }
 862              		.loc 1 270 3 view .LVU268
 270:/Users/nhantt/STM32Cube/Repository/STM32Cube_FW_F4_V1.26.0/Middlewares/Third_Party/LwIP/src/core/ipv4/ip4_addr.c **** }
 863              		.loc 1 270 10 is_stmt 0 view .LVU269
 864 0002 1022     		movs	r2, #16
 865 0004 0149     		ldr	r1, .L79
 866 0006 FFF7FEFF 		bl	ip4addr_ntoa_r
 867              	.LVL91:
 271:/Users/nhantt/STM32Cube/Repository/STM32Cube_FW_F4_V1.26.0/Middlewares/Third_Party/LwIP/src/core/ipv4/ip4_addr.c **** 
 868              		.loc 1 271 1 view .LVU270
 869 000a 08BD     		pop	{r3, pc}
 870              	.L80:
 871              		.align	2
 872              	.L79:
 873 000c 00000000 		.word	.LANCHOR0
 874              		.cfi_endproc
 875              	.LFE159:
 877              		.global	ip_addr_broadcast
 878              		.global	ip_addr_any
 879              		.section	.bss.str.0,"aw",%nobits
 880              		.align	2
 881              		.set	.LANCHOR0,. + 0
 884              	str.0:
 885 0000 00000000 		.space	16
 885      00000000 
 885      00000000 
 885      00000000 
 886              		.section	.rodata.ip_addr_any,"a"
 887              		.align	2
 890              	ip_addr_any:
 891 0000 00000000 		.space	4
 892              		.section	.rodata.ip_addr_broadcast,"a"
 893              		.align	2
 896              	ip_addr_broadcast:
 897 0000 FFFFFFFF 		.word	-1
 898              		.text
 899              	.Letext0:
 900              		.file 2 "/Users/nhantt/tools/stm32/gcc-arm-none-eabi-10-2020-q4-major/arm-none-eabi/include/machin
 901              		.file 3 "/Users/nhantt/tools/stm32/gcc-arm-none-eabi-10-2020-q4-major/arm-none-eabi/include/sys/_s
 902              		.file 4 "/Users/nhantt/STM32Cube/Repository/STM32Cube_FW_F4_V1.26.0/Middlewares/Third_Party/LwIP/s
 903              		.file 5 "/Users/nhantt/STM32Cube/Repository/STM32Cube_FW_F4_V1.26.0/Middlewares/Third_Party/LwIP/s
 904              		.file 6 "/Users/nhantt/STM32Cube/Repository/STM32Cube_FW_F4_V1.26.0/Middlewares/Third_Party/LwIP/s
 905              		.file 7 "/Users/nhantt/tools/stm32/gcc-arm-none-eabi-10-2020-q4-major/arm-none-eabi/include/ctype.
 906              		.file 8 "/Users/nhantt/STM32Cube/Repository/STM32Cube_FW_F4_V1.26.0/Middlewares/Third_Party/LwIP/s
 907              		.file 9 "/Users/nhantt/STM32Cube/Repository/STM32Cube_FW_F4_V1.26.0/Middlewares/Third_Party/LwIP/s
 908              		.file 10 "/Users/nhantt/STM32Cube/Repository/STM32Cube_FW_F4_V1.26.0/Middlewares/Third_Party/LwIP/
 909              		.file 11 "/Users/nhantt/STM32Cube/Repository/STM32Cube_FW_F4_V1.26.0/Middlewares/Third_Party/LwIP/
 910              		.file 12 "/Users/nhantt/tools/stm32/gcc-arm-none-eabi-10-2020-q4-major/arm-none-eabi/include/stdio
 911              		.file 13 "/Users/nhantt/STM32Cube/Repository/STM32Cube_FW_F4_V1.26.0/Middlewares/Third_Party/LwIP/
ARM GAS  /var/folders/k2/cd9bl_j17z77g23y6ffqb_400000gn/T//cca38xqy.s 			page 25


DEFINED SYMBOLS
                            *ABS*:0000000000000000 ip4_addr.c
/var/folders/k2/cd9bl_j17z77g23y6ffqb_400000gn/T//cca38xqy.s:18     .text.ip4_addr_isbroadcast_u32:0000000000000000 $t
/var/folders/k2/cd9bl_j17z77g23y6ffqb_400000gn/T//cca38xqy.s:26     .text.ip4_addr_isbroadcast_u32:0000000000000000 ip4_addr_isbroadcast_u32
/var/folders/k2/cd9bl_j17z77g23y6ffqb_400000gn/T//cca38xqy.s:102    .text.ip4_addr_netmask_valid:0000000000000000 $t
/var/folders/k2/cd9bl_j17z77g23y6ffqb_400000gn/T//cca38xqy.s:109    .text.ip4_addr_netmask_valid:0000000000000000 ip4_addr_netmask_valid
/var/folders/k2/cd9bl_j17z77g23y6ffqb_400000gn/T//cca38xqy.s:177    .rodata.ip4addr_aton.str1.4:0000000000000000 $d
/var/folders/k2/cd9bl_j17z77g23y6ffqb_400000gn/T//cca38xqy.s:189    .text.ip4addr_aton:0000000000000000 $t
/var/folders/k2/cd9bl_j17z77g23y6ffqb_400000gn/T//cca38xqy.s:196    .text.ip4addr_aton:0000000000000000 ip4addr_aton
/var/folders/k2/cd9bl_j17z77g23y6ffqb_400000gn/T//cca38xqy.s:398    .text.ip4addr_aton:00000000000000ac $d
/var/folders/k2/cd9bl_j17z77g23y6ffqb_400000gn/T//cca38xqy.s:584    .text.ip4addr_aton:0000000000000158 $d
/var/folders/k2/cd9bl_j17z77g23y6ffqb_400000gn/T//cca38xqy.s:592    .text.ipaddr_addr:0000000000000000 $t
/var/folders/k2/cd9bl_j17z77g23y6ffqb_400000gn/T//cca38xqy.s:599    .text.ipaddr_addr:0000000000000000 ipaddr_addr
/var/folders/k2/cd9bl_j17z77g23y6ffqb_400000gn/T//cca38xqy.s:643    .text.ip4addr_ntoa_r:0000000000000000 $t
/var/folders/k2/cd9bl_j17z77g23y6ffqb_400000gn/T//cca38xqy.s:650    .text.ip4addr_ntoa_r:0000000000000000 ip4addr_ntoa_r
/var/folders/k2/cd9bl_j17z77g23y6ffqb_400000gn/T//cca38xqy.s:836    .text.ip4addr_ntoa_r:0000000000000098 $d
/var/folders/k2/cd9bl_j17z77g23y6ffqb_400000gn/T//cca38xqy.s:841    .text.ip4addr_ntoa:0000000000000000 $t
/var/folders/k2/cd9bl_j17z77g23y6ffqb_400000gn/T//cca38xqy.s:848    .text.ip4addr_ntoa:0000000000000000 ip4addr_ntoa
/var/folders/k2/cd9bl_j17z77g23y6ffqb_400000gn/T//cca38xqy.s:873    .text.ip4addr_ntoa:000000000000000c $d
/var/folders/k2/cd9bl_j17z77g23y6ffqb_400000gn/T//cca38xqy.s:896    .rodata.ip_addr_broadcast:0000000000000000 ip_addr_broadcast
/var/folders/k2/cd9bl_j17z77g23y6ffqb_400000gn/T//cca38xqy.s:890    .rodata.ip_addr_any:0000000000000000 ip_addr_any
/var/folders/k2/cd9bl_j17z77g23y6ffqb_400000gn/T//cca38xqy.s:880    .bss.str.0:0000000000000000 $d
/var/folders/k2/cd9bl_j17z77g23y6ffqb_400000gn/T//cca38xqy.s:884    .bss.str.0:0000000000000000 str.0
/var/folders/k2/cd9bl_j17z77g23y6ffqb_400000gn/T//cca38xqy.s:887    .rodata.ip_addr_any:0000000000000000 $d
/var/folders/k2/cd9bl_j17z77g23y6ffqb_400000gn/T//cca38xqy.s:893    .rodata.ip_addr_broadcast:0000000000000000 $d
/var/folders/k2/cd9bl_j17z77g23y6ffqb_400000gn/T//cca38xqy.s:403    .text.ip4addr_aton:00000000000000b1 $d
/var/folders/k2/cd9bl_j17z77g23y6ffqb_400000gn/T//cca38xqy.s:403    .text.ip4addr_aton:00000000000000b2 $t

UNDEFINED SYMBOLS
lwip_htonl
printf
_ctype_
