ARM GAS  /var/folders/k2/cd9bl_j17z77g23y6ffqb_400000gn/T//ccIwwvll.s 			page 1


   1              		.cpu cortex-m4
   2              		.eabi_attribute 27, 1
   3              		.eabi_attribute 28, 1
   4              		.eabi_attribute 20, 1
   5              		.eabi_attribute 21, 1
   6              		.eabi_attribute 23, 3
   7              		.eabi_attribute 24, 1
   8              		.eabi_attribute 25, 1
   9              		.eabi_attribute 26, 1
  10              		.eabi_attribute 30, 1
  11              		.eabi_attribute 34, 1
  12              		.eabi_attribute 18, 4
  13              		.file	"lv_calendar_header_dropdown.c"
  14              		.text
  15              	.Ltext0:
  16              		.cfi_sections	.debug_frame
  17              		.section	.text.month_event_cb,"ax",%progbits
  18              		.align	1
  19              		.arch armv7e-m
  20              		.syntax unified
  21              		.thumb
  22              		.thumb_func
  23              		.fpu fpv4-sp-d16
  25              	month_event_cb:
  26              	.LVL0:
  27              	.LFB154:
  28              		.file 1 "lvgl/src/extra/widgets/calendar/lv_calendar_header_dropdown.c"
   1:lvgl/src/extra/widgets/calendar/lv_calendar_header_dropdown.c **** /**
   2:lvgl/src/extra/widgets/calendar/lv_calendar_header_dropdown.c ****  * @file lv_calendar_obj_dropdown.c
   3:lvgl/src/extra/widgets/calendar/lv_calendar_header_dropdown.c ****  *
   4:lvgl/src/extra/widgets/calendar/lv_calendar_header_dropdown.c ****  */
   5:lvgl/src/extra/widgets/calendar/lv_calendar_header_dropdown.c **** 
   6:lvgl/src/extra/widgets/calendar/lv_calendar_header_dropdown.c **** /*********************
   7:lvgl/src/extra/widgets/calendar/lv_calendar_header_dropdown.c ****  *      INCLUDES
   8:lvgl/src/extra/widgets/calendar/lv_calendar_header_dropdown.c ****  *********************/
   9:lvgl/src/extra/widgets/calendar/lv_calendar_header_dropdown.c **** #include "lv_calendar_header_dropdown.h"
  10:lvgl/src/extra/widgets/calendar/lv_calendar_header_dropdown.c **** #if LV_USE_CALENDAR_HEADER_DROPDOWN
  11:lvgl/src/extra/widgets/calendar/lv_calendar_header_dropdown.c **** 
  12:lvgl/src/extra/widgets/calendar/lv_calendar_header_dropdown.c **** #include "lv_calendar.h"
  13:lvgl/src/extra/widgets/calendar/lv_calendar_header_dropdown.c **** #include "../../../widgets/lv_dropdown.h"
  14:lvgl/src/extra/widgets/calendar/lv_calendar_header_dropdown.c **** #include "../../layouts/flex/lv_flex.h"
  15:lvgl/src/extra/widgets/calendar/lv_calendar_header_dropdown.c **** 
  16:lvgl/src/extra/widgets/calendar/lv_calendar_header_dropdown.c **** /*********************
  17:lvgl/src/extra/widgets/calendar/lv_calendar_header_dropdown.c ****  *      DEFINES
  18:lvgl/src/extra/widgets/calendar/lv_calendar_header_dropdown.c ****  *********************/
  19:lvgl/src/extra/widgets/calendar/lv_calendar_header_dropdown.c **** 
  20:lvgl/src/extra/widgets/calendar/lv_calendar_header_dropdown.c **** /**********************
  21:lvgl/src/extra/widgets/calendar/lv_calendar_header_dropdown.c ****  *      TYPEDEFS
  22:lvgl/src/extra/widgets/calendar/lv_calendar_header_dropdown.c ****  **********************/
  23:lvgl/src/extra/widgets/calendar/lv_calendar_header_dropdown.c **** 
  24:lvgl/src/extra/widgets/calendar/lv_calendar_header_dropdown.c **** /**********************
  25:lvgl/src/extra/widgets/calendar/lv_calendar_header_dropdown.c ****  *  STATIC PROTOTYPES
  26:lvgl/src/extra/widgets/calendar/lv_calendar_header_dropdown.c ****  **********************/
  27:lvgl/src/extra/widgets/calendar/lv_calendar_header_dropdown.c **** static void my_constructor(const lv_obj_class_t * class_p, lv_obj_t * obj);
  28:lvgl/src/extra/widgets/calendar/lv_calendar_header_dropdown.c **** static void year_event_cb(lv_event_t * e);
  29:lvgl/src/extra/widgets/calendar/lv_calendar_header_dropdown.c **** static void month_event_cb(lv_event_t * e);
  30:lvgl/src/extra/widgets/calendar/lv_calendar_header_dropdown.c **** 
ARM GAS  /var/folders/k2/cd9bl_j17z77g23y6ffqb_400000gn/T//ccIwwvll.s 			page 2


  31:lvgl/src/extra/widgets/calendar/lv_calendar_header_dropdown.c **** /**********************
  32:lvgl/src/extra/widgets/calendar/lv_calendar_header_dropdown.c ****  *  STATIC VARIABLES
  33:lvgl/src/extra/widgets/calendar/lv_calendar_header_dropdown.c ****  **********************/
  34:lvgl/src/extra/widgets/calendar/lv_calendar_header_dropdown.c **** const lv_obj_class_t lv_calendar_header_dropdown_class = {
  35:lvgl/src/extra/widgets/calendar/lv_calendar_header_dropdown.c ****      .base_class = &lv_obj_class,
  36:lvgl/src/extra/widgets/calendar/lv_calendar_header_dropdown.c ****      .constructor_cb = my_constructor
  37:lvgl/src/extra/widgets/calendar/lv_calendar_header_dropdown.c ****  };
  38:lvgl/src/extra/widgets/calendar/lv_calendar_header_dropdown.c **** 
  39:lvgl/src/extra/widgets/calendar/lv_calendar_header_dropdown.c **** static const char * month_list = "01\n02\n03\n04\n05\n06\n07\n08\n09\n10\n11\n12";
  40:lvgl/src/extra/widgets/calendar/lv_calendar_header_dropdown.c **** static const char * year_list = {
  41:lvgl/src/extra/widgets/calendar/lv_calendar_header_dropdown.c ****         "2023\n2022\n2021\n"
  42:lvgl/src/extra/widgets/calendar/lv_calendar_header_dropdown.c ****         "2020\n2019\n2018\n2017\n2016\n2015\n2014\n2013\n2012\n2011\n2010\n2009\n2008\n2007\n2006\n
  43:lvgl/src/extra/widgets/calendar/lv_calendar_header_dropdown.c ****         "2000\n1999\n1998\n1997\n1996\n1995\n1994\n1993\n1992\n1991\n1990\n1989\n1988\n1987\n1986\n
  44:lvgl/src/extra/widgets/calendar/lv_calendar_header_dropdown.c ****         "1980\n1979\n1978\n1977\n1976\n1975\n1974\n1973\n1972\n1971\n1970\n1969\n1968\n1967\n1966\n
  45:lvgl/src/extra/widgets/calendar/lv_calendar_header_dropdown.c ****         "1960\n1959\n1958\n1957\n1956\n1955\n1954\n1953\n1952\n1951\n1950\n1949\n1948\n1947\n1946\n
  46:lvgl/src/extra/widgets/calendar/lv_calendar_header_dropdown.c ****         "1940\n1939\n1938\n1937\n1936\n1935\n1934\n1933\n1932\n1931\n1930\n1929\n1928\n1927\n1926\n
  47:lvgl/src/extra/widgets/calendar/lv_calendar_header_dropdown.c ****         "1920\n1919\n1918\n1917\n1916\n1915\n1914\n1913\n1912\n1911\n1910\n1909\n1908\n1907\n1906\n
  48:lvgl/src/extra/widgets/calendar/lv_calendar_header_dropdown.c **** };
  49:lvgl/src/extra/widgets/calendar/lv_calendar_header_dropdown.c **** 
  50:lvgl/src/extra/widgets/calendar/lv_calendar_header_dropdown.c **** static lv_obj_t * calendar_param;
  51:lvgl/src/extra/widgets/calendar/lv_calendar_header_dropdown.c **** 
  52:lvgl/src/extra/widgets/calendar/lv_calendar_header_dropdown.c **** /**********************
  53:lvgl/src/extra/widgets/calendar/lv_calendar_header_dropdown.c ****  *      MACROS
  54:lvgl/src/extra/widgets/calendar/lv_calendar_header_dropdown.c ****  **********************/
  55:lvgl/src/extra/widgets/calendar/lv_calendar_header_dropdown.c **** 
  56:lvgl/src/extra/widgets/calendar/lv_calendar_header_dropdown.c **** /**********************
  57:lvgl/src/extra/widgets/calendar/lv_calendar_header_dropdown.c ****  *   GLOBAL FUNCTIONS
  58:lvgl/src/extra/widgets/calendar/lv_calendar_header_dropdown.c ****  **********************/
  59:lvgl/src/extra/widgets/calendar/lv_calendar_header_dropdown.c **** 
  60:lvgl/src/extra/widgets/calendar/lv_calendar_header_dropdown.c **** lv_obj_t * lv_calendar_header_dropdown_create(lv_obj_t * parent, lv_obj_t * calendar)
  61:lvgl/src/extra/widgets/calendar/lv_calendar_header_dropdown.c **** {
  62:lvgl/src/extra/widgets/calendar/lv_calendar_header_dropdown.c ****     calendar_param = calendar;
  63:lvgl/src/extra/widgets/calendar/lv_calendar_header_dropdown.c ****     lv_obj_t * obj = lv_obj_class_create_obj(&lv_calendar_header_dropdown_class, parent);
  64:lvgl/src/extra/widgets/calendar/lv_calendar_header_dropdown.c ****     lv_obj_class_init_obj(obj);
  65:lvgl/src/extra/widgets/calendar/lv_calendar_header_dropdown.c **** 
  66:lvgl/src/extra/widgets/calendar/lv_calendar_header_dropdown.c ****     return obj;
  67:lvgl/src/extra/widgets/calendar/lv_calendar_header_dropdown.c **** }
  68:lvgl/src/extra/widgets/calendar/lv_calendar_header_dropdown.c **** 
  69:lvgl/src/extra/widgets/calendar/lv_calendar_header_dropdown.c **** /**********************
  70:lvgl/src/extra/widgets/calendar/lv_calendar_header_dropdown.c ****  *  STATIC FUNCTIONS
  71:lvgl/src/extra/widgets/calendar/lv_calendar_header_dropdown.c ****  **********************/
  72:lvgl/src/extra/widgets/calendar/lv_calendar_header_dropdown.c **** 
  73:lvgl/src/extra/widgets/calendar/lv_calendar_header_dropdown.c **** static void my_constructor(const lv_obj_class_t * class_p, lv_obj_t * obj)
  74:lvgl/src/extra/widgets/calendar/lv_calendar_header_dropdown.c **** {
  75:lvgl/src/extra/widgets/calendar/lv_calendar_header_dropdown.c ****     LV_TRACE_OBJ_CREATE("begin");
  76:lvgl/src/extra/widgets/calendar/lv_calendar_header_dropdown.c **** 
  77:lvgl/src/extra/widgets/calendar/lv_calendar_header_dropdown.c ****     LV_UNUSED(class_p);
  78:lvgl/src/extra/widgets/calendar/lv_calendar_header_dropdown.c **** 
  79:lvgl/src/extra/widgets/calendar/lv_calendar_header_dropdown.c ****     /*Use the same paddings as the calendar_param*/
  80:lvgl/src/extra/widgets/calendar/lv_calendar_header_dropdown.c ****     lv_obj_set_style_pad_left(obj,lv_obj_get_style_pad_left(calendar_param, LV_PART_MAIN), 0);
  81:lvgl/src/extra/widgets/calendar/lv_calendar_header_dropdown.c ****     lv_obj_set_style_pad_right(obj,lv_obj_get_style_pad_right(calendar_param, LV_PART_MAIN), 0);
  82:lvgl/src/extra/widgets/calendar/lv_calendar_header_dropdown.c ****     lv_obj_set_style_pad_top(obj,lv_obj_get_style_pad_top(calendar_param, LV_PART_MAIN), 0);
  83:lvgl/src/extra/widgets/calendar/lv_calendar_header_dropdown.c ****     lv_obj_set_style_pad_bottom(obj,lv_obj_get_style_pad_bottom(calendar_param, LV_PART_MAIN), 0);
  84:lvgl/src/extra/widgets/calendar/lv_calendar_header_dropdown.c ****     lv_obj_set_style_pad_column(obj,lv_obj_get_style_pad_column(calendar_param, LV_PART_MAIN), 0);
  85:lvgl/src/extra/widgets/calendar/lv_calendar_header_dropdown.c ****     lv_obj_set_style_radius(obj,lv_obj_get_style_radius(calendar_param, LV_PART_MAIN), 0);
  86:lvgl/src/extra/widgets/calendar/lv_calendar_header_dropdown.c **** 
  87:lvgl/src/extra/widgets/calendar/lv_calendar_header_dropdown.c ****     const lv_calendar_date_t * cur_date = lv_calendar_get_showed_date(calendar_param);
ARM GAS  /var/folders/k2/cd9bl_j17z77g23y6ffqb_400000gn/T//ccIwwvll.s 			page 3


  88:lvgl/src/extra/widgets/calendar/lv_calendar_header_dropdown.c **** 
  89:lvgl/src/extra/widgets/calendar/lv_calendar_header_dropdown.c ****     lv_obj_update_layout(calendar_param);
  90:lvgl/src/extra/widgets/calendar/lv_calendar_header_dropdown.c ****     lv_coord_t w = lv_obj_get_width(calendar_param);
  91:lvgl/src/extra/widgets/calendar/lv_calendar_header_dropdown.c ****     lv_obj_set_size(obj,  w, LV_SIZE_CONTENT);
  92:lvgl/src/extra/widgets/calendar/lv_calendar_header_dropdown.c ****     lv_obj_set_flex_flow(obj, LV_FLEX_FLOW_ROW);
  93:lvgl/src/extra/widgets/calendar/lv_calendar_header_dropdown.c ****     lv_obj_set_flex_align(obj, LV_FLEX_ALIGN_START, LV_FLEX_ALIGN_CENTER, LV_FLEX_ALIGN_START);
  94:lvgl/src/extra/widgets/calendar/lv_calendar_header_dropdown.c **** 
  95:lvgl/src/extra/widgets/calendar/lv_calendar_header_dropdown.c ****     lv_obj_t * year_dd = lv_dropdown_create(obj);
  96:lvgl/src/extra/widgets/calendar/lv_calendar_header_dropdown.c ****     lv_dropdown_set_options(year_dd, year_list);
  97:lvgl/src/extra/widgets/calendar/lv_calendar_header_dropdown.c ****     lv_dropdown_set_selected(year_dd, 2023 - cur_date->year);
  98:lvgl/src/extra/widgets/calendar/lv_calendar_header_dropdown.c ****     lv_obj_add_event_cb(year_dd, year_event_cb, LV_EVENT_VALUE_CHANGED, calendar_param);
  99:lvgl/src/extra/widgets/calendar/lv_calendar_header_dropdown.c ****     lv_obj_set_flex_grow(year_dd, 1);
 100:lvgl/src/extra/widgets/calendar/lv_calendar_header_dropdown.c **** 
 101:lvgl/src/extra/widgets/calendar/lv_calendar_header_dropdown.c ****     lv_obj_t * month_dd = lv_dropdown_create(obj);
 102:lvgl/src/extra/widgets/calendar/lv_calendar_header_dropdown.c ****     lv_dropdown_set_options(month_dd, month_list);
 103:lvgl/src/extra/widgets/calendar/lv_calendar_header_dropdown.c ****     lv_dropdown_set_selected(month_dd, cur_date->month - 1);
 104:lvgl/src/extra/widgets/calendar/lv_calendar_header_dropdown.c ****     lv_obj_add_event_cb(month_dd, month_event_cb, LV_EVENT_VALUE_CHANGED, calendar_param);
 105:lvgl/src/extra/widgets/calendar/lv_calendar_header_dropdown.c ****     lv_obj_set_flex_grow(month_dd, 1);
 106:lvgl/src/extra/widgets/calendar/lv_calendar_header_dropdown.c **** 
 107:lvgl/src/extra/widgets/calendar/lv_calendar_header_dropdown.c ****     lv_obj_align_to(obj, calendar_param, LV_ALIGN_OUT_TOP_MID, 0, 0);
 108:lvgl/src/extra/widgets/calendar/lv_calendar_header_dropdown.c **** 
 109:lvgl/src/extra/widgets/calendar/lv_calendar_header_dropdown.c **** }
 110:lvgl/src/extra/widgets/calendar/lv_calendar_header_dropdown.c **** 
 111:lvgl/src/extra/widgets/calendar/lv_calendar_header_dropdown.c **** static void month_event_cb(lv_event_t * e)
 112:lvgl/src/extra/widgets/calendar/lv_calendar_header_dropdown.c **** {
  29              		.loc 1 112 1 view -0
  30              		.cfi_startproc
  31              		@ args = 0, pretend = 0, frame = 8
  32              		@ frame_needed = 0, uses_anonymous_args = 0
  33              		.loc 1 112 1 is_stmt 0 view .LVU1
  34 0000 30B5     		push	{r4, r5, lr}
  35              	.LCFI0:
  36              		.cfi_def_cfa_offset 12
  37              		.cfi_offset 4, -12
  38              		.cfi_offset 5, -8
  39              		.cfi_offset 14, -4
  40 0002 83B0     		sub	sp, sp, #12
  41              	.LCFI1:
  42              		.cfi_def_cfa_offset 24
  43 0004 0546     		mov	r5, r0
 113:lvgl/src/extra/widgets/calendar/lv_calendar_header_dropdown.c ****     lv_obj_t * dropdown = lv_event_get_target(e);
  44              		.loc 1 113 5 is_stmt 1 view .LVU2
  45              		.loc 1 113 27 is_stmt 0 view .LVU3
  46 0006 FFF7FEFF 		bl	lv_event_get_target
  47              	.LVL1:
  48              		.loc 1 113 27 view .LVU4
  49 000a 0446     		mov	r4, r0
  50              	.LVL2:
 114:lvgl/src/extra/widgets/calendar/lv_calendar_header_dropdown.c ****     lv_obj_t * calendar = lv_event_get_user_data(e);
  51              		.loc 1 114 5 is_stmt 1 view .LVU5
  52              		.loc 1 114 27 is_stmt 0 view .LVU6
  53 000c 2846     		mov	r0, r5
  54              	.LVL3:
  55              		.loc 1 114 27 view .LVU7
  56 000e FFF7FEFF 		bl	lv_event_get_user_data
  57              	.LVL4:
  58 0012 0546     		mov	r5, r0
ARM GAS  /var/folders/k2/cd9bl_j17z77g23y6ffqb_400000gn/T//ccIwwvll.s 			page 4


  59              	.LVL5:
 115:lvgl/src/extra/widgets/calendar/lv_calendar_header_dropdown.c **** 
 116:lvgl/src/extra/widgets/calendar/lv_calendar_header_dropdown.c ****     uint16_t sel = lv_dropdown_get_selected(dropdown);
  60              		.loc 1 116 5 is_stmt 1 view .LVU8
  61              		.loc 1 116 20 is_stmt 0 view .LVU9
  62 0014 2046     		mov	r0, r4
  63              	.LVL6:
  64              		.loc 1 116 20 view .LVU10
  65 0016 FFF7FEFF 		bl	lv_dropdown_get_selected
  66              	.LVL7:
  67 001a 0446     		mov	r4, r0
  68              	.LVL8:
 117:lvgl/src/extra/widgets/calendar/lv_calendar_header_dropdown.c **** 
 118:lvgl/src/extra/widgets/calendar/lv_calendar_header_dropdown.c ****     const lv_calendar_date_t * d;
  69              		.loc 1 118 5 is_stmt 1 view .LVU11
 119:lvgl/src/extra/widgets/calendar/lv_calendar_header_dropdown.c ****     d = lv_calendar_get_showed_date(calendar);
  70              		.loc 1 119 5 view .LVU12
  71              		.loc 1 119 9 is_stmt 0 view .LVU13
  72 001c 2846     		mov	r0, r5
  73 001e FFF7FEFF 		bl	lv_calendar_get_showed_date
  74              	.LVL9:
 120:lvgl/src/extra/widgets/calendar/lv_calendar_header_dropdown.c ****     lv_calendar_date_t newd = *d;
  75              		.loc 1 120 5 is_stmt 1 view .LVU14
  76              		.loc 1 120 24 is_stmt 0 view .LVU15
  77 0022 0068     		ldr	r0, [r0]	@ unaligned
  78              	.LVL10:
  79              		.loc 1 120 24 view .LVU16
  80 0024 0190     		str	r0, [sp, #4]
 121:lvgl/src/extra/widgets/calendar/lv_calendar_header_dropdown.c ****     newd.month = sel + 1;
  81              		.loc 1 121 5 is_stmt 1 view .LVU17
  82              		.loc 1 121 22 is_stmt 0 view .LVU18
  83 0026 621C     		adds	r2, r4, #1
  84 0028 52B2     		sxtb	r2, r2
  85              		.loc 1 121 16 view .LVU19
  86 002a 8DF80620 		strb	r2, [sp, #6]
 122:lvgl/src/extra/widgets/calendar/lv_calendar_header_dropdown.c **** 
 123:lvgl/src/extra/widgets/calendar/lv_calendar_header_dropdown.c ****     lv_calendar_set_showed_date(calendar, newd.year, newd.month);
  87              		.loc 1 123 5 is_stmt 1 view .LVU20
  88 002e BDF80410 		ldrh	r1, [sp, #4]
  89 0032 2846     		mov	r0, r5
  90 0034 FFF7FEFF 		bl	lv_calendar_set_showed_date
  91              	.LVL11:
 124:lvgl/src/extra/widgets/calendar/lv_calendar_header_dropdown.c **** }
  92              		.loc 1 124 1 is_stmt 0 view .LVU21
  93 0038 03B0     		add	sp, sp, #12
  94              	.LCFI2:
  95              		.cfi_def_cfa_offset 12
  96              		@ sp needed
  97 003a 30BD     		pop	{r4, r5, pc}
  98              		.loc 1 124 1 view .LVU22
  99              		.cfi_endproc
 100              	.LFE154:
 102              		.section	.text.year_event_cb,"ax",%progbits
 103              		.align	1
 104              		.syntax unified
 105              		.thumb
 106              		.thumb_func
ARM GAS  /var/folders/k2/cd9bl_j17z77g23y6ffqb_400000gn/T//ccIwwvll.s 			page 5


 107              		.fpu fpv4-sp-d16
 109              	year_event_cb:
 110              	.LVL12:
 111              	.LFB155:
 125:lvgl/src/extra/widgets/calendar/lv_calendar_header_dropdown.c **** static void year_event_cb(lv_event_t * e)
 126:lvgl/src/extra/widgets/calendar/lv_calendar_header_dropdown.c **** {
 112              		.loc 1 126 1 is_stmt 1 view -0
 113              		.cfi_startproc
 114              		@ args = 0, pretend = 0, frame = 8
 115              		@ frame_needed = 0, uses_anonymous_args = 0
 116              		.loc 1 126 1 is_stmt 0 view .LVU24
 117 0000 30B5     		push	{r4, r5, lr}
 118              	.LCFI3:
 119              		.cfi_def_cfa_offset 12
 120              		.cfi_offset 4, -12
 121              		.cfi_offset 5, -8
 122              		.cfi_offset 14, -4
 123 0002 83B0     		sub	sp, sp, #12
 124              	.LCFI4:
 125              		.cfi_def_cfa_offset 24
 126 0004 0546     		mov	r5, r0
 127:lvgl/src/extra/widgets/calendar/lv_calendar_header_dropdown.c ****     lv_obj_t * dropdown = lv_event_get_target(e);
 127              		.loc 1 127 5 is_stmt 1 view .LVU25
 128              		.loc 1 127 27 is_stmt 0 view .LVU26
 129 0006 FFF7FEFF 		bl	lv_event_get_target
 130              	.LVL13:
 131              		.loc 1 127 27 view .LVU27
 132 000a 0446     		mov	r4, r0
 133              	.LVL14:
 128:lvgl/src/extra/widgets/calendar/lv_calendar_header_dropdown.c ****     lv_obj_t * calendar = lv_event_get_user_data(e);
 134              		.loc 1 128 5 is_stmt 1 view .LVU28
 135              		.loc 1 128 27 is_stmt 0 view .LVU29
 136 000c 2846     		mov	r0, r5
 137              	.LVL15:
 138              		.loc 1 128 27 view .LVU30
 139 000e FFF7FEFF 		bl	lv_event_get_user_data
 140              	.LVL16:
 141 0012 0546     		mov	r5, r0
 142              	.LVL17:
 129:lvgl/src/extra/widgets/calendar/lv_calendar_header_dropdown.c **** 
 130:lvgl/src/extra/widgets/calendar/lv_calendar_header_dropdown.c ****     uint16_t sel = lv_dropdown_get_selected(dropdown);
 143              		.loc 1 130 5 is_stmt 1 view .LVU31
 144              		.loc 1 130 20 is_stmt 0 view .LVU32
 145 0014 2046     		mov	r0, r4
 146              	.LVL18:
 147              		.loc 1 130 20 view .LVU33
 148 0016 FFF7FEFF 		bl	lv_dropdown_get_selected
 149              	.LVL19:
 150 001a 0446     		mov	r4, r0
 151              	.LVL20:
 131:lvgl/src/extra/widgets/calendar/lv_calendar_header_dropdown.c **** 
 132:lvgl/src/extra/widgets/calendar/lv_calendar_header_dropdown.c ****     const lv_calendar_date_t * d;
 152              		.loc 1 132 5 is_stmt 1 view .LVU34
 133:lvgl/src/extra/widgets/calendar/lv_calendar_header_dropdown.c ****     d = lv_calendar_get_showed_date(calendar);
 153              		.loc 1 133 5 view .LVU35
 154              		.loc 1 133 9 is_stmt 0 view .LVU36
 155 001c 2846     		mov	r0, r5
ARM GAS  /var/folders/k2/cd9bl_j17z77g23y6ffqb_400000gn/T//ccIwwvll.s 			page 6


 156 001e FFF7FEFF 		bl	lv_calendar_get_showed_date
 157              	.LVL21:
 134:lvgl/src/extra/widgets/calendar/lv_calendar_header_dropdown.c ****     lv_calendar_date_t newd = *d;
 158              		.loc 1 134 5 is_stmt 1 view .LVU37
 159              		.loc 1 134 24 is_stmt 0 view .LVU38
 160 0022 0068     		ldr	r0, [r0]	@ unaligned
 161              	.LVL22:
 162              		.loc 1 134 24 view .LVU39
 163 0024 0190     		str	r0, [sp, #4]
 135:lvgl/src/extra/widgets/calendar/lv_calendar_header_dropdown.c ****     newd.year = 2023 - sel;
 164              		.loc 1 135 5 is_stmt 1 view .LVU40
 165              		.loc 1 135 22 is_stmt 0 view .LVU41
 166 0026 C4F5FC61 		rsb	r1, r4, #2016
 167 002a 0731     		adds	r1, r1, #7
 168 002c 89B2     		uxth	r1, r1
 169              		.loc 1 135 15 view .LVU42
 170 002e ADF80410 		strh	r1, [sp, #4]	@ movhi
 136:lvgl/src/extra/widgets/calendar/lv_calendar_header_dropdown.c **** 
 137:lvgl/src/extra/widgets/calendar/lv_calendar_header_dropdown.c ****     lv_calendar_set_showed_date(calendar, newd.year, newd.month);
 171              		.loc 1 137 5 is_stmt 1 view .LVU43
 172 0032 9DF90620 		ldrsb	r2, [sp, #6]
 173 0036 2846     		mov	r0, r5
 174 0038 FFF7FEFF 		bl	lv_calendar_set_showed_date
 175              	.LVL23:
 138:lvgl/src/extra/widgets/calendar/lv_calendar_header_dropdown.c **** }
 176              		.loc 1 138 1 is_stmt 0 view .LVU44
 177 003c 03B0     		add	sp, sp, #12
 178              	.LCFI5:
 179              		.cfi_def_cfa_offset 12
 180              		@ sp needed
 181 003e 30BD     		pop	{r4, r5, pc}
 182              		.loc 1 138 1 view .LVU45
 183              		.cfi_endproc
 184              	.LFE155:
 186              		.section	.rodata.my_constructor.str1.4,"aMS",%progbits,1
 187              		.align	2
 188              	.LC0:
 189 0000 32303233 		.ascii	"2023\0122022\0122021\0122020\0122019\0122018\012201"
 189      0A323032 
 189      320A3230 
 189      32310A32 
 189      3032300A 
 190 0021 370A3230 		.ascii	"7\0122016\0122015\0122014\0122013\0122012\0122011\012"
 190      31360A32 
 190      3031350A 
 190      32303134 
 190      0A323031 
 191 0041 32303130 		.ascii	"2010\0122009\0122008\0122007\0122006\0122005\012200"
 191      0A323030 
 191      390A3230 
 191      30380A32 
 191      3030370A 
 192 0062 340A3230 		.ascii	"4\0122003\0122002\0122001\0122000\0121999\0121998\012"
 192      30330A32 
 192      3030320A 
 192      32303031 
 192      0A323030 
ARM GAS  /var/folders/k2/cd9bl_j17z77g23y6ffqb_400000gn/T//ccIwwvll.s 			page 7


 193 0082 31393937 		.ascii	"1997\0121996\0121995\0121994\0121993\0121992\012199"
 193      0A313939 
 193      360A3139 
 193      39350A31 
 193      3939340A 
 194 00a3 310A3139 		.ascii	"1\0121990\0121989\0121988\0121987\0121986\0121985\012"
 194      39300A31 
 194      3938390A 
 194      31393838 
 194      0A313938 
 195 00c3 31393834 		.ascii	"1984\0121983\0121982\0121981\0121980\0121979\012197"
 195      0A313938 
 195      330A3139 
 195      38320A31 
 195      3938310A 
 196 00e4 380A3139 		.ascii	"8\0121977\0121976\0121975\0121974\0121973\0121972\012"
 196      37370A31 
 196      3937360A 
 196      31393735 
 196      0A313937 
 197 0104 31393731 		.ascii	"1971\0121970\0121969\0121968\0121967\0121966\012196"
 197      0A313937 
 197      300A3139 
 197      36390A31 
 197      3936380A 
 198 0125 350A3139 		.ascii	"5\0121964\0121963\0121962\0121961\0121960\0121959\012"
 198      36340A31 
 198      3936330A 
 198      31393632 
 198      0A313936 
 199 0145 31393538 		.ascii	"1958\0121957\0121956\0121955\0121954\0121953\012195"
 199      0A313935 
 199      370A3139 
 199      35360A31 
 199      3935350A 
 200 0166 320A3139 		.ascii	"2\0121951\0121950\0121949\0121948\0121947\0121946\012"
 200      35310A31 
 200      3935300A 
 200      31393439 
 200      0A313934 
 201 0186 31393435 		.ascii	"1945\0121944\0121943\0121942\0121941\0121940\012193"
 201      0A313934 
 201      340A3139 
 201      34330A31 
 201      3934320A 
 202 01a7 390A3139 		.ascii	"9\0121938\0121937\0121936\0121935\0121934\0121933\012"
 202      33380A31 
 202      3933370A 
 202      31393336 
 202      0A313933 
 203 01c7 31393332 		.ascii	"1932\0121931\0121930\0121929\0121928\0121927\012192"
 203      0A313933 
 203      310A3139 
 203      33300A31 
 203      3932390A 
 204 01e8 360A3139 		.ascii	"6\0121925\0121924\0121923\0121922\0121921\0121920\012"
 204      32350A31 
ARM GAS  /var/folders/k2/cd9bl_j17z77g23y6ffqb_400000gn/T//ccIwwvll.s 			page 8


 204      3932340A 
 204      31393233 
 204      0A313932 
 205 0208 31393139 		.ascii	"1919\0121918\0121917\0121916\0121915\0121914\012191"
 205      0A313931 
 205      380A3139 
 205      31370A31 
 205      3931360A 
 206 0229 330A3139 		.ascii	"3\0121912\0121911\0121910\0121909\0121908\0121907\012"
 206      31320A31 
 206      3931310A 
 206      31393130 
 206      0A313930 
 207 0249 31393036 		.ascii	"1906\0121905\0121904\0121903\0121902\0121901\000"
 207      0A313930 
 207      350A3139 
 207      30340A31 
 207      3930330A 
 208 0267 00       		.align	2
 209              	.LC1:
 210 0268 30310A30 		.ascii	"01\01202\01203\01204\01205\01206\01207\01208\01209\012"
 210      320A3033 
 210      0A30340A 
 210      30350A30 
 210      360A3037 
 211 0283 31300A31 		.ascii	"10\01211\01212\000"
 211      310A3132 
 211      00
 212              		.section	.text.my_constructor,"ax",%progbits
 213              		.align	1
 214              		.syntax unified
 215              		.thumb
 216              		.thumb_func
 217              		.fpu fpv4-sp-d16
 219              	my_constructor:
 220              	.LVL24:
 221              	.LFB153:
  74:lvgl/src/extra/widgets/calendar/lv_calendar_header_dropdown.c ****     LV_TRACE_OBJ_CREATE("begin");
 222              		.loc 1 74 1 is_stmt 1 view -0
 223              		.cfi_startproc
 224              		@ args = 0, pretend = 0, frame = 0
 225              		@ frame_needed = 0, uses_anonymous_args = 0
  74:lvgl/src/extra/widgets/calendar/lv_calendar_header_dropdown.c ****     LV_TRACE_OBJ_CREATE("begin");
 226              		.loc 1 74 1 is_stmt 0 view .LVU47
 227 0000 F0B5     		push	{r4, r5, r6, r7, lr}
 228              	.LCFI6:
 229              		.cfi_def_cfa_offset 20
 230              		.cfi_offset 4, -20
 231              		.cfi_offset 5, -16
 232              		.cfi_offset 6, -12
 233              		.cfi_offset 7, -8
 234              		.cfi_offset 14, -4
 235 0002 83B0     		sub	sp, sp, #12
 236              	.LCFI7:
 237              		.cfi_def_cfa_offset 32
 238 0004 0C46     		mov	r4, r1
  75:lvgl/src/extra/widgets/calendar/lv_calendar_header_dropdown.c **** 
ARM GAS  /var/folders/k2/cd9bl_j17z77g23y6ffqb_400000gn/T//ccIwwvll.s 			page 9


 239              		.loc 1 75 33 is_stmt 1 view .LVU48
  77:lvgl/src/extra/widgets/calendar/lv_calendar_header_dropdown.c **** 
 240              		.loc 1 77 5 view .LVU49
  80:lvgl/src/extra/widgets/calendar/lv_calendar_header_dropdown.c ****     lv_obj_set_style_pad_right(obj,lv_obj_get_style_pad_right(calendar_param, LV_PART_MAIN), 0);
 241              		.loc 1 80 5 view .LVU50
 242 0006 4B4D     		ldr	r5, .L7
 243              	.LVL25:
 244              	.LBB14:
 245              	.LBI14:
 246              		.file 2 "lvgl/src/extra/widgets/calendar/../../../core/lv_obj_style_gen.h"
   1:lvgl/src/extra/widgets/calendar/../../../core/lv_obj_style_gen.h **** static inline lv_coord_t lv_obj_get_style_width(const struct _lv_obj_t * obj, uint32_t part)
   2:lvgl/src/extra/widgets/calendar/../../../core/lv_obj_style_gen.h **** {
   3:lvgl/src/extra/widgets/calendar/../../../core/lv_obj_style_gen.h ****     lv_style_value_t v = lv_obj_get_style_prop(obj, part, LV_STYLE_WIDTH);
   4:lvgl/src/extra/widgets/calendar/../../../core/lv_obj_style_gen.h ****     return (lv_coord_t)v.num;
   5:lvgl/src/extra/widgets/calendar/../../../core/lv_obj_style_gen.h **** }
   6:lvgl/src/extra/widgets/calendar/../../../core/lv_obj_style_gen.h **** 
   7:lvgl/src/extra/widgets/calendar/../../../core/lv_obj_style_gen.h **** static inline lv_coord_t lv_obj_get_style_min_width(const struct _lv_obj_t * obj, uint32_t part)
   8:lvgl/src/extra/widgets/calendar/../../../core/lv_obj_style_gen.h **** {
   9:lvgl/src/extra/widgets/calendar/../../../core/lv_obj_style_gen.h ****     lv_style_value_t v = lv_obj_get_style_prop(obj, part, LV_STYLE_MIN_WIDTH);
  10:lvgl/src/extra/widgets/calendar/../../../core/lv_obj_style_gen.h ****     return (lv_coord_t)v.num;
  11:lvgl/src/extra/widgets/calendar/../../../core/lv_obj_style_gen.h **** }
  12:lvgl/src/extra/widgets/calendar/../../../core/lv_obj_style_gen.h **** 
  13:lvgl/src/extra/widgets/calendar/../../../core/lv_obj_style_gen.h **** static inline lv_coord_t lv_obj_get_style_max_width(const struct _lv_obj_t * obj, uint32_t part)
  14:lvgl/src/extra/widgets/calendar/../../../core/lv_obj_style_gen.h **** {
  15:lvgl/src/extra/widgets/calendar/../../../core/lv_obj_style_gen.h ****     lv_style_value_t v = lv_obj_get_style_prop(obj, part, LV_STYLE_MAX_WIDTH);
  16:lvgl/src/extra/widgets/calendar/../../../core/lv_obj_style_gen.h ****     return (lv_coord_t)v.num;
  17:lvgl/src/extra/widgets/calendar/../../../core/lv_obj_style_gen.h **** }
  18:lvgl/src/extra/widgets/calendar/../../../core/lv_obj_style_gen.h **** 
  19:lvgl/src/extra/widgets/calendar/../../../core/lv_obj_style_gen.h **** static inline lv_coord_t lv_obj_get_style_height(const struct _lv_obj_t * obj, uint32_t part)
  20:lvgl/src/extra/widgets/calendar/../../../core/lv_obj_style_gen.h **** {
  21:lvgl/src/extra/widgets/calendar/../../../core/lv_obj_style_gen.h ****     lv_style_value_t v = lv_obj_get_style_prop(obj, part, LV_STYLE_HEIGHT);
  22:lvgl/src/extra/widgets/calendar/../../../core/lv_obj_style_gen.h ****     return (lv_coord_t)v.num;
  23:lvgl/src/extra/widgets/calendar/../../../core/lv_obj_style_gen.h **** }
  24:lvgl/src/extra/widgets/calendar/../../../core/lv_obj_style_gen.h **** 
  25:lvgl/src/extra/widgets/calendar/../../../core/lv_obj_style_gen.h **** static inline lv_coord_t lv_obj_get_style_min_height(const struct _lv_obj_t * obj, uint32_t part)
  26:lvgl/src/extra/widgets/calendar/../../../core/lv_obj_style_gen.h **** {
  27:lvgl/src/extra/widgets/calendar/../../../core/lv_obj_style_gen.h ****     lv_style_value_t v = lv_obj_get_style_prop(obj, part, LV_STYLE_MIN_HEIGHT);
  28:lvgl/src/extra/widgets/calendar/../../../core/lv_obj_style_gen.h ****     return (lv_coord_t)v.num;
  29:lvgl/src/extra/widgets/calendar/../../../core/lv_obj_style_gen.h **** }
  30:lvgl/src/extra/widgets/calendar/../../../core/lv_obj_style_gen.h **** 
  31:lvgl/src/extra/widgets/calendar/../../../core/lv_obj_style_gen.h **** static inline lv_coord_t lv_obj_get_style_max_height(const struct _lv_obj_t * obj, uint32_t part)
  32:lvgl/src/extra/widgets/calendar/../../../core/lv_obj_style_gen.h **** {
  33:lvgl/src/extra/widgets/calendar/../../../core/lv_obj_style_gen.h ****     lv_style_value_t v = lv_obj_get_style_prop(obj, part, LV_STYLE_MAX_HEIGHT);
  34:lvgl/src/extra/widgets/calendar/../../../core/lv_obj_style_gen.h ****     return (lv_coord_t)v.num;
  35:lvgl/src/extra/widgets/calendar/../../../core/lv_obj_style_gen.h **** }
  36:lvgl/src/extra/widgets/calendar/../../../core/lv_obj_style_gen.h **** 
  37:lvgl/src/extra/widgets/calendar/../../../core/lv_obj_style_gen.h **** static inline lv_coord_t lv_obj_get_style_x(const struct _lv_obj_t * obj, uint32_t part)
  38:lvgl/src/extra/widgets/calendar/../../../core/lv_obj_style_gen.h **** {
  39:lvgl/src/extra/widgets/calendar/../../../core/lv_obj_style_gen.h ****     lv_style_value_t v = lv_obj_get_style_prop(obj, part, LV_STYLE_X);
  40:lvgl/src/extra/widgets/calendar/../../../core/lv_obj_style_gen.h ****     return (lv_coord_t)v.num;
  41:lvgl/src/extra/widgets/calendar/../../../core/lv_obj_style_gen.h **** }
  42:lvgl/src/extra/widgets/calendar/../../../core/lv_obj_style_gen.h **** 
  43:lvgl/src/extra/widgets/calendar/../../../core/lv_obj_style_gen.h **** static inline lv_coord_t lv_obj_get_style_y(const struct _lv_obj_t * obj, uint32_t part)
  44:lvgl/src/extra/widgets/calendar/../../../core/lv_obj_style_gen.h **** {
  45:lvgl/src/extra/widgets/calendar/../../../core/lv_obj_style_gen.h ****     lv_style_value_t v = lv_obj_get_style_prop(obj, part, LV_STYLE_Y);
  46:lvgl/src/extra/widgets/calendar/../../../core/lv_obj_style_gen.h ****     return (lv_coord_t)v.num;
  47:lvgl/src/extra/widgets/calendar/../../../core/lv_obj_style_gen.h **** }
ARM GAS  /var/folders/k2/cd9bl_j17z77g23y6ffqb_400000gn/T//ccIwwvll.s 			page 10


  48:lvgl/src/extra/widgets/calendar/../../../core/lv_obj_style_gen.h **** 
  49:lvgl/src/extra/widgets/calendar/../../../core/lv_obj_style_gen.h **** static inline lv_align_t lv_obj_get_style_align(const struct _lv_obj_t * obj, uint32_t part)
  50:lvgl/src/extra/widgets/calendar/../../../core/lv_obj_style_gen.h **** {
  51:lvgl/src/extra/widgets/calendar/../../../core/lv_obj_style_gen.h ****     lv_style_value_t v = lv_obj_get_style_prop(obj, part, LV_STYLE_ALIGN);
  52:lvgl/src/extra/widgets/calendar/../../../core/lv_obj_style_gen.h ****     return (lv_align_t)v.num;
  53:lvgl/src/extra/widgets/calendar/../../../core/lv_obj_style_gen.h **** }
  54:lvgl/src/extra/widgets/calendar/../../../core/lv_obj_style_gen.h **** 
  55:lvgl/src/extra/widgets/calendar/../../../core/lv_obj_style_gen.h **** static inline lv_coord_t lv_obj_get_style_transform_width(const struct _lv_obj_t * obj, uint32_t pa
  56:lvgl/src/extra/widgets/calendar/../../../core/lv_obj_style_gen.h **** {
  57:lvgl/src/extra/widgets/calendar/../../../core/lv_obj_style_gen.h ****     lv_style_value_t v = lv_obj_get_style_prop(obj, part, LV_STYLE_TRANSFORM_WIDTH);
  58:lvgl/src/extra/widgets/calendar/../../../core/lv_obj_style_gen.h ****     return (lv_coord_t)v.num;
  59:lvgl/src/extra/widgets/calendar/../../../core/lv_obj_style_gen.h **** }
  60:lvgl/src/extra/widgets/calendar/../../../core/lv_obj_style_gen.h **** 
  61:lvgl/src/extra/widgets/calendar/../../../core/lv_obj_style_gen.h **** static inline lv_coord_t lv_obj_get_style_transform_height(const struct _lv_obj_t * obj, uint32_t p
  62:lvgl/src/extra/widgets/calendar/../../../core/lv_obj_style_gen.h **** {
  63:lvgl/src/extra/widgets/calendar/../../../core/lv_obj_style_gen.h ****     lv_style_value_t v = lv_obj_get_style_prop(obj, part, LV_STYLE_TRANSFORM_HEIGHT);
  64:lvgl/src/extra/widgets/calendar/../../../core/lv_obj_style_gen.h ****     return (lv_coord_t)v.num;
  65:lvgl/src/extra/widgets/calendar/../../../core/lv_obj_style_gen.h **** }
  66:lvgl/src/extra/widgets/calendar/../../../core/lv_obj_style_gen.h **** 
  67:lvgl/src/extra/widgets/calendar/../../../core/lv_obj_style_gen.h **** static inline lv_coord_t lv_obj_get_style_translate_x(const struct _lv_obj_t * obj, uint32_t part)
  68:lvgl/src/extra/widgets/calendar/../../../core/lv_obj_style_gen.h **** {
  69:lvgl/src/extra/widgets/calendar/../../../core/lv_obj_style_gen.h ****     lv_style_value_t v = lv_obj_get_style_prop(obj, part, LV_STYLE_TRANSLATE_X);
  70:lvgl/src/extra/widgets/calendar/../../../core/lv_obj_style_gen.h ****     return (lv_coord_t)v.num;
  71:lvgl/src/extra/widgets/calendar/../../../core/lv_obj_style_gen.h **** }
  72:lvgl/src/extra/widgets/calendar/../../../core/lv_obj_style_gen.h **** 
  73:lvgl/src/extra/widgets/calendar/../../../core/lv_obj_style_gen.h **** static inline lv_coord_t lv_obj_get_style_translate_y(const struct _lv_obj_t * obj, uint32_t part)
  74:lvgl/src/extra/widgets/calendar/../../../core/lv_obj_style_gen.h **** {
  75:lvgl/src/extra/widgets/calendar/../../../core/lv_obj_style_gen.h ****     lv_style_value_t v = lv_obj_get_style_prop(obj, part, LV_STYLE_TRANSLATE_Y);
  76:lvgl/src/extra/widgets/calendar/../../../core/lv_obj_style_gen.h ****     return (lv_coord_t)v.num;
  77:lvgl/src/extra/widgets/calendar/../../../core/lv_obj_style_gen.h **** }
  78:lvgl/src/extra/widgets/calendar/../../../core/lv_obj_style_gen.h **** 
  79:lvgl/src/extra/widgets/calendar/../../../core/lv_obj_style_gen.h **** static inline lv_coord_t lv_obj_get_style_transform_zoom(const struct _lv_obj_t * obj, uint32_t par
  80:lvgl/src/extra/widgets/calendar/../../../core/lv_obj_style_gen.h **** {
  81:lvgl/src/extra/widgets/calendar/../../../core/lv_obj_style_gen.h ****     lv_style_value_t v = lv_obj_get_style_prop(obj, part, LV_STYLE_TRANSFORM_ZOOM);
  82:lvgl/src/extra/widgets/calendar/../../../core/lv_obj_style_gen.h ****     return (lv_coord_t)v.num;
  83:lvgl/src/extra/widgets/calendar/../../../core/lv_obj_style_gen.h **** }
  84:lvgl/src/extra/widgets/calendar/../../../core/lv_obj_style_gen.h **** 
  85:lvgl/src/extra/widgets/calendar/../../../core/lv_obj_style_gen.h **** static inline lv_coord_t lv_obj_get_style_transform_angle(const struct _lv_obj_t * obj, uint32_t pa
  86:lvgl/src/extra/widgets/calendar/../../../core/lv_obj_style_gen.h **** {
  87:lvgl/src/extra/widgets/calendar/../../../core/lv_obj_style_gen.h ****     lv_style_value_t v = lv_obj_get_style_prop(obj, part, LV_STYLE_TRANSFORM_ANGLE);
  88:lvgl/src/extra/widgets/calendar/../../../core/lv_obj_style_gen.h ****     return (lv_coord_t)v.num;
  89:lvgl/src/extra/widgets/calendar/../../../core/lv_obj_style_gen.h **** }
  90:lvgl/src/extra/widgets/calendar/../../../core/lv_obj_style_gen.h **** 
  91:lvgl/src/extra/widgets/calendar/../../../core/lv_obj_style_gen.h **** static inline lv_coord_t lv_obj_get_style_pad_top(const struct _lv_obj_t * obj, uint32_t part)
  92:lvgl/src/extra/widgets/calendar/../../../core/lv_obj_style_gen.h **** {
  93:lvgl/src/extra/widgets/calendar/../../../core/lv_obj_style_gen.h ****     lv_style_value_t v = lv_obj_get_style_prop(obj, part, LV_STYLE_PAD_TOP);
  94:lvgl/src/extra/widgets/calendar/../../../core/lv_obj_style_gen.h ****     return (lv_coord_t)v.num;
  95:lvgl/src/extra/widgets/calendar/../../../core/lv_obj_style_gen.h **** }
  96:lvgl/src/extra/widgets/calendar/../../../core/lv_obj_style_gen.h **** 
  97:lvgl/src/extra/widgets/calendar/../../../core/lv_obj_style_gen.h **** static inline lv_coord_t lv_obj_get_style_pad_bottom(const struct _lv_obj_t * obj, uint32_t part)
  98:lvgl/src/extra/widgets/calendar/../../../core/lv_obj_style_gen.h **** {
  99:lvgl/src/extra/widgets/calendar/../../../core/lv_obj_style_gen.h ****     lv_style_value_t v = lv_obj_get_style_prop(obj, part, LV_STYLE_PAD_BOTTOM);
 100:lvgl/src/extra/widgets/calendar/../../../core/lv_obj_style_gen.h ****     return (lv_coord_t)v.num;
 101:lvgl/src/extra/widgets/calendar/../../../core/lv_obj_style_gen.h **** }
 102:lvgl/src/extra/widgets/calendar/../../../core/lv_obj_style_gen.h **** 
 103:lvgl/src/extra/widgets/calendar/../../../core/lv_obj_style_gen.h **** static inline lv_coord_t lv_obj_get_style_pad_left(const struct _lv_obj_t * obj, uint32_t part)
 247              		.loc 2 103 26 view .LVU51
ARM GAS  /var/folders/k2/cd9bl_j17z77g23y6ffqb_400000gn/T//ccIwwvll.s 			page 11


 248              	.LBB15:
 104:lvgl/src/extra/widgets/calendar/../../../core/lv_obj_style_gen.h **** {
 105:lvgl/src/extra/widgets/calendar/../../../core/lv_obj_style_gen.h ****     lv_style_value_t v = lv_obj_get_style_prop(obj, part, LV_STYLE_PAD_LEFT);
 249              		.loc 2 105 5 view .LVU52
 250              		.loc 2 105 26 is_stmt 0 view .LVU53
 251 0008 41F21202 		movw	r2, #4114
 252 000c 0021     		movs	r1, #0
 253              	.LVL26:
 254              		.loc 2 105 26 view .LVU54
 255 000e 2868     		ldr	r0, [r5]
 256              	.LVL27:
 257              		.loc 2 105 26 view .LVU55
 258 0010 FFF7FEFF 		bl	lv_obj_get_style_prop
 259              	.LVL28:
 106:lvgl/src/extra/widgets/calendar/../../../core/lv_obj_style_gen.h ****     return (lv_coord_t)v.num;
 260              		.loc 2 106 5 is_stmt 1 view .LVU56
 261              		.loc 2 106 5 is_stmt 0 view .LVU57
 262              	.LBE15:
 263              	.LBE14:
  80:lvgl/src/extra/widgets/calendar/lv_calendar_header_dropdown.c ****     lv_obj_set_style_pad_right(obj,lv_obj_get_style_pad_right(calendar_param, LV_PART_MAIN), 0);
 264              		.loc 1 80 5 view .LVU58
 265 0014 0022     		movs	r2, #0
 266 0016 01B2     		sxth	r1, r0
 267 0018 2046     		mov	r0, r4
 268 001a FFF7FEFF 		bl	lv_obj_set_style_pad_left
 269              	.LVL29:
  81:lvgl/src/extra/widgets/calendar/lv_calendar_header_dropdown.c ****     lv_obj_set_style_pad_top(obj,lv_obj_get_style_pad_top(calendar_param, LV_PART_MAIN), 0);
 270              		.loc 1 81 5 is_stmt 1 view .LVU59
 271              	.LBB16:
 272              	.LBI16:
 107:lvgl/src/extra/widgets/calendar/../../../core/lv_obj_style_gen.h **** }
 108:lvgl/src/extra/widgets/calendar/../../../core/lv_obj_style_gen.h **** 
 109:lvgl/src/extra/widgets/calendar/../../../core/lv_obj_style_gen.h **** static inline lv_coord_t lv_obj_get_style_pad_right(const struct _lv_obj_t * obj, uint32_t part)
 273              		.loc 2 109 26 view .LVU60
 274              	.LBB17:
 110:lvgl/src/extra/widgets/calendar/../../../core/lv_obj_style_gen.h **** {
 111:lvgl/src/extra/widgets/calendar/../../../core/lv_obj_style_gen.h ****     lv_style_value_t v = lv_obj_get_style_prop(obj, part, LV_STYLE_PAD_RIGHT);
 275              		.loc 2 111 5 view .LVU61
 276              		.loc 2 111 26 is_stmt 0 view .LVU62
 277 001e 41F21302 		movw	r2, #4115
 278 0022 0021     		movs	r1, #0
 279 0024 2868     		ldr	r0, [r5]
 280 0026 FFF7FEFF 		bl	lv_obj_get_style_prop
 281              	.LVL30:
 112:lvgl/src/extra/widgets/calendar/../../../core/lv_obj_style_gen.h ****     return (lv_coord_t)v.num;
 282              		.loc 2 112 5 is_stmt 1 view .LVU63
 283              		.loc 2 112 5 is_stmt 0 view .LVU64
 284              	.LBE17:
 285              	.LBE16:
  81:lvgl/src/extra/widgets/calendar/lv_calendar_header_dropdown.c ****     lv_obj_set_style_pad_top(obj,lv_obj_get_style_pad_top(calendar_param, LV_PART_MAIN), 0);
 286              		.loc 1 81 5 view .LVU65
 287 002a 0022     		movs	r2, #0
 288 002c 01B2     		sxth	r1, r0
 289 002e 2046     		mov	r0, r4
 290 0030 FFF7FEFF 		bl	lv_obj_set_style_pad_right
 291              	.LVL31:
  82:lvgl/src/extra/widgets/calendar/lv_calendar_header_dropdown.c ****     lv_obj_set_style_pad_bottom(obj,lv_obj_get_style_pad_bottom(calendar_param, LV_PART_MAIN), 0);
ARM GAS  /var/folders/k2/cd9bl_j17z77g23y6ffqb_400000gn/T//ccIwwvll.s 			page 12


 292              		.loc 1 82 5 is_stmt 1 view .LVU66
 293              	.LBB18:
 294              	.LBI18:
  91:lvgl/src/extra/widgets/calendar/../../../core/lv_obj_style_gen.h **** {
 295              		.loc 2 91 26 view .LVU67
 296              	.LBB19:
  93:lvgl/src/extra/widgets/calendar/../../../core/lv_obj_style_gen.h ****     return (lv_coord_t)v.num;
 297              		.loc 2 93 5 view .LVU68
  93:lvgl/src/extra/widgets/calendar/../../../core/lv_obj_style_gen.h ****     return (lv_coord_t)v.num;
 298              		.loc 2 93 26 is_stmt 0 view .LVU69
 299 0034 41F21002 		movw	r2, #4112
 300 0038 0021     		movs	r1, #0
 301 003a 2868     		ldr	r0, [r5]
 302 003c FFF7FEFF 		bl	lv_obj_get_style_prop
 303              	.LVL32:
  94:lvgl/src/extra/widgets/calendar/../../../core/lv_obj_style_gen.h **** }
 304              		.loc 2 94 5 is_stmt 1 view .LVU70
  94:lvgl/src/extra/widgets/calendar/../../../core/lv_obj_style_gen.h **** }
 305              		.loc 2 94 5 is_stmt 0 view .LVU71
 306              	.LBE19:
 307              	.LBE18:
  82:lvgl/src/extra/widgets/calendar/lv_calendar_header_dropdown.c ****     lv_obj_set_style_pad_bottom(obj,lv_obj_get_style_pad_bottom(calendar_param, LV_PART_MAIN), 0);
 308              		.loc 1 82 5 view .LVU72
 309 0040 0022     		movs	r2, #0
 310 0042 01B2     		sxth	r1, r0
 311 0044 2046     		mov	r0, r4
 312 0046 FFF7FEFF 		bl	lv_obj_set_style_pad_top
 313              	.LVL33:
  83:lvgl/src/extra/widgets/calendar/lv_calendar_header_dropdown.c ****     lv_obj_set_style_pad_column(obj,lv_obj_get_style_pad_column(calendar_param, LV_PART_MAIN), 0);
 314              		.loc 1 83 5 is_stmt 1 view .LVU73
 315              	.LBB20:
 316              	.LBI20:
  97:lvgl/src/extra/widgets/calendar/../../../core/lv_obj_style_gen.h **** {
 317              		.loc 2 97 26 view .LVU74
 318              	.LBB21:
  99:lvgl/src/extra/widgets/calendar/../../../core/lv_obj_style_gen.h ****     return (lv_coord_t)v.num;
 319              		.loc 2 99 5 view .LVU75
  99:lvgl/src/extra/widgets/calendar/../../../core/lv_obj_style_gen.h ****     return (lv_coord_t)v.num;
 320              		.loc 2 99 26 is_stmt 0 view .LVU76
 321 004a 41F21102 		movw	r2, #4113
 322 004e 0021     		movs	r1, #0
 323 0050 2868     		ldr	r0, [r5]
 324 0052 FFF7FEFF 		bl	lv_obj_get_style_prop
 325              	.LVL34:
 100:lvgl/src/extra/widgets/calendar/../../../core/lv_obj_style_gen.h **** }
 326              		.loc 2 100 5 is_stmt 1 view .LVU77
 100:lvgl/src/extra/widgets/calendar/../../../core/lv_obj_style_gen.h **** }
 327              		.loc 2 100 5 is_stmt 0 view .LVU78
 328              	.LBE21:
 329              	.LBE20:
  83:lvgl/src/extra/widgets/calendar/lv_calendar_header_dropdown.c ****     lv_obj_set_style_pad_column(obj,lv_obj_get_style_pad_column(calendar_param, LV_PART_MAIN), 0);
 330              		.loc 1 83 5 view .LVU79
 331 0056 0022     		movs	r2, #0
 332 0058 01B2     		sxth	r1, r0
 333 005a 2046     		mov	r0, r4
 334 005c FFF7FEFF 		bl	lv_obj_set_style_pad_bottom
 335              	.LVL35:
ARM GAS  /var/folders/k2/cd9bl_j17z77g23y6ffqb_400000gn/T//ccIwwvll.s 			page 13


  84:lvgl/src/extra/widgets/calendar/lv_calendar_header_dropdown.c ****     lv_obj_set_style_radius(obj,lv_obj_get_style_radius(calendar_param, LV_PART_MAIN), 0);
 336              		.loc 1 84 5 is_stmt 1 view .LVU80
 337              	.LBB22:
 338              	.LBI22:
 113:lvgl/src/extra/widgets/calendar/../../../core/lv_obj_style_gen.h **** }
 114:lvgl/src/extra/widgets/calendar/../../../core/lv_obj_style_gen.h **** 
 115:lvgl/src/extra/widgets/calendar/../../../core/lv_obj_style_gen.h **** static inline lv_coord_t lv_obj_get_style_pad_row(const struct _lv_obj_t * obj, uint32_t part)
 116:lvgl/src/extra/widgets/calendar/../../../core/lv_obj_style_gen.h **** {
 117:lvgl/src/extra/widgets/calendar/../../../core/lv_obj_style_gen.h ****     lv_style_value_t v = lv_obj_get_style_prop(obj, part, LV_STYLE_PAD_ROW);
 118:lvgl/src/extra/widgets/calendar/../../../core/lv_obj_style_gen.h ****     return (lv_coord_t)v.num;
 119:lvgl/src/extra/widgets/calendar/../../../core/lv_obj_style_gen.h **** }
 120:lvgl/src/extra/widgets/calendar/../../../core/lv_obj_style_gen.h **** 
 121:lvgl/src/extra/widgets/calendar/../../../core/lv_obj_style_gen.h **** static inline lv_coord_t lv_obj_get_style_pad_column(const struct _lv_obj_t * obj, uint32_t part)
 339              		.loc 2 121 26 view .LVU81
 340              	.LBB23:
 122:lvgl/src/extra/widgets/calendar/../../../core/lv_obj_style_gen.h **** {
 123:lvgl/src/extra/widgets/calendar/../../../core/lv_obj_style_gen.h ****     lv_style_value_t v = lv_obj_get_style_prop(obj, part, LV_STYLE_PAD_COLUMN);
 341              		.loc 2 123 5 view .LVU82
 342              		.loc 2 123 26 is_stmt 0 view .LVU83
 343 0060 41F21502 		movw	r2, #4117
 344 0064 0021     		movs	r1, #0
 345 0066 2868     		ldr	r0, [r5]
 346 0068 FFF7FEFF 		bl	lv_obj_get_style_prop
 347              	.LVL36:
 124:lvgl/src/extra/widgets/calendar/../../../core/lv_obj_style_gen.h ****     return (lv_coord_t)v.num;
 348              		.loc 2 124 5 is_stmt 1 view .LVU84
 349              		.loc 2 124 5 is_stmt 0 view .LVU85
 350              	.LBE23:
 351              	.LBE22:
  84:lvgl/src/extra/widgets/calendar/lv_calendar_header_dropdown.c ****     lv_obj_set_style_radius(obj,lv_obj_get_style_radius(calendar_param, LV_PART_MAIN), 0);
 352              		.loc 1 84 5 view .LVU86
 353 006c 0022     		movs	r2, #0
 354 006e 01B2     		sxth	r1, r0
 355 0070 2046     		mov	r0, r4
 356 0072 FFF7FEFF 		bl	lv_obj_set_style_pad_column
 357              	.LVL37:
  85:lvgl/src/extra/widgets/calendar/lv_calendar_header_dropdown.c **** 
 358              		.loc 1 85 5 is_stmt 1 view .LVU87
 359              	.LBB24:
 360              	.LBI24:
 125:lvgl/src/extra/widgets/calendar/../../../core/lv_obj_style_gen.h **** }
 126:lvgl/src/extra/widgets/calendar/../../../core/lv_obj_style_gen.h **** 
 127:lvgl/src/extra/widgets/calendar/../../../core/lv_obj_style_gen.h **** static inline lv_coord_t lv_obj_get_style_radius(const struct _lv_obj_t * obj, uint32_t part)
 361              		.loc 2 127 26 view .LVU88
 362              	.LBB25:
 128:lvgl/src/extra/widgets/calendar/../../../core/lv_obj_style_gen.h **** {
 129:lvgl/src/extra/widgets/calendar/../../../core/lv_obj_style_gen.h ****     lv_style_value_t v = lv_obj_get_style_prop(obj, part, LV_STYLE_RADIUS);
 363              		.loc 2 129 5 view .LVU89
 364              		.loc 2 129 26 is_stmt 0 view .LVU90
 365 0076 6022     		movs	r2, #96
 366 0078 0021     		movs	r1, #0
 367 007a 2868     		ldr	r0, [r5]
 368 007c FFF7FEFF 		bl	lv_obj_get_style_prop
 369              	.LVL38:
 130:lvgl/src/extra/widgets/calendar/../../../core/lv_obj_style_gen.h ****     return (lv_coord_t)v.num;
 370              		.loc 2 130 5 is_stmt 1 view .LVU91
 371              		.loc 2 130 5 is_stmt 0 view .LVU92
ARM GAS  /var/folders/k2/cd9bl_j17z77g23y6ffqb_400000gn/T//ccIwwvll.s 			page 14


 372              	.LBE25:
 373              	.LBE24:
  85:lvgl/src/extra/widgets/calendar/lv_calendar_header_dropdown.c **** 
 374              		.loc 1 85 5 view .LVU93
 375 0080 0022     		movs	r2, #0
 376 0082 01B2     		sxth	r1, r0
 377 0084 2046     		mov	r0, r4
 378 0086 FFF7FEFF 		bl	lv_obj_set_style_radius
 379              	.LVL39:
  87:lvgl/src/extra/widgets/calendar/lv_calendar_header_dropdown.c **** 
 380              		.loc 1 87 5 is_stmt 1 view .LVU94
  87:lvgl/src/extra/widgets/calendar/lv_calendar_header_dropdown.c **** 
 381              		.loc 1 87 43 is_stmt 0 view .LVU95
 382 008a 2868     		ldr	r0, [r5]
 383 008c FFF7FEFF 		bl	lv_calendar_get_showed_date
 384              	.LVL40:
 385 0090 0746     		mov	r7, r0
 386              	.LVL41:
  89:lvgl/src/extra/widgets/calendar/lv_calendar_header_dropdown.c ****     lv_coord_t w = lv_obj_get_width(calendar_param);
 387              		.loc 1 89 5 is_stmt 1 view .LVU96
 388 0092 2868     		ldr	r0, [r5]
 389              	.LVL42:
  89:lvgl/src/extra/widgets/calendar/lv_calendar_header_dropdown.c ****     lv_coord_t w = lv_obj_get_width(calendar_param);
 390              		.loc 1 89 5 is_stmt 0 view .LVU97
 391 0094 FFF7FEFF 		bl	lv_obj_update_layout
 392              	.LVL43:
  90:lvgl/src/extra/widgets/calendar/lv_calendar_header_dropdown.c ****     lv_obj_set_size(obj,  w, LV_SIZE_CONTENT);
 393              		.loc 1 90 5 is_stmt 1 view .LVU98
  90:lvgl/src/extra/widgets/calendar/lv_calendar_header_dropdown.c ****     lv_obj_set_size(obj,  w, LV_SIZE_CONTENT);
 394              		.loc 1 90 20 is_stmt 0 view .LVU99
 395 0098 2868     		ldr	r0, [r5]
 396 009a FFF7FEFF 		bl	lv_obj_get_width
 397              	.LVL44:
 398 009e 0146     		mov	r1, r0
 399              	.LVL45:
  91:lvgl/src/extra/widgets/calendar/lv_calendar_header_dropdown.c ****     lv_obj_set_flex_flow(obj, LV_FLEX_FLOW_ROW);
 400              		.loc 1 91 5 is_stmt 1 view .LVU100
 401 00a0 42F2D172 		movw	r2, #10193
 402 00a4 2046     		mov	r0, r4
 403 00a6 FFF7FEFF 		bl	lv_obj_set_size
 404              	.LVL46:
  92:lvgl/src/extra/widgets/calendar/lv_calendar_header_dropdown.c ****     lv_obj_set_flex_align(obj, LV_FLEX_ALIGN_START, LV_FLEX_ALIGN_CENTER, LV_FLEX_ALIGN_START);
 405              		.loc 1 92 5 view .LVU101
 406 00aa 0021     		movs	r1, #0
 407 00ac 2046     		mov	r0, r4
 408 00ae FFF7FEFF 		bl	lv_obj_set_flex_flow
 409              	.LVL47:
  93:lvgl/src/extra/widgets/calendar/lv_calendar_header_dropdown.c **** 
 410              		.loc 1 93 5 view .LVU102
 411 00b2 0023     		movs	r3, #0
 412 00b4 0222     		movs	r2, #2
 413 00b6 1946     		mov	r1, r3
 414 00b8 2046     		mov	r0, r4
 415 00ba FFF7FEFF 		bl	lv_obj_set_flex_align
 416              	.LVL48:
  95:lvgl/src/extra/widgets/calendar/lv_calendar_header_dropdown.c ****     lv_dropdown_set_options(year_dd, year_list);
 417              		.loc 1 95 5 view .LVU103
ARM GAS  /var/folders/k2/cd9bl_j17z77g23y6ffqb_400000gn/T//ccIwwvll.s 			page 15


  95:lvgl/src/extra/widgets/calendar/lv_calendar_header_dropdown.c ****     lv_dropdown_set_options(year_dd, year_list);
 418              		.loc 1 95 26 is_stmt 0 view .LVU104
 419 00be 2046     		mov	r0, r4
 420 00c0 FFF7FEFF 		bl	lv_dropdown_create
 421              	.LVL49:
 422 00c4 0646     		mov	r6, r0
 423              	.LVL50:
  96:lvgl/src/extra/widgets/calendar/lv_calendar_header_dropdown.c ****     lv_dropdown_set_selected(year_dd, 2023 - cur_date->year);
 424              		.loc 1 96 5 is_stmt 1 view .LVU105
 425 00c6 1C49     		ldr	r1, .L7+4
 426 00c8 FFF7FEFF 		bl	lv_dropdown_set_options
 427              	.LVL51:
  97:lvgl/src/extra/widgets/calendar/lv_calendar_header_dropdown.c ****     lv_obj_add_event_cb(year_dd, year_event_cb, LV_EVENT_VALUE_CHANGED, calendar_param);
 428              		.loc 1 97 5 view .LVU106
  97:lvgl/src/extra/widgets/calendar/lv_calendar_header_dropdown.c ****     lv_obj_add_event_cb(year_dd, year_event_cb, LV_EVENT_VALUE_CHANGED, calendar_param);
 429              		.loc 1 97 54 is_stmt 0 view .LVU107
 430 00cc 3988     		ldrh	r1, [r7]
  97:lvgl/src/extra/widgets/calendar/lv_calendar_header_dropdown.c ****     lv_obj_add_event_cb(year_dd, year_event_cb, LV_EVENT_VALUE_CHANGED, calendar_param);
 431              		.loc 1 97 5 view .LVU108
 432 00ce C1F5FC61 		rsb	r1, r1, #2016
 433 00d2 0731     		adds	r1, r1, #7
 434 00d4 89B2     		uxth	r1, r1
 435 00d6 3046     		mov	r0, r6
 436 00d8 FFF7FEFF 		bl	lv_dropdown_set_selected
 437              	.LVL52:
  98:lvgl/src/extra/widgets/calendar/lv_calendar_header_dropdown.c ****     lv_obj_set_flex_grow(year_dd, 1);
 438              		.loc 1 98 5 is_stmt 1 view .LVU109
 439 00dc 2B68     		ldr	r3, [r5]
 440 00de 1C22     		movs	r2, #28
 441 00e0 1649     		ldr	r1, .L7+8
 442 00e2 3046     		mov	r0, r6
 443 00e4 FFF7FEFF 		bl	lv_obj_add_event_cb
 444              	.LVL53:
  99:lvgl/src/extra/widgets/calendar/lv_calendar_header_dropdown.c **** 
 445              		.loc 1 99 5 view .LVU110
 446 00e8 0121     		movs	r1, #1
 447 00ea 3046     		mov	r0, r6
 448 00ec FFF7FEFF 		bl	lv_obj_set_flex_grow
 449              	.LVL54:
 101:lvgl/src/extra/widgets/calendar/lv_calendar_header_dropdown.c ****     lv_dropdown_set_options(month_dd, month_list);
 450              		.loc 1 101 5 view .LVU111
 101:lvgl/src/extra/widgets/calendar/lv_calendar_header_dropdown.c ****     lv_dropdown_set_options(month_dd, month_list);
 451              		.loc 1 101 27 is_stmt 0 view .LVU112
 452 00f0 2046     		mov	r0, r4
 453 00f2 FFF7FEFF 		bl	lv_dropdown_create
 454              	.LVL55:
 455 00f6 0646     		mov	r6, r0
 456              	.LVL56:
 102:lvgl/src/extra/widgets/calendar/lv_calendar_header_dropdown.c ****     lv_dropdown_set_selected(month_dd, cur_date->month - 1);
 457              		.loc 1 102 5 is_stmt 1 view .LVU113
 458 00f8 1149     		ldr	r1, .L7+12
 459 00fa FFF7FEFF 		bl	lv_dropdown_set_options
 460              	.LVL57:
 103:lvgl/src/extra/widgets/calendar/lv_calendar_header_dropdown.c ****     lv_obj_add_event_cb(month_dd, month_event_cb, LV_EVENT_VALUE_CHANGED, calendar_param);
 461              		.loc 1 103 5 view .LVU114
 103:lvgl/src/extra/widgets/calendar/lv_calendar_header_dropdown.c ****     lv_obj_add_event_cb(month_dd, month_event_cb, LV_EVENT_VALUE_CHANGED, calendar_param);
 462              		.loc 1 103 48 is_stmt 0 view .LVU115
ARM GAS  /var/folders/k2/cd9bl_j17z77g23y6ffqb_400000gn/T//ccIwwvll.s 			page 16


 463 00fe 97F90210 		ldrsb	r1, [r7, #2]
 464 0102 89B2     		uxth	r1, r1
 103:lvgl/src/extra/widgets/calendar/lv_calendar_header_dropdown.c ****     lv_obj_add_event_cb(month_dd, month_event_cb, LV_EVENT_VALUE_CHANGED, calendar_param);
 465              		.loc 1 103 5 view .LVU116
 466 0104 0139     		subs	r1, r1, #1
 467 0106 89B2     		uxth	r1, r1
 468 0108 3046     		mov	r0, r6
 469 010a FFF7FEFF 		bl	lv_dropdown_set_selected
 470              	.LVL58:
 104:lvgl/src/extra/widgets/calendar/lv_calendar_header_dropdown.c ****     lv_obj_set_flex_grow(month_dd, 1);
 471              		.loc 1 104 5 is_stmt 1 view .LVU117
 472 010e 2B68     		ldr	r3, [r5]
 473 0110 1C22     		movs	r2, #28
 474 0112 0C49     		ldr	r1, .L7+16
 475 0114 3046     		mov	r0, r6
 476 0116 FFF7FEFF 		bl	lv_obj_add_event_cb
 477              	.LVL59:
 105:lvgl/src/extra/widgets/calendar/lv_calendar_header_dropdown.c **** 
 478              		.loc 1 105 5 view .LVU118
 479 011a 0121     		movs	r1, #1
 480 011c 3046     		mov	r0, r6
 481 011e FFF7FEFF 		bl	lv_obj_set_flex_grow
 482              	.LVL60:
 107:lvgl/src/extra/widgets/calendar/lv_calendar_header_dropdown.c **** 
 483              		.loc 1 107 5 view .LVU119
 484 0122 0023     		movs	r3, #0
 485 0124 0093     		str	r3, [sp]
 486 0126 0B22     		movs	r2, #11
 487 0128 2968     		ldr	r1, [r5]
 488 012a 2046     		mov	r0, r4
 489 012c FFF7FEFF 		bl	lv_obj_align_to
 490              	.LVL61:
 109:lvgl/src/extra/widgets/calendar/lv_calendar_header_dropdown.c **** 
 491              		.loc 1 109 1 is_stmt 0 view .LVU120
 492 0130 03B0     		add	sp, sp, #12
 493              	.LCFI8:
 494              		.cfi_def_cfa_offset 20
 495              		@ sp needed
 496 0132 F0BD     		pop	{r4, r5, r6, r7, pc}
 497              	.LVL62:
 498              	.L8:
 109:lvgl/src/extra/widgets/calendar/lv_calendar_header_dropdown.c **** 
 499              		.loc 1 109 1 view .LVU121
 500              		.align	2
 501              	.L7:
 502 0134 00000000 		.word	.LANCHOR0
 503 0138 00000000 		.word	.LC0
 504 013c 00000000 		.word	year_event_cb
 505 0140 68020000 		.word	.LC1
 506 0144 00000000 		.word	month_event_cb
 507              		.cfi_endproc
 508              	.LFE153:
 510              		.section	.text.lv_calendar_header_dropdown_create,"ax",%progbits
 511              		.align	1
 512              		.global	lv_calendar_header_dropdown_create
 513              		.syntax unified
 514              		.thumb
ARM GAS  /var/folders/k2/cd9bl_j17z77g23y6ffqb_400000gn/T//ccIwwvll.s 			page 17


 515              		.thumb_func
 516              		.fpu fpv4-sp-d16
 518              	lv_calendar_header_dropdown_create:
 519              	.LVL63:
 520              	.LFB152:
  61:lvgl/src/extra/widgets/calendar/lv_calendar_header_dropdown.c ****     calendar_param = calendar;
 521              		.loc 1 61 1 is_stmt 1 view -0
 522              		.cfi_startproc
 523              		@ args = 0, pretend = 0, frame = 0
 524              		@ frame_needed = 0, uses_anonymous_args = 0
  61:lvgl/src/extra/widgets/calendar/lv_calendar_header_dropdown.c ****     calendar_param = calendar;
 525              		.loc 1 61 1 is_stmt 0 view .LVU123
 526 0000 10B5     		push	{r4, lr}
 527              	.LCFI9:
 528              		.cfi_def_cfa_offset 8
 529              		.cfi_offset 4, -8
 530              		.cfi_offset 14, -4
  62:lvgl/src/extra/widgets/calendar/lv_calendar_header_dropdown.c ****     lv_obj_t * obj = lv_obj_class_create_obj(&lv_calendar_header_dropdown_class, parent);
 531              		.loc 1 62 5 is_stmt 1 view .LVU124
  62:lvgl/src/extra/widgets/calendar/lv_calendar_header_dropdown.c ****     lv_obj_t * obj = lv_obj_class_create_obj(&lv_calendar_header_dropdown_class, parent);
 532              		.loc 1 62 20 is_stmt 0 view .LVU125
 533 0002 054B     		ldr	r3, .L11
 534 0004 1960     		str	r1, [r3]
  63:lvgl/src/extra/widgets/calendar/lv_calendar_header_dropdown.c ****     lv_obj_class_init_obj(obj);
 535              		.loc 1 63 5 is_stmt 1 view .LVU126
  63:lvgl/src/extra/widgets/calendar/lv_calendar_header_dropdown.c ****     lv_obj_class_init_obj(obj);
 536              		.loc 1 63 22 is_stmt 0 view .LVU127
 537 0006 0146     		mov	r1, r0
 538              	.LVL64:
  63:lvgl/src/extra/widgets/calendar/lv_calendar_header_dropdown.c ****     lv_obj_class_init_obj(obj);
 539              		.loc 1 63 22 view .LVU128
 540 0008 0448     		ldr	r0, .L11+4
 541              	.LVL65:
  63:lvgl/src/extra/widgets/calendar/lv_calendar_header_dropdown.c ****     lv_obj_class_init_obj(obj);
 542              		.loc 1 63 22 view .LVU129
 543 000a FFF7FEFF 		bl	lv_obj_class_create_obj
 544              	.LVL66:
  63:lvgl/src/extra/widgets/calendar/lv_calendar_header_dropdown.c ****     lv_obj_class_init_obj(obj);
 545              		.loc 1 63 22 view .LVU130
 546 000e 0446     		mov	r4, r0
 547              	.LVL67:
  64:lvgl/src/extra/widgets/calendar/lv_calendar_header_dropdown.c **** 
 548              		.loc 1 64 5 is_stmt 1 view .LVU131
 549 0010 FFF7FEFF 		bl	lv_obj_class_init_obj
 550              	.LVL68:
  66:lvgl/src/extra/widgets/calendar/lv_calendar_header_dropdown.c **** }
 551              		.loc 1 66 5 view .LVU132
  67:lvgl/src/extra/widgets/calendar/lv_calendar_header_dropdown.c **** 
 552              		.loc 1 67 1 is_stmt 0 view .LVU133
 553 0014 2046     		mov	r0, r4
 554 0016 10BD     		pop	{r4, pc}
 555              	.LVL69:
 556              	.L12:
  67:lvgl/src/extra/widgets/calendar/lv_calendar_header_dropdown.c **** 
 557              		.loc 1 67 1 view .LVU134
 558              		.align	2
 559              	.L11:
ARM GAS  /var/folders/k2/cd9bl_j17z77g23y6ffqb_400000gn/T//ccIwwvll.s 			page 18


 560 0018 00000000 		.word	.LANCHOR0
 561 001c 00000000 		.word	.LANCHOR1
 562              		.cfi_endproc
 563              	.LFE152:
 565              		.global	lv_calendar_header_dropdown_class
 566              		.section	.bss.calendar_param,"aw",%nobits
 567              		.align	2
 568              		.set	.LANCHOR0,. + 0
 571              	calendar_param:
 572 0000 00000000 		.space	4
 573              		.section	.rodata.lv_calendar_header_dropdown_class,"a"
 574              		.align	2
 575              		.set	.LANCHOR1,. + 0
 578              	lv_calendar_header_dropdown_class:
 579 0000 00000000 		.word	lv_obj_class
 580 0004 00000000 		.word	my_constructor
 581 0008 00000000 		.space	20
 581      00000000 
 581      00000000 
 581      00000000 
 581      00000000 
 582              		.text
 583              	.Letext0:
 584              		.file 3 "/Users/nhantt/tools/stm32/gcc-arm-none-eabi-10-2020-q4-major/arm-none-eabi/include/machin
 585              		.file 4 "/Users/nhantt/tools/stm32/gcc-arm-none-eabi-10-2020-q4-major/arm-none-eabi/include/sys/_s
 586              		.file 5 "lvgl/src/extra/widgets/calendar/../../../core/../misc/../font/../misc/lv_area.h"
 587              		.file 6 "lvgl/src/extra/widgets/calendar/../../../core/../misc/lv_color.h"
 588              		.file 7 "lvgl/src/extra/widgets/calendar/../../../core/../misc/lv_style.h"
 589              		.file 8 "lvgl/src/extra/widgets/calendar/../../../core/../hal/../misc/lv_ll.h"
 590              		.file 9 "lvgl/src/extra/widgets/calendar/../../../core/lv_obj.h"
 591              		.file 10 "lvgl/src/extra/widgets/calendar/../../../core/lv_group.h"
 592              		.file 11 "lvgl/src/extra/widgets/calendar/../../../core/lv_obj_scroll.h"
 593              		.file 12 "lvgl/src/extra/widgets/calendar/../../../core/lv_obj_style.h"
 594              		.file 13 "lvgl/src/extra/widgets/calendar/../../../core/lv_obj_class.h"
 595              		.file 14 "lvgl/src/extra/widgets/calendar/../../../core/lv_event.h"
 596              		.file 15 "lvgl/src/extra/widgets/calendar/lv_calendar_header_dropdown.h"
 597              		.file 16 "lvgl/src/extra/widgets/calendar/lv_calendar.h"
 598              		.file 17 "lvgl/src/extra/widgets/calendar/../../layouts/flex/lv_flex.h"
 599              		.file 18 "lvgl/src/extra/widgets/calendar/../../../widgets/lv_dropdown.h"
 600              		.file 19 "lvgl/src/extra/widgets/calendar/../../../core/lv_obj_pos.h"
ARM GAS  /var/folders/k2/cd9bl_j17z77g23y6ffqb_400000gn/T//ccIwwvll.s 			page 19

