ARM GAS  /var/folders/k2/cd9bl_j17z77g23y6ffqb_400000gn/T//cc0jKSMI.s 			page 1


   1              		.cpu cortex-m4
   2              		.eabi_attribute 27, 1
   3              		.eabi_attribute 28, 1
   4              		.eabi_attribute 20, 1
   5              		.eabi_attribute 21, 1
   6              		.eabi_attribute 23, 3
   7              		.eabi_attribute 24, 1
   8              		.eabi_attribute 25, 1
   9              		.eabi_attribute 26, 1
  10              		.eabi_attribute 30, 1
  11              		.eabi_attribute 34, 1
  12              		.eabi_attribute 18, 4
  13              		.file	"lv_draw_rect.c"
  14              		.text
  15              	.Ltext0:
  16              		.cfi_sections	.debug_frame
  17              		.section	.text.shadow_blur_corner,"ax",%progbits
  18              		.align	1
  19              		.arch armv7e-m
  20              		.syntax unified
  21              		.thumb
  22              		.thumb_func
  23              		.fpu fpv4-sp-d16
  25              	shadow_blur_corner:
  26              	.LVL0:
  27              	.LFB155:
  28              		.file 1 "lvgl/src/draw/lv_draw_rect.c"
   1:lvgl/src/draw/lv_draw_rect.c **** /**
   2:lvgl/src/draw/lv_draw_rect.c ****  * @file lv_draw_rect.c
   3:lvgl/src/draw/lv_draw_rect.c ****  *
   4:lvgl/src/draw/lv_draw_rect.c ****  */
   5:lvgl/src/draw/lv_draw_rect.c **** 
   6:lvgl/src/draw/lv_draw_rect.c **** /*********************
   7:lvgl/src/draw/lv_draw_rect.c ****  *      INCLUDES
   8:lvgl/src/draw/lv_draw_rect.c ****  *********************/
   9:lvgl/src/draw/lv_draw_rect.c **** #include "lv_draw_rect.h"
  10:lvgl/src/draw/lv_draw_rect.c **** #include "lv_draw_blend.h"
  11:lvgl/src/draw/lv_draw_rect.c **** #include "lv_draw_mask.h"
  12:lvgl/src/draw/lv_draw_rect.c **** #include "../misc/lv_math.h"
  13:lvgl/src/draw/lv_draw_rect.c **** #include "../misc/lv_txt_ap.h"
  14:lvgl/src/draw/lv_draw_rect.c **** #include "../core/lv_refr.h"
  15:lvgl/src/draw/lv_draw_rect.c **** #include "../misc/lv_assert.h"
  16:lvgl/src/draw/lv_draw_rect.c **** 
  17:lvgl/src/draw/lv_draw_rect.c **** /*********************
  18:lvgl/src/draw/lv_draw_rect.c ****  *      DEFINES
  19:lvgl/src/draw/lv_draw_rect.c ****  *********************/
  20:lvgl/src/draw/lv_draw_rect.c **** #define SHADOW_UPSCALE_SHIFT   6
  21:lvgl/src/draw/lv_draw_rect.c **** #define SHADOW_ENHANCE          1
  22:lvgl/src/draw/lv_draw_rect.c **** #define SPLIT_LIMIT             50
  23:lvgl/src/draw/lv_draw_rect.c **** 
  24:lvgl/src/draw/lv_draw_rect.c **** /**********************
  25:lvgl/src/draw/lv_draw_rect.c ****  *      TYPEDEFS
  26:lvgl/src/draw/lv_draw_rect.c ****  **********************/
  27:lvgl/src/draw/lv_draw_rect.c **** 
  28:lvgl/src/draw/lv_draw_rect.c **** /**********************
  29:lvgl/src/draw/lv_draw_rect.c ****  *  STATIC PROTOTYPES
  30:lvgl/src/draw/lv_draw_rect.c ****  **********************/
ARM GAS  /var/folders/k2/cd9bl_j17z77g23y6ffqb_400000gn/T//cc0jKSMI.s 			page 2


  31:lvgl/src/draw/lv_draw_rect.c **** LV_ATTRIBUTE_FAST_MEM static void draw_bg(const lv_area_t * coords, const lv_area_t * clip,
  32:lvgl/src/draw/lv_draw_rect.c ****                                           const lv_draw_rect_dsc_t * dsc);
  33:lvgl/src/draw/lv_draw_rect.c **** LV_ATTRIBUTE_FAST_MEM static void draw_bg_img(const lv_area_t * coords, const lv_area_t * clip,
  34:lvgl/src/draw/lv_draw_rect.c ****                                           const lv_draw_rect_dsc_t * dsc);
  35:lvgl/src/draw/lv_draw_rect.c **** LV_ATTRIBUTE_FAST_MEM static void draw_border(const lv_area_t * coords, const lv_area_t * clip,
  36:lvgl/src/draw/lv_draw_rect.c ****                                               const lv_draw_rect_dsc_t * dsc);
  37:lvgl/src/draw/lv_draw_rect.c **** 
  38:lvgl/src/draw/lv_draw_rect.c **** static void draw_outline(const lv_area_t * coords, const lv_area_t * clip, const lv_draw_rect_dsc_t
  39:lvgl/src/draw/lv_draw_rect.c **** 
  40:lvgl/src/draw/lv_draw_rect.c **** #if LV_DRAW_COMPLEX
  41:lvgl/src/draw/lv_draw_rect.c **** LV_ATTRIBUTE_FAST_MEM static void draw_shadow(const lv_area_t * coords, const lv_area_t * clip,
  42:lvgl/src/draw/lv_draw_rect.c ****                                               const lv_draw_rect_dsc_t * dsc);
  43:lvgl/src/draw/lv_draw_rect.c **** LV_ATTRIBUTE_FAST_MEM static void shadow_draw_corner_buf(const lv_area_t * coords,  uint16_t * sh_b
  44:lvgl/src/draw/lv_draw_rect.c ****                                                          lv_coord_t r);
  45:lvgl/src/draw/lv_draw_rect.c **** LV_ATTRIBUTE_FAST_MEM static void shadow_blur_corner(lv_coord_t size, lv_coord_t sw, uint16_t * sh_
  46:lvgl/src/draw/lv_draw_rect.c **** 
  47:lvgl/src/draw/lv_draw_rect.c **** static void draw_full_border(const lv_area_t * area_inner, const lv_area_t * area_outer, const lv_a
  48:lvgl/src/draw/lv_draw_rect.c ****                              lv_coord_t radius, bool radius_is_in, lv_color_t color, lv_opa_t opa, 
  49:lvgl/src/draw/lv_draw_rect.c **** #else
  50:lvgl/src/draw/lv_draw_rect.c **** static void draw_simple_border(const lv_area_t * clip, const lv_area_t * area_inner, const lv_area_
  51:lvgl/src/draw/lv_draw_rect.c ****         lv_color_t color, lv_opa_t opa, lv_border_side_t side);
  52:lvgl/src/draw/lv_draw_rect.c **** #endif
  53:lvgl/src/draw/lv_draw_rect.c **** 
  54:lvgl/src/draw/lv_draw_rect.c **** #if LV_DRAW_COMPLEX
  55:lvgl/src/draw/lv_draw_rect.c **** LV_ATTRIBUTE_FAST_MEM static inline lv_color_t grad_get(const lv_draw_rect_dsc_t * dsc, lv_coord_t 
  56:lvgl/src/draw/lv_draw_rect.c **** #endif
  57:lvgl/src/draw/lv_draw_rect.c **** 
  58:lvgl/src/draw/lv_draw_rect.c **** /**********************
  59:lvgl/src/draw/lv_draw_rect.c ****  *  STATIC VARIABLES
  60:lvgl/src/draw/lv_draw_rect.c ****  **********************/
  61:lvgl/src/draw/lv_draw_rect.c **** #if defined(LV_SHADOW_CACHE_SIZE) && LV_SHADOW_CACHE_SIZE > 0
  62:lvgl/src/draw/lv_draw_rect.c ****     static uint8_t sh_cache[LV_SHADOW_CACHE_SIZE * LV_SHADOW_CACHE_SIZE];
  63:lvgl/src/draw/lv_draw_rect.c ****     static int32_t sh_cache_size = -1;
  64:lvgl/src/draw/lv_draw_rect.c ****     static int32_t sh_cache_r = -1;
  65:lvgl/src/draw/lv_draw_rect.c **** #endif
  66:lvgl/src/draw/lv_draw_rect.c **** 
  67:lvgl/src/draw/lv_draw_rect.c **** /**********************
  68:lvgl/src/draw/lv_draw_rect.c ****  *      MACROS
  69:lvgl/src/draw/lv_draw_rect.c ****  **********************/
  70:lvgl/src/draw/lv_draw_rect.c **** 
  71:lvgl/src/draw/lv_draw_rect.c **** /**********************
  72:lvgl/src/draw/lv_draw_rect.c ****  *   GLOBAL FUNCTIONS
  73:lvgl/src/draw/lv_draw_rect.c ****  **********************/
  74:lvgl/src/draw/lv_draw_rect.c **** 
  75:lvgl/src/draw/lv_draw_rect.c **** LV_ATTRIBUTE_FAST_MEM void lv_draw_rect_dsc_init(lv_draw_rect_dsc_t * dsc)
  76:lvgl/src/draw/lv_draw_rect.c **** {
  77:lvgl/src/draw/lv_draw_rect.c ****     lv_memset_00(dsc, sizeof(lv_draw_rect_dsc_t));
  78:lvgl/src/draw/lv_draw_rect.c ****     dsc->bg_color = lv_color_white();
  79:lvgl/src/draw/lv_draw_rect.c ****     dsc->bg_grad_color = lv_color_black();
  80:lvgl/src/draw/lv_draw_rect.c ****     dsc->border_color = lv_color_black();
  81:lvgl/src/draw/lv_draw_rect.c ****     dsc->shadow_color = lv_color_black();
  82:lvgl/src/draw/lv_draw_rect.c ****     dsc->bg_grad_color_stop = 0xFF;
  83:lvgl/src/draw/lv_draw_rect.c ****     dsc->bg_img_symbol_font = LV_FONT_DEFAULT;
  84:lvgl/src/draw/lv_draw_rect.c ****     dsc->bg_opa = LV_OPA_COVER;
  85:lvgl/src/draw/lv_draw_rect.c ****     dsc->bg_img_opa = LV_OPA_COVER;
  86:lvgl/src/draw/lv_draw_rect.c ****     dsc->outline_opa = LV_OPA_COVER;
  87:lvgl/src/draw/lv_draw_rect.c ****     dsc->border_opa = LV_OPA_COVER;
ARM GAS  /var/folders/k2/cd9bl_j17z77g23y6ffqb_400000gn/T//cc0jKSMI.s 			page 3


  88:lvgl/src/draw/lv_draw_rect.c ****     dsc->shadow_opa = LV_OPA_COVER;
  89:lvgl/src/draw/lv_draw_rect.c ****     dsc->border_side = LV_BORDER_SIDE_FULL;
  90:lvgl/src/draw/lv_draw_rect.c **** }
  91:lvgl/src/draw/lv_draw_rect.c **** 
  92:lvgl/src/draw/lv_draw_rect.c **** /**
  93:lvgl/src/draw/lv_draw_rect.c ****  * Draw a rectangle
  94:lvgl/src/draw/lv_draw_rect.c ****  * @param coords the coordinates of the rectangle
  95:lvgl/src/draw/lv_draw_rect.c ****  * @param mask the rectangle will be drawn only in this mask
  96:lvgl/src/draw/lv_draw_rect.c ****  * @param dsc pointer to an initialized `lv_draw_rect_dsc_t` variable
  97:lvgl/src/draw/lv_draw_rect.c ****  */
  98:lvgl/src/draw/lv_draw_rect.c **** void lv_draw_rect(const lv_area_t * coords, const lv_area_t * clip, const lv_draw_rect_dsc_t * dsc)
  99:lvgl/src/draw/lv_draw_rect.c **** {
 100:lvgl/src/draw/lv_draw_rect.c ****     if(lv_area_get_height(coords) < 1 || lv_area_get_width(coords) < 1) return;
 101:lvgl/src/draw/lv_draw_rect.c **** #if LV_DRAW_COMPLEX
 102:lvgl/src/draw/lv_draw_rect.c ****     draw_shadow(coords, clip, dsc);
 103:lvgl/src/draw/lv_draw_rect.c **** #endif
 104:lvgl/src/draw/lv_draw_rect.c **** 
 105:lvgl/src/draw/lv_draw_rect.c ****     draw_bg(coords, clip, dsc);
 106:lvgl/src/draw/lv_draw_rect.c ****     draw_bg_img(coords, clip, dsc);
 107:lvgl/src/draw/lv_draw_rect.c **** 
 108:lvgl/src/draw/lv_draw_rect.c ****     draw_border(coords, clip, dsc);
 109:lvgl/src/draw/lv_draw_rect.c **** 
 110:lvgl/src/draw/lv_draw_rect.c ****     draw_outline(coords, clip, dsc);
 111:lvgl/src/draw/lv_draw_rect.c **** 
 112:lvgl/src/draw/lv_draw_rect.c ****     LV_ASSERT_MEM_INTEGRITY();
 113:lvgl/src/draw/lv_draw_rect.c **** }
 114:lvgl/src/draw/lv_draw_rect.c **** 
 115:lvgl/src/draw/lv_draw_rect.c **** /**********************
 116:lvgl/src/draw/lv_draw_rect.c ****  *   STATIC FUNCTIONS
 117:lvgl/src/draw/lv_draw_rect.c ****  **********************/
 118:lvgl/src/draw/lv_draw_rect.c **** 
 119:lvgl/src/draw/lv_draw_rect.c **** LV_ATTRIBUTE_FAST_MEM static void draw_bg(const lv_area_t * coords, const lv_area_t * clip,
 120:lvgl/src/draw/lv_draw_rect.c ****                                           const lv_draw_rect_dsc_t * dsc)
 121:lvgl/src/draw/lv_draw_rect.c **** {
 122:lvgl/src/draw/lv_draw_rect.c ****     if(dsc->bg_opa <= LV_OPA_MIN) return;
 123:lvgl/src/draw/lv_draw_rect.c **** 
 124:lvgl/src/draw/lv_draw_rect.c ****     lv_area_t coords_bg;
 125:lvgl/src/draw/lv_draw_rect.c ****     lv_area_copy(&coords_bg, coords);
 126:lvgl/src/draw/lv_draw_rect.c **** 
 127:lvgl/src/draw/lv_draw_rect.c ****     /*If the border fully covers make the bg area 1px smaller to avoid artifacts on the corners*/
 128:lvgl/src/draw/lv_draw_rect.c ****     if(dsc->border_width > 1 && dsc->border_opa >= LV_OPA_MAX && dsc->radius != 0) {
 129:lvgl/src/draw/lv_draw_rect.c ****         coords_bg.x1 += (dsc->border_side & LV_BORDER_SIDE_LEFT) ? 1 : 0;
 130:lvgl/src/draw/lv_draw_rect.c ****         coords_bg.y1 += (dsc->border_side & LV_BORDER_SIDE_TOP) ? 1 : 0;
 131:lvgl/src/draw/lv_draw_rect.c ****         coords_bg.x2 -= (dsc->border_side & LV_BORDER_SIDE_RIGHT) ? 1 : 0;
 132:lvgl/src/draw/lv_draw_rect.c ****         coords_bg.y2 -= (dsc->border_side & LV_BORDER_SIDE_BOTTOM) ? 1 : 0;
 133:lvgl/src/draw/lv_draw_rect.c ****     }
 134:lvgl/src/draw/lv_draw_rect.c **** 
 135:lvgl/src/draw/lv_draw_rect.c ****     lv_opa_t opa = dsc->bg_opa;
 136:lvgl/src/draw/lv_draw_rect.c **** 
 137:lvgl/src/draw/lv_draw_rect.c ****     if(opa > LV_OPA_MAX) opa = LV_OPA_COVER;
 138:lvgl/src/draw/lv_draw_rect.c **** 
 139:lvgl/src/draw/lv_draw_rect.c ****     lv_disp_t * disp = _lv_refr_get_disp_refreshing();
 140:lvgl/src/draw/lv_draw_rect.c ****     lv_disp_draw_buf_t * draw_buf = lv_disp_get_draw_buf(disp);
 141:lvgl/src/draw/lv_draw_rect.c **** 
 142:lvgl/src/draw/lv_draw_rect.c ****     /*Get clipped fill area which is the real draw area.
 143:lvgl/src/draw/lv_draw_rect.c ****      *It is always the same or inside `fill_area`*/
 144:lvgl/src/draw/lv_draw_rect.c ****     lv_area_t draw_area;
ARM GAS  /var/folders/k2/cd9bl_j17z77g23y6ffqb_400000gn/T//cc0jKSMI.s 			page 4


 145:lvgl/src/draw/lv_draw_rect.c ****     bool is_common;
 146:lvgl/src/draw/lv_draw_rect.c ****     is_common = _lv_area_intersect(&draw_area, &coords_bg, clip);
 147:lvgl/src/draw/lv_draw_rect.c ****     if(is_common == false) return;
 148:lvgl/src/draw/lv_draw_rect.c **** 
 149:lvgl/src/draw/lv_draw_rect.c ****     const lv_area_t * disp_area = &draw_buf->area;
 150:lvgl/src/draw/lv_draw_rect.c **** 
 151:lvgl/src/draw/lv_draw_rect.c ****     /*Now `draw_area` has absolute coordinates.
 152:lvgl/src/draw/lv_draw_rect.c ****      *Make it relative to `disp_area` to simplify draw to `disp_buf`*/
 153:lvgl/src/draw/lv_draw_rect.c ****     draw_area.x1 -= disp_area->x1;
 154:lvgl/src/draw/lv_draw_rect.c ****     draw_area.y1 -= disp_area->y1;
 155:lvgl/src/draw/lv_draw_rect.c ****     draw_area.x2 -= disp_area->x1;
 156:lvgl/src/draw/lv_draw_rect.c ****     draw_area.y2 -= disp_area->y1;
 157:lvgl/src/draw/lv_draw_rect.c **** 
 158:lvgl/src/draw/lv_draw_rect.c **** 
 159:lvgl/src/draw/lv_draw_rect.c ****     lv_grad_dir_t grad_dir = dsc->bg_grad_dir;
 160:lvgl/src/draw/lv_draw_rect.c ****     if(dsc->bg_color.full == dsc->bg_grad_color.full) grad_dir = LV_GRAD_DIR_NONE;
 161:lvgl/src/draw/lv_draw_rect.c **** 
 162:lvgl/src/draw/lv_draw_rect.c ****     uint16_t other_mask_cnt = lv_draw_mask_get_cnt();
 163:lvgl/src/draw/lv_draw_rect.c ****     bool simple_mode = true;
 164:lvgl/src/draw/lv_draw_rect.c ****     if(other_mask_cnt) simple_mode = false;
 165:lvgl/src/draw/lv_draw_rect.c ****     else if(grad_dir == LV_GRAD_DIR_HOR) simple_mode = false;
 166:lvgl/src/draw/lv_draw_rect.c **** 
 167:lvgl/src/draw/lv_draw_rect.c **** 
 168:lvgl/src/draw/lv_draw_rect.c ****     int32_t coords_w = lv_area_get_width(&coords_bg);
 169:lvgl/src/draw/lv_draw_rect.c ****     int32_t coords_h = lv_area_get_height(&coords_bg);
 170:lvgl/src/draw/lv_draw_rect.c **** 
 171:lvgl/src/draw/lv_draw_rect.c ****     /*Get the real radius*/
 172:lvgl/src/draw/lv_draw_rect.c ****     int32_t rout = dsc->radius;
 173:lvgl/src/draw/lv_draw_rect.c ****     int32_t short_side = LV_MIN(coords_w, coords_h);
 174:lvgl/src/draw/lv_draw_rect.c ****     if(rout > short_side >> 1) rout = short_side >> 1;
 175:lvgl/src/draw/lv_draw_rect.c **** 
 176:lvgl/src/draw/lv_draw_rect.c ****     /*Most simple case: just a plain rectangle*/
 177:lvgl/src/draw/lv_draw_rect.c ****     if(simple_mode && rout == 0 && (grad_dir == LV_GRAD_DIR_NONE)) {
 178:lvgl/src/draw/lv_draw_rect.c ****         _lv_blend_fill(clip, &coords_bg,
 179:lvgl/src/draw/lv_draw_rect.c ****                        dsc->bg_color, NULL, LV_DRAW_MASK_RES_FULL_COVER, opa,
 180:lvgl/src/draw/lv_draw_rect.c ****                        dsc->blend_mode);
 181:lvgl/src/draw/lv_draw_rect.c ****     }
 182:lvgl/src/draw/lv_draw_rect.c **** 
 183:lvgl/src/draw/lv_draw_rect.c **** #if LV_DRAW_COMPLEX
 184:lvgl/src/draw/lv_draw_rect.c ****     /*More complex case: there is a radius, gradient or other mask.*/
 185:lvgl/src/draw/lv_draw_rect.c ****     else {
 186:lvgl/src/draw/lv_draw_rect.c ****         int32_t draw_area_w = lv_area_get_width(&draw_area);
 187:lvgl/src/draw/lv_draw_rect.c ****         int16_t mask_rout_id = LV_MASK_ID_INV;
 188:lvgl/src/draw/lv_draw_rect.c ****         lv_opa_t * mask_buf = lv_mem_buf_get(draw_area_w);
 189:lvgl/src/draw/lv_draw_rect.c ****         lv_draw_mask_radius_param_t mask_rout_param;
 190:lvgl/src/draw/lv_draw_rect.c ****         if(rout > 0) {
 191:lvgl/src/draw/lv_draw_rect.c ****             lv_draw_mask_radius_init(&mask_rout_param, &coords_bg, rout, false);
 192:lvgl/src/draw/lv_draw_rect.c ****             mask_rout_id = lv_draw_mask_add(&mask_rout_param, NULL);
 193:lvgl/src/draw/lv_draw_rect.c ****         }
 194:lvgl/src/draw/lv_draw_rect.c **** 
 195:lvgl/src/draw/lv_draw_rect.c ****         /*Draw the background line by line*/
 196:lvgl/src/draw/lv_draw_rect.c ****         int32_t h;
 197:lvgl/src/draw/lv_draw_rect.c ****         lv_draw_mask_res_t mask_res = LV_DRAW_MASK_RES_FULL_COVER;
 198:lvgl/src/draw/lv_draw_rect.c ****         lv_color_t grad_color = dsc->bg_color;
 199:lvgl/src/draw/lv_draw_rect.c **** 
 200:lvgl/src/draw/lv_draw_rect.c ****         /*In case of horizontal gradient pre-compute a line with a gradient*/
 201:lvgl/src/draw/lv_draw_rect.c ****         lv_color_t * grad_map = NULL;
ARM GAS  /var/folders/k2/cd9bl_j17z77g23y6ffqb_400000gn/T//cc0jKSMI.s 			page 5


 202:lvgl/src/draw/lv_draw_rect.c ****         if(grad_dir == LV_GRAD_DIR_HOR) {
 203:lvgl/src/draw/lv_draw_rect.c ****             grad_map = lv_mem_buf_get(coords_w * sizeof(lv_color_t));
 204:lvgl/src/draw/lv_draw_rect.c **** 
 205:lvgl/src/draw/lv_draw_rect.c ****             int32_t i;
 206:lvgl/src/draw/lv_draw_rect.c ****             for(i = 0; i < coords_w; i++) {
 207:lvgl/src/draw/lv_draw_rect.c ****                 grad_map[i] = grad_get(dsc, coords_w, i);
 208:lvgl/src/draw/lv_draw_rect.c ****             }
 209:lvgl/src/draw/lv_draw_rect.c ****         }
 210:lvgl/src/draw/lv_draw_rect.c **** 
 211:lvgl/src/draw/lv_draw_rect.c ****         bool split = false;
 212:lvgl/src/draw/lv_draw_rect.c ****         if(lv_area_get_width(&coords_bg) - 2 * rout > SPLIT_LIMIT) split = true;
 213:lvgl/src/draw/lv_draw_rect.c **** 
 214:lvgl/src/draw/lv_draw_rect.c ****         lv_opa_t opa2;
 215:lvgl/src/draw/lv_draw_rect.c **** 
 216:lvgl/src/draw/lv_draw_rect.c ****         lv_area_t fill_area;
 217:lvgl/src/draw/lv_draw_rect.c ****         fill_area.x1 = coords_bg.x1;
 218:lvgl/src/draw/lv_draw_rect.c ****         fill_area.x2 = coords_bg.x2;
 219:lvgl/src/draw/lv_draw_rect.c ****         fill_area.y1 = disp_area->y1 + draw_area.y1;
 220:lvgl/src/draw/lv_draw_rect.c ****         fill_area.y2 = fill_area.y1;
 221:lvgl/src/draw/lv_draw_rect.c ****         for(h = draw_area.y1; h <= draw_area.y2; h++) {
 222:lvgl/src/draw/lv_draw_rect.c ****             int32_t y = h + draw_buf->area.y1;
 223:lvgl/src/draw/lv_draw_rect.c **** 
 224:lvgl/src/draw/lv_draw_rect.c ****             opa2 = opa;
 225:lvgl/src/draw/lv_draw_rect.c **** 
 226:lvgl/src/draw/lv_draw_rect.c ****             /*In not corner areas apply the mask only if required*/
 227:lvgl/src/draw/lv_draw_rect.c ****             if(y > coords_bg.y1 + rout + 1 &&
 228:lvgl/src/draw/lv_draw_rect.c ****                y < coords_bg.y2 - rout - 1) {
 229:lvgl/src/draw/lv_draw_rect.c ****                 mask_res = LV_DRAW_MASK_RES_FULL_COVER;
 230:lvgl/src/draw/lv_draw_rect.c ****                 if(simple_mode == false) {
 231:lvgl/src/draw/lv_draw_rect.c ****                     lv_memset(mask_buf, opa, draw_area_w);
 232:lvgl/src/draw/lv_draw_rect.c ****                     mask_res = lv_draw_mask_apply(mask_buf, draw_buf->area.x1 + draw_area.x1, draw_
 233:lvgl/src/draw/lv_draw_rect.c ****                 }
 234:lvgl/src/draw/lv_draw_rect.c ****             }
 235:lvgl/src/draw/lv_draw_rect.c ****             /*In corner areas apply the mask anyway*/
 236:lvgl/src/draw/lv_draw_rect.c ****             else {
 237:lvgl/src/draw/lv_draw_rect.c ****                 lv_memset(mask_buf, opa, draw_area_w);
 238:lvgl/src/draw/lv_draw_rect.c ****                 mask_res = lv_draw_mask_apply(mask_buf, draw_buf->area.x1 + draw_area.x1, draw_buf-
 239:lvgl/src/draw/lv_draw_rect.c ****             }
 240:lvgl/src/draw/lv_draw_rect.c **** 
 241:lvgl/src/draw/lv_draw_rect.c ****             /*If mask will taken into account its base opacity was already set by memset above*/
 242:lvgl/src/draw/lv_draw_rect.c ****             if(mask_res == LV_DRAW_MASK_RES_CHANGED) {
 243:lvgl/src/draw/lv_draw_rect.c ****                 opa2 = LV_OPA_COVER;
 244:lvgl/src/draw/lv_draw_rect.c ****             }
 245:lvgl/src/draw/lv_draw_rect.c **** 
 246:lvgl/src/draw/lv_draw_rect.c ****             /*Get the current line color*/
 247:lvgl/src/draw/lv_draw_rect.c ****             if(grad_dir == LV_GRAD_DIR_VER) {
 248:lvgl/src/draw/lv_draw_rect.c ****                 grad_color = grad_get(dsc, lv_area_get_height(&coords_bg), y - coords_bg.y1);
 249:lvgl/src/draw/lv_draw_rect.c ****             }
 250:lvgl/src/draw/lv_draw_rect.c **** 
 251:lvgl/src/draw/lv_draw_rect.c ****             /*If there is not other mask and drawing the corner area split the drawing to corner an
 252:lvgl/src/draw/lv_draw_rect.c ****              *because it the middle mask shouldn't be taken into account (therefore its faster)*/
 253:lvgl/src/draw/lv_draw_rect.c ****             if(simple_mode && split &&
 254:lvgl/src/draw/lv_draw_rect.c ****                (y < coords_bg.y1 + rout + 1 ||
 255:lvgl/src/draw/lv_draw_rect.c ****                 y > coords_bg.y2 - rout - 1)) {
 256:lvgl/src/draw/lv_draw_rect.c **** 
 257:lvgl/src/draw/lv_draw_rect.c ****                 /*Left part*/
 258:lvgl/src/draw/lv_draw_rect.c ****                 lv_area_t fill_area2;
ARM GAS  /var/folders/k2/cd9bl_j17z77g23y6ffqb_400000gn/T//cc0jKSMI.s 			page 6


 259:lvgl/src/draw/lv_draw_rect.c ****                 fill_area2.x1 = coords_bg.x1;
 260:lvgl/src/draw/lv_draw_rect.c ****                 fill_area2.x2 = coords_bg.x1 + rout - 1;
 261:lvgl/src/draw/lv_draw_rect.c ****                 fill_area2.y1 = fill_area.y1;
 262:lvgl/src/draw/lv_draw_rect.c ****                 fill_area2.y2 = fill_area.y2;
 263:lvgl/src/draw/lv_draw_rect.c **** 
 264:lvgl/src/draw/lv_draw_rect.c ****                 _lv_blend_fill(clip, &fill_area2,
 265:lvgl/src/draw/lv_draw_rect.c ****                                grad_color, mask_buf, mask_res, opa2, dsc->blend_mode);
 266:lvgl/src/draw/lv_draw_rect.c **** 
 267:lvgl/src/draw/lv_draw_rect.c ****                 /*Center part*/
 268:lvgl/src/draw/lv_draw_rect.c ****                 if(grad_dir == LV_GRAD_DIR_VER) {
 269:lvgl/src/draw/lv_draw_rect.c ****                     fill_area2.x1 = coords_bg.x1 + rout;
 270:lvgl/src/draw/lv_draw_rect.c ****                     fill_area2.x2 = coords_bg.x2 - rout;
 271:lvgl/src/draw/lv_draw_rect.c ****                     _lv_blend_fill(clip, &fill_area2,
 272:lvgl/src/draw/lv_draw_rect.c ****                                    grad_color, NULL, LV_DRAW_MASK_RES_FULL_COVER, opa, dsc->blend_m
 273:lvgl/src/draw/lv_draw_rect.c ****                 }
 274:lvgl/src/draw/lv_draw_rect.c **** 
 275:lvgl/src/draw/lv_draw_rect.c ****                 /*Right part*/
 276:lvgl/src/draw/lv_draw_rect.c ****                 fill_area2.x1 = coords_bg.x2 - rout + 1;
 277:lvgl/src/draw/lv_draw_rect.c ****                 fill_area2.x2 = coords_bg.x2;
 278:lvgl/src/draw/lv_draw_rect.c **** 
 279:lvgl/src/draw/lv_draw_rect.c ****                 int32_t mask_ofs = (coords_bg.x2 - rout + 1) - (draw_buf->area.x1 + draw_area.x1);
 280:lvgl/src/draw/lv_draw_rect.c ****                 if(mask_ofs < 0) mask_ofs = 0;
 281:lvgl/src/draw/lv_draw_rect.c ****                 _lv_blend_fill(clip, &fill_area2,
 282:lvgl/src/draw/lv_draw_rect.c ****                                grad_color, mask_buf + mask_ofs, mask_res, opa2, dsc->blend_mode);
 283:lvgl/src/draw/lv_draw_rect.c **** 
 284:lvgl/src/draw/lv_draw_rect.c ****             }
 285:lvgl/src/draw/lv_draw_rect.c ****             else {
 286:lvgl/src/draw/lv_draw_rect.c ****                 if(grad_dir == LV_GRAD_DIR_HOR) {
 287:lvgl/src/draw/lv_draw_rect.c ****                     _lv_blend_map(clip, &fill_area, grad_map, mask_buf, mask_res, opa2, dsc->blend_
 288:lvgl/src/draw/lv_draw_rect.c ****                 }
 289:lvgl/src/draw/lv_draw_rect.c ****                 else if(grad_dir == LV_GRAD_DIR_VER) {
 290:lvgl/src/draw/lv_draw_rect.c ****                     _lv_blend_fill(clip, &fill_area,
 291:lvgl/src/draw/lv_draw_rect.c ****                                    grad_color, mask_buf, mask_res, opa2, dsc->blend_mode);
 292:lvgl/src/draw/lv_draw_rect.c ****                 }
 293:lvgl/src/draw/lv_draw_rect.c ****                 else if(other_mask_cnt != 0 || !split) {
 294:lvgl/src/draw/lv_draw_rect.c ****                     _lv_blend_fill(clip, &fill_area,
 295:lvgl/src/draw/lv_draw_rect.c ****                                    grad_color, mask_buf, mask_res, opa2, dsc->blend_mode);
 296:lvgl/src/draw/lv_draw_rect.c ****                 }
 297:lvgl/src/draw/lv_draw_rect.c ****             }
 298:lvgl/src/draw/lv_draw_rect.c ****             fill_area.y1++;
 299:lvgl/src/draw/lv_draw_rect.c ****             fill_area.y2++;
 300:lvgl/src/draw/lv_draw_rect.c ****         }
 301:lvgl/src/draw/lv_draw_rect.c **** 
 302:lvgl/src/draw/lv_draw_rect.c ****         if(grad_dir == LV_GRAD_DIR_NONE && other_mask_cnt == 0 && split) {
 303:lvgl/src/draw/lv_draw_rect.c ****             /*Central part*/
 304:lvgl/src/draw/lv_draw_rect.c ****             fill_area.x1 = coords_bg.x1 + rout;
 305:lvgl/src/draw/lv_draw_rect.c ****             fill_area.x2 = coords_bg.x2 - rout;
 306:lvgl/src/draw/lv_draw_rect.c ****             fill_area.y1 = coords_bg.y1;
 307:lvgl/src/draw/lv_draw_rect.c ****             fill_area.y2 = coords_bg.y1 + rout;
 308:lvgl/src/draw/lv_draw_rect.c **** 
 309:lvgl/src/draw/lv_draw_rect.c ****             _lv_blend_fill(clip, &fill_area,
 310:lvgl/src/draw/lv_draw_rect.c ****                            dsc->bg_color, NULL, LV_DRAW_MASK_RES_FULL_COVER, opa, dsc->blend_mode);
 311:lvgl/src/draw/lv_draw_rect.c **** 
 312:lvgl/src/draw/lv_draw_rect.c ****             fill_area.y1 = coords_bg.y2 - rout;
 313:lvgl/src/draw/lv_draw_rect.c ****             if(fill_area.y1 <= fill_area.y2) fill_area.y1 = fill_area.y2 + 1;    /*Avoid overdrawin
 314:lvgl/src/draw/lv_draw_rect.c ****             fill_area.y2 = coords_bg.y2;
 315:lvgl/src/draw/lv_draw_rect.c **** 
ARM GAS  /var/folders/k2/cd9bl_j17z77g23y6ffqb_400000gn/T//cc0jKSMI.s 			page 7


 316:lvgl/src/draw/lv_draw_rect.c ****             _lv_blend_fill(clip, &fill_area,
 317:lvgl/src/draw/lv_draw_rect.c ****                            dsc->bg_color, NULL, LV_DRAW_MASK_RES_FULL_COVER, opa, dsc->blend_mode);
 318:lvgl/src/draw/lv_draw_rect.c **** 
 319:lvgl/src/draw/lv_draw_rect.c ****             fill_area.x1 = coords_bg.x1;
 320:lvgl/src/draw/lv_draw_rect.c ****             fill_area.x2 = coords_bg.x2;
 321:lvgl/src/draw/lv_draw_rect.c ****             fill_area.y1 = coords_bg.y1 + rout + 1;
 322:lvgl/src/draw/lv_draw_rect.c ****             fill_area.y2 = coords_bg.y2 - rout - 1;
 323:lvgl/src/draw/lv_draw_rect.c **** 
 324:lvgl/src/draw/lv_draw_rect.c ****             _lv_blend_fill(clip, &fill_area,
 325:lvgl/src/draw/lv_draw_rect.c ****                            dsc->bg_color, NULL, LV_DRAW_MASK_RES_FULL_COVER, opa, dsc->blend_mode);
 326:lvgl/src/draw/lv_draw_rect.c **** 
 327:lvgl/src/draw/lv_draw_rect.c ****         }
 328:lvgl/src/draw/lv_draw_rect.c **** 
 329:lvgl/src/draw/lv_draw_rect.c ****         if(grad_map) lv_mem_buf_release(grad_map);
 330:lvgl/src/draw/lv_draw_rect.c ****         if(mask_buf) lv_mem_buf_release(mask_buf);
 331:lvgl/src/draw/lv_draw_rect.c ****         lv_draw_mask_remove_id(mask_rout_id);
 332:lvgl/src/draw/lv_draw_rect.c ****     }
 333:lvgl/src/draw/lv_draw_rect.c **** 
 334:lvgl/src/draw/lv_draw_rect.c **** #endif
 335:lvgl/src/draw/lv_draw_rect.c **** }
 336:lvgl/src/draw/lv_draw_rect.c **** 
 337:lvgl/src/draw/lv_draw_rect.c **** LV_ATTRIBUTE_FAST_MEM static void draw_bg_img(const lv_area_t * coords, const lv_area_t * clip,
 338:lvgl/src/draw/lv_draw_rect.c ****                                           const lv_draw_rect_dsc_t * dsc)
 339:lvgl/src/draw/lv_draw_rect.c **** {
 340:lvgl/src/draw/lv_draw_rect.c ****     if(dsc->bg_img_src == NULL) return;
 341:lvgl/src/draw/lv_draw_rect.c ****     if(dsc->bg_img_opa <= LV_OPA_MIN) return;
 342:lvgl/src/draw/lv_draw_rect.c **** 
 343:lvgl/src/draw/lv_draw_rect.c ****     lv_img_src_t src_type = lv_img_src_get_type(dsc->bg_img_src);
 344:lvgl/src/draw/lv_draw_rect.c ****     if(src_type == LV_IMG_SRC_SYMBOL) {
 345:lvgl/src/draw/lv_draw_rect.c ****         lv_point_t size;
 346:lvgl/src/draw/lv_draw_rect.c ****         lv_txt_get_size(&size, dsc->bg_img_src, dsc->bg_img_symbol_font, 0, 0, LV_COORD_MAX, LV_TEX
 347:lvgl/src/draw/lv_draw_rect.c ****         lv_area_t a;
 348:lvgl/src/draw/lv_draw_rect.c ****         a.x1 = coords->x1 + lv_area_get_width(coords) / 2 - size.x / 2;
 349:lvgl/src/draw/lv_draw_rect.c ****         a.x2 = a.x1 + size.x - 1;
 350:lvgl/src/draw/lv_draw_rect.c ****         a.y1 = coords->y1 + lv_area_get_height(coords) / 2 - size.y / 2;
 351:lvgl/src/draw/lv_draw_rect.c ****         a.y2 = a.y1 + size.y - 1;
 352:lvgl/src/draw/lv_draw_rect.c **** 
 353:lvgl/src/draw/lv_draw_rect.c ****         lv_draw_label_dsc_t label_draw_dsc;
 354:lvgl/src/draw/lv_draw_rect.c ****         lv_draw_label_dsc_init(&label_draw_dsc);
 355:lvgl/src/draw/lv_draw_rect.c ****         label_draw_dsc.font = dsc->bg_img_symbol_font;
 356:lvgl/src/draw/lv_draw_rect.c ****         label_draw_dsc.color = dsc->bg_img_recolor;
 357:lvgl/src/draw/lv_draw_rect.c ****         label_draw_dsc.opa = dsc->bg_img_opa;
 358:lvgl/src/draw/lv_draw_rect.c ****         lv_draw_label(&a, clip, &label_draw_dsc, dsc->bg_img_src, NULL);
 359:lvgl/src/draw/lv_draw_rect.c ****     }
 360:lvgl/src/draw/lv_draw_rect.c ****     else {
 361:lvgl/src/draw/lv_draw_rect.c ****         lv_img_header_t header;
 362:lvgl/src/draw/lv_draw_rect.c ****         lv_res_t res = lv_img_decoder_get_info(dsc->bg_img_src, &header);
 363:lvgl/src/draw/lv_draw_rect.c ****         if(res != LV_RES_OK) {
 364:lvgl/src/draw/lv_draw_rect.c ****             LV_LOG_WARN("Coudn't read the background image");
 365:lvgl/src/draw/lv_draw_rect.c ****             return;
 366:lvgl/src/draw/lv_draw_rect.c ****         }
 367:lvgl/src/draw/lv_draw_rect.c **** 
 368:lvgl/src/draw/lv_draw_rect.c ****         lv_draw_img_dsc_t img_dsc;
 369:lvgl/src/draw/lv_draw_rect.c ****         lv_draw_img_dsc_init(&img_dsc);
 370:lvgl/src/draw/lv_draw_rect.c ****         img_dsc.blend_mode = dsc->blend_mode;
 371:lvgl/src/draw/lv_draw_rect.c ****         img_dsc.recolor = dsc->bg_img_recolor;
 372:lvgl/src/draw/lv_draw_rect.c ****         img_dsc.recolor_opa = dsc->bg_img_recolor_opa;
ARM GAS  /var/folders/k2/cd9bl_j17z77g23y6ffqb_400000gn/T//cc0jKSMI.s 			page 8


 373:lvgl/src/draw/lv_draw_rect.c ****         img_dsc.opa = dsc->bg_img_opa;
 374:lvgl/src/draw/lv_draw_rect.c **** 
 375:lvgl/src/draw/lv_draw_rect.c ****         /*Center align*/
 376:lvgl/src/draw/lv_draw_rect.c ****         if(dsc->bg_img_tiled == false) {
 377:lvgl/src/draw/lv_draw_rect.c ****             lv_area_t area;
 378:lvgl/src/draw/lv_draw_rect.c ****             area.x1 = coords->x1 + lv_area_get_width(coords) / 2 - header.w / 2;
 379:lvgl/src/draw/lv_draw_rect.c ****             area.y1 = coords->y1 + lv_area_get_height(coords) / 2 - header.h / 2;
 380:lvgl/src/draw/lv_draw_rect.c ****             area.x2 = area.x1 + header.w - 1;
 381:lvgl/src/draw/lv_draw_rect.c ****             area.y2 = area.y1 + header.h - 1;
 382:lvgl/src/draw/lv_draw_rect.c **** 
 383:lvgl/src/draw/lv_draw_rect.c ****             lv_draw_img(&area, clip, dsc->bg_img_src, &img_dsc);
 384:lvgl/src/draw/lv_draw_rect.c ****         } else {
 385:lvgl/src/draw/lv_draw_rect.c ****             lv_area_t area;
 386:lvgl/src/draw/lv_draw_rect.c ****             area.y1 = coords->y1;
 387:lvgl/src/draw/lv_draw_rect.c ****             area.y2 = area.y1 + header.h - 1;
 388:lvgl/src/draw/lv_draw_rect.c **** 
 389:lvgl/src/draw/lv_draw_rect.c ****             for(; area.y1 <= coords->y2; area.y1 += header.h, area.y2 += header.h) {
 390:lvgl/src/draw/lv_draw_rect.c **** 
 391:lvgl/src/draw/lv_draw_rect.c ****                 area.x1 = coords->x1;
 392:lvgl/src/draw/lv_draw_rect.c ****                 area.x2 = area.x1 + header.w - 1;
 393:lvgl/src/draw/lv_draw_rect.c ****                 for(; area.x1 <= coords->x2; area.x1 += header.w, area.x2 += header.w) {
 394:lvgl/src/draw/lv_draw_rect.c ****                     lv_draw_img(&area, clip, dsc->bg_img_src, &img_dsc);
 395:lvgl/src/draw/lv_draw_rect.c ****                 }
 396:lvgl/src/draw/lv_draw_rect.c ****             }
 397:lvgl/src/draw/lv_draw_rect.c ****         }
 398:lvgl/src/draw/lv_draw_rect.c ****     }
 399:lvgl/src/draw/lv_draw_rect.c **** }
 400:lvgl/src/draw/lv_draw_rect.c **** 
 401:lvgl/src/draw/lv_draw_rect.c **** LV_ATTRIBUTE_FAST_MEM static void draw_border(const lv_area_t * coords, const lv_area_t * clip,
 402:lvgl/src/draw/lv_draw_rect.c ****                                               const lv_draw_rect_dsc_t * dsc)
 403:lvgl/src/draw/lv_draw_rect.c **** {
 404:lvgl/src/draw/lv_draw_rect.c ****     if(dsc->border_opa <= LV_OPA_MIN) return;
 405:lvgl/src/draw/lv_draw_rect.c ****     if(dsc->border_width == 0) return;
 406:lvgl/src/draw/lv_draw_rect.c ****     if(dsc->border_side == LV_BORDER_SIDE_NONE) return;
 407:lvgl/src/draw/lv_draw_rect.c ****     if(dsc->border_post) return;
 408:lvgl/src/draw/lv_draw_rect.c **** 
 409:lvgl/src/draw/lv_draw_rect.c ****     int32_t coords_w = lv_area_get_width(coords);
 410:lvgl/src/draw/lv_draw_rect.c ****     int32_t coords_h = lv_area_get_height(coords);
 411:lvgl/src/draw/lv_draw_rect.c **** 
 412:lvgl/src/draw/lv_draw_rect.c ****     /*Get the real radius*/
 413:lvgl/src/draw/lv_draw_rect.c ****     int32_t rout = dsc->radius;
 414:lvgl/src/draw/lv_draw_rect.c ****     int32_t short_side = LV_MIN(coords_w, coords_h);
 415:lvgl/src/draw/lv_draw_rect.c ****     if(rout > short_side >> 1) rout = short_side >> 1;
 416:lvgl/src/draw/lv_draw_rect.c **** 
 417:lvgl/src/draw/lv_draw_rect.c ****     /*Get the inner area*/
 418:lvgl/src/draw/lv_draw_rect.c ****     lv_area_t area_inner;
 419:lvgl/src/draw/lv_draw_rect.c ****     lv_area_copy(&area_inner, coords);
 420:lvgl/src/draw/lv_draw_rect.c ****     area_inner.x1 += ((dsc->border_side & LV_BORDER_SIDE_LEFT) ? dsc->border_width : - (dsc->border
 421:lvgl/src/draw/lv_draw_rect.c ****     area_inner.x2 -= ((dsc->border_side & LV_BORDER_SIDE_RIGHT) ? dsc->border_width : - (dsc->borde
 422:lvgl/src/draw/lv_draw_rect.c ****     area_inner.y1 += ((dsc->border_side & LV_BORDER_SIDE_TOP) ? dsc->border_width : - (dsc->border_
 423:lvgl/src/draw/lv_draw_rect.c ****     area_inner.y2 -= ((dsc->border_side & LV_BORDER_SIDE_BOTTOM) ? dsc->border_width : - (dsc->bord
 424:lvgl/src/draw/lv_draw_rect.c **** 
 425:lvgl/src/draw/lv_draw_rect.c **** #if LV_DRAW_COMPLEX
 426:lvgl/src/draw/lv_draw_rect.c ****     if(dsc->border_side == LV_BORDER_SIDE_FULL) {
 427:lvgl/src/draw/lv_draw_rect.c ****         draw_full_border(&area_inner, coords, clip, dsc->radius, false, dsc->border_color, dsc->bor
 428:lvgl/src/draw/lv_draw_rect.c ****                          dsc->blend_mode);
 429:lvgl/src/draw/lv_draw_rect.c ****     }
ARM GAS  /var/folders/k2/cd9bl_j17z77g23y6ffqb_400000gn/T//cc0jKSMI.s 			page 9


 430:lvgl/src/draw/lv_draw_rect.c ****     else {
 431:lvgl/src/draw/lv_draw_rect.c ****         lv_opa_t opa = dsc->border_opa;
 432:lvgl/src/draw/lv_draw_rect.c ****         if(opa > LV_OPA_MAX) opa = LV_OPA_COVER;
 433:lvgl/src/draw/lv_draw_rect.c **** 
 434:lvgl/src/draw/lv_draw_rect.c ****         lv_disp_t * disp = _lv_refr_get_disp_refreshing();
 435:lvgl/src/draw/lv_draw_rect.c ****         lv_disp_draw_buf_t * draw_buf = lv_disp_get_draw_buf(disp);
 436:lvgl/src/draw/lv_draw_rect.c **** 
 437:lvgl/src/draw/lv_draw_rect.c ****         /*Get clipped fill area which is the real draw area.
 438:lvgl/src/draw/lv_draw_rect.c ****          *It is always the same or inside `fill_area`*/
 439:lvgl/src/draw/lv_draw_rect.c ****         lv_area_t draw_area;
 440:lvgl/src/draw/lv_draw_rect.c ****         bool is_common;
 441:lvgl/src/draw/lv_draw_rect.c ****         is_common = _lv_area_intersect(&draw_area, coords, clip);
 442:lvgl/src/draw/lv_draw_rect.c ****         if(is_common == false) return;
 443:lvgl/src/draw/lv_draw_rect.c **** 
 444:lvgl/src/draw/lv_draw_rect.c ****         const lv_area_t * disp_area = &draw_buf->area;
 445:lvgl/src/draw/lv_draw_rect.c **** 
 446:lvgl/src/draw/lv_draw_rect.c ****         /*Now `draw_area` has absolute coordinates.
 447:lvgl/src/draw/lv_draw_rect.c ****          *Make it relative to `disp_area` to simplify draw to `disp_buf`*/
 448:lvgl/src/draw/lv_draw_rect.c ****         draw_area.x1 -= disp_area->x1;
 449:lvgl/src/draw/lv_draw_rect.c ****         draw_area.y1 -= disp_area->y1;
 450:lvgl/src/draw/lv_draw_rect.c ****         draw_area.x2 -= disp_area->x1;
 451:lvgl/src/draw/lv_draw_rect.c ****         draw_area.y2 -= disp_area->y1;
 452:lvgl/src/draw/lv_draw_rect.c **** 
 453:lvgl/src/draw/lv_draw_rect.c ****         int32_t draw_area_w = lv_area_get_width(&draw_area);
 454:lvgl/src/draw/lv_draw_rect.c **** 
 455:lvgl/src/draw/lv_draw_rect.c ****         /*Create a mask if there is a radius*/
 456:lvgl/src/draw/lv_draw_rect.c ****         lv_opa_t * mask_buf = lv_mem_buf_get(draw_area_w);
 457:lvgl/src/draw/lv_draw_rect.c **** 
 458:lvgl/src/draw/lv_draw_rect.c ****         /*Create mask for the outer area*/
 459:lvgl/src/draw/lv_draw_rect.c ****         int16_t mask_rout_id = LV_MASK_ID_INV;
 460:lvgl/src/draw/lv_draw_rect.c ****         lv_draw_mask_radius_param_t mask_rout_param;
 461:lvgl/src/draw/lv_draw_rect.c ****         if(rout > 0) {
 462:lvgl/src/draw/lv_draw_rect.c ****             lv_draw_mask_radius_init(&mask_rout_param, coords, rout, false);
 463:lvgl/src/draw/lv_draw_rect.c ****             mask_rout_id = lv_draw_mask_add(&mask_rout_param, NULL);
 464:lvgl/src/draw/lv_draw_rect.c ****         }
 465:lvgl/src/draw/lv_draw_rect.c **** 
 466:lvgl/src/draw/lv_draw_rect.c ****         /*Create mask for the inner mask*/
 467:lvgl/src/draw/lv_draw_rect.c ****         int32_t rin = rout - dsc->border_width;
 468:lvgl/src/draw/lv_draw_rect.c ****         if(rin < 0) rin = 0;
 469:lvgl/src/draw/lv_draw_rect.c ****         lv_draw_mask_radius_param_t mask_rin_param;
 470:lvgl/src/draw/lv_draw_rect.c ****         lv_draw_mask_radius_init(&mask_rin_param, &area_inner, rout - dsc->border_width, true);
 471:lvgl/src/draw/lv_draw_rect.c ****         int16_t mask_rin_id = lv_draw_mask_add(&mask_rin_param, NULL);
 472:lvgl/src/draw/lv_draw_rect.c **** 
 473:lvgl/src/draw/lv_draw_rect.c ****         int32_t corner_size = LV_MAX(rout, dsc->border_width - 1);
 474:lvgl/src/draw/lv_draw_rect.c **** 
 475:lvgl/src/draw/lv_draw_rect.c ****         int32_t h;
 476:lvgl/src/draw/lv_draw_rect.c ****         lv_draw_mask_res_t mask_res;
 477:lvgl/src/draw/lv_draw_rect.c ****         lv_area_t fill_area;
 478:lvgl/src/draw/lv_draw_rect.c **** 
 479:lvgl/src/draw/lv_draw_rect.c ****         lv_color_t color = dsc->border_color;
 480:lvgl/src/draw/lv_draw_rect.c ****         lv_blend_mode_t blend_mode = dsc->blend_mode;
 481:lvgl/src/draw/lv_draw_rect.c **** 
 482:lvgl/src/draw/lv_draw_rect.c ****         fill_area.x1 = coords->x1;
 483:lvgl/src/draw/lv_draw_rect.c ****         fill_area.x2 = coords->x2;
 484:lvgl/src/draw/lv_draw_rect.c ****         fill_area.y1 = disp_area->y1 + draw_area.y1;
 485:lvgl/src/draw/lv_draw_rect.c ****         fill_area.y2 = fill_area.y1;
 486:lvgl/src/draw/lv_draw_rect.c **** 
ARM GAS  /var/folders/k2/cd9bl_j17z77g23y6ffqb_400000gn/T//cc0jKSMI.s 			page 10


 487:lvgl/src/draw/lv_draw_rect.c ****         if(dsc->border_side == LV_BORDER_SIDE_LEFT) fill_area.x2 = coords->x1 + corner_size;
 488:lvgl/src/draw/lv_draw_rect.c **** 
 489:lvgl/src/draw/lv_draw_rect.c ****         volatile bool top_only = false;
 490:lvgl/src/draw/lv_draw_rect.c ****         volatile bool bottom_only = false;
 491:lvgl/src/draw/lv_draw_rect.c ****         if(dsc->border_side == LV_BORDER_SIDE_TOP) top_only = true;
 492:lvgl/src/draw/lv_draw_rect.c ****         if(dsc->border_side == LV_BORDER_SIDE_BOTTOM) bottom_only = true;
 493:lvgl/src/draw/lv_draw_rect.c ****         if(dsc->border_side == (LV_BORDER_SIDE_TOP | LV_BORDER_SIDE_BOTTOM)) {
 494:lvgl/src/draw/lv_draw_rect.c ****             top_only = true;
 495:lvgl/src/draw/lv_draw_rect.c ****             bottom_only = true;
 496:lvgl/src/draw/lv_draw_rect.c ****         }
 497:lvgl/src/draw/lv_draw_rect.c **** 
 498:lvgl/src/draw/lv_draw_rect.c ****         volatile bool normal = !top_only && !bottom_only ? true : false;
 499:lvgl/src/draw/lv_draw_rect.c **** 
 500:lvgl/src/draw/lv_draw_rect.c ****         for(h = draw_area.y1; h <= draw_area.y2; h++) {
 501:lvgl/src/draw/lv_draw_rect.c ****             if(normal ||
 502:lvgl/src/draw/lv_draw_rect.c ****                (top_only && fill_area.y1 <= coords->y1 + corner_size) ||
 503:lvgl/src/draw/lv_draw_rect.c ****                (bottom_only && fill_area.y1 >= coords->y2 - corner_size)) {
 504:lvgl/src/draw/lv_draw_rect.c ****                 lv_memset_ff(mask_buf, draw_area_w);
 505:lvgl/src/draw/lv_draw_rect.c ****                 mask_res = lv_draw_mask_apply(mask_buf, draw_buf->area.x1 + draw_area.x1, draw_buf-
 506:lvgl/src/draw/lv_draw_rect.c ****                 _lv_blend_fill(clip, &fill_area, color, mask_buf, mask_res, opa, blend_mode);
 507:lvgl/src/draw/lv_draw_rect.c ****             }
 508:lvgl/src/draw/lv_draw_rect.c ****             fill_area.y1++;
 509:lvgl/src/draw/lv_draw_rect.c ****             fill_area.y2++;
 510:lvgl/src/draw/lv_draw_rect.c **** 
 511:lvgl/src/draw/lv_draw_rect.c ****         }
 512:lvgl/src/draw/lv_draw_rect.c ****         lv_draw_mask_remove_id(mask_rin_id);
 513:lvgl/src/draw/lv_draw_rect.c ****         lv_draw_mask_remove_id(mask_rout_id);
 514:lvgl/src/draw/lv_draw_rect.c ****         lv_mem_buf_release(mask_buf);
 515:lvgl/src/draw/lv_draw_rect.c ****     }
 516:lvgl/src/draw/lv_draw_rect.c **** #else /*LV_DRAW_COMPLEX*/
 517:lvgl/src/draw/lv_draw_rect.c ****     draw_simple_border(clip, &area_inner, coords, dsc->border_color, dsc->border_opa, dsc->border_s
 518:lvgl/src/draw/lv_draw_rect.c **** #endif
 519:lvgl/src/draw/lv_draw_rect.c **** }
 520:lvgl/src/draw/lv_draw_rect.c **** 
 521:lvgl/src/draw/lv_draw_rect.c **** #if LV_DRAW_COMPLEX
 522:lvgl/src/draw/lv_draw_rect.c **** LV_ATTRIBUTE_FAST_MEM static inline lv_color_t grad_get(const lv_draw_rect_dsc_t * dsc, lv_coord_t 
 523:lvgl/src/draw/lv_draw_rect.c **** {
 524:lvgl/src/draw/lv_draw_rect.c ****     int32_t min = (dsc->bg_main_color_stop * s) >> 8;
 525:lvgl/src/draw/lv_draw_rect.c ****     if(i <= min) return dsc->bg_color;
 526:lvgl/src/draw/lv_draw_rect.c **** 
 527:lvgl/src/draw/lv_draw_rect.c ****     int32_t max = (dsc->bg_grad_color_stop * s) >> 8;
 528:lvgl/src/draw/lv_draw_rect.c ****     if(i >= max) return dsc->bg_grad_color;
 529:lvgl/src/draw/lv_draw_rect.c **** 
 530:lvgl/src/draw/lv_draw_rect.c ****     int32_t d = dsc->bg_grad_color_stop - dsc->bg_main_color_stop;
 531:lvgl/src/draw/lv_draw_rect.c ****     d = (s * d) >> 8;
 532:lvgl/src/draw/lv_draw_rect.c ****     i -= min;
 533:lvgl/src/draw/lv_draw_rect.c ****     lv_opa_t mix = (i * 255) / d;
 534:lvgl/src/draw/lv_draw_rect.c ****     return lv_color_mix(dsc->bg_grad_color, dsc->bg_color, mix);
 535:lvgl/src/draw/lv_draw_rect.c **** }
 536:lvgl/src/draw/lv_draw_rect.c **** 
 537:lvgl/src/draw/lv_draw_rect.c **** LV_ATTRIBUTE_FAST_MEM static void draw_shadow(const lv_area_t * coords, const lv_area_t * clip,
 538:lvgl/src/draw/lv_draw_rect.c ****                                               const lv_draw_rect_dsc_t * dsc)
 539:lvgl/src/draw/lv_draw_rect.c **** {
 540:lvgl/src/draw/lv_draw_rect.c ****     /*Check whether the shadow is visible*/
 541:lvgl/src/draw/lv_draw_rect.c ****     if(dsc->shadow_width == 0) return;
 542:lvgl/src/draw/lv_draw_rect.c ****     if(dsc->shadow_opa <= LV_OPA_MIN) return;
 543:lvgl/src/draw/lv_draw_rect.c **** 
ARM GAS  /var/folders/k2/cd9bl_j17z77g23y6ffqb_400000gn/T//cc0jKSMI.s 			page 11


 544:lvgl/src/draw/lv_draw_rect.c ****     if(dsc->shadow_width == 1 && dsc->shadow_ofs_x == 0 &&
 545:lvgl/src/draw/lv_draw_rect.c ****        dsc->shadow_ofs_y == 0 && dsc->shadow_spread <= 0) {
 546:lvgl/src/draw/lv_draw_rect.c ****         return;
 547:lvgl/src/draw/lv_draw_rect.c ****     }
 548:lvgl/src/draw/lv_draw_rect.c **** 
 549:lvgl/src/draw/lv_draw_rect.c ****     int32_t sw = dsc->shadow_width;
 550:lvgl/src/draw/lv_draw_rect.c **** 
 551:lvgl/src/draw/lv_draw_rect.c ****     lv_area_t sh_rect_area;
 552:lvgl/src/draw/lv_draw_rect.c ****     sh_rect_area.x1 = coords->x1  + dsc->shadow_ofs_x - dsc->shadow_spread;
 553:lvgl/src/draw/lv_draw_rect.c ****     sh_rect_area.x2 = coords->x2  + dsc->shadow_ofs_x + dsc->shadow_spread;
 554:lvgl/src/draw/lv_draw_rect.c ****     sh_rect_area.y1 = coords->y1  + dsc->shadow_ofs_y - dsc->shadow_spread;
 555:lvgl/src/draw/lv_draw_rect.c ****     sh_rect_area.y2 = coords->y2  + dsc->shadow_ofs_y + dsc->shadow_spread;
 556:lvgl/src/draw/lv_draw_rect.c **** 
 557:lvgl/src/draw/lv_draw_rect.c ****     lv_area_t sh_area;
 558:lvgl/src/draw/lv_draw_rect.c ****     sh_area.x1 = sh_rect_area.x1 - sw / 2 - 1;
 559:lvgl/src/draw/lv_draw_rect.c ****     sh_area.x2 = sh_rect_area.x2 + sw / 2 + 1;
 560:lvgl/src/draw/lv_draw_rect.c ****     sh_area.y1 = sh_rect_area.y1 - sw / 2 - 1;
 561:lvgl/src/draw/lv_draw_rect.c ****     sh_area.y2 = sh_rect_area.y2 + sw / 2 + 1;
 562:lvgl/src/draw/lv_draw_rect.c **** 
 563:lvgl/src/draw/lv_draw_rect.c ****     lv_opa_t opa = dsc->shadow_opa;
 564:lvgl/src/draw/lv_draw_rect.c **** 
 565:lvgl/src/draw/lv_draw_rect.c ****     if(opa > LV_OPA_MAX) opa = LV_OPA_COVER;
 566:lvgl/src/draw/lv_draw_rect.c **** 
 567:lvgl/src/draw/lv_draw_rect.c ****     lv_disp_t * disp = _lv_refr_get_disp_refreshing();
 568:lvgl/src/draw/lv_draw_rect.c ****     lv_disp_draw_buf_t * draw_buf = lv_disp_get_draw_buf(disp);
 569:lvgl/src/draw/lv_draw_rect.c **** 
 570:lvgl/src/draw/lv_draw_rect.c ****     /*Get clipped fill area which is the real draw area.
 571:lvgl/src/draw/lv_draw_rect.c ****      *It is always the same or inside `fill_area`*/
 572:lvgl/src/draw/lv_draw_rect.c ****     lv_area_t draw_area;
 573:lvgl/src/draw/lv_draw_rect.c ****     bool is_common;
 574:lvgl/src/draw/lv_draw_rect.c ****     is_common = _lv_area_intersect(&draw_area, &sh_area, clip);
 575:lvgl/src/draw/lv_draw_rect.c ****     if(is_common == false) return;
 576:lvgl/src/draw/lv_draw_rect.c **** 
 577:lvgl/src/draw/lv_draw_rect.c ****     const lv_area_t * disp_area = &draw_buf->area;
 578:lvgl/src/draw/lv_draw_rect.c **** 
 579:lvgl/src/draw/lv_draw_rect.c ****     /*Now `draw_area` has absolute coordinates.
 580:lvgl/src/draw/lv_draw_rect.c ****      *Make it relative to `disp_area` to simplify draw to `disp_buf`*/
 581:lvgl/src/draw/lv_draw_rect.c ****     draw_area.x1 -= disp_area->x1;
 582:lvgl/src/draw/lv_draw_rect.c ****     draw_area.y1 -= disp_area->y1;
 583:lvgl/src/draw/lv_draw_rect.c ****     draw_area.x2 -= disp_area->x1;
 584:lvgl/src/draw/lv_draw_rect.c ****     draw_area.y2 -= disp_area->y1;
 585:lvgl/src/draw/lv_draw_rect.c **** 
 586:lvgl/src/draw/lv_draw_rect.c ****     /*Consider 1 px smaller bg to be sure the edge will be covered by the shadow*/
 587:lvgl/src/draw/lv_draw_rect.c ****     lv_area_t bg_coords;
 588:lvgl/src/draw/lv_draw_rect.c ****     lv_area_copy(&bg_coords, coords);
 589:lvgl/src/draw/lv_draw_rect.c ****     bg_coords.x1 += 1;
 590:lvgl/src/draw/lv_draw_rect.c ****     bg_coords.y1 += 1;
 591:lvgl/src/draw/lv_draw_rect.c ****     bg_coords.x2 -= 1;
 592:lvgl/src/draw/lv_draw_rect.c ****     bg_coords.y2 -= 1;
 593:lvgl/src/draw/lv_draw_rect.c **** 
 594:lvgl/src/draw/lv_draw_rect.c ****     /*Get the real radius*/
 595:lvgl/src/draw/lv_draw_rect.c ****     int32_t r_bg = dsc->radius;
 596:lvgl/src/draw/lv_draw_rect.c ****     int32_t short_side = LV_MIN(lv_area_get_width(&bg_coords), lv_area_get_height(&bg_coords));
 597:lvgl/src/draw/lv_draw_rect.c ****     if(r_bg > short_side >> 1) r_bg = short_side >> 1;
 598:lvgl/src/draw/lv_draw_rect.c **** 
 599:lvgl/src/draw/lv_draw_rect.c ****     int32_t r_sh = dsc->radius;
 600:lvgl/src/draw/lv_draw_rect.c ****     short_side = LV_MIN(lv_area_get_width(&sh_rect_area), lv_area_get_height(&sh_rect_area));
ARM GAS  /var/folders/k2/cd9bl_j17z77g23y6ffqb_400000gn/T//cc0jKSMI.s 			page 12


 601:lvgl/src/draw/lv_draw_rect.c ****     if(r_sh > short_side >> 1) r_sh = short_side >> 1;
 602:lvgl/src/draw/lv_draw_rect.c **** 
 603:lvgl/src/draw/lv_draw_rect.c ****     int32_t corner_size = sw  + r_sh;
 604:lvgl/src/draw/lv_draw_rect.c **** 
 605:lvgl/src/draw/lv_draw_rect.c ****     lv_opa_t * sh_buf;
 606:lvgl/src/draw/lv_draw_rect.c **** 
 607:lvgl/src/draw/lv_draw_rect.c **** #if LV_SHADOW_CACHE_SIZE
 608:lvgl/src/draw/lv_draw_rect.c ****     if(sh_cache_size == corner_size && sh_cache_r == r_sh) {
 609:lvgl/src/draw/lv_draw_rect.c ****         /*Use the cache if available*/
 610:lvgl/src/draw/lv_draw_rect.c ****         sh_buf = lv_mem_buf_get(corner_size * corner_size);
 611:lvgl/src/draw/lv_draw_rect.c ****         lv_memcpy(sh_buf, sh_cache, corner_size * corner_size);
 612:lvgl/src/draw/lv_draw_rect.c ****     }
 613:lvgl/src/draw/lv_draw_rect.c ****     else {
 614:lvgl/src/draw/lv_draw_rect.c ****         /*A larger buffer is required for calculation*/
 615:lvgl/src/draw/lv_draw_rect.c ****         sh_buf = lv_mem_buf_get(corner_size * corner_size * sizeof(uint16_t));
 616:lvgl/src/draw/lv_draw_rect.c ****         shadow_draw_corner_buf(&sh_rect_area, (uint16_t *)sh_buf, dsc->shadow_width, r_sh);
 617:lvgl/src/draw/lv_draw_rect.c **** 
 618:lvgl/src/draw/lv_draw_rect.c ****         /*Cache the corner if it fits into the cache size*/
 619:lvgl/src/draw/lv_draw_rect.c ****         if((uint32_t)corner_size * corner_size < sizeof(sh_cache)) {
 620:lvgl/src/draw/lv_draw_rect.c ****             lv_memcpy(sh_cache, sh_buf, corner_size * corner_size);
 621:lvgl/src/draw/lv_draw_rect.c ****             sh_cache_size = corner_size;
 622:lvgl/src/draw/lv_draw_rect.c ****             sh_cache_r = r_sh;
 623:lvgl/src/draw/lv_draw_rect.c ****         }
 624:lvgl/src/draw/lv_draw_rect.c ****     }
 625:lvgl/src/draw/lv_draw_rect.c **** #else
 626:lvgl/src/draw/lv_draw_rect.c ****     sh_buf = lv_mem_buf_get(corner_size * corner_size * sizeof(uint16_t));
 627:lvgl/src/draw/lv_draw_rect.c ****     shadow_draw_corner_buf(&sh_rect_area, (uint16_t *)sh_buf, dsc->shadow_width, r_sh);
 628:lvgl/src/draw/lv_draw_rect.c **** #endif
 629:lvgl/src/draw/lv_draw_rect.c **** 
 630:lvgl/src/draw/lv_draw_rect.c ****     lv_coord_t h_half = sh_area.y1 + lv_area_get_height(&sh_area) / 2;
 631:lvgl/src/draw/lv_draw_rect.c ****     lv_coord_t w_half = sh_area.x1 + lv_area_get_width(&sh_area) / 2;
 632:lvgl/src/draw/lv_draw_rect.c **** 
 633:lvgl/src/draw/lv_draw_rect.c ****     bool simple_mode = true;
 634:lvgl/src/draw/lv_draw_rect.c ****     if(lv_draw_mask_get_cnt() > 0) simple_mode = false;
 635:lvgl/src/draw/lv_draw_rect.c ****     else if(dsc->shadow_ofs_x != 0 || dsc->shadow_ofs_y != 0) simple_mode = false;
 636:lvgl/src/draw/lv_draw_rect.c ****     else if(dsc->shadow_spread != 0) simple_mode = false;
 637:lvgl/src/draw/lv_draw_rect.c **** 
 638:lvgl/src/draw/lv_draw_rect.c ****     /*Create a mask*/
 639:lvgl/src/draw/lv_draw_rect.c ****     lv_draw_mask_res_t mask_res;
 640:lvgl/src/draw/lv_draw_rect.c ****     lv_opa_t * mask_buf = lv_mem_buf_get(lv_area_get_width(&sh_area));
 641:lvgl/src/draw/lv_draw_rect.c **** 
 642:lvgl/src/draw/lv_draw_rect.c ****     lv_draw_mask_radius_param_t mask_rout_param;
 643:lvgl/src/draw/lv_draw_rect.c ****     lv_draw_mask_radius_init(&mask_rout_param, &bg_coords, r_bg, true);
 644:lvgl/src/draw/lv_draw_rect.c **** 
 645:lvgl/src/draw/lv_draw_rect.c ****     int16_t mask_rout_id = lv_draw_mask_add(&mask_rout_param, NULL);
 646:lvgl/src/draw/lv_draw_rect.c **** 
 647:lvgl/src/draw/lv_draw_rect.c ****     lv_area_t a;
 648:lvgl/src/draw/lv_draw_rect.c **** 
 649:lvgl/src/draw/lv_draw_rect.c ****     /*Draw the top right corner*/
 650:lvgl/src/draw/lv_draw_rect.c ****     int32_t y;
 651:lvgl/src/draw/lv_draw_rect.c ****     lv_opa_t * sh_buf_tmp;
 652:lvgl/src/draw/lv_draw_rect.c ****     a.x2 = sh_area.x2;
 653:lvgl/src/draw/lv_draw_rect.c ****     a.x1 = a.x2 - corner_size + 1;
 654:lvgl/src/draw/lv_draw_rect.c ****     a.y1 = sh_area.y1;
 655:lvgl/src/draw/lv_draw_rect.c ****     a.y2 = a.y1 + corner_size - 1;
 656:lvgl/src/draw/lv_draw_rect.c **** 
 657:lvgl/src/draw/lv_draw_rect.c ****     lv_area_t ca;
ARM GAS  /var/folders/k2/cd9bl_j17z77g23y6ffqb_400000gn/T//cc0jKSMI.s 			page 13


 658:lvgl/src/draw/lv_draw_rect.c ****     bool has_com = _lv_area_intersect(&ca, &a, clip);
 659:lvgl/src/draw/lv_draw_rect.c ****     if(has_com && _lv_area_is_in(&a, &bg_coords, r_bg) == false) {
 660:lvgl/src/draw/lv_draw_rect.c ****         /*Avoid overlap in the middle with large radius*/
 661:lvgl/src/draw/lv_draw_rect.c ****         if(ca.y2 > h_half) ca.y2 = h_half;
 662:lvgl/src/draw/lv_draw_rect.c ****         if(ca.x1 <= w_half) ca.x1 = w_half + 1;
 663:lvgl/src/draw/lv_draw_rect.c **** 
 664:lvgl/src/draw/lv_draw_rect.c ****         lv_coord_t h = lv_area_get_height(&ca);
 665:lvgl/src/draw/lv_draw_rect.c ****         lv_coord_t w = lv_area_get_width(&ca);
 666:lvgl/src/draw/lv_draw_rect.c ****         if(w > 0) {
 667:lvgl/src/draw/lv_draw_rect.c ****             sh_buf_tmp = sh_buf + (ca.x1 - a.x1);
 668:lvgl/src/draw/lv_draw_rect.c ****             sh_buf_tmp += corner_size * (ca.y1 - a.y1);
 669:lvgl/src/draw/lv_draw_rect.c **** 
 670:lvgl/src/draw/lv_draw_rect.c ****             lv_area_t fa;
 671:lvgl/src/draw/lv_draw_rect.c ****             lv_area_copy(&fa, &ca);
 672:lvgl/src/draw/lv_draw_rect.c ****             fa.y2 = fa.y1;
 673:lvgl/src/draw/lv_draw_rect.c **** 
 674:lvgl/src/draw/lv_draw_rect.c ****             for(y = 0; y < h; y++) {
 675:lvgl/src/draw/lv_draw_rect.c ****                 lv_memcpy(mask_buf, sh_buf_tmp, w);
 676:lvgl/src/draw/lv_draw_rect.c ****                 mask_res = lv_draw_mask_apply(mask_buf, fa.x1, fa.y1, w);
 677:lvgl/src/draw/lv_draw_rect.c ****                 if(mask_res == LV_DRAW_MASK_RES_FULL_COVER) mask_res = LV_DRAW_MASK_RES_CHANGED;
 678:lvgl/src/draw/lv_draw_rect.c **** 
 679:lvgl/src/draw/lv_draw_rect.c ****                 _lv_blend_fill(clip, &fa, dsc->shadow_color, mask_buf,
 680:lvgl/src/draw/lv_draw_rect.c ****                                mask_res, opa, dsc->blend_mode);
 681:lvgl/src/draw/lv_draw_rect.c ****                 fa.y1++;
 682:lvgl/src/draw/lv_draw_rect.c ****                 fa.y2++;
 683:lvgl/src/draw/lv_draw_rect.c ****                 sh_buf_tmp += corner_size;
 684:lvgl/src/draw/lv_draw_rect.c ****             }
 685:lvgl/src/draw/lv_draw_rect.c ****         }
 686:lvgl/src/draw/lv_draw_rect.c ****     }
 687:lvgl/src/draw/lv_draw_rect.c **** 
 688:lvgl/src/draw/lv_draw_rect.c ****     /*Draw the bottom right corner*/
 689:lvgl/src/draw/lv_draw_rect.c ****     a.x2 = sh_area.x2;
 690:lvgl/src/draw/lv_draw_rect.c ****     a.x1 = a.x2 - corner_size + 1;
 691:lvgl/src/draw/lv_draw_rect.c ****     a.y1 = sh_area.y2 - corner_size + 1;
 692:lvgl/src/draw/lv_draw_rect.c ****     a.y2 = sh_area.y2;
 693:lvgl/src/draw/lv_draw_rect.c **** 
 694:lvgl/src/draw/lv_draw_rect.c ****     has_com = _lv_area_intersect(&ca, &a, clip);
 695:lvgl/src/draw/lv_draw_rect.c ****     if(has_com && _lv_area_is_in(&a, &bg_coords, r_bg) == false) {
 696:lvgl/src/draw/lv_draw_rect.c ****         /*Avoid overlap in the middle with large radius*/
 697:lvgl/src/draw/lv_draw_rect.c ****         if(ca.y1 <= h_half) ca.y1 = h_half;
 698:lvgl/src/draw/lv_draw_rect.c ****         if(ca.x1 <= w_half) ca.x1 = w_half;
 699:lvgl/src/draw/lv_draw_rect.c **** 
 700:lvgl/src/draw/lv_draw_rect.c ****         lv_coord_t h = lv_area_get_height(&ca);
 701:lvgl/src/draw/lv_draw_rect.c ****         lv_coord_t w = lv_area_get_width(&ca);
 702:lvgl/src/draw/lv_draw_rect.c **** 
 703:lvgl/src/draw/lv_draw_rect.c ****         if(w > 0) {
 704:lvgl/src/draw/lv_draw_rect.c ****             sh_buf_tmp = sh_buf + (ca.x1 - a.x1);
 705:lvgl/src/draw/lv_draw_rect.c ****             sh_buf_tmp += corner_size * (a.y2 - ca.y2);
 706:lvgl/src/draw/lv_draw_rect.c **** 
 707:lvgl/src/draw/lv_draw_rect.c ****             lv_area_t fa;
 708:lvgl/src/draw/lv_draw_rect.c ****             lv_area_copy(&fa, &ca);
 709:lvgl/src/draw/lv_draw_rect.c ****             fa.y1 = fa.y2;    /*Fill from bottom to top*/
 710:lvgl/src/draw/lv_draw_rect.c **** 
 711:lvgl/src/draw/lv_draw_rect.c ****             for(y = 0; y < h; y++) {
 712:lvgl/src/draw/lv_draw_rect.c ****                 lv_memcpy(mask_buf, sh_buf_tmp, w);
 713:lvgl/src/draw/lv_draw_rect.c ****                 mask_res = lv_draw_mask_apply(mask_buf, fa.x1, fa.y1, w);
 714:lvgl/src/draw/lv_draw_rect.c ****                 if(mask_res == LV_DRAW_MASK_RES_FULL_COVER) mask_res = LV_DRAW_MASK_RES_CHANGED;
ARM GAS  /var/folders/k2/cd9bl_j17z77g23y6ffqb_400000gn/T//cc0jKSMI.s 			page 14


 715:lvgl/src/draw/lv_draw_rect.c **** 
 716:lvgl/src/draw/lv_draw_rect.c ****                 _lv_blend_fill(clip, &fa, dsc->shadow_color, mask_buf,
 717:lvgl/src/draw/lv_draw_rect.c ****                                mask_res, opa, dsc->blend_mode);
 718:lvgl/src/draw/lv_draw_rect.c ****                 fa.y1--;
 719:lvgl/src/draw/lv_draw_rect.c ****                 fa.y2--;
 720:lvgl/src/draw/lv_draw_rect.c ****                 sh_buf_tmp += corner_size;
 721:lvgl/src/draw/lv_draw_rect.c ****             }
 722:lvgl/src/draw/lv_draw_rect.c ****         }
 723:lvgl/src/draw/lv_draw_rect.c ****     }
 724:lvgl/src/draw/lv_draw_rect.c **** 
 725:lvgl/src/draw/lv_draw_rect.c ****     /*Fill the right side*/
 726:lvgl/src/draw/lv_draw_rect.c ****     a.x2 = sh_area.x2;
 727:lvgl/src/draw/lv_draw_rect.c ****     a.x1 = a.x2 - corner_size + 1;
 728:lvgl/src/draw/lv_draw_rect.c ****     a.y1 = sh_area.y1 + corner_size;
 729:lvgl/src/draw/lv_draw_rect.c ****     a.y2 = sh_area.y2 - corner_size;
 730:lvgl/src/draw/lv_draw_rect.c **** 
 731:lvgl/src/draw/lv_draw_rect.c ****     has_com = _lv_area_intersect(&ca, &a, clip);
 732:lvgl/src/draw/lv_draw_rect.c ****     if(has_com && _lv_area_is_in(&a, &bg_coords, r_bg) == false) {
 733:lvgl/src/draw/lv_draw_rect.c ****         /*Avoid overlap in the middle with large radius*/
 734:lvgl/src/draw/lv_draw_rect.c ****         if(ca.x1 <= w_half) ca.x1 = w_half + 1;
 735:lvgl/src/draw/lv_draw_rect.c **** 
 736:lvgl/src/draw/lv_draw_rect.c ****         if(simple_mode) ca.x1 = LV_MAX(ca.x1, coords->x2);
 737:lvgl/src/draw/lv_draw_rect.c **** 
 738:lvgl/src/draw/lv_draw_rect.c ****         /*Draw horizontal lines*/
 739:lvgl/src/draw/lv_draw_rect.c ****         lv_coord_t w = lv_area_get_width(&ca);
 740:lvgl/src/draw/lv_draw_rect.c ****         if(w > 0) {
 741:lvgl/src/draw/lv_draw_rect.c ****             lv_coord_t h = lv_area_get_height(&ca);
 742:lvgl/src/draw/lv_draw_rect.c **** 
 743:lvgl/src/draw/lv_draw_rect.c ****             /*The last line of the shadow is repeated on the side*/
 744:lvgl/src/draw/lv_draw_rect.c ****             sh_buf_tmp = sh_buf + corner_size * (corner_size - 1);
 745:lvgl/src/draw/lv_draw_rect.c ****             sh_buf_tmp += ca.x1 - a.x1;
 746:lvgl/src/draw/lv_draw_rect.c **** 
 747:lvgl/src/draw/lv_draw_rect.c ****             lv_area_t fa;
 748:lvgl/src/draw/lv_draw_rect.c ****             lv_area_copy(&fa, &ca);
 749:lvgl/src/draw/lv_draw_rect.c ****             fa.y2 = fa.y1;
 750:lvgl/src/draw/lv_draw_rect.c ****             mask_res = LV_DRAW_MASK_RES_FULL_COVER;
 751:lvgl/src/draw/lv_draw_rect.c ****             for(y = 0; y < h; y++) {
 752:lvgl/src/draw/lv_draw_rect.c ****                 lv_memcpy(mask_buf, sh_buf_tmp, w);
 753:lvgl/src/draw/lv_draw_rect.c **** 
 754:lvgl/src/draw/lv_draw_rect.c ****                 if(simple_mode) {
 755:lvgl/src/draw/lv_draw_rect.c ****                     mask_res = LV_DRAW_MASK_RES_CHANGED;
 756:lvgl/src/draw/lv_draw_rect.c ****                 }
 757:lvgl/src/draw/lv_draw_rect.c ****                 else {
 758:lvgl/src/draw/lv_draw_rect.c ****                     mask_res = lv_draw_mask_apply(mask_buf, fa.x1, fa.y1, w);
 759:lvgl/src/draw/lv_draw_rect.c ****                     if(mask_res == LV_DRAW_MASK_RES_FULL_COVER) mask_res = LV_DRAW_MASK_RES_CHANGED
 760:lvgl/src/draw/lv_draw_rect.c ****                 }
 761:lvgl/src/draw/lv_draw_rect.c **** 
 762:lvgl/src/draw/lv_draw_rect.c ****                 _lv_blend_fill(clip, &fa,
 763:lvgl/src/draw/lv_draw_rect.c ****                                dsc->shadow_color, mask_buf, mask_res, dsc->shadow_opa, dsc->blend_m
 764:lvgl/src/draw/lv_draw_rect.c ****                 fa.y1++;
 765:lvgl/src/draw/lv_draw_rect.c ****                 fa.y2++;
 766:lvgl/src/draw/lv_draw_rect.c ****             }
 767:lvgl/src/draw/lv_draw_rect.c ****         }
 768:lvgl/src/draw/lv_draw_rect.c ****     }
 769:lvgl/src/draw/lv_draw_rect.c **** 
 770:lvgl/src/draw/lv_draw_rect.c ****     /*Invert the shadow corner buffer and draw the corners on the left*/
 771:lvgl/src/draw/lv_draw_rect.c ****     sh_buf_tmp = sh_buf ;
ARM GAS  /var/folders/k2/cd9bl_j17z77g23y6ffqb_400000gn/T//cc0jKSMI.s 			page 15


 772:lvgl/src/draw/lv_draw_rect.c ****     for(y = 0; y < corner_size; y++) {
 773:lvgl/src/draw/lv_draw_rect.c ****         int32_t x;
 774:lvgl/src/draw/lv_draw_rect.c ****         for(x = 0; x < corner_size / 2; x++) {
 775:lvgl/src/draw/lv_draw_rect.c ****             lv_opa_t tmp = sh_buf_tmp[x];
 776:lvgl/src/draw/lv_draw_rect.c ****             sh_buf_tmp[x] = sh_buf_tmp[corner_size - x - 1];
 777:lvgl/src/draw/lv_draw_rect.c ****             sh_buf_tmp[corner_size - x - 1] = tmp;
 778:lvgl/src/draw/lv_draw_rect.c ****         }
 779:lvgl/src/draw/lv_draw_rect.c ****         sh_buf_tmp += corner_size;
 780:lvgl/src/draw/lv_draw_rect.c ****     }
 781:lvgl/src/draw/lv_draw_rect.c **** 
 782:lvgl/src/draw/lv_draw_rect.c ****     /*Draw the top left corner*/
 783:lvgl/src/draw/lv_draw_rect.c ****     a.x1 = sh_area.x1;
 784:lvgl/src/draw/lv_draw_rect.c ****     a.x2 = a.x1 + corner_size - 1;
 785:lvgl/src/draw/lv_draw_rect.c ****     a.y1 = sh_area.y1;
 786:lvgl/src/draw/lv_draw_rect.c ****     a.y2 = a.y1 + corner_size - 1;
 787:lvgl/src/draw/lv_draw_rect.c **** 
 788:lvgl/src/draw/lv_draw_rect.c ****     has_com = _lv_area_intersect(&ca, &a, clip);
 789:lvgl/src/draw/lv_draw_rect.c ****     if(has_com && _lv_area_is_in(&a, &bg_coords, r_bg) == false) {
 790:lvgl/src/draw/lv_draw_rect.c ****         /*Avoid overlap in the middle with large radius*/
 791:lvgl/src/draw/lv_draw_rect.c ****         if(ca.y2 > h_half) ca.y2 = h_half;
 792:lvgl/src/draw/lv_draw_rect.c ****         if(ca.x2 > w_half) ca.x2 = w_half;
 793:lvgl/src/draw/lv_draw_rect.c **** 
 794:lvgl/src/draw/lv_draw_rect.c ****         lv_coord_t h = lv_area_get_height(&ca);
 795:lvgl/src/draw/lv_draw_rect.c ****         lv_coord_t w = lv_area_get_width(&ca);
 796:lvgl/src/draw/lv_draw_rect.c ****         if(w > 0) {
 797:lvgl/src/draw/lv_draw_rect.c ****             sh_buf_tmp = sh_buf + (ca.x1 - a.x1);
 798:lvgl/src/draw/lv_draw_rect.c ****             sh_buf_tmp += corner_size * (ca.y1 - a.y1);
 799:lvgl/src/draw/lv_draw_rect.c **** 
 800:lvgl/src/draw/lv_draw_rect.c ****             lv_area_t fa;
 801:lvgl/src/draw/lv_draw_rect.c ****             lv_area_copy(&fa, &ca);
 802:lvgl/src/draw/lv_draw_rect.c ****             fa.y2 = fa.y1;
 803:lvgl/src/draw/lv_draw_rect.c **** 
 804:lvgl/src/draw/lv_draw_rect.c ****             for(y = 0; y < h; y++) {
 805:lvgl/src/draw/lv_draw_rect.c ****                 lv_memcpy(mask_buf, sh_buf_tmp, w);
 806:lvgl/src/draw/lv_draw_rect.c ****                 mask_res = lv_draw_mask_apply(mask_buf, fa.x1, fa.y1, w);
 807:lvgl/src/draw/lv_draw_rect.c ****                 if(mask_res == LV_DRAW_MASK_RES_FULL_COVER) mask_res = LV_DRAW_MASK_RES_CHANGED;
 808:lvgl/src/draw/lv_draw_rect.c **** 
 809:lvgl/src/draw/lv_draw_rect.c ****                 _lv_blend_fill(clip, &fa, dsc->shadow_color, mask_buf,
 810:lvgl/src/draw/lv_draw_rect.c ****                                mask_res, opa, dsc->blend_mode);
 811:lvgl/src/draw/lv_draw_rect.c ****                 fa.y1++;
 812:lvgl/src/draw/lv_draw_rect.c ****                 fa.y2++;
 813:lvgl/src/draw/lv_draw_rect.c ****                 sh_buf_tmp += corner_size;
 814:lvgl/src/draw/lv_draw_rect.c ****             }
 815:lvgl/src/draw/lv_draw_rect.c ****         }
 816:lvgl/src/draw/lv_draw_rect.c ****     }
 817:lvgl/src/draw/lv_draw_rect.c **** 
 818:lvgl/src/draw/lv_draw_rect.c ****     /*Draw the bottom left corner*/
 819:lvgl/src/draw/lv_draw_rect.c ****     a.x1 = sh_area.x1;
 820:lvgl/src/draw/lv_draw_rect.c ****     a.x2 = a.x1 + corner_size - 1;
 821:lvgl/src/draw/lv_draw_rect.c ****     a.y1 = sh_area.y2 - corner_size + 1;
 822:lvgl/src/draw/lv_draw_rect.c ****     a.y2 = sh_area.y2;
 823:lvgl/src/draw/lv_draw_rect.c **** 
 824:lvgl/src/draw/lv_draw_rect.c ****     has_com = _lv_area_intersect(&ca, &a, clip);
 825:lvgl/src/draw/lv_draw_rect.c ****     if(has_com && _lv_area_is_in(&a, &bg_coords, r_bg) == false) {
 826:lvgl/src/draw/lv_draw_rect.c ****         /*Avoid overlap in the middle with large radius*/
 827:lvgl/src/draw/lv_draw_rect.c ****         if(ca.y1 <= h_half) ca.y1 = h_half + 1;
 828:lvgl/src/draw/lv_draw_rect.c ****         if(ca.x2 > w_half) ca.x2 = w_half;
ARM GAS  /var/folders/k2/cd9bl_j17z77g23y6ffqb_400000gn/T//cc0jKSMI.s 			page 16


 829:lvgl/src/draw/lv_draw_rect.c ****         lv_coord_t h = lv_area_get_height(&ca);
 830:lvgl/src/draw/lv_draw_rect.c ****         lv_coord_t w = lv_area_get_width(&ca);
 831:lvgl/src/draw/lv_draw_rect.c **** 
 832:lvgl/src/draw/lv_draw_rect.c ****         if(w > 0) {
 833:lvgl/src/draw/lv_draw_rect.c ****             sh_buf_tmp = sh_buf + (ca.x1 - a.x1);
 834:lvgl/src/draw/lv_draw_rect.c ****             sh_buf_tmp += corner_size * (a.y2 - ca.y2);
 835:lvgl/src/draw/lv_draw_rect.c **** 
 836:lvgl/src/draw/lv_draw_rect.c ****             lv_area_t fa;
 837:lvgl/src/draw/lv_draw_rect.c ****             lv_area_copy(&fa, &ca);
 838:lvgl/src/draw/lv_draw_rect.c ****             fa.y1 = fa.y2;    /*Fill from bottom to top*/
 839:lvgl/src/draw/lv_draw_rect.c **** 
 840:lvgl/src/draw/lv_draw_rect.c ****             for(y = 0; y < h; y++) {
 841:lvgl/src/draw/lv_draw_rect.c ****                 lv_memcpy(mask_buf, sh_buf_tmp, w);
 842:lvgl/src/draw/lv_draw_rect.c ****                 mask_res = lv_draw_mask_apply(mask_buf, fa.x1, fa.y1, w);
 843:lvgl/src/draw/lv_draw_rect.c ****                 if(mask_res == LV_DRAW_MASK_RES_FULL_COVER) mask_res = LV_DRAW_MASK_RES_CHANGED;
 844:lvgl/src/draw/lv_draw_rect.c **** 
 845:lvgl/src/draw/lv_draw_rect.c ****                 _lv_blend_fill(clip, &fa, dsc->shadow_color, mask_buf,
 846:lvgl/src/draw/lv_draw_rect.c ****                                mask_res, opa, dsc->blend_mode);
 847:lvgl/src/draw/lv_draw_rect.c ****                 fa.y1--;
 848:lvgl/src/draw/lv_draw_rect.c ****                 fa.y2--;
 849:lvgl/src/draw/lv_draw_rect.c ****                 sh_buf_tmp += corner_size;
 850:lvgl/src/draw/lv_draw_rect.c ****             }
 851:lvgl/src/draw/lv_draw_rect.c ****         }
 852:lvgl/src/draw/lv_draw_rect.c ****     }
 853:lvgl/src/draw/lv_draw_rect.c **** 
 854:lvgl/src/draw/lv_draw_rect.c ****     /*Fill the left side*/
 855:lvgl/src/draw/lv_draw_rect.c ****     a.x1 = sh_area.x1;
 856:lvgl/src/draw/lv_draw_rect.c ****     a.x2 = a.x1 + corner_size - 1;
 857:lvgl/src/draw/lv_draw_rect.c ****     a.y1 = sh_area.y1 + corner_size;
 858:lvgl/src/draw/lv_draw_rect.c ****     a.y2 = sh_area.y2 - corner_size;
 859:lvgl/src/draw/lv_draw_rect.c **** 
 860:lvgl/src/draw/lv_draw_rect.c ****     has_com = _lv_area_intersect(&ca, &a, clip);
 861:lvgl/src/draw/lv_draw_rect.c ****     if(has_com && _lv_area_is_in(&a, &bg_coords, r_bg) == false) {
 862:lvgl/src/draw/lv_draw_rect.c ****         /*Avoid overlap in the middle with large radius*/
 863:lvgl/src/draw/lv_draw_rect.c ****         if(ca.x2 > w_half) ca.x2 = w_half;
 864:lvgl/src/draw/lv_draw_rect.c **** 
 865:lvgl/src/draw/lv_draw_rect.c ****         if(simple_mode) ca.x2 = LV_MIN(coords->x1, ca.x2);
 866:lvgl/src/draw/lv_draw_rect.c ****         /*Draw vertical lines*/
 867:lvgl/src/draw/lv_draw_rect.c ****         lv_coord_t w = lv_area_get_width(&ca);
 868:lvgl/src/draw/lv_draw_rect.c ****         if(w > 0) {
 869:lvgl/src/draw/lv_draw_rect.c ****             lv_coord_t h = lv_area_get_height(&ca);
 870:lvgl/src/draw/lv_draw_rect.c ****             /*The last line of the shadow is repeated on the side*/
 871:lvgl/src/draw/lv_draw_rect.c ****             sh_buf_tmp = sh_buf + corner_size * (corner_size - 1);
 872:lvgl/src/draw/lv_draw_rect.c ****             sh_buf_tmp += ca.x1 - a.x1;
 873:lvgl/src/draw/lv_draw_rect.c **** 
 874:lvgl/src/draw/lv_draw_rect.c ****             lv_area_t fa;
 875:lvgl/src/draw/lv_draw_rect.c ****             lv_area_copy(&fa, &ca);
 876:lvgl/src/draw/lv_draw_rect.c ****             fa.y2 = fa.y1;
 877:lvgl/src/draw/lv_draw_rect.c ****             for(y = 0; y < h; y++) {
 878:lvgl/src/draw/lv_draw_rect.c ****                 lv_memcpy(mask_buf, sh_buf_tmp, w);
 879:lvgl/src/draw/lv_draw_rect.c ****                 if(simple_mode) {
 880:lvgl/src/draw/lv_draw_rect.c ****                     mask_res = LV_DRAW_MASK_RES_CHANGED;
 881:lvgl/src/draw/lv_draw_rect.c ****                 }
 882:lvgl/src/draw/lv_draw_rect.c ****                 else {
 883:lvgl/src/draw/lv_draw_rect.c ****                     mask_res = lv_draw_mask_apply(mask_buf, fa.x1, fa.y1, w);
 884:lvgl/src/draw/lv_draw_rect.c ****                     if(mask_res == LV_DRAW_MASK_RES_FULL_COVER) mask_res = LV_DRAW_MASK_RES_CHANGED
 885:lvgl/src/draw/lv_draw_rect.c ****                 }
ARM GAS  /var/folders/k2/cd9bl_j17z77g23y6ffqb_400000gn/T//cc0jKSMI.s 			page 17


 886:lvgl/src/draw/lv_draw_rect.c **** 
 887:lvgl/src/draw/lv_draw_rect.c ****                 _lv_blend_fill(clip, &fa,
 888:lvgl/src/draw/lv_draw_rect.c ****                                dsc->shadow_color, mask_buf, mask_res, dsc->shadow_opa, dsc->blend_m
 889:lvgl/src/draw/lv_draw_rect.c ****                 fa.y1++;
 890:lvgl/src/draw/lv_draw_rect.c ****                 fa.y2++;
 891:lvgl/src/draw/lv_draw_rect.c ****             }
 892:lvgl/src/draw/lv_draw_rect.c ****         }
 893:lvgl/src/draw/lv_draw_rect.c ****     }
 894:lvgl/src/draw/lv_draw_rect.c **** 
 895:lvgl/src/draw/lv_draw_rect.c ****     /*Fill the top side*/
 896:lvgl/src/draw/lv_draw_rect.c ****     a.x1 = sh_area.x1 + corner_size;
 897:lvgl/src/draw/lv_draw_rect.c ****     a.x2 = sh_area.x2 - corner_size;
 898:lvgl/src/draw/lv_draw_rect.c ****     a.y1 = sh_area.y1;
 899:lvgl/src/draw/lv_draw_rect.c ****     a.y2 = sh_area.y1 + corner_size - 1;
 900:lvgl/src/draw/lv_draw_rect.c **** 
 901:lvgl/src/draw/lv_draw_rect.c ****     has_com = _lv_area_intersect(&ca, &a, clip);
 902:lvgl/src/draw/lv_draw_rect.c ****     if(has_com && _lv_area_is_in(&a, &bg_coords, r_bg) == false) {
 903:lvgl/src/draw/lv_draw_rect.c ****         /*Avoid overlap in the middle with large radius*/
 904:lvgl/src/draw/lv_draw_rect.c ****         if(ca.y2 > h_half) ca.y2 = h_half;
 905:lvgl/src/draw/lv_draw_rect.c **** 
 906:lvgl/src/draw/lv_draw_rect.c ****         if(simple_mode) ca.y2 = LV_MIN(ca.y2, coords->y1);
 907:lvgl/src/draw/lv_draw_rect.c **** 
 908:lvgl/src/draw/lv_draw_rect.c ****         /*Draw horizontal lines*/
 909:lvgl/src/draw/lv_draw_rect.c ****         lv_coord_t w = lv_area_get_width(&ca);
 910:lvgl/src/draw/lv_draw_rect.c ****         lv_coord_t h = lv_area_get_height(&ca);
 911:lvgl/src/draw/lv_draw_rect.c ****         sh_buf_tmp = sh_buf + corner_size - 1;
 912:lvgl/src/draw/lv_draw_rect.c ****         sh_buf_tmp += corner_size * (ca.y1 - a.y1);
 913:lvgl/src/draw/lv_draw_rect.c **** 
 914:lvgl/src/draw/lv_draw_rect.c ****         lv_area_t fa;
 915:lvgl/src/draw/lv_draw_rect.c ****         lv_area_copy(&fa, &ca);
 916:lvgl/src/draw/lv_draw_rect.c ****         fa.y2 = fa.y1;
 917:lvgl/src/draw/lv_draw_rect.c ****         mask_res = LV_DRAW_MASK_RES_FULL_COVER;
 918:lvgl/src/draw/lv_draw_rect.c ****         for(y = 0; y < h; y++) {
 919:lvgl/src/draw/lv_draw_rect.c ****             lv_opa_t opa_tmp = sh_buf_tmp[0];
 920:lvgl/src/draw/lv_draw_rect.c ****             if(opa_tmp != LV_OPA_COVER || opa != LV_OPA_COVER) opa_tmp = (opa * opa_tmp) >> 8;
 921:lvgl/src/draw/lv_draw_rect.c **** 
 922:lvgl/src/draw/lv_draw_rect.c ****             lv_memset(mask_buf, opa_tmp, w);
 923:lvgl/src/draw/lv_draw_rect.c **** 
 924:lvgl/src/draw/lv_draw_rect.c ****             if(simple_mode) {
 925:lvgl/src/draw/lv_draw_rect.c ****                 mask_res = LV_DRAW_MASK_RES_CHANGED;
 926:lvgl/src/draw/lv_draw_rect.c ****             }
 927:lvgl/src/draw/lv_draw_rect.c ****             else {
 928:lvgl/src/draw/lv_draw_rect.c ****                 mask_res = lv_draw_mask_apply(mask_buf, fa.x1, fa.y1, w);
 929:lvgl/src/draw/lv_draw_rect.c ****                 if(mask_res == LV_DRAW_MASK_RES_FULL_COVER) mask_res = LV_DRAW_MASK_RES_CHANGED;
 930:lvgl/src/draw/lv_draw_rect.c ****             }
 931:lvgl/src/draw/lv_draw_rect.c **** 
 932:lvgl/src/draw/lv_draw_rect.c ****             _lv_blend_fill(clip, &fa, dsc->shadow_color, mask_buf,
 933:lvgl/src/draw/lv_draw_rect.c ****                            mask_res, LV_OPA_COVER, dsc->blend_mode);
 934:lvgl/src/draw/lv_draw_rect.c ****             fa.y1++;
 935:lvgl/src/draw/lv_draw_rect.c ****             fa.y2++;
 936:lvgl/src/draw/lv_draw_rect.c ****             sh_buf_tmp += corner_size;
 937:lvgl/src/draw/lv_draw_rect.c ****         }
 938:lvgl/src/draw/lv_draw_rect.c ****     }
 939:lvgl/src/draw/lv_draw_rect.c **** 
 940:lvgl/src/draw/lv_draw_rect.c ****     /*Fill the bottom side*/
 941:lvgl/src/draw/lv_draw_rect.c ****     a.x1 = sh_area.x1 + corner_size;
 942:lvgl/src/draw/lv_draw_rect.c ****     a.x2 = sh_area.x2 - corner_size;
ARM GAS  /var/folders/k2/cd9bl_j17z77g23y6ffqb_400000gn/T//cc0jKSMI.s 			page 18


 943:lvgl/src/draw/lv_draw_rect.c ****     a.y1 = sh_area.y2 - corner_size + 1;
 944:lvgl/src/draw/lv_draw_rect.c ****     a.y2 = sh_area.y2;
 945:lvgl/src/draw/lv_draw_rect.c **** 
 946:lvgl/src/draw/lv_draw_rect.c ****     has_com = _lv_area_intersect(&ca, &a, clip);
 947:lvgl/src/draw/lv_draw_rect.c ****     if(has_com && _lv_area_is_in(&a, &bg_coords, r_bg) == false) {
 948:lvgl/src/draw/lv_draw_rect.c ****         /*Avoid overlap in the middle with large radius*/
 949:lvgl/src/draw/lv_draw_rect.c ****         if(ca.y1 <= h_half) ca.y1 = h_half + 1;
 950:lvgl/src/draw/lv_draw_rect.c **** 
 951:lvgl/src/draw/lv_draw_rect.c ****         if(simple_mode) ca.y1 = LV_MAX(ca.y1, coords->y2);
 952:lvgl/src/draw/lv_draw_rect.c **** 
 953:lvgl/src/draw/lv_draw_rect.c ****         /*Draw horizontal lines*/
 954:lvgl/src/draw/lv_draw_rect.c ****         lv_coord_t w = lv_area_get_width(&ca);
 955:lvgl/src/draw/lv_draw_rect.c ****         lv_coord_t h = lv_area_get_height(&ca);
 956:lvgl/src/draw/lv_draw_rect.c ****         sh_buf_tmp = sh_buf + corner_size - 1;
 957:lvgl/src/draw/lv_draw_rect.c ****         sh_buf_tmp += corner_size * (a.y2 - ca.y2);
 958:lvgl/src/draw/lv_draw_rect.c **** 
 959:lvgl/src/draw/lv_draw_rect.c ****         lv_area_t fa;
 960:lvgl/src/draw/lv_draw_rect.c ****         lv_area_copy(&fa, &ca);
 961:lvgl/src/draw/lv_draw_rect.c ****         fa.y1 = fa.y2;
 962:lvgl/src/draw/lv_draw_rect.c ****         for(y = 0; y < h; y++) {
 963:lvgl/src/draw/lv_draw_rect.c ****             lv_opa_t opa_tmp = sh_buf_tmp[0];
 964:lvgl/src/draw/lv_draw_rect.c ****             if(opa_tmp != LV_OPA_COVER || opa != LV_OPA_COVER) opa_tmp = (opa * opa_tmp) >> 8;
 965:lvgl/src/draw/lv_draw_rect.c **** 
 966:lvgl/src/draw/lv_draw_rect.c ****             lv_memset(mask_buf, opa_tmp, w);
 967:lvgl/src/draw/lv_draw_rect.c ****             if(simple_mode) {
 968:lvgl/src/draw/lv_draw_rect.c ****                 mask_res = LV_DRAW_MASK_RES_CHANGED;
 969:lvgl/src/draw/lv_draw_rect.c ****             }
 970:lvgl/src/draw/lv_draw_rect.c ****             else {
 971:lvgl/src/draw/lv_draw_rect.c ****                 mask_res = lv_draw_mask_apply(mask_buf, fa.x1, fa.y1, w);
 972:lvgl/src/draw/lv_draw_rect.c ****                 if(mask_res == LV_DRAW_MASK_RES_FULL_COVER) mask_res = LV_DRAW_MASK_RES_CHANGED;
 973:lvgl/src/draw/lv_draw_rect.c ****             }
 974:lvgl/src/draw/lv_draw_rect.c **** 
 975:lvgl/src/draw/lv_draw_rect.c ****             _lv_blend_fill(clip, &fa, dsc->shadow_color, mask_buf,
 976:lvgl/src/draw/lv_draw_rect.c ****                            mask_res, LV_OPA_COVER, dsc->blend_mode);
 977:lvgl/src/draw/lv_draw_rect.c ****             fa.y1--;
 978:lvgl/src/draw/lv_draw_rect.c ****             fa.y2--;
 979:lvgl/src/draw/lv_draw_rect.c ****             sh_buf_tmp += corner_size;
 980:lvgl/src/draw/lv_draw_rect.c ****         }
 981:lvgl/src/draw/lv_draw_rect.c ****     }
 982:lvgl/src/draw/lv_draw_rect.c **** 
 983:lvgl/src/draw/lv_draw_rect.c ****     /*Draw the middle area*/
 984:lvgl/src/draw/lv_draw_rect.c ****     a.x1 = sh_area.x1 + corner_size;
 985:lvgl/src/draw/lv_draw_rect.c ****     a.x2 = sh_area.x2 - corner_size;
 986:lvgl/src/draw/lv_draw_rect.c ****     a.y1 = sh_area.y1 + corner_size;
 987:lvgl/src/draw/lv_draw_rect.c ****     a.y2 = sh_area.y2 - corner_size;
 988:lvgl/src/draw/lv_draw_rect.c **** 
 989:lvgl/src/draw/lv_draw_rect.c ****     has_com = _lv_area_intersect(&ca, &a, clip);
 990:lvgl/src/draw/lv_draw_rect.c ****     if(has_com && simple_mode == false &&  _lv_area_is_in(&a, &bg_coords, r_bg) == false) {
 991:lvgl/src/draw/lv_draw_rect.c ****         /*Draw horizontal lines*/
 992:lvgl/src/draw/lv_draw_rect.c ****         lv_coord_t w = lv_area_get_width(&ca);
 993:lvgl/src/draw/lv_draw_rect.c ****         lv_coord_t h = lv_area_get_height(&ca);
 994:lvgl/src/draw/lv_draw_rect.c **** 
 995:lvgl/src/draw/lv_draw_rect.c ****         lv_area_t fa;
 996:lvgl/src/draw/lv_draw_rect.c ****         lv_area_copy(&fa, &ca);
 997:lvgl/src/draw/lv_draw_rect.c ****         fa.y2 = fa.y1;
 998:lvgl/src/draw/lv_draw_rect.c ****         for(y = 0; y < h; y++) {
 999:lvgl/src/draw/lv_draw_rect.c ****             lv_memset(mask_buf, dsc->shadow_opa, w);
ARM GAS  /var/folders/k2/cd9bl_j17z77g23y6ffqb_400000gn/T//cc0jKSMI.s 			page 19


1000:lvgl/src/draw/lv_draw_rect.c ****             mask_res = lv_draw_mask_apply(mask_buf, fa.x1, fa.y1, w);
1001:lvgl/src/draw/lv_draw_rect.c ****             if(mask_res == LV_DRAW_MASK_RES_FULL_COVER) mask_res = LV_DRAW_MASK_RES_CHANGED;
1002:lvgl/src/draw/lv_draw_rect.c **** 
1003:lvgl/src/draw/lv_draw_rect.c ****             _lv_blend_fill(clip, &fa, dsc->shadow_color, mask_buf,
1004:lvgl/src/draw/lv_draw_rect.c ****                            mask_res, LV_OPA_COVER, dsc->blend_mode);
1005:lvgl/src/draw/lv_draw_rect.c ****             fa.y1++;
1006:lvgl/src/draw/lv_draw_rect.c ****             fa.y2++;
1007:lvgl/src/draw/lv_draw_rect.c ****         }
1008:lvgl/src/draw/lv_draw_rect.c ****     }
1009:lvgl/src/draw/lv_draw_rect.c **** 
1010:lvgl/src/draw/lv_draw_rect.c ****     lv_draw_mask_remove_id(mask_rout_id);
1011:lvgl/src/draw/lv_draw_rect.c ****     lv_mem_buf_release(mask_buf);
1012:lvgl/src/draw/lv_draw_rect.c ****     lv_mem_buf_release(sh_buf);
1013:lvgl/src/draw/lv_draw_rect.c **** }
1014:lvgl/src/draw/lv_draw_rect.c **** 
1015:lvgl/src/draw/lv_draw_rect.c **** /**
1016:lvgl/src/draw/lv_draw_rect.c ****  * Calculate a blurred corner
1017:lvgl/src/draw/lv_draw_rect.c ****  * @param coords Coordinates of the shadow
1018:lvgl/src/draw/lv_draw_rect.c ****  * @param sh_buf a buffer to store the result. It's size should be `(sw + r)^2 * 2`
1019:lvgl/src/draw/lv_draw_rect.c ****  * @param sw shadow width
1020:lvgl/src/draw/lv_draw_rect.c ****  * @param r radius
1021:lvgl/src/draw/lv_draw_rect.c ****  */
1022:lvgl/src/draw/lv_draw_rect.c **** LV_ATTRIBUTE_FAST_MEM static void shadow_draw_corner_buf(const lv_area_t * coords, uint16_t * sh_bu
1023:lvgl/src/draw/lv_draw_rect.c ****                                                          lv_coord_t r)
1024:lvgl/src/draw/lv_draw_rect.c **** {
1025:lvgl/src/draw/lv_draw_rect.c ****     int32_t sw_ori = sw;
1026:lvgl/src/draw/lv_draw_rect.c ****     int32_t size = sw_ori  + r;
1027:lvgl/src/draw/lv_draw_rect.c **** 
1028:lvgl/src/draw/lv_draw_rect.c ****     lv_area_t sh_area;
1029:lvgl/src/draw/lv_draw_rect.c ****     lv_area_copy(&sh_area, coords);
1030:lvgl/src/draw/lv_draw_rect.c ****     sh_area.x2 = sw / 2 + r - 1  - ((sw & 1) ? 0 : 1);
1031:lvgl/src/draw/lv_draw_rect.c ****     sh_area.y1 = sw / 2 + 1;
1032:lvgl/src/draw/lv_draw_rect.c **** 
1033:lvgl/src/draw/lv_draw_rect.c ****     sh_area.x1 = sh_area.x2 - lv_area_get_width(coords);
1034:lvgl/src/draw/lv_draw_rect.c ****     sh_area.y2 = sh_area.y1 + lv_area_get_height(coords);
1035:lvgl/src/draw/lv_draw_rect.c **** 
1036:lvgl/src/draw/lv_draw_rect.c ****     lv_draw_mask_radius_param_t mask_param;
1037:lvgl/src/draw/lv_draw_rect.c ****     lv_draw_mask_radius_init(&mask_param, &sh_area, r, false);
1038:lvgl/src/draw/lv_draw_rect.c **** 
1039:lvgl/src/draw/lv_draw_rect.c **** #if SHADOW_ENHANCE
1040:lvgl/src/draw/lv_draw_rect.c ****     /*Set half shadow width width because blur will be repeated*/
1041:lvgl/src/draw/lv_draw_rect.c ****     if(sw_ori == 1) sw = 1;
1042:lvgl/src/draw/lv_draw_rect.c ****     else sw = sw_ori >> 1;
1043:lvgl/src/draw/lv_draw_rect.c **** #endif
1044:lvgl/src/draw/lv_draw_rect.c **** 
1045:lvgl/src/draw/lv_draw_rect.c ****     int32_t y;
1046:lvgl/src/draw/lv_draw_rect.c ****     lv_opa_t * mask_line = lv_mem_buf_get(size);
1047:lvgl/src/draw/lv_draw_rect.c ****     uint16_t * sh_ups_tmp_buf = (uint16_t *)sh_buf;
1048:lvgl/src/draw/lv_draw_rect.c ****     for(y = 0; y < size; y++) {
1049:lvgl/src/draw/lv_draw_rect.c ****         lv_memset_ff(mask_line, size);
1050:lvgl/src/draw/lv_draw_rect.c ****         lv_draw_mask_res_t mask_res = mask_param.dsc.cb(mask_line, 0, y, size, &mask_param);
1051:lvgl/src/draw/lv_draw_rect.c ****         if(mask_res == LV_DRAW_MASK_RES_TRANSP) {
1052:lvgl/src/draw/lv_draw_rect.c ****             lv_memset_00(sh_ups_tmp_buf, size * sizeof(sh_ups_tmp_buf[0]));
1053:lvgl/src/draw/lv_draw_rect.c ****         }
1054:lvgl/src/draw/lv_draw_rect.c ****         else {
1055:lvgl/src/draw/lv_draw_rect.c ****             int32_t i;
1056:lvgl/src/draw/lv_draw_rect.c ****             sh_ups_tmp_buf[0] = (mask_line[0] << SHADOW_UPSCALE_SHIFT) / sw;
ARM GAS  /var/folders/k2/cd9bl_j17z77g23y6ffqb_400000gn/T//cc0jKSMI.s 			page 20


1057:lvgl/src/draw/lv_draw_rect.c ****             for(i = 1; i < size; i++) {
1058:lvgl/src/draw/lv_draw_rect.c ****                 if(mask_line[i] == mask_line[i - 1]) sh_ups_tmp_buf[i] = sh_ups_tmp_buf[i - 1];
1059:lvgl/src/draw/lv_draw_rect.c ****                 else  sh_ups_tmp_buf[i] = (mask_line[i] << SHADOW_UPSCALE_SHIFT) / sw;
1060:lvgl/src/draw/lv_draw_rect.c ****             }
1061:lvgl/src/draw/lv_draw_rect.c ****         }
1062:lvgl/src/draw/lv_draw_rect.c **** 
1063:lvgl/src/draw/lv_draw_rect.c ****         sh_ups_tmp_buf += size;
1064:lvgl/src/draw/lv_draw_rect.c ****     }
1065:lvgl/src/draw/lv_draw_rect.c ****     lv_mem_buf_release(mask_line);
1066:lvgl/src/draw/lv_draw_rect.c **** 
1067:lvgl/src/draw/lv_draw_rect.c ****     if(sw == 1) {
1068:lvgl/src/draw/lv_draw_rect.c ****         int32_t i;
1069:lvgl/src/draw/lv_draw_rect.c ****         lv_opa_t * res_buf = (lv_opa_t *)sh_buf;
1070:lvgl/src/draw/lv_draw_rect.c ****         for(i = 0; i < size * size; i++) {
1071:lvgl/src/draw/lv_draw_rect.c ****             res_buf[i] = (sh_buf[i] >> SHADOW_UPSCALE_SHIFT);
1072:lvgl/src/draw/lv_draw_rect.c ****         }
1073:lvgl/src/draw/lv_draw_rect.c ****         return;
1074:lvgl/src/draw/lv_draw_rect.c ****     }
1075:lvgl/src/draw/lv_draw_rect.c **** 
1076:lvgl/src/draw/lv_draw_rect.c ****     shadow_blur_corner(size, sw, sh_buf);
1077:lvgl/src/draw/lv_draw_rect.c **** 
1078:lvgl/src/draw/lv_draw_rect.c **** #if SHADOW_ENHANCE == 0
1079:lvgl/src/draw/lv_draw_rect.c ****     /*The result is required in lv_opa_t not uint16_t*/
1080:lvgl/src/draw/lv_draw_rect.c ****     uint32_t x;
1081:lvgl/src/draw/lv_draw_rect.c ****     lv_opa_t * res_buf = (lv_opa_t *)sh_buf;
1082:lvgl/src/draw/lv_draw_rect.c ****     for(x = 0; x < size * size; x++) {
1083:lvgl/src/draw/lv_draw_rect.c ****         res_buf[x] = sh_buf[x];
1084:lvgl/src/draw/lv_draw_rect.c ****     }
1085:lvgl/src/draw/lv_draw_rect.c **** #else
1086:lvgl/src/draw/lv_draw_rect.c ****     sw += sw_ori & 1;
1087:lvgl/src/draw/lv_draw_rect.c ****     if(sw > 1) {
1088:lvgl/src/draw/lv_draw_rect.c ****         uint32_t i;
1089:lvgl/src/draw/lv_draw_rect.c ****         sh_buf[0] = (sh_buf[0] << SHADOW_UPSCALE_SHIFT) / sw;
1090:lvgl/src/draw/lv_draw_rect.c ****         for(i = 1; i < (uint32_t) size * size; i++) {
1091:lvgl/src/draw/lv_draw_rect.c ****             if(sh_buf[i] == sh_buf[i - 1]) sh_buf[i] = sh_buf[i - 1];
1092:lvgl/src/draw/lv_draw_rect.c ****             else  sh_buf[i] = (sh_buf[i] << SHADOW_UPSCALE_SHIFT) / sw;
1093:lvgl/src/draw/lv_draw_rect.c ****         }
1094:lvgl/src/draw/lv_draw_rect.c **** 
1095:lvgl/src/draw/lv_draw_rect.c ****         shadow_blur_corner(size, sw, sh_buf);
1096:lvgl/src/draw/lv_draw_rect.c ****     }
1097:lvgl/src/draw/lv_draw_rect.c ****     int32_t x;
1098:lvgl/src/draw/lv_draw_rect.c ****     lv_opa_t * res_buf = (lv_opa_t *)sh_buf;
1099:lvgl/src/draw/lv_draw_rect.c ****     for(x = 0; x < size * size; x++) {
1100:lvgl/src/draw/lv_draw_rect.c ****         res_buf[x] = sh_buf[x];
1101:lvgl/src/draw/lv_draw_rect.c ****     }
1102:lvgl/src/draw/lv_draw_rect.c **** #endif
1103:lvgl/src/draw/lv_draw_rect.c **** 
1104:lvgl/src/draw/lv_draw_rect.c **** }
1105:lvgl/src/draw/lv_draw_rect.c **** 
1106:lvgl/src/draw/lv_draw_rect.c **** LV_ATTRIBUTE_FAST_MEM static void shadow_blur_corner(lv_coord_t size, lv_coord_t sw, uint16_t * sh_
1107:lvgl/src/draw/lv_draw_rect.c **** {
  29              		.loc 1 1107 1 view -0
  30              		.cfi_startproc
  31              		@ args = 0, pretend = 0, frame = 8
  32              		@ frame_needed = 0, uses_anonymous_args = 0
  33              		.loc 1 1107 1 is_stmt 0 view .LVU1
  34 0000 2DE9F04F 		push	{r4, r5, r6, r7, r8, r9, r10, fp, lr}
ARM GAS  /var/folders/k2/cd9bl_j17z77g23y6ffqb_400000gn/T//cc0jKSMI.s 			page 21


  35              	.LCFI0:
  36              		.cfi_def_cfa_offset 36
  37              		.cfi_offset 4, -36
  38              		.cfi_offset 5, -32
  39              		.cfi_offset 6, -28
  40              		.cfi_offset 7, -24
  41              		.cfi_offset 8, -20
  42              		.cfi_offset 9, -16
  43              		.cfi_offset 10, -12
  44              		.cfi_offset 11, -8
  45              		.cfi_offset 14, -4
  46 0004 83B0     		sub	sp, sp, #12
  47              	.LCFI1:
  48              		.cfi_def_cfa_offset 48
  49 0006 0446     		mov	r4, r0
  50 0008 0191     		str	r1, [sp, #4]
  51 000a 1646     		mov	r6, r2
1108:lvgl/src/draw/lv_draw_rect.c ****     int32_t s_left = sw >> 1;
  52              		.loc 1 1108 5 is_stmt 1 view .LVU2
  53              		.loc 1 1108 25 is_stmt 0 view .LVU3
  54 000c 4FEA6108 		asr	r8, r1, #1
  55              	.LVL1:
1109:lvgl/src/draw/lv_draw_rect.c ****     int32_t s_right = (sw >> 1);
  56              		.loc 1 1109 5 is_stmt 1 view .LVU4
1110:lvgl/src/draw/lv_draw_rect.c ****     if((sw & 1) == 0) s_left--;
  57              		.loc 1 1110 5 view .LVU5
  58              		.loc 1 1110 7 is_stmt 0 view .LVU6
  59 0010 11F0010F 		tst	r1, #1
  60 0014 02D1     		bne	.L25
  61              		.loc 1 1110 23 is_stmt 1 discriminator 1 view .LVU7
  62              		.loc 1 1110 29 is_stmt 0 discriminator 1 view .LVU8
  63 0016 08F1FF39 		add	r9, r8, #-1
  64              	.LVL2:
  65              		.loc 1 1110 29 discriminator 1 view .LVU9
  66 001a 00E0     		b	.L2
  67              	.LVL3:
  68              	.L25:
1108:lvgl/src/draw/lv_draw_rect.c ****     int32_t s_left = sw >> 1;
  69              		.loc 1 1108 13 view .LVU10
  70 001c C146     		mov	r9, r8
  71              	.LVL4:
  72              	.L2:
1111:lvgl/src/draw/lv_draw_rect.c **** 
1112:lvgl/src/draw/lv_draw_rect.c ****     /*Horizontal blur*/
1113:lvgl/src/draw/lv_draw_rect.c ****     uint16_t * sh_ups_blur_buf = lv_mem_buf_get(size * sizeof(uint16_t));
  73              		.loc 1 1113 5 is_stmt 1 view .LVU11
  74              		.loc 1 1113 54 is_stmt 0 view .LVU12
  75 001e 6700     		lsls	r7, r4, #1
  76              		.loc 1 1113 34 view .LVU13
  77 0020 3846     		mov	r0, r7
  78              	.LVL5:
  79              		.loc 1 1113 34 view .LVU14
  80 0022 FFF7FEFF 		bl	lv_mem_buf_get
  81              	.LVL6:
  82              		.loc 1 1113 34 view .LVU15
  83 0026 0546     		mov	r5, r0
  84              	.LVL7:
ARM GAS  /var/folders/k2/cd9bl_j17z77g23y6ffqb_400000gn/T//cc0jKSMI.s 			page 22


1114:lvgl/src/draw/lv_draw_rect.c **** 
1115:lvgl/src/draw/lv_draw_rect.c ****     int32_t x;
  85              		.loc 1 1115 5 is_stmt 1 view .LVU16
1116:lvgl/src/draw/lv_draw_rect.c ****     int32_t y;
  86              		.loc 1 1116 5 view .LVU17
1117:lvgl/src/draw/lv_draw_rect.c **** 
1118:lvgl/src/draw/lv_draw_rect.c ****     uint16_t * sh_ups_tmp_buf = sh_ups_buf;
  87              		.loc 1 1118 5 view .LVU18
1119:lvgl/src/draw/lv_draw_rect.c **** 
1120:lvgl/src/draw/lv_draw_rect.c ****     for(y = 0; y < size; y++) {
  88              		.loc 1 1120 5 view .LVU19
1118:lvgl/src/draw/lv_draw_rect.c **** 
  89              		.loc 1 1118 16 is_stmt 0 view .LVU20
  90 0028 B246     		mov	r10, r6
  91              		.loc 1 1120 11 view .LVU21
  92 002a 4FF0000B 		mov	fp, #0
  93              		.loc 1 1120 5 view .LVU22
  94 002e 22E0     		b	.L3
  95              	.LVL8:
  96              	.L26:
  97              	.LBB189:
  98              	.LBB190:
1121:lvgl/src/draw/lv_draw_rect.c ****         int32_t v = sh_ups_tmp_buf[size - 1] * sw;
1122:lvgl/src/draw/lv_draw_rect.c ****         for(x = size - 1; x >= 0; x--) {
1123:lvgl/src/draw/lv_draw_rect.c ****             sh_ups_blur_buf[x] = v;
1124:lvgl/src/draw/lv_draw_rect.c **** 
1125:lvgl/src/draw/lv_draw_rect.c ****             /*Forget the right pixel*/
1126:lvgl/src/draw/lv_draw_rect.c ****             uint32_t right_val = 0;
  99              		.loc 1 1126 22 view .LVU23
 100 0030 0021     		movs	r1, #0
 101              	.LVL9:
 102              	.L5:
1127:lvgl/src/draw/lv_draw_rect.c ****             if(x + s_right < size) right_val = sh_ups_tmp_buf[x + s_right];
1128:lvgl/src/draw/lv_draw_rect.c ****             v -= right_val;
 103              		.loc 1 1128 13 is_stmt 1 view .LVU24
 104              		.loc 1 1128 15 is_stmt 0 view .LVU25
 105 0032 521A     		subs	r2, r2, r1
 106              	.LVL10:
1129:lvgl/src/draw/lv_draw_rect.c **** 
1130:lvgl/src/draw/lv_draw_rect.c ****             /*Add the left pixel*/
1131:lvgl/src/draw/lv_draw_rect.c ****             uint32_t left_val;
 107              		.loc 1 1131 13 is_stmt 1 view .LVU26
1132:lvgl/src/draw/lv_draw_rect.c ****             if(x - s_left - 1 < 0) left_val = sh_ups_tmp_buf[0];
 108              		.loc 1 1132 13 view .LVU27
 109              		.loc 1 1132 18 is_stmt 0 view .LVU28
 110 0034 A3EB0901 		sub	r1, r3, r9
 111              	.LVL11:
 112              		.loc 1 1132 15 view .LVU29
 113 0038 0029     		cmp	r1, #0
 114 003a 11DD     		ble	.L29
1133:lvgl/src/draw/lv_draw_rect.c ****             else left_val = sh_ups_tmp_buf[x - s_left - 1];
 115              		.loc 1 1133 18 is_stmt 1 view .LVU30
 116              		.loc 1 1133 43 is_stmt 0 view .LVU31
 117 003c 01F10041 		add	r1, r1, #-2147483648
 118 0040 0139     		subs	r1, r1, #1
 119 0042 3AF81110 		ldrh	r1, [r10, r1, lsl #1]
 120              	.LVL12:
ARM GAS  /var/folders/k2/cd9bl_j17z77g23y6ffqb_400000gn/T//cc0jKSMI.s 			page 23


 121              	.L7:
1134:lvgl/src/draw/lv_draw_rect.c ****             v += left_val;
 122              		.loc 1 1134 13 is_stmt 1 discriminator 2 view .LVU32
 123              		.loc 1 1134 15 is_stmt 0 discriminator 2 view .LVU33
 124 0046 0A44     		add	r2, r2, r1
 125              	.LVL13:
 126              		.loc 1 1134 15 discriminator 2 view .LVU34
 127              	.LBE190:
1122:lvgl/src/draw/lv_draw_rect.c ****             sh_ups_blur_buf[x] = v;
 128              		.loc 1 1122 35 is_stmt 1 discriminator 2 view .LVU35
1122:lvgl/src/draw/lv_draw_rect.c ****             sh_ups_blur_buf[x] = v;
 129              		.loc 1 1122 36 is_stmt 0 discriminator 2 view .LVU36
 130 0048 013B     		subs	r3, r3, #1
 131              	.LVL14:
 132              	.L4:
1122:lvgl/src/draw/lv_draw_rect.c ****             sh_ups_blur_buf[x] = v;
 133              		.loc 1 1122 27 is_stmt 1 discriminator 1 view .LVU37
1122:lvgl/src/draw/lv_draw_rect.c ****             sh_ups_blur_buf[x] = v;
 134              		.loc 1 1122 9 is_stmt 0 discriminator 1 view .LVU38
 135 004a 002B     		cmp	r3, #0
 136 004c 0BDB     		blt	.L30
 137              	.LBB191:
1123:lvgl/src/draw/lv_draw_rect.c **** 
 138              		.loc 1 1123 13 is_stmt 1 view .LVU39
1123:lvgl/src/draw/lv_draw_rect.c **** 
 139              		.loc 1 1123 32 is_stmt 0 view .LVU40
 140 004e 25F81320 		strh	r2, [r5, r3, lsl #1]	@ movhi
1126:lvgl/src/draw/lv_draw_rect.c ****             if(x + s_right < size) right_val = sh_ups_tmp_buf[x + s_right];
 141              		.loc 1 1126 13 is_stmt 1 view .LVU41
 142              	.LVL15:
1127:lvgl/src/draw/lv_draw_rect.c ****             v -= right_val;
 143              		.loc 1 1127 13 view .LVU42
1127:lvgl/src/draw/lv_draw_rect.c ****             v -= right_val;
 144              		.loc 1 1127 18 is_stmt 0 view .LVU43
 145 0052 03EB0801 		add	r1, r3, r8
1127:lvgl/src/draw/lv_draw_rect.c ****             v -= right_val;
 146              		.loc 1 1127 15 view .LVU44
 147 0056 A142     		cmp	r1, r4
 148 0058 EADA     		bge	.L26
1127:lvgl/src/draw/lv_draw_rect.c ****             v -= right_val;
 149              		.loc 1 1127 36 is_stmt 1 discriminator 1 view .LVU45
1127:lvgl/src/draw/lv_draw_rect.c ****             v -= right_val;
 150              		.loc 1 1127 62 is_stmt 0 discriminator 1 view .LVU46
 151 005a 3AF81110 		ldrh	r1, [r10, r1, lsl #1]
 152              	.LVL16:
1127:lvgl/src/draw/lv_draw_rect.c ****             v -= right_val;
 153              		.loc 1 1127 62 discriminator 1 view .LVU47
 154 005e E8E7     		b	.L5
 155              	.LVL17:
 156              	.L29:
1132:lvgl/src/draw/lv_draw_rect.c ****             else left_val = sh_ups_tmp_buf[x - s_left - 1];
 157              		.loc 1 1132 36 is_stmt 1 discriminator 1 view .LVU48
1132:lvgl/src/draw/lv_draw_rect.c ****             else left_val = sh_ups_tmp_buf[x - s_left - 1];
 158              		.loc 1 1132 61 is_stmt 0 discriminator 1 view .LVU49
 159 0060 BAF80010 		ldrh	r1, [r10]
 160              	.LVL18:
1132:lvgl/src/draw/lv_draw_rect.c ****             else left_val = sh_ups_tmp_buf[x - s_left - 1];
ARM GAS  /var/folders/k2/cd9bl_j17z77g23y6ffqb_400000gn/T//cc0jKSMI.s 			page 24


 161              		.loc 1 1132 61 discriminator 1 view .LVU50
 162 0064 EFE7     		b	.L7
 163              	.LVL19:
 164              	.L30:
1132:lvgl/src/draw/lv_draw_rect.c ****             else left_val = sh_ups_tmp_buf[x - s_left - 1];
 165              		.loc 1 1132 61 discriminator 1 view .LVU51
 166              	.LBE191:
1135:lvgl/src/draw/lv_draw_rect.c ****         }
1136:lvgl/src/draw/lv_draw_rect.c ****         lv_memcpy(sh_ups_tmp_buf, sh_ups_blur_buf, size * sizeof(uint16_t));
 167              		.loc 1 1136 9 is_stmt 1 discriminator 2 view .LVU52
 168 0066 3A46     		mov	r2, r7
 169              	.LVL20:
 170              		.loc 1 1136 9 is_stmt 0 discriminator 2 view .LVU53
 171 0068 2946     		mov	r1, r5
 172 006a 5046     		mov	r0, r10
 173 006c FFF7FEFF 		bl	lv_memcpy
 174              	.LVL21:
1137:lvgl/src/draw/lv_draw_rect.c ****         sh_ups_tmp_buf += size;
 175              		.loc 1 1137 9 is_stmt 1 discriminator 2 view .LVU54
 176              		.loc 1 1137 24 is_stmt 0 discriminator 2 view .LVU55
 177 0070 BA44     		add	r10, r10, r7
 178              	.LVL22:
 179              		.loc 1 1137 24 discriminator 2 view .LVU56
 180              	.LBE189:
1120:lvgl/src/draw/lv_draw_rect.c ****         int32_t v = sh_ups_tmp_buf[size - 1] * sw;
 181              		.loc 1 1120 26 is_stmt 1 discriminator 2 view .LVU57
1120:lvgl/src/draw/lv_draw_rect.c ****         int32_t v = sh_ups_tmp_buf[size - 1] * sw;
 182              		.loc 1 1120 27 is_stmt 0 discriminator 2 view .LVU58
 183 0072 0BF1010B 		add	fp, fp, #1
 184              	.LVL23:
 185              	.L3:
1120:lvgl/src/draw/lv_draw_rect.c ****         int32_t v = sh_ups_tmp_buf[size - 1] * sw;
 186              		.loc 1 1120 16 is_stmt 1 discriminator 1 view .LVU59
1120:lvgl/src/draw/lv_draw_rect.c ****         int32_t v = sh_ups_tmp_buf[size - 1] * sw;
 187              		.loc 1 1120 5 is_stmt 0 discriminator 1 view .LVU60
 188 0076 5C45     		cmp	r4, fp
 189 0078 09DD     		ble	.L31
 190              	.LBB192:
1121:lvgl/src/draw/lv_draw_rect.c ****         for(x = size - 1; x >= 0; x--) {
 191              		.loc 1 1121 9 is_stmt 1 view .LVU61
1121:lvgl/src/draw/lv_draw_rect.c ****         for(x = size - 1; x >= 0; x--) {
 192              		.loc 1 1121 35 is_stmt 0 view .LVU62
 193 007a 04F10043 		add	r3, r4, #-2147483648
 194 007e 013B     		subs	r3, r3, #1
 195 0080 3AF81320 		ldrh	r2, [r10, r3, lsl #1]
1121:lvgl/src/draw/lv_draw_rect.c ****         for(x = size - 1; x >= 0; x--) {
 196              		.loc 1 1121 17 view .LVU63
 197 0084 019B     		ldr	r3, [sp, #4]
 198 0086 03FB02F2 		mul	r2, r3, r2
 199              	.LVL24:
1122:lvgl/src/draw/lv_draw_rect.c ****             sh_ups_blur_buf[x] = v;
 200              		.loc 1 1122 9 is_stmt 1 view .LVU64
1122:lvgl/src/draw/lv_draw_rect.c ****             sh_ups_blur_buf[x] = v;
 201              		.loc 1 1122 15 is_stmt 0 view .LVU65
 202 008a 631E     		subs	r3, r4, #1
 203              	.LVL25:
1122:lvgl/src/draw/lv_draw_rect.c ****             sh_ups_blur_buf[x] = v;
ARM GAS  /var/folders/k2/cd9bl_j17z77g23y6ffqb_400000gn/T//cc0jKSMI.s 			page 25


 204              		.loc 1 1122 9 view .LVU66
 205 008c DDE7     		b	.L4
 206              	.LVL26:
 207              	.L31:
1122:lvgl/src/draw/lv_draw_rect.c ****             sh_ups_blur_buf[x] = v;
 208              		.loc 1 1122 9 view .LVU67
 209              	.LBE192:
1138:lvgl/src/draw/lv_draw_rect.c ****     }
1139:lvgl/src/draw/lv_draw_rect.c **** 
1140:lvgl/src/draw/lv_draw_rect.c ****     /*Vertical blur*/
1141:lvgl/src/draw/lv_draw_rect.c ****     uint32_t i;
 210              		.loc 1 1141 5 is_stmt 1 view .LVU68
1142:lvgl/src/draw/lv_draw_rect.c ****     sh_ups_buf[0] = sh_ups_buf[0] / sw;
 211              		.loc 1 1142 5 view .LVU69
 212              		.loc 1 1142 31 is_stmt 0 view .LVU70
 213 008e 3388     		ldrh	r3, [r6]
 214              		.loc 1 1142 35 view .LVU71
 215 0090 019A     		ldr	r2, [sp, #4]
 216 0092 93FBF2F3 		sdiv	r3, r3, r2
 217              		.loc 1 1142 19 view .LVU72
 218 0096 3380     		strh	r3, [r6]	@ movhi
1143:lvgl/src/draw/lv_draw_rect.c ****     for(i = 1; i < (uint32_t)size * size; i++) {
 219              		.loc 1 1143 5 is_stmt 1 view .LVU73
 220              	.LVL27:
 221              		.loc 1 1143 11 is_stmt 0 view .LVU74
 222 0098 0123     		movs	r3, #1
 223              		.loc 1 1143 5 view .LVU75
 224 009a 02E0     		b	.L10
 225              	.LVL28:
 226              	.L33:
1144:lvgl/src/draw/lv_draw_rect.c ****         if(sh_ups_buf[i] == sh_ups_buf[i - 1]) sh_ups_buf[i] = sh_ups_buf[i - 1];
 227              		.loc 1 1144 48 is_stmt 1 discriminator 1 view .LVU76
 228              		.loc 1 1144 62 is_stmt 0 discriminator 1 view .LVU77
 229 009c 26F81320 		strh	r2, [r6, r3, lsl #1]	@ movhi
 230              	.L12:
1143:lvgl/src/draw/lv_draw_rect.c ****     for(i = 1; i < (uint32_t)size * size; i++) {
 231              		.loc 1 1143 43 is_stmt 1 discriminator 2 view .LVU78
1143:lvgl/src/draw/lv_draw_rect.c ****     for(i = 1; i < (uint32_t)size * size; i++) {
 232              		.loc 1 1143 44 is_stmt 0 discriminator 2 view .LVU79
 233 00a0 0133     		adds	r3, r3, #1
 234              	.LVL29:
 235              	.L10:
1143:lvgl/src/draw/lv_draw_rect.c ****     for(i = 1; i < (uint32_t)size * size; i++) {
 236              		.loc 1 1143 16 is_stmt 1 discriminator 1 view .LVU80
1143:lvgl/src/draw/lv_draw_rect.c ****     for(i = 1; i < (uint32_t)size * size; i++) {
 237              		.loc 1 1143 35 is_stmt 0 discriminator 1 view .LVU81
 238 00a2 04FB04F2 		mul	r2, r4, r4
1143:lvgl/src/draw/lv_draw_rect.c ****     for(i = 1; i < (uint32_t)size * size; i++) {
 239              		.loc 1 1143 5 discriminator 1 view .LVU82
 240 00a6 9A42     		cmp	r2, r3
 241 00a8 0ED9     		bls	.L32
 242              		.loc 1 1144 9 is_stmt 1 view .LVU83
 243              		.loc 1 1144 22 is_stmt 0 view .LVU84
 244 00aa 36F81310 		ldrh	r1, [r6, r3, lsl #1]
 245              		.loc 1 1144 39 view .LVU85
 246 00ae 03F10042 		add	r2, r3, #-2147483648
 247 00b2 013A     		subs	r2, r2, #1
ARM GAS  /var/folders/k2/cd9bl_j17z77g23y6ffqb_400000gn/T//cc0jKSMI.s 			page 26


 248 00b4 36F81220 		ldrh	r2, [r6, r2, lsl #1]
 249              		.loc 1 1144 11 view .LVU86
 250 00b8 9142     		cmp	r1, r2
 251 00ba EFD0     		beq	.L33
1145:lvgl/src/draw/lv_draw_rect.c ****         else  sh_ups_buf[i] = sh_ups_buf[i] / sw;
 252              		.loc 1 1145 15 is_stmt 1 view .LVU87
 253              		.loc 1 1145 45 is_stmt 0 view .LVU88
 254 00bc 019A     		ldr	r2, [sp, #4]
 255 00be 91FBF2F1 		sdiv	r1, r1, r2
 256              		.loc 1 1145 29 view .LVU89
 257 00c2 26F81310 		strh	r1, [r6, r3, lsl #1]	@ movhi
 258 00c6 EBE7     		b	.L12
 259              	.L32:
1146:lvgl/src/draw/lv_draw_rect.c ****     }
1147:lvgl/src/draw/lv_draw_rect.c **** 
1148:lvgl/src/draw/lv_draw_rect.c ****     for(x = 0; x < size; x++) {
 260              		.loc 1 1148 11 view .LVU90
 261 00c8 4FF0000E 		mov	lr, #0
 262 00cc 32E0     		b	.L14
 263              	.LVL30:
 264              	.L27:
 265              	.LBB193:
 266              	.LBB194:
1149:lvgl/src/draw/lv_draw_rect.c ****         sh_ups_tmp_buf = &sh_ups_buf[x];
1150:lvgl/src/draw/lv_draw_rect.c ****         int32_t v = sh_ups_tmp_buf[0] * sw;
1151:lvgl/src/draw/lv_draw_rect.c ****         for(y = 0; y < size ; y++, sh_ups_tmp_buf += size) {
1152:lvgl/src/draw/lv_draw_rect.c ****             sh_ups_blur_buf[y] = v < 0 ? 0 : (v >> SHADOW_UPSCALE_SHIFT);
 267              		.loc 1 1152 32 view .LVU91
 268 00ce 0021     		movs	r1, #0
 269 00d0 10E0     		b	.L16
 270              	.L35:
1153:lvgl/src/draw/lv_draw_rect.c **** 
1154:lvgl/src/draw/lv_draw_rect.c ****             /*Forget the top pixel*/
1155:lvgl/src/draw/lv_draw_rect.c ****             uint32_t top_val;
1156:lvgl/src/draw/lv_draw_rect.c ****             if(y - s_right <= 0) top_val = sh_ups_tmp_buf[0];
 271              		.loc 1 1156 34 is_stmt 1 discriminator 1 view .LVU92
 272              		.loc 1 1156 58 is_stmt 0 discriminator 1 view .LVU93
 273 00d2 BCF80010 		ldrh	r1, [ip]
 274              	.LVL31:
 275              		.loc 1 1156 58 discriminator 1 view .LVU94
 276 00d6 17E0     		b	.L18
 277              	.LVL32:
 278              	.L19:
1157:lvgl/src/draw/lv_draw_rect.c ****             else top_val = sh_ups_buf[(y - s_right) * size + x];
1158:lvgl/src/draw/lv_draw_rect.c ****             v -= top_val;
1159:lvgl/src/draw/lv_draw_rect.c **** 
1160:lvgl/src/draw/lv_draw_rect.c ****             /*Add the bottom pixel*/
1161:lvgl/src/draw/lv_draw_rect.c ****             uint32_t bottom_val;
1162:lvgl/src/draw/lv_draw_rect.c ****             if(y + s_left + 1 < size) bottom_val = sh_ups_buf[(y + s_left + 1) * size + x];
1163:lvgl/src/draw/lv_draw_rect.c ****             else bottom_val = sh_ups_buf[(size - 1) * size + x];
 279              		.loc 1 1163 18 is_stmt 1 view .LVU95
 280              		.loc 1 1163 48 is_stmt 0 view .LVU96
 281 00d8 611E     		subs	r1, r4, #1
 282              		.loc 1 1163 60 view .LVU97
 283 00da 01FB04E1 		mla	r1, r1, r4, lr
 284              		.loc 1 1163 41 view .LVU98
 285 00de 36F81110 		ldrh	r1, [r6, r1, lsl #1]
ARM GAS  /var/folders/k2/cd9bl_j17z77g23y6ffqb_400000gn/T//cc0jKSMI.s 			page 27


 286              	.LVL33:
 287              	.L20:
1164:lvgl/src/draw/lv_draw_rect.c ****             v += bottom_val;
 288              		.loc 1 1164 13 is_stmt 1 discriminator 2 view .LVU99
 289              		.loc 1 1164 15 is_stmt 0 discriminator 2 view .LVU100
 290 00e2 0A44     		add	r2, r2, r1
 291              	.LVL34:
 292              		.loc 1 1164 15 discriminator 2 view .LVU101
 293              	.LBE194:
1151:lvgl/src/draw/lv_draw_rect.c ****             sh_ups_blur_buf[y] = v < 0 ? 0 : (v >> SHADOW_UPSCALE_SHIFT);
 294              		.loc 1 1151 31 is_stmt 1 discriminator 2 view .LVU102
1151:lvgl/src/draw/lv_draw_rect.c ****             sh_ups_blur_buf[y] = v < 0 ? 0 : (v >> SHADOW_UPSCALE_SHIFT);
 295              		.loc 1 1151 32 is_stmt 0 discriminator 2 view .LVU103
 296 00e4 0133     		adds	r3, r3, #1
 297              	.LVL35:
1151:lvgl/src/draw/lv_draw_rect.c ****             sh_ups_blur_buf[y] = v < 0 ? 0 : (v >> SHADOW_UPSCALE_SHIFT);
 298              		.loc 1 1151 51 discriminator 2 view .LVU104
 299 00e6 BC44     		add	ip, ip, r7
 300              	.LVL36:
 301              	.L15:
1151:lvgl/src/draw/lv_draw_rect.c ****             sh_ups_blur_buf[y] = v < 0 ? 0 : (v >> SHADOW_UPSCALE_SHIFT);
 302              		.loc 1 1151 20 is_stmt 1 discriminator 1 view .LVU105
1151:lvgl/src/draw/lv_draw_rect.c ****             sh_ups_blur_buf[y] = v < 0 ? 0 : (v >> SHADOW_UPSCALE_SHIFT);
 303              		.loc 1 1151 9 is_stmt 0 discriminator 1 view .LVU106
 304 00e8 9C42     		cmp	r4, r3
 305 00ea 18DD     		ble	.L34
 306              	.LBB195:
1152:lvgl/src/draw/lv_draw_rect.c **** 
 307              		.loc 1 1152 13 is_stmt 1 view .LVU107
1152:lvgl/src/draw/lv_draw_rect.c **** 
 308              		.loc 1 1152 32 is_stmt 0 view .LVU108
 309 00ec 002A     		cmp	r2, #0
 310 00ee EEDB     		blt	.L27
1152:lvgl/src/draw/lv_draw_rect.c **** 
 311              		.loc 1 1152 32 discriminator 1 view .LVU109
 312 00f0 C2F38F11 		ubfx	r1, r2, #6, #16
 313              	.L16:
1152:lvgl/src/draw/lv_draw_rect.c **** 
 314              		.loc 1 1152 32 discriminator 4 view .LVU110
 315 00f4 25F81310 		strh	r1, [r5, r3, lsl #1]	@ movhi
1155:lvgl/src/draw/lv_draw_rect.c ****             if(y - s_right <= 0) top_val = sh_ups_tmp_buf[0];
 316              		.loc 1 1155 13 is_stmt 1 discriminator 4 view .LVU111
1156:lvgl/src/draw/lv_draw_rect.c ****             else top_val = sh_ups_buf[(y - s_right) * size + x];
 317              		.loc 1 1156 13 discriminator 4 view .LVU112
1156:lvgl/src/draw/lv_draw_rect.c ****             else top_val = sh_ups_buf[(y - s_right) * size + x];
 318              		.loc 1 1156 18 is_stmt 0 discriminator 4 view .LVU113
 319 00f8 A3EB0801 		sub	r1, r3, r8
1156:lvgl/src/draw/lv_draw_rect.c ****             else top_val = sh_ups_buf[(y - s_right) * size + x];
 320              		.loc 1 1156 15 discriminator 4 view .LVU114
 321 00fc 0029     		cmp	r1, #0
 322 00fe E8DD     		ble	.L35
1157:lvgl/src/draw/lv_draw_rect.c ****             v -= top_val;
 323              		.loc 1 1157 18 is_stmt 1 view .LVU115
1157:lvgl/src/draw/lv_draw_rect.c ****             v -= top_val;
 324              		.loc 1 1157 60 is_stmt 0 view .LVU116
 325 0100 01FB04E1 		mla	r1, r1, r4, lr
1157:lvgl/src/draw/lv_draw_rect.c ****             v -= top_val;
ARM GAS  /var/folders/k2/cd9bl_j17z77g23y6ffqb_400000gn/T//cc0jKSMI.s 			page 28


 326              		.loc 1 1157 38 view .LVU117
 327 0104 36F81110 		ldrh	r1, [r6, r1, lsl #1]
 328              	.LVL37:
 329              	.L18:
1158:lvgl/src/draw/lv_draw_rect.c **** 
 330              		.loc 1 1158 13 is_stmt 1 view .LVU118
1158:lvgl/src/draw/lv_draw_rect.c **** 
 331              		.loc 1 1158 15 is_stmt 0 view .LVU119
 332 0108 521A     		subs	r2, r2, r1
 333              	.LVL38:
1161:lvgl/src/draw/lv_draw_rect.c ****             if(y + s_left + 1 < size) bottom_val = sh_ups_buf[(y + s_left + 1) * size + x];
 334              		.loc 1 1161 13 is_stmt 1 view .LVU120
1162:lvgl/src/draw/lv_draw_rect.c ****             else bottom_val = sh_ups_buf[(size - 1) * size + x];
 335              		.loc 1 1162 13 view .LVU121
1162:lvgl/src/draw/lv_draw_rect.c ****             else bottom_val = sh_ups_buf[(size - 1) * size + x];
 336              		.loc 1 1162 18 is_stmt 0 view .LVU122
 337 010a 09EB0301 		add	r1, r9, r3
 338              	.LVL39:
1162:lvgl/src/draw/lv_draw_rect.c ****             else bottom_val = sh_ups_buf[(size - 1) * size + x];
 339              		.loc 1 1162 27 view .LVU123
 340 010e 0131     		adds	r1, r1, #1
1162:lvgl/src/draw/lv_draw_rect.c ****             else bottom_val = sh_ups_buf[(size - 1) * size + x];
 341              		.loc 1 1162 15 view .LVU124
 342 0110 8C42     		cmp	r4, r1
 343 0112 E1DD     		ble	.L19
1162:lvgl/src/draw/lv_draw_rect.c ****             else bottom_val = sh_ups_buf[(size - 1) * size + x];
 344              		.loc 1 1162 39 is_stmt 1 discriminator 1 view .LVU125
1162:lvgl/src/draw/lv_draw_rect.c ****             else bottom_val = sh_ups_buf[(size - 1) * size + x];
 345              		.loc 1 1162 87 is_stmt 0 discriminator 1 view .LVU126
 346 0114 01FB04E1 		mla	r1, r1, r4, lr
1162:lvgl/src/draw/lv_draw_rect.c ****             else bottom_val = sh_ups_buf[(size - 1) * size + x];
 347              		.loc 1 1162 62 discriminator 1 view .LVU127
 348 0118 36F81110 		ldrh	r1, [r6, r1, lsl #1]
 349              	.LVL40:
1162:lvgl/src/draw/lv_draw_rect.c ****             else bottom_val = sh_ups_buf[(size - 1) * size + x];
 350              		.loc 1 1162 62 discriminator 1 view .LVU128
 351 011c E1E7     		b	.L20
 352              	.LVL41:
 353              	.L34:
1162:lvgl/src/draw/lv_draw_rect.c ****             else bottom_val = sh_ups_buf[(size - 1) * size + x];
 354              		.loc 1 1162 62 discriminator 1 view .LVU129
 355              	.LBE195:
1165:lvgl/src/draw/lv_draw_rect.c ****         }
1166:lvgl/src/draw/lv_draw_rect.c **** 
1167:lvgl/src/draw/lv_draw_rect.c ****         /*Write back the result into `sh_ups_buf`*/
1168:lvgl/src/draw/lv_draw_rect.c ****         sh_ups_tmp_buf = &sh_ups_buf[x];
1169:lvgl/src/draw/lv_draw_rect.c ****         for(y = 0; y < size; y++, sh_ups_tmp_buf += size) {
 356              		.loc 1 1169 15 view .LVU130
 357 011e 0023     		movs	r3, #0
 358              	.LVL42:
 359              		.loc 1 1169 15 view .LVU131
 360 0120 04E0     		b	.L22
 361              	.LVL43:
 362              	.L23:
1170:lvgl/src/draw/lv_draw_rect.c ****             (*sh_ups_tmp_buf) = sh_ups_blur_buf[y];
 363              		.loc 1 1170 13 is_stmt 1 discriminator 3 view .LVU132
 364              		.loc 1 1170 48 is_stmt 0 discriminator 3 view .LVU133
ARM GAS  /var/folders/k2/cd9bl_j17z77g23y6ffqb_400000gn/T//cc0jKSMI.s 			page 29


 365 0122 35F81320 		ldrh	r2, [r5, r3, lsl #1]
 366              		.loc 1 1170 31 discriminator 3 view .LVU134
 367 0126 0280     		strh	r2, [r0]	@ movhi
1169:lvgl/src/draw/lv_draw_rect.c ****             (*sh_ups_tmp_buf) = sh_ups_blur_buf[y];
 368              		.loc 1 1169 30 is_stmt 1 discriminator 3 view .LVU135
1169:lvgl/src/draw/lv_draw_rect.c ****             (*sh_ups_tmp_buf) = sh_ups_blur_buf[y];
 369              		.loc 1 1169 31 is_stmt 0 discriminator 3 view .LVU136
 370 0128 0133     		adds	r3, r3, #1
 371              	.LVL44:
1169:lvgl/src/draw/lv_draw_rect.c ****             (*sh_ups_tmp_buf) = sh_ups_blur_buf[y];
 372              		.loc 1 1169 50 discriminator 3 view .LVU137
 373 012a 3844     		add	r0, r0, r7
 374              	.LVL45:
 375              	.L22:
1169:lvgl/src/draw/lv_draw_rect.c ****             (*sh_ups_tmp_buf) = sh_ups_blur_buf[y];
 376              		.loc 1 1169 20 is_stmt 1 discriminator 1 view .LVU138
1169:lvgl/src/draw/lv_draw_rect.c ****             (*sh_ups_tmp_buf) = sh_ups_blur_buf[y];
 377              		.loc 1 1169 9 is_stmt 0 discriminator 1 view .LVU139
 378 012c 9C42     		cmp	r4, r3
 379 012e F8DC     		bgt	.L23
 380              	.LBE193:
1148:lvgl/src/draw/lv_draw_rect.c ****         sh_ups_tmp_buf = &sh_ups_buf[x];
 381              		.loc 1 1148 26 is_stmt 1 discriminator 2 view .LVU140
1148:lvgl/src/draw/lv_draw_rect.c ****         sh_ups_tmp_buf = &sh_ups_buf[x];
 382              		.loc 1 1148 27 is_stmt 0 discriminator 2 view .LVU141
 383 0130 0EF1010E 		add	lr, lr, #1
 384              	.LVL46:
 385              	.L14:
1148:lvgl/src/draw/lv_draw_rect.c ****         sh_ups_tmp_buf = &sh_ups_buf[x];
 386              		.loc 1 1148 16 is_stmt 1 discriminator 1 view .LVU142
1148:lvgl/src/draw/lv_draw_rect.c ****         sh_ups_tmp_buf = &sh_ups_buf[x];
 387              		.loc 1 1148 5 is_stmt 0 discriminator 1 view .LVU143
 388 0134 7445     		cmp	r4, lr
 389 0136 09DD     		ble	.L36
 390              	.LBB196:
1149:lvgl/src/draw/lv_draw_rect.c ****         int32_t v = sh_ups_tmp_buf[0] * sw;
 391              		.loc 1 1149 9 is_stmt 1 view .LVU144
1149:lvgl/src/draw/lv_draw_rect.c ****         int32_t v = sh_ups_tmp_buf[0] * sw;
 392              		.loc 1 1149 24 is_stmt 0 view .LVU145
 393 0138 06EB4E00 		add	r0, r6, lr, lsl #1
 394              	.LVL47:
1150:lvgl/src/draw/lv_draw_rect.c ****         for(y = 0; y < size ; y++, sh_ups_tmp_buf += size) {
 395              		.loc 1 1150 9 is_stmt 1 view .LVU146
1150:lvgl/src/draw/lv_draw_rect.c ****         for(y = 0; y < size ; y++, sh_ups_tmp_buf += size) {
 396              		.loc 1 1150 35 is_stmt 0 view .LVU147
 397 013c 36F81E20 		ldrh	r2, [r6, lr, lsl #1]
1150:lvgl/src/draw/lv_draw_rect.c ****         for(y = 0; y < size ; y++, sh_ups_tmp_buf += size) {
 398              		.loc 1 1150 17 view .LVU148
 399 0140 019B     		ldr	r3, [sp, #4]
 400 0142 03FB02F2 		mul	r2, r3, r2
 401              	.LVL48:
1151:lvgl/src/draw/lv_draw_rect.c ****             sh_ups_blur_buf[y] = v < 0 ? 0 : (v >> SHADOW_UPSCALE_SHIFT);
 402              		.loc 1 1151 9 is_stmt 1 view .LVU149
1149:lvgl/src/draw/lv_draw_rect.c ****         int32_t v = sh_ups_tmp_buf[0] * sw;
 403              		.loc 1 1149 24 is_stmt 0 view .LVU150
 404 0146 8446     		mov	ip, r0
1151:lvgl/src/draw/lv_draw_rect.c ****             sh_ups_blur_buf[y] = v < 0 ? 0 : (v >> SHADOW_UPSCALE_SHIFT);
ARM GAS  /var/folders/k2/cd9bl_j17z77g23y6ffqb_400000gn/T//cc0jKSMI.s 			page 30


 405              		.loc 1 1151 15 view .LVU151
 406 0148 0023     		movs	r3, #0
1151:lvgl/src/draw/lv_draw_rect.c ****             sh_ups_blur_buf[y] = v < 0 ? 0 : (v >> SHADOW_UPSCALE_SHIFT);
 407              		.loc 1 1151 9 view .LVU152
 408 014a CDE7     		b	.L15
 409              	.LVL49:
 410              	.L36:
1151:lvgl/src/draw/lv_draw_rect.c ****             sh_ups_blur_buf[y] = v < 0 ? 0 : (v >> SHADOW_UPSCALE_SHIFT);
 411              		.loc 1 1151 9 view .LVU153
 412              	.LBE196:
1171:lvgl/src/draw/lv_draw_rect.c ****         }
1172:lvgl/src/draw/lv_draw_rect.c ****     }
1173:lvgl/src/draw/lv_draw_rect.c **** 
1174:lvgl/src/draw/lv_draw_rect.c ****     lv_mem_buf_release(sh_ups_blur_buf);
 413              		.loc 1 1174 5 is_stmt 1 view .LVU154
 414 014c 2846     		mov	r0, r5
 415 014e FFF7FEFF 		bl	lv_mem_buf_release
 416              	.LVL50:
1175:lvgl/src/draw/lv_draw_rect.c **** }
 417              		.loc 1 1175 1 is_stmt 0 view .LVU155
 418 0152 03B0     		add	sp, sp, #12
 419              	.LCFI2:
 420              		.cfi_def_cfa_offset 36
 421              		@ sp needed
 422 0154 BDE8F08F 		pop	{r4, r5, r6, r7, r8, r9, r10, fp, pc}
 423              		.loc 1 1175 1 view .LVU156
 424              		.cfi_endproc
 425              	.LFE155:
 427              		.section	.text.shadow_draw_corner_buf,"ax",%progbits
 428              		.align	1
 429              		.syntax unified
 430              		.thumb
 431              		.thumb_func
 432              		.fpu fpv4-sp-d16
 434              	shadow_draw_corner_buf:
 435              	.LVL51:
 436              	.LFB154:
1024:lvgl/src/draw/lv_draw_rect.c ****     int32_t sw_ori = sw;
 437              		.loc 1 1024 1 is_stmt 1 view -0
 438              		.cfi_startproc
 439              		@ args = 0, pretend = 0, frame = 40
 440              		@ frame_needed = 0, uses_anonymous_args = 0
1024:lvgl/src/draw/lv_draw_rect.c ****     int32_t sw_ori = sw;
 441              		.loc 1 1024 1 is_stmt 0 view .LVU158
 442 0000 2DE9F04F 		push	{r4, r5, r6, r7, r8, r9, r10, fp, lr}
 443              	.LCFI3:
 444              		.cfi_def_cfa_offset 36
 445              		.cfi_offset 4, -36
 446              		.cfi_offset 5, -32
 447              		.cfi_offset 6, -28
 448              		.cfi_offset 7, -24
 449              		.cfi_offset 8, -20
 450              		.cfi_offset 9, -16
 451              		.cfi_offset 10, -12
 452              		.cfi_offset 11, -8
 453              		.cfi_offset 14, -4
 454 0004 8DB0     		sub	sp, sp, #52
ARM GAS  /var/folders/k2/cd9bl_j17z77g23y6ffqb_400000gn/T//cc0jKSMI.s 			page 31


 455              	.LCFI4:
 456              		.cfi_def_cfa_offset 88
 457 0006 8846     		mov	r8, r1
 458 0008 9146     		mov	r9, r2
 459 000a 1A46     		mov	r2, r3
 460              	.LVL52:
1025:lvgl/src/draw/lv_draw_rect.c ****     int32_t size = sw_ori  + r;
 461              		.loc 1 1025 5 is_stmt 1 view .LVU159
1026:lvgl/src/draw/lv_draw_rect.c **** 
 462              		.loc 1 1026 5 view .LVU160
1026:lvgl/src/draw/lv_draw_rect.c **** 
 463              		.loc 1 1026 13 is_stmt 0 view .LVU161
 464 000c 03EB0904 		add	r4, r3, r9
 465              	.LVL53:
1028:lvgl/src/draw/lv_draw_rect.c ****     lv_area_copy(&sh_area, coords);
 466              		.loc 1 1028 5 is_stmt 1 view .LVU162
1029:lvgl/src/draw/lv_draw_rect.c ****     sh_area.x2 = sw / 2 + r - 1  - ((sw & 1) ? 0 : 1);
 467              		.loc 1 1029 5 view .LVU163
 468              	.LBB197:
 469              	.LBI197:
 470              		.file 2 "lvgl/src/draw/../misc/lv_area.h"
   1:lvgl/src/draw/../misc/lv_area.h **** /**
   2:lvgl/src/draw/../misc/lv_area.h ****  * @file lv_area.h
   3:lvgl/src/draw/../misc/lv_area.h ****  *
   4:lvgl/src/draw/../misc/lv_area.h ****  */
   5:lvgl/src/draw/../misc/lv_area.h **** 
   6:lvgl/src/draw/../misc/lv_area.h **** #ifndef LV_AREA_H
   7:lvgl/src/draw/../misc/lv_area.h **** #define LV_AREA_H
   8:lvgl/src/draw/../misc/lv_area.h **** 
   9:lvgl/src/draw/../misc/lv_area.h **** #ifdef __cplusplus
  10:lvgl/src/draw/../misc/lv_area.h **** extern "C" {
  11:lvgl/src/draw/../misc/lv_area.h **** #endif
  12:lvgl/src/draw/../misc/lv_area.h **** 
  13:lvgl/src/draw/../misc/lv_area.h **** /*********************
  14:lvgl/src/draw/../misc/lv_area.h ****  *      INCLUDES
  15:lvgl/src/draw/../misc/lv_area.h ****  *********************/
  16:lvgl/src/draw/../misc/lv_area.h **** #include "../lv_conf_internal.h"
  17:lvgl/src/draw/../misc/lv_area.h **** #include <string.h>
  18:lvgl/src/draw/../misc/lv_area.h **** #include <stdbool.h>
  19:lvgl/src/draw/../misc/lv_area.h **** #include <stdint.h>
  20:lvgl/src/draw/../misc/lv_area.h **** 
  21:lvgl/src/draw/../misc/lv_area.h **** /*********************
  22:lvgl/src/draw/../misc/lv_area.h ****  *      DEFINES
  23:lvgl/src/draw/../misc/lv_area.h ****  *********************/
  24:lvgl/src/draw/../misc/lv_area.h **** 
  25:lvgl/src/draw/../misc/lv_area.h **** #define _LV_COORD_MAX_REDUCE    8192
  26:lvgl/src/draw/../misc/lv_area.h **** 
  27:lvgl/src/draw/../misc/lv_area.h **** #if LV_USE_LARGE_COORD
  28:lvgl/src/draw/../misc/lv_area.h **** typedef int32_t lv_coord_t;
  29:lvgl/src/draw/../misc/lv_area.h **** #else
  30:lvgl/src/draw/../misc/lv_area.h **** typedef int16_t lv_coord_t;
  31:lvgl/src/draw/../misc/lv_area.h **** #endif
  32:lvgl/src/draw/../misc/lv_area.h **** 
  33:lvgl/src/draw/../misc/lv_area.h **** /*To allow some special values in the end reduce the max value*/
  34:lvgl/src/draw/../misc/lv_area.h **** #define LV_COORD_MAX ((lv_coord_t)((uint32_t)((uint32_t)1 << (8 * sizeof(lv_coord_t) - 1)) - _LV_CO
  35:lvgl/src/draw/../misc/lv_area.h **** #define LV_COORD_MIN (-LV_COORD_MAX)
  36:lvgl/src/draw/../misc/lv_area.h **** 
ARM GAS  /var/folders/k2/cd9bl_j17z77g23y6ffqb_400000gn/T//cc0jKSMI.s 			page 32


  37:lvgl/src/draw/../misc/lv_area.h **** LV_EXPORT_CONST_INT(LV_COORD_MAX);
  38:lvgl/src/draw/../misc/lv_area.h **** LV_EXPORT_CONST_INT(LV_COORD_MIN);
  39:lvgl/src/draw/../misc/lv_area.h **** 
  40:lvgl/src/draw/../misc/lv_area.h **** /**********************
  41:lvgl/src/draw/../misc/lv_area.h ****  *      TYPEDEFS
  42:lvgl/src/draw/../misc/lv_area.h ****  **********************/
  43:lvgl/src/draw/../misc/lv_area.h **** 
  44:lvgl/src/draw/../misc/lv_area.h **** /**
  45:lvgl/src/draw/../misc/lv_area.h ****  * Represents a point on the screen.
  46:lvgl/src/draw/../misc/lv_area.h ****  */
  47:lvgl/src/draw/../misc/lv_area.h **** typedef struct {
  48:lvgl/src/draw/../misc/lv_area.h ****     lv_coord_t x;
  49:lvgl/src/draw/../misc/lv_area.h ****     lv_coord_t y;
  50:lvgl/src/draw/../misc/lv_area.h **** } lv_point_t;
  51:lvgl/src/draw/../misc/lv_area.h **** 
  52:lvgl/src/draw/../misc/lv_area.h **** /** Represents an area of the screen.*/
  53:lvgl/src/draw/../misc/lv_area.h **** typedef struct {
  54:lvgl/src/draw/../misc/lv_area.h ****     lv_coord_t x1;
  55:lvgl/src/draw/../misc/lv_area.h ****     lv_coord_t y1;
  56:lvgl/src/draw/../misc/lv_area.h ****     lv_coord_t x2;
  57:lvgl/src/draw/../misc/lv_area.h ****     lv_coord_t y2;
  58:lvgl/src/draw/../misc/lv_area.h **** } lv_area_t;
  59:lvgl/src/draw/../misc/lv_area.h **** 
  60:lvgl/src/draw/../misc/lv_area.h **** /** Alignments*/
  61:lvgl/src/draw/../misc/lv_area.h **** enum {
  62:lvgl/src/draw/../misc/lv_area.h ****     LV_ALIGN_DEFAULT = 0,
  63:lvgl/src/draw/../misc/lv_area.h ****     LV_ALIGN_TOP_LEFT,
  64:lvgl/src/draw/../misc/lv_area.h ****     LV_ALIGN_TOP_MID,
  65:lvgl/src/draw/../misc/lv_area.h ****     LV_ALIGN_TOP_RIGHT,
  66:lvgl/src/draw/../misc/lv_area.h ****     LV_ALIGN_BOTTOM_LEFT,
  67:lvgl/src/draw/../misc/lv_area.h ****     LV_ALIGN_BOTTOM_MID,
  68:lvgl/src/draw/../misc/lv_area.h ****     LV_ALIGN_BOTTOM_RIGHT,
  69:lvgl/src/draw/../misc/lv_area.h ****     LV_ALIGN_LEFT_MID,
  70:lvgl/src/draw/../misc/lv_area.h ****     LV_ALIGN_RIGHT_MID,
  71:lvgl/src/draw/../misc/lv_area.h ****     LV_ALIGN_CENTER,
  72:lvgl/src/draw/../misc/lv_area.h **** 
  73:lvgl/src/draw/../misc/lv_area.h ****     LV_ALIGN_OUT_TOP_LEFT,
  74:lvgl/src/draw/../misc/lv_area.h ****     LV_ALIGN_OUT_TOP_MID,
  75:lvgl/src/draw/../misc/lv_area.h ****     LV_ALIGN_OUT_TOP_RIGHT,
  76:lvgl/src/draw/../misc/lv_area.h ****     LV_ALIGN_OUT_BOTTOM_LEFT,
  77:lvgl/src/draw/../misc/lv_area.h ****     LV_ALIGN_OUT_BOTTOM_MID,
  78:lvgl/src/draw/../misc/lv_area.h ****     LV_ALIGN_OUT_BOTTOM_RIGHT,
  79:lvgl/src/draw/../misc/lv_area.h ****     LV_ALIGN_OUT_LEFT_TOP,
  80:lvgl/src/draw/../misc/lv_area.h ****     LV_ALIGN_OUT_LEFT_MID,
  81:lvgl/src/draw/../misc/lv_area.h ****     LV_ALIGN_OUT_LEFT_BOTTOM,
  82:lvgl/src/draw/../misc/lv_area.h ****     LV_ALIGN_OUT_RIGHT_TOP,
  83:lvgl/src/draw/../misc/lv_area.h ****     LV_ALIGN_OUT_RIGHT_MID,
  84:lvgl/src/draw/../misc/lv_area.h ****     LV_ALIGN_OUT_RIGHT_BOTTOM,
  85:lvgl/src/draw/../misc/lv_area.h **** };
  86:lvgl/src/draw/../misc/lv_area.h **** typedef uint8_t lv_align_t;
  87:lvgl/src/draw/../misc/lv_area.h **** 
  88:lvgl/src/draw/../misc/lv_area.h **** enum {
  89:lvgl/src/draw/../misc/lv_area.h ****     LV_DIR_NONE     = 0x00,
  90:lvgl/src/draw/../misc/lv_area.h ****     LV_DIR_LEFT     = (1 << 0),
  91:lvgl/src/draw/../misc/lv_area.h ****     LV_DIR_RIGHT    = (1 << 1),
  92:lvgl/src/draw/../misc/lv_area.h ****     LV_DIR_TOP      = (1 << 2),
  93:lvgl/src/draw/../misc/lv_area.h ****     LV_DIR_BOTTOM   = (1 << 3),
ARM GAS  /var/folders/k2/cd9bl_j17z77g23y6ffqb_400000gn/T//cc0jKSMI.s 			page 33


  94:lvgl/src/draw/../misc/lv_area.h ****     LV_DIR_HOR      = LV_DIR_LEFT | LV_DIR_RIGHT,
  95:lvgl/src/draw/../misc/lv_area.h ****     LV_DIR_VER      = LV_DIR_TOP | LV_DIR_BOTTOM,
  96:lvgl/src/draw/../misc/lv_area.h ****     LV_DIR_ALL      = LV_DIR_HOR | LV_DIR_VER,
  97:lvgl/src/draw/../misc/lv_area.h **** };
  98:lvgl/src/draw/../misc/lv_area.h **** 
  99:lvgl/src/draw/../misc/lv_area.h **** typedef uint8_t lv_dir_t;
 100:lvgl/src/draw/../misc/lv_area.h **** 
 101:lvgl/src/draw/../misc/lv_area.h **** /**********************
 102:lvgl/src/draw/../misc/lv_area.h ****  * GLOBAL PROTOTYPES
 103:lvgl/src/draw/../misc/lv_area.h ****  **********************/
 104:lvgl/src/draw/../misc/lv_area.h **** 
 105:lvgl/src/draw/../misc/lv_area.h **** /**
 106:lvgl/src/draw/../misc/lv_area.h ****  * Initialize an area
 107:lvgl/src/draw/../misc/lv_area.h ****  * @param area_p pointer to an area
 108:lvgl/src/draw/../misc/lv_area.h ****  * @param x1 left coordinate of the area
 109:lvgl/src/draw/../misc/lv_area.h ****  * @param y1 top coordinate of the area
 110:lvgl/src/draw/../misc/lv_area.h ****  * @param x2 right coordinate of the area
 111:lvgl/src/draw/../misc/lv_area.h ****  * @param y2 bottom coordinate of the area
 112:lvgl/src/draw/../misc/lv_area.h ****  */
 113:lvgl/src/draw/../misc/lv_area.h **** void lv_area_set(lv_area_t * area_p, lv_coord_t x1, lv_coord_t y1, lv_coord_t x2, lv_coord_t y2);
 114:lvgl/src/draw/../misc/lv_area.h **** 
 115:lvgl/src/draw/../misc/lv_area.h **** /**
 116:lvgl/src/draw/../misc/lv_area.h ****  * Copy an area
 117:lvgl/src/draw/../misc/lv_area.h ****  * @param dest pointer to the destination area
 118:lvgl/src/draw/../misc/lv_area.h ****  * @param src pointer to the source area
 119:lvgl/src/draw/../misc/lv_area.h ****  */
 120:lvgl/src/draw/../misc/lv_area.h **** inline static void lv_area_copy(lv_area_t * dest, const lv_area_t * src)
 471              		.loc 2 120 20 view .LVU164
 472              	.LBB198:
 121:lvgl/src/draw/../misc/lv_area.h **** {
 122:lvgl/src/draw/../misc/lv_area.h ****     dest->x1 = src->x1;
 473              		.loc 2 122 5 view .LVU165
 474              		.loc 2 122 19 is_stmt 0 view .LVU166
 475 0010 B0F90030 		ldrsh	r3, [r0]
 476              	.LVL54:
 477              		.loc 2 122 14 view .LVU167
 478 0014 ADF82830 		strh	r3, [sp, #40]	@ movhi
 123:lvgl/src/draw/../misc/lv_area.h ****     dest->y1 = src->y1;
 479              		.loc 2 123 5 is_stmt 1 view .LVU168
 480              		.loc 2 123 19 is_stmt 0 view .LVU169
 481 0018 B0F90230 		ldrsh	r3, [r0, #2]
 482              		.loc 2 123 14 view .LVU170
 483 001c ADF82A30 		strh	r3, [sp, #42]	@ movhi
 124:lvgl/src/draw/../misc/lv_area.h ****     dest->x2 = src->x2;
 484              		.loc 2 124 5 is_stmt 1 view .LVU171
 485              		.loc 2 124 19 is_stmt 0 view .LVU172
 486 0020 B0F90430 		ldrsh	r3, [r0, #4]
 487              		.loc 2 124 14 view .LVU173
 488 0024 ADF82C30 		strh	r3, [sp, #44]	@ movhi
 125:lvgl/src/draw/../misc/lv_area.h ****     dest->y2 = src->y2;
 489              		.loc 2 125 5 is_stmt 1 view .LVU174
 490              		.loc 2 125 19 is_stmt 0 view .LVU175
 491 0028 B0F90630 		ldrsh	r3, [r0, #6]
 492              		.loc 2 125 14 view .LVU176
 493 002c ADF82E30 		strh	r3, [sp, #46]	@ movhi
 494              	.LVL55:
 495              		.loc 2 125 14 view .LVU177
ARM GAS  /var/folders/k2/cd9bl_j17z77g23y6ffqb_400000gn/T//cc0jKSMI.s 			page 34


 496              	.LBE198:
 497              	.LBE197:
1030:lvgl/src/draw/lv_draw_rect.c ****     sh_area.y1 = sw / 2 + 1;
 498              		.loc 1 1030 5 is_stmt 1 view .LVU178
1030:lvgl/src/draw/lv_draw_rect.c ****     sh_area.y1 = sw / 2 + 1;
 499              		.loc 1 1030 25 is_stmt 0 view .LVU179
 500 0030 09EBD971 		add	r1, r9, r9, lsr #31
 501              	.LVL56:
1030:lvgl/src/draw/lv_draw_rect.c ****     sh_area.y1 = sw / 2 + 1;
 502              		.loc 1 1030 25 view .LVU180
 503 0034 C1F34F01 		ubfx	r1, r1, #1, #16
 504 0038 8B18     		adds	r3, r1, r2
 505 003a 9BB2     		uxth	r3, r3
1030:lvgl/src/draw/lv_draw_rect.c ****     sh_area.y1 = sw / 2 + 1;
 506              		.loc 1 1030 50 view .LVU181
 507 003c 19F0010A 		ands	r10, r9, #1
 508 0040 0CBF     		ite	eq
 509 0042 0125     		moveq	r5, #1
 510 0044 0025     		movne	r5, #0
1030:lvgl/src/draw/lv_draw_rect.c ****     sh_area.y1 = sw / 2 + 1;
 511              		.loc 1 1030 34 view .LVU182
 512 0046 5B1B     		subs	r3, r3, r5
 513 0048 013B     		subs	r3, r3, #1
 514 004a 9EB2     		uxth	r6, r3
1030:lvgl/src/draw/lv_draw_rect.c ****     sh_area.y1 = sw / 2 + 1;
 515              		.loc 1 1030 16 view .LVU183
 516 004c ADF82C30 		strh	r3, [sp, #44]	@ movhi
1031:lvgl/src/draw/lv_draw_rect.c **** 
 517              		.loc 1 1031 5 is_stmt 1 view .LVU184
1031:lvgl/src/draw/lv_draw_rect.c **** 
 518              		.loc 1 1031 25 is_stmt 0 view .LVU185
 519 0050 0131     		adds	r1, r1, #1
1031:lvgl/src/draw/lv_draw_rect.c **** 
 520              		.loc 1 1031 16 view .LVU186
 521 0052 ADF82A10 		strh	r1, [sp, #42]	@ movhi
1033:lvgl/src/draw/lv_draw_rect.c ****     sh_area.y2 = sh_area.y1 + lv_area_get_height(coords);
 522              		.loc 1 1033 5 is_stmt 1 view .LVU187
 523              	.LVL57:
 524              	.LBB199:
 525              	.LBI199:
 126:lvgl/src/draw/../misc/lv_area.h **** }
 127:lvgl/src/draw/../misc/lv_area.h **** 
 128:lvgl/src/draw/../misc/lv_area.h **** /**
 129:lvgl/src/draw/../misc/lv_area.h ****  * Get the width of an area
 130:lvgl/src/draw/../misc/lv_area.h ****  * @param area_p pointer to an area
 131:lvgl/src/draw/../misc/lv_area.h ****  * @return the width of the area (if x1 == x2 -> width = 1)
 132:lvgl/src/draw/../misc/lv_area.h ****  */
 133:lvgl/src/draw/../misc/lv_area.h **** static inline lv_coord_t lv_area_get_width(const lv_area_t * area_p)
 526              		.loc 2 133 26 view .LVU188
 527              	.LBB200:
 134:lvgl/src/draw/../misc/lv_area.h **** {
 135:lvgl/src/draw/../misc/lv_area.h ****     return (lv_coord_t)(area_p->x2 - area_p->x1 + 1);
 528              		.loc 2 135 5 view .LVU189
 529              		.loc 2 135 31 is_stmt 0 view .LVU190
 530 0056 8588     		ldrh	r5, [r0, #4]
 531              		.loc 2 135 44 view .LVU191
 532 0058 0388     		ldrh	r3, [r0]
ARM GAS  /var/folders/k2/cd9bl_j17z77g23y6ffqb_400000gn/T//cc0jKSMI.s 			page 35


 533              		.loc 2 135 36 view .LVU192
 534 005a ED1A     		subs	r5, r5, r3
 535 005c ADB2     		uxth	r5, r5
 536              		.loc 2 135 49 view .LVU193
 537 005e 0135     		adds	r5, r5, #1
 538 0060 ADB2     		uxth	r5, r5
 539              	.LVL58:
 540              		.loc 2 135 49 view .LVU194
 541              	.LBE200:
 542              	.LBE199:
1033:lvgl/src/draw/lv_draw_rect.c ****     sh_area.y2 = sh_area.y1 + lv_area_get_height(coords);
 543              		.loc 1 1033 29 view .LVU195
 544 0062 751B     		subs	r5, r6, r5
1033:lvgl/src/draw/lv_draw_rect.c ****     sh_area.y2 = sh_area.y1 + lv_area_get_height(coords);
 545              		.loc 1 1033 16 view .LVU196
 546 0064 ADF82850 		strh	r5, [sp, #40]	@ movhi
1034:lvgl/src/draw/lv_draw_rect.c **** 
 547              		.loc 1 1034 5 is_stmt 1 view .LVU197
 548              	.LVL59:
 549              	.LBB201:
 550              	.LBI201:
 136:lvgl/src/draw/../misc/lv_area.h **** }
 137:lvgl/src/draw/../misc/lv_area.h **** 
 138:lvgl/src/draw/../misc/lv_area.h **** /**
 139:lvgl/src/draw/../misc/lv_area.h ****  * Get the height of an area
 140:lvgl/src/draw/../misc/lv_area.h ****  * @param area_p pointer to an area
 141:lvgl/src/draw/../misc/lv_area.h ****  * @return the height of the area (if y1 == y2 -> height = 1)
 142:lvgl/src/draw/../misc/lv_area.h ****  */
 143:lvgl/src/draw/../misc/lv_area.h **** static inline lv_coord_t lv_area_get_height(const lv_area_t * area_p)
 551              		.loc 2 143 26 view .LVU198
 552              	.LBB202:
 144:lvgl/src/draw/../misc/lv_area.h **** {
 145:lvgl/src/draw/../misc/lv_area.h ****     return (lv_coord_t)(area_p->y2 - area_p->y1 + 1);
 553              		.loc 2 145 5 view .LVU199
 554              		.loc 2 145 31 is_stmt 0 view .LVU200
 555 0068 C588     		ldrh	r5, [r0, #6]
 556              		.loc 2 145 44 view .LVU201
 557 006a 4088     		ldrh	r0, [r0, #2]
 558              	.LVL60:
 559              		.loc 2 145 36 view .LVU202
 560 006c 281A     		subs	r0, r5, r0
 561 006e 80B2     		uxth	r0, r0
 562              		.loc 2 145 49 view .LVU203
 563 0070 0130     		adds	r0, r0, #1
 564 0072 80B2     		uxth	r0, r0
 565              	.LVL61:
 566              		.loc 2 145 49 view .LVU204
 567              	.LBE202:
 568              	.LBE201:
1034:lvgl/src/draw/lv_draw_rect.c **** 
 569              		.loc 1 1034 29 view .LVU205
 570 0074 10FA81F1 		uxtah	r1, r0, r1
1034:lvgl/src/draw/lv_draw_rect.c **** 
 571              		.loc 1 1034 16 view .LVU206
 572 0078 ADF82E10 		strh	r1, [sp, #46]	@ movhi
1036:lvgl/src/draw/lv_draw_rect.c ****     lv_draw_mask_radius_init(&mask_param, &sh_area, r, false);
 573              		.loc 1 1036 5 is_stmt 1 view .LVU207
ARM GAS  /var/folders/k2/cd9bl_j17z77g23y6ffqb_400000gn/T//cc0jKSMI.s 			page 36


1037:lvgl/src/draw/lv_draw_rect.c **** 
 574              		.loc 1 1037 5 view .LVU208
 575 007c 0023     		movs	r3, #0
 576 007e 0AA9     		add	r1, sp, #40
 577 0080 03A8     		add	r0, sp, #12
 578 0082 FFF7FEFF 		bl	lv_draw_mask_radius_init
 579              	.LVL62:
1041:lvgl/src/draw/lv_draw_rect.c ****     else sw = sw_ori >> 1;
 580              		.loc 1 1041 5 view .LVU209
1041:lvgl/src/draw/lv_draw_rect.c ****     else sw = sw_ori >> 1;
 581              		.loc 1 1041 7 is_stmt 0 view .LVU210
 582 0086 B9F1010F 		cmp	r9, #1
 583 008a 09D0     		beq	.L58
1042:lvgl/src/draw/lv_draw_rect.c **** #endif
 584              		.loc 1 1042 10 is_stmt 1 view .LVU211
1042:lvgl/src/draw/lv_draw_rect.c **** #endif
 585              		.loc 1 1042 13 is_stmt 0 view .LVU212
 586 008c 4FEA6909 		asr	r9, r9, #1
 587              	.LVL63:
 588              	.L38:
1045:lvgl/src/draw/lv_draw_rect.c ****     lv_opa_t * mask_line = lv_mem_buf_get(size);
 589              		.loc 1 1045 5 is_stmt 1 view .LVU213
1046:lvgl/src/draw/lv_draw_rect.c ****     uint16_t * sh_ups_tmp_buf = (uint16_t *)sh_buf;
 590              		.loc 1 1046 5 view .LVU214
1046:lvgl/src/draw/lv_draw_rect.c ****     uint16_t * sh_ups_tmp_buf = (uint16_t *)sh_buf;
 591              		.loc 1 1046 28 is_stmt 0 view .LVU215
 592 0090 2046     		mov	r0, r4
 593 0092 FFF7FEFF 		bl	lv_mem_buf_get
 594              	.LVL64:
 595 0096 0546     		mov	r5, r0
 596              	.LVL65:
1047:lvgl/src/draw/lv_draw_rect.c ****     for(y = 0; y < size; y++) {
 597              		.loc 1 1047 5 is_stmt 1 view .LVU216
1048:lvgl/src/draw/lv_draw_rect.c ****         lv_memset_ff(mask_line, size);
 598              		.loc 1 1048 5 view .LVU217
1047:lvgl/src/draw/lv_draw_rect.c ****     for(y = 0; y < size; y++) {
 599              		.loc 1 1047 16 is_stmt 0 view .LVU218
 600 0098 4646     		mov	r6, r8
1048:lvgl/src/draw/lv_draw_rect.c ****         lv_memset_ff(mask_line, size);
 601              		.loc 1 1048 11 view .LVU219
 602 009a 4FF0000B 		mov	fp, #0
1048:lvgl/src/draw/lv_draw_rect.c ****         lv_memset_ff(mask_line, size);
 603              		.loc 1 1048 5 view .LVU220
 604 009e 24E0     		b	.L39
 605              	.LVL66:
 606              	.L58:
1041:lvgl/src/draw/lv_draw_rect.c ****     else sw = sw_ori >> 1;
 607              		.loc 1 1041 24 view .LVU221
 608 00a0 4FF00109 		mov	r9, #1
 609              	.LVL67:
1041:lvgl/src/draw/lv_draw_rect.c ****     else sw = sw_ori >> 1;
 610              		.loc 1 1041 24 view .LVU222
 611 00a4 F4E7     		b	.L38
 612              	.LVL68:
 613              	.L40:
 614              	.LBB203:
 615              	.LBB204:
ARM GAS  /var/folders/k2/cd9bl_j17z77g23y6ffqb_400000gn/T//cc0jKSMI.s 			page 37


1055:lvgl/src/draw/lv_draw_rect.c ****             sh_ups_tmp_buf[0] = (mask_line[0] << SHADOW_UPSCALE_SHIFT) / sw;
 616              		.loc 1 1055 13 is_stmt 1 view .LVU223
1056:lvgl/src/draw/lv_draw_rect.c ****             for(i = 1; i < size; i++) {
 617              		.loc 1 1056 13 view .LVU224
1056:lvgl/src/draw/lv_draw_rect.c ****             for(i = 1; i < size; i++) {
 618              		.loc 1 1056 43 is_stmt 0 view .LVU225
 619 00a6 2B78     		ldrb	r3, [r5]	@ zero_extendqisi2
1056:lvgl/src/draw/lv_draw_rect.c ****             for(i = 1; i < size; i++) {
 620              		.loc 1 1056 47 view .LVU226
 621 00a8 9B01     		lsls	r3, r3, #6
1056:lvgl/src/draw/lv_draw_rect.c ****             for(i = 1; i < size; i++) {
 622              		.loc 1 1056 72 view .LVU227
 623 00aa 4846     		mov	r0, r9
 624              	.LVL69:
1056:lvgl/src/draw/lv_draw_rect.c ****             for(i = 1; i < size; i++) {
 625              		.loc 1 1056 72 view .LVU228
 626 00ac 93FBF9F3 		sdiv	r3, r3, r9
1056:lvgl/src/draw/lv_draw_rect.c ****             for(i = 1; i < size; i++) {
 627              		.loc 1 1056 31 view .LVU229
 628 00b0 3380     		strh	r3, [r6]	@ movhi
1057:lvgl/src/draw/lv_draw_rect.c ****                 if(mask_line[i] == mask_line[i - 1]) sh_ups_tmp_buf[i] = sh_ups_tmp_buf[i - 1];
 629              		.loc 1 1057 13 is_stmt 1 view .LVU230
 630              	.LVL70:
1057:lvgl/src/draw/lv_draw_rect.c ****                 if(mask_line[i] == mask_line[i - 1]) sh_ups_tmp_buf[i] = sh_ups_tmp_buf[i - 1];
 631              		.loc 1 1057 19 is_stmt 0 view .LVU231
 632 00b2 0123     		movs	r3, #1
1057:lvgl/src/draw/lv_draw_rect.c ****                 if(mask_line[i] == mask_line[i - 1]) sh_ups_tmp_buf[i] = sh_ups_tmp_buf[i - 1];
 633              		.loc 1 1057 13 view .LVU232
 634 00b4 07E0     		b	.L42
 635              	.LVL71:
 636              	.L62:
1058:lvgl/src/draw/lv_draw_rect.c ****                 else  sh_ups_tmp_buf[i] = (mask_line[i] << SHADOW_UPSCALE_SHIFT) / sw;
 637              		.loc 1 1058 54 is_stmt 1 discriminator 1 view .LVU233
1058:lvgl/src/draw/lv_draw_rect.c ****                 else  sh_ups_tmp_buf[i] = (mask_line[i] << SHADOW_UPSCALE_SHIFT) / sw;
 638              		.loc 1 1058 88 is_stmt 0 discriminator 1 view .LVU234
 639 00b6 03F10042 		add	r2, r3, #-2147483648
 640 00ba 013A     		subs	r2, r2, #1
 641 00bc 36F81220 		ldrh	r2, [r6, r2, lsl #1]
1058:lvgl/src/draw/lv_draw_rect.c ****                 else  sh_ups_tmp_buf[i] = (mask_line[i] << SHADOW_UPSCALE_SHIFT) / sw;
 642              		.loc 1 1058 72 discriminator 1 view .LVU235
 643 00c0 26F81320 		strh	r2, [r6, r3, lsl #1]	@ movhi
 644              	.L44:
1057:lvgl/src/draw/lv_draw_rect.c ****                 if(mask_line[i] == mask_line[i - 1]) sh_ups_tmp_buf[i] = sh_ups_tmp_buf[i - 1];
 645              		.loc 1 1057 34 is_stmt 1 discriminator 2 view .LVU236
1057:lvgl/src/draw/lv_draw_rect.c ****                 if(mask_line[i] == mask_line[i - 1]) sh_ups_tmp_buf[i] = sh_ups_tmp_buf[i - 1];
 646              		.loc 1 1057 35 is_stmt 0 discriminator 2 view .LVU237
 647 00c4 0133     		adds	r3, r3, #1
 648              	.LVL72:
 649              	.L42:
1057:lvgl/src/draw/lv_draw_rect.c ****                 if(mask_line[i] == mask_line[i - 1]) sh_ups_tmp_buf[i] = sh_ups_tmp_buf[i - 1];
 650              		.loc 1 1057 24 is_stmt 1 discriminator 1 view .LVU238
1057:lvgl/src/draw/lv_draw_rect.c ****                 if(mask_line[i] == mask_line[i - 1]) sh_ups_tmp_buf[i] = sh_ups_tmp_buf[i - 1];
 651              		.loc 1 1057 13 is_stmt 0 discriminator 1 view .LVU239
 652 00c6 A342     		cmp	r3, r4
 653 00c8 0BDA     		bge	.L41
1058:lvgl/src/draw/lv_draw_rect.c ****                 else  sh_ups_tmp_buf[i] = (mask_line[i] << SHADOW_UPSCALE_SHIFT) / sw;
 654              		.loc 1 1058 17 is_stmt 1 view .LVU240
ARM GAS  /var/folders/k2/cd9bl_j17z77g23y6ffqb_400000gn/T//cc0jKSMI.s 			page 38


1058:lvgl/src/draw/lv_draw_rect.c ****                 else  sh_ups_tmp_buf[i] = (mask_line[i] << SHADOW_UPSCALE_SHIFT) / sw;
 655              		.loc 1 1058 29 is_stmt 0 view .LVU241
 656 00ca EA5C     		ldrb	r2, [r5, r3]	@ zero_extendqisi2
1058:lvgl/src/draw/lv_draw_rect.c ****                 else  sh_ups_tmp_buf[i] = (mask_line[i] << SHADOW_UPSCALE_SHIFT) / sw;
 657              		.loc 1 1058 45 view .LVU242
 658 00cc E918     		adds	r1, r5, r3
 659 00ce 11F8011C 		ldrb	r1, [r1, #-1]	@ zero_extendqisi2
1058:lvgl/src/draw/lv_draw_rect.c ****                 else  sh_ups_tmp_buf[i] = (mask_line[i] << SHADOW_UPSCALE_SHIFT) / sw;
 660              		.loc 1 1058 19 view .LVU243
 661 00d2 8A42     		cmp	r2, r1
 662 00d4 EFD0     		beq	.L62
1059:lvgl/src/draw/lv_draw_rect.c ****             }
 663              		.loc 1 1059 23 is_stmt 1 view .LVU244
1059:lvgl/src/draw/lv_draw_rect.c ****             }
 664              		.loc 1 1059 57 is_stmt 0 view .LVU245
 665 00d6 9201     		lsls	r2, r2, #6
1059:lvgl/src/draw/lv_draw_rect.c ****             }
 666              		.loc 1 1059 82 view .LVU246
 667 00d8 92FBF0F2 		sdiv	r2, r2, r0
1059:lvgl/src/draw/lv_draw_rect.c ****             }
 668              		.loc 1 1059 41 view .LVU247
 669 00dc 26F81320 		strh	r2, [r6, r3, lsl #1]	@ movhi
 670 00e0 F0E7     		b	.L44
 671              	.LVL73:
 672              	.L41:
1059:lvgl/src/draw/lv_draw_rect.c ****             }
 673              		.loc 1 1059 41 view .LVU248
 674              	.LBE204:
1063:lvgl/src/draw/lv_draw_rect.c ****     }
 675              		.loc 1 1063 9 is_stmt 1 discriminator 2 view .LVU249
1063:lvgl/src/draw/lv_draw_rect.c ****     }
 676              		.loc 1 1063 24 is_stmt 0 discriminator 2 view .LVU250
 677 00e2 06EB4406 		add	r6, r6, r4, lsl #1
 678              	.LVL74:
1063:lvgl/src/draw/lv_draw_rect.c ****     }
 679              		.loc 1 1063 24 discriminator 2 view .LVU251
 680              	.LBE203:
1048:lvgl/src/draw/lv_draw_rect.c ****         lv_memset_ff(mask_line, size);
 681              		.loc 1 1048 26 is_stmt 1 discriminator 2 view .LVU252
1048:lvgl/src/draw/lv_draw_rect.c ****         lv_memset_ff(mask_line, size);
 682              		.loc 1 1048 27 is_stmt 0 discriminator 2 view .LVU253
 683 00e6 0BF1010B 		add	fp, fp, #1
 684              	.LVL75:
 685              	.L39:
1048:lvgl/src/draw/lv_draw_rect.c ****         lv_memset_ff(mask_line, size);
 686              		.loc 1 1048 16 is_stmt 1 discriminator 1 view .LVU254
1048:lvgl/src/draw/lv_draw_rect.c ****         lv_memset_ff(mask_line, size);
 687              		.loc 1 1048 5 is_stmt 0 discriminator 1 view .LVU255
 688 00ea A345     		cmp	fp, r4
 689 00ec 13DA     		bge	.L63
 690              	.LBB205:
1049:lvgl/src/draw/lv_draw_rect.c ****         lv_draw_mask_res_t mask_res = mask_param.dsc.cb(mask_line, 0, y, size, &mask_param);
 691              		.loc 1 1049 9 is_stmt 1 view .LVU256
 692 00ee 2146     		mov	r1, r4
 693 00f0 2846     		mov	r0, r5
 694 00f2 FFF7FEFF 		bl	lv_memset_ff
 695              	.LVL76:
ARM GAS  /var/folders/k2/cd9bl_j17z77g23y6ffqb_400000gn/T//cc0jKSMI.s 			page 39


1050:lvgl/src/draw/lv_draw_rect.c ****         if(mask_res == LV_DRAW_MASK_RES_TRANSP) {
 696              		.loc 1 1050 9 view .LVU257
1050:lvgl/src/draw/lv_draw_rect.c ****         if(mask_res == LV_DRAW_MASK_RES_TRANSP) {
 697              		.loc 1 1050 39 is_stmt 0 view .LVU258
 698 00f6 03AB     		add	r3, sp, #12
 699 00f8 0093     		str	r3, [sp]
 700 00fa 23B2     		sxth	r3, r4
 701 00fc 0FFA8BF2 		sxth	r2, fp
 702 0100 0021     		movs	r1, #0
 703 0102 2846     		mov	r0, r5
 704 0104 039F     		ldr	r7, [sp, #12]
 705 0106 B847     		blx	r7
 706              	.LVL77:
1051:lvgl/src/draw/lv_draw_rect.c ****             lv_memset_00(sh_ups_tmp_buf, size * sizeof(sh_ups_tmp_buf[0]));
 707              		.loc 1 1051 9 is_stmt 1 view .LVU259
1051:lvgl/src/draw/lv_draw_rect.c ****             lv_memset_00(sh_ups_tmp_buf, size * sizeof(sh_ups_tmp_buf[0]));
 708              		.loc 1 1051 11 is_stmt 0 view .LVU260
 709 0108 0028     		cmp	r0, #0
 710 010a CCD1     		bne	.L40
1052:lvgl/src/draw/lv_draw_rect.c ****         }
 711              		.loc 1 1052 13 is_stmt 1 view .LVU261
 712 010c 6100     		lsls	r1, r4, #1
 713 010e 3046     		mov	r0, r6
 714              	.LVL78:
1052:lvgl/src/draw/lv_draw_rect.c ****         }
 715              		.loc 1 1052 13 is_stmt 0 view .LVU262
 716 0110 FFF7FEFF 		bl	lv_memset_00
 717              	.LVL79:
 718 0114 E5E7     		b	.L41
 719              	.L63:
1052:lvgl/src/draw/lv_draw_rect.c ****         }
 720              		.loc 1 1052 13 view .LVU263
 721              	.LBE205:
1065:lvgl/src/draw/lv_draw_rect.c **** 
 722              		.loc 1 1065 5 is_stmt 1 view .LVU264
 723 0116 2846     		mov	r0, r5
 724 0118 FFF7FEFF 		bl	lv_mem_buf_release
 725              	.LVL80:
1067:lvgl/src/draw/lv_draw_rect.c ****         int32_t i;
 726              		.loc 1 1067 5 view .LVU265
1067:lvgl/src/draw/lv_draw_rect.c ****         int32_t i;
 727              		.loc 1 1067 7 is_stmt 0 view .LVU266
 728 011c B9F1010F 		cmp	r9, #1
 729 0120 1DD0     		beq	.L64
1076:lvgl/src/draw/lv_draw_rect.c **** 
 730              		.loc 1 1076 5 is_stmt 1 view .LVU267
 731 0122 25B2     		sxth	r5, r4
 732              	.LVL81:
1076:lvgl/src/draw/lv_draw_rect.c **** 
 733              		.loc 1 1076 5 is_stmt 0 view .LVU268
 734 0124 4246     		mov	r2, r8
 735 0126 4946     		mov	r1, r9
 736 0128 2846     		mov	r0, r5
 737 012a FFF7FEFF 		bl	shadow_blur_corner
 738              	.LVL82:
1086:lvgl/src/draw/lv_draw_rect.c ****     if(sw > 1) {
 739              		.loc 1 1086 5 is_stmt 1 view .LVU269
ARM GAS  /var/folders/k2/cd9bl_j17z77g23y6ffqb_400000gn/T//cc0jKSMI.s 			page 40


1086:lvgl/src/draw/lv_draw_rect.c ****     if(sw > 1) {
 740              		.loc 1 1086 8 is_stmt 0 view .LVU270
 741 012e 0AEB0901 		add	r1, r10, r9
 742              	.LVL83:
1087:lvgl/src/draw/lv_draw_rect.c ****         uint32_t i;
 743              		.loc 1 1087 5 is_stmt 1 view .LVU271
1087:lvgl/src/draw/lv_draw_rect.c ****         uint32_t i;
 744              		.loc 1 1087 7 is_stmt 0 view .LVU272
 745 0132 0129     		cmp	r1, #1
 746 0134 2FDD     		ble	.L51
 747              	.LBB206:
1088:lvgl/src/draw/lv_draw_rect.c ****         sh_buf[0] = (sh_buf[0] << SHADOW_UPSCALE_SHIFT) / sw;
 748              		.loc 1 1088 9 is_stmt 1 view .LVU273
1089:lvgl/src/draw/lv_draw_rect.c ****         for(i = 1; i < (uint32_t) size * size; i++) {
 749              		.loc 1 1089 9 view .LVU274
1089:lvgl/src/draw/lv_draw_rect.c ****         for(i = 1; i < (uint32_t) size * size; i++) {
 750              		.loc 1 1089 28 is_stmt 0 view .LVU275
 751 0136 B8F80030 		ldrh	r3, [r8]
1089:lvgl/src/draw/lv_draw_rect.c ****         for(i = 1; i < (uint32_t) size * size; i++) {
 752              		.loc 1 1089 32 view .LVU276
 753 013a 9B01     		lsls	r3, r3, #6
1089:lvgl/src/draw/lv_draw_rect.c ****         for(i = 1; i < (uint32_t) size * size; i++) {
 754              		.loc 1 1089 57 view .LVU277
 755 013c 93FBF1F3 		sdiv	r3, r3, r1
1089:lvgl/src/draw/lv_draw_rect.c ****         for(i = 1; i < (uint32_t) size * size; i++) {
 756              		.loc 1 1089 19 view .LVU278
 757 0140 A8F80030 		strh	r3, [r8]	@ movhi
1090:lvgl/src/draw/lv_draw_rect.c ****             if(sh_buf[i] == sh_buf[i - 1]) sh_buf[i] = sh_buf[i - 1];
 758              		.loc 1 1090 9 is_stmt 1 view .LVU279
 759              	.LVL84:
1090:lvgl/src/draw/lv_draw_rect.c ****             if(sh_buf[i] == sh_buf[i - 1]) sh_buf[i] = sh_buf[i - 1];
 760              		.loc 1 1090 15 is_stmt 0 view .LVU280
 761 0144 0123     		movs	r3, #1
1090:lvgl/src/draw/lv_draw_rect.c ****             if(sh_buf[i] == sh_buf[i - 1]) sh_buf[i] = sh_buf[i - 1];
 762              		.loc 1 1090 9 view .LVU281
 763 0146 0FE0     		b	.L52
 764              	.LVL85:
 765              	.L49:
1090:lvgl/src/draw/lv_draw_rect.c ****             if(sh_buf[i] == sh_buf[i - 1]) sh_buf[i] = sh_buf[i - 1];
 766              		.loc 1 1090 9 view .LVU282
 767              	.LBE206:
 768              	.LBB207:
1071:lvgl/src/draw/lv_draw_rect.c ****         }
 769              		.loc 1 1071 13 is_stmt 1 discriminator 3 view .LVU283
1071:lvgl/src/draw/lv_draw_rect.c ****         }
 770              		.loc 1 1071 33 is_stmt 0 discriminator 3 view .LVU284
 771 0148 38F81320 		ldrh	r2, [r8, r3, lsl #1]
1071:lvgl/src/draw/lv_draw_rect.c ****         }
 772              		.loc 1 1071 24 discriminator 3 view .LVU285
 773 014c 9209     		lsrs	r2, r2, #6
 774 014e 08F80320 		strb	r2, [r8, r3]
1070:lvgl/src/draw/lv_draw_rect.c ****             res_buf[i] = (sh_buf[i] >> SHADOW_UPSCALE_SHIFT);
 775              		.loc 1 1070 37 is_stmt 1 discriminator 3 view .LVU286
1070:lvgl/src/draw/lv_draw_rect.c ****             res_buf[i] = (sh_buf[i] >> SHADOW_UPSCALE_SHIFT);
 776              		.loc 1 1070 38 is_stmt 0 discriminator 3 view .LVU287
 777 0152 0133     		adds	r3, r3, #1
 778              	.LVL86:
ARM GAS  /var/folders/k2/cd9bl_j17z77g23y6ffqb_400000gn/T//cc0jKSMI.s 			page 41


 779              	.L47:
1070:lvgl/src/draw/lv_draw_rect.c ****             res_buf[i] = (sh_buf[i] >> SHADOW_UPSCALE_SHIFT);
 780              		.loc 1 1070 20 is_stmt 1 discriminator 1 view .LVU288
1070:lvgl/src/draw/lv_draw_rect.c ****             res_buf[i] = (sh_buf[i] >> SHADOW_UPSCALE_SHIFT);
 781              		.loc 1 1070 29 is_stmt 0 discriminator 1 view .LVU289
 782 0154 04FB04F2 		mul	r2, r4, r4
1070:lvgl/src/draw/lv_draw_rect.c ****             res_buf[i] = (sh_buf[i] >> SHADOW_UPSCALE_SHIFT);
 783              		.loc 1 1070 9 discriminator 1 view .LVU290
 784 0158 9A42     		cmp	r2, r3
 785 015a F5DC     		bgt	.L49
 786 015c 26E0     		b	.L37
 787              	.LVL87:
 788              	.L64:
1070:lvgl/src/draw/lv_draw_rect.c ****             res_buf[i] = (sh_buf[i] >> SHADOW_UPSCALE_SHIFT);
 789              		.loc 1 1070 15 view .LVU291
 790 015e 0023     		movs	r3, #0
 791 0160 F8E7     		b	.L47
 792              	.LVL88:
 793              	.L66:
1070:lvgl/src/draw/lv_draw_rect.c ****             res_buf[i] = (sh_buf[i] >> SHADOW_UPSCALE_SHIFT);
 794              		.loc 1 1070 15 view .LVU292
 795              	.LBE207:
 796              	.LBB208:
1091:lvgl/src/draw/lv_draw_rect.c ****             else  sh_buf[i] = (sh_buf[i] << SHADOW_UPSCALE_SHIFT) / sw;
 797              		.loc 1 1091 44 is_stmt 1 discriminator 1 view .LVU293
1091:lvgl/src/draw/lv_draw_rect.c ****             else  sh_buf[i] = (sh_buf[i] << SHADOW_UPSCALE_SHIFT) / sw;
 798              		.loc 1 1091 54 is_stmt 0 discriminator 1 view .LVU294
 799 0162 28F81300 		strh	r0, [r8, r3, lsl #1]	@ movhi
 800              	.L54:
1090:lvgl/src/draw/lv_draw_rect.c ****             if(sh_buf[i] == sh_buf[i - 1]) sh_buf[i] = sh_buf[i - 1];
 801              		.loc 1 1090 48 is_stmt 1 discriminator 2 view .LVU295
1090:lvgl/src/draw/lv_draw_rect.c ****             if(sh_buf[i] == sh_buf[i - 1]) sh_buf[i] = sh_buf[i - 1];
 802              		.loc 1 1090 49 is_stmt 0 discriminator 2 view .LVU296
 803 0166 0133     		adds	r3, r3, #1
 804              	.LVL89:
 805              	.L52:
1090:lvgl/src/draw/lv_draw_rect.c ****             if(sh_buf[i] == sh_buf[i - 1]) sh_buf[i] = sh_buf[i - 1];
 806              		.loc 1 1090 20 is_stmt 1 discriminator 1 view .LVU297
1090:lvgl/src/draw/lv_draw_rect.c ****             if(sh_buf[i] == sh_buf[i - 1]) sh_buf[i] = sh_buf[i - 1];
 807              		.loc 1 1090 40 is_stmt 0 discriminator 1 view .LVU298
 808 0168 04FB04F2 		mul	r2, r4, r4
1090:lvgl/src/draw/lv_draw_rect.c ****             if(sh_buf[i] == sh_buf[i - 1]) sh_buf[i] = sh_buf[i - 1];
 809              		.loc 1 1090 9 discriminator 1 view .LVU299
 810 016c 9A42     		cmp	r2, r3
 811 016e 0ED9     		bls	.L65
1091:lvgl/src/draw/lv_draw_rect.c ****             else  sh_buf[i] = (sh_buf[i] << SHADOW_UPSCALE_SHIFT) / sw;
 812              		.loc 1 1091 13 is_stmt 1 view .LVU300
1091:lvgl/src/draw/lv_draw_rect.c ****             else  sh_buf[i] = (sh_buf[i] << SHADOW_UPSCALE_SHIFT) / sw;
 813              		.loc 1 1091 22 is_stmt 0 view .LVU301
 814 0170 38F81320 		ldrh	r2, [r8, r3, lsl #1]
1091:lvgl/src/draw/lv_draw_rect.c ****             else  sh_buf[i] = (sh_buf[i] << SHADOW_UPSCALE_SHIFT) / sw;
 815              		.loc 1 1091 35 view .LVU302
 816 0174 03F10040 		add	r0, r3, #-2147483648
 817 0178 0138     		subs	r0, r0, #1
 818 017a 38F81000 		ldrh	r0, [r8, r0, lsl #1]
1091:lvgl/src/draw/lv_draw_rect.c ****             else  sh_buf[i] = (sh_buf[i] << SHADOW_UPSCALE_SHIFT) / sw;
 819              		.loc 1 1091 15 view .LVU303
ARM GAS  /var/folders/k2/cd9bl_j17z77g23y6ffqb_400000gn/T//cc0jKSMI.s 			page 42


 820 017e 8242     		cmp	r2, r0
 821 0180 EFD0     		beq	.L66
1092:lvgl/src/draw/lv_draw_rect.c ****         }
 822              		.loc 1 1092 19 is_stmt 1 view .LVU304
1092:lvgl/src/draw/lv_draw_rect.c ****         }
 823              		.loc 1 1092 42 is_stmt 0 view .LVU305
 824 0182 9201     		lsls	r2, r2, #6
1092:lvgl/src/draw/lv_draw_rect.c ****         }
 825              		.loc 1 1092 67 view .LVU306
 826 0184 92FBF1F2 		sdiv	r2, r2, r1
1092:lvgl/src/draw/lv_draw_rect.c ****         }
 827              		.loc 1 1092 29 view .LVU307
 828 0188 28F81320 		strh	r2, [r8, r3, lsl #1]	@ movhi
 829 018c EBE7     		b	.L54
 830              	.L65:
1095:lvgl/src/draw/lv_draw_rect.c ****     }
 831              		.loc 1 1095 9 is_stmt 1 view .LVU308
 832 018e 4246     		mov	r2, r8
 833 0190 2846     		mov	r0, r5
 834 0192 FFF7FEFF 		bl	shadow_blur_corner
 835              	.LVL90:
 836              	.L51:
1090:lvgl/src/draw/lv_draw_rect.c ****             if(sh_buf[i] == sh_buf[i - 1]) sh_buf[i] = sh_buf[i - 1];
 837              		.loc 1 1090 15 is_stmt 0 discriminator 1 view .LVU309
 838 0196 0023     		movs	r3, #0
 839 0198 04E0     		b	.L56
 840              	.LVL91:
 841              	.L57:
1090:lvgl/src/draw/lv_draw_rect.c ****             if(sh_buf[i] == sh_buf[i - 1]) sh_buf[i] = sh_buf[i - 1];
 842              		.loc 1 1090 15 discriminator 1 view .LVU310
 843              	.LBE208:
1100:lvgl/src/draw/lv_draw_rect.c ****     }
 844              		.loc 1 1100 9 is_stmt 1 discriminator 3 view .LVU311
1100:lvgl/src/draw/lv_draw_rect.c ****     }
 845              		.loc 1 1100 28 is_stmt 0 discriminator 3 view .LVU312
 846 019a 38F81320 		ldrh	r2, [r8, r3, lsl #1]
1100:lvgl/src/draw/lv_draw_rect.c ****     }
 847              		.loc 1 1100 20 discriminator 3 view .LVU313
 848 019e 08F80320 		strb	r2, [r8, r3]
1099:lvgl/src/draw/lv_draw_rect.c ****         res_buf[x] = sh_buf[x];
 849              		.loc 1 1099 33 is_stmt 1 discriminator 3 view .LVU314
1099:lvgl/src/draw/lv_draw_rect.c ****         res_buf[x] = sh_buf[x];
 850              		.loc 1 1099 34 is_stmt 0 discriminator 3 view .LVU315
 851 01a2 0133     		adds	r3, r3, #1
 852              	.LVL92:
 853              	.L56:
1099:lvgl/src/draw/lv_draw_rect.c ****         res_buf[x] = sh_buf[x];
 854              		.loc 1 1099 16 is_stmt 1 discriminator 1 view .LVU316
1099:lvgl/src/draw/lv_draw_rect.c ****         res_buf[x] = sh_buf[x];
 855              		.loc 1 1099 25 is_stmt 0 discriminator 1 view .LVU317
 856 01a4 04FB04F2 		mul	r2, r4, r4
1099:lvgl/src/draw/lv_draw_rect.c ****         res_buf[x] = sh_buf[x];
 857              		.loc 1 1099 5 discriminator 1 view .LVU318
 858 01a8 9A42     		cmp	r2, r3
 859 01aa F6DC     		bgt	.L57
 860              	.LVL93:
 861              	.L37:
ARM GAS  /var/folders/k2/cd9bl_j17z77g23y6ffqb_400000gn/T//cc0jKSMI.s 			page 43


1104:lvgl/src/draw/lv_draw_rect.c **** 
 862              		.loc 1 1104 1 view .LVU319
 863 01ac 0DB0     		add	sp, sp, #52
 864              	.LCFI5:
 865              		.cfi_def_cfa_offset 36
 866              		@ sp needed
 867 01ae BDE8F08F 		pop	{r4, r5, r6, r7, r8, r9, r10, fp, pc}
1104:lvgl/src/draw/lv_draw_rect.c **** 
 868              		.loc 1 1104 1 view .LVU320
 869              		.cfi_endproc
 870              	.LFE154:
 872              		.section	.text.draw_shadow,"ax",%progbits
 873              		.align	1
 874              		.syntax unified
 875              		.thumb
 876              		.thumb_func
 877              		.fpu fpv4-sp-d16
 879              	draw_shadow:
 880              	.LVL94:
 881              	.LFB153:
 539:lvgl/src/draw/lv_draw_rect.c ****     /*Check whether the shadow is visible*/
 882              		.loc 1 539 1 is_stmt 1 view -0
 883              		.cfi_startproc
 884              		@ args = 0, pretend = 0, frame = 136
 885              		@ frame_needed = 0, uses_anonymous_args = 0
 539:lvgl/src/draw/lv_draw_rect.c ****     /*Check whether the shadow is visible*/
 886              		.loc 1 539 1 is_stmt 0 view .LVU322
 887 0000 2DE9F04F 		push	{r4, r5, r6, r7, r8, r9, r10, fp, lr}
 888              	.LCFI6:
 889              		.cfi_def_cfa_offset 36
 890              		.cfi_offset 4, -36
 891              		.cfi_offset 5, -32
 892              		.cfi_offset 6, -28
 893              		.cfi_offset 7, -24
 894              		.cfi_offset 8, -20
 895              		.cfi_offset 9, -16
 896              		.cfi_offset 10, -12
 897              		.cfi_offset 11, -8
 898              		.cfi_offset 14, -4
 899 0004 A7B0     		sub	sp, sp, #156
 900              	.LCFI7:
 901              		.cfi_def_cfa_offset 192
 902 0006 0590     		str	r0, [sp, #20]
 541:lvgl/src/draw/lv_draw_rect.c ****     if(dsc->shadow_opa <= LV_OPA_MIN) return;
 903              		.loc 1 541 5 is_stmt 1 view .LVU323
 541:lvgl/src/draw/lv_draw_rect.c ****     if(dsc->shadow_opa <= LV_OPA_MIN) return;
 904              		.loc 1 541 11 is_stmt 0 view .LVU324
 905 0008 B2F93840 		ldrsh	r4, [r2, #56]
 541:lvgl/src/draw/lv_draw_rect.c ****     if(dsc->shadow_opa <= LV_OPA_MIN) return;
 906              		.loc 1 541 7 view .LVU325
 907 000c 002C     		cmp	r4, #0
 908 000e 00F0D283 		beq	.L67
 909 0012 8A46     		mov	r10, r1
 910 0014 1546     		mov	r5, r2
 542:lvgl/src/draw/lv_draw_rect.c **** 
 911              		.loc 1 542 5 is_stmt 1 view .LVU326
 542:lvgl/src/draw/lv_draw_rect.c **** 
ARM GAS  /var/folders/k2/cd9bl_j17z77g23y6ffqb_400000gn/T//cc0jKSMI.s 			page 44


 912              		.loc 1 542 11 is_stmt 0 view .LVU327
 913 0016 92F84030 		ldrb	r3, [r2, #64]	@ zero_extendqisi2
 914 001a 0493     		str	r3, [sp, #16]
 542:lvgl/src/draw/lv_draw_rect.c **** 
 915              		.loc 1 542 7 view .LVU328
 916 001c 022B     		cmp	r3, #2
 917 001e 40F2CA83 		bls	.L67
 544:lvgl/src/draw/lv_draw_rect.c ****        dsc->shadow_ofs_y == 0 && dsc->shadow_spread <= 0) {
 918              		.loc 1 544 5 is_stmt 1 view .LVU329
 544:lvgl/src/draw/lv_draw_rect.c ****        dsc->shadow_ofs_y == 0 && dsc->shadow_spread <= 0) {
 919              		.loc 1 544 31 is_stmt 0 view .LVU330
 920 0022 936B     		ldr	r3, [r2, #56]
 544:lvgl/src/draw/lv_draw_rect.c ****        dsc->shadow_ofs_y == 0 && dsc->shadow_spread <= 0) {
 921              		.loc 1 544 7 view .LVU331
 922 0024 012B     		cmp	r3, #1
 923 0026 00F0F380 		beq	.L158
 924              	.L69:
 549:lvgl/src/draw/lv_draw_rect.c **** 
 925              		.loc 1 549 5 is_stmt 1 view .LVU332
 926              	.LVL95:
 551:lvgl/src/draw/lv_draw_rect.c ****     sh_rect_area.x1 = coords->x1  + dsc->shadow_ofs_x - dsc->shadow_spread;
 927              		.loc 1 551 5 view .LVU333
 552:lvgl/src/draw/lv_draw_rect.c ****     sh_rect_area.x2 = coords->x2  + dsc->shadow_ofs_x + dsc->shadow_spread;
 928              		.loc 1 552 5 view .LVU334
 552:lvgl/src/draw/lv_draw_rect.c ****     sh_rect_area.x2 = coords->x2  + dsc->shadow_ofs_x + dsc->shadow_spread;
 929              		.loc 1 552 29 is_stmt 0 view .LVU335
 930 002a 059F     		ldr	r7, [sp, #20]
 931 002c 3A88     		ldrh	r2, [r7]
 932              	.LVL96:
 552:lvgl/src/draw/lv_draw_rect.c ****     sh_rect_area.x2 = coords->x2  + dsc->shadow_ofs_x + dsc->shadow_spread;
 933              		.loc 1 552 40 view .LVU336
 934 002e 688F     		ldrh	r0, [r5, #58]
 935              	.LVL97:
 552:lvgl/src/draw/lv_draw_rect.c ****     sh_rect_area.x2 = coords->x2  + dsc->shadow_ofs_x + dsc->shadow_spread;
 936              		.loc 1 552 35 view .LVU337
 937 0030 0244     		add	r2, r2, r0
 938 0032 92B2     		uxth	r2, r2
 552:lvgl/src/draw/lv_draw_rect.c ****     sh_rect_area.x2 = coords->x2  + dsc->shadow_ofs_x + dsc->shadow_spread;
 939              		.loc 1 552 60 view .LVU338
 940 0034 EE8F     		ldrh	r6, [r5, #62]
 552:lvgl/src/draw/lv_draw_rect.c ****     sh_rect_area.x2 = coords->x2  + dsc->shadow_ofs_x + dsc->shadow_spread;
 941              		.loc 1 552 55 view .LVU339
 942 0036 921B     		subs	r2, r2, r6
 552:lvgl/src/draw/lv_draw_rect.c ****     sh_rect_area.x2 = coords->x2  + dsc->shadow_ofs_x + dsc->shadow_spread;
 943              		.loc 1 552 21 view .LVU340
 944 0038 ADF89020 		strh	r2, [sp, #144]	@ movhi
 553:lvgl/src/draw/lv_draw_rect.c ****     sh_rect_area.y1 = coords->y1  + dsc->shadow_ofs_y - dsc->shadow_spread;
 945              		.loc 1 553 5 is_stmt 1 view .LVU341
 553:lvgl/src/draw/lv_draw_rect.c ****     sh_rect_area.y1 = coords->y1  + dsc->shadow_ofs_y - dsc->shadow_spread;
 946              		.loc 1 553 29 is_stmt 0 view .LVU342
 947 003c BB88     		ldrh	r3, [r7, #4]
 553:lvgl/src/draw/lv_draw_rect.c ****     sh_rect_area.y1 = coords->y1  + dsc->shadow_ofs_y - dsc->shadow_spread;
 948              		.loc 1 553 35 view .LVU343
 949 003e 1844     		add	r0, r0, r3
 553:lvgl/src/draw/lv_draw_rect.c ****     sh_rect_area.y1 = coords->y1  + dsc->shadow_ofs_y - dsc->shadow_spread;
 950              		.loc 1 553 55 view .LVU344
 951 0040 16FA80F0 		uxtah	r0, r6, r0
ARM GAS  /var/folders/k2/cd9bl_j17z77g23y6ffqb_400000gn/T//cc0jKSMI.s 			page 45


 553:lvgl/src/draw/lv_draw_rect.c ****     sh_rect_area.y1 = coords->y1  + dsc->shadow_ofs_y - dsc->shadow_spread;
 952              		.loc 1 553 21 view .LVU345
 953 0044 ADF89400 		strh	r0, [sp, #148]	@ movhi
 554:lvgl/src/draw/lv_draw_rect.c ****     sh_rect_area.y2 = coords->y2  + dsc->shadow_ofs_y + dsc->shadow_spread;
 954              		.loc 1 554 5 is_stmt 1 view .LVU346
 554:lvgl/src/draw/lv_draw_rect.c ****     sh_rect_area.y2 = coords->y2  + dsc->shadow_ofs_y + dsc->shadow_spread;
 955              		.loc 1 554 29 is_stmt 0 view .LVU347
 956 0048 7B88     		ldrh	r3, [r7, #2]
 554:lvgl/src/draw/lv_draw_rect.c ****     sh_rect_area.y2 = coords->y2  + dsc->shadow_ofs_y + dsc->shadow_spread;
 957              		.loc 1 554 40 view .LVU348
 958 004a A98F     		ldrh	r1, [r5, #60]
 959              	.LVL98:
 554:lvgl/src/draw/lv_draw_rect.c ****     sh_rect_area.y2 = coords->y2  + dsc->shadow_ofs_y + dsc->shadow_spread;
 960              		.loc 1 554 35 view .LVU349
 961 004c 0B44     		add	r3, r3, r1
 962 004e 9BB2     		uxth	r3, r3
 554:lvgl/src/draw/lv_draw_rect.c ****     sh_rect_area.y2 = coords->y2  + dsc->shadow_ofs_y + dsc->shadow_spread;
 963              		.loc 1 554 55 view .LVU350
 964 0050 9B1B     		subs	r3, r3, r6
 554:lvgl/src/draw/lv_draw_rect.c ****     sh_rect_area.y2 = coords->y2  + dsc->shadow_ofs_y + dsc->shadow_spread;
 965              		.loc 1 554 21 view .LVU351
 966 0052 ADF89230 		strh	r3, [sp, #146]	@ movhi
 555:lvgl/src/draw/lv_draw_rect.c **** 
 967              		.loc 1 555 5 is_stmt 1 view .LVU352
 555:lvgl/src/draw/lv_draw_rect.c **** 
 968              		.loc 1 555 29 is_stmt 0 view .LVU353
 969 0056 FF88     		ldrh	r7, [r7, #6]
 555:lvgl/src/draw/lv_draw_rect.c **** 
 970              		.loc 1 555 35 view .LVU354
 971 0058 3944     		add	r1, r1, r7
 555:lvgl/src/draw/lv_draw_rect.c **** 
 972              		.loc 1 555 55 view .LVU355
 973 005a 16FA81F1 		uxtah	r1, r6, r1
 555:lvgl/src/draw/lv_draw_rect.c **** 
 974              		.loc 1 555 21 view .LVU356
 975 005e ADF89610 		strh	r1, [sp, #150]	@ movhi
 557:lvgl/src/draw/lv_draw_rect.c ****     sh_area.x1 = sh_rect_area.x1 - sw / 2 - 1;
 976              		.loc 1 557 5 is_stmt 1 view .LVU357
 558:lvgl/src/draw/lv_draw_rect.c ****     sh_area.x2 = sh_rect_area.x2 + sw / 2 + 1;
 977              		.loc 1 558 5 view .LVU358
 558:lvgl/src/draw/lv_draw_rect.c ****     sh_area.x2 = sh_rect_area.x2 + sw / 2 + 1;
 978              		.loc 1 558 39 is_stmt 0 view .LVU359
 979 0062 04EBD47C 		add	ip, r4, r4, lsr #31
 980 0066 4FEA6C07 		asr	r7, ip, #1
 981 006a 7F42     		rsbs	r7, r7, #0
 558:lvgl/src/draw/lv_draw_rect.c ****     sh_area.x2 = sh_rect_area.x2 + sw / 2 + 1;
 982              		.loc 1 558 34 view .LVU360
 983 006c BFB2     		uxth	r7, r7
 984 006e 17FA82F2 		uxtah	r2, r7, r2
 985 0072 92B2     		uxth	r2, r2
 558:lvgl/src/draw/lv_draw_rect.c ****     sh_area.x2 = sh_rect_area.x2 + sw / 2 + 1;
 986              		.loc 1 558 43 view .LVU361
 987 0074 561E     		subs	r6, r2, #1
 558:lvgl/src/draw/lv_draw_rect.c ****     sh_area.x2 = sh_rect_area.x2 + sw / 2 + 1;
 988              		.loc 1 558 16 view .LVU362
 989 0076 ADF88860 		strh	r6, [sp, #136]	@ movhi
 559:lvgl/src/draw/lv_draw_rect.c ****     sh_area.y1 = sh_rect_area.y1 - sw / 2 - 1;
ARM GAS  /var/folders/k2/cd9bl_j17z77g23y6ffqb_400000gn/T//cc0jKSMI.s 			page 46


 990              		.loc 1 559 5 is_stmt 1 view .LVU363
 559:lvgl/src/draw/lv_draw_rect.c ****     sh_area.y1 = sh_rect_area.y1 - sw / 2 - 1;
 991              		.loc 1 559 34 is_stmt 0 view .LVU364
 992 007a CCF34F06 		ubfx	r6, ip, #1, #16
 993 007e 16FA80F0 		uxtah	r0, r6, r0
 994 0082 80B2     		uxth	r0, r0
 559:lvgl/src/draw/lv_draw_rect.c ****     sh_area.y1 = sh_rect_area.y1 - sw / 2 - 1;
 995              		.loc 1 559 43 view .LVU365
 996 0084 0130     		adds	r0, r0, #1
 559:lvgl/src/draw/lv_draw_rect.c ****     sh_area.y1 = sh_rect_area.y1 - sw / 2 - 1;
 997              		.loc 1 559 16 view .LVU366
 998 0086 ADF88C00 		strh	r0, [sp, #140]	@ movhi
 560:lvgl/src/draw/lv_draw_rect.c ****     sh_area.y2 = sh_rect_area.y2 + sw / 2 + 1;
 999              		.loc 1 560 5 is_stmt 1 view .LVU367
 560:lvgl/src/draw/lv_draw_rect.c ****     sh_area.y2 = sh_rect_area.y2 + sw / 2 + 1;
 1000              		.loc 1 560 34 is_stmt 0 view .LVU368
 1001 008a 17FA83F2 		uxtah	r2, r7, r3
 1002 008e 92B2     		uxth	r2, r2
 560:lvgl/src/draw/lv_draw_rect.c ****     sh_area.y2 = sh_rect_area.y2 + sw / 2 + 1;
 1003              		.loc 1 560 43 view .LVU369
 1004 0090 013A     		subs	r2, r2, #1
 560:lvgl/src/draw/lv_draw_rect.c ****     sh_area.y2 = sh_rect_area.y2 + sw / 2 + 1;
 1005              		.loc 1 560 16 view .LVU370
 1006 0092 ADF88A20 		strh	r2, [sp, #138]	@ movhi
 561:lvgl/src/draw/lv_draw_rect.c **** 
 1007              		.loc 1 561 5 is_stmt 1 view .LVU371
 561:lvgl/src/draw/lv_draw_rect.c **** 
 1008              		.loc 1 561 34 is_stmt 0 view .LVU372
 1009 0096 16FA81F3 		uxtah	r3, r6, r1
 1010 009a 9BB2     		uxth	r3, r3
 561:lvgl/src/draw/lv_draw_rect.c **** 
 1011              		.loc 1 561 43 view .LVU373
 1012 009c 0133     		adds	r3, r3, #1
 561:lvgl/src/draw/lv_draw_rect.c **** 
 1013              		.loc 1 561 16 view .LVU374
 1014 009e ADF88E30 		strh	r3, [sp, #142]	@ movhi
 563:lvgl/src/draw/lv_draw_rect.c **** 
 1015              		.loc 1 563 5 is_stmt 1 view .LVU375
 1016              	.LVL99:
 565:lvgl/src/draw/lv_draw_rect.c **** 
 1017              		.loc 1 565 5 view .LVU376
 565:lvgl/src/draw/lv_draw_rect.c **** 
 1018              		.loc 1 565 7 is_stmt 0 view .LVU377
 1019 00a2 049B     		ldr	r3, [sp, #16]
 1020 00a4 FD2B     		cmp	r3, #253
 1021 00a6 01D9     		bls	.L70
 565:lvgl/src/draw/lv_draw_rect.c **** 
 1022              		.loc 1 565 30 view .LVU378
 1023 00a8 FF23     		movs	r3, #255
 1024 00aa 0493     		str	r3, [sp, #16]
 1025              	.LVL100:
 1026              	.L70:
 567:lvgl/src/draw/lv_draw_rect.c ****     lv_disp_draw_buf_t * draw_buf = lv_disp_get_draw_buf(disp);
 1027              		.loc 1 567 5 is_stmt 1 view .LVU379
 567:lvgl/src/draw/lv_draw_rect.c ****     lv_disp_draw_buf_t * draw_buf = lv_disp_get_draw_buf(disp);
 1028              		.loc 1 567 24 is_stmt 0 view .LVU380
 1029 00ac FFF7FEFF 		bl	_lv_refr_get_disp_refreshing
ARM GAS  /var/folders/k2/cd9bl_j17z77g23y6ffqb_400000gn/T//cc0jKSMI.s 			page 47


 1030              	.LVL101:
 568:lvgl/src/draw/lv_draw_rect.c **** 
 1031              		.loc 1 568 5 is_stmt 1 view .LVU381
 568:lvgl/src/draw/lv_draw_rect.c **** 
 1032              		.loc 1 568 37 is_stmt 0 view .LVU382
 1033 00b0 FFF7FEFF 		bl	lv_disp_get_draw_buf
 1034              	.LVL102:
 568:lvgl/src/draw/lv_draw_rect.c **** 
 1035              		.loc 1 568 37 view .LVU383
 1036 00b4 0646     		mov	r6, r0
 1037              	.LVL103:
 572:lvgl/src/draw/lv_draw_rect.c ****     bool is_common;
 1038              		.loc 1 572 5 is_stmt 1 view .LVU384
 573:lvgl/src/draw/lv_draw_rect.c ****     is_common = _lv_area_intersect(&draw_area, &sh_area, clip);
 1039              		.loc 1 573 5 view .LVU385
 574:lvgl/src/draw/lv_draw_rect.c ****     if(is_common == false) return;
 1040              		.loc 1 574 5 view .LVU386
 574:lvgl/src/draw/lv_draw_rect.c ****     if(is_common == false) return;
 1041              		.loc 1 574 17 is_stmt 0 view .LVU387
 1042 00b6 5246     		mov	r2, r10
 1043 00b8 22A9     		add	r1, sp, #136
 1044 00ba 20A8     		add	r0, sp, #128
 1045              	.LVL104:
 574:lvgl/src/draw/lv_draw_rect.c ****     if(is_common == false) return;
 1046              		.loc 1 574 17 view .LVU388
 1047 00bc FFF7FEFF 		bl	_lv_area_intersect
 1048              	.LVL105:
 575:lvgl/src/draw/lv_draw_rect.c **** 
 1049              		.loc 1 575 5 is_stmt 1 view .LVU389
 575:lvgl/src/draw/lv_draw_rect.c **** 
 1050              		.loc 1 575 7 is_stmt 0 view .LVU390
 1051 00c0 0690     		str	r0, [sp, #24]
 1052 00c2 0028     		cmp	r0, #0
 1053 00c4 00F07783 		beq	.L67
 577:lvgl/src/draw/lv_draw_rect.c **** 
 1054              		.loc 1 577 5 is_stmt 1 view .LVU391
 1055              	.LVL106:
 581:lvgl/src/draw/lv_draw_rect.c ****     draw_area.y1 -= disp_area->y1;
 1056              		.loc 1 581 5 view .LVU392
 581:lvgl/src/draw/lv_draw_rect.c ****     draw_area.y1 -= disp_area->y1;
 1057              		.loc 1 581 30 is_stmt 0 view .LVU393
 1058 00c8 318A     		ldrh	r1, [r6, #16]
 581:lvgl/src/draw/lv_draw_rect.c ****     draw_area.y1 -= disp_area->y1;
 1059              		.loc 1 581 18 view .LVU394
 1060 00ca BDF88030 		ldrh	r3, [sp, #128]
 1061 00ce 5B1A     		subs	r3, r3, r1
 1062 00d0 ADF88030 		strh	r3, [sp, #128]	@ movhi
 582:lvgl/src/draw/lv_draw_rect.c ****     draw_area.x2 -= disp_area->x1;
 1063              		.loc 1 582 5 is_stmt 1 view .LVU395
 582:lvgl/src/draw/lv_draw_rect.c ****     draw_area.x2 -= disp_area->x1;
 1064              		.loc 1 582 30 is_stmt 0 view .LVU396
 1065 00d4 728A     		ldrh	r2, [r6, #18]
 582:lvgl/src/draw/lv_draw_rect.c ****     draw_area.x2 -= disp_area->x1;
 1066              		.loc 1 582 18 view .LVU397
 1067 00d6 BDF88230 		ldrh	r3, [sp, #130]
 1068 00da 9B1A     		subs	r3, r3, r2
 1069 00dc ADF88230 		strh	r3, [sp, #130]	@ movhi
ARM GAS  /var/folders/k2/cd9bl_j17z77g23y6ffqb_400000gn/T//cc0jKSMI.s 			page 48


 583:lvgl/src/draw/lv_draw_rect.c ****     draw_area.y2 -= disp_area->y1;
 1070              		.loc 1 583 5 is_stmt 1 view .LVU398
 583:lvgl/src/draw/lv_draw_rect.c ****     draw_area.y2 -= disp_area->y1;
 1071              		.loc 1 583 18 is_stmt 0 view .LVU399
 1072 00e0 BDF88430 		ldrh	r3, [sp, #132]
 1073 00e4 5B1A     		subs	r3, r3, r1
 1074 00e6 ADF88430 		strh	r3, [sp, #132]	@ movhi
 584:lvgl/src/draw/lv_draw_rect.c **** 
 1075              		.loc 1 584 5 is_stmt 1 view .LVU400
 584:lvgl/src/draw/lv_draw_rect.c **** 
 1076              		.loc 1 584 18 is_stmt 0 view .LVU401
 1077 00ea BDF88630 		ldrh	r3, [sp, #134]
 1078 00ee 9B1A     		subs	r3, r3, r2
 1079 00f0 ADF88630 		strh	r3, [sp, #134]	@ movhi
 587:lvgl/src/draw/lv_draw_rect.c ****     lv_area_copy(&bg_coords, coords);
 1080              		.loc 1 587 5 is_stmt 1 view .LVU402
 588:lvgl/src/draw/lv_draw_rect.c ****     bg_coords.x1 += 1;
 1081              		.loc 1 588 5 view .LVU403
 1082              	.LVL107:
 1083              	.LBB209:
 1084              	.LBI209:
 120:lvgl/src/draw/../misc/lv_area.h **** {
 1085              		.loc 2 120 20 view .LVU404
 1086              	.LBB210:
 122:lvgl/src/draw/../misc/lv_area.h ****     dest->y1 = src->y1;
 1087              		.loc 2 122 5 view .LVU405
 122:lvgl/src/draw/../misc/lv_area.h ****     dest->y1 = src->y1;
 1088              		.loc 2 122 19 is_stmt 0 view .LVU406
 1089 00f4 059A     		ldr	r2, [sp, #20]
 1090 00f6 B2F90000 		ldrsh	r0, [r2]
 1091              	.LVL108:
 122:lvgl/src/draw/../misc/lv_area.h ****     dest->y1 = src->y1;
 1092              		.loc 2 122 14 view .LVU407
 1093 00fa ADF87800 		strh	r0, [sp, #120]	@ movhi
 123:lvgl/src/draw/../misc/lv_area.h ****     dest->x2 = src->x2;
 1094              		.loc 2 123 5 is_stmt 1 view .LVU408
 123:lvgl/src/draw/../misc/lv_area.h ****     dest->x2 = src->x2;
 1095              		.loc 2 123 19 is_stmt 0 view .LVU409
 1096 00fe B2F90210 		ldrsh	r1, [r2, #2]
 123:lvgl/src/draw/../misc/lv_area.h ****     dest->x2 = src->x2;
 1097              		.loc 2 123 14 view .LVU410
 1098 0102 ADF87A10 		strh	r1, [sp, #122]	@ movhi
 124:lvgl/src/draw/../misc/lv_area.h ****     dest->y2 = src->y2;
 1099              		.loc 2 124 5 is_stmt 1 view .LVU411
 124:lvgl/src/draw/../misc/lv_area.h ****     dest->y2 = src->y2;
 1100              		.loc 2 124 19 is_stmt 0 view .LVU412
 1101 0106 B2F90430 		ldrsh	r3, [r2, #4]
 124:lvgl/src/draw/../misc/lv_area.h ****     dest->y2 = src->y2;
 1102              		.loc 2 124 14 view .LVU413
 1103 010a ADF87C30 		strh	r3, [sp, #124]	@ movhi
 125:lvgl/src/draw/../misc/lv_area.h **** }
 1104              		.loc 2 125 5 is_stmt 1 view .LVU414
 125:lvgl/src/draw/../misc/lv_area.h **** }
 1105              		.loc 2 125 19 is_stmt 0 view .LVU415
 1106 010e B2F90620 		ldrsh	r2, [r2, #6]
 125:lvgl/src/draw/../misc/lv_area.h **** }
 1107              		.loc 2 125 14 view .LVU416
ARM GAS  /var/folders/k2/cd9bl_j17z77g23y6ffqb_400000gn/T//cc0jKSMI.s 			page 49


 1108 0112 ADF87E20 		strh	r2, [sp, #126]	@ movhi
 1109              	.LVL109:
 125:lvgl/src/draw/../misc/lv_area.h **** }
 1110              		.loc 2 125 14 view .LVU417
 1111              	.LBE210:
 1112              	.LBE209:
 589:lvgl/src/draw/lv_draw_rect.c ****     bg_coords.y1 += 1;
 1113              		.loc 1 589 5 is_stmt 1 view .LVU418
 589:lvgl/src/draw/lv_draw_rect.c ****     bg_coords.y1 += 1;
 1114              		.loc 1 589 18 is_stmt 0 view .LVU419
 1115 0116 0130     		adds	r0, r0, #1
 1116 0118 86B2     		uxth	r6, r0
 1117              	.LVL110:
 589:lvgl/src/draw/lv_draw_rect.c ****     bg_coords.y1 += 1;
 1118              		.loc 1 589 18 view .LVU420
 1119 011a ADF87860 		strh	r6, [sp, #120]	@ movhi
 590:lvgl/src/draw/lv_draw_rect.c ****     bg_coords.x2 -= 1;
 1120              		.loc 1 590 5 is_stmt 1 view .LVU421
 590:lvgl/src/draw/lv_draw_rect.c ****     bg_coords.x2 -= 1;
 1121              		.loc 1 590 18 is_stmt 0 view .LVU422
 1122 011e 0131     		adds	r1, r1, #1
 1123 0120 89B2     		uxth	r1, r1
 1124 0122 ADF87A10 		strh	r1, [sp, #122]	@ movhi
 591:lvgl/src/draw/lv_draw_rect.c ****     bg_coords.y2 -= 1;
 1125              		.loc 1 591 5 is_stmt 1 view .LVU423
 591:lvgl/src/draw/lv_draw_rect.c ****     bg_coords.y2 -= 1;
 1126              		.loc 1 591 18 is_stmt 0 view .LVU424
 1127 0126 013B     		subs	r3, r3, #1
 1128 0128 9BB2     		uxth	r3, r3
 1129 012a ADF87C30 		strh	r3, [sp, #124]	@ movhi
 592:lvgl/src/draw/lv_draw_rect.c **** 
 1130              		.loc 1 592 5 is_stmt 1 view .LVU425
 592:lvgl/src/draw/lv_draw_rect.c **** 
 1131              		.loc 1 592 18 is_stmt 0 view .LVU426
 1132 012e 013A     		subs	r2, r2, #1
 1133 0130 90B2     		uxth	r0, r2
 1134 0132 ADF87E00 		strh	r0, [sp, #126]	@ movhi
 595:lvgl/src/draw/lv_draw_rect.c ****     int32_t short_side = LV_MIN(lv_area_get_width(&bg_coords), lv_area_get_height(&bg_coords));
 1135              		.loc 1 595 5 is_stmt 1 view .LVU427
 595:lvgl/src/draw/lv_draw_rect.c ****     int32_t short_side = LV_MIN(lv_area_get_width(&bg_coords), lv_area_get_height(&bg_coords));
 1136              		.loc 1 595 23 is_stmt 0 view .LVU428
 1137 0136 B5F90020 		ldrsh	r2, [r5]
 1138              	.LVL111:
 596:lvgl/src/draw/lv_draw_rect.c ****     if(r_bg > short_side >> 1) r_bg = short_side >> 1;
 1139              		.loc 1 596 5 is_stmt 1 view .LVU429
 1140              	.LBB211:
 1141              	.LBI211:
 133:lvgl/src/draw/../misc/lv_area.h **** {
 1142              		.loc 2 133 26 view .LVU430
 1143              	.LBB212:
 135:lvgl/src/draw/../misc/lv_area.h **** }
 1144              		.loc 2 135 5 view .LVU431
 135:lvgl/src/draw/../misc/lv_area.h **** }
 1145              		.loc 2 135 36 is_stmt 0 view .LVU432
 1146 013a 9B1B     		subs	r3, r3, r6
 1147 013c 9BB2     		uxth	r3, r3
 135:lvgl/src/draw/../misc/lv_area.h **** }
ARM GAS  /var/folders/k2/cd9bl_j17z77g23y6ffqb_400000gn/T//cc0jKSMI.s 			page 50


 1148              		.loc 2 135 49 view .LVU433
 1149 013e 0133     		adds	r3, r3, #1
 135:lvgl/src/draw/../misc/lv_area.h **** }
 1150              		.loc 2 135 12 view .LVU434
 1151 0140 1BB2     		sxth	r3, r3
 1152              	.LVL112:
 135:lvgl/src/draw/../misc/lv_area.h **** }
 1153              		.loc 2 135 12 view .LVU435
 1154              	.LBE212:
 1155              	.LBE211:
 1156              	.LBB213:
 1157              	.LBI213:
 143:lvgl/src/draw/../misc/lv_area.h **** {
 1158              		.loc 2 143 26 is_stmt 1 view .LVU436
 1159              	.LBB214:
 1160              		.loc 2 145 5 view .LVU437
 1161              		.loc 2 145 36 is_stmt 0 view .LVU438
 1162 0142 411A     		subs	r1, r0, r1
 1163 0144 89B2     		uxth	r1, r1
 1164              		.loc 2 145 49 view .LVU439
 1165 0146 0131     		adds	r1, r1, #1
 1166              		.loc 2 145 12 view .LVU440
 1167 0148 09B2     		sxth	r1, r1
 1168              	.LVL113:
 1169              		.loc 2 145 12 view .LVU441
 1170              	.LBE214:
 1171              	.LBE213:
 596:lvgl/src/draw/lv_draw_rect.c ****     if(r_bg > short_side >> 1) r_bg = short_side >> 1;
 1172              		.loc 1 596 26 view .LVU442
 1173 014a 8B42     		cmp	r3, r1
 1174 014c 00DB     		blt	.L72
 1175              	.LVL114:
 1176              		.loc 2 145 5 is_stmt 1 view .LVU443
 596:lvgl/src/draw/lv_draw_rect.c ****     if(r_bg > short_side >> 1) r_bg = short_side >> 1;
 1177              		.loc 1 596 26 is_stmt 0 view .LVU444
 1178 014e 0B46     		mov	r3, r1
 1179              	.L72:
 1180              	.LVL115:
 597:lvgl/src/draw/lv_draw_rect.c **** 
 1181              		.loc 1 597 5 is_stmt 1 discriminator 4 view .LVU445
 597:lvgl/src/draw/lv_draw_rect.c **** 
 1182              		.loc 1 597 26 is_stmt 0 discriminator 4 view .LVU446
 1183 0150 5F10     		asrs	r7, r3, #1
 597:lvgl/src/draw/lv_draw_rect.c **** 
 1184              		.loc 1 597 7 discriminator 4 view .LVU447
 1185 0152 B2EB630F 		cmp	r2, r3, asr #1
 1186 0156 00DC     		bgt	.L73
 595:lvgl/src/draw/lv_draw_rect.c ****     int32_t short_side = LV_MIN(lv_area_get_width(&bg_coords), lv_area_get_height(&bg_coords));
 1187              		.loc 1 595 13 view .LVU448
 1188 0158 1746     		mov	r7, r2
 1189              	.L73:
 1190              	.LVL116:
 599:lvgl/src/draw/lv_draw_rect.c ****     short_side = LV_MIN(lv_area_get_width(&sh_rect_area), lv_area_get_height(&sh_rect_area));
 1191              		.loc 1 599 5 is_stmt 1 view .LVU449
 600:lvgl/src/draw/lv_draw_rect.c ****     if(r_sh > short_side >> 1) r_sh = short_side >> 1;
 1192              		.loc 1 600 5 view .LVU450
 1193              	.LBB215:
ARM GAS  /var/folders/k2/cd9bl_j17z77g23y6ffqb_400000gn/T//cc0jKSMI.s 			page 51


 1194              	.LBI215:
 133:lvgl/src/draw/../misc/lv_area.h **** {
 1195              		.loc 2 133 26 view .LVU451
 1196              	.LBB216:
 135:lvgl/src/draw/../misc/lv_area.h **** }
 1197              		.loc 2 135 5 view .LVU452
 135:lvgl/src/draw/../misc/lv_area.h **** }
 1198              		.loc 2 135 31 is_stmt 0 view .LVU453
 1199 015a BDF89430 		ldrh	r3, [sp, #148]
 1200              	.LVL117:
 135:lvgl/src/draw/../misc/lv_area.h **** }
 1201              		.loc 2 135 44 view .LVU454
 1202 015e BDF89010 		ldrh	r1, [sp, #144]
 135:lvgl/src/draw/../misc/lv_area.h **** }
 1203              		.loc 2 135 36 view .LVU455
 1204 0162 5B1A     		subs	r3, r3, r1
 1205 0164 9BB2     		uxth	r3, r3
 135:lvgl/src/draw/../misc/lv_area.h **** }
 1206              		.loc 2 135 49 view .LVU456
 1207 0166 0133     		adds	r3, r3, #1
 135:lvgl/src/draw/../misc/lv_area.h **** }
 1208              		.loc 2 135 12 view .LVU457
 1209 0168 19B2     		sxth	r1, r3
 1210              	.LVL118:
 135:lvgl/src/draw/../misc/lv_area.h **** }
 1211              		.loc 2 135 12 view .LVU458
 1212              	.LBE216:
 1213              	.LBE215:
 1214              	.LBB217:
 1215              	.LBI217:
 143:lvgl/src/draw/../misc/lv_area.h **** {
 1216              		.loc 2 143 26 is_stmt 1 view .LVU459
 1217              	.LBB218:
 1218              		.loc 2 145 5 view .LVU460
 1219              		.loc 2 145 31 is_stmt 0 view .LVU461
 1220 016a BDF89630 		ldrh	r3, [sp, #150]
 1221              		.loc 2 145 44 view .LVU462
 1222 016e BDF89200 		ldrh	r0, [sp, #146]
 1223              		.loc 2 145 36 view .LVU463
 1224 0172 1B1A     		subs	r3, r3, r0
 1225 0174 9BB2     		uxth	r3, r3
 1226              		.loc 2 145 49 view .LVU464
 1227 0176 0133     		adds	r3, r3, #1
 1228              		.loc 2 145 12 view .LVU465
 1229 0178 1BB2     		sxth	r3, r3
 1230              	.LVL119:
 1231              		.loc 2 145 12 view .LVU466
 1232              	.LBE218:
 1233              	.LBE217:
 600:lvgl/src/draw/lv_draw_rect.c ****     if(r_sh > short_side >> 1) r_sh = short_side >> 1;
 1234              		.loc 1 600 18 view .LVU467
 1235 017a 8B42     		cmp	r3, r1
 1236 017c 00DD     		ble	.L75
 1237              	.LVL120:
 135:lvgl/src/draw/../misc/lv_area.h **** }
 1238              		.loc 2 135 5 is_stmt 1 view .LVU468
 600:lvgl/src/draw/lv_draw_rect.c ****     if(r_sh > short_side >> 1) r_sh = short_side >> 1;
ARM GAS  /var/folders/k2/cd9bl_j17z77g23y6ffqb_400000gn/T//cc0jKSMI.s 			page 52


 1239              		.loc 1 600 18 is_stmt 0 view .LVU469
 1240 017e 0B46     		mov	r3, r1
 1241              	.L75:
 1242              	.LVL121:
 601:lvgl/src/draw/lv_draw_rect.c **** 
 1243              		.loc 1 601 5 is_stmt 1 discriminator 4 view .LVU470
 601:lvgl/src/draw/lv_draw_rect.c **** 
 1244              		.loc 1 601 26 is_stmt 0 discriminator 4 view .LVU471
 1245 0180 5E10     		asrs	r6, r3, #1
 601:lvgl/src/draw/lv_draw_rect.c **** 
 1246              		.loc 1 601 7 discriminator 4 view .LVU472
 1247 0182 B2EB630F 		cmp	r2, r3, asr #1
 1248 0186 00DC     		bgt	.L76
 599:lvgl/src/draw/lv_draw_rect.c ****     short_side = LV_MIN(lv_area_get_width(&sh_rect_area), lv_area_get_height(&sh_rect_area));
 1249              		.loc 1 599 13 view .LVU473
 1250 0188 1646     		mov	r6, r2
 1251              	.L76:
 1252              	.LVL122:
 603:lvgl/src/draw/lv_draw_rect.c **** 
 1253              		.loc 1 603 5 is_stmt 1 view .LVU474
 603:lvgl/src/draw/lv_draw_rect.c **** 
 1254              		.loc 1 603 13 is_stmt 0 view .LVU475
 1255 018a 3444     		add	r4, r4, r6
 1256              	.LVL123:
 605:lvgl/src/draw/lv_draw_rect.c **** 
 1257              		.loc 1 605 5 is_stmt 1 view .LVU476
 626:lvgl/src/draw/lv_draw_rect.c ****     shadow_draw_corner_buf(&sh_rect_area, (uint16_t *)sh_buf, dsc->shadow_width, r_sh);
 1258              		.loc 1 626 5 view .LVU477
 626:lvgl/src/draw/lv_draw_rect.c ****     shadow_draw_corner_buf(&sh_rect_area, (uint16_t *)sh_buf, dsc->shadow_width, r_sh);
 1259              		.loc 1 626 41 is_stmt 0 view .LVU478
 1260 018c 04FB04F0 		mul	r0, r4, r4
 626:lvgl/src/draw/lv_draw_rect.c ****     shadow_draw_corner_buf(&sh_rect_area, (uint16_t *)sh_buf, dsc->shadow_width, r_sh);
 1261              		.loc 1 626 14 view .LVU479
 1262 0190 4000     		lsls	r0, r0, #1
 1263 0192 FFF7FEFF 		bl	lv_mem_buf_get
 1264              	.LVL124:
 626:lvgl/src/draw/lv_draw_rect.c ****     shadow_draw_corner_buf(&sh_rect_area, (uint16_t *)sh_buf, dsc->shadow_width, r_sh);
 1265              		.loc 1 626 14 view .LVU480
 1266 0196 0146     		mov	r1, r0
 1267 0198 0790     		str	r0, [sp, #28]
 1268              	.LVL125:
 627:lvgl/src/draw/lv_draw_rect.c **** #endif
 1269              		.loc 1 627 5 is_stmt 1 view .LVU481
 1270 019a 33B2     		sxth	r3, r6
 1271 019c B5F93820 		ldrsh	r2, [r5, #56]
 1272 01a0 24A8     		add	r0, sp, #144
 1273              	.LVL126:
 627:lvgl/src/draw/lv_draw_rect.c **** #endif
 1274              		.loc 1 627 5 is_stmt 0 view .LVU482
 1275 01a2 FFF7FEFF 		bl	shadow_draw_corner_buf
 1276              	.LVL127:
 630:lvgl/src/draw/lv_draw_rect.c ****     lv_coord_t w_half = sh_area.x1 + lv_area_get_width(&sh_area) / 2;
 1277              		.loc 1 630 5 is_stmt 1 view .LVU483
 630:lvgl/src/draw/lv_draw_rect.c ****     lv_coord_t w_half = sh_area.x1 + lv_area_get_width(&sh_area) / 2;
 1278              		.loc 1 630 32 is_stmt 0 view .LVU484
 1279 01a6 BDF88A20 		ldrh	r2, [sp, #138]
 1280              	.LVL128:
ARM GAS  /var/folders/k2/cd9bl_j17z77g23y6ffqb_400000gn/T//cc0jKSMI.s 			page 53


 1281              	.LBB219:
 1282              	.LBI219:
 143:lvgl/src/draw/../misc/lv_area.h **** {
 1283              		.loc 2 143 26 is_stmt 1 view .LVU485
 1284              	.LBB220:
 1285              		.loc 2 145 5 view .LVU486
 1286              		.loc 2 145 31 is_stmt 0 view .LVU487
 1287 01aa BDF88E30 		ldrh	r3, [sp, #142]
 1288              		.loc 2 145 36 view .LVU488
 1289 01ae 9B1A     		subs	r3, r3, r2
 1290 01b0 9BB2     		uxth	r3, r3
 1291              		.loc 2 145 49 view .LVU489
 1292 01b2 0133     		adds	r3, r3, #1
 1293              	.LVL129:
 1294              		.loc 2 145 49 view .LVU490
 1295              	.LBE220:
 1296              	.LBE219:
 630:lvgl/src/draw/lv_draw_rect.c ****     lv_coord_t w_half = sh_area.x1 + lv_area_get_width(&sh_area) / 2;
 1297              		.loc 1 630 36 view .LVU491
 1298 01b4 C3F3C031 		ubfx	r1, r3, #15, #1
 1299 01b8 01FA83F3 		sxtah	r3, r1, r3
 1300 01bc 02EB6303 		add	r3, r2, r3, asr #1
 1301 01c0 9AB2     		uxth	r2, r3
 1302 01c2 0C92     		str	r2, [sp, #48]
 630:lvgl/src/draw/lv_draw_rect.c ****     lv_coord_t w_half = sh_area.x1 + lv_area_get_width(&sh_area) / 2;
 1303              		.loc 1 630 16 view .LVU492
 1304 01c4 1BB2     		sxth	r3, r3
 1305 01c6 0B93     		str	r3, [sp, #44]
 1306              	.LVL130:
 631:lvgl/src/draw/lv_draw_rect.c **** 
 1307              		.loc 1 631 5 is_stmt 1 view .LVU493
 631:lvgl/src/draw/lv_draw_rect.c **** 
 1308              		.loc 1 631 32 is_stmt 0 view .LVU494
 1309 01c8 BDF88820 		ldrh	r2, [sp, #136]
 1310              	.LVL131:
 1311              	.LBB221:
 1312              	.LBI221:
 133:lvgl/src/draw/../misc/lv_area.h **** {
 1313              		.loc 2 133 26 is_stmt 1 view .LVU495
 1314              	.LBB222:
 135:lvgl/src/draw/../misc/lv_area.h **** }
 1315              		.loc 2 135 5 view .LVU496
 135:lvgl/src/draw/../misc/lv_area.h **** }
 1316              		.loc 2 135 31 is_stmt 0 view .LVU497
 1317 01cc BDF88C30 		ldrh	r3, [sp, #140]
 135:lvgl/src/draw/../misc/lv_area.h **** }
 1318              		.loc 2 135 36 view .LVU498
 1319 01d0 9B1A     		subs	r3, r3, r2
 1320 01d2 9BB2     		uxth	r3, r3
 135:lvgl/src/draw/../misc/lv_area.h **** }
 1321              		.loc 2 135 49 view .LVU499
 1322 01d4 0133     		adds	r3, r3, #1
 1323              	.LVL132:
 135:lvgl/src/draw/../misc/lv_area.h **** }
 1324              		.loc 2 135 49 view .LVU500
 1325              	.LBE222:
 1326              	.LBE221:
ARM GAS  /var/folders/k2/cd9bl_j17z77g23y6ffqb_400000gn/T//cc0jKSMI.s 			page 54


 631:lvgl/src/draw/lv_draw_rect.c **** 
 1327              		.loc 1 631 36 view .LVU501
 1328 01d6 C3F3C031 		ubfx	r1, r3, #15, #1
 1329 01da 01FA83F3 		sxtah	r3, r1, r3
 1330 01de 02EB6303 		add	r3, r2, r3, asr #1
 1331 01e2 9AB2     		uxth	r2, r3
 1332 01e4 0D92     		str	r2, [sp, #52]
 631:lvgl/src/draw/lv_draw_rect.c **** 
 1333              		.loc 1 631 16 view .LVU502
 1334 01e6 1BB2     		sxth	r3, r3
 1335 01e8 0A93     		str	r3, [sp, #40]
 1336              	.LVL133:
 633:lvgl/src/draw/lv_draw_rect.c ****     if(lv_draw_mask_get_cnt() > 0) simple_mode = false;
 1337              		.loc 1 633 5 is_stmt 1 view .LVU503
 634:lvgl/src/draw/lv_draw_rect.c ****     else if(dsc->shadow_ofs_x != 0 || dsc->shadow_ofs_y != 0) simple_mode = false;
 1338              		.loc 1 634 5 view .LVU504
 634:lvgl/src/draw/lv_draw_rect.c ****     else if(dsc->shadow_ofs_x != 0 || dsc->shadow_ofs_y != 0) simple_mode = false;
 1339              		.loc 1 634 8 is_stmt 0 view .LVU505
 1340 01ea FFF7FEFF 		bl	lv_draw_mask_get_cnt
 1341              	.LVL134:
 634:lvgl/src/draw/lv_draw_rect.c ****     else if(dsc->shadow_ofs_x != 0 || dsc->shadow_ofs_y != 0) simple_mode = false;
 1342              		.loc 1 634 7 view .LVU506
 1343 01ee D0B9     		cbnz	r0, .L139
 635:lvgl/src/draw/lv_draw_rect.c ****     else if(dsc->shadow_spread != 0) simple_mode = false;
 1344              		.loc 1 635 10 is_stmt 1 view .LVU507
 635:lvgl/src/draw/lv_draw_rect.c ****     else if(dsc->shadow_spread != 0) simple_mode = false;
 1345              		.loc 1 635 16 is_stmt 0 view .LVU508
 1346 01f0 B5F93A30 		ldrsh	r3, [r5, #58]
 635:lvgl/src/draw/lv_draw_rect.c ****     else if(dsc->shadow_spread != 0) simple_mode = false;
 1347              		.loc 1 635 12 view .LVU509
 1348 01f4 002B     		cmp	r3, #0
 1349 01f6 40F08780 		bne	.L140
 635:lvgl/src/draw/lv_draw_rect.c ****     else if(dsc->shadow_spread != 0) simple_mode = false;
 1350              		.loc 1 635 42 discriminator 2 view .LVU510
 1351 01fa B5F93C30 		ldrsh	r3, [r5, #60]
 635:lvgl/src/draw/lv_draw_rect.c ****     else if(dsc->shadow_spread != 0) simple_mode = false;
 1352              		.loc 1 635 36 discriminator 2 view .LVU511
 1353 01fe 002B     		cmp	r3, #0
 1354 0200 40F08580 		bne	.L141
 636:lvgl/src/draw/lv_draw_rect.c **** 
 1355              		.loc 1 636 10 is_stmt 1 view .LVU512
 636:lvgl/src/draw/lv_draw_rect.c **** 
 1356              		.loc 1 636 16 is_stmt 0 view .LVU513
 1357 0204 B5F93E30 		ldrsh	r3, [r5, #62]
 636:lvgl/src/draw/lv_draw_rect.c **** 
 1358              		.loc 1 636 12 view .LVU514
 1359 0208 7BB1     		cbz	r3, .L77
 636:lvgl/src/draw/lv_draw_rect.c **** 
 1360              		.loc 1 636 50 view .LVU515
 1361 020a 0023     		movs	r3, #0
 1362 020c 0693     		str	r3, [sp, #24]
 1363 020e 0CE0     		b	.L77
 1364              	.LVL135:
 1365              	.L158:
 545:lvgl/src/draw/lv_draw_rect.c ****         return;
 1366              		.loc 1 545 11 discriminator 1 view .LVU516
 1367 0210 B2F93C30 		ldrsh	r3, [r2, #60]
ARM GAS  /var/folders/k2/cd9bl_j17z77g23y6ffqb_400000gn/T//cc0jKSMI.s 			page 55


 544:lvgl/src/draw/lv_draw_rect.c ****        dsc->shadow_ofs_y == 0 && dsc->shadow_spread <= 0) {
 1368              		.loc 1 544 57 discriminator 1 view .LVU517
 1369 0214 002B     		cmp	r3, #0
 1370 0216 7FF408AF 		bne	.L69
 545:lvgl/src/draw/lv_draw_rect.c ****         return;
 1371              		.loc 1 545 37 view .LVU518
 1372 021a B2F93E30 		ldrsh	r3, [r2, #62]
 545:lvgl/src/draw/lv_draw_rect.c ****         return;
 1373              		.loc 1 545 31 view .LVU519
 1374 021e 002B     		cmp	r3, #0
 1375 0220 3FF703AF 		bgt	.L69
 1376 0224 C7E2     		b	.L67
 1377              	.LVL136:
 1378              	.L139:
 634:lvgl/src/draw/lv_draw_rect.c ****     else if(dsc->shadow_ofs_x != 0 || dsc->shadow_ofs_y != 0) simple_mode = false;
 1379              		.loc 1 634 48 view .LVU520
 1380 0226 0023     		movs	r3, #0
 1381 0228 0693     		str	r3, [sp, #24]
 1382              	.L77:
 1383              	.LVL137:
 639:lvgl/src/draw/lv_draw_rect.c ****     lv_opa_t * mask_buf = lv_mem_buf_get(lv_area_get_width(&sh_area));
 1384              		.loc 1 639 5 is_stmt 1 view .LVU521
 640:lvgl/src/draw/lv_draw_rect.c **** 
 1385              		.loc 1 640 5 view .LVU522
 1386              	.LBB223:
 1387              	.LBI223:
 133:lvgl/src/draw/../misc/lv_area.h **** {
 1388              		.loc 2 133 26 view .LVU523
 1389              	.LBB224:
 135:lvgl/src/draw/../misc/lv_area.h **** }
 1390              		.loc 2 135 5 view .LVU524
 135:lvgl/src/draw/../misc/lv_area.h **** }
 1391              		.loc 2 135 31 is_stmt 0 view .LVU525
 1392 022a BDF88C00 		ldrh	r0, [sp, #140]
 135:lvgl/src/draw/../misc/lv_area.h **** }
 1393              		.loc 2 135 44 view .LVU526
 1394 022e BDF88830 		ldrh	r3, [sp, #136]
 135:lvgl/src/draw/../misc/lv_area.h **** }
 1395              		.loc 2 135 36 view .LVU527
 1396 0232 C01A     		subs	r0, r0, r3
 1397 0234 80B2     		uxth	r0, r0
 135:lvgl/src/draw/../misc/lv_area.h **** }
 1398              		.loc 2 135 49 view .LVU528
 1399 0236 0130     		adds	r0, r0, #1
 1400              	.LVL138:
 135:lvgl/src/draw/../misc/lv_area.h **** }
 1401              		.loc 2 135 49 view .LVU529
 1402              	.LBE224:
 1403              	.LBE223:
 640:lvgl/src/draw/lv_draw_rect.c **** 
 1404              		.loc 1 640 27 view .LVU530
 1405 0238 00B2     		sxth	r0, r0
 1406 023a FFF7FEFF 		bl	lv_mem_buf_get
 1407              	.LVL139:
 1408 023e 0646     		mov	r6, r0
 1409              	.LVL140:
 642:lvgl/src/draw/lv_draw_rect.c ****     lv_draw_mask_radius_init(&mask_rout_param, &bg_coords, r_bg, true);
ARM GAS  /var/folders/k2/cd9bl_j17z77g23y6ffqb_400000gn/T//cc0jKSMI.s 			page 56


 1410              		.loc 1 642 5 is_stmt 1 view .LVU531
 643:lvgl/src/draw/lv_draw_rect.c **** 
 1411              		.loc 1 643 5 view .LVU532
 1412 0240 3BB2     		sxth	r3, r7
 1413 0242 1A46     		mov	r2, r3
 1414 0244 0893     		str	r3, [sp, #32]
 1415 0246 0123     		movs	r3, #1
 1416 0248 1EA9     		add	r1, sp, #120
 1417 024a 17A8     		add	r0, sp, #92
 1418              	.LVL141:
 643:lvgl/src/draw/lv_draw_rect.c **** 
 1419              		.loc 1 643 5 is_stmt 0 view .LVU533
 1420 024c FFF7FEFF 		bl	lv_draw_mask_radius_init
 1421              	.LVL142:
 645:lvgl/src/draw/lv_draw_rect.c **** 
 1422              		.loc 1 645 5 is_stmt 1 view .LVU534
 645:lvgl/src/draw/lv_draw_rect.c **** 
 1423              		.loc 1 645 28 is_stmt 0 view .LVU535
 1424 0250 0021     		movs	r1, #0
 1425 0252 17A8     		add	r0, sp, #92
 1426 0254 FFF7FEFF 		bl	lv_draw_mask_add
 1427              	.LVL143:
 1428 0258 0990     		str	r0, [sp, #36]
 1429              	.LVL144:
 647:lvgl/src/draw/lv_draw_rect.c **** 
 1430              		.loc 1 647 5 is_stmt 1 view .LVU536
 650:lvgl/src/draw/lv_draw_rect.c ****     lv_opa_t * sh_buf_tmp;
 1431              		.loc 1 650 5 view .LVU537
 651:lvgl/src/draw/lv_draw_rect.c ****     a.x2 = sh_area.x2;
 1432              		.loc 1 651 5 view .LVU538
 652:lvgl/src/draw/lv_draw_rect.c ****     a.x1 = a.x2 - corner_size + 1;
 1433              		.loc 1 652 5 view .LVU539
 652:lvgl/src/draw/lv_draw_rect.c ****     a.x1 = a.x2 - corner_size + 1;
 1434              		.loc 1 652 19 is_stmt 0 view .LVU540
 1435 025a BDF98C30 		ldrsh	r3, [sp, #140]
 652:lvgl/src/draw/lv_draw_rect.c ****     a.x1 = a.x2 - corner_size + 1;
 1436              		.loc 1 652 10 view .LVU541
 1437 025e ADF85830 		strh	r3, [sp, #88]	@ movhi
 653:lvgl/src/draw/lv_draw_rect.c ****     a.y1 = sh_area.y1;
 1438              		.loc 1 653 5 is_stmt 1 view .LVU542
 653:lvgl/src/draw/lv_draw_rect.c ****     a.y1 = sh_area.y1;
 1439              		.loc 1 653 13 is_stmt 0 view .LVU543
 1440 0262 9BB2     		uxth	r3, r3
 653:lvgl/src/draw/lv_draw_rect.c ****     a.y1 = sh_area.y1;
 1441              		.loc 1 653 17 view .LVU544
 1442 0264 A7B2     		uxth	r7, r4
 1443              	.LVL145:
 653:lvgl/src/draw/lv_draw_rect.c ****     a.y1 = sh_area.y1;
 1444              		.loc 1 653 17 view .LVU545
 1445 0266 DB1B     		subs	r3, r3, r7
 1446 0268 9BB2     		uxth	r3, r3
 653:lvgl/src/draw/lv_draw_rect.c ****     a.y1 = sh_area.y1;
 1447              		.loc 1 653 31 view .LVU546
 1448 026a 0133     		adds	r3, r3, #1
 653:lvgl/src/draw/lv_draw_rect.c ****     a.y1 = sh_area.y1;
 1449              		.loc 1 653 10 view .LVU547
 1450 026c ADF85430 		strh	r3, [sp, #84]	@ movhi
ARM GAS  /var/folders/k2/cd9bl_j17z77g23y6ffqb_400000gn/T//cc0jKSMI.s 			page 57


 654:lvgl/src/draw/lv_draw_rect.c ****     a.y2 = a.y1 + corner_size - 1;
 1451              		.loc 1 654 5 is_stmt 1 view .LVU548
 654:lvgl/src/draw/lv_draw_rect.c ****     a.y2 = a.y1 + corner_size - 1;
 1452              		.loc 1 654 19 is_stmt 0 view .LVU549
 1453 0270 BDF98A30 		ldrsh	r3, [sp, #138]
 654:lvgl/src/draw/lv_draw_rect.c ****     a.y2 = a.y1 + corner_size - 1;
 1454              		.loc 1 654 10 view .LVU550
 1455 0274 ADF85630 		strh	r3, [sp, #86]	@ movhi
 655:lvgl/src/draw/lv_draw_rect.c **** 
 1456              		.loc 1 655 5 is_stmt 1 view .LVU551
 655:lvgl/src/draw/lv_draw_rect.c **** 
 1457              		.loc 1 655 17 is_stmt 0 view .LVU552
 1458 0278 17FA83F3 		uxtah	r3, r7, r3
 1459 027c 9BB2     		uxth	r3, r3
 655:lvgl/src/draw/lv_draw_rect.c **** 
 1460              		.loc 1 655 31 view .LVU553
 1461 027e 013B     		subs	r3, r3, #1
 655:lvgl/src/draw/lv_draw_rect.c **** 
 1462              		.loc 1 655 10 view .LVU554
 1463 0280 ADF85A30 		strh	r3, [sp, #90]	@ movhi
 657:lvgl/src/draw/lv_draw_rect.c ****     bool has_com = _lv_area_intersect(&ca, &a, clip);
 1464              		.loc 1 657 5 is_stmt 1 view .LVU555
 658:lvgl/src/draw/lv_draw_rect.c ****     if(has_com && _lv_area_is_in(&a, &bg_coords, r_bg) == false) {
 1465              		.loc 1 658 5 view .LVU556
 658:lvgl/src/draw/lv_draw_rect.c ****     if(has_com && _lv_area_is_in(&a, &bg_coords, r_bg) == false) {
 1466              		.loc 1 658 20 is_stmt 0 view .LVU557
 1467 0284 5246     		mov	r2, r10
 1468 0286 15A9     		add	r1, sp, #84
 1469 0288 13A8     		add	r0, sp, #76
 1470 028a FFF7FEFF 		bl	_lv_area_intersect
 1471              	.LVL146:
 659:lvgl/src/draw/lv_draw_rect.c ****         /*Avoid overlap in the middle with large radius*/
 1472              		.loc 1 659 5 is_stmt 1 view .LVU558
 659:lvgl/src/draw/lv_draw_rect.c ****         /*Avoid overlap in the middle with large radius*/
 1473              		.loc 1 659 7 is_stmt 0 view .LVU559
 1474 028e 0028     		cmp	r0, #0
 1475 0290 40D1     		bne	.L159
 1476              	.LVL147:
 1477              	.L78:
 689:lvgl/src/draw/lv_draw_rect.c ****     a.x1 = a.x2 - corner_size + 1;
 1478              		.loc 1 689 5 is_stmt 1 view .LVU560
 689:lvgl/src/draw/lv_draw_rect.c ****     a.x1 = a.x2 - corner_size + 1;
 1479              		.loc 1 689 19 is_stmt 0 view .LVU561
 1480 0292 BDF98C30 		ldrsh	r3, [sp, #140]
 689:lvgl/src/draw/lv_draw_rect.c ****     a.x1 = a.x2 - corner_size + 1;
 1481              		.loc 1 689 10 view .LVU562
 1482 0296 ADF85830 		strh	r3, [sp, #88]	@ movhi
 690:lvgl/src/draw/lv_draw_rect.c ****     a.y1 = sh_area.y2 - corner_size + 1;
 1483              		.loc 1 690 5 is_stmt 1 view .LVU563
 690:lvgl/src/draw/lv_draw_rect.c ****     a.y1 = sh_area.y2 - corner_size + 1;
 1484              		.loc 1 690 13 is_stmt 0 view .LVU564
 1485 029a 9BB2     		uxth	r3, r3
 690:lvgl/src/draw/lv_draw_rect.c ****     a.y1 = sh_area.y2 - corner_size + 1;
 1486              		.loc 1 690 17 view .LVU565
 1487 029c DB1B     		subs	r3, r3, r7
 1488 029e 9BB2     		uxth	r3, r3
 690:lvgl/src/draw/lv_draw_rect.c ****     a.y1 = sh_area.y2 - corner_size + 1;
ARM GAS  /var/folders/k2/cd9bl_j17z77g23y6ffqb_400000gn/T//cc0jKSMI.s 			page 58


 1489              		.loc 1 690 31 view .LVU566
 1490 02a0 0133     		adds	r3, r3, #1
 690:lvgl/src/draw/lv_draw_rect.c ****     a.y1 = sh_area.y2 - corner_size + 1;
 1491              		.loc 1 690 10 view .LVU567
 1492 02a2 ADF85430 		strh	r3, [sp, #84]	@ movhi
 691:lvgl/src/draw/lv_draw_rect.c ****     a.y2 = sh_area.y2;
 1493              		.loc 1 691 5 is_stmt 1 view .LVU568
 691:lvgl/src/draw/lv_draw_rect.c ****     a.y2 = sh_area.y2;
 1494              		.loc 1 691 19 is_stmt 0 view .LVU569
 1495 02a6 BDF98E20 		ldrsh	r2, [sp, #142]
 1496 02aa 93B2     		uxth	r3, r2
 691:lvgl/src/draw/lv_draw_rect.c ****     a.y2 = sh_area.y2;
 1497              		.loc 1 691 23 view .LVU570
 1498 02ac DB1B     		subs	r3, r3, r7
 1499 02ae 9BB2     		uxth	r3, r3
 691:lvgl/src/draw/lv_draw_rect.c ****     a.y2 = sh_area.y2;
 1500              		.loc 1 691 37 view .LVU571
 1501 02b0 0133     		adds	r3, r3, #1
 691:lvgl/src/draw/lv_draw_rect.c ****     a.y2 = sh_area.y2;
 1502              		.loc 1 691 10 view .LVU572
 1503 02b2 ADF85630 		strh	r3, [sp, #86]	@ movhi
 692:lvgl/src/draw/lv_draw_rect.c **** 
 1504              		.loc 1 692 5 is_stmt 1 view .LVU573
 692:lvgl/src/draw/lv_draw_rect.c **** 
 1505              		.loc 1 692 10 is_stmt 0 view .LVU574
 1506 02b6 ADF85A20 		strh	r2, [sp, #90]	@ movhi
 694:lvgl/src/draw/lv_draw_rect.c ****     if(has_com && _lv_area_is_in(&a, &bg_coords, r_bg) == false) {
 1507              		.loc 1 694 5 is_stmt 1 view .LVU575
 694:lvgl/src/draw/lv_draw_rect.c ****     if(has_com && _lv_area_is_in(&a, &bg_coords, r_bg) == false) {
 1508              		.loc 1 694 15 is_stmt 0 view .LVU576
 1509 02ba 5246     		mov	r2, r10
 1510 02bc 15A9     		add	r1, sp, #84
 1511 02be 13A8     		add	r0, sp, #76
 1512 02c0 FFF7FEFF 		bl	_lv_area_intersect
 1513              	.LVL148:
 695:lvgl/src/draw/lv_draw_rect.c ****         /*Avoid overlap in the middle with large radius*/
 1514              		.loc 1 695 5 is_stmt 1 view .LVU577
 695:lvgl/src/draw/lv_draw_rect.c ****         /*Avoid overlap in the middle with large radius*/
 1515              		.loc 1 695 7 is_stmt 0 view .LVU578
 1516 02c4 0028     		cmp	r0, #0
 1517 02c6 40F0A380 		bne	.L160
 1518              	.LVL149:
 1519              	.L84:
 726:lvgl/src/draw/lv_draw_rect.c ****     a.x1 = a.x2 - corner_size + 1;
 1520              		.loc 1 726 5 is_stmt 1 view .LVU579
 726:lvgl/src/draw/lv_draw_rect.c ****     a.x1 = a.x2 - corner_size + 1;
 1521              		.loc 1 726 19 is_stmt 0 view .LVU580
 1522 02ca BDF98C30 		ldrsh	r3, [sp, #140]
 726:lvgl/src/draw/lv_draw_rect.c ****     a.x1 = a.x2 - corner_size + 1;
 1523              		.loc 1 726 10 view .LVU581
 1524 02ce ADF85830 		strh	r3, [sp, #88]	@ movhi
 727:lvgl/src/draw/lv_draw_rect.c ****     a.y1 = sh_area.y1 + corner_size;
 1525              		.loc 1 727 5 is_stmt 1 view .LVU582
 727:lvgl/src/draw/lv_draw_rect.c ****     a.y1 = sh_area.y1 + corner_size;
 1526              		.loc 1 727 13 is_stmt 0 view .LVU583
 1527 02d2 9BB2     		uxth	r3, r3
 727:lvgl/src/draw/lv_draw_rect.c ****     a.y1 = sh_area.y1 + corner_size;
ARM GAS  /var/folders/k2/cd9bl_j17z77g23y6ffqb_400000gn/T//cc0jKSMI.s 			page 59


 1528              		.loc 1 727 17 view .LVU584
 1529 02d4 DB1B     		subs	r3, r3, r7
 1530 02d6 9BB2     		uxth	r3, r3
 727:lvgl/src/draw/lv_draw_rect.c ****     a.y1 = sh_area.y1 + corner_size;
 1531              		.loc 1 727 31 view .LVU585
 1532 02d8 0133     		adds	r3, r3, #1
 727:lvgl/src/draw/lv_draw_rect.c ****     a.y1 = sh_area.y1 + corner_size;
 1533              		.loc 1 727 10 view .LVU586
 1534 02da ADF85430 		strh	r3, [sp, #84]	@ movhi
 728:lvgl/src/draw/lv_draw_rect.c ****     a.y2 = sh_area.y2 - corner_size;
 1535              		.loc 1 728 5 is_stmt 1 view .LVU587
 728:lvgl/src/draw/lv_draw_rect.c ****     a.y2 = sh_area.y2 - corner_size;
 1536              		.loc 1 728 19 is_stmt 0 view .LVU588
 1537 02de BDF88A30 		ldrh	r3, [sp, #138]
 728:lvgl/src/draw/lv_draw_rect.c ****     a.y2 = sh_area.y2 - corner_size;
 1538              		.loc 1 728 23 view .LVU589
 1539 02e2 3B44     		add	r3, r3, r7
 728:lvgl/src/draw/lv_draw_rect.c ****     a.y2 = sh_area.y2 - corner_size;
 1540              		.loc 1 728 10 view .LVU590
 1541 02e4 ADF85630 		strh	r3, [sp, #86]	@ movhi
 729:lvgl/src/draw/lv_draw_rect.c **** 
 1542              		.loc 1 729 5 is_stmt 1 view .LVU591
 729:lvgl/src/draw/lv_draw_rect.c **** 
 1543              		.loc 1 729 19 is_stmt 0 view .LVU592
 1544 02e8 BDF88E30 		ldrh	r3, [sp, #142]
 729:lvgl/src/draw/lv_draw_rect.c **** 
 1545              		.loc 1 729 23 view .LVU593
 1546 02ec DB1B     		subs	r3, r3, r7
 729:lvgl/src/draw/lv_draw_rect.c **** 
 1547              		.loc 1 729 10 view .LVU594
 1548 02ee ADF85A30 		strh	r3, [sp, #90]	@ movhi
 731:lvgl/src/draw/lv_draw_rect.c ****     if(has_com && _lv_area_is_in(&a, &bg_coords, r_bg) == false) {
 1549              		.loc 1 731 5 is_stmt 1 view .LVU595
 731:lvgl/src/draw/lv_draw_rect.c ****     if(has_com && _lv_area_is_in(&a, &bg_coords, r_bg) == false) {
 1550              		.loc 1 731 15 is_stmt 0 view .LVU596
 1551 02f2 5246     		mov	r2, r10
 1552 02f4 15A9     		add	r1, sp, #84
 1553 02f6 13A8     		add	r0, sp, #76
 1554 02f8 FFF7FEFF 		bl	_lv_area_intersect
 1555              	.LVL150:
 732:lvgl/src/draw/lv_draw_rect.c ****         /*Avoid overlap in the middle with large radius*/
 1556              		.loc 1 732 5 is_stmt 1 view .LVU597
 732:lvgl/src/draw/lv_draw_rect.c ****         /*Avoid overlap in the middle with large radius*/
 1557              		.loc 1 732 7 is_stmt 0 view .LVU598
 1558 02fc 0028     		cmp	r0, #0
 1559 02fe 40F00481 		bne	.L161
 1560              	.LVL151:
 1561              	.L90:
 1562              	.LBB225:
 774:lvgl/src/draw/lv_draw_rect.c ****             lv_opa_t tmp = sh_buf_tmp[x];
 1563              		.loc 1 774 15 discriminator 1 view .LVU599
 1564 0302 0799     		ldr	r1, [sp, #28]
 1565 0304 0020     		movs	r0, #0
 1566 0306 9FE1     		b	.L97
 1567              	.LVL152:
 1568              	.L140:
 774:lvgl/src/draw/lv_draw_rect.c ****             lv_opa_t tmp = sh_buf_tmp[x];
ARM GAS  /var/folders/k2/cd9bl_j17z77g23y6ffqb_400000gn/T//cc0jKSMI.s 			page 60


 1569              		.loc 1 774 15 discriminator 1 view .LVU600
 1570              	.LBE225:
 635:lvgl/src/draw/lv_draw_rect.c ****     else if(dsc->shadow_spread != 0) simple_mode = false;
 1571              		.loc 1 635 75 view .LVU601
 1572 0308 0023     		movs	r3, #0
 1573 030a 0693     		str	r3, [sp, #24]
 1574 030c 8DE7     		b	.L77
 1575              	.L141:
 1576 030e 0023     		movs	r3, #0
 1577 0310 0693     		str	r3, [sp, #24]
 1578 0312 8AE7     		b	.L77
 1579              	.LVL153:
 1580              	.L159:
 659:lvgl/src/draw/lv_draw_rect.c ****         /*Avoid overlap in the middle with large radius*/
 1581              		.loc 1 659 19 discriminator 1 view .LVU602
 1582 0314 089A     		ldr	r2, [sp, #32]
 1583 0316 1EA9     		add	r1, sp, #120
 1584 0318 15A8     		add	r0, sp, #84
 1585              	.LVL154:
 659:lvgl/src/draw/lv_draw_rect.c ****         /*Avoid overlap in the middle with large radius*/
 1586              		.loc 1 659 19 discriminator 1 view .LVU603
 1587 031a FFF7FEFF 		bl	_lv_area_is_in
 1588              	.LVL155:
 659:lvgl/src/draw/lv_draw_rect.c ****         /*Avoid overlap in the middle with large radius*/
 1589              		.loc 1 659 16 discriminator 1 view .LVU604
 1590 031e 0028     		cmp	r0, #0
 1591 0320 B7D1     		bne	.L78
 1592              	.LBB227:
 661:lvgl/src/draw/lv_draw_rect.c ****         if(ca.x1 <= w_half) ca.x1 = w_half + 1;
 1593              		.loc 1 661 9 is_stmt 1 view .LVU605
 661:lvgl/src/draw/lv_draw_rect.c ****         if(ca.x1 <= w_half) ca.x1 = w_half + 1;
 1594              		.loc 1 661 14 is_stmt 0 view .LVU606
 1595 0322 BDF95230 		ldrsh	r3, [sp, #82]
 661:lvgl/src/draw/lv_draw_rect.c ****         if(ca.x1 <= w_half) ca.x1 = w_half + 1;
 1596              		.loc 1 661 11 view .LVU607
 1597 0326 0B9A     		ldr	r2, [sp, #44]
 1598 0328 9342     		cmp	r3, r2
 1599 032a 01DD     		ble	.L79
 661:lvgl/src/draw/lv_draw_rect.c ****         if(ca.x1 <= w_half) ca.x1 = w_half + 1;
 1600              		.loc 1 661 28 is_stmt 1 discriminator 1 view .LVU608
 661:lvgl/src/draw/lv_draw_rect.c ****         if(ca.x1 <= w_half) ca.x1 = w_half + 1;
 1601              		.loc 1 661 34 is_stmt 0 discriminator 1 view .LVU609
 1602 032c ADF85220 		strh	r2, [sp, #82]	@ movhi
 1603              	.L79:
 662:lvgl/src/draw/lv_draw_rect.c **** 
 1604              		.loc 1 662 9 is_stmt 1 view .LVU610
 662:lvgl/src/draw/lv_draw_rect.c **** 
 1605              		.loc 1 662 14 is_stmt 0 view .LVU611
 1606 0330 BDF94C30 		ldrsh	r3, [sp, #76]
 662:lvgl/src/draw/lv_draw_rect.c **** 
 1607              		.loc 1 662 11 view .LVU612
 1608 0334 0A9A     		ldr	r2, [sp, #40]
 1609 0336 9342     		cmp	r3, r2
 1610 0338 03DC     		bgt	.L80
 662:lvgl/src/draw/lv_draw_rect.c **** 
 1611              		.loc 1 662 29 is_stmt 1 discriminator 1 view .LVU613
 662:lvgl/src/draw/lv_draw_rect.c **** 
ARM GAS  /var/folders/k2/cd9bl_j17z77g23y6ffqb_400000gn/T//cc0jKSMI.s 			page 61


 1612              		.loc 1 662 44 is_stmt 0 discriminator 1 view .LVU614
 1613 033a 0D9B     		ldr	r3, [sp, #52]
 1614 033c 0133     		adds	r3, r3, #1
 662:lvgl/src/draw/lv_draw_rect.c **** 
 1615              		.loc 1 662 35 discriminator 1 view .LVU615
 1616 033e ADF84C30 		strh	r3, [sp, #76]	@ movhi
 1617              	.L80:
 664:lvgl/src/draw/lv_draw_rect.c ****         lv_coord_t w = lv_area_get_width(&ca);
 1618              		.loc 1 664 9 is_stmt 1 view .LVU616
 1619              	.LVL156:
 1620              	.LBB228:
 1621              	.LBI228:
 143:lvgl/src/draw/../misc/lv_area.h **** {
 1622              		.loc 2 143 26 view .LVU617
 1623              	.LBB229:
 1624              		.loc 2 145 5 view .LVU618
 1625              		.loc 2 145 31 is_stmt 0 view .LVU619
 1626 0342 BDF952E0 		ldrsh	lr, [sp, #82]
 1627 0346 1FFA8EF2 		uxth	r2, lr
 1628              		.loc 2 145 44 view .LVU620
 1629 034a BDF94E30 		ldrsh	r3, [sp, #78]
 1630 034e 98B2     		uxth	r0, r3
 1631              		.loc 2 145 36 view .LVU621
 1632 0350 121A     		subs	r2, r2, r0
 1633 0352 92B2     		uxth	r2, r2
 1634              		.loc 2 145 49 view .LVU622
 1635 0354 0132     		adds	r2, r2, #1
 1636              		.loc 2 145 12 view .LVU623
 1637 0356 12B2     		sxth	r2, r2
 1638 0358 0E92     		str	r2, [sp, #56]
 1639              	.LVL157:
 1640              		.loc 2 145 12 view .LVU624
 1641              	.LBE229:
 1642              	.LBE228:
 665:lvgl/src/draw/lv_draw_rect.c ****         if(w > 0) {
 1643              		.loc 1 665 9 is_stmt 1 view .LVU625
 1644              	.LBB230:
 1645              	.LBI230:
 133:lvgl/src/draw/../misc/lv_area.h **** {
 1646              		.loc 2 133 26 view .LVU626
 1647              	.LBB231:
 135:lvgl/src/draw/../misc/lv_area.h **** }
 1648              		.loc 2 135 5 view .LVU627
 135:lvgl/src/draw/../misc/lv_area.h **** }
 1649              		.loc 2 135 31 is_stmt 0 view .LVU628
 1650 035a BDF95000 		ldrsh	r0, [sp, #80]
 1651 035e 1FFA80FB 		uxth	fp, r0
 135:lvgl/src/draw/../misc/lv_area.h **** }
 1652              		.loc 2 135 44 view .LVU629
 1653 0362 BDF94C20 		ldrsh	r2, [sp, #76]
 1654 0366 1FFA82FC 		uxth	ip, r2
 135:lvgl/src/draw/../misc/lv_area.h **** }
 1655              		.loc 2 135 36 view .LVU630
 1656 036a ABEB0C0B 		sub	fp, fp, ip
 1657 036e 1FFA8BFB 		uxth	fp, fp
 135:lvgl/src/draw/../misc/lv_area.h **** }
 1658              		.loc 2 135 49 view .LVU631
ARM GAS  /var/folders/k2/cd9bl_j17z77g23y6ffqb_400000gn/T//cc0jKSMI.s 			page 62


 1659 0372 0BF1010B 		add	fp, fp, #1
 135:lvgl/src/draw/../misc/lv_area.h **** }
 1660              		.loc 2 135 12 view .LVU632
 1661 0376 0FFA8BFB 		sxth	fp, fp
 1662              	.LVL158:
 135:lvgl/src/draw/../misc/lv_area.h **** }
 1663              		.loc 2 135 12 view .LVU633
 1664              	.LBE231:
 1665              	.LBE230:
 666:lvgl/src/draw/lv_draw_rect.c ****             sh_buf_tmp = sh_buf + (ca.x1 - a.x1);
 1666              		.loc 1 666 9 is_stmt 1 view .LVU634
 666:lvgl/src/draw/lv_draw_rect.c ****             sh_buf_tmp = sh_buf + (ca.x1 - a.x1);
 1667              		.loc 1 666 11 is_stmt 0 view .LVU635
 1668 037a BBF1000F 		cmp	fp, #0
 1669 037e 88DD     		ble	.L78
 1670              	.LBB232:
 667:lvgl/src/draw/lv_draw_rect.c ****             sh_buf_tmp += corner_size * (ca.y1 - a.y1);
 1671              		.loc 1 667 13 is_stmt 1 view .LVU636
 667:lvgl/src/draw/lv_draw_rect.c ****             sh_buf_tmp += corner_size * (ca.y1 - a.y1);
 1672              		.loc 1 667 45 is_stmt 0 view .LVU637
 1673 0380 BDF95480 		ldrsh	r8, [sp, #84]
 667:lvgl/src/draw/lv_draw_rect.c ****             sh_buf_tmp += corner_size * (ca.y1 - a.y1);
 1674              		.loc 1 667 42 view .LVU638
 1675 0384 A2EB0808 		sub	r8, r2, r8
 1676              	.LVL159:
 668:lvgl/src/draw/lv_draw_rect.c **** 
 1677              		.loc 1 668 13 is_stmt 1 view .LVU639
 668:lvgl/src/draw/lv_draw_rect.c **** 
 1678              		.loc 1 668 51 is_stmt 0 view .LVU640
 1679 0388 BDF956C0 		ldrsh	ip, [sp, #86]
 668:lvgl/src/draw/lv_draw_rect.c **** 
 1680              		.loc 1 668 48 view .LVU641
 1681 038c A3EB0C0C 		sub	ip, r3, ip
 668:lvgl/src/draw/lv_draw_rect.c **** 
 1682              		.loc 1 668 24 view .LVU642
 1683 0390 04FB0C88 		mla	r8, r4, ip, r8
 1684              	.LVL160:
 668:lvgl/src/draw/lv_draw_rect.c **** 
 1685              		.loc 1 668 24 view .LVU643
 1686 0394 0799     		ldr	r1, [sp, #28]
 1687 0396 8844     		add	r8, r8, r1
 1688              	.LVL161:
 670:lvgl/src/draw/lv_draw_rect.c ****             lv_area_copy(&fa, &ca);
 1689              		.loc 1 670 13 is_stmt 1 view .LVU644
 671:lvgl/src/draw/lv_draw_rect.c ****             fa.y2 = fa.y1;
 1690              		.loc 1 671 13 view .LVU645
 1691              	.LBB233:
 1692              	.LBI233:
 120:lvgl/src/draw/../misc/lv_area.h **** {
 1693              		.loc 2 120 20 view .LVU646
 1694              	.LBB234:
 122:lvgl/src/draw/../misc/lv_area.h ****     dest->y1 = src->y1;
 1695              		.loc 2 122 5 view .LVU647
 122:lvgl/src/draw/../misc/lv_area.h ****     dest->y1 = src->y1;
 1696              		.loc 2 122 14 is_stmt 0 view .LVU648
 1697 0398 ADF84420 		strh	r2, [sp, #68]	@ movhi
 123:lvgl/src/draw/../misc/lv_area.h ****     dest->x2 = src->x2;
ARM GAS  /var/folders/k2/cd9bl_j17z77g23y6ffqb_400000gn/T//cc0jKSMI.s 			page 63


 1698              		.loc 2 123 5 is_stmt 1 view .LVU649
 123:lvgl/src/draw/../misc/lv_area.h ****     dest->x2 = src->x2;
 1699              		.loc 2 123 14 is_stmt 0 view .LVU650
 1700 039c ADF84630 		strh	r3, [sp, #70]	@ movhi
 124:lvgl/src/draw/../misc/lv_area.h ****     dest->y2 = src->y2;
 1701              		.loc 2 124 5 is_stmt 1 view .LVU651
 124:lvgl/src/draw/../misc/lv_area.h ****     dest->y2 = src->y2;
 1702              		.loc 2 124 14 is_stmt 0 view .LVU652
 1703 03a0 ADF84800 		strh	r0, [sp, #72]	@ movhi
 125:lvgl/src/draw/../misc/lv_area.h **** }
 1704              		.loc 2 125 5 is_stmt 1 view .LVU653
 125:lvgl/src/draw/../misc/lv_area.h **** }
 1705              		.loc 2 125 14 is_stmt 0 view .LVU654
 1706 03a4 ADF84AE0 		strh	lr, [sp, #74]	@ movhi
 1707              	.LVL162:
 125:lvgl/src/draw/../misc/lv_area.h **** }
 1708              		.loc 2 125 14 view .LVU655
 1709              	.LBE234:
 1710              	.LBE233:
 672:lvgl/src/draw/lv_draw_rect.c **** 
 1711              		.loc 1 672 13 is_stmt 1 view .LVU656
 672:lvgl/src/draw/lv_draw_rect.c **** 
 1712              		.loc 1 672 19 is_stmt 0 view .LVU657
 1713 03a8 ADF84A30 		strh	r3, [sp, #74]	@ movhi
 674:lvgl/src/draw/lv_draw_rect.c ****                 lv_memcpy(mask_buf, sh_buf_tmp, w);
 1714              		.loc 1 674 13 is_stmt 1 view .LVU658
 1715              	.LVL163:
 674:lvgl/src/draw/lv_draw_rect.c ****                 lv_memcpy(mask_buf, sh_buf_tmp, w);
 1716              		.loc 1 674 19 is_stmt 0 view .LVU659
 1717 03ac 4FF00009 		mov	r9, #0
 1718 03b0 0F97     		str	r7, [sp, #60]
 1719 03b2 0E9F     		ldr	r7, [sp, #56]
 674:lvgl/src/draw/lv_draw_rect.c ****                 lv_memcpy(mask_buf, sh_buf_tmp, w);
 1720              		.loc 1 674 13 view .LVU660
 1721 03b4 17E0     		b	.L81
 1722              	.LVL164:
 1723              	.L82:
 679:lvgl/src/draw/lv_draw_rect.c ****                                mask_res, opa, dsc->blend_mode);
 1724              		.loc 1 679 17 is_stmt 1 discriminator 2 view .LVU661
 1725 03b6 AB78     		ldrb	r3, [r5, #2]	@ zero_extendqisi2
 1726 03b8 0293     		str	r3, [sp, #8]
 1727 03ba 049B     		ldr	r3, [sp, #16]
 1728 03bc 0193     		str	r3, [sp, #4]
 1729 03be 0090     		str	r0, [sp]
 1730 03c0 3346     		mov	r3, r6
 1731 03c2 6A6B     		ldr	r2, [r5, #52]
 1732 03c4 11A9     		add	r1, sp, #68
 1733 03c6 5046     		mov	r0, r10
 1734              	.LVL165:
 679:lvgl/src/draw/lv_draw_rect.c ****                                mask_res, opa, dsc->blend_mode);
 1735              		.loc 1 679 17 is_stmt 0 discriminator 2 view .LVU662
 1736 03c8 FFF7FEFF 		bl	_lv_blend_fill
 1737              	.LVL166:
 681:lvgl/src/draw/lv_draw_rect.c ****                 fa.y2++;
 1738              		.loc 1 681 17 is_stmt 1 discriminator 2 view .LVU663
 681:lvgl/src/draw/lv_draw_rect.c ****                 fa.y2++;
 1739              		.loc 1 681 19 is_stmt 0 discriminator 2 view .LVU664
ARM GAS  /var/folders/k2/cd9bl_j17z77g23y6ffqb_400000gn/T//cc0jKSMI.s 			page 64


 1740 03cc BDF94630 		ldrsh	r3, [sp, #70]
 681:lvgl/src/draw/lv_draw_rect.c ****                 fa.y2++;
 1741              		.loc 1 681 22 discriminator 2 view .LVU665
 1742 03d0 0133     		adds	r3, r3, #1
 1743 03d2 ADF84630 		strh	r3, [sp, #70]	@ movhi
 682:lvgl/src/draw/lv_draw_rect.c ****                 sh_buf_tmp += corner_size;
 1744              		.loc 1 682 17 is_stmt 1 discriminator 2 view .LVU666
 682:lvgl/src/draw/lv_draw_rect.c ****                 sh_buf_tmp += corner_size;
 1745              		.loc 1 682 19 is_stmt 0 discriminator 2 view .LVU667
 1746 03d6 BDF94A30 		ldrsh	r3, [sp, #74]
 682:lvgl/src/draw/lv_draw_rect.c ****                 sh_buf_tmp += corner_size;
 1747              		.loc 1 682 22 discriminator 2 view .LVU668
 1748 03da 0133     		adds	r3, r3, #1
 1749 03dc ADF84A30 		strh	r3, [sp, #74]	@ movhi
 683:lvgl/src/draw/lv_draw_rect.c ****             }
 1750              		.loc 1 683 17 is_stmt 1 discriminator 2 view .LVU669
 683:lvgl/src/draw/lv_draw_rect.c ****             }
 1751              		.loc 1 683 28 is_stmt 0 discriminator 2 view .LVU670
 1752 03e0 A044     		add	r8, r8, r4
 1753              	.LVL167:
 674:lvgl/src/draw/lv_draw_rect.c ****                 lv_memcpy(mask_buf, sh_buf_tmp, w);
 1754              		.loc 1 674 31 is_stmt 1 discriminator 2 view .LVU671
 674:lvgl/src/draw/lv_draw_rect.c ****                 lv_memcpy(mask_buf, sh_buf_tmp, w);
 1755              		.loc 1 674 32 is_stmt 0 discriminator 2 view .LVU672
 1756 03e2 09F10109 		add	r9, r9, #1
 1757              	.LVL168:
 1758              	.L81:
 674:lvgl/src/draw/lv_draw_rect.c ****                 lv_memcpy(mask_buf, sh_buf_tmp, w);
 1759              		.loc 1 674 24 is_stmt 1 discriminator 1 view .LVU673
 674:lvgl/src/draw/lv_draw_rect.c ****                 lv_memcpy(mask_buf, sh_buf_tmp, w);
 1760              		.loc 1 674 13 is_stmt 0 discriminator 1 view .LVU674
 1761 03e6 4F45     		cmp	r7, r9
 1762 03e8 10DD     		ble	.L162
 675:lvgl/src/draw/lv_draw_rect.c ****                 mask_res = lv_draw_mask_apply(mask_buf, fa.x1, fa.y1, w);
 1763              		.loc 1 675 17 is_stmt 1 view .LVU675
 1764 03ea 5A46     		mov	r2, fp
 1765 03ec 4146     		mov	r1, r8
 1766 03ee 3046     		mov	r0, r6
 1767 03f0 FFF7FEFF 		bl	lv_memcpy
 1768              	.LVL169:
 676:lvgl/src/draw/lv_draw_rect.c ****                 if(mask_res == LV_DRAW_MASK_RES_FULL_COVER) mask_res = LV_DRAW_MASK_RES_CHANGED;
 1769              		.loc 1 676 17 view .LVU676
 676:lvgl/src/draw/lv_draw_rect.c ****                 if(mask_res == LV_DRAW_MASK_RES_FULL_COVER) mask_res = LV_DRAW_MASK_RES_CHANGED;
 1770              		.loc 1 676 28 is_stmt 0 view .LVU677
 1771 03f4 5B46     		mov	r3, fp
 1772 03f6 BDF94620 		ldrsh	r2, [sp, #70]
 1773 03fa BDF94410 		ldrsh	r1, [sp, #68]
 1774 03fe 3046     		mov	r0, r6
 1775 0400 FFF7FEFF 		bl	lv_draw_mask_apply
 1776              	.LVL170:
 677:lvgl/src/draw/lv_draw_rect.c **** 
 1777              		.loc 1 677 17 is_stmt 1 view .LVU678
 677:lvgl/src/draw/lv_draw_rect.c **** 
 1778              		.loc 1 677 19 is_stmt 0 view .LVU679
 1779 0404 0128     		cmp	r0, #1
 1780 0406 D6D1     		bne	.L82
 677:lvgl/src/draw/lv_draw_rect.c **** 
ARM GAS  /var/folders/k2/cd9bl_j17z77g23y6ffqb_400000gn/T//cc0jKSMI.s 			page 65


 1781              		.loc 1 677 70 view .LVU680
 1782 0408 0220     		movs	r0, #2
 1783              	.LVL171:
 677:lvgl/src/draw/lv_draw_rect.c **** 
 1784              		.loc 1 677 70 view .LVU681
 1785 040a D4E7     		b	.L82
 1786              	.L162:
 677:lvgl/src/draw/lv_draw_rect.c **** 
 1787              		.loc 1 677 70 view .LVU682
 1788 040c 0F9F     		ldr	r7, [sp, #60]
 1789 040e 40E7     		b	.L78
 1790              	.LVL172:
 1791              	.L160:
 677:lvgl/src/draw/lv_draw_rect.c **** 
 1792              		.loc 1 677 70 view .LVU683
 1793              	.LBE232:
 1794              	.LBE227:
 695:lvgl/src/draw/lv_draw_rect.c ****         /*Avoid overlap in the middle with large radius*/
 1795              		.loc 1 695 19 discriminator 1 view .LVU684
 1796 0410 089A     		ldr	r2, [sp, #32]
 1797 0412 1EA9     		add	r1, sp, #120
 1798 0414 15A8     		add	r0, sp, #84
 1799              	.LVL173:
 695:lvgl/src/draw/lv_draw_rect.c ****         /*Avoid overlap in the middle with large radius*/
 1800              		.loc 1 695 19 discriminator 1 view .LVU685
 1801 0416 FFF7FEFF 		bl	_lv_area_is_in
 1802              	.LVL174:
 695:lvgl/src/draw/lv_draw_rect.c ****         /*Avoid overlap in the middle with large radius*/
 1803              		.loc 1 695 16 discriminator 1 view .LVU686
 1804 041a 0028     		cmp	r0, #0
 1805 041c 7FF455AF 		bne	.L84
 1806              	.LBB235:
 697:lvgl/src/draw/lv_draw_rect.c ****         if(ca.x1 <= w_half) ca.x1 = w_half;
 1807              		.loc 1 697 9 is_stmt 1 view .LVU687
 697:lvgl/src/draw/lv_draw_rect.c ****         if(ca.x1 <= w_half) ca.x1 = w_half;
 1808              		.loc 1 697 14 is_stmt 0 view .LVU688
 1809 0420 BDF94E30 		ldrsh	r3, [sp, #78]
 697:lvgl/src/draw/lv_draw_rect.c ****         if(ca.x1 <= w_half) ca.x1 = w_half;
 1810              		.loc 1 697 11 view .LVU689
 1811 0424 0B9A     		ldr	r2, [sp, #44]
 1812 0426 9342     		cmp	r3, r2
 1813 0428 01DC     		bgt	.L85
 697:lvgl/src/draw/lv_draw_rect.c ****         if(ca.x1 <= w_half) ca.x1 = w_half;
 1814              		.loc 1 697 29 is_stmt 1 discriminator 1 view .LVU690
 697:lvgl/src/draw/lv_draw_rect.c ****         if(ca.x1 <= w_half) ca.x1 = w_half;
 1815              		.loc 1 697 35 is_stmt 0 discriminator 1 view .LVU691
 1816 042a ADF84E20 		strh	r2, [sp, #78]	@ movhi
 1817              	.L85:
 698:lvgl/src/draw/lv_draw_rect.c **** 
 1818              		.loc 1 698 9 is_stmt 1 view .LVU692
 698:lvgl/src/draw/lv_draw_rect.c **** 
 1819              		.loc 1 698 14 is_stmt 0 view .LVU693
 1820 042e BDF94C30 		ldrsh	r3, [sp, #76]
 698:lvgl/src/draw/lv_draw_rect.c **** 
 1821              		.loc 1 698 11 view .LVU694
 1822 0432 0A9A     		ldr	r2, [sp, #40]
 1823 0434 9342     		cmp	r3, r2
ARM GAS  /var/folders/k2/cd9bl_j17z77g23y6ffqb_400000gn/T//cc0jKSMI.s 			page 66


 1824 0436 01DC     		bgt	.L86
 698:lvgl/src/draw/lv_draw_rect.c **** 
 1825              		.loc 1 698 29 is_stmt 1 discriminator 1 view .LVU695
 698:lvgl/src/draw/lv_draw_rect.c **** 
 1826              		.loc 1 698 35 is_stmt 0 discriminator 1 view .LVU696
 1827 0438 ADF84C20 		strh	r2, [sp, #76]	@ movhi
 1828              	.L86:
 700:lvgl/src/draw/lv_draw_rect.c ****         lv_coord_t w = lv_area_get_width(&ca);
 1829              		.loc 1 700 9 is_stmt 1 view .LVU697
 1830              	.LVL175:
 1831              	.LBB236:
 1832              	.LBI236:
 143:lvgl/src/draw/../misc/lv_area.h **** {
 1833              		.loc 2 143 26 view .LVU698
 1834              	.LBB237:
 1835              		.loc 2 145 5 view .LVU699
 1836              		.loc 2 145 31 is_stmt 0 view .LVU700
 1837 043c BDF95230 		ldrsh	r3, [sp, #82]
 1838 0440 9AB2     		uxth	r2, r3
 1839              		.loc 2 145 44 view .LVU701
 1840 0442 BDF94E00 		ldrsh	r0, [sp, #78]
 1841 0446 81B2     		uxth	r1, r0
 1842              		.loc 2 145 36 view .LVU702
 1843 0448 521A     		subs	r2, r2, r1
 1844 044a 92B2     		uxth	r2, r2
 1845              		.loc 2 145 49 view .LVU703
 1846 044c 0132     		adds	r2, r2, #1
 1847              		.loc 2 145 12 view .LVU704
 1848 044e 12B2     		sxth	r2, r2
 1849 0450 0E92     		str	r2, [sp, #56]
 1850              	.LVL176:
 1851              		.loc 2 145 12 view .LVU705
 1852              	.LBE237:
 1853              	.LBE236:
 701:lvgl/src/draw/lv_draw_rect.c **** 
 1854              		.loc 1 701 9 is_stmt 1 view .LVU706
 1855              	.LBB238:
 1856              	.LBI238:
 133:lvgl/src/draw/../misc/lv_area.h **** {
 1857              		.loc 2 133 26 view .LVU707
 1858              	.LBB239:
 135:lvgl/src/draw/../misc/lv_area.h **** }
 1859              		.loc 2 135 5 view .LVU708
 135:lvgl/src/draw/../misc/lv_area.h **** }
 1860              		.loc 2 135 31 is_stmt 0 view .LVU709
 1861 0452 BDF950E0 		ldrsh	lr, [sp, #80]
 1862 0456 1FFA8EFB 		uxth	fp, lr
 135:lvgl/src/draw/../misc/lv_area.h **** }
 1863              		.loc 2 135 44 view .LVU710
 1864 045a BDF94C20 		ldrsh	r2, [sp, #76]
 1865 045e 1FFA82FC 		uxth	ip, r2
 135:lvgl/src/draw/../misc/lv_area.h **** }
 1866              		.loc 2 135 36 view .LVU711
 1867 0462 ABEB0C0B 		sub	fp, fp, ip
 1868 0466 1FFA8BFB 		uxth	fp, fp
 135:lvgl/src/draw/../misc/lv_area.h **** }
 1869              		.loc 2 135 49 view .LVU712
ARM GAS  /var/folders/k2/cd9bl_j17z77g23y6ffqb_400000gn/T//cc0jKSMI.s 			page 67


 1870 046a 0BF1010B 		add	fp, fp, #1
 135:lvgl/src/draw/../misc/lv_area.h **** }
 1871              		.loc 2 135 12 view .LVU713
 1872 046e 0FFA8BFB 		sxth	fp, fp
 1873              	.LVL177:
 135:lvgl/src/draw/../misc/lv_area.h **** }
 1874              		.loc 2 135 12 view .LVU714
 1875              	.LBE239:
 1876              	.LBE238:
 703:lvgl/src/draw/lv_draw_rect.c ****             sh_buf_tmp = sh_buf + (ca.x1 - a.x1);
 1877              		.loc 1 703 9 is_stmt 1 view .LVU715
 703:lvgl/src/draw/lv_draw_rect.c ****             sh_buf_tmp = sh_buf + (ca.x1 - a.x1);
 1878              		.loc 1 703 11 is_stmt 0 view .LVU716
 1879 0472 BBF1000F 		cmp	fp, #0
 1880 0476 7FF728AF 		ble	.L84
 1881              	.LBB240:
 704:lvgl/src/draw/lv_draw_rect.c ****             sh_buf_tmp += corner_size * (a.y2 - ca.y2);
 1882              		.loc 1 704 13 is_stmt 1 view .LVU717
 704:lvgl/src/draw/lv_draw_rect.c ****             sh_buf_tmp += corner_size * (a.y2 - ca.y2);
 1883              		.loc 1 704 45 is_stmt 0 view .LVU718
 1884 047a BDF95480 		ldrsh	r8, [sp, #84]
 704:lvgl/src/draw/lv_draw_rect.c ****             sh_buf_tmp += corner_size * (a.y2 - ca.y2);
 1885              		.loc 1 704 42 view .LVU719
 1886 047e A2EB0808 		sub	r8, r2, r8
 1887              	.LVL178:
 705:lvgl/src/draw/lv_draw_rect.c **** 
 1888              		.loc 1 705 13 is_stmt 1 view .LVU720
 705:lvgl/src/draw/lv_draw_rect.c **** 
 1889              		.loc 1 705 43 is_stmt 0 view .LVU721
 1890 0482 BDF95AC0 		ldrsh	ip, [sp, #90]
 705:lvgl/src/draw/lv_draw_rect.c **** 
 1891              		.loc 1 705 47 view .LVU722
 1892 0486 ACEB030C 		sub	ip, ip, r3
 705:lvgl/src/draw/lv_draw_rect.c **** 
 1893              		.loc 1 705 24 view .LVU723
 1894 048a 04FB0C88 		mla	r8, r4, ip, r8
 1895              	.LVL179:
 705:lvgl/src/draw/lv_draw_rect.c **** 
 1896              		.loc 1 705 24 view .LVU724
 1897 048e 0799     		ldr	r1, [sp, #28]
 1898 0490 8844     		add	r8, r8, r1
 1899              	.LVL180:
 707:lvgl/src/draw/lv_draw_rect.c ****             lv_area_copy(&fa, &ca);
 1900              		.loc 1 707 13 is_stmt 1 view .LVU725
 708:lvgl/src/draw/lv_draw_rect.c ****             fa.y1 = fa.y2;    /*Fill from bottom to top*/
 1901              		.loc 1 708 13 view .LVU726
 1902              	.LBB241:
 1903              	.LBI241:
 120:lvgl/src/draw/../misc/lv_area.h **** {
 1904              		.loc 2 120 20 view .LVU727
 1905              	.LBB242:
 122:lvgl/src/draw/../misc/lv_area.h ****     dest->y1 = src->y1;
 1906              		.loc 2 122 5 view .LVU728
 122:lvgl/src/draw/../misc/lv_area.h ****     dest->y1 = src->y1;
 1907              		.loc 2 122 14 is_stmt 0 view .LVU729
 1908 0492 ADF84420 		strh	r2, [sp, #68]	@ movhi
 123:lvgl/src/draw/../misc/lv_area.h ****     dest->x2 = src->x2;
ARM GAS  /var/folders/k2/cd9bl_j17z77g23y6ffqb_400000gn/T//cc0jKSMI.s 			page 68


 1909              		.loc 2 123 5 is_stmt 1 view .LVU730
 123:lvgl/src/draw/../misc/lv_area.h ****     dest->x2 = src->x2;
 1910              		.loc 2 123 14 is_stmt 0 view .LVU731
 1911 0496 ADF84600 		strh	r0, [sp, #70]	@ movhi
 124:lvgl/src/draw/../misc/lv_area.h ****     dest->y2 = src->y2;
 1912              		.loc 2 124 5 is_stmt 1 view .LVU732
 124:lvgl/src/draw/../misc/lv_area.h ****     dest->y2 = src->y2;
 1913              		.loc 2 124 14 is_stmt 0 view .LVU733
 1914 049a ADF848E0 		strh	lr, [sp, #72]	@ movhi
 125:lvgl/src/draw/../misc/lv_area.h **** }
 1915              		.loc 2 125 5 is_stmt 1 view .LVU734
 125:lvgl/src/draw/../misc/lv_area.h **** }
 1916              		.loc 2 125 14 is_stmt 0 view .LVU735
 1917 049e ADF84A30 		strh	r3, [sp, #74]	@ movhi
 1918              	.LVL181:
 125:lvgl/src/draw/../misc/lv_area.h **** }
 1919              		.loc 2 125 14 view .LVU736
 1920              	.LBE242:
 1921              	.LBE241:
 709:lvgl/src/draw/lv_draw_rect.c **** 
 1922              		.loc 1 709 13 is_stmt 1 view .LVU737
 709:lvgl/src/draw/lv_draw_rect.c **** 
 1923              		.loc 1 709 19 is_stmt 0 view .LVU738
 1924 04a2 ADF84630 		strh	r3, [sp, #70]	@ movhi
 711:lvgl/src/draw/lv_draw_rect.c ****                 lv_memcpy(mask_buf, sh_buf_tmp, w);
 1925              		.loc 1 711 13 is_stmt 1 view .LVU739
 1926              	.LVL182:
 711:lvgl/src/draw/lv_draw_rect.c ****                 lv_memcpy(mask_buf, sh_buf_tmp, w);
 1927              		.loc 1 711 19 is_stmt 0 view .LVU740
 1928 04a6 4FF00009 		mov	r9, #0
 1929 04aa 0F97     		str	r7, [sp, #60]
 1930 04ac 0E9F     		ldr	r7, [sp, #56]
 711:lvgl/src/draw/lv_draw_rect.c ****                 lv_memcpy(mask_buf, sh_buf_tmp, w);
 1931              		.loc 1 711 13 view .LVU741
 1932 04ae 17E0     		b	.L87
 1933              	.LVL183:
 1934              	.L88:
 716:lvgl/src/draw/lv_draw_rect.c ****                                mask_res, opa, dsc->blend_mode);
 1935              		.loc 1 716 17 is_stmt 1 discriminator 2 view .LVU742
 1936 04b0 AB78     		ldrb	r3, [r5, #2]	@ zero_extendqisi2
 1937 04b2 0293     		str	r3, [sp, #8]
 1938 04b4 049B     		ldr	r3, [sp, #16]
 1939 04b6 0193     		str	r3, [sp, #4]
 1940 04b8 0090     		str	r0, [sp]
 1941 04ba 3346     		mov	r3, r6
 1942 04bc 6A6B     		ldr	r2, [r5, #52]
 1943 04be 11A9     		add	r1, sp, #68
 1944 04c0 5046     		mov	r0, r10
 1945              	.LVL184:
 716:lvgl/src/draw/lv_draw_rect.c ****                                mask_res, opa, dsc->blend_mode);
 1946              		.loc 1 716 17 is_stmt 0 discriminator 2 view .LVU743
 1947 04c2 FFF7FEFF 		bl	_lv_blend_fill
 1948              	.LVL185:
 718:lvgl/src/draw/lv_draw_rect.c ****                 fa.y2--;
 1949              		.loc 1 718 17 is_stmt 1 discriminator 2 view .LVU744
 718:lvgl/src/draw/lv_draw_rect.c ****                 fa.y2--;
 1950              		.loc 1 718 19 is_stmt 0 discriminator 2 view .LVU745
ARM GAS  /var/folders/k2/cd9bl_j17z77g23y6ffqb_400000gn/T//cc0jKSMI.s 			page 69


 1951 04c6 BDF94630 		ldrsh	r3, [sp, #70]
 718:lvgl/src/draw/lv_draw_rect.c ****                 fa.y2--;
 1952              		.loc 1 718 22 discriminator 2 view .LVU746
 1953 04ca 013B     		subs	r3, r3, #1
 1954 04cc ADF84630 		strh	r3, [sp, #70]	@ movhi
 719:lvgl/src/draw/lv_draw_rect.c ****                 sh_buf_tmp += corner_size;
 1955              		.loc 1 719 17 is_stmt 1 discriminator 2 view .LVU747
 719:lvgl/src/draw/lv_draw_rect.c ****                 sh_buf_tmp += corner_size;
 1956              		.loc 1 719 19 is_stmt 0 discriminator 2 view .LVU748
 1957 04d0 BDF94A30 		ldrsh	r3, [sp, #74]
 719:lvgl/src/draw/lv_draw_rect.c ****                 sh_buf_tmp += corner_size;
 1958              		.loc 1 719 22 discriminator 2 view .LVU749
 1959 04d4 013B     		subs	r3, r3, #1
 1960 04d6 ADF84A30 		strh	r3, [sp, #74]	@ movhi
 720:lvgl/src/draw/lv_draw_rect.c ****             }
 1961              		.loc 1 720 17 is_stmt 1 discriminator 2 view .LVU750
 720:lvgl/src/draw/lv_draw_rect.c ****             }
 1962              		.loc 1 720 28 is_stmt 0 discriminator 2 view .LVU751
 1963 04da A044     		add	r8, r8, r4
 1964              	.LVL186:
 711:lvgl/src/draw/lv_draw_rect.c ****                 lv_memcpy(mask_buf, sh_buf_tmp, w);
 1965              		.loc 1 711 31 is_stmt 1 discriminator 2 view .LVU752
 711:lvgl/src/draw/lv_draw_rect.c ****                 lv_memcpy(mask_buf, sh_buf_tmp, w);
 1966              		.loc 1 711 32 is_stmt 0 discriminator 2 view .LVU753
 1967 04dc 09F10109 		add	r9, r9, #1
 1968              	.LVL187:
 1969              	.L87:
 711:lvgl/src/draw/lv_draw_rect.c ****                 lv_memcpy(mask_buf, sh_buf_tmp, w);
 1970              		.loc 1 711 24 is_stmt 1 discriminator 1 view .LVU754
 711:lvgl/src/draw/lv_draw_rect.c ****                 lv_memcpy(mask_buf, sh_buf_tmp, w);
 1971              		.loc 1 711 13 is_stmt 0 discriminator 1 view .LVU755
 1972 04e0 4F45     		cmp	r7, r9
 1973 04e2 10DD     		ble	.L163
 712:lvgl/src/draw/lv_draw_rect.c ****                 mask_res = lv_draw_mask_apply(mask_buf, fa.x1, fa.y1, w);
 1974              		.loc 1 712 17 is_stmt 1 view .LVU756
 1975 04e4 5A46     		mov	r2, fp
 1976 04e6 4146     		mov	r1, r8
 1977 04e8 3046     		mov	r0, r6
 1978 04ea FFF7FEFF 		bl	lv_memcpy
 1979              	.LVL188:
 713:lvgl/src/draw/lv_draw_rect.c ****                 if(mask_res == LV_DRAW_MASK_RES_FULL_COVER) mask_res = LV_DRAW_MASK_RES_CHANGED;
 1980              		.loc 1 713 17 view .LVU757
 713:lvgl/src/draw/lv_draw_rect.c ****                 if(mask_res == LV_DRAW_MASK_RES_FULL_COVER) mask_res = LV_DRAW_MASK_RES_CHANGED;
 1981              		.loc 1 713 28 is_stmt 0 view .LVU758
 1982 04ee 5B46     		mov	r3, fp
 1983 04f0 BDF94620 		ldrsh	r2, [sp, #70]
 1984 04f4 BDF94410 		ldrsh	r1, [sp, #68]
 1985 04f8 3046     		mov	r0, r6
 1986 04fa FFF7FEFF 		bl	lv_draw_mask_apply
 1987              	.LVL189:
 714:lvgl/src/draw/lv_draw_rect.c **** 
 1988              		.loc 1 714 17 is_stmt 1 view .LVU759
 714:lvgl/src/draw/lv_draw_rect.c **** 
 1989              		.loc 1 714 19 is_stmt 0 view .LVU760
 1990 04fe 0128     		cmp	r0, #1
 1991 0500 D6D1     		bne	.L88
 714:lvgl/src/draw/lv_draw_rect.c **** 
ARM GAS  /var/folders/k2/cd9bl_j17z77g23y6ffqb_400000gn/T//cc0jKSMI.s 			page 70


 1992              		.loc 1 714 70 view .LVU761
 1993 0502 0220     		movs	r0, #2
 1994              	.LVL190:
 714:lvgl/src/draw/lv_draw_rect.c **** 
 1995              		.loc 1 714 70 view .LVU762
 1996 0504 D4E7     		b	.L88
 1997              	.L163:
 714:lvgl/src/draw/lv_draw_rect.c **** 
 1998              		.loc 1 714 70 view .LVU763
 1999 0506 0F9F     		ldr	r7, [sp, #60]
 2000 0508 DFE6     		b	.L84
 2001              	.LVL191:
 2002              	.L161:
 714:lvgl/src/draw/lv_draw_rect.c **** 
 2003              		.loc 1 714 70 view .LVU764
 2004              	.LBE240:
 2005              	.LBE235:
 732:lvgl/src/draw/lv_draw_rect.c ****         /*Avoid overlap in the middle with large radius*/
 2006              		.loc 1 732 19 discriminator 1 view .LVU765
 2007 050a 089A     		ldr	r2, [sp, #32]
 2008 050c 1EA9     		add	r1, sp, #120
 2009 050e 15A8     		add	r0, sp, #84
 2010              	.LVL192:
 732:lvgl/src/draw/lv_draw_rect.c ****         /*Avoid overlap in the middle with large radius*/
 2011              		.loc 1 732 19 discriminator 1 view .LVU766
 2012 0510 FFF7FEFF 		bl	_lv_area_is_in
 2013              	.LVL193:
 732:lvgl/src/draw/lv_draw_rect.c ****         /*Avoid overlap in the middle with large radius*/
 2014              		.loc 1 732 16 discriminator 1 view .LVU767
 2015 0514 0028     		cmp	r0, #0
 2016 0516 7FF4F4AE 		bne	.L90
 2017              	.LBB243:
 734:lvgl/src/draw/lv_draw_rect.c **** 
 2018              		.loc 1 734 9 is_stmt 1 view .LVU768
 734:lvgl/src/draw/lv_draw_rect.c **** 
 2019              		.loc 1 734 14 is_stmt 0 view .LVU769
 2020 051a BDF94C30 		ldrsh	r3, [sp, #76]
 734:lvgl/src/draw/lv_draw_rect.c **** 
 2021              		.loc 1 734 11 view .LVU770
 2022 051e 0A9A     		ldr	r2, [sp, #40]
 2023 0520 9342     		cmp	r3, r2
 2024 0522 03DC     		bgt	.L91
 734:lvgl/src/draw/lv_draw_rect.c **** 
 2025              		.loc 1 734 29 is_stmt 1 discriminator 1 view .LVU771
 734:lvgl/src/draw/lv_draw_rect.c **** 
 2026              		.loc 1 734 44 is_stmt 0 discriminator 1 view .LVU772
 2027 0524 0D9B     		ldr	r3, [sp, #52]
 2028 0526 0133     		adds	r3, r3, #1
 734:lvgl/src/draw/lv_draw_rect.c **** 
 2029              		.loc 1 734 35 discriminator 1 view .LVU773
 2030 0528 ADF84C30 		strh	r3, [sp, #76]	@ movhi
 2031              	.L91:
 736:lvgl/src/draw/lv_draw_rect.c **** 
 2032              		.loc 1 736 9 is_stmt 1 view .LVU774
 736:lvgl/src/draw/lv_draw_rect.c **** 
 2033              		.loc 1 736 11 is_stmt 0 view .LVU775
 2034 052c 069B     		ldr	r3, [sp, #24]
ARM GAS  /var/folders/k2/cd9bl_j17z77g23y6ffqb_400000gn/T//cc0jKSMI.s 			page 71


 2035 052e 4BB1     		cbz	r3, .L92
 736:lvgl/src/draw/lv_draw_rect.c **** 
 2036              		.loc 1 736 25 is_stmt 1 discriminator 1 view .LVU776
 736:lvgl/src/draw/lv_draw_rect.c **** 
 2037              		.loc 1 736 33 is_stmt 0 discriminator 1 view .LVU777
 2038 0530 059B     		ldr	r3, [sp, #20]
 2039 0532 B3F90430 		ldrsh	r3, [r3, #4]
 2040 0536 BDF94C20 		ldrsh	r2, [sp, #76]
 2041 053a 9342     		cmp	r3, r2
 2042 053c B8BF     		it	lt
 2043 053e 1346     		movlt	r3, r2
 736:lvgl/src/draw/lv_draw_rect.c **** 
 2044              		.loc 1 736 31 discriminator 1 view .LVU778
 2045 0540 ADF84C30 		strh	r3, [sp, #76]	@ movhi
 2046              	.L92:
 739:lvgl/src/draw/lv_draw_rect.c ****         if(w > 0) {
 2047              		.loc 1 739 9 is_stmt 1 view .LVU779
 2048              	.LVL194:
 2049              	.LBB244:
 2050              	.LBI244:
 133:lvgl/src/draw/../misc/lv_area.h **** {
 2051              		.loc 2 133 26 view .LVU780
 2052              	.LBB245:
 135:lvgl/src/draw/../misc/lv_area.h **** }
 2053              		.loc 2 135 5 view .LVU781
 135:lvgl/src/draw/../misc/lv_area.h **** }
 2054              		.loc 2 135 31 is_stmt 0 view .LVU782
 2055 0544 BDF95020 		ldrsh	r2, [sp, #80]
 2056 0548 1FFA82F9 		uxth	r9, r2
 135:lvgl/src/draw/../misc/lv_area.h **** }
 2057              		.loc 2 135 44 view .LVU783
 2058 054c BDF94C30 		ldrsh	r3, [sp, #76]
 2059 0550 99B2     		uxth	r1, r3
 135:lvgl/src/draw/../misc/lv_area.h **** }
 2060              		.loc 2 135 36 view .LVU784
 2061 0552 A9EB0109 		sub	r9, r9, r1
 2062 0556 1FFA89F9 		uxth	r9, r9
 135:lvgl/src/draw/../misc/lv_area.h **** }
 2063              		.loc 2 135 49 view .LVU785
 2064 055a 09F10109 		add	r9, r9, #1
 135:lvgl/src/draw/../misc/lv_area.h **** }
 2065              		.loc 2 135 12 view .LVU786
 2066 055e 0FFA89F9 		sxth	r9, r9
 2067              	.LVL195:
 135:lvgl/src/draw/../misc/lv_area.h **** }
 2068              		.loc 2 135 12 view .LVU787
 2069              	.LBE245:
 2070              	.LBE244:
 740:lvgl/src/draw/lv_draw_rect.c ****             lv_coord_t h = lv_area_get_height(&ca);
 2071              		.loc 1 740 9 is_stmt 1 view .LVU788
 740:lvgl/src/draw/lv_draw_rect.c ****             lv_coord_t h = lv_area_get_height(&ca);
 2072              		.loc 1 740 11 is_stmt 0 view .LVU789
 2073 0562 B9F1000F 		cmp	r9, #0
 2074 0566 7FF7CCAE 		ble	.L90
 2075              	.LBB246:
 741:lvgl/src/draw/lv_draw_rect.c **** 
 2076              		.loc 1 741 13 is_stmt 1 view .LVU790
ARM GAS  /var/folders/k2/cd9bl_j17z77g23y6ffqb_400000gn/T//cc0jKSMI.s 			page 72


 2077              	.LVL196:
 2078              	.LBB247:
 2079              	.LBI247:
 143:lvgl/src/draw/../misc/lv_area.h **** {
 2080              		.loc 2 143 26 view .LVU791
 2081              	.LBB248:
 2082              		.loc 2 145 5 view .LVU792
 2083              		.loc 2 145 31 is_stmt 0 view .LVU793
 2084 056a BDF95280 		ldrsh	r8, [sp, #82]
 2085 056e 1FFA88FB 		uxth	fp, r8
 2086              		.loc 2 145 44 view .LVU794
 2087 0572 BDF94E10 		ldrsh	r1, [sp, #78]
 2088 0576 1FFA81FC 		uxth	ip, r1
 2089              		.loc 2 145 36 view .LVU795
 2090 057a ABEB0C0B 		sub	fp, fp, ip
 2091 057e 1FFA8BFB 		uxth	fp, fp
 2092              		.loc 2 145 49 view .LVU796
 2093 0582 0BF1010B 		add	fp, fp, #1
 2094              		.loc 2 145 12 view .LVU797
 2095 0586 0FFA8BFB 		sxth	fp, fp
 2096              	.LVL197:
 2097              		.loc 2 145 12 view .LVU798
 2098              	.LBE248:
 2099              	.LBE247:
 744:lvgl/src/draw/lv_draw_rect.c ****             sh_buf_tmp += ca.x1 - a.x1;
 2100              		.loc 1 744 13 is_stmt 1 view .LVU799
 744:lvgl/src/draw/lv_draw_rect.c ****             sh_buf_tmp += ca.x1 - a.x1;
 2101              		.loc 1 744 62 is_stmt 0 view .LVU800
 2102 058a 04F1FF3E 		add	lr, r4, #-1
 745:lvgl/src/draw/lv_draw_rect.c **** 
 2103              		.loc 1 745 13 is_stmt 1 view .LVU801
 745:lvgl/src/draw/lv_draw_rect.c **** 
 2104              		.loc 1 745 36 is_stmt 0 view .LVU802
 2105 058e BDF954C0 		ldrsh	ip, [sp, #84]
 745:lvgl/src/draw/lv_draw_rect.c **** 
 2106              		.loc 1 745 33 view .LVU803
 2107 0592 A3EB0C0C 		sub	ip, r3, ip
 745:lvgl/src/draw/lv_draw_rect.c **** 
 2108              		.loc 1 745 24 view .LVU804
 2109 0596 04FB0ECC 		mla	ip, r4, lr, ip
 2110 059a 0798     		ldr	r0, [sp, #28]
 2111 059c 6044     		add	r0, r0, ip
 2112              	.LVL198:
 747:lvgl/src/draw/lv_draw_rect.c ****             lv_area_copy(&fa, &ca);
 2113              		.loc 1 747 13 is_stmt 1 view .LVU805
 748:lvgl/src/draw/lv_draw_rect.c ****             fa.y2 = fa.y1;
 2114              		.loc 1 748 13 view .LVU806
 2115              	.LBB249:
 2116              	.LBI249:
 120:lvgl/src/draw/../misc/lv_area.h **** {
 2117              		.loc 2 120 20 view .LVU807
 2118              	.LBB250:
 122:lvgl/src/draw/../misc/lv_area.h ****     dest->y1 = src->y1;
 2119              		.loc 2 122 5 view .LVU808
 122:lvgl/src/draw/../misc/lv_area.h ****     dest->y1 = src->y1;
 2120              		.loc 2 122 14 is_stmt 0 view .LVU809
 2121 059e ADF84430 		strh	r3, [sp, #68]	@ movhi
ARM GAS  /var/folders/k2/cd9bl_j17z77g23y6ffqb_400000gn/T//cc0jKSMI.s 			page 73


 123:lvgl/src/draw/../misc/lv_area.h ****     dest->x2 = src->x2;
 2122              		.loc 2 123 5 is_stmt 1 view .LVU810
 123:lvgl/src/draw/../misc/lv_area.h ****     dest->x2 = src->x2;
 2123              		.loc 2 123 14 is_stmt 0 view .LVU811
 2124 05a2 ADF84610 		strh	r1, [sp, #70]	@ movhi
 124:lvgl/src/draw/../misc/lv_area.h ****     dest->y2 = src->y2;
 2125              		.loc 2 124 5 is_stmt 1 view .LVU812
 124:lvgl/src/draw/../misc/lv_area.h ****     dest->y2 = src->y2;
 2126              		.loc 2 124 14 is_stmt 0 view .LVU813
 2127 05a6 ADF84820 		strh	r2, [sp, #72]	@ movhi
 125:lvgl/src/draw/../misc/lv_area.h **** }
 2128              		.loc 2 125 5 is_stmt 1 view .LVU814
 125:lvgl/src/draw/../misc/lv_area.h **** }
 2129              		.loc 2 125 14 is_stmt 0 view .LVU815
 2130 05aa ADF84A80 		strh	r8, [sp, #74]	@ movhi
 2131              	.LVL199:
 125:lvgl/src/draw/../misc/lv_area.h **** }
 2132              		.loc 2 125 14 view .LVU816
 2133              	.LBE250:
 2134              	.LBE249:
 749:lvgl/src/draw/lv_draw_rect.c ****             mask_res = LV_DRAW_MASK_RES_FULL_COVER;
 2135              		.loc 1 749 13 is_stmt 1 view .LVU817
 749:lvgl/src/draw/lv_draw_rect.c ****             mask_res = LV_DRAW_MASK_RES_FULL_COVER;
 2136              		.loc 1 749 19 is_stmt 0 view .LVU818
 2137 05ae ADF84A10 		strh	r1, [sp, #74]	@ movhi
 750:lvgl/src/draw/lv_draw_rect.c ****             for(y = 0; y < h; y++) {
 2138              		.loc 1 750 13 is_stmt 1 view .LVU819
 2139              	.LVL200:
 751:lvgl/src/draw/lv_draw_rect.c ****                 lv_memcpy(mask_buf, sh_buf_tmp, w);
 2140              		.loc 1 751 13 view .LVU820
 751:lvgl/src/draw/lv_draw_rect.c ****                 lv_memcpy(mask_buf, sh_buf_tmp, w);
 2141              		.loc 1 751 19 is_stmt 0 view .LVU821
 2142 05b2 4FF00008 		mov	r8, #0
 2143 05b6 0D97     		str	r7, [sp, #52]
 2144 05b8 0E94     		str	r4, [sp, #56]
 2145 05ba 069C     		ldr	r4, [sp, #24]
 2146              	.LVL201:
 751:lvgl/src/draw/lv_draw_rect.c ****                 lv_memcpy(mask_buf, sh_buf_tmp, w);
 2147              		.loc 1 751 19 view .LVU822
 2148 05bc 0746     		mov	r7, r0
 751:lvgl/src/draw/lv_draw_rect.c ****                 lv_memcpy(mask_buf, sh_buf_tmp, w);
 2149              		.loc 1 751 13 view .LVU823
 2150 05be 21E0     		b	.L93
 2151              	.LVL202:
 2152              	.L166:
 758:lvgl/src/draw/lv_draw_rect.c ****                     if(mask_res == LV_DRAW_MASK_RES_FULL_COVER) mask_res = LV_DRAW_MASK_RES_CHANGED
 2153              		.loc 1 758 21 is_stmt 1 view .LVU824
 758:lvgl/src/draw/lv_draw_rect.c ****                     if(mask_res == LV_DRAW_MASK_RES_FULL_COVER) mask_res = LV_DRAW_MASK_RES_CHANGED
 2154              		.loc 1 758 32 is_stmt 0 view .LVU825
 2155 05c0 4B46     		mov	r3, r9
 2156 05c2 BDF94620 		ldrsh	r2, [sp, #70]
 2157 05c6 BDF94410 		ldrsh	r1, [sp, #68]
 2158 05ca 3046     		mov	r0, r6
 2159 05cc FFF7FEFF 		bl	lv_draw_mask_apply
 2160              	.LVL203:
 759:lvgl/src/draw/lv_draw_rect.c ****                 }
 2161              		.loc 1 759 21 is_stmt 1 view .LVU826
ARM GAS  /var/folders/k2/cd9bl_j17z77g23y6ffqb_400000gn/T//cc0jKSMI.s 			page 74


 759:lvgl/src/draw/lv_draw_rect.c ****                 }
 2162              		.loc 1 759 23 is_stmt 0 view .LVU827
 2163 05d0 0128     		cmp	r0, #1
 2164 05d2 22D0     		beq	.L164
 2165              	.LVL204:
 2166              	.L94:
 762:lvgl/src/draw/lv_draw_rect.c ****                                dsc->shadow_color, mask_buf, mask_res, dsc->shadow_opa, dsc->blend_m
 2167              		.loc 1 762 17 is_stmt 1 discriminator 2 view .LVU828
 2168 05d4 AB78     		ldrb	r3, [r5, #2]	@ zero_extendqisi2
 2169 05d6 0293     		str	r3, [sp, #8]
 2170 05d8 95F84030 		ldrb	r3, [r5, #64]	@ zero_extendqisi2
 2171 05dc 0193     		str	r3, [sp, #4]
 2172 05de 0090     		str	r0, [sp]
 2173 05e0 3346     		mov	r3, r6
 2174 05e2 6A6B     		ldr	r2, [r5, #52]
 2175 05e4 11A9     		add	r1, sp, #68
 2176 05e6 5046     		mov	r0, r10
 2177              	.LVL205:
 762:lvgl/src/draw/lv_draw_rect.c ****                                dsc->shadow_color, mask_buf, mask_res, dsc->shadow_opa, dsc->blend_m
 2178              		.loc 1 762 17 is_stmt 0 discriminator 2 view .LVU829
 2179 05e8 FFF7FEFF 		bl	_lv_blend_fill
 2180              	.LVL206:
 764:lvgl/src/draw/lv_draw_rect.c ****                 fa.y2++;
 2181              		.loc 1 764 17 is_stmt 1 discriminator 2 view .LVU830
 764:lvgl/src/draw/lv_draw_rect.c ****                 fa.y2++;
 2182              		.loc 1 764 19 is_stmt 0 discriminator 2 view .LVU831
 2183 05ec BDF94630 		ldrsh	r3, [sp, #70]
 764:lvgl/src/draw/lv_draw_rect.c ****                 fa.y2++;
 2184              		.loc 1 764 22 discriminator 2 view .LVU832
 2185 05f0 0133     		adds	r3, r3, #1
 2186 05f2 ADF84630 		strh	r3, [sp, #70]	@ movhi
 765:lvgl/src/draw/lv_draw_rect.c ****             }
 2187              		.loc 1 765 17 is_stmt 1 discriminator 2 view .LVU833
 765:lvgl/src/draw/lv_draw_rect.c ****             }
 2188              		.loc 1 765 19 is_stmt 0 discriminator 2 view .LVU834
 2189 05f6 BDF94A30 		ldrsh	r3, [sp, #74]
 765:lvgl/src/draw/lv_draw_rect.c ****             }
 2190              		.loc 1 765 22 discriminator 2 view .LVU835
 2191 05fa 0133     		adds	r3, r3, #1
 2192 05fc ADF84A30 		strh	r3, [sp, #74]	@ movhi
 751:lvgl/src/draw/lv_draw_rect.c ****                 lv_memcpy(mask_buf, sh_buf_tmp, w);
 2193              		.loc 1 751 31 is_stmt 1 discriminator 2 view .LVU836
 751:lvgl/src/draw/lv_draw_rect.c ****                 lv_memcpy(mask_buf, sh_buf_tmp, w);
 2194              		.loc 1 751 32 is_stmt 0 discriminator 2 view .LVU837
 2195 0600 08F10108 		add	r8, r8, #1
 2196              	.LVL207:
 2197              	.L93:
 751:lvgl/src/draw/lv_draw_rect.c ****                 lv_memcpy(mask_buf, sh_buf_tmp, w);
 2198              		.loc 1 751 24 is_stmt 1 discriminator 1 view .LVU838
 751:lvgl/src/draw/lv_draw_rect.c ****                 lv_memcpy(mask_buf, sh_buf_tmp, w);
 2199              		.loc 1 751 13 is_stmt 0 discriminator 1 view .LVU839
 2200 0604 C345     		cmp	fp, r8
 2201 0606 0ADD     		ble	.L165
 752:lvgl/src/draw/lv_draw_rect.c **** 
 2202              		.loc 1 752 17 is_stmt 1 view .LVU840
 2203 0608 4A46     		mov	r2, r9
 2204 060a 3946     		mov	r1, r7
ARM GAS  /var/folders/k2/cd9bl_j17z77g23y6ffqb_400000gn/T//cc0jKSMI.s 			page 75


 2205 060c 3046     		mov	r0, r6
 2206 060e FFF7FEFF 		bl	lv_memcpy
 2207              	.LVL208:
 754:lvgl/src/draw/lv_draw_rect.c ****                     mask_res = LV_DRAW_MASK_RES_CHANGED;
 2208              		.loc 1 754 17 view .LVU841
 754:lvgl/src/draw/lv_draw_rect.c ****                     mask_res = LV_DRAW_MASK_RES_CHANGED;
 2209              		.loc 1 754 19 is_stmt 0 view .LVU842
 2210 0612 002C     		cmp	r4, #0
