ARM GAS  C:\Users\BLACK_~1\AppData\Local\Temp\ccCMpPOk.s 			page 1


   1              		.cpu cortex-m4
   2              		.arch armv7e-m
   3              		.fpu fpv4-sp-d16
   4              		.eabi_attribute 27, 1
   5              		.eabi_attribute 28, 1
   6              		.eabi_attribute 20, 1
   7              		.eabi_attribute 21, 1
   8              		.eabi_attribute 23, 3
   9              		.eabi_attribute 24, 1
  10              		.eabi_attribute 25, 1
  11              		.eabi_attribute 26, 1
  12              		.eabi_attribute 30, 1
  13              		.eabi_attribute 34, 1
  14              		.eabi_attribute 18, 4
  15              		.file	"lv_draw_arc.c"
  16              		.text
  17              	.Ltext0:
  18              		.cfi_sections	.debug_frame
  19              		.section	.text.draw_quarter_0,"ax",%progbits
  20              		.align	1
  21              		.syntax unified
  22              		.thumb
  23              		.thumb_func
  25              	draw_quarter_0:
  26              	.LVL0:
  27              	.LFB51:
  28              		.file 1 "lvgl/src/draw/lv_draw_arc.c"
   1:lvgl/src/draw/lv_draw_arc.c **** /**
   2:lvgl/src/draw/lv_draw_arc.c ****  * @file lv_draw_arc.c
   3:lvgl/src/draw/lv_draw_arc.c ****  *
   4:lvgl/src/draw/lv_draw_arc.c ****  */
   5:lvgl/src/draw/lv_draw_arc.c **** 
   6:lvgl/src/draw/lv_draw_arc.c **** /*********************
   7:lvgl/src/draw/lv_draw_arc.c ****  *      INCLUDES
   8:lvgl/src/draw/lv_draw_arc.c ****  *********************/
   9:lvgl/src/draw/lv_draw_arc.c **** #include "lv_draw_arc.h"
  10:lvgl/src/draw/lv_draw_arc.c **** #include "lv_draw_rect.h"
  11:lvgl/src/draw/lv_draw_arc.c **** #include "lv_draw_mask.h"
  12:lvgl/src/draw/lv_draw_arc.c **** #include "../misc/lv_math.h"
  13:lvgl/src/draw/lv_draw_arc.c **** #include "../misc/lv_log.h"
  14:lvgl/src/draw/lv_draw_arc.c **** #include "../misc/lv_mem.h"
  15:lvgl/src/draw/lv_draw_arc.c **** 
  16:lvgl/src/draw/lv_draw_arc.c **** /*********************
  17:lvgl/src/draw/lv_draw_arc.c ****  *      DEFINES
  18:lvgl/src/draw/lv_draw_arc.c ****  *********************/
  19:lvgl/src/draw/lv_draw_arc.c **** #define SPLIT_RADIUS_LIMIT 10  /*With radius greater then this the arc will drawn in quarters. A qu
  20:lvgl/src/draw/lv_draw_arc.c **** #define SPLIT_ANGLE_GAP_LIMIT 60  /*With small gaps in the arc don't bother with splitting because 
  21:lvgl/src/draw/lv_draw_arc.c **** 
  22:lvgl/src/draw/lv_draw_arc.c **** /**********************
  23:lvgl/src/draw/lv_draw_arc.c ****  *      TYPEDEFS
  24:lvgl/src/draw/lv_draw_arc.c ****  **********************/
  25:lvgl/src/draw/lv_draw_arc.c **** typedef struct {
  26:lvgl/src/draw/lv_draw_arc.c ****     lv_coord_t center_x;
  27:lvgl/src/draw/lv_draw_arc.c ****     lv_coord_t center_y;
  28:lvgl/src/draw/lv_draw_arc.c ****     lv_coord_t radius;
  29:lvgl/src/draw/lv_draw_arc.c ****     uint16_t start_angle;
  30:lvgl/src/draw/lv_draw_arc.c ****     uint16_t end_angle;
ARM GAS  C:\Users\BLACK_~1\AppData\Local\Temp\ccCMpPOk.s 			page 2


  31:lvgl/src/draw/lv_draw_arc.c ****     uint16_t start_quarter;
  32:lvgl/src/draw/lv_draw_arc.c ****     uint16_t end_quarter;
  33:lvgl/src/draw/lv_draw_arc.c ****     lv_coord_t width;
  34:lvgl/src/draw/lv_draw_arc.c ****     lv_draw_rect_dsc_t * draw_dsc;
  35:lvgl/src/draw/lv_draw_arc.c ****     const lv_area_t * draw_area;
  36:lvgl/src/draw/lv_draw_arc.c ****     const lv_area_t * clip_area;
  37:lvgl/src/draw/lv_draw_arc.c **** } quarter_draw_dsc_t;
  38:lvgl/src/draw/lv_draw_arc.c **** 
  39:lvgl/src/draw/lv_draw_arc.c **** /**********************
  40:lvgl/src/draw/lv_draw_arc.c ****  *  STATIC PROTOTYPES
  41:lvgl/src/draw/lv_draw_arc.c ****  **********************/
  42:lvgl/src/draw/lv_draw_arc.c **** #if LV_DRAW_COMPLEX
  43:lvgl/src/draw/lv_draw_arc.c **** static void draw_quarter_0(quarter_draw_dsc_t * q);
  44:lvgl/src/draw/lv_draw_arc.c **** static void draw_quarter_1(quarter_draw_dsc_t * q);
  45:lvgl/src/draw/lv_draw_arc.c **** static void draw_quarter_2(quarter_draw_dsc_t * q);
  46:lvgl/src/draw/lv_draw_arc.c **** static void draw_quarter_3(quarter_draw_dsc_t * q);
  47:lvgl/src/draw/lv_draw_arc.c **** static void get_rounded_area(int16_t angle, lv_coord_t radius, uint8_t thickness, lv_area_t * res_a
  48:lvgl/src/draw/lv_draw_arc.c **** #endif /*LV_DRAW_COMPLEX*/
  49:lvgl/src/draw/lv_draw_arc.c **** 
  50:lvgl/src/draw/lv_draw_arc.c **** /**********************
  51:lvgl/src/draw/lv_draw_arc.c ****  *  STATIC VARIABLES
  52:lvgl/src/draw/lv_draw_arc.c ****  **********************/
  53:lvgl/src/draw/lv_draw_arc.c **** 
  54:lvgl/src/draw/lv_draw_arc.c **** /**********************
  55:lvgl/src/draw/lv_draw_arc.c ****  *      MACROS
  56:lvgl/src/draw/lv_draw_arc.c ****  **********************/
  57:lvgl/src/draw/lv_draw_arc.c **** 
  58:lvgl/src/draw/lv_draw_arc.c **** /**********************
  59:lvgl/src/draw/lv_draw_arc.c ****  *   GLOBAL FUNCTIONS
  60:lvgl/src/draw/lv_draw_arc.c ****  **********************/
  61:lvgl/src/draw/lv_draw_arc.c **** 
  62:lvgl/src/draw/lv_draw_arc.c **** LV_ATTRIBUTE_FAST_MEM void lv_draw_arc_dsc_init(lv_draw_arc_dsc_t * dsc)
  63:lvgl/src/draw/lv_draw_arc.c **** {
  64:lvgl/src/draw/lv_draw_arc.c ****     lv_memset_00(dsc, sizeof(lv_draw_arc_dsc_t));
  65:lvgl/src/draw/lv_draw_arc.c ****     dsc->width = 1;
  66:lvgl/src/draw/lv_draw_arc.c ****     dsc->opa = LV_OPA_COVER;
  67:lvgl/src/draw/lv_draw_arc.c ****     dsc->color = lv_color_black();
  68:lvgl/src/draw/lv_draw_arc.c **** }
  69:lvgl/src/draw/lv_draw_arc.c **** 
  70:lvgl/src/draw/lv_draw_arc.c **** void lv_draw_arc(lv_coord_t center_x, lv_coord_t center_y, uint16_t radius,  uint16_t start_angle, 
  71:lvgl/src/draw/lv_draw_arc.c ****                  const lv_area_t * clip_area, const lv_draw_arc_dsc_t * dsc)
  72:lvgl/src/draw/lv_draw_arc.c **** {
  73:lvgl/src/draw/lv_draw_arc.c **** #if LV_DRAW_COMPLEX
  74:lvgl/src/draw/lv_draw_arc.c ****     if(dsc->opa <= LV_OPA_MIN) return;
  75:lvgl/src/draw/lv_draw_arc.c ****     if(dsc->width == 0) return;
  76:lvgl/src/draw/lv_draw_arc.c ****     if(start_angle == end_angle) return;
  77:lvgl/src/draw/lv_draw_arc.c **** 
  78:lvgl/src/draw/lv_draw_arc.c ****     lv_coord_t width = dsc->width;
  79:lvgl/src/draw/lv_draw_arc.c ****     if(width > radius) width = radius;
  80:lvgl/src/draw/lv_draw_arc.c **** 
  81:lvgl/src/draw/lv_draw_arc.c ****     lv_draw_rect_dsc_t cir_dsc;
  82:lvgl/src/draw/lv_draw_arc.c ****     lv_draw_rect_dsc_init(&cir_dsc);
  83:lvgl/src/draw/lv_draw_arc.c ****     cir_dsc.blend_mode = dsc->blend_mode;
  84:lvgl/src/draw/lv_draw_arc.c ****     if(dsc->img_src) {
  85:lvgl/src/draw/lv_draw_arc.c ****         cir_dsc.bg_opa = LV_OPA_TRANSP;
  86:lvgl/src/draw/lv_draw_arc.c ****         cir_dsc.bg_img_src = dsc->img_src;
  87:lvgl/src/draw/lv_draw_arc.c ****         cir_dsc.bg_img_opa = dsc->opa;
ARM GAS  C:\Users\BLACK_~1\AppData\Local\Temp\ccCMpPOk.s 			page 3


  88:lvgl/src/draw/lv_draw_arc.c ****     } else {
  89:lvgl/src/draw/lv_draw_arc.c ****         cir_dsc.bg_opa = dsc->opa;
  90:lvgl/src/draw/lv_draw_arc.c ****         cir_dsc.bg_color = dsc->color;
  91:lvgl/src/draw/lv_draw_arc.c ****     }
  92:lvgl/src/draw/lv_draw_arc.c **** 
  93:lvgl/src/draw/lv_draw_arc.c ****     lv_area_t area_out;
  94:lvgl/src/draw/lv_draw_arc.c ****     area_out.x1 = center_x - radius;
  95:lvgl/src/draw/lv_draw_arc.c ****     area_out.y1 = center_y - radius;
  96:lvgl/src/draw/lv_draw_arc.c ****     area_out.x2 = center_x + radius - 1;  /*-1 because the center already belongs to the left/botto
  97:lvgl/src/draw/lv_draw_arc.c ****     area_out.y2 = center_y + radius - 1;
  98:lvgl/src/draw/lv_draw_arc.c **** 
  99:lvgl/src/draw/lv_draw_arc.c ****     lv_area_t area_in;
 100:lvgl/src/draw/lv_draw_arc.c ****     lv_area_copy(&area_in, &area_out);
 101:lvgl/src/draw/lv_draw_arc.c ****     area_in.x1 += dsc->width;
 102:lvgl/src/draw/lv_draw_arc.c ****     area_in.y1 += dsc->width;
 103:lvgl/src/draw/lv_draw_arc.c ****     area_in.x2 -= dsc->width;
 104:lvgl/src/draw/lv_draw_arc.c ****     area_in.y2 -= dsc->width;
 105:lvgl/src/draw/lv_draw_arc.c **** 
 106:lvgl/src/draw/lv_draw_arc.c ****     /*Create inner the mask*/
 107:lvgl/src/draw/lv_draw_arc.c ****     lv_draw_mask_radius_param_t mask_in_param;
 108:lvgl/src/draw/lv_draw_arc.c ****     lv_draw_mask_radius_init(&mask_in_param, &area_in, LV_RADIUS_CIRCLE, true);
 109:lvgl/src/draw/lv_draw_arc.c ****     int16_t mask_in_id = lv_draw_mask_add(&mask_in_param, NULL);
 110:lvgl/src/draw/lv_draw_arc.c **** 
 111:lvgl/src/draw/lv_draw_arc.c ****     lv_draw_mask_radius_param_t mask_out_param;
 112:lvgl/src/draw/lv_draw_arc.c ****     lv_draw_mask_radius_init(&mask_out_param, &area_out, LV_RADIUS_CIRCLE, false);
 113:lvgl/src/draw/lv_draw_arc.c ****     int16_t mask_out_id = lv_draw_mask_add(&mask_out_param, NULL);
 114:lvgl/src/draw/lv_draw_arc.c **** 
 115:lvgl/src/draw/lv_draw_arc.c ****     /*Draw a full ring*/
 116:lvgl/src/draw/lv_draw_arc.c ****     if(start_angle + 360 == end_angle || start_angle == end_angle + 360) {
 117:lvgl/src/draw/lv_draw_arc.c ****         cir_dsc.radius = LV_RADIUS_CIRCLE;
 118:lvgl/src/draw/lv_draw_arc.c ****         lv_draw_rect(&area_out, clip_area, &cir_dsc);
 119:lvgl/src/draw/lv_draw_arc.c **** 
 120:lvgl/src/draw/lv_draw_arc.c ****         lv_draw_mask_remove_id(mask_out_id);
 121:lvgl/src/draw/lv_draw_arc.c ****         lv_draw_mask_remove_id(mask_in_id);
 122:lvgl/src/draw/lv_draw_arc.c ****         return;
 123:lvgl/src/draw/lv_draw_arc.c ****     }
 124:lvgl/src/draw/lv_draw_arc.c **** 
 125:lvgl/src/draw/lv_draw_arc.c ****     while(start_angle >= 360) start_angle -= 360;
 126:lvgl/src/draw/lv_draw_arc.c ****     while(end_angle >= 360) end_angle -= 360;
 127:lvgl/src/draw/lv_draw_arc.c **** 
 128:lvgl/src/draw/lv_draw_arc.c ****     lv_draw_mask_angle_param_t mask_angle_param;
 129:lvgl/src/draw/lv_draw_arc.c ****     lv_draw_mask_angle_init(&mask_angle_param, center_x, center_y, start_angle, end_angle);
 130:lvgl/src/draw/lv_draw_arc.c ****     int16_t mask_angle_id = lv_draw_mask_add(&mask_angle_param, NULL);
 131:lvgl/src/draw/lv_draw_arc.c **** 
 132:lvgl/src/draw/lv_draw_arc.c ****     int32_t angle_gap;
 133:lvgl/src/draw/lv_draw_arc.c ****     if(end_angle > start_angle) {
 134:lvgl/src/draw/lv_draw_arc.c ****         angle_gap = 360 - (end_angle - start_angle);
 135:lvgl/src/draw/lv_draw_arc.c ****     }
 136:lvgl/src/draw/lv_draw_arc.c ****     else {
 137:lvgl/src/draw/lv_draw_arc.c ****         angle_gap = start_angle - end_angle;
 138:lvgl/src/draw/lv_draw_arc.c ****     }
 139:lvgl/src/draw/lv_draw_arc.c ****     if(angle_gap > SPLIT_ANGLE_GAP_LIMIT && radius > SPLIT_RADIUS_LIMIT) {
 140:lvgl/src/draw/lv_draw_arc.c ****         /*Handle each quarter individually and skip which is empty*/
 141:lvgl/src/draw/lv_draw_arc.c ****         quarter_draw_dsc_t q_dsc;
 142:lvgl/src/draw/lv_draw_arc.c ****         q_dsc.center_x = center_x;
 143:lvgl/src/draw/lv_draw_arc.c ****         q_dsc.center_y = center_y;
 144:lvgl/src/draw/lv_draw_arc.c ****         q_dsc.radius = radius;
ARM GAS  C:\Users\BLACK_~1\AppData\Local\Temp\ccCMpPOk.s 			page 4


 145:lvgl/src/draw/lv_draw_arc.c ****         q_dsc.start_angle = start_angle;
 146:lvgl/src/draw/lv_draw_arc.c ****         q_dsc.end_angle = end_angle;
 147:lvgl/src/draw/lv_draw_arc.c ****         q_dsc.start_quarter = (start_angle / 90) & 0x3;
 148:lvgl/src/draw/lv_draw_arc.c ****         q_dsc.end_quarter = (end_angle / 90) & 0x3;
 149:lvgl/src/draw/lv_draw_arc.c ****         q_dsc.width = width;
 150:lvgl/src/draw/lv_draw_arc.c ****         q_dsc.draw_dsc =  &cir_dsc;
 151:lvgl/src/draw/lv_draw_arc.c ****         q_dsc.draw_area = &area_out;
 152:lvgl/src/draw/lv_draw_arc.c ****         q_dsc.clip_area = clip_area;
 153:lvgl/src/draw/lv_draw_arc.c **** 
 154:lvgl/src/draw/lv_draw_arc.c ****         draw_quarter_0(&q_dsc);
 155:lvgl/src/draw/lv_draw_arc.c ****         draw_quarter_1(&q_dsc);
 156:lvgl/src/draw/lv_draw_arc.c ****         draw_quarter_2(&q_dsc);
 157:lvgl/src/draw/lv_draw_arc.c ****         draw_quarter_3(&q_dsc);
 158:lvgl/src/draw/lv_draw_arc.c ****     }
 159:lvgl/src/draw/lv_draw_arc.c ****     else {
 160:lvgl/src/draw/lv_draw_arc.c ****         lv_draw_rect(&area_out, clip_area, &cir_dsc);
 161:lvgl/src/draw/lv_draw_arc.c ****     }
 162:lvgl/src/draw/lv_draw_arc.c ****     lv_draw_mask_remove_id(mask_angle_id);
 163:lvgl/src/draw/lv_draw_arc.c ****     lv_draw_mask_remove_id(mask_out_id);
 164:lvgl/src/draw/lv_draw_arc.c ****     lv_draw_mask_remove_id(mask_in_id);
 165:lvgl/src/draw/lv_draw_arc.c **** 
 166:lvgl/src/draw/lv_draw_arc.c ****     if(dsc->rounded) {
 167:lvgl/src/draw/lv_draw_arc.c **** 
 168:lvgl/src/draw/lv_draw_arc.c ****         lv_draw_mask_radius_param_t mask_end_param;
 169:lvgl/src/draw/lv_draw_arc.c **** 
 170:lvgl/src/draw/lv_draw_arc.c ****         lv_area_t round_area;
 171:lvgl/src/draw/lv_draw_arc.c ****         get_rounded_area(start_angle, radius, width, &round_area);
 172:lvgl/src/draw/lv_draw_arc.c ****         round_area.x1 += center_x;
 173:lvgl/src/draw/lv_draw_arc.c ****         round_area.x2 += center_x;
 174:lvgl/src/draw/lv_draw_arc.c ****         round_area.y1 += center_y;
 175:lvgl/src/draw/lv_draw_arc.c ****         round_area.y2 += center_y;
 176:lvgl/src/draw/lv_draw_arc.c ****         lv_area_t clip_area2;
 177:lvgl/src/draw/lv_draw_arc.c ****         if(_lv_area_intersect(&clip_area2, clip_area, &round_area)) {
 178:lvgl/src/draw/lv_draw_arc.c ****             lv_draw_mask_radius_init(&mask_end_param, &round_area, LV_RADIUS_CIRCLE, false);
 179:lvgl/src/draw/lv_draw_arc.c ****             int16_t mask_end_id = lv_draw_mask_add(&mask_end_param, NULL);
 180:lvgl/src/draw/lv_draw_arc.c **** 
 181:lvgl/src/draw/lv_draw_arc.c ****             lv_draw_rect(&area_out, &clip_area2, &cir_dsc);
 182:lvgl/src/draw/lv_draw_arc.c ****             lv_draw_mask_remove_id(mask_end_id);
 183:lvgl/src/draw/lv_draw_arc.c ****         }
 184:lvgl/src/draw/lv_draw_arc.c **** 
 185:lvgl/src/draw/lv_draw_arc.c ****         get_rounded_area(end_angle, radius, width, &round_area);
 186:lvgl/src/draw/lv_draw_arc.c ****         round_area.x1 += center_x;
 187:lvgl/src/draw/lv_draw_arc.c ****         round_area.x2 += center_x;
 188:lvgl/src/draw/lv_draw_arc.c ****         round_area.y1 += center_y;
 189:lvgl/src/draw/lv_draw_arc.c ****         round_area.y2 += center_y;
 190:lvgl/src/draw/lv_draw_arc.c ****         if(_lv_area_intersect(&clip_area2, clip_area, &round_area)) {
 191:lvgl/src/draw/lv_draw_arc.c ****             lv_draw_mask_radius_init(&mask_end_param, &round_area, LV_RADIUS_CIRCLE, false);
 192:lvgl/src/draw/lv_draw_arc.c ****             int16_t mask_end_id = lv_draw_mask_add(&mask_end_param, NULL);
 193:lvgl/src/draw/lv_draw_arc.c **** 
 194:lvgl/src/draw/lv_draw_arc.c ****             lv_draw_rect(&area_out, &clip_area2, &cir_dsc);
 195:lvgl/src/draw/lv_draw_arc.c ****             lv_draw_mask_remove_id(mask_end_id);
 196:lvgl/src/draw/lv_draw_arc.c ****         }
 197:lvgl/src/draw/lv_draw_arc.c ****     }
 198:lvgl/src/draw/lv_draw_arc.c **** #else
 199:lvgl/src/draw/lv_draw_arc.c ****     LV_LOG_WARN("Can't draw arc with LV_DRAW_COMPLEX == 0");
 200:lvgl/src/draw/lv_draw_arc.c ****     LV_UNUSED(center_x);
 201:lvgl/src/draw/lv_draw_arc.c ****     LV_UNUSED(center_y);
ARM GAS  C:\Users\BLACK_~1\AppData\Local\Temp\ccCMpPOk.s 			page 5


 202:lvgl/src/draw/lv_draw_arc.c ****     LV_UNUSED(radius);
 203:lvgl/src/draw/lv_draw_arc.c ****     LV_UNUSED(start_angle);
 204:lvgl/src/draw/lv_draw_arc.c ****     LV_UNUSED(end_angle);
 205:lvgl/src/draw/lv_draw_arc.c ****     LV_UNUSED(clip_area);
 206:lvgl/src/draw/lv_draw_arc.c ****     LV_UNUSED(dsc);
 207:lvgl/src/draw/lv_draw_arc.c **** #endif /*LV_DRAW_COMPLEX*/
 208:lvgl/src/draw/lv_draw_arc.c **** }
 209:lvgl/src/draw/lv_draw_arc.c **** 
 210:lvgl/src/draw/lv_draw_arc.c **** void lv_draw_arc_get_area(lv_coord_t x, lv_coord_t y, uint16_t radius,  uint16_t start_angle, uint1
 211:lvgl/src/draw/lv_draw_arc.c **** {
 212:lvgl/src/draw/lv_draw_arc.c ****     lv_coord_t rout = radius;
 213:lvgl/src/draw/lv_draw_arc.c ****     lv_coord_t rin = radius - w;
 214:lvgl/src/draw/lv_draw_arc.c ****     lv_coord_t extra_area = rounded ? w : 0;
 215:lvgl/src/draw/lv_draw_arc.c ****     uint8_t start_quarter = start_angle / 90;
 216:lvgl/src/draw/lv_draw_arc.c ****     uint8_t end_quarter = end_angle / 90;
 217:lvgl/src/draw/lv_draw_arc.c **** 
 218:lvgl/src/draw/lv_draw_arc.c **** 
 219:lvgl/src/draw/lv_draw_arc.c ****     if(start_quarter == end_quarter && start_angle <= end_angle) {
 220:lvgl/src/draw/lv_draw_arc.c ****         if(start_quarter == 0) {
 221:lvgl/src/draw/lv_draw_arc.c ****             area->y1 = y + ((lv_trigo_sin(start_angle) * rin) >> LV_TRIGO_SHIFT) - extra_area;
 222:lvgl/src/draw/lv_draw_arc.c ****             area->x2 = x + ((lv_trigo_sin(start_angle + 90) * rout) >> LV_TRIGO_SHIFT) + extra_area
 223:lvgl/src/draw/lv_draw_arc.c **** 
 224:lvgl/src/draw/lv_draw_arc.c ****             area->y2 = y + ((lv_trigo_sin(end_angle) * rout) >> LV_TRIGO_SHIFT) + extra_area;
 225:lvgl/src/draw/lv_draw_arc.c ****             area->x1 = x + ((lv_trigo_sin(end_angle + 90) * rin) >> LV_TRIGO_SHIFT) - extra_area;
 226:lvgl/src/draw/lv_draw_arc.c ****         }
 227:lvgl/src/draw/lv_draw_arc.c ****         else if(start_quarter == 1) {
 228:lvgl/src/draw/lv_draw_arc.c ****             area->y2 = y + ((lv_trigo_sin(start_angle) * rout) >> LV_TRIGO_SHIFT) + extra_area;
 229:lvgl/src/draw/lv_draw_arc.c ****             area->x2 = x + ((lv_trigo_sin(start_angle + 90) * rin) >> LV_TRIGO_SHIFT) + extra_area;
 230:lvgl/src/draw/lv_draw_arc.c **** 
 231:lvgl/src/draw/lv_draw_arc.c ****             area->y1 = y + ((lv_trigo_sin(end_angle) * rin) >> LV_TRIGO_SHIFT) - extra_area;
 232:lvgl/src/draw/lv_draw_arc.c ****             area->x1 = x + ((lv_trigo_sin(end_angle + 90) * rout) >> LV_TRIGO_SHIFT) - extra_area;
 233:lvgl/src/draw/lv_draw_arc.c ****         }
 234:lvgl/src/draw/lv_draw_arc.c ****         else if(start_quarter == 2) {
 235:lvgl/src/draw/lv_draw_arc.c ****             area->x1 = x + ((lv_trigo_sin(start_angle + 90) * rout) >> LV_TRIGO_SHIFT) - extra_area
 236:lvgl/src/draw/lv_draw_arc.c ****             area->y2 = y + ((lv_trigo_sin(start_angle) * rin) >> LV_TRIGO_SHIFT) + extra_area;
 237:lvgl/src/draw/lv_draw_arc.c **** 
 238:lvgl/src/draw/lv_draw_arc.c ****             area->y1 = y + ((lv_trigo_sin(end_angle) * rout) >> LV_TRIGO_SHIFT) - extra_area;
 239:lvgl/src/draw/lv_draw_arc.c ****             area->x2 = x + ((lv_trigo_sin(end_angle + 90) * rin) >> LV_TRIGO_SHIFT) + extra_area;
 240:lvgl/src/draw/lv_draw_arc.c ****         }
 241:lvgl/src/draw/lv_draw_arc.c ****         else if(start_quarter == 3) {
 242:lvgl/src/draw/lv_draw_arc.c ****             area->x1 = x + ((lv_trigo_sin(start_angle + 90) * rin) >> LV_TRIGO_SHIFT) - extra_area;
 243:lvgl/src/draw/lv_draw_arc.c ****             area->y1 = y + ((lv_trigo_sin(start_angle) * rout) >> LV_TRIGO_SHIFT) - extra_area;
 244:lvgl/src/draw/lv_draw_arc.c **** 
 245:lvgl/src/draw/lv_draw_arc.c ****             area->x2 = x + ((lv_trigo_sin(end_angle + 90) * rout) >> LV_TRIGO_SHIFT) + extra_area;
 246:lvgl/src/draw/lv_draw_arc.c ****             area->y2 = y + ((lv_trigo_sin(end_angle) * rin) >> LV_TRIGO_SHIFT) + extra_area;
 247:lvgl/src/draw/lv_draw_arc.c ****         }
 248:lvgl/src/draw/lv_draw_arc.c ****     }
 249:lvgl/src/draw/lv_draw_arc.c ****     else if(start_quarter == 0 && end_quarter == 1) {
 250:lvgl/src/draw/lv_draw_arc.c ****         area->x1 = x + ((lv_trigo_sin(end_angle + 90) * rout) >> LV_TRIGO_SHIFT) - extra_area;
 251:lvgl/src/draw/lv_draw_arc.c ****         area->y1 = y + ((LV_MIN(lv_trigo_sin(end_angle),
 252:lvgl/src/draw/lv_draw_arc.c ****                                         lv_trigo_sin(start_angle))  * rin) >> LV_TRIGO_SHIFT) - ext
 253:lvgl/src/draw/lv_draw_arc.c ****         area->x2 = x + ((lv_trigo_sin(start_angle + 90) * rout) >> LV_TRIGO_SHIFT) + extra_area;
 254:lvgl/src/draw/lv_draw_arc.c ****         area->y2 = y + rout + extra_area;
 255:lvgl/src/draw/lv_draw_arc.c ****     }
 256:lvgl/src/draw/lv_draw_arc.c ****     else if(start_quarter == 1 && end_quarter == 2) {
 257:lvgl/src/draw/lv_draw_arc.c ****         area->x1 = x - rout - extra_area;
 258:lvgl/src/draw/lv_draw_arc.c ****         area->y1 = y + ((lv_trigo_sin(end_angle) * rout) >> LV_TRIGO_SHIFT) - extra_area;
ARM GAS  C:\Users\BLACK_~1\AppData\Local\Temp\ccCMpPOk.s 			page 6


 259:lvgl/src/draw/lv_draw_arc.c ****         area->x2 = x + ((LV_MAX(lv_trigo_sin(start_angle + 90),
 260:lvgl/src/draw/lv_draw_arc.c ****                                         lv_trigo_sin(end_angle + 90)) * rin) >> LV_TRIGO_SHIFT) + e
 261:lvgl/src/draw/lv_draw_arc.c ****         area->y2 = y + ((lv_trigo_sin(start_angle) * rout) >> LV_TRIGO_SHIFT) + extra_area;
 262:lvgl/src/draw/lv_draw_arc.c ****     }
 263:lvgl/src/draw/lv_draw_arc.c ****     else if(start_quarter == 2 && end_quarter == 3) {
 264:lvgl/src/draw/lv_draw_arc.c ****         area->x1 = x + ((lv_trigo_sin(start_angle + 90) * rout) >> LV_TRIGO_SHIFT) - extra_area;
 265:lvgl/src/draw/lv_draw_arc.c ****         area->y1 = y - rout - extra_area;
 266:lvgl/src/draw/lv_draw_arc.c ****         area->x2 = x + ((lv_trigo_sin(end_angle + 90) * rout) >> LV_TRIGO_SHIFT) + extra_area;
 267:lvgl/src/draw/lv_draw_arc.c ****         area->y2 = y + (LV_MAX(lv_trigo_sin(end_angle) * rin,
 268:lvgl/src/draw/lv_draw_arc.c ****                                        lv_trigo_sin(start_angle) * rin) >> LV_TRIGO_SHIFT) + extra_
 269:lvgl/src/draw/lv_draw_arc.c ****     }
 270:lvgl/src/draw/lv_draw_arc.c ****     else if(start_quarter == 3 && end_quarter == 0) {
 271:lvgl/src/draw/lv_draw_arc.c ****         area->x1 = x + ((LV_MIN(lv_trigo_sin(end_angle + 90),
 272:lvgl/src/draw/lv_draw_arc.c ****                                         lv_trigo_sin(start_angle + 90)) * rin) >> LV_TRIGO_SHIFT) -
 273:lvgl/src/draw/lv_draw_arc.c ****         area->y1 = y + ((lv_trigo_sin(start_angle) * rout) >> LV_TRIGO_SHIFT) - extra_area;
 274:lvgl/src/draw/lv_draw_arc.c ****         area->x2 = x + rout + extra_area;
 275:lvgl/src/draw/lv_draw_arc.c ****         area->y2 = y + ((lv_trigo_sin(end_angle) * rout) >> LV_TRIGO_SHIFT) + extra_area;
 276:lvgl/src/draw/lv_draw_arc.c **** 
 277:lvgl/src/draw/lv_draw_arc.c ****     }
 278:lvgl/src/draw/lv_draw_arc.c ****     else {
 279:lvgl/src/draw/lv_draw_arc.c ****         area->x1 = x - rout;
 280:lvgl/src/draw/lv_draw_arc.c ****         area->y1 = y - rout;
 281:lvgl/src/draw/lv_draw_arc.c ****         area->x2 = x + rout;
 282:lvgl/src/draw/lv_draw_arc.c ****         area->y2 = y + rout;
 283:lvgl/src/draw/lv_draw_arc.c ****     }
 284:lvgl/src/draw/lv_draw_arc.c **** }
 285:lvgl/src/draw/lv_draw_arc.c **** 
 286:lvgl/src/draw/lv_draw_arc.c **** /**********************
 287:lvgl/src/draw/lv_draw_arc.c ****  *   STATIC FUNCTIONS
 288:lvgl/src/draw/lv_draw_arc.c ****  **********************/
 289:lvgl/src/draw/lv_draw_arc.c **** 
 290:lvgl/src/draw/lv_draw_arc.c **** #if LV_DRAW_COMPLEX
 291:lvgl/src/draw/lv_draw_arc.c **** static void draw_quarter_0(quarter_draw_dsc_t * q)
 292:lvgl/src/draw/lv_draw_arc.c **** {
  29              		.loc 1 292 1 view -0
  30              		.cfi_startproc
  31              		@ args = 0, pretend = 0, frame = 8
  32              		@ frame_needed = 0, uses_anonymous_args = 0
  33              		.loc 1 292 1 is_stmt 0 view .LVU1
  34 0000 30B5     		push	{r4, r5, lr}
  35              	.LCFI0:
  36              		.cfi_def_cfa_offset 12
  37              		.cfi_offset 4, -12
  38              		.cfi_offset 5, -8
  39              		.cfi_offset 14, -4
  40 0002 83B0     		sub	sp, sp, #12
  41              	.LCFI1:
  42              		.cfi_def_cfa_offset 24
  43 0004 0446     		mov	r4, r0
 293:lvgl/src/draw/lv_draw_arc.c ****     lv_area_t quarter_area;
  44              		.loc 1 293 5 is_stmt 1 view .LVU2
 294:lvgl/src/draw/lv_draw_arc.c **** 
 295:lvgl/src/draw/lv_draw_arc.c ****     if(q->start_quarter == 0 && q->end_quarter == 0 && q->start_angle < q->end_angle) {
  45              		.loc 1 295 5 view .LVU3
  46              		.loc 1 295 9 is_stmt 0 view .LVU4
  47 0006 4389     		ldrh	r3, [r0, #10]
  48              		.loc 1 295 7 view .LVU5
ARM GAS  C:\Users\BLACK_~1\AppData\Local\Temp\ccCMpPOk.s 			page 7


  49 0008 2BB9     		cbnz	r3, .L2
  50              		.loc 1 295 34 discriminator 1 view .LVU6
  51 000a 8289     		ldrh	r2, [r0, #12]
  52              		.loc 1 295 30 discriminator 1 view .LVU7
  53 000c 1AB9     		cbnz	r2, .L2
  54              		.loc 1 295 57 discriminator 2 view .LVU8
  55 000e C088     		ldrh	r0, [r0, #6]
  56              	.LVL1:
  57              		.loc 1 295 74 discriminator 2 view .LVU9
  58 0010 2289     		ldrh	r2, [r4, #8]
  59              		.loc 1 295 53 discriminator 2 view .LVU10
  60 0012 9042     		cmp	r0, r2
  61 0014 0BD3     		bcc	.L12
  62              	.L2:
 296:lvgl/src/draw/lv_draw_arc.c ****         /*Small arc here*/
 297:lvgl/src/draw/lv_draw_arc.c ****         quarter_area.y1 = q->center_y + ((lv_trigo_sin(q->start_angle) * (q->radius - q->width)) >>
 298:lvgl/src/draw/lv_draw_arc.c ****         quarter_area.x2 = q->center_x + ((lv_trigo_sin(q->start_angle + 90) * (q->radius)) >> LV_TR
 299:lvgl/src/draw/lv_draw_arc.c **** 
 300:lvgl/src/draw/lv_draw_arc.c ****         quarter_area.y2 = q->center_y + ((lv_trigo_sin(q->end_angle) * q->radius) >> LV_TRIGO_SHIFT
 301:lvgl/src/draw/lv_draw_arc.c ****         quarter_area.x1 = q->center_x + ((lv_trigo_sin(q->end_angle + 90) * (q->radius - q->width))
 302:lvgl/src/draw/lv_draw_arc.c **** 
 303:lvgl/src/draw/lv_draw_arc.c ****         bool ok = _lv_area_intersect(&quarter_area, &quarter_area, q->clip_area);
 304:lvgl/src/draw/lv_draw_arc.c ****         if(ok) lv_draw_rect(q->draw_area, &quarter_area, q->draw_dsc);
 305:lvgl/src/draw/lv_draw_arc.c ****     }
 306:lvgl/src/draw/lv_draw_arc.c ****     else if(q->start_quarter == 0 || q->end_quarter == 0) {
  63              		.loc 1 306 10 is_stmt 1 view .LVU11
  64              		.loc 1 306 12 is_stmt 0 view .LVU12
  65 0016 1BB1     		cbz	r3, .L4
  66              		.loc 1 306 39 discriminator 1 view .LVU13
  67 0018 A289     		ldrh	r2, [r4, #12]
  68              		.loc 1 306 35 discriminator 1 view .LVU14
  69 001a 002A     		cmp	r2, #0
  70 001c 40F0B780 		bne	.L5
  71              	.L4:
 307:lvgl/src/draw/lv_draw_arc.c ****         /*Start and/or end arcs here*/
 308:lvgl/src/draw/lv_draw_arc.c ****         if(q->start_quarter == 0) {
  72              		.loc 1 308 9 is_stmt 1 view .LVU15
  73              		.loc 1 308 11 is_stmt 0 view .LVU16
  74 0020 002B     		cmp	r3, #0
  75 0022 4CD0     		beq	.L13
  76              	.L6:
 309:lvgl/src/draw/lv_draw_arc.c ****             quarter_area.x1 = q->center_x;
 310:lvgl/src/draw/lv_draw_arc.c ****             quarter_area.y2 = q->center_y + q->radius;
 311:lvgl/src/draw/lv_draw_arc.c **** 
 312:lvgl/src/draw/lv_draw_arc.c ****             quarter_area.y1 = q->center_y + ((lv_trigo_sin(q->start_angle) * (q->radius - q->width)
 313:lvgl/src/draw/lv_draw_arc.c ****             quarter_area.x2 = q->center_x + ((lv_trigo_sin(q->start_angle + 90) * (q->radius)) >> L
 314:lvgl/src/draw/lv_draw_arc.c **** 
 315:lvgl/src/draw/lv_draw_arc.c ****             bool ok = _lv_area_intersect(&quarter_area, &quarter_area, q->clip_area);
 316:lvgl/src/draw/lv_draw_arc.c ****             if(ok) lv_draw_rect(q->draw_area, &quarter_area, q->draw_dsc);
 317:lvgl/src/draw/lv_draw_arc.c ****         }
 318:lvgl/src/draw/lv_draw_arc.c ****         if(q->end_quarter == 0) {
  77              		.loc 1 318 9 is_stmt 1 view .LVU17
  78              		.loc 1 318 13 is_stmt 0 view .LVU18
  79 0024 A389     		ldrh	r3, [r4, #12]
  80              		.loc 1 318 11 view .LVU19
  81 0026 002B     		cmp	r3, #0
  82 0028 7CD0     		beq	.L14
ARM GAS  C:\Users\BLACK_~1\AppData\Local\Temp\ccCMpPOk.s 			page 8


  83              	.L1:
 319:lvgl/src/draw/lv_draw_arc.c ****             quarter_area.x2 = q->center_x + q->radius;
 320:lvgl/src/draw/lv_draw_arc.c ****             quarter_area.y1 = q->center_y;
 321:lvgl/src/draw/lv_draw_arc.c **** 
 322:lvgl/src/draw/lv_draw_arc.c ****             quarter_area.y2 = q->center_y + ((lv_trigo_sin(q->end_angle) * q->radius) >> LV_TRIGO_S
 323:lvgl/src/draw/lv_draw_arc.c ****             quarter_area.x1 = q->center_x + ((lv_trigo_sin(q->end_angle + 90) * (q->radius - q->wid
 324:lvgl/src/draw/lv_draw_arc.c **** 
 325:lvgl/src/draw/lv_draw_arc.c ****             bool ok = _lv_area_intersect(&quarter_area, &quarter_area, q->clip_area);
 326:lvgl/src/draw/lv_draw_arc.c ****             if(ok) lv_draw_rect(q->draw_area, &quarter_area, q->draw_dsc);
 327:lvgl/src/draw/lv_draw_arc.c ****         }
 328:lvgl/src/draw/lv_draw_arc.c ****     }
 329:lvgl/src/draw/lv_draw_arc.c ****     else if((q->start_quarter == q->end_quarter && q->start_quarter != 0 && q->end_angle < q->start
 330:lvgl/src/draw/lv_draw_arc.c ****             (q->start_quarter == 2 && q->end_quarter == 1) ||
 331:lvgl/src/draw/lv_draw_arc.c ****             (q->start_quarter == 3 && q->end_quarter == 2) ||
 332:lvgl/src/draw/lv_draw_arc.c ****             (q->start_quarter == 3 && q->end_quarter == 1)) {
 333:lvgl/src/draw/lv_draw_arc.c ****         /*Arc crosses here*/
 334:lvgl/src/draw/lv_draw_arc.c ****         quarter_area.x1 = q->center_x;
 335:lvgl/src/draw/lv_draw_arc.c ****         quarter_area.y1 = q->center_y;
 336:lvgl/src/draw/lv_draw_arc.c ****         quarter_area.x2 = q->center_x + q->radius;
 337:lvgl/src/draw/lv_draw_arc.c ****         quarter_area.y2 = q->center_y + q->radius;
 338:lvgl/src/draw/lv_draw_arc.c **** 
 339:lvgl/src/draw/lv_draw_arc.c ****         bool ok = _lv_area_intersect(&quarter_area, &quarter_area, q->clip_area);
 340:lvgl/src/draw/lv_draw_arc.c ****         if(ok) lv_draw_rect(q->draw_area, &quarter_area, q->draw_dsc);
 341:lvgl/src/draw/lv_draw_arc.c ****     }
 342:lvgl/src/draw/lv_draw_arc.c **** }
  84              		.loc 1 342 1 view .LVU20
  85 002a 03B0     		add	sp, sp, #12
  86              	.LCFI2:
  87              		.cfi_remember_state
  88              		.cfi_def_cfa_offset 12
  89              		@ sp needed
  90 002c 30BD     		pop	{r4, r5, pc}
  91              	.LVL2:
  92              	.L12:
  93              	.LCFI3:
  94              		.cfi_restore_state
  95              	.LBB14:
 297:lvgl/src/draw/lv_draw_arc.c ****         quarter_area.x2 = q->center_x + ((lv_trigo_sin(q->start_angle + 90) * (q->radius)) >> LV_TR
  96              		.loc 1 297 9 is_stmt 1 view .LVU21
 297:lvgl/src/draw/lv_draw_arc.c ****         quarter_area.x2 = q->center_x + ((lv_trigo_sin(q->start_angle + 90) * (q->radius)) >> LV_TR
  97              		.loc 1 297 28 is_stmt 0 view .LVU22
  98 002e 6588     		ldrh	r5, [r4, #2]
 297:lvgl/src/draw/lv_draw_arc.c ****         quarter_area.x2 = q->center_x + ((lv_trigo_sin(q->start_angle + 90) * (q->radius)) >> LV_TR
  99              		.loc 1 297 43 view .LVU23
 100 0030 00B2     		sxth	r0, r0
 101 0032 FFF7FEFF 		bl	lv_trigo_sin
 102              	.LVL3:
 297:lvgl/src/draw/lv_draw_arc.c ****         quarter_area.x2 = q->center_x + ((lv_trigo_sin(q->start_angle + 90) * (q->radius)) >> LV_TR
 103              		.loc 1 297 76 view .LVU24
 104 0036 B4F90430 		ldrsh	r3, [r4, #4]
 297:lvgl/src/draw/lv_draw_arc.c ****         quarter_area.x2 = q->center_x + ((lv_trigo_sin(q->start_angle + 90) * (q->radius)) >> LV_TR
 105              		.loc 1 297 88 view .LVU25
 106 003a B4F90E20 		ldrsh	r2, [r4, #14]
 297:lvgl/src/draw/lv_draw_arc.c ****         quarter_area.x2 = q->center_x + ((lv_trigo_sin(q->start_angle + 90) * (q->radius)) >> LV_TR
 107              		.loc 1 297 85 view .LVU26
 108 003e 9B1A     		subs	r3, r3, r2
 297:lvgl/src/draw/lv_draw_arc.c ****         quarter_area.x2 = q->center_x + ((lv_trigo_sin(q->start_angle + 90) * (q->radius)) >> LV_TR
ARM GAS  C:\Users\BLACK_~1\AppData\Local\Temp\ccCMpPOk.s 			page 9


 109              		.loc 1 297 72 view .LVU27
 110 0040 03FB00F0 		mul	r0, r3, r0
 297:lvgl/src/draw/lv_draw_arc.c ****         quarter_area.x2 = q->center_x + ((lv_trigo_sin(q->start_angle + 90) * (q->radius)) >> LV_TR
 111              		.loc 1 297 39 view .LVU28
 112 0044 05EBE035 		add	r5, r5, r0, asr #15
 297:lvgl/src/draw/lv_draw_arc.c ****         quarter_area.x2 = q->center_x + ((lv_trigo_sin(q->start_angle + 90) * (q->radius)) >> LV_TR
 113              		.loc 1 297 25 view .LVU29
 114 0048 ADF80250 		strh	r5, [sp, #2]	@ movhi
 298:lvgl/src/draw/lv_draw_arc.c **** 
 115              		.loc 1 298 9 is_stmt 1 view .LVU30
 298:lvgl/src/draw/lv_draw_arc.c **** 
 116              		.loc 1 298 28 is_stmt 0 view .LVU31
 117 004c 2588     		ldrh	r5, [r4]
 298:lvgl/src/draw/lv_draw_arc.c **** 
 118              		.loc 1 298 57 view .LVU32
 119 004e E088     		ldrh	r0, [r4, #6]
 298:lvgl/src/draw/lv_draw_arc.c **** 
 120              		.loc 1 298 71 view .LVU33
 121 0050 5A30     		adds	r0, r0, #90
 298:lvgl/src/draw/lv_draw_arc.c **** 
 122              		.loc 1 298 43 view .LVU34
 123 0052 00B2     		sxth	r0, r0
 124 0054 FFF7FEFF 		bl	lv_trigo_sin
 125              	.LVL4:
 298:lvgl/src/draw/lv_draw_arc.c **** 
 126              		.loc 1 298 81 view .LVU35
 127 0058 B4F90430 		ldrsh	r3, [r4, #4]
 298:lvgl/src/draw/lv_draw_arc.c **** 
 128              		.loc 1 298 77 view .LVU36
 129 005c 03FB00F0 		mul	r0, r3, r0
 298:lvgl/src/draw/lv_draw_arc.c **** 
 130              		.loc 1 298 39 view .LVU37
 131 0060 05EBE035 		add	r5, r5, r0, asr #15
 298:lvgl/src/draw/lv_draw_arc.c **** 
 132              		.loc 1 298 25 view .LVU38
 133 0064 ADF80450 		strh	r5, [sp, #4]	@ movhi
 300:lvgl/src/draw/lv_draw_arc.c ****         quarter_area.x1 = q->center_x + ((lv_trigo_sin(q->end_angle + 90) * (q->radius - q->width))
 134              		.loc 1 300 9 is_stmt 1 view .LVU39
 300:lvgl/src/draw/lv_draw_arc.c ****         quarter_area.x1 = q->center_x + ((lv_trigo_sin(q->end_angle + 90) * (q->radius - q->width))
 135              		.loc 1 300 28 is_stmt 0 view .LVU40
 136 0068 6588     		ldrh	r5, [r4, #2]
 300:lvgl/src/draw/lv_draw_arc.c ****         quarter_area.x1 = q->center_x + ((lv_trigo_sin(q->end_angle + 90) * (q->radius - q->width))
 137              		.loc 1 300 43 view .LVU41
 138 006a B4F90800 		ldrsh	r0, [r4, #8]
 139 006e FFF7FEFF 		bl	lv_trigo_sin
 140              	.LVL5:
 300:lvgl/src/draw/lv_draw_arc.c ****         quarter_area.x1 = q->center_x + ((lv_trigo_sin(q->end_angle + 90) * (q->radius - q->width))
 141              		.loc 1 300 73 view .LVU42
 142 0072 B4F90430 		ldrsh	r3, [r4, #4]
 300:lvgl/src/draw/lv_draw_arc.c ****         quarter_area.x1 = q->center_x + ((lv_trigo_sin(q->end_angle + 90) * (q->radius - q->width))
 143              		.loc 1 300 70 view .LVU43
 144 0076 03FB00F0 		mul	r0, r3, r0
 300:lvgl/src/draw/lv_draw_arc.c ****         quarter_area.x1 = q->center_x + ((lv_trigo_sin(q->end_angle + 90) * (q->radius - q->width))
 145              		.loc 1 300 39 view .LVU44
 146 007a 05EBE035 		add	r5, r5, r0, asr #15
 300:lvgl/src/draw/lv_draw_arc.c ****         quarter_area.x1 = q->center_x + ((lv_trigo_sin(q->end_angle + 90) * (q->radius - q->width))
 147              		.loc 1 300 25 view .LVU45
ARM GAS  C:\Users\BLACK_~1\AppData\Local\Temp\ccCMpPOk.s 			page 10


 148 007e ADF80650 		strh	r5, [sp, #6]	@ movhi
 301:lvgl/src/draw/lv_draw_arc.c **** 
 149              		.loc 1 301 9 is_stmt 1 view .LVU46
 301:lvgl/src/draw/lv_draw_arc.c **** 
 150              		.loc 1 301 28 is_stmt 0 view .LVU47
 151 0082 2588     		ldrh	r5, [r4]
 301:lvgl/src/draw/lv_draw_arc.c **** 
 152              		.loc 1 301 57 view .LVU48
 153 0084 2089     		ldrh	r0, [r4, #8]
 301:lvgl/src/draw/lv_draw_arc.c **** 
 154              		.loc 1 301 69 view .LVU49
 155 0086 5A30     		adds	r0, r0, #90
 301:lvgl/src/draw/lv_draw_arc.c **** 
 156              		.loc 1 301 43 view .LVU50
 157 0088 00B2     		sxth	r0, r0
 158 008a FFF7FEFF 		bl	lv_trigo_sin
 159              	.LVL6:
 301:lvgl/src/draw/lv_draw_arc.c **** 
 160              		.loc 1 301 79 view .LVU51
 161 008e B4F90430 		ldrsh	r3, [r4, #4]
 301:lvgl/src/draw/lv_draw_arc.c **** 
 162              		.loc 1 301 91 view .LVU52
 163 0092 B4F90E20 		ldrsh	r2, [r4, #14]
 301:lvgl/src/draw/lv_draw_arc.c **** 
 164              		.loc 1 301 88 view .LVU53
 165 0096 9B1A     		subs	r3, r3, r2
 301:lvgl/src/draw/lv_draw_arc.c **** 
 166              		.loc 1 301 75 view .LVU54
 167 0098 03FB00F0 		mul	r0, r3, r0
 301:lvgl/src/draw/lv_draw_arc.c **** 
 168              		.loc 1 301 39 view .LVU55
 169 009c 05EBE035 		add	r5, r5, r0, asr #15
 301:lvgl/src/draw/lv_draw_arc.c **** 
 170              		.loc 1 301 25 view .LVU56
 171 00a0 ADF80050 		strh	r5, [sp]	@ movhi
 303:lvgl/src/draw/lv_draw_arc.c ****         if(ok) lv_draw_rect(q->draw_area, &quarter_area, q->draw_dsc);
 172              		.loc 1 303 9 is_stmt 1 view .LVU57
 303:lvgl/src/draw/lv_draw_arc.c ****         if(ok) lv_draw_rect(q->draw_area, &quarter_area, q->draw_dsc);
 173              		.loc 1 303 19 is_stmt 0 view .LVU58
 174 00a4 A269     		ldr	r2, [r4, #24]
 175 00a6 6946     		mov	r1, sp
 176 00a8 6846     		mov	r0, sp
 177 00aa FFF7FEFF 		bl	_lv_area_intersect
 178              	.LVL7:
 304:lvgl/src/draw/lv_draw_arc.c ****     }
 179              		.loc 1 304 9 is_stmt 1 view .LVU59
 304:lvgl/src/draw/lv_draw_arc.c ****     }
 180              		.loc 1 304 11 is_stmt 0 view .LVU60
 181 00ae 0028     		cmp	r0, #0
 182 00b0 BBD0     		beq	.L1
 304:lvgl/src/draw/lv_draw_arc.c ****     }
 183              		.loc 1 304 16 is_stmt 1 discriminator 1 view .LVU61
 184 00b2 2269     		ldr	r2, [r4, #16]
 185 00b4 6946     		mov	r1, sp
 186 00b6 6069     		ldr	r0, [r4, #20]
 187              	.LVL8:
 304:lvgl/src/draw/lv_draw_arc.c ****     }
ARM GAS  C:\Users\BLACK_~1\AppData\Local\Temp\ccCMpPOk.s 			page 11


 188              		.loc 1 304 16 is_stmt 0 discriminator 1 view .LVU62
 189 00b8 FFF7FEFF 		bl	lv_draw_rect
 190              	.LVL9:
 191 00bc B5E7     		b	.L1
 192              	.L13:
 304:lvgl/src/draw/lv_draw_arc.c ****     }
 193              		.loc 1 304 16 discriminator 1 view .LVU63
 194              	.LBE14:
 195              	.LBB15:
 309:lvgl/src/draw/lv_draw_arc.c ****             quarter_area.y2 = q->center_y + q->radius;
 196              		.loc 1 309 13 is_stmt 1 view .LVU64
 309:lvgl/src/draw/lv_draw_arc.c ****             quarter_area.y2 = q->center_y + q->radius;
 197              		.loc 1 309 32 is_stmt 0 view .LVU65
 198 00be B4F90030 		ldrsh	r3, [r4]
 309:lvgl/src/draw/lv_draw_arc.c ****             quarter_area.y2 = q->center_y + q->radius;
 199              		.loc 1 309 29 view .LVU66
 200 00c2 ADF80030 		strh	r3, [sp]	@ movhi
 310:lvgl/src/draw/lv_draw_arc.c **** 
 201              		.loc 1 310 13 is_stmt 1 view .LVU67
 310:lvgl/src/draw/lv_draw_arc.c **** 
 202              		.loc 1 310 32 is_stmt 0 view .LVU68
 203 00c6 6588     		ldrh	r5, [r4, #2]
 310:lvgl/src/draw/lv_draw_arc.c **** 
 204              		.loc 1 310 46 view .LVU69
 205 00c8 A388     		ldrh	r3, [r4, #4]
 310:lvgl/src/draw/lv_draw_arc.c **** 
 206              		.loc 1 310 43 view .LVU70
 207 00ca 2B44     		add	r3, r3, r5
 310:lvgl/src/draw/lv_draw_arc.c **** 
 208              		.loc 1 310 29 view .LVU71
 209 00cc ADF80630 		strh	r3, [sp, #6]	@ movhi
 312:lvgl/src/draw/lv_draw_arc.c ****             quarter_area.x2 = q->center_x + ((lv_trigo_sin(q->start_angle + 90) * (q->radius)) >> L
 210              		.loc 1 312 13 is_stmt 1 view .LVU72
 312:lvgl/src/draw/lv_draw_arc.c ****             quarter_area.x2 = q->center_x + ((lv_trigo_sin(q->start_angle + 90) * (q->radius)) >> L
 211              		.loc 1 312 47 is_stmt 0 view .LVU73
 212 00d0 B4F90600 		ldrsh	r0, [r4, #6]
 213 00d4 FFF7FEFF 		bl	lv_trigo_sin
 214              	.LVL10:
 312:lvgl/src/draw/lv_draw_arc.c ****             quarter_area.x2 = q->center_x + ((lv_trigo_sin(q->start_angle + 90) * (q->radius)) >> L
 215              		.loc 1 312 80 view .LVU74
 216 00d8 B4F90430 		ldrsh	r3, [r4, #4]
 312:lvgl/src/draw/lv_draw_arc.c ****             quarter_area.x2 = q->center_x + ((lv_trigo_sin(q->start_angle + 90) * (q->radius)) >> L
 217              		.loc 1 312 92 view .LVU75
 218 00dc B4F90E20 		ldrsh	r2, [r4, #14]
 312:lvgl/src/draw/lv_draw_arc.c ****             quarter_area.x2 = q->center_x + ((lv_trigo_sin(q->start_angle + 90) * (q->radius)) >> L
 219              		.loc 1 312 89 view .LVU76
 220 00e0 9B1A     		subs	r3, r3, r2
 312:lvgl/src/draw/lv_draw_arc.c ****             quarter_area.x2 = q->center_x + ((lv_trigo_sin(q->start_angle + 90) * (q->radius)) >> L
 221              		.loc 1 312 76 view .LVU77
 222 00e2 03FB00F0 		mul	r0, r3, r0
 312:lvgl/src/draw/lv_draw_arc.c ****             quarter_area.x2 = q->center_x + ((lv_trigo_sin(q->start_angle + 90) * (q->radius)) >> L
 223              		.loc 1 312 43 view .LVU78
 224 00e6 05EBE035 		add	r5, r5, r0, asr #15
 312:lvgl/src/draw/lv_draw_arc.c ****             quarter_area.x2 = q->center_x + ((lv_trigo_sin(q->start_angle + 90) * (q->radius)) >> L
 225              		.loc 1 312 29 view .LVU79
 226 00ea ADF80250 		strh	r5, [sp, #2]	@ movhi
 313:lvgl/src/draw/lv_draw_arc.c **** 
ARM GAS  C:\Users\BLACK_~1\AppData\Local\Temp\ccCMpPOk.s 			page 12


 227              		.loc 1 313 13 is_stmt 1 view .LVU80
 313:lvgl/src/draw/lv_draw_arc.c **** 
 228              		.loc 1 313 32 is_stmt 0 view .LVU81
 229 00ee 2588     		ldrh	r5, [r4]
 313:lvgl/src/draw/lv_draw_arc.c **** 
 230              		.loc 1 313 61 view .LVU82
 231 00f0 E088     		ldrh	r0, [r4, #6]
 313:lvgl/src/draw/lv_draw_arc.c **** 
 232              		.loc 1 313 75 view .LVU83
 233 00f2 5A30     		adds	r0, r0, #90
 313:lvgl/src/draw/lv_draw_arc.c **** 
 234              		.loc 1 313 47 view .LVU84
 235 00f4 00B2     		sxth	r0, r0
 236 00f6 FFF7FEFF 		bl	lv_trigo_sin
 237              	.LVL11:
 313:lvgl/src/draw/lv_draw_arc.c **** 
 238              		.loc 1 313 85 view .LVU85
 239 00fa B4F90430 		ldrsh	r3, [r4, #4]
 313:lvgl/src/draw/lv_draw_arc.c **** 
 240              		.loc 1 313 81 view .LVU86
 241 00fe 03FB00F0 		mul	r0, r3, r0
 313:lvgl/src/draw/lv_draw_arc.c **** 
 242              		.loc 1 313 43 view .LVU87
 243 0102 05EBE035 		add	r5, r5, r0, asr #15
 313:lvgl/src/draw/lv_draw_arc.c **** 
 244              		.loc 1 313 29 view .LVU88
 245 0106 ADF80450 		strh	r5, [sp, #4]	@ movhi
 315:lvgl/src/draw/lv_draw_arc.c ****             if(ok) lv_draw_rect(q->draw_area, &quarter_area, q->draw_dsc);
 246              		.loc 1 315 13 is_stmt 1 view .LVU89
 315:lvgl/src/draw/lv_draw_arc.c ****             if(ok) lv_draw_rect(q->draw_area, &quarter_area, q->draw_dsc);
 247              		.loc 1 315 23 is_stmt 0 view .LVU90
 248 010a A269     		ldr	r2, [r4, #24]
 249 010c 6946     		mov	r1, sp
 250 010e 6846     		mov	r0, sp
 251 0110 FFF7FEFF 		bl	_lv_area_intersect
 252              	.LVL12:
 316:lvgl/src/draw/lv_draw_arc.c ****         }
 253              		.loc 1 316 13 is_stmt 1 view .LVU91
 316:lvgl/src/draw/lv_draw_arc.c ****         }
 254              		.loc 1 316 15 is_stmt 0 view .LVU92
 255 0114 0028     		cmp	r0, #0
 256 0116 85D0     		beq	.L6
 316:lvgl/src/draw/lv_draw_arc.c ****         }
 257              		.loc 1 316 20 is_stmt 1 discriminator 1 view .LVU93
 258 0118 2269     		ldr	r2, [r4, #16]
 259 011a 6946     		mov	r1, sp
 260 011c 6069     		ldr	r0, [r4, #20]
 261              	.LVL13:
 316:lvgl/src/draw/lv_draw_arc.c ****         }
 262              		.loc 1 316 20 is_stmt 0 discriminator 1 view .LVU94
 263 011e FFF7FEFF 		bl	lv_draw_rect
 264              	.LVL14:
 265 0122 7FE7     		b	.L6
 266              	.L14:
 316:lvgl/src/draw/lv_draw_arc.c ****         }
 267              		.loc 1 316 20 discriminator 1 view .LVU95
 268              	.LBE15:
ARM GAS  C:\Users\BLACK_~1\AppData\Local\Temp\ccCMpPOk.s 			page 13


 269              	.LBB16:
 319:lvgl/src/draw/lv_draw_arc.c ****             quarter_area.y1 = q->center_y;
 270              		.loc 1 319 13 is_stmt 1 view .LVU96
 319:lvgl/src/draw/lv_draw_arc.c ****             quarter_area.y1 = q->center_y;
 271              		.loc 1 319 32 is_stmt 0 view .LVU97
 272 0124 2388     		ldrh	r3, [r4]
 319:lvgl/src/draw/lv_draw_arc.c ****             quarter_area.y1 = q->center_y;
 273              		.loc 1 319 46 view .LVU98
 274 0126 A288     		ldrh	r2, [r4, #4]
 319:lvgl/src/draw/lv_draw_arc.c ****             quarter_area.y1 = q->center_y;
 275              		.loc 1 319 43 view .LVU99
 276 0128 1344     		add	r3, r3, r2
 319:lvgl/src/draw/lv_draw_arc.c ****             quarter_area.y1 = q->center_y;
 277              		.loc 1 319 29 view .LVU100
 278 012a ADF80430 		strh	r3, [sp, #4]	@ movhi
 320:lvgl/src/draw/lv_draw_arc.c **** 
 279              		.loc 1 320 13 is_stmt 1 view .LVU101
 320:lvgl/src/draw/lv_draw_arc.c **** 
 280              		.loc 1 320 32 is_stmt 0 view .LVU102
 281 012e B4F90230 		ldrsh	r3, [r4, #2]
 320:lvgl/src/draw/lv_draw_arc.c **** 
 282              		.loc 1 320 29 view .LVU103
 283 0132 ADF80230 		strh	r3, [sp, #2]	@ movhi
 322:lvgl/src/draw/lv_draw_arc.c ****             quarter_area.x1 = q->center_x + ((lv_trigo_sin(q->end_angle + 90) * (q->radius - q->wid
 284              		.loc 1 322 13 is_stmt 1 view .LVU104
 322:lvgl/src/draw/lv_draw_arc.c ****             quarter_area.x1 = q->center_x + ((lv_trigo_sin(q->end_angle + 90) * (q->radius - q->wid
 285              		.loc 1 322 32 is_stmt 0 view .LVU105
 286 0136 9DB2     		uxth	r5, r3
 322:lvgl/src/draw/lv_draw_arc.c ****             quarter_area.x1 = q->center_x + ((lv_trigo_sin(q->end_angle + 90) * (q->radius - q->wid
 287              		.loc 1 322 47 view .LVU106
 288 0138 B4F90800 		ldrsh	r0, [r4, #8]
 289 013c FFF7FEFF 		bl	lv_trigo_sin
 290              	.LVL15:
 322:lvgl/src/draw/lv_draw_arc.c ****             quarter_area.x1 = q->center_x + ((lv_trigo_sin(q->end_angle + 90) * (q->radius - q->wid
 291              		.loc 1 322 77 view .LVU107
 292 0140 B4F90430 		ldrsh	r3, [r4, #4]
 322:lvgl/src/draw/lv_draw_arc.c ****             quarter_area.x1 = q->center_x + ((lv_trigo_sin(q->end_angle + 90) * (q->radius - q->wid
 293              		.loc 1 322 74 view .LVU108
 294 0144 00FB03F3 		mul	r3, r0, r3
 322:lvgl/src/draw/lv_draw_arc.c ****             quarter_area.x1 = q->center_x + ((lv_trigo_sin(q->end_angle + 90) * (q->radius - q->wid
 295              		.loc 1 322 43 view .LVU109
 296 0148 05EBE333 		add	r3, r5, r3, asr #15
 322:lvgl/src/draw/lv_draw_arc.c ****             quarter_area.x1 = q->center_x + ((lv_trigo_sin(q->end_angle + 90) * (q->radius - q->wid
 297              		.loc 1 322 29 view .LVU110
 298 014c ADF80630 		strh	r3, [sp, #6]	@ movhi
 323:lvgl/src/draw/lv_draw_arc.c **** 
 299              		.loc 1 323 13 is_stmt 1 view .LVU111
 323:lvgl/src/draw/lv_draw_arc.c **** 
 300              		.loc 1 323 32 is_stmt 0 view .LVU112
 301 0150 2588     		ldrh	r5, [r4]
 323:lvgl/src/draw/lv_draw_arc.c **** 
 302              		.loc 1 323 61 view .LVU113
 303 0152 2089     		ldrh	r0, [r4, #8]
 323:lvgl/src/draw/lv_draw_arc.c **** 
 304              		.loc 1 323 73 view .LVU114
 305 0154 5A30     		adds	r0, r0, #90
 323:lvgl/src/draw/lv_draw_arc.c **** 
ARM GAS  C:\Users\BLACK_~1\AppData\Local\Temp\ccCMpPOk.s 			page 14


 306              		.loc 1 323 47 view .LVU115
 307 0156 00B2     		sxth	r0, r0
 308 0158 FFF7FEFF 		bl	lv_trigo_sin
 309              	.LVL16:
 323:lvgl/src/draw/lv_draw_arc.c **** 
 310              		.loc 1 323 83 view .LVU116
 311 015c B4F90430 		ldrsh	r3, [r4, #4]
 323:lvgl/src/draw/lv_draw_arc.c **** 
 312              		.loc 1 323 95 view .LVU117
 313 0160 B4F90E20 		ldrsh	r2, [r4, #14]
 323:lvgl/src/draw/lv_draw_arc.c **** 
 314              		.loc 1 323 92 view .LVU118
 315 0164 9B1A     		subs	r3, r3, r2
 323:lvgl/src/draw/lv_draw_arc.c **** 
 316              		.loc 1 323 79 view .LVU119
 317 0166 03FB00F0 		mul	r0, r3, r0
 323:lvgl/src/draw/lv_draw_arc.c **** 
 318              		.loc 1 323 43 view .LVU120
 319 016a 05EBE035 		add	r5, r5, r0, asr #15
 323:lvgl/src/draw/lv_draw_arc.c **** 
 320              		.loc 1 323 29 view .LVU121
 321 016e ADF80050 		strh	r5, [sp]	@ movhi
 325:lvgl/src/draw/lv_draw_arc.c ****             if(ok) lv_draw_rect(q->draw_area, &quarter_area, q->draw_dsc);
 322              		.loc 1 325 13 is_stmt 1 view .LVU122
 325:lvgl/src/draw/lv_draw_arc.c ****             if(ok) lv_draw_rect(q->draw_area, &quarter_area, q->draw_dsc);
 323              		.loc 1 325 23 is_stmt 0 view .LVU123
 324 0172 A269     		ldr	r2, [r4, #24]
 325 0174 6946     		mov	r1, sp
 326 0176 6846     		mov	r0, sp
 327 0178 FFF7FEFF 		bl	_lv_area_intersect
 328              	.LVL17:
 326:lvgl/src/draw/lv_draw_arc.c ****         }
 329              		.loc 1 326 13 is_stmt 1 view .LVU124
 326:lvgl/src/draw/lv_draw_arc.c ****         }
 330              		.loc 1 326 15 is_stmt 0 view .LVU125
 331 017c 0028     		cmp	r0, #0
 332 017e 3FF454AF 		beq	.L1
 326:lvgl/src/draw/lv_draw_arc.c ****         }
 333              		.loc 1 326 20 is_stmt 1 discriminator 1 view .LVU126
 334 0182 2269     		ldr	r2, [r4, #16]
 335 0184 6946     		mov	r1, sp
 336 0186 6069     		ldr	r0, [r4, #20]
 337              	.LVL18:
 326:lvgl/src/draw/lv_draw_arc.c ****         }
 338              		.loc 1 326 20 is_stmt 0 discriminator 1 view .LVU127
 339 0188 FFF7FEFF 		bl	lv_draw_rect
 340              	.LVL19:
 341 018c 4DE7     		b	.L1
 342              	.L5:
 326:lvgl/src/draw/lv_draw_arc.c ****         }
 343              		.loc 1 326 20 discriminator 1 view .LVU128
 344              	.LBE16:
 329:lvgl/src/draw/lv_draw_arc.c ****             (q->start_quarter == 2 && q->end_quarter == 1) ||
 345              		.loc 1 329 10 is_stmt 1 view .LVU129
 329:lvgl/src/draw/lv_draw_arc.c ****             (q->start_quarter == 2 && q->end_quarter == 1) ||
 346              		.loc 1 329 12 is_stmt 0 view .LVU130
 347 018e 9342     		cmp	r3, r2
ARM GAS  C:\Users\BLACK_~1\AppData\Local\Temp\ccCMpPOk.s 			page 15


 348 0190 0AD0     		beq	.L15
 349              	.L7:
 329:lvgl/src/draw/lv_draw_arc.c ****             (q->start_quarter == 2 && q->end_quarter == 1) ||
 350              		.loc 1 329 108 discriminator 5 view .LVU131
 351 0192 022B     		cmp	r3, #2
 352 0194 2BD0     		beq	.L16
 353              	.L9:
 330:lvgl/src/draw/lv_draw_arc.c ****             (q->start_quarter == 3 && q->end_quarter == 2) ||
 354              		.loc 1 330 60 discriminator 1 view .LVU132
 355 0196 032B     		cmp	r3, #3
 356 0198 2CD0     		beq	.L17
 357              	.L10:
 331:lvgl/src/draw/lv_draw_arc.c ****             (q->start_quarter == 3 && q->end_quarter == 1)) {
 358              		.loc 1 331 60 discriminator 1 view .LVU133
 359 019a 032B     		cmp	r3, #3
 360 019c 7FF445AF 		bne	.L1
 332:lvgl/src/draw/lv_draw_arc.c ****         /*Arc crosses here*/
 361              		.loc 1 332 36 view .LVU134
 362 01a0 012A     		cmp	r2, #1
 363 01a2 7FF442AF 		bne	.L1
 364 01a6 03E0     		b	.L8
 365              	.L15:
 329:lvgl/src/draw/lv_draw_arc.c ****             (q->start_quarter == 2 && q->end_quarter == 1) ||
 366              		.loc 1 329 78 discriminator 3 view .LVU135
 367 01a8 2089     		ldrh	r0, [r4, #8]
 329:lvgl/src/draw/lv_draw_arc.c ****             (q->start_quarter == 2 && q->end_quarter == 1) ||
 368              		.loc 1 329 93 discriminator 3 view .LVU136
 369 01aa E188     		ldrh	r1, [r4, #6]
 329:lvgl/src/draw/lv_draw_arc.c ****             (q->start_quarter == 2 && q->end_quarter == 1) ||
 370              		.loc 1 329 74 discriminator 3 view .LVU137
 371 01ac 8842     		cmp	r0, r1
 372 01ae F0D2     		bcs	.L7
 373              	.L8:
 374              	.LBB17:
 334:lvgl/src/draw/lv_draw_arc.c ****         quarter_area.y1 = q->center_y;
 375              		.loc 1 334 9 is_stmt 1 view .LVU138
 334:lvgl/src/draw/lv_draw_arc.c ****         quarter_area.y1 = q->center_y;
 376              		.loc 1 334 28 is_stmt 0 view .LVU139
 377 01b0 B4F90030 		ldrsh	r3, [r4]
 334:lvgl/src/draw/lv_draw_arc.c ****         quarter_area.y1 = q->center_y;
 378              		.loc 1 334 25 view .LVU140
 379 01b4 ADF80030 		strh	r3, [sp]	@ movhi
 335:lvgl/src/draw/lv_draw_arc.c ****         quarter_area.x2 = q->center_x + q->radius;
 380              		.loc 1 335 9 is_stmt 1 view .LVU141
 335:lvgl/src/draw/lv_draw_arc.c ****         quarter_area.x2 = q->center_x + q->radius;
 381              		.loc 1 335 28 is_stmt 0 view .LVU142
 382 01b8 B4F90230 		ldrsh	r3, [r4, #2]
 335:lvgl/src/draw/lv_draw_arc.c ****         quarter_area.x2 = q->center_x + q->radius;
 383              		.loc 1 335 25 view .LVU143
 384 01bc ADF80230 		strh	r3, [sp, #2]	@ movhi
 336:lvgl/src/draw/lv_draw_arc.c ****         quarter_area.y2 = q->center_y + q->radius;
 385              		.loc 1 336 9 is_stmt 1 view .LVU144
 336:lvgl/src/draw/lv_draw_arc.c ****         quarter_area.y2 = q->center_y + q->radius;
 386              		.loc 1 336 28 is_stmt 0 view .LVU145
 387 01c0 2288     		ldrh	r2, [r4]
 336:lvgl/src/draw/lv_draw_arc.c ****         quarter_area.y2 = q->center_y + q->radius;
 388              		.loc 1 336 42 view .LVU146
ARM GAS  C:\Users\BLACK_~1\AppData\Local\Temp\ccCMpPOk.s 			page 16


 389 01c2 A188     		ldrh	r1, [r4, #4]
 336:lvgl/src/draw/lv_draw_arc.c ****         quarter_area.y2 = q->center_y + q->radius;
 390              		.loc 1 336 39 view .LVU147
 391 01c4 0A44     		add	r2, r2, r1
 336:lvgl/src/draw/lv_draw_arc.c ****         quarter_area.y2 = q->center_y + q->radius;
 392              		.loc 1 336 25 view .LVU148
 393 01c6 ADF80420 		strh	r2, [sp, #4]	@ movhi
 337:lvgl/src/draw/lv_draw_arc.c **** 
 394              		.loc 1 337 9 is_stmt 1 view .LVU149
 337:lvgl/src/draw/lv_draw_arc.c **** 
 395              		.loc 1 337 28 is_stmt 0 view .LVU150
 396 01ca 6388     		ldrh	r3, [r4, #2]
 337:lvgl/src/draw/lv_draw_arc.c **** 
 397              		.loc 1 337 39 view .LVU151
 398 01cc 0B44     		add	r3, r3, r1
 337:lvgl/src/draw/lv_draw_arc.c **** 
 399              		.loc 1 337 25 view .LVU152
 400 01ce ADF80630 		strh	r3, [sp, #6]	@ movhi
 339:lvgl/src/draw/lv_draw_arc.c ****         if(ok) lv_draw_rect(q->draw_area, &quarter_area, q->draw_dsc);
 401              		.loc 1 339 9 is_stmt 1 view .LVU153
 339:lvgl/src/draw/lv_draw_arc.c ****         if(ok) lv_draw_rect(q->draw_area, &quarter_area, q->draw_dsc);
 402              		.loc 1 339 19 is_stmt 0 view .LVU154
 403 01d2 A269     		ldr	r2, [r4, #24]
 404 01d4 6946     		mov	r1, sp
 405 01d6 6846     		mov	r0, sp
 406 01d8 FFF7FEFF 		bl	_lv_area_intersect
 407              	.LVL20:
 340:lvgl/src/draw/lv_draw_arc.c ****     }
 408              		.loc 1 340 9 is_stmt 1 view .LVU155
 340:lvgl/src/draw/lv_draw_arc.c ****     }
 409              		.loc 1 340 11 is_stmt 0 view .LVU156
 410 01dc 0028     		cmp	r0, #0
 411 01de 3FF424AF 		beq	.L1
 340:lvgl/src/draw/lv_draw_arc.c ****     }
 412              		.loc 1 340 16 is_stmt 1 discriminator 1 view .LVU157
 413 01e2 2269     		ldr	r2, [r4, #16]
 414 01e4 6946     		mov	r1, sp
 415 01e6 6069     		ldr	r0, [r4, #20]
 416              	.LVL21:
 340:lvgl/src/draw/lv_draw_arc.c ****     }
 417              		.loc 1 340 16 is_stmt 0 discriminator 1 view .LVU158
 418 01e8 FFF7FEFF 		bl	lv_draw_rect
 419              	.LVL22:
 420              	.LBE17:
 421              		.loc 1 342 1 discriminator 1 view .LVU159
 422 01ec 1DE7     		b	.L1
 423              	.L16:
 330:lvgl/src/draw/lv_draw_arc.c ****             (q->start_quarter == 3 && q->end_quarter == 2) ||
 424              		.loc 1 330 36 view .LVU160
 425 01ee 012A     		cmp	r2, #1
 426 01f0 D1D1     		bne	.L9
 427 01f2 DDE7     		b	.L8
 428              	.L17:
 331:lvgl/src/draw/lv_draw_arc.c ****             (q->start_quarter == 3 && q->end_quarter == 1)) {
 429              		.loc 1 331 36 view .LVU161
 430 01f4 022A     		cmp	r2, #2
 431 01f6 D0D1     		bne	.L10
ARM GAS  C:\Users\BLACK_~1\AppData\Local\Temp\ccCMpPOk.s 			page 17


 432 01f8 DAE7     		b	.L8
 433              		.cfi_endproc
 434              	.LFE51:
 436              		.section	.text.draw_quarter_1,"ax",%progbits
 437              		.align	1
 438              		.syntax unified
 439              		.thumb
 440              		.thumb_func
 442              	draw_quarter_1:
 443              	.LVL23:
 444              	.LFB52:
 343:lvgl/src/draw/lv_draw_arc.c **** 
 344:lvgl/src/draw/lv_draw_arc.c **** static void draw_quarter_1(quarter_draw_dsc_t * q)
 345:lvgl/src/draw/lv_draw_arc.c **** {
 445              		.loc 1 345 1 is_stmt 1 view -0
 446              		.cfi_startproc
 447              		@ args = 0, pretend = 0, frame = 8
 448              		@ frame_needed = 0, uses_anonymous_args = 0
 449              		.loc 1 345 1 is_stmt 0 view .LVU163
 450 0000 30B5     		push	{r4, r5, lr}
 451              	.LCFI4:
 452              		.cfi_def_cfa_offset 12
 453              		.cfi_offset 4, -12
 454              		.cfi_offset 5, -8
 455              		.cfi_offset 14, -4
 456 0002 83B0     		sub	sp, sp, #12
 457              	.LCFI5:
 458              		.cfi_def_cfa_offset 24
 459 0004 0446     		mov	r4, r0
 346:lvgl/src/draw/lv_draw_arc.c ****     lv_area_t quarter_area;
 460              		.loc 1 346 5 is_stmt 1 view .LVU164
 347:lvgl/src/draw/lv_draw_arc.c **** 
 348:lvgl/src/draw/lv_draw_arc.c ****     if(q->start_quarter == 1 && q->end_quarter == 1 && q->start_angle < q->end_angle) {
 461              		.loc 1 348 5 view .LVU165
 462              		.loc 1 348 9 is_stmt 0 view .LVU166
 463 0006 4389     		ldrh	r3, [r0, #10]
 464              		.loc 1 348 7 view .LVU167
 465 0008 012B     		cmp	r3, #1
 466 000a 14D0     		beq	.L29
 467              	.LVL24:
 468              	.L19:
 349:lvgl/src/draw/lv_draw_arc.c ****         /*Small arc here*/
 350:lvgl/src/draw/lv_draw_arc.c ****         quarter_area.y2 = q->center_y + ((lv_trigo_sin(q->start_angle) * (q->radius)) >> LV_TRIGO_S
 351:lvgl/src/draw/lv_draw_arc.c ****         quarter_area.x2 = q->center_x + ((lv_trigo_sin(q->start_angle + 90) * (q->radius - q->width
 352:lvgl/src/draw/lv_draw_arc.c **** 
 353:lvgl/src/draw/lv_draw_arc.c ****         quarter_area.y1 = q->center_y + ((lv_trigo_sin(q->end_angle) * (q->radius - q->width)) >> L
 354:lvgl/src/draw/lv_draw_arc.c ****         quarter_area.x1 = q->center_x + ((lv_trigo_sin(q->end_angle + 90) * (q->radius)) >> LV_TRIG
 355:lvgl/src/draw/lv_draw_arc.c **** 
 356:lvgl/src/draw/lv_draw_arc.c ****         bool ok = _lv_area_intersect(&quarter_area, &quarter_area, q->clip_area);
 357:lvgl/src/draw/lv_draw_arc.c ****         if(ok) lv_draw_rect(q->draw_area, &quarter_area, q->draw_dsc);
 358:lvgl/src/draw/lv_draw_arc.c ****     }
 359:lvgl/src/draw/lv_draw_arc.c ****     else if(q->start_quarter == 1 || q->end_quarter == 1) {
 469              		.loc 1 359 10 is_stmt 1 view .LVU168
 470              		.loc 1 359 12 is_stmt 0 view .LVU169
 471 000c 012B     		cmp	r3, #1
 472 000e 60D0     		beq	.L21
 473              		.loc 1 359 39 discriminator 1 view .LVU170
ARM GAS  C:\Users\BLACK_~1\AppData\Local\Temp\ccCMpPOk.s 			page 18


 474 0010 A289     		ldrh	r2, [r4, #12]
 475              		.loc 1 359 35 discriminator 1 view .LVU171
 476 0012 012A     		cmp	r2, #1
 477 0014 5DD0     		beq	.L21
 360:lvgl/src/draw/lv_draw_arc.c ****         /*Start and/or end arcs here*/
 361:lvgl/src/draw/lv_draw_arc.c ****         if(q->start_quarter == 1) {
 362:lvgl/src/draw/lv_draw_arc.c ****             quarter_area.x1 = q->center_x - q->radius;
 363:lvgl/src/draw/lv_draw_arc.c ****             quarter_area.y1 = q->center_y;
 364:lvgl/src/draw/lv_draw_arc.c **** 
 365:lvgl/src/draw/lv_draw_arc.c ****             quarter_area.y2 = q->center_y + ((lv_trigo_sin(q->start_angle) * (q->radius)) >> LV_TRI
 366:lvgl/src/draw/lv_draw_arc.c ****             quarter_area.x2 = q->center_x + ((lv_trigo_sin(q->start_angle + 90) * (q->radius - q->w
 367:lvgl/src/draw/lv_draw_arc.c **** 
 368:lvgl/src/draw/lv_draw_arc.c ****             bool ok = _lv_area_intersect(&quarter_area, &quarter_area, q->clip_area);
 369:lvgl/src/draw/lv_draw_arc.c ****             if(ok) lv_draw_rect(q->draw_area, &quarter_area, q->draw_dsc);
 370:lvgl/src/draw/lv_draw_arc.c ****         }
 371:lvgl/src/draw/lv_draw_arc.c ****         if(q->end_quarter == 1) {
 372:lvgl/src/draw/lv_draw_arc.c ****             quarter_area.x2 = q->center_x - 1;
 373:lvgl/src/draw/lv_draw_arc.c ****             quarter_area.y2 = q->center_y + q->radius;
 374:lvgl/src/draw/lv_draw_arc.c **** 
 375:lvgl/src/draw/lv_draw_arc.c ****             quarter_area.y1 = q->center_y + ((lv_trigo_sin(q->end_angle) * (q->radius - q->width)) 
 376:lvgl/src/draw/lv_draw_arc.c ****             quarter_area.x1 = q->center_x + ((lv_trigo_sin(q->end_angle + 90) * (q->radius)) >> LV_
 377:lvgl/src/draw/lv_draw_arc.c **** 
 378:lvgl/src/draw/lv_draw_arc.c ****             bool ok = _lv_area_intersect(&quarter_area, &quarter_area, q->clip_area);
 379:lvgl/src/draw/lv_draw_arc.c ****             if(ok) lv_draw_rect(q->draw_area, &quarter_area, q->draw_dsc);
 380:lvgl/src/draw/lv_draw_arc.c ****         }
 381:lvgl/src/draw/lv_draw_arc.c ****     }
 382:lvgl/src/draw/lv_draw_arc.c ****     else if((q->start_quarter == q->end_quarter && q->start_quarter != 1 && q->end_angle < q->start
 478              		.loc 1 382 10 is_stmt 1 view .LVU172
 479              		.loc 1 382 12 is_stmt 0 view .LVU173
 480 0016 9342     		cmp	r3, r2
 481 0018 00F0C980 		beq	.L30
 482              	.L24:
 483              		.loc 1 382 108 discriminator 5 view .LVU174
 484 001c 13B9     		cbnz	r3, .L26
 383:lvgl/src/draw/lv_draw_arc.c ****             (q->start_quarter == 0 && q->end_quarter == 2) ||
 485              		.loc 1 383 36 view .LVU175
 486 001e 022A     		cmp	r2, #2
 487 0020 00F0CA80 		beq	.L25
 488              	.L26:
 489              		.loc 1 383 60 discriminator 1 view .LVU176
 490 0024 13B9     		cbnz	r3, .L27
 384:lvgl/src/draw/lv_draw_arc.c ****             (q->start_quarter == 0 && q->end_quarter == 3) ||
 491              		.loc 1 384 36 view .LVU177
 492 0026 032A     		cmp	r2, #3
 493 0028 00F0C680 		beq	.L25
 494              	.L27:
 495              		.loc 1 384 60 discriminator 1 view .LVU178
 496 002c 032B     		cmp	r3, #3
 497 002e 55D1     		bne	.L18
 385:lvgl/src/draw/lv_draw_arc.c ****             (q->start_quarter == 3 && q->end_quarter == 2)) {
 498              		.loc 1 385 36 view .LVU179
 499 0030 022A     		cmp	r2, #2
 500 0032 53D1     		bne	.L18
 501 0034 C0E0     		b	.L25
 502              	.LVL25:
 503              	.L29:
 348:lvgl/src/draw/lv_draw_arc.c ****         /*Small arc here*/
ARM GAS  C:\Users\BLACK_~1\AppData\Local\Temp\ccCMpPOk.s 			page 19


 504              		.loc 1 348 34 discriminator 1 view .LVU180
 505 0036 8289     		ldrh	r2, [r0, #12]
 348:lvgl/src/draw/lv_draw_arc.c ****         /*Small arc here*/
 506              		.loc 1 348 30 discriminator 1 view .LVU181
 507 0038 012A     		cmp	r2, #1
 508 003a E7D1     		bne	.L19
 348:lvgl/src/draw/lv_draw_arc.c ****         /*Small arc here*/
 509              		.loc 1 348 57 discriminator 2 view .LVU182
 510 003c C088     		ldrh	r0, [r0, #6]
 511              	.LVL26:
 348:lvgl/src/draw/lv_draw_arc.c ****         /*Small arc here*/
 512              		.loc 1 348 74 discriminator 2 view .LVU183
 513 003e 2289     		ldrh	r2, [r4, #8]
 348:lvgl/src/draw/lv_draw_arc.c ****         /*Small arc here*/
 514              		.loc 1 348 53 discriminator 2 view .LVU184
 515 0040 9042     		cmp	r0, r2
 516 0042 E3D2     		bcs	.L19
 517              	.LBB18:
 350:lvgl/src/draw/lv_draw_arc.c ****         quarter_area.x2 = q->center_x + ((lv_trigo_sin(q->start_angle + 90) * (q->radius - q->width
 518              		.loc 1 350 9 is_stmt 1 view .LVU185
 350:lvgl/src/draw/lv_draw_arc.c ****         quarter_area.x2 = q->center_x + ((lv_trigo_sin(q->start_angle + 90) * (q->radius - q->width
 519              		.loc 1 350 28 is_stmt 0 view .LVU186
 520 0044 6588     		ldrh	r5, [r4, #2]
 350:lvgl/src/draw/lv_draw_arc.c ****         quarter_area.x2 = q->center_x + ((lv_trigo_sin(q->start_angle + 90) * (q->radius - q->width
 521              		.loc 1 350 43 view .LVU187
 522 0046 00B2     		sxth	r0, r0
 523 0048 FFF7FEFF 		bl	lv_trigo_sin
 524              	.LVL27:
 350:lvgl/src/draw/lv_draw_arc.c ****         quarter_area.x2 = q->center_x + ((lv_trigo_sin(q->start_angle + 90) * (q->radius - q->width
 525              		.loc 1 350 76 view .LVU188
 526 004c B4F90430 		ldrsh	r3, [r4, #4]
 350:lvgl/src/draw/lv_draw_arc.c ****         quarter_area.x2 = q->center_x + ((lv_trigo_sin(q->start_angle + 90) * (q->radius - q->width
 527              		.loc 1 350 72 view .LVU189
 528 0050 03FB00F0 		mul	r0, r3, r0
 350:lvgl/src/draw/lv_draw_arc.c ****         quarter_area.x2 = q->center_x + ((lv_trigo_sin(q->start_angle + 90) * (q->radius - q->width
 529              		.loc 1 350 39 view .LVU190
 530 0054 05EBE035 		add	r5, r5, r0, asr #15
 350:lvgl/src/draw/lv_draw_arc.c ****         quarter_area.x2 = q->center_x + ((lv_trigo_sin(q->start_angle + 90) * (q->radius - q->width
 531              		.loc 1 350 25 view .LVU191
 532 0058 ADF80650 		strh	r5, [sp, #6]	@ movhi
 351:lvgl/src/draw/lv_draw_arc.c **** 
 533              		.loc 1 351 9 is_stmt 1 view .LVU192
 351:lvgl/src/draw/lv_draw_arc.c **** 
 534              		.loc 1 351 28 is_stmt 0 view .LVU193
 535 005c 2588     		ldrh	r5, [r4]
 351:lvgl/src/draw/lv_draw_arc.c **** 
 536              		.loc 1 351 57 view .LVU194
 537 005e E088     		ldrh	r0, [r4, #6]
 351:lvgl/src/draw/lv_draw_arc.c **** 
 538              		.loc 1 351 71 view .LVU195
 539 0060 5A30     		adds	r0, r0, #90
 351:lvgl/src/draw/lv_draw_arc.c **** 
 540              		.loc 1 351 43 view .LVU196
 541 0062 00B2     		sxth	r0, r0
 542 0064 FFF7FEFF 		bl	lv_trigo_sin
 543              	.LVL28:
 351:lvgl/src/draw/lv_draw_arc.c **** 
ARM GAS  C:\Users\BLACK_~1\AppData\Local\Temp\ccCMpPOk.s 			page 20


 544              		.loc 1 351 81 view .LVU197
 545 0068 B4F90430 		ldrsh	r3, [r4, #4]
 351:lvgl/src/draw/lv_draw_arc.c **** 
 546              		.loc 1 351 93 view .LVU198
 547 006c B4F90E20 		ldrsh	r2, [r4, #14]
 351:lvgl/src/draw/lv_draw_arc.c **** 
 548              		.loc 1 351 90 view .LVU199
 549 0070 9B1A     		subs	r3, r3, r2
 351:lvgl/src/draw/lv_draw_arc.c **** 
 550              		.loc 1 351 77 view .LVU200
 551 0072 03FB00F0 		mul	r0, r3, r0
 351:lvgl/src/draw/lv_draw_arc.c **** 
 552              		.loc 1 351 39 view .LVU201
 553 0076 05EBE035 		add	r5, r5, r0, asr #15
 351:lvgl/src/draw/lv_draw_arc.c **** 
 554              		.loc 1 351 25 view .LVU202
 555 007a ADF80450 		strh	r5, [sp, #4]	@ movhi
 353:lvgl/src/draw/lv_draw_arc.c ****         quarter_area.x1 = q->center_x + ((lv_trigo_sin(q->end_angle + 90) * (q->radius)) >> LV_TRIG
 556              		.loc 1 353 9 is_stmt 1 view .LVU203
 353:lvgl/src/draw/lv_draw_arc.c ****         quarter_area.x1 = q->center_x + ((lv_trigo_sin(q->end_angle + 90) * (q->radius)) >> LV_TRIG
 557              		.loc 1 353 28 is_stmt 0 view .LVU204
 558 007e 6588     		ldrh	r5, [r4, #2]
 353:lvgl/src/draw/lv_draw_arc.c ****         quarter_area.x1 = q->center_x + ((lv_trigo_sin(q->end_angle + 90) * (q->radius)) >> LV_TRIG
 559              		.loc 1 353 43 view .LVU205
 560 0080 B4F90800 		ldrsh	r0, [r4, #8]
 561 0084 FFF7FEFF 		bl	lv_trigo_sin
 562              	.LVL29:
 353:lvgl/src/draw/lv_draw_arc.c ****         quarter_area.x1 = q->center_x + ((lv_trigo_sin(q->end_angle + 90) * (q->radius)) >> LV_TRIG
 563              		.loc 1 353 74 view .LVU206
 564 0088 B4F90430 		ldrsh	r3, [r4, #4]
 353:lvgl/src/draw/lv_draw_arc.c ****         quarter_area.x1 = q->center_x + ((lv_trigo_sin(q->end_angle + 90) * (q->radius)) >> LV_TRIG
 565              		.loc 1 353 86 view .LVU207
 566 008c B4F90E20 		ldrsh	r2, [r4, #14]
 353:lvgl/src/draw/lv_draw_arc.c ****         quarter_area.x1 = q->center_x + ((lv_trigo_sin(q->end_angle + 90) * (q->radius)) >> LV_TRIG
 567              		.loc 1 353 83 view .LVU208
 568 0090 9B1A     		subs	r3, r3, r2
 353:lvgl/src/draw/lv_draw_arc.c ****         quarter_area.x1 = q->center_x + ((lv_trigo_sin(q->end_angle + 90) * (q->radius)) >> LV_TRIG
 569              		.loc 1 353 70 view .LVU209
 570 0092 03FB00F0 		mul	r0, r3, r0
 353:lvgl/src/draw/lv_draw_arc.c ****         quarter_area.x1 = q->center_x + ((lv_trigo_sin(q->end_angle + 90) * (q->radius)) >> LV_TRIG
 571              		.loc 1 353 39 view .LVU210
 572 0096 05EBE035 		add	r5, r5, r0, asr #15
 353:lvgl/src/draw/lv_draw_arc.c ****         quarter_area.x1 = q->center_x + ((lv_trigo_sin(q->end_angle + 90) * (q->radius)) >> LV_TRIG
 573              		.loc 1 353 25 view .LVU211
 574 009a ADF80250 		strh	r5, [sp, #2]	@ movhi
 354:lvgl/src/draw/lv_draw_arc.c **** 
 575              		.loc 1 354 9 is_stmt 1 view .LVU212
 354:lvgl/src/draw/lv_draw_arc.c **** 
 576              		.loc 1 354 28 is_stmt 0 view .LVU213
 577 009e 2588     		ldrh	r5, [r4]
 354:lvgl/src/draw/lv_draw_arc.c **** 
 578              		.loc 1 354 57 view .LVU214
 579 00a0 2089     		ldrh	r0, [r4, #8]
 354:lvgl/src/draw/lv_draw_arc.c **** 
 580              		.loc 1 354 69 view .LVU215
 581 00a2 5A30     		adds	r0, r0, #90
 354:lvgl/src/draw/lv_draw_arc.c **** 
ARM GAS  C:\Users\BLACK_~1\AppData\Local\Temp\ccCMpPOk.s 			page 21


 582              		.loc 1 354 43 view .LVU216
 583 00a4 00B2     		sxth	r0, r0
 584 00a6 FFF7FEFF 		bl	lv_trigo_sin
 585              	.LVL30:
 354:lvgl/src/draw/lv_draw_arc.c **** 
 586              		.loc 1 354 79 view .LVU217
 587 00aa B4F90430 		ldrsh	r3, [r4, #4]
 354:lvgl/src/draw/lv_draw_arc.c **** 
 588              		.loc 1 354 75 view .LVU218
 589 00ae 03FB00F0 		mul	r0, r3, r0
 354:lvgl/src/draw/lv_draw_arc.c **** 
 590              		.loc 1 354 39 view .LVU219
 591 00b2 05EBE035 		add	r5, r5, r0, asr #15
 354:lvgl/src/draw/lv_draw_arc.c **** 
 592              		.loc 1 354 25 view .LVU220
 593 00b6 ADF80050 		strh	r5, [sp]	@ movhi
 356:lvgl/src/draw/lv_draw_arc.c ****         if(ok) lv_draw_rect(q->draw_area, &quarter_area, q->draw_dsc);
 594              		.loc 1 356 9 is_stmt 1 view .LVU221
 356:lvgl/src/draw/lv_draw_arc.c ****         if(ok) lv_draw_rect(q->draw_area, &quarter_area, q->draw_dsc);
 595              		.loc 1 356 19 is_stmt 0 view .LVU222
 596 00ba A269     		ldr	r2, [r4, #24]
 597 00bc 6946     		mov	r1, sp
 598 00be 6846     		mov	r0, sp
 599 00c0 FFF7FEFF 		bl	_lv_area_intersect
 600              	.LVL31:
 357:lvgl/src/draw/lv_draw_arc.c ****     }
 601              		.loc 1 357 9 is_stmt 1 view .LVU223
 357:lvgl/src/draw/lv_draw_arc.c ****     }
 602              		.loc 1 357 11 is_stmt 0 view .LVU224
 603 00c4 50B1     		cbz	r0, .L18
 357:lvgl/src/draw/lv_draw_arc.c ****     }
 604              		.loc 1 357 16 is_stmt 1 discriminator 1 view .LVU225
 605 00c6 2269     		ldr	r2, [r4, #16]
 606 00c8 6946     		mov	r1, sp
 607 00ca 6069     		ldr	r0, [r4, #20]
 608              	.LVL32:
 357:lvgl/src/draw/lv_draw_arc.c ****     }
 609              		.loc 1 357 16 is_stmt 0 discriminator 1 view .LVU226
 610 00cc FFF7FEFF 		bl	lv_draw_rect
 611              	.LVL33:
 612 00d0 04E0     		b	.L18
 613              	.L21:
 357:lvgl/src/draw/lv_draw_arc.c ****     }
 614              		.loc 1 357 16 discriminator 1 view .LVU227
 615              	.LBE18:
 361:lvgl/src/draw/lv_draw_arc.c ****             quarter_area.x1 = q->center_x - q->radius;
 616              		.loc 1 361 9 is_stmt 1 view .LVU228
 361:lvgl/src/draw/lv_draw_arc.c ****             quarter_area.x1 = q->center_x - q->radius;
 617              		.loc 1 361 11 is_stmt 0 view .LVU229
 618 00d2 012B     		cmp	r3, #1
 619 00d4 04D0     		beq	.L31
 620              	.L23:
 371:lvgl/src/draw/lv_draw_arc.c ****             quarter_area.x2 = q->center_x - 1;
 621              		.loc 1 371 9 is_stmt 1 view .LVU230
 371:lvgl/src/draw/lv_draw_arc.c ****             quarter_area.x2 = q->center_x - 1;
 622              		.loc 1 371 13 is_stmt 0 view .LVU231
 623 00d6 A389     		ldrh	r3, [r4, #12]
ARM GAS  C:\Users\BLACK_~1\AppData\Local\Temp\ccCMpPOk.s 			page 22


 371:lvgl/src/draw/lv_draw_arc.c ****             quarter_area.x2 = q->center_x - 1;
 624              		.loc 1 371 11 view .LVU232
 625 00d8 012B     		cmp	r3, #1
 626 00da 35D0     		beq	.L32
 627              	.L18:
 386:lvgl/src/draw/lv_draw_arc.c ****         /*Arc crosses here*/
 387:lvgl/src/draw/lv_draw_arc.c ****         quarter_area.x1 = q->center_x - q->radius;
 388:lvgl/src/draw/lv_draw_arc.c ****         quarter_area.y1 = q->center_y;
 389:lvgl/src/draw/lv_draw_arc.c ****         quarter_area.x2 = q->center_x - 1;
 390:lvgl/src/draw/lv_draw_arc.c ****         quarter_area.y2 = q->center_y + q->radius;
 391:lvgl/src/draw/lv_draw_arc.c **** 
 392:lvgl/src/draw/lv_draw_arc.c ****         bool ok = _lv_area_intersect(&quarter_area, &quarter_area, q->clip_area);
 393:lvgl/src/draw/lv_draw_arc.c ****         if(ok) lv_draw_rect(q->draw_area, &quarter_area, q->draw_dsc);
 394:lvgl/src/draw/lv_draw_arc.c ****     }
 395:lvgl/src/draw/lv_draw_arc.c **** }
 628              		.loc 1 395 1 view .LVU233
 629 00dc 03B0     		add	sp, sp, #12
 630              	.LCFI6:
 631              		.cfi_remember_state
 632              		.cfi_def_cfa_offset 12
 633              		@ sp needed
 634 00de 30BD     		pop	{r4, r5, pc}
 635              	.LVL34:
 636              	.L31:
 637              	.LCFI7:
 638              		.cfi_restore_state
 639              	.LBB19:
 362:lvgl/src/draw/lv_draw_arc.c ****             quarter_area.y1 = q->center_y;
 640              		.loc 1 362 13 is_stmt 1 view .LVU234
 362:lvgl/src/draw/lv_draw_arc.c ****             quarter_area.y1 = q->center_y;
 641              		.loc 1 362 32 is_stmt 0 view .LVU235
 642 00e0 2388     		ldrh	r3, [r4]
 362:lvgl/src/draw/lv_draw_arc.c ****             quarter_area.y1 = q->center_y;
 643              		.loc 1 362 46 view .LVU236
 644 00e2 A288     		ldrh	r2, [r4, #4]
 362:lvgl/src/draw/lv_draw_arc.c ****             quarter_area.y1 = q->center_y;
 645              		.loc 1 362 43 view .LVU237
 646 00e4 9B1A     		subs	r3, r3, r2
 362:lvgl/src/draw/lv_draw_arc.c ****             quarter_area.y1 = q->center_y;
 647              		.loc 1 362 29 view .LVU238
 648 00e6 ADF80030 		strh	r3, [sp]	@ movhi
 363:lvgl/src/draw/lv_draw_arc.c **** 
 649              		.loc 1 363 13 is_stmt 1 view .LVU239
 363:lvgl/src/draw/lv_draw_arc.c **** 
 650              		.loc 1 363 32 is_stmt 0 view .LVU240
 651 00ea B4F90230 		ldrsh	r3, [r4, #2]
 363:lvgl/src/draw/lv_draw_arc.c **** 
 652              		.loc 1 363 29 view .LVU241
 653 00ee ADF80230 		strh	r3, [sp, #2]	@ movhi
 365:lvgl/src/draw/lv_draw_arc.c ****             quarter_area.x2 = q->center_x + ((lv_trigo_sin(q->start_angle + 90) * (q->radius - q->w
 654              		.loc 1 365 13 is_stmt 1 view .LVU242
 365:lvgl/src/draw/lv_draw_arc.c ****             quarter_area.x2 = q->center_x + ((lv_trigo_sin(q->start_angle + 90) * (q->radius - q->w
 655              		.loc 1 365 32 is_stmt 0 view .LVU243
 656 00f2 6588     		ldrh	r5, [r4, #2]
 365:lvgl/src/draw/lv_draw_arc.c ****             quarter_area.x2 = q->center_x + ((lv_trigo_sin(q->start_angle + 90) * (q->radius - q->w
 657              		.loc 1 365 47 view .LVU244
 658 00f4 B4F90600 		ldrsh	r0, [r4, #6]
ARM GAS  C:\Users\BLACK_~1\AppData\Local\Temp\ccCMpPOk.s 			page 23


 659 00f8 FFF7FEFF 		bl	lv_trigo_sin
 660              	.LVL35:
 365:lvgl/src/draw/lv_draw_arc.c ****             quarter_area.x2 = q->center_x + ((lv_trigo_sin(q->start_angle + 90) * (q->radius - q->w
 661              		.loc 1 365 80 view .LVU245
 662 00fc B4F90430 		ldrsh	r3, [r4, #4]
 365:lvgl/src/draw/lv_draw_arc.c ****             quarter_area.x2 = q->center_x + ((lv_trigo_sin(q->start_angle + 90) * (q->radius - q->w
 663              		.loc 1 365 76 view .LVU246
 664 0100 03FB00F0 		mul	r0, r3, r0
 365:lvgl/src/draw/lv_draw_arc.c ****             quarter_area.x2 = q->center_x + ((lv_trigo_sin(q->start_angle + 90) * (q->radius - q->w
 665              		.loc 1 365 43 view .LVU247
 666 0104 05EBE035 		add	r5, r5, r0, asr #15
 365:lvgl/src/draw/lv_draw_arc.c ****             quarter_area.x2 = q->center_x + ((lv_trigo_sin(q->start_angle + 90) * (q->radius - q->w
 667              		.loc 1 365 29 view .LVU248
 668 0108 ADF80650 		strh	r5, [sp, #6]	@ movhi
 366:lvgl/src/draw/lv_draw_arc.c **** 
 669              		.loc 1 366 13 is_stmt 1 view .LVU249
 366:lvgl/src/draw/lv_draw_arc.c **** 
 670              		.loc 1 366 32 is_stmt 0 view .LVU250
 671 010c 2588     		ldrh	r5, [r4]
 366:lvgl/src/draw/lv_draw_arc.c **** 
 672              		.loc 1 366 61 view .LVU251
 673 010e E088     		ldrh	r0, [r4, #6]
 366:lvgl/src/draw/lv_draw_arc.c **** 
 674              		.loc 1 366 75 view .LVU252
 675 0110 5A30     		adds	r0, r0, #90
 366:lvgl/src/draw/lv_draw_arc.c **** 
 676              		.loc 1 366 47 view .LVU253
 677 0112 00B2     		sxth	r0, r0
 678 0114 FFF7FEFF 		bl	lv_trigo_sin
 679              	.LVL36:
 366:lvgl/src/draw/lv_draw_arc.c **** 
 680              		.loc 1 366 85 view .LVU254
 681 0118 B4F90430 		ldrsh	r3, [r4, #4]
 366:lvgl/src/draw/lv_draw_arc.c **** 
 682              		.loc 1 366 97 view .LVU255
 683 011c B4F90E20 		ldrsh	r2, [r4, #14]
 366:lvgl/src/draw/lv_draw_arc.c **** 
 684              		.loc 1 366 94 view .LVU256
 685 0120 9B1A     		subs	r3, r3, r2
 366:lvgl/src/draw/lv_draw_arc.c **** 
 686              		.loc 1 366 81 view .LVU257
 687 0122 03FB00F0 		mul	r0, r3, r0
 366:lvgl/src/draw/lv_draw_arc.c **** 
 688              		.loc 1 366 43 view .LVU258
 689 0126 05EBE035 		add	r5, r5, r0, asr #15
 366:lvgl/src/draw/lv_draw_arc.c **** 
 690              		.loc 1 366 29 view .LVU259
 691 012a ADF80450 		strh	r5, [sp, #4]	@ movhi
 368:lvgl/src/draw/lv_draw_arc.c ****             if(ok) lv_draw_rect(q->draw_area, &quarter_area, q->draw_dsc);
 692              		.loc 1 368 13 is_stmt 1 view .LVU260
 368:lvgl/src/draw/lv_draw_arc.c ****             if(ok) lv_draw_rect(q->draw_area, &quarter_area, q->draw_dsc);
 693              		.loc 1 368 23 is_stmt 0 view .LVU261
 694 012e A269     		ldr	r2, [r4, #24]
 695 0130 6946     		mov	r1, sp
 696 0132 6846     		mov	r0, sp
 697 0134 FFF7FEFF 		bl	_lv_area_intersect
 698              	.LVL37:
ARM GAS  C:\Users\BLACK_~1\AppData\Local\Temp\ccCMpPOk.s 			page 24


 369:lvgl/src/draw/lv_draw_arc.c ****         }
 699              		.loc 1 369 13 is_stmt 1 view .LVU262
 369:lvgl/src/draw/lv_draw_arc.c ****         }
 700              		.loc 1 369 15 is_stmt 0 view .LVU263
 701 0138 0028     		cmp	r0, #0
 702 013a CCD0     		beq	.L23
 369:lvgl/src/draw/lv_draw_arc.c ****         }
 703              		.loc 1 369 20 is_stmt 1 discriminator 1 view .LVU264
 704 013c 2269     		ldr	r2, [r4, #16]
 705 013e 6946     		mov	r1, sp
 706 0140 6069     		ldr	r0, [r4, #20]
 707              	.LVL38:
 369:lvgl/src/draw/lv_draw_arc.c ****         }
 708              		.loc 1 369 20 is_stmt 0 discriminator 1 view .LVU265
 709 0142 FFF7FEFF 		bl	lv_draw_rect
 710              	.LVL39:
 711 0146 C6E7     		b	.L23
 712              	.L32:
 369:lvgl/src/draw/lv_draw_arc.c ****         }
 713              		.loc 1 369 20 discriminator 1 view .LVU266
 714              	.LBE19:
 715              	.LBB20:
 372:lvgl/src/draw/lv_draw_arc.c ****             quarter_area.y2 = q->center_y + q->radius;
 716              		.loc 1 372 13 is_stmt 1 view .LVU267
 372:lvgl/src/draw/lv_draw_arc.c ****             quarter_area.y2 = q->center_y + q->radius;
 717              		.loc 1 372 32 is_stmt 0 view .LVU268
 718 0148 2388     		ldrh	r3, [r4]
 372:lvgl/src/draw/lv_draw_arc.c ****             quarter_area.y2 = q->center_y + q->radius;
 719              		.loc 1 372 43 view .LVU269
 720 014a 013B     		subs	r3, r3, #1
 372:lvgl/src/draw/lv_draw_arc.c ****             quarter_area.y2 = q->center_y + q->radius;
 721              		.loc 1 372 29 view .LVU270
 722 014c ADF80430 		strh	r3, [sp, #4]	@ movhi
 373:lvgl/src/draw/lv_draw_arc.c **** 
 723              		.loc 1 373 13 is_stmt 1 view .LVU271
 373:lvgl/src/draw/lv_draw_arc.c **** 
 724              		.loc 1 373 32 is_stmt 0 view .LVU272
 725 0150 6588     		ldrh	r5, [r4, #2]
 373:lvgl/src/draw/lv_draw_arc.c **** 
 726              		.loc 1 373 46 view .LVU273
 727 0152 A388     		ldrh	r3, [r4, #4]
 373:lvgl/src/draw/lv_draw_arc.c **** 
 728              		.loc 1 373 43 view .LVU274
 729 0154 2B44     		add	r3, r3, r5
 373:lvgl/src/draw/lv_draw_arc.c **** 
 730              		.loc 1 373 29 view .LVU275
 731 0156 ADF80630 		strh	r3, [sp, #6]	@ movhi
 375:lvgl/src/draw/lv_draw_arc.c ****             quarter_area.x1 = q->center_x + ((lv_trigo_sin(q->end_angle + 90) * (q->radius)) >> LV_
 732              		.loc 1 375 13 is_stmt 1 view .LVU276
 375:lvgl/src/draw/lv_draw_arc.c ****             quarter_area.x1 = q->center_x + ((lv_trigo_sin(q->end_angle + 90) * (q->radius)) >> LV_
 733              		.loc 1 375 47 is_stmt 0 view .LVU277
 734 015a B4F90800 		ldrsh	r0, [r4, #8]
 735 015e FFF7FEFF 		bl	lv_trigo_sin
 736              	.LVL40:
 375:lvgl/src/draw/lv_draw_arc.c ****             quarter_area.x1 = q->center_x + ((lv_trigo_sin(q->end_angle + 90) * (q->radius)) >> LV_
 737              		.loc 1 375 78 view .LVU278
 738 0162 B4F90430 		ldrsh	r3, [r4, #4]
ARM GAS  C:\Users\BLACK_~1\AppData\Local\Temp\ccCMpPOk.s 			page 25


 375:lvgl/src/draw/lv_draw_arc.c ****             quarter_area.x1 = q->center_x + ((lv_trigo_sin(q->end_angle + 90) * (q->radius)) >> LV_
 739              		.loc 1 375 90 view .LVU279
 740 0166 B4F90E20 		ldrsh	r2, [r4, #14]
 375:lvgl/src/draw/lv_draw_arc.c ****             quarter_area.x1 = q->center_x + ((lv_trigo_sin(q->end_angle + 90) * (q->radius)) >> LV_
 741              		.loc 1 375 87 view .LVU280
 742 016a 9B1A     		subs	r3, r3, r2
 375:lvgl/src/draw/lv_draw_arc.c ****             quarter_area.x1 = q->center_x + ((lv_trigo_sin(q->end_angle + 90) * (q->radius)) >> LV_
 743              		.loc 1 375 74 view .LVU281
 744 016c 03FB00F0 		mul	r0, r3, r0
 375:lvgl/src/draw/lv_draw_arc.c ****             quarter_area.x1 = q->center_x + ((lv_trigo_sin(q->end_angle + 90) * (q->radius)) >> LV_
 745              		.loc 1 375 43 view .LVU282
 746 0170 05EBE035 		add	r5, r5, r0, asr #15
 375:lvgl/src/draw/lv_draw_arc.c ****             quarter_area.x1 = q->center_x + ((lv_trigo_sin(q->end_angle + 90) * (q->radius)) >> LV_
 747              		.loc 1 375 29 view .LVU283
 748 0174 ADF80250 		strh	r5, [sp, #2]	@ movhi
 376:lvgl/src/draw/lv_draw_arc.c **** 
 749              		.loc 1 376 13 is_stmt 1 view .LVU284
 376:lvgl/src/draw/lv_draw_arc.c **** 
 750              		.loc 1 376 32 is_stmt 0 view .LVU285
 751 0178 2588     		ldrh	r5, [r4]
 376:lvgl/src/draw/lv_draw_arc.c **** 
 752              		.loc 1 376 61 view .LVU286
 753 017a 2089     		ldrh	r0, [r4, #8]
 376:lvgl/src/draw/lv_draw_arc.c **** 
 754              		.loc 1 376 73 view .LVU287
 755 017c 5A30     		adds	r0, r0, #90
 376:lvgl/src/draw/lv_draw_arc.c **** 
 756              		.loc 1 376 47 view .LVU288
 757 017e 00B2     		sxth	r0, r0
 758 0180 FFF7FEFF 		bl	lv_trigo_sin
 759              	.LVL41:
 376:lvgl/src/draw/lv_draw_arc.c **** 
 760              		.loc 1 376 83 view .LVU289
 761 0184 B4F90430 		ldrsh	r3, [r4, #4]
 376:lvgl/src/draw/lv_draw_arc.c **** 
 762              		.loc 1 376 79 view .LVU290
 763 0188 03FB00F0 		mul	r0, r3, r0
 376:lvgl/src/draw/lv_draw_arc.c **** 
 764              		.loc 1 376 43 view .LVU291
 765 018c 05EBE035 		add	r5, r5, r0, asr #15
 376:lvgl/src/draw/lv_draw_arc.c **** 
 766              		.loc 1 376 29 view .LVU292
 767 0190 ADF80050 		strh	r5, [sp]	@ movhi
 378:lvgl/src/draw/lv_draw_arc.c ****             if(ok) lv_draw_rect(q->draw_area, &quarter_area, q->draw_dsc);
 768              		.loc 1 378 13 is_stmt 1 view .LVU293
 378:lvgl/src/draw/lv_draw_arc.c ****             if(ok) lv_draw_rect(q->draw_area, &quarter_area, q->draw_dsc);
 769              		.loc 1 378 23 is_stmt 0 view .LVU294
 770 0194 A269     		ldr	r2, [r4, #24]
 771 0196 6946     		mov	r1, sp
 772 0198 6846     		mov	r0, sp
 773 019a FFF7FEFF 		bl	_lv_area_intersect
 774              	.LVL42:
 379:lvgl/src/draw/lv_draw_arc.c ****         }
 775              		.loc 1 379 13 is_stmt 1 view .LVU295
 379:lvgl/src/draw/lv_draw_arc.c ****         }
 776              		.loc 1 379 15 is_stmt 0 view .LVU296
 777 019e 0028     		cmp	r0, #0
ARM GAS  C:\Users\BLACK_~1\AppData\Local\Temp\ccCMpPOk.s 			page 26


 778 01a0 9CD0     		beq	.L18
 379:lvgl/src/draw/lv_draw_arc.c ****         }
 779              		.loc 1 379 20 is_stmt 1 discriminator 1 view .LVU297
 780 01a2 2269     		ldr	r2, [r4, #16]
 781 01a4 6946     		mov	r1, sp
 782 01a6 6069     		ldr	r0, [r4, #20]
 783              	.LVL43:
 379:lvgl/src/draw/lv_draw_arc.c ****         }
 784              		.loc 1 379 20 is_stmt 0 discriminator 1 view .LVU298
 785 01a8 FFF7FEFF 		bl	lv_draw_rect
 786              	.LVL44:
 787 01ac 96E7     		b	.L18
 788              	.L30:
 379:lvgl/src/draw/lv_draw_arc.c ****         }
 789              		.loc 1 379 20 discriminator 1 view .LVU299
 790              	.LBE20:
 382:lvgl/src/draw/lv_draw_arc.c ****             (q->start_quarter == 0 && q->end_quarter == 2) ||
 791              		.loc 1 382 78 discriminator 3 view .LVU300
 792 01ae 2089     		ldrh	r0, [r4, #8]
 382:lvgl/src/draw/lv_draw_arc.c ****             (q->start_quarter == 0 && q->end_quarter == 2) ||
 793              		.loc 1 382 93 discriminator 3 view .LVU301
 794 01b0 E188     		ldrh	r1, [r4, #6]
 382:lvgl/src/draw/lv_draw_arc.c ****             (q->start_quarter == 0 && q->end_quarter == 2) ||
 795              		.loc 1 382 74 discriminator 3 view .LVU302
 796 01b2 8842     		cmp	r0, r1
 797 01b4 BFF432AF 		bcs	.L24
 798              	.L25:
 799              	.LBB21:
 387:lvgl/src/draw/lv_draw_arc.c ****         quarter_area.y1 = q->center_y;
 800              		.loc 1 387 9 is_stmt 1 view .LVU303
 387:lvgl/src/draw/lv_draw_arc.c ****         quarter_area.y1 = q->center_y;
 801              		.loc 1 387 28 is_stmt 0 view .LVU304
 802 01b8 2388     		ldrh	r3, [r4]
 387:lvgl/src/draw/lv_draw_arc.c ****         quarter_area.y1 = q->center_y;
 803              		.loc 1 387 42 view .LVU305
 804 01ba A288     		ldrh	r2, [r4, #4]
 387:lvgl/src/draw/lv_draw_arc.c ****         quarter_area.y1 = q->center_y;
 805              		.loc 1 387 39 view .LVU306
 806 01bc 991A     		subs	r1, r3, r2
 387:lvgl/src/draw/lv_draw_arc.c ****         quarter_area.y1 = q->center_y;
 807              		.loc 1 387 25 view .LVU307
 808 01be ADF80010 		strh	r1, [sp]	@ movhi
 388:lvgl/src/draw/lv_draw_arc.c ****         quarter_area.x2 = q->center_x - 1;
 809              		.loc 1 388 9 is_stmt 1 view .LVU308
 388:lvgl/src/draw/lv_draw_arc.c ****         quarter_area.x2 = q->center_x - 1;
 810              		.loc 1 388 28 is_stmt 0 view .LVU309
 811 01c2 B4F90210 		ldrsh	r1, [r4, #2]
 388:lvgl/src/draw/lv_draw_arc.c ****         quarter_area.x2 = q->center_x - 1;
 812              		.loc 1 388 25 view .LVU310
 813 01c6 ADF80210 		strh	r1, [sp, #2]	@ movhi
 389:lvgl/src/draw/lv_draw_arc.c ****         quarter_area.y2 = q->center_y + q->radius;
 814              		.loc 1 389 9 is_stmt 1 view .LVU311
 389:lvgl/src/draw/lv_draw_arc.c ****         quarter_area.y2 = q->center_y + q->radius;
 815              		.loc 1 389 39 is_stmt 0 view .LVU312
 816 01ca 013B     		subs	r3, r3, #1
 389:lvgl/src/draw/lv_draw_arc.c ****         quarter_area.y2 = q->center_y + q->radius;
 817              		.loc 1 389 25 view .LVU313
ARM GAS  C:\Users\BLACK_~1\AppData\Local\Temp\ccCMpPOk.s 			page 27


 818 01cc ADF80430 		strh	r3, [sp, #4]	@ movhi
 390:lvgl/src/draw/lv_draw_arc.c **** 
 819              		.loc 1 390 9 is_stmt 1 view .LVU314
 390:lvgl/src/draw/lv_draw_arc.c **** 
 820              		.loc 1 390 28 is_stmt 0 view .LVU315
 821 01d0 6388     		ldrh	r3, [r4, #2]
 390:lvgl/src/draw/lv_draw_arc.c **** 
 822              		.loc 1 390 39 view .LVU316
 823 01d2 1344     		add	r3, r3, r2
 390:lvgl/src/draw/lv_draw_arc.c **** 
 824              		.loc 1 390 25 view .LVU317
 825 01d4 ADF80630 		strh	r3, [sp, #6]	@ movhi
 392:lvgl/src/draw/lv_draw_arc.c ****         if(ok) lv_draw_rect(q->draw_area, &quarter_area, q->draw_dsc);
 826              		.loc 1 392 9 is_stmt 1 view .LVU318
 392:lvgl/src/draw/lv_draw_arc.c ****         if(ok) lv_draw_rect(q->draw_area, &quarter_area, q->draw_dsc);
 827              		.loc 1 392 19 is_stmt 0 view .LVU319
 828 01d8 A269     		ldr	r2, [r4, #24]
 829 01da 6946     		mov	r1, sp
 830 01dc 6846     		mov	r0, sp
 831 01de FFF7FEFF 		bl	_lv_area_intersect
 832              	.LVL45:
 393:lvgl/src/draw/lv_draw_arc.c ****     }
 833              		.loc 1 393 9 is_stmt 1 view .LVU320
 393:lvgl/src/draw/lv_draw_arc.c ****     }
 834              		.loc 1 393 11 is_stmt 0 view .LVU321
 835 01e2 0028     		cmp	r0, #0
 836 01e4 3FF47AAF 		beq	.L18
 393:lvgl/src/draw/lv_draw_arc.c ****     }
 837              		.loc 1 393 16 is_stmt 1 discriminator 1 view .LVU322
 838 01e8 2269     		ldr	r2, [r4, #16]
 839 01ea 6946     		mov	r1, sp
 840 01ec 6069     		ldr	r0, [r4, #20]
 841              	.LVL46:
 393:lvgl/src/draw/lv_draw_arc.c ****     }
 842              		.loc 1 393 16 is_stmt 0 discriminator 1 view .LVU323
 843 01ee FFF7FEFF 		bl	lv_draw_rect
 844              	.LVL47:
 845              	.LBE21:
 846              		.loc 1 395 1 discriminator 1 view .LVU324
 847 01f2 73E7     		b	.L18
 848              		.cfi_endproc
 849              	.LFE52:
 851              		.section	.text.draw_quarter_2,"ax",%progbits
 852              		.align	1
 853              		.syntax unified
 854              		.thumb
 855              		.thumb_func
 857              	draw_quarter_2:
 858              	.LVL48:
 859              	.LFB53:
 396:lvgl/src/draw/lv_draw_arc.c **** 
 397:lvgl/src/draw/lv_draw_arc.c **** static void draw_quarter_2(quarter_draw_dsc_t * q)
 398:lvgl/src/draw/lv_draw_arc.c **** {
 860              		.loc 1 398 1 is_stmt 1 view -0
 861              		.cfi_startproc
 862              		@ args = 0, pretend = 0, frame = 8
 863              		@ frame_needed = 0, uses_anonymous_args = 0
ARM GAS  C:\Users\BLACK_~1\AppData\Local\Temp\ccCMpPOk.s 			page 28


 864              		.loc 1 398 1 is_stmt 0 view .LVU326
 865 0000 30B5     		push	{r4, r5, lr}
 866              	.LCFI8:
 867              		.cfi_def_cfa_offset 12
 868              		.cfi_offset 4, -12
 869              		.cfi_offset 5, -8
 870              		.cfi_offset 14, -4
 871 0002 83B0     		sub	sp, sp, #12
 872              	.LCFI9:
 873              		.cfi_def_cfa_offset 24
 874 0004 0446     		mov	r4, r0
 399:lvgl/src/draw/lv_draw_arc.c ****     lv_area_t quarter_area;
 875              		.loc 1 399 5 is_stmt 1 view .LVU327
 400:lvgl/src/draw/lv_draw_arc.c **** 
 401:lvgl/src/draw/lv_draw_arc.c ****     if(q->start_quarter == 2 && q->end_quarter == 2 && q->start_angle < q->end_angle) {
 876              		.loc 1 401 5 view .LVU328
 877              		.loc 1 401 9 is_stmt 0 view .LVU329
 878 0006 4389     		ldrh	r3, [r0, #10]
 879              		.loc 1 401 7 view .LVU330
 880 0008 022B     		cmp	r3, #2
 881 000a 13D0     		beq	.L44
 882              	.LVL49:
 883              	.L34:
 402:lvgl/src/draw/lv_draw_arc.c ****         /*Small arc here*/
 403:lvgl/src/draw/lv_draw_arc.c ****         quarter_area.x1 = q->center_x + ((lv_trigo_sin(q->start_angle + 90) * (q->radius)) >> LV_TR
 404:lvgl/src/draw/lv_draw_arc.c ****         quarter_area.y2 = q->center_y + ((lv_trigo_sin(q->start_angle) * (q->radius - q->width)) >>
 405:lvgl/src/draw/lv_draw_arc.c **** 
 406:lvgl/src/draw/lv_draw_arc.c ****         quarter_area.y1 = q->center_y + ((lv_trigo_sin(q->end_angle) * q->radius) >> LV_TRIGO_SHIFT
 407:lvgl/src/draw/lv_draw_arc.c ****         quarter_area.x2 = q->center_x + ((lv_trigo_sin(q->end_angle + 90) * (q->radius - q->width))
 408:lvgl/src/draw/lv_draw_arc.c **** 
 409:lvgl/src/draw/lv_draw_arc.c ****         bool ok = _lv_area_intersect(&quarter_area, &quarter_area, q->clip_area);
 410:lvgl/src/draw/lv_draw_arc.c ****         if(ok) lv_draw_rect(q->draw_area, &quarter_area, q->draw_dsc);
 411:lvgl/src/draw/lv_draw_arc.c ****     }
 412:lvgl/src/draw/lv_draw_arc.c ****     else if(q->start_quarter == 2 || q->end_quarter == 2) {
 884              		.loc 1 412 10 is_stmt 1 view .LVU331
 885              		.loc 1 412 12 is_stmt 0 view .LVU332
 886 000c 022B     		cmp	r3, #2
 887 000e 5FD0     		beq	.L36
 888              		.loc 1 412 39 discriminator 1 view .LVU333
 889 0010 A289     		ldrh	r2, [r4, #12]
 890              		.loc 1 412 35 discriminator 1 view .LVU334
 891 0012 022A     		cmp	r2, #2
 892 0014 5CD0     		beq	.L36
 413:lvgl/src/draw/lv_draw_arc.c ****         /*Start and/or end arcs here*/
 414:lvgl/src/draw/lv_draw_arc.c ****         if(q->start_quarter == 2) {
 415:lvgl/src/draw/lv_draw_arc.c ****             quarter_area.x2 = q->center_x - 1;
 416:lvgl/src/draw/lv_draw_arc.c ****             quarter_area.y1 = q->center_y - q->radius;
 417:lvgl/src/draw/lv_draw_arc.c **** 
 418:lvgl/src/draw/lv_draw_arc.c ****             quarter_area.x1 = q->center_x + ((lv_trigo_sin(q->start_angle + 90) * (q->radius)) >> L
 419:lvgl/src/draw/lv_draw_arc.c ****             quarter_area.y2 = q->center_y + ((lv_trigo_sin(q->start_angle) * (q->radius - q->width)
 420:lvgl/src/draw/lv_draw_arc.c **** 
 421:lvgl/src/draw/lv_draw_arc.c ****             bool ok = _lv_area_intersect(&quarter_area, &quarter_area, q->clip_area);
 422:lvgl/src/draw/lv_draw_arc.c ****             if(ok) lv_draw_rect(q->draw_area, &quarter_area, q->draw_dsc);
 423:lvgl/src/draw/lv_draw_arc.c ****         }
 424:lvgl/src/draw/lv_draw_arc.c ****         if(q->end_quarter == 2) {
 425:lvgl/src/draw/lv_draw_arc.c ****             quarter_area.x1 = q->center_x - q->radius;
 426:lvgl/src/draw/lv_draw_arc.c ****             quarter_area.y2 = q->center_y - 1;
ARM GAS  C:\Users\BLACK_~1\AppData\Local\Temp\ccCMpPOk.s 			page 29


 427:lvgl/src/draw/lv_draw_arc.c **** 
 428:lvgl/src/draw/lv_draw_arc.c ****             quarter_area.x2 = q->center_x + ((lv_trigo_sin(q->end_angle + 90) * (q->radius - q->wid
 429:lvgl/src/draw/lv_draw_arc.c ****             quarter_area.y1 = q->center_y + ((lv_trigo_sin(q->end_angle) * (q->radius)) >> LV_TRIGO
 430:lvgl/src/draw/lv_draw_arc.c **** 
 431:lvgl/src/draw/lv_draw_arc.c ****             bool ok = _lv_area_intersect(&quarter_area, &quarter_area, q->clip_area);
 432:lvgl/src/draw/lv_draw_arc.c ****             if(ok) lv_draw_rect(q->draw_area, &quarter_area, q->draw_dsc);
 433:lvgl/src/draw/lv_draw_arc.c ****         }
 434:lvgl/src/draw/lv_draw_arc.c ****     }
 435:lvgl/src/draw/lv_draw_arc.c ****     else if((q->start_quarter == q->end_quarter && q->start_quarter != 2 && q->end_angle < q->start
 893              		.loc 1 435 10 is_stmt 1 view .LVU335
 894              		.loc 1 435 12 is_stmt 0 view .LVU336
 895 0016 9342     		cmp	r3, r2
 896 0018 00F0C780 		beq	.L45
 897              	.L39:
 898              		.loc 1 435 108 discriminator 5 view .LVU337
 899 001c 13B9     		cbnz	r3, .L41
 436:lvgl/src/draw/lv_draw_arc.c ****             (q->start_quarter == 0 && q->end_quarter == 3) ||
 900              		.loc 1 436 36 view .LVU338
 901 001e 032A     		cmp	r2, #3
 902 0020 00F0C880 		beq	.L40
 903              	.L41:
 904              		.loc 1 436 60 discriminator 1 view .LVU339
 905 0024 012B     		cmp	r3, #1
 906 0026 00F0E280 		beq	.L46
 907              	.L42:
 437:lvgl/src/draw/lv_draw_arc.c ****             (q->start_quarter == 1 && q->end_quarter == 3) ||
 908              		.loc 1 437 60 discriminator 1 view .LVU340
 909 002a 012B     		cmp	r3, #1
 910 002c 55D1     		bne	.L33
 438:lvgl/src/draw/lv_draw_arc.c ****             (q->start_quarter == 1 && q->end_quarter == 0)) {
 911              		.loc 1 438 36 view .LVU341
 912 002e 002A     		cmp	r2, #0
 913 0030 53D1     		bne	.L33
 914 0032 BFE0     		b	.L40
 915              	.LVL50:
 916              	.L44:
 401:lvgl/src/draw/lv_draw_arc.c ****         /*Small arc here*/
 917              		.loc 1 401 34 discriminator 1 view .LVU342
 918 0034 8289     		ldrh	r2, [r0, #12]
 401:lvgl/src/draw/lv_draw_arc.c ****         /*Small arc here*/
 919              		.loc 1 401 30 discriminator 1 view .LVU343
 920 0036 022A     		cmp	r2, #2
 921 0038 E8D1     		bne	.L34
 401:lvgl/src/draw/lv_draw_arc.c ****         /*Small arc here*/
 922              		.loc 1 401 57 discriminator 2 view .LVU344
 923 003a C088     		ldrh	r0, [r0, #6]
 924              	.LVL51:
 401:lvgl/src/draw/lv_draw_arc.c ****         /*Small arc here*/
 925              		.loc 1 401 74 discriminator 2 view .LVU345
 926 003c 2289     		ldrh	r2, [r4, #8]
 401:lvgl/src/draw/lv_draw_arc.c ****         /*Small arc here*/
 927              		.loc 1 401 53 discriminator 2 view .LVU346
 928 003e 9042     		cmp	r0, r2
 929 0040 E4D2     		bcs	.L34
 930              	.LBB22:
 403:lvgl/src/draw/lv_draw_arc.c ****         quarter_area.y2 = q->center_y + ((lv_trigo_sin(q->start_angle) * (q->radius - q->width)) >>
 931              		.loc 1 403 9 is_stmt 1 view .LVU347
ARM GAS  C:\Users\BLACK_~1\AppData\Local\Temp\ccCMpPOk.s 			page 30


 403:lvgl/src/draw/lv_draw_arc.c ****         quarter_area.y2 = q->center_y + ((lv_trigo_sin(q->start_angle) * (q->radius - q->width)) >>
 932              		.loc 1 403 28 is_stmt 0 view .LVU348
 933 0042 2588     		ldrh	r5, [r4]
 403:lvgl/src/draw/lv_draw_arc.c ****         quarter_area.y2 = q->center_y + ((lv_trigo_sin(q->start_angle) * (q->radius - q->width)) >>
 934              		.loc 1 403 71 view .LVU349
 935 0044 5A30     		adds	r0, r0, #90
 403:lvgl/src/draw/lv_draw_arc.c ****         quarter_area.y2 = q->center_y + ((lv_trigo_sin(q->start_angle) * (q->radius - q->width)) >>
 936              		.loc 1 403 43 view .LVU350
 937 0046 00B2     		sxth	r0, r0
 938 0048 FFF7FEFF 		bl	lv_trigo_sin
 939              	.LVL52:
 403:lvgl/src/draw/lv_draw_arc.c ****         quarter_area.y2 = q->center_y + ((lv_trigo_sin(q->start_angle) * (q->radius - q->width)) >>
 940              		.loc 1 403 81 view .LVU351
 941 004c B4F90430 		ldrsh	r3, [r4, #4]
 403:lvgl/src/draw/lv_draw_arc.c ****         quarter_area.y2 = q->center_y + ((lv_trigo_sin(q->start_angle) * (q->radius - q->width)) >>
 942              		.loc 1 403 77 view .LVU352
 943 0050 03FB00F0 		mul	r0, r3, r0
 403:lvgl/src/draw/lv_draw_arc.c ****         quarter_area.y2 = q->center_y + ((lv_trigo_sin(q->start_angle) * (q->radius - q->width)) >>
 944              		.loc 1 403 39 view .LVU353
 945 0054 05EBE035 		add	r5, r5, r0, asr #15
 403:lvgl/src/draw/lv_draw_arc.c ****         quarter_area.y2 = q->center_y + ((lv_trigo_sin(q->start_angle) * (q->radius - q->width)) >>
 946              		.loc 1 403 25 view .LVU354
 947 0058 ADF80050 		strh	r5, [sp]	@ movhi
 404:lvgl/src/draw/lv_draw_arc.c **** 
 948              		.loc 1 404 9 is_stmt 1 view .LVU355
 404:lvgl/src/draw/lv_draw_arc.c **** 
 949              		.loc 1 404 28 is_stmt 0 view .LVU356
 950 005c 6588     		ldrh	r5, [r4, #2]
 404:lvgl/src/draw/lv_draw_arc.c **** 
 951              		.loc 1 404 43 view .LVU357
 952 005e B4F90600 		ldrsh	r0, [r4, #6]
 953 0062 FFF7FEFF 		bl	lv_trigo_sin
 954              	.LVL53:
 404:lvgl/src/draw/lv_draw_arc.c **** 
 955              		.loc 1 404 76 view .LVU358
 956 0066 B4F90430 		ldrsh	r3, [r4, #4]
 404:lvgl/src/draw/lv_draw_arc.c **** 
 957              		.loc 1 404 88 view .LVU359
 958 006a B4F90E20 		ldrsh	r2, [r4, #14]
 404:lvgl/src/draw/lv_draw_arc.c **** 
 959              		.loc 1 404 85 view .LVU360
 960 006e 9B1A     		subs	r3, r3, r2
 404:lvgl/src/draw/lv_draw_arc.c **** 
 961              		.loc 1 404 72 view .LVU361
 962 0070 03FB00F0 		mul	r0, r3, r0
 404:lvgl/src/draw/lv_draw_arc.c **** 
 963              		.loc 1 404 39 view .LVU362
 964 0074 05EBE035 		add	r5, r5, r0, asr #15
 404:lvgl/src/draw/lv_draw_arc.c **** 
 965              		.loc 1 404 25 view .LVU363
 966 0078 ADF80650 		strh	r5, [sp, #6]	@ movhi
 406:lvgl/src/draw/lv_draw_arc.c ****         quarter_area.x2 = q->center_x + ((lv_trigo_sin(q->end_angle + 90) * (q->radius - q->width))
 967              		.loc 1 406 9 is_stmt 1 view .LVU364
 406:lvgl/src/draw/lv_draw_arc.c ****         quarter_area.x2 = q->center_x + ((lv_trigo_sin(q->end_angle + 90) * (q->radius - q->width))
 968              		.loc 1 406 28 is_stmt 0 view .LVU365
 969 007c 6588     		ldrh	r5, [r4, #2]
 406:lvgl/src/draw/lv_draw_arc.c ****         quarter_area.x2 = q->center_x + ((lv_trigo_sin(q->end_angle + 90) * (q->radius - q->width))
ARM GAS  C:\Users\BLACK_~1\AppData\Local\Temp\ccCMpPOk.s 			page 31


 970              		.loc 1 406 43 view .LVU366
 971 007e B4F90800 		ldrsh	r0, [r4, #8]
 972 0082 FFF7FEFF 		bl	lv_trigo_sin
 973              	.LVL54:
 406:lvgl/src/draw/lv_draw_arc.c ****         quarter_area.x2 = q->center_x + ((lv_trigo_sin(q->end_angle + 90) * (q->radius - q->width))
 974              		.loc 1 406 73 view .LVU367
 975 0086 B4F90430 		ldrsh	r3, [r4, #4]
 406:lvgl/src/draw/lv_draw_arc.c ****         quarter_area.x2 = q->center_x + ((lv_trigo_sin(q->end_angle + 90) * (q->radius - q->width))
 976              		.loc 1 406 70 view .LVU368
 977 008a 03FB00F0 		mul	r0, r3, r0
 406:lvgl/src/draw/lv_draw_arc.c ****         quarter_area.x2 = q->center_x + ((lv_trigo_sin(q->end_angle + 90) * (q->radius - q->width))
 978              		.loc 1 406 39 view .LVU369
 979 008e 05EBE035 		add	r5, r5, r0, asr #15
 406:lvgl/src/draw/lv_draw_arc.c ****         quarter_area.x2 = q->center_x + ((lv_trigo_sin(q->end_angle + 90) * (q->radius - q->width))
 980              		.loc 1 406 25 view .LVU370
 981 0092 ADF80250 		strh	r5, [sp, #2]	@ movhi
 407:lvgl/src/draw/lv_draw_arc.c **** 
 982              		.loc 1 407 9 is_stmt 1 view .LVU371
 407:lvgl/src/draw/lv_draw_arc.c **** 
 983              		.loc 1 407 28 is_stmt 0 view .LVU372
 984 0096 2588     		ldrh	r5, [r4]
 407:lvgl/src/draw/lv_draw_arc.c **** 
 985              		.loc 1 407 57 view .LVU373
 986 0098 2089     		ldrh	r0, [r4, #8]
 407:lvgl/src/draw/lv_draw_arc.c **** 
 987              		.loc 1 407 69 view .LVU374
 988 009a 5A30     		adds	r0, r0, #90
 407:lvgl/src/draw/lv_draw_arc.c **** 
 989              		.loc 1 407 43 view .LVU375
 990 009c 00B2     		sxth	r0, r0
 991 009e FFF7FEFF 		bl	lv_trigo_sin
 992              	.LVL55:
 407:lvgl/src/draw/lv_draw_arc.c **** 
 993              		.loc 1 407 79 view .LVU376
 994 00a2 B4F90430 		ldrsh	r3, [r4, #4]
 407:lvgl/src/draw/lv_draw_arc.c **** 
 995              		.loc 1 407 91 view .LVU377
 996 00a6 B4F90E20 		ldrsh	r2, [r4, #14]
 407:lvgl/src/draw/lv_draw_arc.c **** 
 997              		.loc 1 407 88 view .LVU378
 998 00aa 9B1A     		subs	r3, r3, r2
 407:lvgl/src/draw/lv_draw_arc.c **** 
 999              		.loc 1 407 75 view .LVU379
 1000 00ac 03FB00F0 		mul	r0, r3, r0
 407:lvgl/src/draw/lv_draw_arc.c **** 
 1001              		.loc 1 407 39 view .LVU380
 1002 00b0 05EBE035 		add	r5, r5, r0, asr #15
 407:lvgl/src/draw/lv_draw_arc.c **** 
 1003              		.loc 1 407 25 view .LVU381
 1004 00b4 ADF80450 		strh	r5, [sp, #4]	@ movhi
 409:lvgl/src/draw/lv_draw_arc.c ****         if(ok) lv_draw_rect(q->draw_area, &quarter_area, q->draw_dsc);
 1005              		.loc 1 409 9 is_stmt 1 view .LVU382
 409:lvgl/src/draw/lv_draw_arc.c ****         if(ok) lv_draw_rect(q->draw_area, &quarter_area, q->draw_dsc);
 1006              		.loc 1 409 19 is_stmt 0 view .LVU383
 1007 00b8 A269     		ldr	r2, [r4, #24]
 1008 00ba 6946     		mov	r1, sp
 1009 00bc 6846     		mov	r0, sp
ARM GAS  C:\Users\BLACK_~1\AppData\Local\Temp\ccCMpPOk.s 			page 32


 1010 00be FFF7FEFF 		bl	_lv_area_intersect
 1011              	.LVL56:
 410:lvgl/src/draw/lv_draw_arc.c ****     }
 1012              		.loc 1 410 9 is_stmt 1 view .LVU384
 410:lvgl/src/draw/lv_draw_arc.c ****     }
 1013              		.loc 1 410 11 is_stmt 0 view .LVU385
 1014 00c2 50B1     		cbz	r0, .L33
 410:lvgl/src/draw/lv_draw_arc.c ****     }
 1015              		.loc 1 410 16 is_stmt 1 discriminator 1 view .LVU386
 1016 00c4 2269     		ldr	r2, [r4, #16]
 1017 00c6 6946     		mov	r1, sp
 1018 00c8 6069     		ldr	r0, [r4, #20]
 1019              	.LVL57:
 410:lvgl/src/draw/lv_draw_arc.c ****     }
 1020              		.loc 1 410 16 is_stmt 0 discriminator 1 view .LVU387
 1021 00ca FFF7FEFF 		bl	lv_draw_rect
 1022              	.LVL58:
 1023 00ce 04E0     		b	.L33
 1024              	.L36:
 410:lvgl/src/draw/lv_draw_arc.c ****     }
 1025              		.loc 1 410 16 discriminator 1 view .LVU388
 1026              	.LBE22:
 414:lvgl/src/draw/lv_draw_arc.c ****             quarter_area.x2 = q->center_x - 1;
 1027              		.loc 1 414 9 is_stmt 1 view .LVU389
 414:lvgl/src/draw/lv_draw_arc.c ****             quarter_area.x2 = q->center_x - 1;
 1028              		.loc 1 414 11 is_stmt 0 view .LVU390
 1029 00d0 022B     		cmp	r3, #2
 1030 00d2 04D0     		beq	.L47
 1031              	.L38:
 424:lvgl/src/draw/lv_draw_arc.c ****             quarter_area.x1 = q->center_x - q->radius;
 1032              		.loc 1 424 9 is_stmt 1 view .LVU391
 424:lvgl/src/draw/lv_draw_arc.c ****             quarter_area.x1 = q->center_x - q->radius;
 1033              		.loc 1 424 13 is_stmt 0 view .LVU392
 1034 00d4 A389     		ldrh	r3, [r4, #12]
 424:lvgl/src/draw/lv_draw_arc.c ****             quarter_area.x1 = q->center_x - q->radius;
 1035              		.loc 1 424 11 view .LVU393
 1036 00d6 022B     		cmp	r3, #2
 1037 00d8 34D0     		beq	.L48
 1038              	.L33:
 439:lvgl/src/draw/lv_draw_arc.c ****         /*Arc crosses here*/
 440:lvgl/src/draw/lv_draw_arc.c ****         quarter_area.x1 = q->center_x - q->radius;
 441:lvgl/src/draw/lv_draw_arc.c ****         quarter_area.y1 = q->center_y - q->radius;
 442:lvgl/src/draw/lv_draw_arc.c ****         quarter_area.x2 = q->center_x - 1;
 443:lvgl/src/draw/lv_draw_arc.c ****         quarter_area.y2 = q->center_y - 1;
 444:lvgl/src/draw/lv_draw_arc.c **** 
 445:lvgl/src/draw/lv_draw_arc.c ****         bool ok = _lv_area_intersect(&quarter_area, &quarter_area, q->clip_area);
 446:lvgl/src/draw/lv_draw_arc.c ****         if(ok) lv_draw_rect(q->draw_area, &quarter_area, q->draw_dsc);
 447:lvgl/src/draw/lv_draw_arc.c ****     }
 448:lvgl/src/draw/lv_draw_arc.c **** }
 1039              		.loc 1 448 1 view .LVU394
 1040 00da 03B0     		add	sp, sp, #12
 1041              	.LCFI10:
 1042              		.cfi_remember_state
 1043              		.cfi_def_cfa_offset 12
 1044              		@ sp needed
 1045 00dc 30BD     		pop	{r4, r5, pc}
 1046              	.LVL59:
ARM GAS  C:\Users\BLACK_~1\AppData\Local\Temp\ccCMpPOk.s 			page 33


 1047              	.L47:
 1048              	.LCFI11:
 1049              		.cfi_restore_state
 1050              	.LBB23:
 415:lvgl/src/draw/lv_draw_arc.c ****             quarter_area.y1 = q->center_y - q->radius;
 1051              		.loc 1 415 13 is_stmt 1 view .LVU395
 415:lvgl/src/draw/lv_draw_arc.c ****             quarter_area.y1 = q->center_y - q->radius;
 1052              		.loc 1 415 32 is_stmt 0 view .LVU396
 1053 00de 2588     		ldrh	r5, [r4]
 415:lvgl/src/draw/lv_draw_arc.c ****             quarter_area.y1 = q->center_y - q->radius;
 1054              		.loc 1 415 43 view .LVU397
 1055 00e0 6B1E     		subs	r3, r5, #1
 415:lvgl/src/draw/lv_draw_arc.c ****             quarter_area.y1 = q->center_y - q->radius;
 1056              		.loc 1 415 29 view .LVU398
 1057 00e2 ADF80430 		strh	r3, [sp, #4]	@ movhi
 416:lvgl/src/draw/lv_draw_arc.c **** 
 1058              		.loc 1 416 13 is_stmt 1 view .LVU399
 416:lvgl/src/draw/lv_draw_arc.c **** 
 1059              		.loc 1 416 32 is_stmt 0 view .LVU400
 1060 00e6 6388     		ldrh	r3, [r4, #2]
 416:lvgl/src/draw/lv_draw_arc.c **** 
 1061              		.loc 1 416 46 view .LVU401
 1062 00e8 A288     		ldrh	r2, [r4, #4]
 416:lvgl/src/draw/lv_draw_arc.c **** 
 1063              		.loc 1 416 43 view .LVU402
 1064 00ea 9B1A     		subs	r3, r3, r2
 416:lvgl/src/draw/lv_draw_arc.c **** 
 1065              		.loc 1 416 29 view .LVU403
 1066 00ec ADF80230 		strh	r3, [sp, #2]	@ movhi
 418:lvgl/src/draw/lv_draw_arc.c ****             quarter_area.y2 = q->center_y + ((lv_trigo_sin(q->start_angle) * (q->radius - q->width)
 1067              		.loc 1 418 13 is_stmt 1 view .LVU404
 418:lvgl/src/draw/lv_draw_arc.c ****             quarter_area.y2 = q->center_y + ((lv_trigo_sin(q->start_angle) * (q->radius - q->width)
 1068              		.loc 1 418 61 is_stmt 0 view .LVU405
 1069 00f0 E088     		ldrh	r0, [r4, #6]
 418:lvgl/src/draw/lv_draw_arc.c ****             quarter_area.y2 = q->center_y + ((lv_trigo_sin(q->start_angle) * (q->radius - q->width)
 1070              		.loc 1 418 75 view .LVU406
 1071 00f2 5A30     		adds	r0, r0, #90
 418:lvgl/src/draw/lv_draw_arc.c ****             quarter_area.y2 = q->center_y + ((lv_trigo_sin(q->start_angle) * (q->radius - q->width)
 1072              		.loc 1 418 47 view .LVU407
 1073 00f4 00B2     		sxth	r0, r0
 1074 00f6 FFF7FEFF 		bl	lv_trigo_sin
 1075              	.LVL60:
 418:lvgl/src/draw/lv_draw_arc.c ****             quarter_area.y2 = q->center_y + ((lv_trigo_sin(q->start_angle) * (q->radius - q->width)
 1076              		.loc 1 418 85 view .LVU408
 1077 00fa B4F90430 		ldrsh	r3, [r4, #4]
 418:lvgl/src/draw/lv_draw_arc.c ****             quarter_area.y2 = q->center_y + ((lv_trigo_sin(q->start_angle) * (q->radius - q->width)
 1078              		.loc 1 418 81 view .LVU409
 1079 00fe 03FB00F0 		mul	r0, r3, r0
 418:lvgl/src/draw/lv_draw_arc.c ****             quarter_area.y2 = q->center_y + ((lv_trigo_sin(q->start_angle) * (q->radius - q->width)
 1080              		.loc 1 418 43 view .LVU410
 1081 0102 05EBE035 		add	r5, r5, r0, asr #15
 418:lvgl/src/draw/lv_draw_arc.c ****             quarter_area.y2 = q->center_y + ((lv_trigo_sin(q->start_angle) * (q->radius - q->width)
 1082              		.loc 1 418 29 view .LVU411
 1083 0106 ADF80050 		strh	r5, [sp]	@ movhi
 419:lvgl/src/draw/lv_draw_arc.c **** 
 1084              		.loc 1 419 13 is_stmt 1 view .LVU412
 419:lvgl/src/draw/lv_draw_arc.c **** 
ARM GAS  C:\Users\BLACK_~1\AppData\Local\Temp\ccCMpPOk.s 			page 34


 1085              		.loc 1 419 32 is_stmt 0 view .LVU413
 1086 010a 6588     		ldrh	r5, [r4, #2]
 419:lvgl/src/draw/lv_draw_arc.c **** 
 1087              		.loc 1 419 47 view .LVU414
 1088 010c B4F90600 		ldrsh	r0, [r4, #6]
 1089 0110 FFF7FEFF 		bl	lv_trigo_sin
 1090              	.LVL61:
 419:lvgl/src/draw/lv_draw_arc.c **** 
 1091              		.loc 1 419 80 view .LVU415
 1092 0114 B4F90430 		ldrsh	r3, [r4, #4]
 419:lvgl/src/draw/lv_draw_arc.c **** 
 1093              		.loc 1 419 92 view .LVU416
 1094 0118 B4F90E20 		ldrsh	r2, [r4, #14]
 419:lvgl/src/draw/lv_draw_arc.c **** 
 1095              		.loc 1 419 89 view .LVU417
 1096 011c 9B1A     		subs	r3, r3, r2
 419:lvgl/src/draw/lv_draw_arc.c **** 
 1097              		.loc 1 419 76 view .LVU418
 1098 011e 03FB00F0 		mul	r0, r3, r0
 419:lvgl/src/draw/lv_draw_arc.c **** 
 1099              		.loc 1 419 43 view .LVU419
 1100 0122 05EBE035 		add	r5, r5, r0, asr #15
 419:lvgl/src/draw/lv_draw_arc.c **** 
 1101              		.loc 1 419 29 view .LVU420
 1102 0126 ADF80650 		strh	r5, [sp, #6]	@ movhi
 421:lvgl/src/draw/lv_draw_arc.c ****             if(ok) lv_draw_rect(q->draw_area, &quarter_area, q->draw_dsc);
 1103              		.loc 1 421 13 is_stmt 1 view .LVU421
 421:lvgl/src/draw/lv_draw_arc.c ****             if(ok) lv_draw_rect(q->draw_area, &quarter_area, q->draw_dsc);
 1104              		.loc 1 421 23 is_stmt 0 view .LVU422
 1105 012a A269     		ldr	r2, [r4, #24]
 1106 012c 6946     		mov	r1, sp
 1107 012e 6846     		mov	r0, sp
 1108 0130 FFF7FEFF 		bl	_lv_area_intersect
 1109              	.LVL62:
 422:lvgl/src/draw/lv_draw_arc.c ****         }
 1110              		.loc 1 422 13 is_stmt 1 view .LVU423
 422:lvgl/src/draw/lv_draw_arc.c ****         }
 1111              		.loc 1 422 15 is_stmt 0 view .LVU424
 1112 0134 0028     		cmp	r0, #0
 1113 0136 CDD0     		beq	.L38
 422:lvgl/src/draw/lv_draw_arc.c ****         }
 1114              		.loc 1 422 20 is_stmt 1 discriminator 1 view .LVU425
 1115 0138 2269     		ldr	r2, [r4, #16]
 1116 013a 6946     		mov	r1, sp
 1117 013c 6069     		ldr	r0, [r4, #20]
 1118              	.LVL63:
 422:lvgl/src/draw/lv_draw_arc.c ****         }
 1119              		.loc 1 422 20 is_stmt 0 discriminator 1 view .LVU426
 1120 013e FFF7FEFF 		bl	lv_draw_rect
 1121              	.LVL64:
 1122 0142 C7E7     		b	.L38
 1123              	.L48:
 422:lvgl/src/draw/lv_draw_arc.c ****         }
 1124              		.loc 1 422 20 discriminator 1 view .LVU427
 1125              	.LBE23:
 1126              	.LBB24:
 425:lvgl/src/draw/lv_draw_arc.c ****             quarter_area.y2 = q->center_y - 1;
ARM GAS  C:\Users\BLACK_~1\AppData\Local\Temp\ccCMpPOk.s 			page 35


 1127              		.loc 1 425 13 is_stmt 1 view .LVU428
 425:lvgl/src/draw/lv_draw_arc.c ****             quarter_area.y2 = q->center_y - 1;
 1128              		.loc 1 425 32 is_stmt 0 view .LVU429
 1129 0144 2588     		ldrh	r5, [r4]
 425:lvgl/src/draw/lv_draw_arc.c ****             quarter_area.y2 = q->center_y - 1;
 1130              		.loc 1 425 46 view .LVU430
 1131 0146 A388     		ldrh	r3, [r4, #4]
 425:lvgl/src/draw/lv_draw_arc.c ****             quarter_area.y2 = q->center_y - 1;
 1132              		.loc 1 425 43 view .LVU431
 1133 0148 EB1A     		subs	r3, r5, r3
 425:lvgl/src/draw/lv_draw_arc.c ****             quarter_area.y2 = q->center_y - 1;
 1134              		.loc 1 425 29 view .LVU432
 1135 014a ADF80030 		strh	r3, [sp]	@ movhi
 426:lvgl/src/draw/lv_draw_arc.c **** 
 1136              		.loc 1 426 13 is_stmt 1 view .LVU433
 426:lvgl/src/draw/lv_draw_arc.c **** 
 1137              		.loc 1 426 32 is_stmt 0 view .LVU434
 1138 014e 6388     		ldrh	r3, [r4, #2]
 426:lvgl/src/draw/lv_draw_arc.c **** 
 1139              		.loc 1 426 43 view .LVU435
 1140 0150 013B     		subs	r3, r3, #1
 426:lvgl/src/draw/lv_draw_arc.c **** 
 1141              		.loc 1 426 29 view .LVU436
 1142 0152 ADF80630 		strh	r3, [sp, #6]	@ movhi
 428:lvgl/src/draw/lv_draw_arc.c ****             quarter_area.y1 = q->center_y + ((lv_trigo_sin(q->end_angle) * (q->radius)) >> LV_TRIGO
 1143              		.loc 1 428 13 is_stmt 1 view .LVU437
 428:lvgl/src/draw/lv_draw_arc.c ****             quarter_area.y1 = q->center_y + ((lv_trigo_sin(q->end_angle) * (q->radius)) >> LV_TRIGO
 1144              		.loc 1 428 61 is_stmt 0 view .LVU438
 1145 0156 2089     		ldrh	r0, [r4, #8]
 428:lvgl/src/draw/lv_draw_arc.c ****             quarter_area.y1 = q->center_y + ((lv_trigo_sin(q->end_angle) * (q->radius)) >> LV_TRIGO
 1146              		.loc 1 428 73 view .LVU439
 1147 0158 5A30     		adds	r0, r0, #90
 428:lvgl/src/draw/lv_draw_arc.c ****             quarter_area.y1 = q->center_y + ((lv_trigo_sin(q->end_angle) * (q->radius)) >> LV_TRIGO
 1148              		.loc 1 428 47 view .LVU440
 1149 015a 00B2     		sxth	r0, r0
 1150 015c FFF7FEFF 		bl	lv_trigo_sin
 1151              	.LVL65:
 428:lvgl/src/draw/lv_draw_arc.c ****             quarter_area.y1 = q->center_y + ((lv_trigo_sin(q->end_angle) * (q->radius)) >> LV_TRIGO
 1152              		.loc 1 428 83 view .LVU441
 1153 0160 B4F90430 		ldrsh	r3, [r4, #4]
 428:lvgl/src/draw/lv_draw_arc.c ****             quarter_area.y1 = q->center_y + ((lv_trigo_sin(q->end_angle) * (q->radius)) >> LV_TRIGO
 1154              		.loc 1 428 95 view .LVU442
 1155 0164 B4F90E20 		ldrsh	r2, [r4, #14]
 428:lvgl/src/draw/lv_draw_arc.c ****             quarter_area.y1 = q->center_y + ((lv_trigo_sin(q->end_angle) * (q->radius)) >> LV_TRIGO
 1156              		.loc 1 428 92 view .LVU443
 1157 0168 9B1A     		subs	r3, r3, r2
 428:lvgl/src/draw/lv_draw_arc.c ****             quarter_area.y1 = q->center_y + ((lv_trigo_sin(q->end_angle) * (q->radius)) >> LV_TRIGO
 1158              		.loc 1 428 79 view .LVU444
 1159 016a 03FB00F0 		mul	r0, r3, r0
 428:lvgl/src/draw/lv_draw_arc.c ****             quarter_area.y1 = q->center_y + ((lv_trigo_sin(q->end_angle) * (q->radius)) >> LV_TRIGO
 1160              		.loc 1 428 43 view .LVU445
 1161 016e 05EBE035 		add	r5, r5, r0, asr #15
 428:lvgl/src/draw/lv_draw_arc.c ****             quarter_area.y1 = q->center_y + ((lv_trigo_sin(q->end_angle) * (q->radius)) >> LV_TRIGO
 1162              		.loc 1 428 29 view .LVU446
 1163 0172 ADF80450 		strh	r5, [sp, #4]	@ movhi
 429:lvgl/src/draw/lv_draw_arc.c **** 
 1164              		.loc 1 429 13 is_stmt 1 view .LVU447
ARM GAS  C:\Users\BLACK_~1\AppData\Local\Temp\ccCMpPOk.s 			page 36


 429:lvgl/src/draw/lv_draw_arc.c **** 
 1165              		.loc 1 429 32 is_stmt 0 view .LVU448
 1166 0176 6588     		ldrh	r5, [r4, #2]
 429:lvgl/src/draw/lv_draw_arc.c **** 
 1167              		.loc 1 429 47 view .LVU449
 1168 0178 B4F90800 		ldrsh	r0, [r4, #8]
 1169 017c FFF7FEFF 		bl	lv_trigo_sin
 1170              	.LVL66:
 429:lvgl/src/draw/lv_draw_arc.c **** 
 1171              		.loc 1 429 78 view .LVU450
 1172 0180 B4F90430 		ldrsh	r3, [r4, #4]
 429:lvgl/src/draw/lv_draw_arc.c **** 
 1173              		.loc 1 429 74 view .LVU451
 1174 0184 03FB00F0 		mul	r0, r3, r0
 429:lvgl/src/draw/lv_draw_arc.c **** 
 1175              		.loc 1 429 43 view .LVU452
 1176 0188 05EBE035 		add	r5, r5, r0, asr #15
 429:lvgl/src/draw/lv_draw_arc.c **** 
 1177              		.loc 1 429 29 view .LVU453
 1178 018c ADF80250 		strh	r5, [sp, #2]	@ movhi
 431:lvgl/src/draw/lv_draw_arc.c ****             if(ok) lv_draw_rect(q->draw_area, &quarter_area, q->draw_dsc);
 1179              		.loc 1 431 13 is_stmt 1 view .LVU454
 431:lvgl/src/draw/lv_draw_arc.c ****             if(ok) lv_draw_rect(q->draw_area, &quarter_area, q->draw_dsc);
 1180              		.loc 1 431 23 is_stmt 0 view .LVU455
 1181 0190 A269     		ldr	r2, [r4, #24]
 1182 0192 6946     		mov	r1, sp
 1183 0194 6846     		mov	r0, sp
 1184 0196 FFF7FEFF 		bl	_lv_area_intersect
 1185              	.LVL67:
 432:lvgl/src/draw/lv_draw_arc.c ****         }
 1186              		.loc 1 432 13 is_stmt 1 view .LVU456
 432:lvgl/src/draw/lv_draw_arc.c ****         }
 1187              		.loc 1 432 15 is_stmt 0 view .LVU457
 1188 019a 0028     		cmp	r0, #0
 1189 019c 9DD0     		beq	.L33
 432:lvgl/src/draw/lv_draw_arc.c ****         }
 1190              		.loc 1 432 20 is_stmt 1 discriminator 1 view .LVU458
 1191 019e 2269     		ldr	r2, [r4, #16]
 1192 01a0 6946     		mov	r1, sp
 1193 01a2 6069     		ldr	r0, [r4, #20]
 1194              	.LVL68:
 432:lvgl/src/draw/lv_draw_arc.c ****         }
 1195              		.loc 1 432 20 is_stmt 0 discriminator 1 view .LVU459
 1196 01a4 FFF7FEFF 		bl	lv_draw_rect
 1197              	.LVL69:
 1198 01a8 97E7     		b	.L33
 1199              	.L45:
 432:lvgl/src/draw/lv_draw_arc.c ****         }
 1200              		.loc 1 432 20 discriminator 1 view .LVU460
 1201              	.LBE24:
 435:lvgl/src/draw/lv_draw_arc.c ****             (q->start_quarter == 0 && q->end_quarter == 3) ||
 1202              		.loc 1 435 78 discriminator 3 view .LVU461
 1203 01aa 2089     		ldrh	r0, [r4, #8]
 435:lvgl/src/draw/lv_draw_arc.c ****             (q->start_quarter == 0 && q->end_quarter == 3) ||
 1204              		.loc 1 435 93 discriminator 3 view .LVU462
 1205 01ac E188     		ldrh	r1, [r4, #6]
 435:lvgl/src/draw/lv_draw_arc.c ****             (q->start_quarter == 0 && q->end_quarter == 3) ||
ARM GAS  C:\Users\BLACK_~1\AppData\Local\Temp\ccCMpPOk.s 			page 37


 1206              		.loc 1 435 74 discriminator 3 view .LVU463
 1207 01ae 8842     		cmp	r0, r1
 1208 01b0 BFF434AF 		bcs	.L39
 1209              	.L40:
 1210              	.LBB25:
 440:lvgl/src/draw/lv_draw_arc.c ****         quarter_area.y1 = q->center_y - q->radius;
 1211              		.loc 1 440 9 is_stmt 1 view .LVU464
 440:lvgl/src/draw/lv_draw_arc.c ****         quarter_area.y1 = q->center_y - q->radius;
 1212              		.loc 1 440 28 is_stmt 0 view .LVU465
 1213 01b4 2288     		ldrh	r2, [r4]
 440:lvgl/src/draw/lv_draw_arc.c ****         quarter_area.y1 = q->center_y - q->radius;
 1214              		.loc 1 440 42 view .LVU466
 1215 01b6 A188     		ldrh	r1, [r4, #4]
 440:lvgl/src/draw/lv_draw_arc.c ****         quarter_area.y1 = q->center_y - q->radius;
 1216              		.loc 1 440 39 view .LVU467
 1217 01b8 531A     		subs	r3, r2, r1
 440:lvgl/src/draw/lv_draw_arc.c ****         quarter_area.y1 = q->center_y - q->radius;
 1218              		.loc 1 440 25 view .LVU468
 1219 01ba ADF80030 		strh	r3, [sp]	@ movhi
 441:lvgl/src/draw/lv_draw_arc.c ****         quarter_area.x2 = q->center_x - 1;
 1220              		.loc 1 441 9 is_stmt 1 view .LVU469
 441:lvgl/src/draw/lv_draw_arc.c ****         quarter_area.x2 = q->center_x - 1;
 1221              		.loc 1 441 28 is_stmt 0 view .LVU470
 1222 01be 6388     		ldrh	r3, [r4, #2]
 441:lvgl/src/draw/lv_draw_arc.c ****         quarter_area.x2 = q->center_x - 1;
 1223              		.loc 1 441 39 view .LVU471
 1224 01c0 591A     		subs	r1, r3, r1
 441:lvgl/src/draw/lv_draw_arc.c ****         quarter_area.x2 = q->center_x - 1;
 1225              		.loc 1 441 25 view .LVU472
 1226 01c2 ADF80210 		strh	r1, [sp, #2]	@ movhi
 442:lvgl/src/draw/lv_draw_arc.c ****         quarter_area.y2 = q->center_y - 1;
 1227              		.loc 1 442 9 is_stmt 1 view .LVU473
 442:lvgl/src/draw/lv_draw_arc.c ****         quarter_area.y2 = q->center_y - 1;
 1228              		.loc 1 442 39 is_stmt 0 view .LVU474
 1229 01c6 013A     		subs	r2, r2, #1
 442:lvgl/src/draw/lv_draw_arc.c ****         quarter_area.y2 = q->center_y - 1;
 1230              		.loc 1 442 25 view .LVU475
 1231 01c8 ADF80420 		strh	r2, [sp, #4]	@ movhi
 443:lvgl/src/draw/lv_draw_arc.c **** 
 1232              		.loc 1 443 9 is_stmt 1 view .LVU476
 443:lvgl/src/draw/lv_draw_arc.c **** 
 1233              		.loc 1 443 39 is_stmt 0 view .LVU477
 1234 01cc 013B     		subs	r3, r3, #1
 443:lvgl/src/draw/lv_draw_arc.c **** 
 1235              		.loc 1 443 25 view .LVU478
 1236 01ce ADF80630 		strh	r3, [sp, #6]	@ movhi
 445:lvgl/src/draw/lv_draw_arc.c ****         if(ok) lv_draw_rect(q->draw_area, &quarter_area, q->draw_dsc);
 1237              		.loc 1 445 9 is_stmt 1 view .LVU479
 445:lvgl/src/draw/lv_draw_arc.c ****         if(ok) lv_draw_rect(q->draw_area, &quarter_area, q->draw_dsc);
 1238              		.loc 1 445 19 is_stmt 0 view .LVU480
 1239 01d2 A269     		ldr	r2, [r4, #24]
 1240 01d4 6946     		mov	r1, sp
 1241 01d6 6846     		mov	r0, sp
 1242 01d8 FFF7FEFF 		bl	_lv_area_intersect
 1243              	.LVL70:
 446:lvgl/src/draw/lv_draw_arc.c ****     }
 1244              		.loc 1 446 9 is_stmt 1 view .LVU481
ARM GAS  C:\Users\BLACK_~1\AppData\Local\Temp\ccCMpPOk.s 			page 38


 446:lvgl/src/draw/lv_draw_arc.c ****     }
 1245              		.loc 1 446 11 is_stmt 0 view .LVU482
 1246 01dc 0028     		cmp	r0, #0
 1247 01de 3FF47CAF 		beq	.L33
 446:lvgl/src/draw/lv_draw_arc.c ****     }
 1248              		.loc 1 446 16 is_stmt 1 discriminator 1 view .LVU483
 1249 01e2 2269     		ldr	r2, [r4, #16]
 1250 01e4 6946     		mov	r1, sp
 1251 01e6 6069     		ldr	r0, [r4, #20]
 1252              	.LVL71:
 446:lvgl/src/draw/lv_draw_arc.c ****     }
 1253              		.loc 1 446 16 is_stmt 0 discriminator 1 view .LVU484
 1254 01e8 FFF7FEFF 		bl	lv_draw_rect
 1255              	.LVL72:
 1256              	.LBE25:
 1257              		.loc 1 448 1 discriminator 1 view .LVU485
 1258 01ec 75E7     		b	.L33
 1259              	.L46:
 437:lvgl/src/draw/lv_draw_arc.c ****             (q->start_quarter == 1 && q->end_quarter == 0)) {
 1260              		.loc 1 437 36 view .LVU486
 1261 01ee 032A     		cmp	r2, #3
 1262 01f0 7FF41BAF 		bne	.L42
 1263 01f4 DEE7     		b	.L40
 1264              		.cfi_endproc
 1265              	.LFE53:
 1267              		.section	.text.draw_quarter_3,"ax",%progbits
 1268              		.align	1
 1269              		.syntax unified
 1270              		.thumb
 1271              		.thumb_func
 1273              	draw_quarter_3:
 1274              	.LVL73:
 1275              	.LFB54:
 449:lvgl/src/draw/lv_draw_arc.c **** 
 450:lvgl/src/draw/lv_draw_arc.c **** static void draw_quarter_3(quarter_draw_dsc_t * q)
 451:lvgl/src/draw/lv_draw_arc.c **** {
 1276              		.loc 1 451 1 is_stmt 1 view -0
 1277              		.cfi_startproc
 1278              		@ args = 0, pretend = 0, frame = 8
 1279              		@ frame_needed = 0, uses_anonymous_args = 0
 1280              		.loc 1 451 1 is_stmt 0 view .LVU488
 1281 0000 30B5     		push	{r4, r5, lr}
 1282              	.LCFI12:
 1283              		.cfi_def_cfa_offset 12
 1284              		.cfi_offset 4, -12
 1285              		.cfi_offset 5, -8
 1286              		.cfi_offset 14, -4
 1287 0002 83B0     		sub	sp, sp, #12
 1288              	.LCFI13:
 1289              		.cfi_def_cfa_offset 24
 1290 0004 0446     		mov	r4, r0
 452:lvgl/src/draw/lv_draw_arc.c ****     lv_area_t quarter_area;
 1291              		.loc 1 452 5 is_stmt 1 view .LVU489
 453:lvgl/src/draw/lv_draw_arc.c **** 
 454:lvgl/src/draw/lv_draw_arc.c ****     if(q->start_quarter == 3 && q->end_quarter == 3 && q->start_angle < q->end_angle) {
 1292              		.loc 1 454 5 view .LVU490
 1293              		.loc 1 454 9 is_stmt 0 view .LVU491
ARM GAS  C:\Users\BLACK_~1\AppData\Local\Temp\ccCMpPOk.s 			page 39


 1294 0006 4389     		ldrh	r3, [r0, #10]
 1295              		.loc 1 454 7 view .LVU492
 1296 0008 032B     		cmp	r3, #3
 1297 000a 12D0     		beq	.L60
 1298              	.LVL74:
 1299              	.L50:
 455:lvgl/src/draw/lv_draw_arc.c ****         /*Small arc here*/
 456:lvgl/src/draw/lv_draw_arc.c ****         quarter_area.x1 = q->center_x + ((lv_trigo_sin(q->start_angle + 90) * (q->radius - q->width
 457:lvgl/src/draw/lv_draw_arc.c ****         quarter_area.y1 = q->center_y + ((lv_trigo_sin(q->start_angle) * (q->radius)) >> LV_TRIGO_S
 458:lvgl/src/draw/lv_draw_arc.c **** 
 459:lvgl/src/draw/lv_draw_arc.c ****         quarter_area.x2 = q->center_x + ((lv_trigo_sin(q->end_angle + 90) * (q->radius)) >> LV_TRIG
 460:lvgl/src/draw/lv_draw_arc.c ****         quarter_area.y2 = q->center_y + ((lv_trigo_sin(q->end_angle) * (q->radius - q->width)) >> L
 461:lvgl/src/draw/lv_draw_arc.c **** 
 462:lvgl/src/draw/lv_draw_arc.c ****         bool ok = _lv_area_intersect(&quarter_area, &quarter_area, q->clip_area);
 463:lvgl/src/draw/lv_draw_arc.c ****         if(ok) lv_draw_rect(q->draw_area, &quarter_area, q->draw_dsc);
 464:lvgl/src/draw/lv_draw_arc.c ****     }
 465:lvgl/src/draw/lv_draw_arc.c ****     else if(q->start_quarter == 3 || q->end_quarter == 3) {
 1300              		.loc 1 465 10 is_stmt 1 view .LVU493
 1301              		.loc 1 465 12 is_stmt 0 view .LVU494
 1302 000c 032B     		cmp	r3, #3
 1303 000e 5ED0     		beq	.L52
 1304              		.loc 1 465 39 discriminator 1 view .LVU495
 1305 0010 A289     		ldrh	r2, [r4, #12]
 1306              		.loc 1 465 35 discriminator 1 view .LVU496
 1307 0012 032A     		cmp	r2, #3
 1308 0014 5BD0     		beq	.L52
 466:lvgl/src/draw/lv_draw_arc.c ****         /*Start and/or end arcs here*/
 467:lvgl/src/draw/lv_draw_arc.c ****         if(q->start_quarter == 3) {
 468:lvgl/src/draw/lv_draw_arc.c ****             quarter_area.x2 = q->center_x + q->radius;
 469:lvgl/src/draw/lv_draw_arc.c ****             quarter_area.y2 = q->center_y - 1;
 470:lvgl/src/draw/lv_draw_arc.c **** 
 471:lvgl/src/draw/lv_draw_arc.c ****             quarter_area.x1 = q->center_x + ((lv_trigo_sin(q->start_angle + 90) * (q->radius - q->w
 472:lvgl/src/draw/lv_draw_arc.c ****             quarter_area.y1 = q->center_y + ((lv_trigo_sin(q->start_angle) * (q->radius)) >> LV_TRI
 473:lvgl/src/draw/lv_draw_arc.c **** 
 474:lvgl/src/draw/lv_draw_arc.c ****             bool ok = _lv_area_intersect(&quarter_area, &quarter_area, q->clip_area);
 475:lvgl/src/draw/lv_draw_arc.c ****             if(ok) lv_draw_rect(q->draw_area, &quarter_area, q->draw_dsc);
 476:lvgl/src/draw/lv_draw_arc.c ****         }
 477:lvgl/src/draw/lv_draw_arc.c ****         if(q->end_quarter == 3) {
 478:lvgl/src/draw/lv_draw_arc.c ****             quarter_area.x1 = q->center_x;
 479:lvgl/src/draw/lv_draw_arc.c ****             quarter_area.y1 = q->center_y - q->radius;
 480:lvgl/src/draw/lv_draw_arc.c **** 
 481:lvgl/src/draw/lv_draw_arc.c ****             quarter_area.x2 = q->center_x + ((lv_trigo_sin(q->end_angle + 90) * (q->radius)) >> LV_
 482:lvgl/src/draw/lv_draw_arc.c ****             quarter_area.y2 = q->center_y + ((lv_trigo_sin(q->end_angle) * (q->radius - q->width)) 
 483:lvgl/src/draw/lv_draw_arc.c **** 
 484:lvgl/src/draw/lv_draw_arc.c ****             bool ok = _lv_area_intersect(&quarter_area, &quarter_area, q->clip_area);
 485:lvgl/src/draw/lv_draw_arc.c ****             if(ok) lv_draw_rect(q->draw_area, &quarter_area, q->draw_dsc);
 486:lvgl/src/draw/lv_draw_arc.c ****         }
 487:lvgl/src/draw/lv_draw_arc.c ****     }
 488:lvgl/src/draw/lv_draw_arc.c ****     else if((q->start_quarter == q->end_quarter && q->start_quarter != 3 && q->end_angle < q->start
 1309              		.loc 1 488 10 is_stmt 1 view .LVU497
 1310              		.loc 1 488 12 is_stmt 0 view .LVU498
 1311 0016 9342     		cmp	r3, r2
 1312 0018 00F0C780 		beq	.L61
 1313              	.L55:
 1314              		.loc 1 488 108 discriminator 5 view .LVU499
 1315 001c 022B     		cmp	r3, #2
 1316 001e 00F0E780 		beq	.L62
ARM GAS  C:\Users\BLACK_~1\AppData\Local\Temp\ccCMpPOk.s 			page 40


 1317              	.L57:
 489:lvgl/src/draw/lv_draw_arc.c ****             (q->start_quarter == 2 && q->end_quarter == 0) ||
 1318              		.loc 1 489 60 discriminator 1 view .LVU500
 1319 0022 012B     		cmp	r3, #1
 1320 0024 00F0E780 		beq	.L63
 1321              	.L58:
 490:lvgl/src/draw/lv_draw_arc.c ****             (q->start_quarter == 1 && q->end_quarter == 0) ||
 1322              		.loc 1 490 60 discriminator 1 view .LVU501
 1323 0028 022B     		cmp	r3, #2
 1324 002a 55D1     		bne	.L49
 491:lvgl/src/draw/lv_draw_arc.c ****             (q->start_quarter == 2 && q->end_quarter == 1)) {
 1325              		.loc 1 491 36 view .LVU502
 1326 002c 012A     		cmp	r2, #1
 1327 002e 53D1     		bne	.L49
 1328 0030 C0E0     		b	.L56
 1329              	.LVL75:
 1330              	.L60:
 454:lvgl/src/draw/lv_draw_arc.c ****         /*Small arc here*/
 1331              		.loc 1 454 34 discriminator 1 view .LVU503
 1332 0032 8289     		ldrh	r2, [r0, #12]
 454:lvgl/src/draw/lv_draw_arc.c ****         /*Small arc here*/
 1333              		.loc 1 454 30 discriminator 1 view .LVU504
 1334 0034 032A     		cmp	r2, #3
 1335 0036 E9D1     		bne	.L50
 454:lvgl/src/draw/lv_draw_arc.c ****         /*Small arc here*/
 1336              		.loc 1 454 57 discriminator 2 view .LVU505
 1337 0038 C088     		ldrh	r0, [r0, #6]
 1338              	.LVL76:
 454:lvgl/src/draw/lv_draw_arc.c ****         /*Small arc here*/
 1339              		.loc 1 454 74 discriminator 2 view .LVU506
 1340 003a 2289     		ldrh	r2, [r4, #8]
 454:lvgl/src/draw/lv_draw_arc.c ****         /*Small arc here*/
 1341              		.loc 1 454 53 discriminator 2 view .LVU507
 1342 003c 9042     		cmp	r0, r2
 1343 003e E5D2     		bcs	.L50
 1344              	.LBB26:
 456:lvgl/src/draw/lv_draw_arc.c ****         quarter_area.y1 = q->center_y + ((lv_trigo_sin(q->start_angle) * (q->radius)) >> LV_TRIGO_S
 1345              		.loc 1 456 9 is_stmt 1 view .LVU508
 456:lvgl/src/draw/lv_draw_arc.c ****         quarter_area.y1 = q->center_y + ((lv_trigo_sin(q->start_angle) * (q->radius)) >> LV_TRIGO_S
 1346              		.loc 1 456 28 is_stmt 0 view .LVU509
 1347 0040 2588     		ldrh	r5, [r4]
 456:lvgl/src/draw/lv_draw_arc.c ****         quarter_area.y1 = q->center_y + ((lv_trigo_sin(q->start_angle) * (q->radius)) >> LV_TRIGO_S
 1348              		.loc 1 456 71 view .LVU510
 1349 0042 5A30     		adds	r0, r0, #90
 456:lvgl/src/draw/lv_draw_arc.c ****         quarter_area.y1 = q->center_y + ((lv_trigo_sin(q->start_angle) * (q->radius)) >> LV_TRIGO_S
 1350              		.loc 1 456 43 view .LVU511
 1351 0044 00B2     		sxth	r0, r0
 1352 0046 FFF7FEFF 		bl	lv_trigo_sin
 1353              	.LVL77:
 456:lvgl/src/draw/lv_draw_arc.c ****         quarter_area.y1 = q->center_y + ((lv_trigo_sin(q->start_angle) * (q->radius)) >> LV_TRIGO_S
 1354              		.loc 1 456 81 view .LVU512
 1355 004a B4F90430 		ldrsh	r3, [r4, #4]
 456:lvgl/src/draw/lv_draw_arc.c ****         quarter_area.y1 = q->center_y + ((lv_trigo_sin(q->start_angle) * (q->radius)) >> LV_TRIGO_S
 1356              		.loc 1 456 93 view .LVU513
 1357 004e B4F90E20 		ldrsh	r2, [r4, #14]
 456:lvgl/src/draw/lv_draw_arc.c ****         quarter_area.y1 = q->center_y + ((lv_trigo_sin(q->start_angle) * (q->radius)) >> LV_TRIGO_S
 1358              		.loc 1 456 90 view .LVU514
ARM GAS  C:\Users\BLACK_~1\AppData\Local\Temp\ccCMpPOk.s 			page 41


 1359 0052 9B1A     		subs	r3, r3, r2
 456:lvgl/src/draw/lv_draw_arc.c ****         quarter_area.y1 = q->center_y + ((lv_trigo_sin(q->start_angle) * (q->radius)) >> LV_TRIGO_S
 1360              		.loc 1 456 77 view .LVU515
 1361 0054 03FB00F0 		mul	r0, r3, r0
 456:lvgl/src/draw/lv_draw_arc.c ****         quarter_area.y1 = q->center_y + ((lv_trigo_sin(q->start_angle) * (q->radius)) >> LV_TRIGO_S
 1362              		.loc 1 456 39 view .LVU516
 1363 0058 05EBE035 		add	r5, r5, r0, asr #15
 456:lvgl/src/draw/lv_draw_arc.c ****         quarter_area.y1 = q->center_y + ((lv_trigo_sin(q->start_angle) * (q->radius)) >> LV_TRIGO_S
 1364              		.loc 1 456 25 view .LVU517
 1365 005c ADF80050 		strh	r5, [sp]	@ movhi
 457:lvgl/src/draw/lv_draw_arc.c **** 
 1366              		.loc 1 457 9 is_stmt 1 view .LVU518
 457:lvgl/src/draw/lv_draw_arc.c **** 
 1367              		.loc 1 457 28 is_stmt 0 view .LVU519
 1368 0060 6588     		ldrh	r5, [r4, #2]
 457:lvgl/src/draw/lv_draw_arc.c **** 
 1369              		.loc 1 457 43 view .LVU520
 1370 0062 B4F90600 		ldrsh	r0, [r4, #6]
 1371 0066 FFF7FEFF 		bl	lv_trigo_sin
 1372              	.LVL78:
 457:lvgl/src/draw/lv_draw_arc.c **** 
 1373              		.loc 1 457 76 view .LVU521
 1374 006a B4F90430 		ldrsh	r3, [r4, #4]
 457:lvgl/src/draw/lv_draw_arc.c **** 
 1375              		.loc 1 457 72 view .LVU522
 1376 006e 03FB00F0 		mul	r0, r3, r0
 457:lvgl/src/draw/lv_draw_arc.c **** 
 1377              		.loc 1 457 39 view .LVU523
 1378 0072 05EBE035 		add	r5, r5, r0, asr #15
 457:lvgl/src/draw/lv_draw_arc.c **** 
 1379              		.loc 1 457 25 view .LVU524
 1380 0076 ADF80250 		strh	r5, [sp, #2]	@ movhi
 459:lvgl/src/draw/lv_draw_arc.c ****         quarter_area.y2 = q->center_y + ((lv_trigo_sin(q->end_angle) * (q->radius - q->width)) >> L
 1381              		.loc 1 459 9 is_stmt 1 view .LVU525
 459:lvgl/src/draw/lv_draw_arc.c ****         quarter_area.y2 = q->center_y + ((lv_trigo_sin(q->end_angle) * (q->radius - q->width)) >> L
 1382              		.loc 1 459 28 is_stmt 0 view .LVU526
 1383 007a 2588     		ldrh	r5, [r4]
 459:lvgl/src/draw/lv_draw_arc.c ****         quarter_area.y2 = q->center_y + ((lv_trigo_sin(q->end_angle) * (q->radius - q->width)) >> L
 1384              		.loc 1 459 57 view .LVU527
 1385 007c 2089     		ldrh	r0, [r4, #8]
 459:lvgl/src/draw/lv_draw_arc.c ****         quarter_area.y2 = q->center_y + ((lv_trigo_sin(q->end_angle) * (q->radius - q->width)) >> L
 1386              		.loc 1 459 69 view .LVU528
 1387 007e 5A30     		adds	r0, r0, #90
 459:lvgl/src/draw/lv_draw_arc.c ****         quarter_area.y2 = q->center_y + ((lv_trigo_sin(q->end_angle) * (q->radius - q->width)) >> L
 1388              		.loc 1 459 43 view .LVU529
 1389 0080 00B2     		sxth	r0, r0
 1390 0082 FFF7FEFF 		bl	lv_trigo_sin
 1391              	.LVL79:
 459:lvgl/src/draw/lv_draw_arc.c ****         quarter_area.y2 = q->center_y + ((lv_trigo_sin(q->end_angle) * (q->radius - q->width)) >> L
 1392              		.loc 1 459 79 view .LVU530
 1393 0086 B4F90430 		ldrsh	r3, [r4, #4]
 459:lvgl/src/draw/lv_draw_arc.c ****         quarter_area.y2 = q->center_y + ((lv_trigo_sin(q->end_angle) * (q->radius - q->width)) >> L
 1394              		.loc 1 459 75 view .LVU531
 1395 008a 03FB00F0 		mul	r0, r3, r0
 459:lvgl/src/draw/lv_draw_arc.c ****         quarter_area.y2 = q->center_y + ((lv_trigo_sin(q->end_angle) * (q->radius - q->width)) >> L
 1396              		.loc 1 459 39 view .LVU532
 1397 008e 05EBE035 		add	r5, r5, r0, asr #15
ARM GAS  C:\Users\BLACK_~1\AppData\Local\Temp\ccCMpPOk.s 			page 42


 459:lvgl/src/draw/lv_draw_arc.c ****         quarter_area.y2 = q->center_y + ((lv_trigo_sin(q->end_angle) * (q->radius - q->width)) >> L
 1398              		.loc 1 459 25 view .LVU533
 1399 0092 ADF80450 		strh	r5, [sp, #4]	@ movhi
 460:lvgl/src/draw/lv_draw_arc.c **** 
 1400              		.loc 1 460 9 is_stmt 1 view .LVU534
 460:lvgl/src/draw/lv_draw_arc.c **** 
 1401              		.loc 1 460 28 is_stmt 0 view .LVU535
 1402 0096 6588     		ldrh	r5, [r4, #2]
 460:lvgl/src/draw/lv_draw_arc.c **** 
 1403              		.loc 1 460 43 view .LVU536
 1404 0098 B4F90800 		ldrsh	r0, [r4, #8]
 1405 009c FFF7FEFF 		bl	lv_trigo_sin
 1406              	.LVL80:
 460:lvgl/src/draw/lv_draw_arc.c **** 
 1407              		.loc 1 460 74 view .LVU537
 1408 00a0 B4F90430 		ldrsh	r3, [r4, #4]
 460:lvgl/src/draw/lv_draw_arc.c **** 
 1409              		.loc 1 460 86 view .LVU538
 1410 00a4 B4F90E20 		ldrsh	r2, [r4, #14]
 460:lvgl/src/draw/lv_draw_arc.c **** 
 1411              		.loc 1 460 83 view .LVU539
 1412 00a8 9B1A     		subs	r3, r3, r2
 460:lvgl/src/draw/lv_draw_arc.c **** 
 1413              		.loc 1 460 70 view .LVU540
 1414 00aa 03FB00F0 		mul	r0, r3, r0
 460:lvgl/src/draw/lv_draw_arc.c **** 
 1415              		.loc 1 460 39 view .LVU541
 1416 00ae 05EBE035 		add	r5, r5, r0, asr #15
 460:lvgl/src/draw/lv_draw_arc.c **** 
 1417              		.loc 1 460 25 view .LVU542
 1418 00b2 ADF80650 		strh	r5, [sp, #6]	@ movhi
 462:lvgl/src/draw/lv_draw_arc.c ****         if(ok) lv_draw_rect(q->draw_area, &quarter_area, q->draw_dsc);
 1419              		.loc 1 462 9 is_stmt 1 view .LVU543
 462:lvgl/src/draw/lv_draw_arc.c ****         if(ok) lv_draw_rect(q->draw_area, &quarter_area, q->draw_dsc);
 1420              		.loc 1 462 19 is_stmt 0 view .LVU544
 1421 00b6 A269     		ldr	r2, [r4, #24]
 1422 00b8 6946     		mov	r1, sp
 1423 00ba 6846     		mov	r0, sp
 1424 00bc FFF7FEFF 		bl	_lv_area_intersect
 1425              	.LVL81:
 463:lvgl/src/draw/lv_draw_arc.c ****     }
 1426              		.loc 1 463 9 is_stmt 1 view .LVU545
 463:lvgl/src/draw/lv_draw_arc.c ****     }
 1427              		.loc 1 463 11 is_stmt 0 view .LVU546
 1428 00c0 50B1     		cbz	r0, .L49
 463:lvgl/src/draw/lv_draw_arc.c ****     }
 1429              		.loc 1 463 16 is_stmt 1 discriminator 1 view .LVU547
 1430 00c2 2269     		ldr	r2, [r4, #16]
 1431 00c4 6946     		mov	r1, sp
 1432 00c6 6069     		ldr	r0, [r4, #20]
 1433              	.LVL82:
 463:lvgl/src/draw/lv_draw_arc.c ****     }
 1434              		.loc 1 463 16 is_stmt 0 discriminator 1 view .LVU548
 1435 00c8 FFF7FEFF 		bl	lv_draw_rect
 1436              	.LVL83:
 1437 00cc 04E0     		b	.L49
 1438              	.L52:
ARM GAS  C:\Users\BLACK_~1\AppData\Local\Temp\ccCMpPOk.s 			page 43


 463:lvgl/src/draw/lv_draw_arc.c ****     }
 1439              		.loc 1 463 16 discriminator 1 view .LVU549
 1440              	.LBE26:
 467:lvgl/src/draw/lv_draw_arc.c ****             quarter_area.x2 = q->center_x + q->radius;
 1441              		.loc 1 467 9 is_stmt 1 view .LVU550
 467:lvgl/src/draw/lv_draw_arc.c ****             quarter_area.x2 = q->center_x + q->radius;
 1442              		.loc 1 467 11 is_stmt 0 view .LVU551
 1443 00ce 032B     		cmp	r3, #3
 1444 00d0 04D0     		beq	.L64
 1445              	.L54:
 477:lvgl/src/draw/lv_draw_arc.c ****             quarter_area.x1 = q->center_x;
 1446              		.loc 1 477 9 is_stmt 1 view .LVU552
 477:lvgl/src/draw/lv_draw_arc.c ****             quarter_area.x1 = q->center_x;
 1447              		.loc 1 477 13 is_stmt 0 view .LVU553
 1448 00d2 A389     		ldrh	r3, [r4, #12]
 477:lvgl/src/draw/lv_draw_arc.c ****             quarter_area.x1 = q->center_x;
 1449              		.loc 1 477 11 view .LVU554
 1450 00d4 032B     		cmp	r3, #3
 1451 00d6 34D0     		beq	.L65
 1452              	.L49:
 492:lvgl/src/draw/lv_draw_arc.c ****         /*Arc crosses here*/
 493:lvgl/src/draw/lv_draw_arc.c ****         quarter_area.x1 = q->center_x;
 494:lvgl/src/draw/lv_draw_arc.c ****         quarter_area.y1 = q->center_y - q->radius;
 495:lvgl/src/draw/lv_draw_arc.c ****         quarter_area.x2 = q->center_x + q->radius;
 496:lvgl/src/draw/lv_draw_arc.c ****         quarter_area.y2 = q->center_y - 1;
 497:lvgl/src/draw/lv_draw_arc.c **** 
 498:lvgl/src/draw/lv_draw_arc.c ****         bool ok = _lv_area_intersect(&quarter_area, &quarter_area, q->clip_area);
 499:lvgl/src/draw/lv_draw_arc.c ****         if(ok) lv_draw_rect(q->draw_area, &quarter_area, q->draw_dsc);
 500:lvgl/src/draw/lv_draw_arc.c ****     }
 501:lvgl/src/draw/lv_draw_arc.c **** }
 1453              		.loc 1 501 1 view .LVU555
 1454 00d8 03B0     		add	sp, sp, #12
 1455              	.LCFI14:
 1456              		.cfi_remember_state
 1457              		.cfi_def_cfa_offset 12
 1458              		@ sp needed
 1459 00da 30BD     		pop	{r4, r5, pc}
 1460              	.LVL84:
 1461              	.L64:
 1462              	.LCFI15:
 1463              		.cfi_restore_state
 1464              	.LBB27:
 468:lvgl/src/draw/lv_draw_arc.c ****             quarter_area.y2 = q->center_y - 1;
 1465              		.loc 1 468 13 is_stmt 1 view .LVU556
 468:lvgl/src/draw/lv_draw_arc.c ****             quarter_area.y2 = q->center_y - 1;
 1466              		.loc 1 468 32 is_stmt 0 view .LVU557
 1467 00dc 2588     		ldrh	r5, [r4]
 468:lvgl/src/draw/lv_draw_arc.c ****             quarter_area.y2 = q->center_y - 1;
 1468              		.loc 1 468 46 view .LVU558
 1469 00de A388     		ldrh	r3, [r4, #4]
 468:lvgl/src/draw/lv_draw_arc.c ****             quarter_area.y2 = q->center_y - 1;
 1470              		.loc 1 468 43 view .LVU559
 1471 00e0 2B44     		add	r3, r3, r5
 468:lvgl/src/draw/lv_draw_arc.c ****             quarter_area.y2 = q->center_y - 1;
 1472              		.loc 1 468 29 view .LVU560
 1473 00e2 ADF80430 		strh	r3, [sp, #4]	@ movhi
 469:lvgl/src/draw/lv_draw_arc.c **** 
ARM GAS  C:\Users\BLACK_~1\AppData\Local\Temp\ccCMpPOk.s 			page 44


 1474              		.loc 1 469 13 is_stmt 1 view .LVU561
 469:lvgl/src/draw/lv_draw_arc.c **** 
 1475              		.loc 1 469 32 is_stmt 0 view .LVU562
 1476 00e6 6388     		ldrh	r3, [r4, #2]
 469:lvgl/src/draw/lv_draw_arc.c **** 
 1477              		.loc 1 469 43 view .LVU563
 1478 00e8 013B     		subs	r3, r3, #1
 469:lvgl/src/draw/lv_draw_arc.c **** 
 1479              		.loc 1 469 29 view .LVU564
 1480 00ea ADF80630 		strh	r3, [sp, #6]	@ movhi
 471:lvgl/src/draw/lv_draw_arc.c ****             quarter_area.y1 = q->center_y + ((lv_trigo_sin(q->start_angle) * (q->radius)) >> LV_TRI
 1481              		.loc 1 471 13 is_stmt 1 view .LVU565
 471:lvgl/src/draw/lv_draw_arc.c ****             quarter_area.y1 = q->center_y + ((lv_trigo_sin(q->start_angle) * (q->radius)) >> LV_TRI
 1482              		.loc 1 471 61 is_stmt 0 view .LVU566
 1483 00ee E088     		ldrh	r0, [r4, #6]
 471:lvgl/src/draw/lv_draw_arc.c ****             quarter_area.y1 = q->center_y + ((lv_trigo_sin(q->start_angle) * (q->radius)) >> LV_TRI
 1484              		.loc 1 471 75 view .LVU567
 1485 00f0 5A30     		adds	r0, r0, #90
 471:lvgl/src/draw/lv_draw_arc.c ****             quarter_area.y1 = q->center_y + ((lv_trigo_sin(q->start_angle) * (q->radius)) >> LV_TRI
 1486              		.loc 1 471 47 view .LVU568
 1487 00f2 00B2     		sxth	r0, r0
 1488 00f4 FFF7FEFF 		bl	lv_trigo_sin
 1489              	.LVL85:
 471:lvgl/src/draw/lv_draw_arc.c ****             quarter_area.y1 = q->center_y + ((lv_trigo_sin(q->start_angle) * (q->radius)) >> LV_TRI
 1490              		.loc 1 471 85 view .LVU569
 1491 00f8 B4F90430 		ldrsh	r3, [r4, #4]
 471:lvgl/src/draw/lv_draw_arc.c ****             quarter_area.y1 = q->center_y + ((lv_trigo_sin(q->start_angle) * (q->radius)) >> LV_TRI
 1492              		.loc 1 471 97 view .LVU570
 1493 00fc B4F90E20 		ldrsh	r2, [r4, #14]
 471:lvgl/src/draw/lv_draw_arc.c ****             quarter_area.y1 = q->center_y + ((lv_trigo_sin(q->start_angle) * (q->radius)) >> LV_TRI
 1494              		.loc 1 471 94 view .LVU571
 1495 0100 9B1A     		subs	r3, r3, r2
 471:lvgl/src/draw/lv_draw_arc.c ****             quarter_area.y1 = q->center_y + ((lv_trigo_sin(q->start_angle) * (q->radius)) >> LV_TRI
 1496              		.loc 1 471 81 view .LVU572
 1497 0102 03FB00F0 		mul	r0, r3, r0
 471:lvgl/src/draw/lv_draw_arc.c ****             quarter_area.y1 = q->center_y + ((lv_trigo_sin(q->start_angle) * (q->radius)) >> LV_TRI
 1498              		.loc 1 471 43 view .LVU573
 1499 0106 05EBE035 		add	r5, r5, r0, asr #15
 471:lvgl/src/draw/lv_draw_arc.c ****             quarter_area.y1 = q->center_y + ((lv_trigo_sin(q->start_angle) * (q->radius)) >> LV_TRI
 1500              		.loc 1 471 29 view .LVU574
 1501 010a ADF80050 		strh	r5, [sp]	@ movhi
 472:lvgl/src/draw/lv_draw_arc.c **** 
 1502              		.loc 1 472 13 is_stmt 1 view .LVU575
 472:lvgl/src/draw/lv_draw_arc.c **** 
 1503              		.loc 1 472 32 is_stmt 0 view .LVU576
 1504 010e 6588     		ldrh	r5, [r4, #2]
 472:lvgl/src/draw/lv_draw_arc.c **** 
 1505              		.loc 1 472 47 view .LVU577
 1506 0110 B4F90600 		ldrsh	r0, [r4, #6]
 1507 0114 FFF7FEFF 		bl	lv_trigo_sin
 1508              	.LVL86:
 472:lvgl/src/draw/lv_draw_arc.c **** 
 1509              		.loc 1 472 80 view .LVU578
 1510 0118 B4F90430 		ldrsh	r3, [r4, #4]
 472:lvgl/src/draw/lv_draw_arc.c **** 
 1511              		.loc 1 472 76 view .LVU579
 1512 011c 03FB00F0 		mul	r0, r3, r0
ARM GAS  C:\Users\BLACK_~1\AppData\Local\Temp\ccCMpPOk.s 			page 45


 472:lvgl/src/draw/lv_draw_arc.c **** 
 1513              		.loc 1 472 43 view .LVU580
 1514 0120 05EBE035 		add	r5, r5, r0, asr #15
 472:lvgl/src/draw/lv_draw_arc.c **** 
 1515              		.loc 1 472 29 view .LVU581
 1516 0124 ADF80250 		strh	r5, [sp, #2]	@ movhi
 474:lvgl/src/draw/lv_draw_arc.c ****             if(ok) lv_draw_rect(q->draw_area, &quarter_area, q->draw_dsc);
 1517              		.loc 1 474 13 is_stmt 1 view .LVU582
 474:lvgl/src/draw/lv_draw_arc.c ****             if(ok) lv_draw_rect(q->draw_area, &quarter_area, q->draw_dsc);
 1518              		.loc 1 474 23 is_stmt 0 view .LVU583
 1519 0128 A269     		ldr	r2, [r4, #24]
 1520 012a 6946     		mov	r1, sp
 1521 012c 6846     		mov	r0, sp
 1522 012e FFF7FEFF 		bl	_lv_area_intersect
 1523              	.LVL87:
 475:lvgl/src/draw/lv_draw_arc.c ****         }
 1524              		.loc 1 475 13 is_stmt 1 view .LVU584
 475:lvgl/src/draw/lv_draw_arc.c ****         }
 1525              		.loc 1 475 15 is_stmt 0 view .LVU585
 1526 0132 0028     		cmp	r0, #0
 1527 0134 CDD0     		beq	.L54
 475:lvgl/src/draw/lv_draw_arc.c ****         }
 1528              		.loc 1 475 20 is_stmt 1 discriminator 1 view .LVU586
 1529 0136 2269     		ldr	r2, [r4, #16]
 1530 0138 6946     		mov	r1, sp
 1531 013a 6069     		ldr	r0, [r4, #20]
 1532              	.LVL88:
 475:lvgl/src/draw/lv_draw_arc.c ****         }
 1533              		.loc 1 475 20 is_stmt 0 discriminator 1 view .LVU587
 1534 013c FFF7FEFF 		bl	lv_draw_rect
 1535              	.LVL89:
 1536 0140 C7E7     		b	.L54
 1537              	.L65:
 475:lvgl/src/draw/lv_draw_arc.c ****         }
 1538              		.loc 1 475 20 discriminator 1 view .LVU588
 1539              	.LBE27:
 1540              	.LBB28:
 478:lvgl/src/draw/lv_draw_arc.c ****             quarter_area.y1 = q->center_y - q->radius;
 1541              		.loc 1 478 13 is_stmt 1 view .LVU589
 478:lvgl/src/draw/lv_draw_arc.c ****             quarter_area.y1 = q->center_y - q->radius;
 1542              		.loc 1 478 32 is_stmt 0 view .LVU590
 1543 0142 B4F90030 		ldrsh	r3, [r4]
 478:lvgl/src/draw/lv_draw_arc.c ****             quarter_area.y1 = q->center_y - q->radius;
 1544              		.loc 1 478 29 view .LVU591
 1545 0146 ADF80030 		strh	r3, [sp]	@ movhi
 479:lvgl/src/draw/lv_draw_arc.c **** 
 1546              		.loc 1 479 13 is_stmt 1 view .LVU592
 479:lvgl/src/draw/lv_draw_arc.c **** 
 1547              		.loc 1 479 32 is_stmt 0 view .LVU593
 1548 014a 6388     		ldrh	r3, [r4, #2]
 479:lvgl/src/draw/lv_draw_arc.c **** 
 1549              		.loc 1 479 46 view .LVU594
 1550 014c A288     		ldrh	r2, [r4, #4]
 479:lvgl/src/draw/lv_draw_arc.c **** 
 1551              		.loc 1 479 43 view .LVU595
 1552 014e 9B1A     		subs	r3, r3, r2
 479:lvgl/src/draw/lv_draw_arc.c **** 
ARM GAS  C:\Users\BLACK_~1\AppData\Local\Temp\ccCMpPOk.s 			page 46


 1553              		.loc 1 479 29 view .LVU596
 1554 0150 ADF80230 		strh	r3, [sp, #2]	@ movhi
 481:lvgl/src/draw/lv_draw_arc.c ****             quarter_area.y2 = q->center_y + ((lv_trigo_sin(q->end_angle) * (q->radius - q->width)) 
 1555              		.loc 1 481 13 is_stmt 1 view .LVU597
 481:lvgl/src/draw/lv_draw_arc.c ****             quarter_area.y2 = q->center_y + ((lv_trigo_sin(q->end_angle) * (q->radius - q->width)) 
 1556              		.loc 1 481 32 is_stmt 0 view .LVU598
 1557 0154 2588     		ldrh	r5, [r4]
 481:lvgl/src/draw/lv_draw_arc.c ****             quarter_area.y2 = q->center_y + ((lv_trigo_sin(q->end_angle) * (q->radius - q->width)) 
 1558              		.loc 1 481 61 view .LVU599
 1559 0156 2089     		ldrh	r0, [r4, #8]
 481:lvgl/src/draw/lv_draw_arc.c ****             quarter_area.y2 = q->center_y + ((lv_trigo_sin(q->end_angle) * (q->radius - q->width)) 
 1560              		.loc 1 481 73 view .LVU600
 1561 0158 5A30     		adds	r0, r0, #90
 481:lvgl/src/draw/lv_draw_arc.c ****             quarter_area.y2 = q->center_y + ((lv_trigo_sin(q->end_angle) * (q->radius - q->width)) 
 1562              		.loc 1 481 47 view .LVU601
 1563 015a 00B2     		sxth	r0, r0
 1564 015c FFF7FEFF 		bl	lv_trigo_sin
 1565              	.LVL90:
 481:lvgl/src/draw/lv_draw_arc.c ****             quarter_area.y2 = q->center_y + ((lv_trigo_sin(q->end_angle) * (q->radius - q->width)) 
 1566              		.loc 1 481 83 view .LVU602
 1567 0160 B4F90430 		ldrsh	r3, [r4, #4]
 481:lvgl/src/draw/lv_draw_arc.c ****             quarter_area.y2 = q->center_y + ((lv_trigo_sin(q->end_angle) * (q->radius - q->width)) 
 1568              		.loc 1 481 79 view .LVU603
 1569 0164 03FB00F0 		mul	r0, r3, r0
 481:lvgl/src/draw/lv_draw_arc.c ****             quarter_area.y2 = q->center_y + ((lv_trigo_sin(q->end_angle) * (q->radius - q->width)) 
 1570              		.loc 1 481 43 view .LVU604
 1571 0168 05EBE035 		add	r5, r5, r0, asr #15
 481:lvgl/src/draw/lv_draw_arc.c ****             quarter_area.y2 = q->center_y + ((lv_trigo_sin(q->end_angle) * (q->radius - q->width)) 
 1572              		.loc 1 481 29 view .LVU605
 1573 016c ADF80450 		strh	r5, [sp, #4]	@ movhi
 482:lvgl/src/draw/lv_draw_arc.c **** 
 1574              		.loc 1 482 13 is_stmt 1 view .LVU606
 482:lvgl/src/draw/lv_draw_arc.c **** 
 1575              		.loc 1 482 32 is_stmt 0 view .LVU607
 1576 0170 6588     		ldrh	r5, [r4, #2]
 482:lvgl/src/draw/lv_draw_arc.c **** 
 1577              		.loc 1 482 47 view .LVU608
 1578 0172 B4F90800 		ldrsh	r0, [r4, #8]
 1579 0176 FFF7FEFF 		bl	lv_trigo_sin
 1580              	.LVL91:
 482:lvgl/src/draw/lv_draw_arc.c **** 
 1581              		.loc 1 482 78 view .LVU609
 1582 017a B4F90430 		ldrsh	r3, [r4, #4]
 482:lvgl/src/draw/lv_draw_arc.c **** 
 1583              		.loc 1 482 90 view .LVU610
 1584 017e B4F90E20 		ldrsh	r2, [r4, #14]
 482:lvgl/src/draw/lv_draw_arc.c **** 
 1585              		.loc 1 482 87 view .LVU611
 1586 0182 9B1A     		subs	r3, r3, r2
 482:lvgl/src/draw/lv_draw_arc.c **** 
 1587              		.loc 1 482 74 view .LVU612
 1588 0184 03FB00F0 		mul	r0, r3, r0
 482:lvgl/src/draw/lv_draw_arc.c **** 
 1589              		.loc 1 482 43 view .LVU613
 1590 0188 05EBE035 		add	r5, r5, r0, asr #15
 482:lvgl/src/draw/lv_draw_arc.c **** 
 1591              		.loc 1 482 29 view .LVU614
ARM GAS  C:\Users\BLACK_~1\AppData\Local\Temp\ccCMpPOk.s 			page 47


 1592 018c ADF80650 		strh	r5, [sp, #6]	@ movhi
 484:lvgl/src/draw/lv_draw_arc.c ****             if(ok) lv_draw_rect(q->draw_area, &quarter_area, q->draw_dsc);
 1593              		.loc 1 484 13 is_stmt 1 view .LVU615
 484:lvgl/src/draw/lv_draw_arc.c ****             if(ok) lv_draw_rect(q->draw_area, &quarter_area, q->draw_dsc);
 1594              		.loc 1 484 23 is_stmt 0 view .LVU616
 1595 0190 A269     		ldr	r2, [r4, #24]
 1596 0192 6946     		mov	r1, sp
 1597 0194 6846     		mov	r0, sp
 1598 0196 FFF7FEFF 		bl	_lv_area_intersect
 1599              	.LVL92:
 485:lvgl/src/draw/lv_draw_arc.c ****         }
 1600              		.loc 1 485 13 is_stmt 1 view .LVU617
 485:lvgl/src/draw/lv_draw_arc.c ****         }
 1601              		.loc 1 485 15 is_stmt 0 view .LVU618
 1602 019a 0028     		cmp	r0, #0
 1603 019c 9CD0     		beq	.L49
 485:lvgl/src/draw/lv_draw_arc.c ****         }
 1604              		.loc 1 485 20 is_stmt 1 discriminator 1 view .LVU619
 1605 019e 2269     		ldr	r2, [r4, #16]
 1606 01a0 6946     		mov	r1, sp
 1607 01a2 6069     		ldr	r0, [r4, #20]
 1608              	.LVL93:
 485:lvgl/src/draw/lv_draw_arc.c ****         }
 1609              		.loc 1 485 20 is_stmt 0 discriminator 1 view .LVU620
 1610 01a4 FFF7FEFF 		bl	lv_draw_rect
 1611              	.LVL94:
 1612 01a8 96E7     		b	.L49
 1613              	.L61:
 485:lvgl/src/draw/lv_draw_arc.c ****         }
 1614              		.loc 1 485 20 discriminator 1 view .LVU621
 1615              	.LBE28:
 488:lvgl/src/draw/lv_draw_arc.c ****             (q->start_quarter == 2 && q->end_quarter == 0) ||
 1616              		.loc 1 488 78 discriminator 3 view .LVU622
 1617 01aa 2089     		ldrh	r0, [r4, #8]
 488:lvgl/src/draw/lv_draw_arc.c ****             (q->start_quarter == 2 && q->end_quarter == 0) ||
 1618              		.loc 1 488 93 discriminator 3 view .LVU623
 1619 01ac E188     		ldrh	r1, [r4, #6]
 488:lvgl/src/draw/lv_draw_arc.c ****             (q->start_quarter == 2 && q->end_quarter == 0) ||
 1620              		.loc 1 488 74 discriminator 3 view .LVU624
 1621 01ae 8842     		cmp	r0, r1
 1622 01b0 BFF434AF 		bcs	.L55
 1623              	.L56:
 1624              	.LBB29:
 493:lvgl/src/draw/lv_draw_arc.c ****         quarter_area.y1 = q->center_y - q->radius;
 1625              		.loc 1 493 9 is_stmt 1 view .LVU625
 493:lvgl/src/draw/lv_draw_arc.c ****         quarter_area.y1 = q->center_y - q->radius;
 1626              		.loc 1 493 28 is_stmt 0 view .LVU626
 1627 01b4 B4F90030 		ldrsh	r3, [r4]
 493:lvgl/src/draw/lv_draw_arc.c ****         quarter_area.y1 = q->center_y - q->radius;
 1628              		.loc 1 493 25 view .LVU627
 1629 01b8 ADF80030 		strh	r3, [sp]	@ movhi
 494:lvgl/src/draw/lv_draw_arc.c ****         quarter_area.x2 = q->center_x + q->radius;
 1630              		.loc 1 494 9 is_stmt 1 view .LVU628
 494:lvgl/src/draw/lv_draw_arc.c ****         quarter_area.x2 = q->center_x + q->radius;
 1631              		.loc 1 494 28 is_stmt 0 view .LVU629
 1632 01bc 6388     		ldrh	r3, [r4, #2]
 494:lvgl/src/draw/lv_draw_arc.c ****         quarter_area.x2 = q->center_x + q->radius;
ARM GAS  C:\Users\BLACK_~1\AppData\Local\Temp\ccCMpPOk.s 			page 48


 1633              		.loc 1 494 42 view .LVU630
 1634 01be A288     		ldrh	r2, [r4, #4]
 494:lvgl/src/draw/lv_draw_arc.c ****         quarter_area.x2 = q->center_x + q->radius;
 1635              		.loc 1 494 39 view .LVU631
 1636 01c0 991A     		subs	r1, r3, r2
 494:lvgl/src/draw/lv_draw_arc.c ****         quarter_area.x2 = q->center_x + q->radius;
 1637              		.loc 1 494 25 view .LVU632
 1638 01c2 ADF80210 		strh	r1, [sp, #2]	@ movhi
 495:lvgl/src/draw/lv_draw_arc.c ****         quarter_area.y2 = q->center_y - 1;
 1639              		.loc 1 495 9 is_stmt 1 view .LVU633
 495:lvgl/src/draw/lv_draw_arc.c ****         quarter_area.y2 = q->center_y - 1;
 1640              		.loc 1 495 28 is_stmt 0 view .LVU634
 1641 01c6 2188     		ldrh	r1, [r4]
 495:lvgl/src/draw/lv_draw_arc.c ****         quarter_area.y2 = q->center_y - 1;
 1642              		.loc 1 495 39 view .LVU635
 1643 01c8 0A44     		add	r2, r2, r1
 495:lvgl/src/draw/lv_draw_arc.c ****         quarter_area.y2 = q->center_y - 1;
 1644              		.loc 1 495 25 view .LVU636
 1645 01ca ADF80420 		strh	r2, [sp, #4]	@ movhi
 496:lvgl/src/draw/lv_draw_arc.c **** 
 1646              		.loc 1 496 9 is_stmt 1 view .LVU637
 496:lvgl/src/draw/lv_draw_arc.c **** 
 1647              		.loc 1 496 39 is_stmt 0 view .LVU638
 1648 01ce 013B     		subs	r3, r3, #1
 496:lvgl/src/draw/lv_draw_arc.c **** 
 1649              		.loc 1 496 25 view .LVU639
 1650 01d0 ADF80630 		strh	r3, [sp, #6]	@ movhi
 498:lvgl/src/draw/lv_draw_arc.c ****         if(ok) lv_draw_rect(q->draw_area, &quarter_area, q->draw_dsc);
 1651              		.loc 1 498 9 is_stmt 1 view .LVU640
 498:lvgl/src/draw/lv_draw_arc.c ****         if(ok) lv_draw_rect(q->draw_area, &quarter_area, q->draw_dsc);
 1652              		.loc 1 498 19 is_stmt 0 view .LVU641
 1653 01d4 A269     		ldr	r2, [r4, #24]
 1654 01d6 6946     		mov	r1, sp
 1655 01d8 6846     		mov	r0, sp
 1656 01da FFF7FEFF 		bl	_lv_area_intersect
 1657              	.LVL95:
 499:lvgl/src/draw/lv_draw_arc.c ****     }
 1658              		.loc 1 499 9 is_stmt 1 view .LVU642
 499:lvgl/src/draw/lv_draw_arc.c ****     }
 1659              		.loc 1 499 11 is_stmt 0 view .LVU643
 1660 01de 0028     		cmp	r0, #0
 1661 01e0 3FF47AAF 		beq	.L49
 499:lvgl/src/draw/lv_draw_arc.c ****     }
 1662              		.loc 1 499 16 is_stmt 1 discriminator 1 view .LVU644
 1663 01e4 2269     		ldr	r2, [r4, #16]
 1664 01e6 6946     		mov	r1, sp
 1665 01e8 6069     		ldr	r0, [r4, #20]
 1666              	.LVL96:
 499:lvgl/src/draw/lv_draw_arc.c ****     }
 1667              		.loc 1 499 16 is_stmt 0 discriminator 1 view .LVU645
 1668 01ea FFF7FEFF 		bl	lv_draw_rect
 1669              	.LVL97:
 1670              	.LBE29:
 1671              		.loc 1 501 1 discriminator 1 view .LVU646
 1672 01ee 73E7     		b	.L49
 1673              	.L62:
 489:lvgl/src/draw/lv_draw_arc.c ****             (q->start_quarter == 1 && q->end_quarter == 0) ||
ARM GAS  C:\Users\BLACK_~1\AppData\Local\Temp\ccCMpPOk.s 			page 49


 1674              		.loc 1 489 36 view .LVU647
 1675 01f0 002A     		cmp	r2, #0
 1676 01f2 DFD0     		beq	.L56
 1677 01f4 15E7     		b	.L57
 1678              	.L63:
 490:lvgl/src/draw/lv_draw_arc.c ****             (q->start_quarter == 2 && q->end_quarter == 1)) {
 1679              		.loc 1 490 36 view .LVU648
 1680 01f6 002A     		cmp	r2, #0
 1681 01f8 DCD0     		beq	.L56
 1682 01fa 15E7     		b	.L58
 1683              		.cfi_endproc
 1684              	.LFE54:
 1686              		.section	.text.get_rounded_area,"ax",%progbits
 1687              		.align	1
 1688              		.syntax unified
 1689              		.thumb
 1690              		.thumb_func
 1692              	get_rounded_area:
 1693              	.LVL98:
 1694              	.LFB55:
 502:lvgl/src/draw/lv_draw_arc.c **** 
 503:lvgl/src/draw/lv_draw_arc.c **** static void get_rounded_area(int16_t angle, lv_coord_t radius, uint8_t thickness, lv_area_t * res_a
 504:lvgl/src/draw/lv_draw_arc.c **** {
 1695              		.loc 1 504 1 is_stmt 1 view -0
 1696              		.cfi_startproc
 1697              		@ args = 0, pretend = 0, frame = 0
 1698              		@ frame_needed = 0, uses_anonymous_args = 0
 1699              		.loc 1 504 1 is_stmt 0 view .LVU650
 1700 0000 2DE9F843 		push	{r3, r4, r5, r6, r7, r8, r9, lr}
 1701              	.LCFI16:
 1702              		.cfi_def_cfa_offset 32
 1703              		.cfi_offset 3, -32
 1704              		.cfi_offset 4, -28
 1705              		.cfi_offset 5, -24
 1706              		.cfi_offset 6, -20
 1707              		.cfi_offset 7, -16
 1708              		.cfi_offset 8, -12
 1709              		.cfi_offset 9, -8
 1710              		.cfi_offset 14, -4
 1711 0004 8046     		mov	r8, r0
 1712 0006 1E46     		mov	r6, r3
 505:lvgl/src/draw/lv_draw_arc.c ****     const uint8_t ps = 8;
 1713              		.loc 1 505 5 is_stmt 1 view .LVU651
 1714              	.LVL99:
 506:lvgl/src/draw/lv_draw_arc.c ****     const uint8_t pa = 127;
 1715              		.loc 1 506 5 view .LVU652
 507:lvgl/src/draw/lv_draw_arc.c **** 
 508:lvgl/src/draw/lv_draw_arc.c ****     int32_t thick_half = thickness / 2;
 1716              		.loc 1 508 5 view .LVU653
 1717              		.loc 1 508 36 is_stmt 0 view .LVU654
 1718 0008 5508     		lsrs	r5, r2, #1
 1719              	.LVL100:
 509:lvgl/src/draw/lv_draw_arc.c ****     uint8_t thick_corr = (thickness & 0x01) ? 0 : 1;
 1720              		.loc 1 509 5 is_stmt 1 view .LVU655
 1721              		.loc 1 509 49 is_stmt 0 view .LVU656
 1722 000a 82F00107 		eor	r7, r2, #1
 1723 000e 07F00107 		and	r7, r7, #1
ARM GAS  C:\Users\BLACK_~1\AppData\Local\Temp\ccCMpPOk.s 			page 50


 1724              	.LVL101:
 510:lvgl/src/draw/lv_draw_arc.c **** 
 511:lvgl/src/draw/lv_draw_arc.c ****     int32_t cir_x;
 1725              		.loc 1 511 5 is_stmt 1 view .LVU657
 512:lvgl/src/draw/lv_draw_arc.c ****     int32_t cir_y;
 1726              		.loc 1 512 5 view .LVU658
 513:lvgl/src/draw/lv_draw_arc.c **** 
 514:lvgl/src/draw/lv_draw_arc.c ****     cir_x = ((radius - thick_half) * lv_trigo_sin(90 - angle)) >> (LV_TRIGO_SHIFT - ps);
 1727              		.loc 1 514 5 view .LVU659
 1728              		.loc 1 514 22 is_stmt 0 view .LVU660
 1729 0012 A1EB5209 		sub	r9, r1, r2, lsr #1
 1730              		.loc 1 514 54 view .LVU661
 1731 0016 C0F15A00 		rsb	r0, r0, #90
 1732              	.LVL102:
 1733              		.loc 1 514 38 view .LVU662
 1734 001a 00B2     		sxth	r0, r0
 1735 001c FFF7FEFF 		bl	lv_trigo_sin
 1736              	.LVL103:
 1737              		.loc 1 514 36 view .LVU663
 1738 0020 00FB09F4 		mul	r4, r0, r9
 1739              		.loc 1 514 11 view .LVU664
 1740 0024 E411     		asrs	r4, r4, #7
 1741              	.LVL104:
 515:lvgl/src/draw/lv_draw_arc.c ****     cir_y = ((radius - thick_half) * lv_trigo_sin(angle)) >> (LV_TRIGO_SHIFT - ps);
 1742              		.loc 1 515 5 is_stmt 1 view .LVU665
 1743              		.loc 1 515 38 is_stmt 0 view .LVU666
 1744 0026 4046     		mov	r0, r8
 1745 0028 FFF7FEFF 		bl	lv_trigo_sin
 1746              	.LVL105:
 1747              		.loc 1 515 36 view .LVU667
 1748 002c 00FB09F3 		mul	r3, r0, r9
 1749              		.loc 1 515 11 view .LVU668
 1750 0030 DB11     		asrs	r3, r3, #7
 1751              	.LVL106:
 516:lvgl/src/draw/lv_draw_arc.c **** 
 517:lvgl/src/draw/lv_draw_arc.c ****     /*Actually the center of the pixel need to be calculated so apply 1/2 px offset*/
 518:lvgl/src/draw/lv_draw_arc.c ****     if(cir_x > 0) {
 1752              		.loc 1 518 5 is_stmt 1 view .LVU669
 1753              		.loc 1 518 7 is_stmt 0 view .LVU670
 1754 0032 002C     		cmp	r4, #0
 1755 0034 15DD     		ble	.L67
 519:lvgl/src/draw/lv_draw_arc.c ****         cir_x = (cir_x - pa) >> ps;
 1756              		.loc 1 519 9 is_stmt 1 view .LVU671
 1757              		.loc 1 519 24 is_stmt 0 view .LVU672
 1758 0036 7F3C     		subs	r4, r4, #127
 1759              	.LVL107:
 520:lvgl/src/draw/lv_draw_arc.c ****         res_area->x1 = cir_x - thick_half + thick_corr;
 1760              		.loc 1 520 9 is_stmt 1 view .LVU673
 1761              		.loc 1 520 30 is_stmt 0 view .LVU674
 1762 0038 C4F30F24 		ubfx	r4, r4, #8, #16
 1763              	.LVL108:
 1764              		.loc 1 520 30 view .LVU675
 1765 003c 621B     		subs	r2, r4, r5
 1766              		.loc 1 520 43 view .LVU676
 1767 003e 17FA82F2 		uxtah	r2, r7, r2
 1768              		.loc 1 520 22 view .LVU677
 1769 0042 3280     		strh	r2, [r6]	@ movhi
ARM GAS  C:\Users\BLACK_~1\AppData\Local\Temp\ccCMpPOk.s 			page 51


 521:lvgl/src/draw/lv_draw_arc.c ****         res_area->x2 = cir_x + thick_half;
 1770              		.loc 1 521 9 is_stmt 1 view .LVU678
 1771              		.loc 1 521 30 is_stmt 0 view .LVU679
 1772 0044 2C44     		add	r4, r4, r5
 1773              		.loc 1 521 22 view .LVU680
 1774 0046 B480     		strh	r4, [r6, #4]	@ movhi
 1775              	.L68:
 522:lvgl/src/draw/lv_draw_arc.c ****     }
 523:lvgl/src/draw/lv_draw_arc.c ****     else {
 524:lvgl/src/draw/lv_draw_arc.c ****         cir_x = (cir_x + pa) >> ps;
 525:lvgl/src/draw/lv_draw_arc.c ****         res_area->x1 = cir_x - thick_half;
 526:lvgl/src/draw/lv_draw_arc.c ****         res_area->x2 = cir_x + thick_half - thick_corr;
 527:lvgl/src/draw/lv_draw_arc.c ****     }
 528:lvgl/src/draw/lv_draw_arc.c **** 
 529:lvgl/src/draw/lv_draw_arc.c ****     if(cir_y > 0) {
 1776              		.loc 1 529 5 is_stmt 1 view .LVU681
 1777              		.loc 1 529 7 is_stmt 0 view .LVU682
 1778 0048 002B     		cmp	r3, #0
 1779 004a 14DD     		ble	.L69
 530:lvgl/src/draw/lv_draw_arc.c ****         cir_y = (cir_y - pa) >> ps;
 1780              		.loc 1 530 9 is_stmt 1 view .LVU683
 1781              		.loc 1 530 24 is_stmt 0 view .LVU684
 1782 004c 7F3B     		subs	r3, r3, #127
 1783              	.LVL109:
 531:lvgl/src/draw/lv_draw_arc.c ****         res_area->y1 = cir_y - thick_half + thick_corr;
 1784              		.loc 1 531 9 is_stmt 1 view .LVU685
 1785              		.loc 1 531 30 is_stmt 0 view .LVU686
 1786 004e C3F30F23 		ubfx	r3, r3, #8, #16
 1787              	.LVL110:
 1788              		.loc 1 531 30 view .LVU687
 1789 0052 5A1B     		subs	r2, r3, r5
 1790              		.loc 1 531 43 view .LVU688
 1791 0054 17FA82F7 		uxtah	r7, r7, r2
 1792              	.LVL111:
 1793              		.loc 1 531 22 view .LVU689
 1794 0058 7780     		strh	r7, [r6, #2]	@ movhi
 532:lvgl/src/draw/lv_draw_arc.c ****         res_area->y2 = cir_y + thick_half;
 1795              		.loc 1 532 9 is_stmt 1 view .LVU690
 1796              		.loc 1 532 30 is_stmt 0 view .LVU691
 1797 005a 2B44     		add	r3, r3, r5
 1798              		.loc 1 532 22 view .LVU692
 1799 005c F380     		strh	r3, [r6, #6]	@ movhi
 1800              	.LVL112:
 1801              	.L66:
 533:lvgl/src/draw/lv_draw_arc.c ****     }
 534:lvgl/src/draw/lv_draw_arc.c ****     else {
 535:lvgl/src/draw/lv_draw_arc.c ****         cir_y = (cir_y + pa) >> ps;
 536:lvgl/src/draw/lv_draw_arc.c ****         res_area->y1 = cir_y - thick_half;
 537:lvgl/src/draw/lv_draw_arc.c ****         res_area->y2 = cir_y + thick_half - thick_corr;
 538:lvgl/src/draw/lv_draw_arc.c ****     }
 539:lvgl/src/draw/lv_draw_arc.c **** }
 1802              		.loc 1 539 1 view .LVU693
 1803 005e BDE8F883 		pop	{r3, r4, r5, r6, r7, r8, r9, pc}
 1804              	.LVL113:
 1805              	.L67:
 524:lvgl/src/draw/lv_draw_arc.c ****         res_area->x1 = cir_x - thick_half;
 1806              		.loc 1 524 9 is_stmt 1 view .LVU694
ARM GAS  C:\Users\BLACK_~1\AppData\Local\Temp\ccCMpPOk.s 			page 52


 524:lvgl/src/draw/lv_draw_arc.c ****         res_area->x1 = cir_x - thick_half;
 1807              		.loc 1 524 24 is_stmt 0 view .LVU695
 1808 0062 7F34     		adds	r4, r4, #127
 1809              	.LVL114:
 525:lvgl/src/draw/lv_draw_arc.c ****         res_area->x2 = cir_x + thick_half - thick_corr;
 1810              		.loc 1 525 9 is_stmt 1 view .LVU696
 525:lvgl/src/draw/lv_draw_arc.c ****         res_area->x2 = cir_x + thick_half - thick_corr;
 1811              		.loc 1 525 30 is_stmt 0 view .LVU697
 1812 0064 C4F30F24 		ubfx	r4, r4, #8, #16
 1813              	.LVL115:
 525:lvgl/src/draw/lv_draw_arc.c ****         res_area->x2 = cir_x + thick_half - thick_corr;
 1814              		.loc 1 525 30 view .LVU698
 1815 0068 621B     		subs	r2, r4, r5
 525:lvgl/src/draw/lv_draw_arc.c ****         res_area->x2 = cir_x + thick_half - thick_corr;
 1816              		.loc 1 525 22 view .LVU699
 1817 006a 3280     		strh	r2, [r6]	@ movhi
 526:lvgl/src/draw/lv_draw_arc.c ****     }
 1818              		.loc 1 526 9 is_stmt 1 view .LVU700
 526:lvgl/src/draw/lv_draw_arc.c ****     }
 1819              		.loc 1 526 30 is_stmt 0 view .LVU701
 1820 006c 2C44     		add	r4, r4, r5
 1821 006e A4B2     		uxth	r4, r4
 526:lvgl/src/draw/lv_draw_arc.c ****     }
 1822              		.loc 1 526 43 view .LVU702
 1823 0070 E41B     		subs	r4, r4, r7
 526:lvgl/src/draw/lv_draw_arc.c ****     }
 1824              		.loc 1 526 22 view .LVU703
 1825 0072 B480     		strh	r4, [r6, #4]	@ movhi
 1826 0074 E8E7     		b	.L68
 1827              	.L69:
 535:lvgl/src/draw/lv_draw_arc.c ****         res_area->y1 = cir_y - thick_half;
 1828              		.loc 1 535 9 is_stmt 1 view .LVU704
 535:lvgl/src/draw/lv_draw_arc.c ****         res_area->y1 = cir_y - thick_half;
 1829              		.loc 1 535 24 is_stmt 0 view .LVU705
 1830 0076 7F33     		adds	r3, r3, #127
 1831              	.LVL116:
 536:lvgl/src/draw/lv_draw_arc.c ****         res_area->y2 = cir_y + thick_half - thick_corr;
 1832              		.loc 1 536 9 is_stmt 1 view .LVU706
 536:lvgl/src/draw/lv_draw_arc.c ****         res_area->y2 = cir_y + thick_half - thick_corr;
 1833              		.loc 1 536 30 is_stmt 0 view .LVU707
 1834 0078 C3F30F23 		ubfx	r3, r3, #8, #16
 1835              	.LVL117:
 536:lvgl/src/draw/lv_draw_arc.c ****         res_area->y2 = cir_y + thick_half - thick_corr;
 1836              		.loc 1 536 30 view .LVU708
 1837 007c 5A1B     		subs	r2, r3, r5
 536:lvgl/src/draw/lv_draw_arc.c ****         res_area->y2 = cir_y + thick_half - thick_corr;
 1838              		.loc 1 536 22 view .LVU709
 1839 007e 7280     		strh	r2, [r6, #2]	@ movhi
 537:lvgl/src/draw/lv_draw_arc.c ****     }
 1840              		.loc 1 537 9 is_stmt 1 view .LVU710
 537:lvgl/src/draw/lv_draw_arc.c ****     }
 1841              		.loc 1 537 30 is_stmt 0 view .LVU711
 1842 0080 1D44     		add	r5, r5, r3
 1843              	.LVL118:
 537:lvgl/src/draw/lv_draw_arc.c ****     }
 1844              		.loc 1 537 30 view .LVU712
 1845 0082 ADB2     		uxth	r5, r5
ARM GAS  C:\Users\BLACK_~1\AppData\Local\Temp\ccCMpPOk.s 			page 53


 537:lvgl/src/draw/lv_draw_arc.c ****     }
 1846              		.loc 1 537 43 view .LVU713
 1847 0084 EF1B     		subs	r7, r5, r7
 1848              	.LVL119:
 537:lvgl/src/draw/lv_draw_arc.c ****     }
 1849              		.loc 1 537 22 view .LVU714
 1850 0086 F780     		strh	r7, [r6, #6]	@ movhi
 1851              		.loc 1 539 1 view .LVU715
 1852 0088 E9E7     		b	.L66
 1853              		.cfi_endproc
 1854              	.LFE55:
 1856              		.section	.text.lv_draw_arc_dsc_init,"ax",%progbits
 1857              		.align	1
 1858              		.global	lv_draw_arc_dsc_init
 1859              		.syntax unified
 1860              		.thumb
 1861              		.thumb_func
 1863              	lv_draw_arc_dsc_init:
 1864              	.LVL120:
 1865              	.LFB48:
  63:lvgl/src/draw/lv_draw_arc.c ****     lv_memset_00(dsc, sizeof(lv_draw_arc_dsc_t));
 1866              		.loc 1 63 1 is_stmt 1 view -0
 1867              		.cfi_startproc
 1868              		@ args = 0, pretend = 0, frame = 0
 1869              		@ frame_needed = 0, uses_anonymous_args = 0
  63:lvgl/src/draw/lv_draw_arc.c ****     lv_memset_00(dsc, sizeof(lv_draw_arc_dsc_t));
 1870              		.loc 1 63 1 is_stmt 0 view .LVU717
 1871 0000 10B5     		push	{r4, lr}
 1872              	.LCFI17:
 1873              		.cfi_def_cfa_offset 8
 1874              		.cfi_offset 4, -8
 1875              		.cfi_offset 14, -4
 1876 0002 0446     		mov	r4, r0
  64:lvgl/src/draw/lv_draw_arc.c ****     dsc->width = 1;
 1877              		.loc 1 64 5 is_stmt 1 view .LVU718
 1878 0004 0C21     		movs	r1, #12
 1879 0006 FFF7FEFF 		bl	lv_memset_00
 1880              	.LVL121:
  65:lvgl/src/draw/lv_draw_arc.c ****     dsc->opa = LV_OPA_COVER;
 1881              		.loc 1 65 5 view .LVU719
  65:lvgl/src/draw/lv_draw_arc.c ****     dsc->opa = LV_OPA_COVER;
 1882              		.loc 1 65 16 is_stmt 0 view .LVU720
 1883 000a 0123     		movs	r3, #1
 1884 000c 6380     		strh	r3, [r4, #2]	@ movhi
  66:lvgl/src/draw/lv_draw_arc.c ****     dsc->color = lv_color_black();
 1885              		.loc 1 66 5 is_stmt 1 view .LVU721
  66:lvgl/src/draw/lv_draw_arc.c ****     dsc->color = lv_color_black();
 1886              		.loc 1 66 14 is_stmt 0 view .LVU722
 1887 000e FF23     		movs	r3, #255
 1888 0010 2372     		strb	r3, [r4, #8]
  67:lvgl/src/draw/lv_draw_arc.c **** }
 1889              		.loc 1 67 5 is_stmt 1 view .LVU723
 1890              	.LBB30:
 1891              	.LBI30:
 1892              		.file 2 "lvgl/src/draw/../misc/lv_color.h"
   1:lvgl/src/draw/../misc/lv_color.h **** /**
   2:lvgl/src/draw/../misc/lv_color.h ****  * @file lv_color.h
ARM GAS  C:\Users\BLACK_~1\AppData\Local\Temp\ccCMpPOk.s 			page 54


   3:lvgl/src/draw/../misc/lv_color.h ****  *
   4:lvgl/src/draw/../misc/lv_color.h ****  */
   5:lvgl/src/draw/../misc/lv_color.h **** 
   6:lvgl/src/draw/../misc/lv_color.h **** #ifndef LV_COLOR_H
   7:lvgl/src/draw/../misc/lv_color.h **** #define LV_COLOR_H
   8:lvgl/src/draw/../misc/lv_color.h **** 
   9:lvgl/src/draw/../misc/lv_color.h **** #ifdef __cplusplus
  10:lvgl/src/draw/../misc/lv_color.h **** extern "C" {
  11:lvgl/src/draw/../misc/lv_color.h **** #endif
  12:lvgl/src/draw/../misc/lv_color.h **** 
  13:lvgl/src/draw/../misc/lv_color.h **** /*********************
  14:lvgl/src/draw/../misc/lv_color.h ****  *      INCLUDES
  15:lvgl/src/draw/../misc/lv_color.h ****  *********************/
  16:lvgl/src/draw/../misc/lv_color.h **** #include "../lv_conf_internal.h"
  17:lvgl/src/draw/../misc/lv_color.h **** #include "lv_math.h"
  18:lvgl/src/draw/../misc/lv_color.h **** #include "lv_types.h"
  19:lvgl/src/draw/../misc/lv_color.h **** 
  20:lvgl/src/draw/../misc/lv_color.h **** /*Error checking*/
  21:lvgl/src/draw/../misc/lv_color.h **** #if LV_COLOR_DEPTH == 24
  22:lvgl/src/draw/../misc/lv_color.h **** #error "LV_COLOR_DEPTH 24 is deprecated. Use LV_COLOR_DEPTH 32 instead (lv_conf.h)"
  23:lvgl/src/draw/../misc/lv_color.h **** #endif
  24:lvgl/src/draw/../misc/lv_color.h **** 
  25:lvgl/src/draw/../misc/lv_color.h **** #if LV_COLOR_DEPTH != 32 && LV_COLOR_SCREEN_TRANSP != 0
  26:lvgl/src/draw/../misc/lv_color.h **** #error "LV_COLOR_SCREEN_TRANSP requires LV_COLOR_DEPTH == 32. Set it in lv_conf.h"
  27:lvgl/src/draw/../misc/lv_color.h **** #endif
  28:lvgl/src/draw/../misc/lv_color.h **** 
  29:lvgl/src/draw/../misc/lv_color.h **** #if LV_COLOR_DEPTH != 16 && LV_COLOR_16_SWAP != 0
  30:lvgl/src/draw/../misc/lv_color.h **** #error "LV_COLOR_16_SWAP requires LV_COLOR_DEPTH == 16. Set it in lv_conf.h"
  31:lvgl/src/draw/../misc/lv_color.h **** #endif
  32:lvgl/src/draw/../misc/lv_color.h **** 
  33:lvgl/src/draw/../misc/lv_color.h **** #include <stdint.h>
  34:lvgl/src/draw/../misc/lv_color.h **** 
  35:lvgl/src/draw/../misc/lv_color.h **** /*********************
  36:lvgl/src/draw/../misc/lv_color.h ****  *      DEFINES
  37:lvgl/src/draw/../misc/lv_color.h ****  *********************/
  38:lvgl/src/draw/../misc/lv_color.h **** 
  39:lvgl/src/draw/../misc/lv_color.h **** /**
  40:lvgl/src/draw/../misc/lv_color.h ****  * Opacity percentages.
  41:lvgl/src/draw/../misc/lv_color.h ****  */
  42:lvgl/src/draw/../misc/lv_color.h **** enum {
  43:lvgl/src/draw/../misc/lv_color.h ****     LV_OPA_TRANSP = 0,
  44:lvgl/src/draw/../misc/lv_color.h ****     LV_OPA_0      = 0,
  45:lvgl/src/draw/../misc/lv_color.h ****     LV_OPA_10     = 25,
  46:lvgl/src/draw/../misc/lv_color.h ****     LV_OPA_20     = 51,
  47:lvgl/src/draw/../misc/lv_color.h ****     LV_OPA_30     = 76,
  48:lvgl/src/draw/../misc/lv_color.h ****     LV_OPA_40     = 102,
  49:lvgl/src/draw/../misc/lv_color.h ****     LV_OPA_50     = 127,
  50:lvgl/src/draw/../misc/lv_color.h ****     LV_OPA_60     = 153,
  51:lvgl/src/draw/../misc/lv_color.h ****     LV_OPA_70     = 178,
  52:lvgl/src/draw/../misc/lv_color.h ****     LV_OPA_80     = 204,
  53:lvgl/src/draw/../misc/lv_color.h ****     LV_OPA_90     = 229,
  54:lvgl/src/draw/../misc/lv_color.h ****     LV_OPA_100    = 255,
  55:lvgl/src/draw/../misc/lv_color.h ****     LV_OPA_COVER  = 255,
  56:lvgl/src/draw/../misc/lv_color.h **** };
  57:lvgl/src/draw/../misc/lv_color.h **** 
  58:lvgl/src/draw/../misc/lv_color.h **** #define LV_OPA_MIN 2    /*Opacities below this will be transparent*/
  59:lvgl/src/draw/../misc/lv_color.h **** #define LV_OPA_MAX 253  /*Opacities above this will fully cover*/
ARM GAS  C:\Users\BLACK_~1\AppData\Local\Temp\ccCMpPOk.s 			page 55


  60:lvgl/src/draw/../misc/lv_color.h **** 
  61:lvgl/src/draw/../misc/lv_color.h **** #if LV_COLOR_DEPTH == 1
  62:lvgl/src/draw/../misc/lv_color.h **** #define LV_COLOR_SIZE 8
  63:lvgl/src/draw/../misc/lv_color.h **** #elif LV_COLOR_DEPTH == 8
  64:lvgl/src/draw/../misc/lv_color.h **** #define LV_COLOR_SIZE 8
  65:lvgl/src/draw/../misc/lv_color.h **** #elif LV_COLOR_DEPTH == 16
  66:lvgl/src/draw/../misc/lv_color.h **** #define LV_COLOR_SIZE 16
  67:lvgl/src/draw/../misc/lv_color.h **** #elif LV_COLOR_DEPTH == 32
  68:lvgl/src/draw/../misc/lv_color.h **** #define LV_COLOR_SIZE 32
  69:lvgl/src/draw/../misc/lv_color.h **** #else
  70:lvgl/src/draw/../misc/lv_color.h **** #error "Invalid LV_COLOR_DEPTH in lv_conf.h! Set it to 1, 8, 16 or 32!"
  71:lvgl/src/draw/../misc/lv_color.h **** #endif
  72:lvgl/src/draw/../misc/lv_color.h **** 
  73:lvgl/src/draw/../misc/lv_color.h **** /**
  74:lvgl/src/draw/../misc/lv_color.h ****  * Adjust color mix functions rounding.
  75:lvgl/src/draw/../misc/lv_color.h ****  * GPUs might calculate color mix (blending) differently.
  76:lvgl/src/draw/../misc/lv_color.h ****  * Should be in range of 0..254
  77:lvgl/src/draw/../misc/lv_color.h ****  * 0: no adjustment, get the integer part of the result (round down)
  78:lvgl/src/draw/../misc/lv_color.h ****  * 64: round up from x.75
  79:lvgl/src/draw/../misc/lv_color.h ****  * 128: round up from half
  80:lvgl/src/draw/../misc/lv_color.h ****  * 192: round up from x.25
  81:lvgl/src/draw/../misc/lv_color.h ****  * 254: round up*/
  82:lvgl/src/draw/../misc/lv_color.h **** #ifndef LV_COLOR_MIX_ROUND_OFS
  83:lvgl/src/draw/../misc/lv_color.h **** #if LV_COLOR_DEPTH == 32
  84:lvgl/src/draw/../misc/lv_color.h **** #define LV_COLOR_MIX_ROUND_OFS 0
  85:lvgl/src/draw/../misc/lv_color.h **** #else
  86:lvgl/src/draw/../misc/lv_color.h **** #define LV_COLOR_MIX_ROUND_OFS 128
  87:lvgl/src/draw/../misc/lv_color.h **** #endif
  88:lvgl/src/draw/../misc/lv_color.h **** #endif
  89:lvgl/src/draw/../misc/lv_color.h **** 
  90:lvgl/src/draw/../misc/lv_color.h **** #if defined(__cplusplus) && !defined(_LV_COLOR_HAS_MODERN_CPP)
  91:lvgl/src/draw/../misc/lv_color.h **** /**
  92:lvgl/src/draw/../misc/lv_color.h **** * MSVC compiler's definition of the __cplusplus indicating 199711L regardless to C++ standard versi
  93:lvgl/src/draw/../misc/lv_color.h **** * see https://devblogs.microsoft.com/cppblog/msvc-now-correctly-reports-cplusplus
  94:lvgl/src/draw/../misc/lv_color.h **** * so we use _MSC_VER macro instead of __cplusplus
  95:lvgl/src/draw/../misc/lv_color.h **** */
  96:lvgl/src/draw/../misc/lv_color.h **** #ifdef _MSC_VER
  97:lvgl/src/draw/../misc/lv_color.h **** #if _MSC_VER >= 1900 /*Visual Studio 2015*/
  98:lvgl/src/draw/../misc/lv_color.h **** #define _LV_COLOR_HAS_MODERN_CPP 1
  99:lvgl/src/draw/../misc/lv_color.h **** #endif
 100:lvgl/src/draw/../misc/lv_color.h **** #else
 101:lvgl/src/draw/../misc/lv_color.h **** #if __cplusplus >= 201103L
 102:lvgl/src/draw/../misc/lv_color.h **** #define _LV_COLOR_HAS_MODERN_CPP 1
 103:lvgl/src/draw/../misc/lv_color.h **** #endif
 104:lvgl/src/draw/../misc/lv_color.h **** #endif
 105:lvgl/src/draw/../misc/lv_color.h **** #endif /*__cplusplus*/
 106:lvgl/src/draw/../misc/lv_color.h **** 
 107:lvgl/src/draw/../misc/lv_color.h **** #ifndef _LV_COLOR_HAS_MODERN_CPP
 108:lvgl/src/draw/../misc/lv_color.h **** #define _LV_COLOR_HAS_MODERN_CPP 0
 109:lvgl/src/draw/../misc/lv_color.h **** #endif
 110:lvgl/src/draw/../misc/lv_color.h **** 
 111:lvgl/src/draw/../misc/lv_color.h **** #if _LV_COLOR_HAS_MODERN_CPP
 112:lvgl/src/draw/../misc/lv_color.h **** /*Fix msvc compiler error C4576 inside C++ code*/
 113:lvgl/src/draw/../misc/lv_color.h **** #define _LV_COLOR_MAKE_TYPE_HELPER lv_color_t
 114:lvgl/src/draw/../misc/lv_color.h **** #else
 115:lvgl/src/draw/../misc/lv_color.h **** #define _LV_COLOR_MAKE_TYPE_HELPER (lv_color_t)
 116:lvgl/src/draw/../misc/lv_color.h **** #endif
ARM GAS  C:\Users\BLACK_~1\AppData\Local\Temp\ccCMpPOk.s 			page 56


 117:lvgl/src/draw/../misc/lv_color.h **** 
 118:lvgl/src/draw/../misc/lv_color.h **** /*---------------------------------------
 119:lvgl/src/draw/../misc/lv_color.h ****  * Macros for all existing color depths
 120:lvgl/src/draw/../misc/lv_color.h ****  * to set/get values of the color channels
 121:lvgl/src/draw/../misc/lv_color.h ****  *------------------------------------------*/
 122:lvgl/src/draw/../misc/lv_color.h **** # define LV_COLOR_SET_R1(c, v) (c).ch.red = (uint8_t)((v) & 0x1)
 123:lvgl/src/draw/../misc/lv_color.h **** # define LV_COLOR_SET_G1(c, v) (c).ch.green = (uint8_t)((v) & 0x1)
 124:lvgl/src/draw/../misc/lv_color.h **** # define LV_COLOR_SET_B1(c, v) (c).ch.blue = (uint8_t)((v) & 0x1)
 125:lvgl/src/draw/../misc/lv_color.h **** # define LV_COLOR_SET_A1(c, v) do {} while(0)
 126:lvgl/src/draw/../misc/lv_color.h **** 
 127:lvgl/src/draw/../misc/lv_color.h **** # define LV_COLOR_GET_R1(c) (c).ch.red
 128:lvgl/src/draw/../misc/lv_color.h **** # define LV_COLOR_GET_G1(c) (c).ch.green
 129:lvgl/src/draw/../misc/lv_color.h **** # define LV_COLOR_GET_B1(c) (c).ch.blue
 130:lvgl/src/draw/../misc/lv_color.h **** # define LV_COLOR_GET_A1(c) 0xFF
 131:lvgl/src/draw/../misc/lv_color.h **** 
 132:lvgl/src/draw/../misc/lv_color.h **** # define _LV_COLOR_ZERO_INITIALIZER1 {0x00}
 133:lvgl/src/draw/../misc/lv_color.h **** # define LV_COLOR_MAKE1(r8, g8, b8)  {(uint8_t)((b8 >> 7) | (g8 >> 7) | (r8 >> 7))}
 134:lvgl/src/draw/../misc/lv_color.h **** 
 135:lvgl/src/draw/../misc/lv_color.h **** # define LV_COLOR_SET_R8(c, v) (c).ch.red = (uint8_t)((v) & 0x7U)
 136:lvgl/src/draw/../misc/lv_color.h **** # define LV_COLOR_SET_G8(c, v) (c).ch.green = (uint8_t)((v) & 0x7U)
 137:lvgl/src/draw/../misc/lv_color.h **** # define LV_COLOR_SET_B8(c, v) (c).ch.blue = (uint8_t)((v) & 0x3U)
 138:lvgl/src/draw/../misc/lv_color.h **** # define LV_COLOR_SET_A8(c, v) do {} while(0)
 139:lvgl/src/draw/../misc/lv_color.h **** 
 140:lvgl/src/draw/../misc/lv_color.h **** # define LV_COLOR_GET_R8(c) (c).ch.red
 141:lvgl/src/draw/../misc/lv_color.h **** # define LV_COLOR_GET_G8(c) (c).ch.green
 142:lvgl/src/draw/../misc/lv_color.h **** # define LV_COLOR_GET_B8(c) (c).ch.blue
 143:lvgl/src/draw/../misc/lv_color.h **** # define LV_COLOR_GET_A8(c) 0xFF
 144:lvgl/src/draw/../misc/lv_color.h **** 
 145:lvgl/src/draw/../misc/lv_color.h **** # define _LV_COLOR_ZERO_INITIALIZER8 {{0x00, 0x00, 0x00}}
 146:lvgl/src/draw/../misc/lv_color.h **** # define LV_COLOR_MAKE8(r8, g8, b8) {{(uint8_t)((b8 >> 6) & 0x3U), (uint8_t)((g8 >> 5) & 0x7U), (ui
 147:lvgl/src/draw/../misc/lv_color.h **** 
 148:lvgl/src/draw/../misc/lv_color.h **** # define LV_COLOR_SET_R16(c, v) (c).ch.red = (uint8_t)((v) & 0x1FU)
 149:lvgl/src/draw/../misc/lv_color.h **** #if LV_COLOR_16_SWAP == 0
 150:lvgl/src/draw/../misc/lv_color.h **** # define LV_COLOR_SET_G16(c, v) (c).ch.green = (uint8_t)((v) & 0x3FU)
 151:lvgl/src/draw/../misc/lv_color.h **** #else
 152:lvgl/src/draw/../misc/lv_color.h **** # define LV_COLOR_SET_G16(c, v) {(c).ch.green_h = (uint8_t)(((v) >> 3) & 0x7); (c).ch.green_l = (ui
 153:lvgl/src/draw/../misc/lv_color.h **** #endif
 154:lvgl/src/draw/../misc/lv_color.h **** # define LV_COLOR_SET_B16(c, v) (c).ch.blue = (uint8_t)((v) & 0x1FU)
 155:lvgl/src/draw/../misc/lv_color.h **** # define LV_COLOR_SET_A16(c, v) do {} while(0)
 156:lvgl/src/draw/../misc/lv_color.h **** 
 157:lvgl/src/draw/../misc/lv_color.h **** # define LV_COLOR_GET_R16(c) (c).ch.red
 158:lvgl/src/draw/../misc/lv_color.h **** #if LV_COLOR_16_SWAP == 0
 159:lvgl/src/draw/../misc/lv_color.h **** # define LV_COLOR_GET_G16(c) (c).ch.green
 160:lvgl/src/draw/../misc/lv_color.h **** #else
 161:lvgl/src/draw/../misc/lv_color.h **** # define LV_COLOR_GET_G16(c) (((c).ch.green_h << 3) + (c).ch.green_l)
 162:lvgl/src/draw/../misc/lv_color.h **** #endif
 163:lvgl/src/draw/../misc/lv_color.h **** # define LV_COLOR_GET_B16(c) (c).ch.blue
 164:lvgl/src/draw/../misc/lv_color.h **** # define LV_COLOR_GET_A16(c) 0xFF
 165:lvgl/src/draw/../misc/lv_color.h **** 
 166:lvgl/src/draw/../misc/lv_color.h **** #if LV_COLOR_16_SWAP == 0
 167:lvgl/src/draw/../misc/lv_color.h **** # define _LV_COLOR_ZERO_INITIALIZER16  {{0x00, 0x00, 0x00}}
 168:lvgl/src/draw/../misc/lv_color.h **** # define LV_COLOR_MAKE16(r8, g8, b8) {{(uint8_t)((b8 >> 3) & 0x1FU), (uint8_t)((g8 >> 2) & 0x3FU), 
 169:lvgl/src/draw/../misc/lv_color.h **** #else
 170:lvgl/src/draw/../misc/lv_color.h **** # define _LV_COLOR_ZERO_INITIALIZER16 {{0x00, 0x00, 0x00, 0x00}}
 171:lvgl/src/draw/../misc/lv_color.h **** # define LV_COLOR_MAKE16(r8, g8, b8) {{(uint8_t)((g8 >> 5) & 0x7U), (uint8_t)((r8 >> 3) & 0x1FU), (
 172:lvgl/src/draw/../misc/lv_color.h **** #endif
 173:lvgl/src/draw/../misc/lv_color.h **** 
ARM GAS  C:\Users\BLACK_~1\AppData\Local\Temp\ccCMpPOk.s 			page 57


 174:lvgl/src/draw/../misc/lv_color.h **** # define LV_COLOR_SET_R32(c, v) (c).ch.red = (uint8_t)((v) & 0xFF)
 175:lvgl/src/draw/../misc/lv_color.h **** # define LV_COLOR_SET_G32(c, v) (c).ch.green = (uint8_t)((v) & 0xFF)
 176:lvgl/src/draw/../misc/lv_color.h **** # define LV_COLOR_SET_B32(c, v) (c).ch.blue = (uint8_t)((v) & 0xFF)
 177:lvgl/src/draw/../misc/lv_color.h **** # define LV_COLOR_SET_A32(c, v) (c).ch.alpha = (uint8_t)((v) & 0xFF)
 178:lvgl/src/draw/../misc/lv_color.h **** 
 179:lvgl/src/draw/../misc/lv_color.h **** # define LV_COLOR_GET_R32(c) (c).ch.red
 180:lvgl/src/draw/../misc/lv_color.h **** # define LV_COLOR_GET_G32(c) (c).ch.green
 181:lvgl/src/draw/../misc/lv_color.h **** # define LV_COLOR_GET_B32(c) (c).ch.blue
 182:lvgl/src/draw/../misc/lv_color.h **** # define LV_COLOR_GET_A32(c) (c).ch.alpha
 183:lvgl/src/draw/../misc/lv_color.h **** 
 184:lvgl/src/draw/../misc/lv_color.h **** # define _LV_COLOR_ZERO_INITIALIZER32  {{0x00, 0x00, 0x00, 0x00}}
 185:lvgl/src/draw/../misc/lv_color.h **** # define LV_COLOR_MAKE32(r8, g8, b8) {{b8, g8, r8, 0xff}} /*Fix 0xff alpha*/
 186:lvgl/src/draw/../misc/lv_color.h **** 
 187:lvgl/src/draw/../misc/lv_color.h **** /*---------------------------------------
 188:lvgl/src/draw/../misc/lv_color.h ****  * Macros for the current color depth
 189:lvgl/src/draw/../misc/lv_color.h ****  * to set/get values of the color channels
 190:lvgl/src/draw/../misc/lv_color.h ****  *------------------------------------------*/
 191:lvgl/src/draw/../misc/lv_color.h **** #define LV_COLOR_SET_R(c, v) LV_CONCAT(LV_COLOR_SET_R, LV_COLOR_DEPTH)(c, v)
 192:lvgl/src/draw/../misc/lv_color.h **** #define LV_COLOR_SET_G(c, v) LV_CONCAT(LV_COLOR_SET_G, LV_COLOR_DEPTH)(c, v)
 193:lvgl/src/draw/../misc/lv_color.h **** #define LV_COLOR_SET_B(c, v) LV_CONCAT(LV_COLOR_SET_B, LV_COLOR_DEPTH)(c, v)
 194:lvgl/src/draw/../misc/lv_color.h **** #define LV_COLOR_SET_A(c, v) LV_CONCAT(LV_COLOR_SET_A, LV_COLOR_DEPTH)(c, v)
 195:lvgl/src/draw/../misc/lv_color.h **** 
 196:lvgl/src/draw/../misc/lv_color.h **** #define LV_COLOR_GET_R(c) LV_CONCAT(LV_COLOR_GET_R, LV_COLOR_DEPTH)(c)
 197:lvgl/src/draw/../misc/lv_color.h **** #define LV_COLOR_GET_G(c) LV_CONCAT(LV_COLOR_GET_G, LV_COLOR_DEPTH)(c)
 198:lvgl/src/draw/../misc/lv_color.h **** #define LV_COLOR_GET_B(c) LV_CONCAT(LV_COLOR_GET_B, LV_COLOR_DEPTH)(c)
 199:lvgl/src/draw/../misc/lv_color.h **** #define LV_COLOR_GET_A(c) LV_CONCAT(LV_COLOR_GET_A, LV_COLOR_DEPTH)(c)
 200:lvgl/src/draw/../misc/lv_color.h **** 
 201:lvgl/src/draw/../misc/lv_color.h **** #define _LV_COLOR_ZERO_INITIALIZER LV_CONCAT(_LV_COLOR_ZERO_INITIALIZER, LV_COLOR_DEPTH)
 202:lvgl/src/draw/../misc/lv_color.h **** #define LV_COLOR_MAKE(r8, g8, b8) LV_CONCAT(LV_COLOR_MAKE, LV_COLOR_DEPTH)(r8, g8, b8)
 203:lvgl/src/draw/../misc/lv_color.h **** 
 204:lvgl/src/draw/../misc/lv_color.h **** #define LV_UDIV255(x) ((uint32_t)((uint32_t) (x) * 0x8081) >> 0x17)
 205:lvgl/src/draw/../misc/lv_color.h **** 
 206:lvgl/src/draw/../misc/lv_color.h **** /**********************
 207:lvgl/src/draw/../misc/lv_color.h ****  *      TYPEDEFS
 208:lvgl/src/draw/../misc/lv_color.h ****  **********************/
 209:lvgl/src/draw/../misc/lv_color.h **** 
 210:lvgl/src/draw/../misc/lv_color.h **** typedef union {
 211:lvgl/src/draw/../misc/lv_color.h ****     uint8_t full; /*must be declared first to set all bits of byte via initializer list*/
 212:lvgl/src/draw/../misc/lv_color.h ****     union {
 213:lvgl/src/draw/../misc/lv_color.h ****         uint8_t blue : 1;
 214:lvgl/src/draw/../misc/lv_color.h ****         uint8_t green : 1;
 215:lvgl/src/draw/../misc/lv_color.h ****         uint8_t red : 1;
 216:lvgl/src/draw/../misc/lv_color.h ****     } ch;
 217:lvgl/src/draw/../misc/lv_color.h **** } lv_color1_t;
 218:lvgl/src/draw/../misc/lv_color.h **** 
 219:lvgl/src/draw/../misc/lv_color.h **** typedef union {
 220:lvgl/src/draw/../misc/lv_color.h ****     struct {
 221:lvgl/src/draw/../misc/lv_color.h ****         uint8_t blue : 2;
 222:lvgl/src/draw/../misc/lv_color.h ****         uint8_t green : 3;
 223:lvgl/src/draw/../misc/lv_color.h ****         uint8_t red : 3;
 224:lvgl/src/draw/../misc/lv_color.h ****     } ch;
 225:lvgl/src/draw/../misc/lv_color.h ****     uint8_t full;
 226:lvgl/src/draw/../misc/lv_color.h **** } lv_color8_t;
 227:lvgl/src/draw/../misc/lv_color.h **** 
 228:lvgl/src/draw/../misc/lv_color.h **** typedef union {
 229:lvgl/src/draw/../misc/lv_color.h ****     struct {
 230:lvgl/src/draw/../misc/lv_color.h **** #if LV_COLOR_16_SWAP == 0
ARM GAS  C:\Users\BLACK_~1\AppData\Local\Temp\ccCMpPOk.s 			page 58


 231:lvgl/src/draw/../misc/lv_color.h ****         uint16_t blue : 5;
 232:lvgl/src/draw/../misc/lv_color.h ****         uint16_t green : 6;
 233:lvgl/src/draw/../misc/lv_color.h ****         uint16_t red : 5;
 234:lvgl/src/draw/../misc/lv_color.h **** #else
 235:lvgl/src/draw/../misc/lv_color.h ****         uint16_t green_h : 3;
 236:lvgl/src/draw/../misc/lv_color.h ****         uint16_t red : 5;
 237:lvgl/src/draw/../misc/lv_color.h ****         uint16_t blue : 5;
 238:lvgl/src/draw/../misc/lv_color.h ****         uint16_t green_l : 3;
 239:lvgl/src/draw/../misc/lv_color.h **** #endif
 240:lvgl/src/draw/../misc/lv_color.h ****     } ch;
 241:lvgl/src/draw/../misc/lv_color.h ****     uint16_t full;
 242:lvgl/src/draw/../misc/lv_color.h **** } lv_color16_t;
 243:lvgl/src/draw/../misc/lv_color.h **** 
 244:lvgl/src/draw/../misc/lv_color.h **** typedef union {
 245:lvgl/src/draw/../misc/lv_color.h ****     struct {
 246:lvgl/src/draw/../misc/lv_color.h ****         uint8_t blue;
 247:lvgl/src/draw/../misc/lv_color.h ****         uint8_t green;
 248:lvgl/src/draw/../misc/lv_color.h ****         uint8_t red;
 249:lvgl/src/draw/../misc/lv_color.h ****         uint8_t alpha;
 250:lvgl/src/draw/../misc/lv_color.h ****     } ch;
 251:lvgl/src/draw/../misc/lv_color.h ****     uint32_t full;
 252:lvgl/src/draw/../misc/lv_color.h **** } lv_color32_t;
 253:lvgl/src/draw/../misc/lv_color.h **** 
 254:lvgl/src/draw/../misc/lv_color.h **** typedef LV_CONCAT3(uint, LV_COLOR_SIZE, _t) lv_color_int_t;
 255:lvgl/src/draw/../misc/lv_color.h **** typedef LV_CONCAT3(lv_color, LV_COLOR_DEPTH, _t) lv_color_t;
 256:lvgl/src/draw/../misc/lv_color.h **** 
 257:lvgl/src/draw/../misc/lv_color.h **** typedef struct {
 258:lvgl/src/draw/../misc/lv_color.h ****     uint16_t h;
 259:lvgl/src/draw/../misc/lv_color.h ****     uint8_t s;
 260:lvgl/src/draw/../misc/lv_color.h ****     uint8_t v;
 261:lvgl/src/draw/../misc/lv_color.h **** } lv_color_hsv_t;
 262:lvgl/src/draw/../misc/lv_color.h **** 
 263:lvgl/src/draw/../misc/lv_color.h **** //! @cond Doxygen_Suppress
 264:lvgl/src/draw/../misc/lv_color.h **** /*No idea where the guard is required but else throws warnings in the docs*/
 265:lvgl/src/draw/../misc/lv_color.h **** typedef uint8_t lv_opa_t;
 266:lvgl/src/draw/../misc/lv_color.h **** //! @endcond
 267:lvgl/src/draw/../misc/lv_color.h **** 
 268:lvgl/src/draw/../misc/lv_color.h **** struct _lv_color_filter_dsc_t;
 269:lvgl/src/draw/../misc/lv_color.h **** 
 270:lvgl/src/draw/../misc/lv_color.h **** typedef lv_color_t (*lv_color_filter_cb_t)(const struct _lv_color_filter_dsc_t *, lv_color_t, lv_op
 271:lvgl/src/draw/../misc/lv_color.h **** 
 272:lvgl/src/draw/../misc/lv_color.h **** typedef struct _lv_color_filter_dsc_t {
 273:lvgl/src/draw/../misc/lv_color.h ****     lv_color_filter_cb_t filter_cb;
 274:lvgl/src/draw/../misc/lv_color.h ****     void * user_data;
 275:lvgl/src/draw/../misc/lv_color.h **** }lv_color_filter_dsc_t;
 276:lvgl/src/draw/../misc/lv_color.h **** 
 277:lvgl/src/draw/../misc/lv_color.h **** 
 278:lvgl/src/draw/../misc/lv_color.h **** typedef enum {
 279:lvgl/src/draw/../misc/lv_color.h ****     LV_PALETTE_RED,
 280:lvgl/src/draw/../misc/lv_color.h ****     LV_PALETTE_PINK,
 281:lvgl/src/draw/../misc/lv_color.h ****     LV_PALETTE_PURPLE,
 282:lvgl/src/draw/../misc/lv_color.h ****     LV_PALETTE_DEEP_PURPLE,
 283:lvgl/src/draw/../misc/lv_color.h ****     LV_PALETTE_INDIGO,
 284:lvgl/src/draw/../misc/lv_color.h ****     LV_PALETTE_BLUE,
 285:lvgl/src/draw/../misc/lv_color.h ****     LV_PALETTE_LIGHT_BLUE,
 286:lvgl/src/draw/../misc/lv_color.h ****     LV_PALETTE_CYAN,
 287:lvgl/src/draw/../misc/lv_color.h ****     LV_PALETTE_TEAL,
ARM GAS  C:\Users\BLACK_~1\AppData\Local\Temp\ccCMpPOk.s 			page 59


 288:lvgl/src/draw/../misc/lv_color.h ****     LV_PALETTE_GREEN,
 289:lvgl/src/draw/../misc/lv_color.h ****     LV_PALETTE_LIGHT_GREEN,
 290:lvgl/src/draw/../misc/lv_color.h ****     LV_PALETTE_LIME,
 291:lvgl/src/draw/../misc/lv_color.h ****     LV_PALETTE_YELLOW,
 292:lvgl/src/draw/../misc/lv_color.h ****     LV_PALETTE_AMBER,
 293:lvgl/src/draw/../misc/lv_color.h ****     LV_PALETTE_ORANGE,
 294:lvgl/src/draw/../misc/lv_color.h ****     LV_PALETTE_DEEP_ORANGE,
 295:lvgl/src/draw/../misc/lv_color.h ****     LV_PALETTE_BROWN,
 296:lvgl/src/draw/../misc/lv_color.h ****     LV_PALETTE_BLUE_GREY,
 297:lvgl/src/draw/../misc/lv_color.h ****     LV_PALETTE_GREY,
 298:lvgl/src/draw/../misc/lv_color.h ****     _LV_PALETTE_LAST,
 299:lvgl/src/draw/../misc/lv_color.h ****     LV_PALETTE_NONE = 0xff,
 300:lvgl/src/draw/../misc/lv_color.h **** }lv_palette_t;
 301:lvgl/src/draw/../misc/lv_color.h **** 
 302:lvgl/src/draw/../misc/lv_color.h **** /**********************
 303:lvgl/src/draw/../misc/lv_color.h ****  * GLOBAL PROTOTYPES
 304:lvgl/src/draw/../misc/lv_color.h ****  **********************/
 305:lvgl/src/draw/../misc/lv_color.h **** 
 306:lvgl/src/draw/../misc/lv_color.h **** /*In color conversations:
 307:lvgl/src/draw/../misc/lv_color.h ****  * - When converting to bigger color type the LSB weight of 1 LSB is calculated
 308:lvgl/src/draw/../misc/lv_color.h ****  *   E.g. 16 bit Red has 5 bits
 309:lvgl/src/draw/../misc/lv_color.h ****  *         8 bit Red has 3 bits
 310:lvgl/src/draw/../misc/lv_color.h ****  *        ----------------------
 311:lvgl/src/draw/../misc/lv_color.h ****  *        8 bit red LSB = (2^5 - 1) / (2^3 - 1) = 31 / 7 = 4
 312:lvgl/src/draw/../misc/lv_color.h ****  *
 313:lvgl/src/draw/../misc/lv_color.h ****  * - When calculating to smaller color type simply shift out the LSBs
 314:lvgl/src/draw/../misc/lv_color.h ****  *   E.g.  8 bit Red has 3 bits
 315:lvgl/src/draw/../misc/lv_color.h ****  *        16 bit Red has 5 bits
 316:lvgl/src/draw/../misc/lv_color.h ****  *        ----------------------
 317:lvgl/src/draw/../misc/lv_color.h ****  *         Shift right with 5 - 3 = 2
 318:lvgl/src/draw/../misc/lv_color.h ****  */
 319:lvgl/src/draw/../misc/lv_color.h **** static inline uint8_t lv_color_to1(lv_color_t color)
 320:lvgl/src/draw/../misc/lv_color.h **** {
 321:lvgl/src/draw/../misc/lv_color.h **** #if LV_COLOR_DEPTH == 1
 322:lvgl/src/draw/../misc/lv_color.h ****     return color.full;
 323:lvgl/src/draw/../misc/lv_color.h **** #elif LV_COLOR_DEPTH == 8
 324:lvgl/src/draw/../misc/lv_color.h ****     if((LV_COLOR_GET_R(color) & 0x4) || (LV_COLOR_GET_G(color) & 0x4) || (LV_COLOR_GET_B(color) & 0
 325:lvgl/src/draw/../misc/lv_color.h ****         return 1;
 326:lvgl/src/draw/../misc/lv_color.h ****     }
 327:lvgl/src/draw/../misc/lv_color.h ****     else {
 328:lvgl/src/draw/../misc/lv_color.h ****         return 0;
 329:lvgl/src/draw/../misc/lv_color.h ****     }
 330:lvgl/src/draw/../misc/lv_color.h **** #elif LV_COLOR_DEPTH == 16
 331:lvgl/src/draw/../misc/lv_color.h ****     if((LV_COLOR_GET_R(color) & 0x10) || (LV_COLOR_GET_G(color) & 0x20) || (LV_COLOR_GET_B(color) &
 332:lvgl/src/draw/../misc/lv_color.h ****         return 1;
 333:lvgl/src/draw/../misc/lv_color.h ****     }
 334:lvgl/src/draw/../misc/lv_color.h ****     else {
 335:lvgl/src/draw/../misc/lv_color.h ****         return 0;
 336:lvgl/src/draw/../misc/lv_color.h ****     }
 337:lvgl/src/draw/../misc/lv_color.h **** #elif LV_COLOR_DEPTH == 32
 338:lvgl/src/draw/../misc/lv_color.h ****     if((LV_COLOR_GET_R(color) & 0x80) || (LV_COLOR_GET_G(color) & 0x80) || (LV_COLOR_GET_B(color) &
 339:lvgl/src/draw/../misc/lv_color.h ****         return 1;
 340:lvgl/src/draw/../misc/lv_color.h ****     }
 341:lvgl/src/draw/../misc/lv_color.h ****     else {
 342:lvgl/src/draw/../misc/lv_color.h ****         return 0;
 343:lvgl/src/draw/../misc/lv_color.h ****     }
 344:lvgl/src/draw/../misc/lv_color.h **** #endif
ARM GAS  C:\Users\BLACK_~1\AppData\Local\Temp\ccCMpPOk.s 			page 60


 345:lvgl/src/draw/../misc/lv_color.h **** }
 346:lvgl/src/draw/../misc/lv_color.h **** 
 347:lvgl/src/draw/../misc/lv_color.h **** static inline uint8_t lv_color_to8(lv_color_t color)
 348:lvgl/src/draw/../misc/lv_color.h **** {
 349:lvgl/src/draw/../misc/lv_color.h **** #if LV_COLOR_DEPTH == 1
 350:lvgl/src/draw/../misc/lv_color.h ****     if(color.full == 0)
 351:lvgl/src/draw/../misc/lv_color.h ****         return 0;
 352:lvgl/src/draw/../misc/lv_color.h ****     else
 353:lvgl/src/draw/../misc/lv_color.h ****         return 0xFF;
 354:lvgl/src/draw/../misc/lv_color.h **** #elif LV_COLOR_DEPTH == 8
 355:lvgl/src/draw/../misc/lv_color.h ****     return color.full;
 356:lvgl/src/draw/../misc/lv_color.h **** #elif LV_COLOR_DEPTH == 16
 357:lvgl/src/draw/../misc/lv_color.h ****     lv_color8_t ret;
 358:lvgl/src/draw/../misc/lv_color.h ****     LV_COLOR_SET_R8(ret, LV_COLOR_GET_R(color) >> 2); /*5 - 3  = 2*/
 359:lvgl/src/draw/../misc/lv_color.h ****     LV_COLOR_SET_G8(ret, LV_COLOR_GET_G(color) >> 3); /*6 - 3  = 3*/
 360:lvgl/src/draw/../misc/lv_color.h ****     LV_COLOR_SET_B8(ret, LV_COLOR_GET_B(color) >> 3); /*5 - 2  = 3*/
 361:lvgl/src/draw/../misc/lv_color.h ****     return ret.full;
 362:lvgl/src/draw/../misc/lv_color.h **** #elif LV_COLOR_DEPTH == 32
 363:lvgl/src/draw/../misc/lv_color.h ****     lv_color8_t ret;
 364:lvgl/src/draw/../misc/lv_color.h ****     LV_COLOR_SET_R8(ret, LV_COLOR_GET_R(color) >> 5); /*8 - 3  = 5*/
 365:lvgl/src/draw/../misc/lv_color.h ****     LV_COLOR_SET_G8(ret, LV_COLOR_GET_G(color) >> 5); /*8 - 3  = 5*/
 366:lvgl/src/draw/../misc/lv_color.h ****     LV_COLOR_SET_B8(ret, LV_COLOR_GET_B(color) >> 6); /*8 - 2  = 6*/
 367:lvgl/src/draw/../misc/lv_color.h ****     return ret.full;
 368:lvgl/src/draw/../misc/lv_color.h **** #endif
 369:lvgl/src/draw/../misc/lv_color.h **** }
 370:lvgl/src/draw/../misc/lv_color.h **** 
 371:lvgl/src/draw/../misc/lv_color.h **** static inline uint16_t lv_color_to16(lv_color_t color)
 372:lvgl/src/draw/../misc/lv_color.h **** {
 373:lvgl/src/draw/../misc/lv_color.h **** #if LV_COLOR_DEPTH == 1
 374:lvgl/src/draw/../misc/lv_color.h ****     if(color.full == 0)
 375:lvgl/src/draw/../misc/lv_color.h ****         return 0;
 376:lvgl/src/draw/../misc/lv_color.h ****     else
 377:lvgl/src/draw/../misc/lv_color.h ****         return 0xFFFF;
 378:lvgl/src/draw/../misc/lv_color.h **** #elif LV_COLOR_DEPTH == 8
 379:lvgl/src/draw/../misc/lv_color.h ****     lv_color16_t ret;
 380:lvgl/src/draw/../misc/lv_color.h ****     LV_COLOR_SET_R16(ret, LV_COLOR_GET_R(color) * 4);  /*(2^5 - 1)/(2^3 - 1) = 31/7 = 4*/
 381:lvgl/src/draw/../misc/lv_color.h ****     LV_COLOR_SET_G16(ret, LV_COLOR_GET_G(color) * 9);  /*(2^6 - 1)/(2^3 - 1) = 63/7 = 9*/
 382:lvgl/src/draw/../misc/lv_color.h ****     LV_COLOR_SET_B16(ret, LV_COLOR_GET_B(color) * 10); /*(2^5 - 1)/(2^2 - 1) = 31/3 = 10*/
 383:lvgl/src/draw/../misc/lv_color.h ****     return ret.full;
 384:lvgl/src/draw/../misc/lv_color.h **** #elif LV_COLOR_DEPTH == 16
 385:lvgl/src/draw/../misc/lv_color.h ****     return color.full;
 386:lvgl/src/draw/../misc/lv_color.h **** #elif LV_COLOR_DEPTH == 32
 387:lvgl/src/draw/../misc/lv_color.h ****     lv_color16_t ret;
 388:lvgl/src/draw/../misc/lv_color.h ****     LV_COLOR_SET_R16(ret, LV_COLOR_GET_R(color) >> 3); /*8 - 5  = 3*/
 389:lvgl/src/draw/../misc/lv_color.h ****     LV_COLOR_SET_G16(ret, LV_COLOR_GET_G(color) >> 2); /*8 - 6  = 2*/
 390:lvgl/src/draw/../misc/lv_color.h ****     LV_COLOR_SET_B16(ret, LV_COLOR_GET_B(color) >> 3); /*8 - 5  = 3*/
 391:lvgl/src/draw/../misc/lv_color.h ****     return ret.full;
 392:lvgl/src/draw/../misc/lv_color.h **** #endif
 393:lvgl/src/draw/../misc/lv_color.h **** }
 394:lvgl/src/draw/../misc/lv_color.h **** 
 395:lvgl/src/draw/../misc/lv_color.h **** static inline uint32_t lv_color_to32(lv_color_t color)
 396:lvgl/src/draw/../misc/lv_color.h **** {
 397:lvgl/src/draw/../misc/lv_color.h **** #if LV_COLOR_DEPTH == 1
 398:lvgl/src/draw/../misc/lv_color.h ****     if(color.full == 0)
 399:lvgl/src/draw/../misc/lv_color.h ****         return 0xFF000000;
 400:lvgl/src/draw/../misc/lv_color.h ****     else
 401:lvgl/src/draw/../misc/lv_color.h ****         return 0xFFFFFFFF;
ARM GAS  C:\Users\BLACK_~1\AppData\Local\Temp\ccCMpPOk.s 			page 61


 402:lvgl/src/draw/../misc/lv_color.h **** #elif LV_COLOR_DEPTH == 8
 403:lvgl/src/draw/../misc/lv_color.h ****     lv_color32_t ret;
 404:lvgl/src/draw/../misc/lv_color.h ****     LV_COLOR_SET_R32(ret, LV_COLOR_GET_R(color) * 36); /*(2^8 - 1)/(2^3 - 1) = 255/7 = 36*/
 405:lvgl/src/draw/../misc/lv_color.h ****     LV_COLOR_SET_G32(ret, LV_COLOR_GET_G(color) * 36); /*(2^8 - 1)/(2^3 - 1) = 255/7 = 36*/
 406:lvgl/src/draw/../misc/lv_color.h ****     LV_COLOR_SET_B32(ret, LV_COLOR_GET_B(color) * 85); /*(2^8 - 1)/(2^2 - 1) = 255/3 = 85*/
 407:lvgl/src/draw/../misc/lv_color.h ****     LV_COLOR_SET_A32(ret, 0xFF);
 408:lvgl/src/draw/../misc/lv_color.h ****     return ret.full;
 409:lvgl/src/draw/../misc/lv_color.h **** #elif LV_COLOR_DEPTH == 16
 410:lvgl/src/draw/../misc/lv_color.h ****     /**
 411:lvgl/src/draw/../misc/lv_color.h ****      * The floating point math for conversion is:
 412:lvgl/src/draw/../misc/lv_color.h ****      *  valueto = valuefrom * ( (2^bitsto - 1) / (float)(2^bitsfrom - 1) )
 413:lvgl/src/draw/../misc/lv_color.h ****      * The faster integer math for conversion is:
 414:lvgl/src/draw/../misc/lv_color.h ****      *  valueto = ( valuefrom * multiplier + adder ) >> divisor
 415:lvgl/src/draw/../misc/lv_color.h ****      *   multiplier = FLOOR( ( (2^bitsto - 1) << divisor ) / (float)(2^bitsfrom - 1) )
 416:lvgl/src/draw/../misc/lv_color.h ****      *
 417:lvgl/src/draw/../misc/lv_color.h ****      * Find the first divisor where ( adder >> divisor ) <= 0
 418:lvgl/src/draw/../misc/lv_color.h ****      *
 419:lvgl/src/draw/../misc/lv_color.h ****      * 5-bit to 8-bit: ( 31 * multiplier + adder ) >> divisor = 255
 420:lvgl/src/draw/../misc/lv_color.h ****      * divisor  multiplier  adder  min (0)  max (31)
 421:lvgl/src/draw/../misc/lv_color.h ****      *       0           8      7        7       255
 422:lvgl/src/draw/../misc/lv_color.h ****      *       1          16     14        7       255
 423:lvgl/src/draw/../misc/lv_color.h ****      *       2          32     28        7       255
 424:lvgl/src/draw/../misc/lv_color.h ****      *       3          65     25        3       255
 425:lvgl/src/draw/../misc/lv_color.h ****      *       4         131     19        1       255
 426:lvgl/src/draw/../misc/lv_color.h ****      *       5         263      7        0       255
 427:lvgl/src/draw/../misc/lv_color.h ****      *
 428:lvgl/src/draw/../misc/lv_color.h ****      * 6-bit to 8-bit: 255 = ( 63 * multiplier + adder ) >> divisor
 429:lvgl/src/draw/../misc/lv_color.h ****      * divisor  multiplier  adder  min (0)  max (63)
 430:lvgl/src/draw/../misc/lv_color.h ****      *       0           4      3        3       255
 431:lvgl/src/draw/../misc/lv_color.h ****      *       1           8      6        3       255
 432:lvgl/src/draw/../misc/lv_color.h ****      *       2          16     12        3       255
 433:lvgl/src/draw/../misc/lv_color.h ****      *       3          32     24        3       255
 434:lvgl/src/draw/../misc/lv_color.h ****      *       4          64     48        3       255
 435:lvgl/src/draw/../misc/lv_color.h ****      *       5         129     33        1       255
 436:lvgl/src/draw/../misc/lv_color.h ****      *       6         259      3        0       255
 437:lvgl/src/draw/../misc/lv_color.h ****      */
 438:lvgl/src/draw/../misc/lv_color.h **** 
 439:lvgl/src/draw/../misc/lv_color.h ****     lv_color32_t ret;
 440:lvgl/src/draw/../misc/lv_color.h ****     LV_COLOR_SET_R32(ret, (LV_COLOR_GET_R(color) * 263 + 7) >> 5);
 441:lvgl/src/draw/../misc/lv_color.h ****     LV_COLOR_SET_G32(ret, (LV_COLOR_GET_G(color) * 259 + 3) >> 6);
 442:lvgl/src/draw/../misc/lv_color.h ****     LV_COLOR_SET_B32(ret, (LV_COLOR_GET_B(color) * 263 + 7) >> 5);
 443:lvgl/src/draw/../misc/lv_color.h ****     LV_COLOR_SET_A32(ret, 0xFF);
 444:lvgl/src/draw/../misc/lv_color.h ****     return ret.full;
 445:lvgl/src/draw/../misc/lv_color.h **** #elif LV_COLOR_DEPTH == 32
 446:lvgl/src/draw/../misc/lv_color.h ****     return color.full;
 447:lvgl/src/draw/../misc/lv_color.h **** #endif
 448:lvgl/src/draw/../misc/lv_color.h **** }
 449:lvgl/src/draw/../misc/lv_color.h **** 
 450:lvgl/src/draw/../misc/lv_color.h **** //! @cond Doxygen_Suppress
 451:lvgl/src/draw/../misc/lv_color.h **** 
 452:lvgl/src/draw/../misc/lv_color.h **** /**
 453:lvgl/src/draw/../misc/lv_color.h ****  * Mix two colors with a given ratio.
 454:lvgl/src/draw/../misc/lv_color.h ****  * @param c1 the first color to mix (usually the foreground)
 455:lvgl/src/draw/../misc/lv_color.h ****  * @param c2 the second color to mix (usually the background)
 456:lvgl/src/draw/../misc/lv_color.h ****  * @param mix The ratio of the colors. 0: full `c2`, 255: full `c1`, 127: half `c1` and half`c2`
 457:lvgl/src/draw/../misc/lv_color.h ****  * @return the mixed color
 458:lvgl/src/draw/../misc/lv_color.h ****  */
ARM GAS  C:\Users\BLACK_~1\AppData\Local\Temp\ccCMpPOk.s 			page 62


 459:lvgl/src/draw/../misc/lv_color.h **** LV_ATTRIBUTE_FAST_MEM static inline lv_color_t lv_color_mix(lv_color_t c1, lv_color_t c2, uint8_t m
 460:lvgl/src/draw/../misc/lv_color.h **** {
 461:lvgl/src/draw/../misc/lv_color.h ****     lv_color_t ret;
 462:lvgl/src/draw/../misc/lv_color.h **** #if LV_COLOR_DEPTH != 1
 463:lvgl/src/draw/../misc/lv_color.h ****     /*LV_COLOR_DEPTH == 8, 16 or 32*/
 464:lvgl/src/draw/../misc/lv_color.h ****     LV_COLOR_SET_R(ret, LV_UDIV255((uint16_t) LV_COLOR_GET_R(c1) * mix + LV_COLOR_GET_R(c2) *
 465:lvgl/src/draw/../misc/lv_color.h ****                                         (255 - mix) + LV_COLOR_MIX_ROUND_OFS));
 466:lvgl/src/draw/../misc/lv_color.h ****     LV_COLOR_SET_G(ret, LV_UDIV255((uint16_t) LV_COLOR_GET_G(c1) * mix + LV_COLOR_GET_G(c2) *
 467:lvgl/src/draw/../misc/lv_color.h ****                                         (255 - mix) + LV_COLOR_MIX_ROUND_OFS));
 468:lvgl/src/draw/../misc/lv_color.h ****     LV_COLOR_SET_B(ret, LV_UDIV255((uint16_t) LV_COLOR_GET_B(c1) * mix + LV_COLOR_GET_B(c2) *
 469:lvgl/src/draw/../misc/lv_color.h ****                                         (255 - mix) + LV_COLOR_MIX_ROUND_OFS));
 470:lvgl/src/draw/../misc/lv_color.h ****     LV_COLOR_SET_A(ret, 0xFF);
 471:lvgl/src/draw/../misc/lv_color.h **** #else
 472:lvgl/src/draw/../misc/lv_color.h ****     /*LV_COLOR_DEPTH == 1*/
 473:lvgl/src/draw/../misc/lv_color.h ****     ret.full = mix > LV_OPA_50 ? c1.full : c2.full;
 474:lvgl/src/draw/../misc/lv_color.h **** #endif
 475:lvgl/src/draw/../misc/lv_color.h **** 
 476:lvgl/src/draw/../misc/lv_color.h ****     return ret;
 477:lvgl/src/draw/../misc/lv_color.h **** }
 478:lvgl/src/draw/../misc/lv_color.h **** 
 479:lvgl/src/draw/../misc/lv_color.h **** LV_ATTRIBUTE_FAST_MEM static inline void lv_color_premult(lv_color_t c, uint8_t mix, uint16_t * out
 480:lvgl/src/draw/../misc/lv_color.h **** {
 481:lvgl/src/draw/../misc/lv_color.h **** #if LV_COLOR_DEPTH != 1
 482:lvgl/src/draw/../misc/lv_color.h ****     out[0] = (uint16_t) LV_COLOR_GET_R(c) * mix;
 483:lvgl/src/draw/../misc/lv_color.h ****     out[1] = (uint16_t) LV_COLOR_GET_G(c) * mix;
 484:lvgl/src/draw/../misc/lv_color.h ****     out[2] = (uint16_t) LV_COLOR_GET_B(c) * mix;
 485:lvgl/src/draw/../misc/lv_color.h **** #else
 486:lvgl/src/draw/../misc/lv_color.h ****     (void) mix;
 487:lvgl/src/draw/../misc/lv_color.h ****     /*Pre-multiplication can't be used with 1 bpp*/
 488:lvgl/src/draw/../misc/lv_color.h ****     out[0] = LV_COLOR_GET_R(c);
 489:lvgl/src/draw/../misc/lv_color.h ****     out[1] = LV_COLOR_GET_G(c);
 490:lvgl/src/draw/../misc/lv_color.h ****     out[2] = LV_COLOR_GET_B(c);
 491:lvgl/src/draw/../misc/lv_color.h **** #endif
 492:lvgl/src/draw/../misc/lv_color.h **** 
 493:lvgl/src/draw/../misc/lv_color.h **** }
 494:lvgl/src/draw/../misc/lv_color.h **** 
 495:lvgl/src/draw/../misc/lv_color.h **** /**
 496:lvgl/src/draw/../misc/lv_color.h ****  * Mix two colors with a given ratio. It runs faster then `lv_color_mix` but requires some pre comp
 497:lvgl/src/draw/../misc/lv_color.h ****  * @param premult_c1 The first color. Should be preprocessed with `lv_color_premult(c1)`
 498:lvgl/src/draw/../misc/lv_color.h ****  * @param c2 The second color. As it is no pre computation required on it
 499:lvgl/src/draw/../misc/lv_color.h ****  * @param mix The ratio of the colors. 0: full `c1`, 255: full `c2`, 127: half `c1` and half `c2`.
 500:lvgl/src/draw/../misc/lv_color.h ****  *            Should be modified like mix = `255 - mix`
 501:lvgl/src/draw/../misc/lv_color.h ****  * @return the mixed color
 502:lvgl/src/draw/../misc/lv_color.h ****  * @note 255 won't give clearly `c1`.
 503:lvgl/src/draw/../misc/lv_color.h ****  */
 504:lvgl/src/draw/../misc/lv_color.h **** LV_ATTRIBUTE_FAST_MEM static inline lv_color_t lv_color_mix_premult(uint16_t * premult_c1, lv_color
 505:lvgl/src/draw/../misc/lv_color.h **** {
 506:lvgl/src/draw/../misc/lv_color.h ****     lv_color_t ret;
 507:lvgl/src/draw/../misc/lv_color.h **** #if LV_COLOR_DEPTH != 1
 508:lvgl/src/draw/../misc/lv_color.h ****     /*LV_COLOR_DEPTH == 8, 16 or 32*/
 509:lvgl/src/draw/../misc/lv_color.h ****     LV_COLOR_SET_R(ret, LV_UDIV255(premult_c1[0] + LV_COLOR_GET_R(c2) * mix + LV_COLOR_MIX_ROUND_OF
 510:lvgl/src/draw/../misc/lv_color.h ****     LV_COLOR_SET_G(ret, LV_UDIV255(premult_c1[1] + LV_COLOR_GET_G(c2) * mix + LV_COLOR_MIX_ROUND_OF
 511:lvgl/src/draw/../misc/lv_color.h ****     LV_COLOR_SET_B(ret, LV_UDIV255(premult_c1[2] + LV_COLOR_GET_B(c2) * mix + LV_COLOR_MIX_ROUND_OF
 512:lvgl/src/draw/../misc/lv_color.h ****     LV_COLOR_SET_A(ret, 0xFF);
 513:lvgl/src/draw/../misc/lv_color.h **** #else
 514:lvgl/src/draw/../misc/lv_color.h ****     /*LV_COLOR_DEPTH == 1*/
 515:lvgl/src/draw/../misc/lv_color.h ****     /*Restore color1*/
ARM GAS  C:\Users\BLACK_~1\AppData\Local\Temp\ccCMpPOk.s 			page 63


 516:lvgl/src/draw/../misc/lv_color.h ****     lv_color_t c1;
 517:lvgl/src/draw/../misc/lv_color.h ****     LV_COLOR_SET_R(c1, premult_c1[0]);
 518:lvgl/src/draw/../misc/lv_color.h ****     LV_COLOR_SET_G(c1, premult_c1[1]);
 519:lvgl/src/draw/../misc/lv_color.h ****     LV_COLOR_SET_B(c1, premult_c1[2]);
 520:lvgl/src/draw/../misc/lv_color.h ****     ret.full = mix > LV_OPA_50 ? c2.full : c1.full;
 521:lvgl/src/draw/../misc/lv_color.h **** #endif
 522:lvgl/src/draw/../misc/lv_color.h **** 
 523:lvgl/src/draw/../misc/lv_color.h ****     return ret;
 524:lvgl/src/draw/../misc/lv_color.h **** }
 525:lvgl/src/draw/../misc/lv_color.h **** 
 526:lvgl/src/draw/../misc/lv_color.h **** /**
 527:lvgl/src/draw/../misc/lv_color.h ****  * Mix two colors. Both color can have alpha value.
 528:lvgl/src/draw/../misc/lv_color.h ****  * @param bg_color background color
 529:lvgl/src/draw/../misc/lv_color.h ****  * @param bg_opa alpha of the background color
 530:lvgl/src/draw/../misc/lv_color.h ****  * @param fg_color foreground color
 531:lvgl/src/draw/../misc/lv_color.h ****  * @param fg_opa alpha of the foreground color
 532:lvgl/src/draw/../misc/lv_color.h ****  * @param res_color the result color
 533:lvgl/src/draw/../misc/lv_color.h ****  * @param res_opa the result opacity
 534:lvgl/src/draw/../misc/lv_color.h ****  */
 535:lvgl/src/draw/../misc/lv_color.h **** LV_ATTRIBUTE_FAST_MEM static inline void lv_color_mix_with_alpha(lv_color_t bg_color, lv_opa_t bg_o
 536:lvgl/src/draw/../misc/lv_color.h ****                                                                  lv_color_t fg_color, lv_opa_t fg_o
 537:lvgl/src/draw/../misc/lv_color.h ****                                                                  lv_color_t * res_color, lv_opa_t *
 538:lvgl/src/draw/../misc/lv_color.h **** {
 539:lvgl/src/draw/../misc/lv_color.h ****     /*Pick the foreground if it's fully opaque or the Background is fully transparent*/
 540:lvgl/src/draw/../misc/lv_color.h ****     if(fg_opa >= LV_OPA_MAX || bg_opa <= LV_OPA_MIN) {
 541:lvgl/src/draw/../misc/lv_color.h ****         res_color->full = fg_color.full;
 542:lvgl/src/draw/../misc/lv_color.h ****         *res_opa = fg_opa;
 543:lvgl/src/draw/../misc/lv_color.h ****     }
 544:lvgl/src/draw/../misc/lv_color.h ****     /*Transparent foreground: use the Background*/
 545:lvgl/src/draw/../misc/lv_color.h ****     else if(fg_opa <= LV_OPA_MIN) {
 546:lvgl/src/draw/../misc/lv_color.h ****         res_color->full = bg_color.full;
 547:lvgl/src/draw/../misc/lv_color.h ****         *res_opa = bg_opa;
 548:lvgl/src/draw/../misc/lv_color.h ****     }
 549:lvgl/src/draw/../misc/lv_color.h ****     /*Opaque background: use simple mix*/
 550:lvgl/src/draw/../misc/lv_color.h ****     else if(bg_opa >= LV_OPA_MAX) {
 551:lvgl/src/draw/../misc/lv_color.h ****         *res_color = lv_color_mix(fg_color, bg_color, fg_opa);
 552:lvgl/src/draw/../misc/lv_color.h ****         *res_opa = LV_OPA_COVER;
 553:lvgl/src/draw/../misc/lv_color.h ****     }
 554:lvgl/src/draw/../misc/lv_color.h ****     /*Both colors have alpha. Expensive calculation need to be applied*/
 555:lvgl/src/draw/../misc/lv_color.h ****     else {
 556:lvgl/src/draw/../misc/lv_color.h ****         /*Save the parameters and the result. If they will be asked again don't compute again*/
 557:lvgl/src/draw/../misc/lv_color.h ****         static lv_opa_t fg_opa_save     = 0;
 558:lvgl/src/draw/../misc/lv_color.h ****         static lv_opa_t bg_opa_save     = 0;
 559:lvgl/src/draw/../misc/lv_color.h ****         static lv_color_t fg_color_save = _LV_COLOR_ZERO_INITIALIZER;
 560:lvgl/src/draw/../misc/lv_color.h ****         static lv_color_t bg_color_save = _LV_COLOR_ZERO_INITIALIZER;
 561:lvgl/src/draw/../misc/lv_color.h ****         static lv_color_t res_color_saved = _LV_COLOR_ZERO_INITIALIZER;
 562:lvgl/src/draw/../misc/lv_color.h ****         static lv_opa_t res_opa_saved = 0;
 563:lvgl/src/draw/../misc/lv_color.h **** 
 564:lvgl/src/draw/../misc/lv_color.h ****         if(fg_opa != fg_opa_save || bg_opa != bg_opa_save || fg_color.full != fg_color_save.full ||
 565:lvgl/src/draw/../misc/lv_color.h ****            bg_color.full != bg_color_save.full) {
 566:lvgl/src/draw/../misc/lv_color.h ****             fg_opa_save        = fg_opa;
 567:lvgl/src/draw/../misc/lv_color.h ****             bg_opa_save        = bg_opa;
 568:lvgl/src/draw/../misc/lv_color.h ****             fg_color_save.full = fg_color.full;
 569:lvgl/src/draw/../misc/lv_color.h ****             bg_color_save.full = bg_color.full;
 570:lvgl/src/draw/../misc/lv_color.h ****             /*Info:
 571:lvgl/src/draw/../misc/lv_color.h ****              * https://en.wikipedia.org/wiki/Alpha_compositing#Analytical_derivation_of_the_over_op
 572:lvgl/src/draw/../misc/lv_color.h ****             res_opa_saved = 255 - ((uint16_t)((uint16_t)(255 - fg_opa) * (255 - bg_opa)) >> 8);
ARM GAS  C:\Users\BLACK_~1\AppData\Local\Temp\ccCMpPOk.s 			page 64


 573:lvgl/src/draw/../misc/lv_color.h ****             if(res_opa_saved == 0) {
 574:lvgl/src/draw/../misc/lv_color.h ****                 while(1)
 575:lvgl/src/draw/../misc/lv_color.h ****                     ;
 576:lvgl/src/draw/../misc/lv_color.h ****             }
 577:lvgl/src/draw/../misc/lv_color.h ****             lv_opa_t ratio = (uint16_t)((uint16_t)fg_opa * 255) / res_opa_saved;
 578:lvgl/src/draw/../misc/lv_color.h ****             res_color_saved = lv_color_mix(fg_color, bg_color, ratio);
 579:lvgl/src/draw/../misc/lv_color.h **** 
 580:lvgl/src/draw/../misc/lv_color.h ****         }
 581:lvgl/src/draw/../misc/lv_color.h **** 
 582:lvgl/src/draw/../misc/lv_color.h ****         res_color->full = res_color_saved.full;
 583:lvgl/src/draw/../misc/lv_color.h ****         *res_opa = res_opa_saved;
 584:lvgl/src/draw/../misc/lv_color.h ****     }
 585:lvgl/src/draw/../misc/lv_color.h **** }
 586:lvgl/src/draw/../misc/lv_color.h **** 
 587:lvgl/src/draw/../misc/lv_color.h **** //! @endcond
 588:lvgl/src/draw/../misc/lv_color.h **** 
 589:lvgl/src/draw/../misc/lv_color.h **** /**
 590:lvgl/src/draw/../misc/lv_color.h ****  * Get the brightness of a color
 591:lvgl/src/draw/../misc/lv_color.h ****  * @param color a color
 592:lvgl/src/draw/../misc/lv_color.h ****  * @return the brightness [0..255]
 593:lvgl/src/draw/../misc/lv_color.h ****  */
 594:lvgl/src/draw/../misc/lv_color.h **** static inline uint8_t lv_color_brightness(lv_color_t color)
 595:lvgl/src/draw/../misc/lv_color.h **** {
 596:lvgl/src/draw/../misc/lv_color.h ****     lv_color32_t c32;
 597:lvgl/src/draw/../misc/lv_color.h ****     c32.full        = lv_color_to32(color);
 598:lvgl/src/draw/../misc/lv_color.h ****     uint16_t bright = (uint16_t)(3u * LV_COLOR_GET_R32(c32) + LV_COLOR_GET_B32(c32) + 4u * LV_COLOR
 599:lvgl/src/draw/../misc/lv_color.h ****     return (uint8_t)(bright >> 3);
 600:lvgl/src/draw/../misc/lv_color.h **** }
 601:lvgl/src/draw/../misc/lv_color.h **** 
 602:lvgl/src/draw/../misc/lv_color.h **** static inline lv_color_t lv_color_make(uint8_t r, uint8_t g, uint8_t b)
 603:lvgl/src/draw/../misc/lv_color.h **** {
 604:lvgl/src/draw/../misc/lv_color.h ****     return _LV_COLOR_MAKE_TYPE_HELPER LV_COLOR_MAKE(r, g, b);
 605:lvgl/src/draw/../misc/lv_color.h **** }
 606:lvgl/src/draw/../misc/lv_color.h **** 
 607:lvgl/src/draw/../misc/lv_color.h **** static inline lv_color_t lv_color_hex(uint32_t c)
 608:lvgl/src/draw/../misc/lv_color.h **** {
 609:lvgl/src/draw/../misc/lv_color.h ****     return lv_color_make((uint8_t)((c >> 16) & 0xFF), (uint8_t)((c >> 8) & 0xFF), (uint8_t)(c & 0xF
 610:lvgl/src/draw/../misc/lv_color.h **** }
 611:lvgl/src/draw/../misc/lv_color.h **** 
 612:lvgl/src/draw/../misc/lv_color.h **** static inline lv_color_t lv_color_hex3(uint32_t c)
 613:lvgl/src/draw/../misc/lv_color.h **** {
 614:lvgl/src/draw/../misc/lv_color.h ****     return lv_color_make((uint8_t)(((c >> 4) & 0xF0) | ((c >> 8) & 0xF)), (uint8_t)((c & 0xF0) | ((
 615:lvgl/src/draw/../misc/lv_color.h ****                          (uint8_t)((c & 0xF) | ((c & 0xF) << 4)));
 616:lvgl/src/draw/../misc/lv_color.h **** }
 617:lvgl/src/draw/../misc/lv_color.h **** 
 618:lvgl/src/draw/../misc/lv_color.h **** static inline void lv_color_filter_dsc_init(lv_color_filter_dsc_t * dsc, lv_color_filter_cb_t cb)
 619:lvgl/src/draw/../misc/lv_color.h **** {
 620:lvgl/src/draw/../misc/lv_color.h ****     dsc->filter_cb = cb;
 621:lvgl/src/draw/../misc/lv_color.h **** }
 622:lvgl/src/draw/../misc/lv_color.h **** 
 623:lvgl/src/draw/../misc/lv_color.h **** //! @cond Doxygen_Suppress
 624:lvgl/src/draw/../misc/lv_color.h **** //!
 625:lvgl/src/draw/../misc/lv_color.h **** LV_ATTRIBUTE_FAST_MEM void lv_color_fill(lv_color_t * buf, lv_color_t color, uint32_t px_num);
 626:lvgl/src/draw/../misc/lv_color.h **** 
 627:lvgl/src/draw/../misc/lv_color.h **** //! @endcond
 628:lvgl/src/draw/../misc/lv_color.h **** lv_color_t lv_color_lighten(lv_color_t c, lv_opa_t lvl);
 629:lvgl/src/draw/../misc/lv_color.h **** 
ARM GAS  C:\Users\BLACK_~1\AppData\Local\Temp\ccCMpPOk.s 			page 65


 630:lvgl/src/draw/../misc/lv_color.h **** lv_color_t lv_color_darken(lv_color_t c, lv_opa_t lvl);
 631:lvgl/src/draw/../misc/lv_color.h **** 
 632:lvgl/src/draw/../misc/lv_color.h **** lv_color_t lv_color_change_lightness(lv_color_t c, lv_opa_t lvl);
 633:lvgl/src/draw/../misc/lv_color.h **** 
 634:lvgl/src/draw/../misc/lv_color.h **** /**
 635:lvgl/src/draw/../misc/lv_color.h ****  * Convert a HSV color to RGB
 636:lvgl/src/draw/../misc/lv_color.h ****  * @param h hue [0..359]
 637:lvgl/src/draw/../misc/lv_color.h ****  * @param s saturation [0..100]
 638:lvgl/src/draw/../misc/lv_color.h ****  * @param v value [0..100]
 639:lvgl/src/draw/../misc/lv_color.h ****  * @return the given RGB color in RGB (with LV_COLOR_DEPTH depth)
 640:lvgl/src/draw/../misc/lv_color.h ****  */
 641:lvgl/src/draw/../misc/lv_color.h **** lv_color_t lv_color_hsv_to_rgb(uint16_t h, uint8_t s, uint8_t v);
 642:lvgl/src/draw/../misc/lv_color.h **** 
 643:lvgl/src/draw/../misc/lv_color.h **** /**
 644:lvgl/src/draw/../misc/lv_color.h ****  * Convert a 32-bit RGB color to HSV
 645:lvgl/src/draw/../misc/lv_color.h ****  * @param r8 8-bit red
 646:lvgl/src/draw/../misc/lv_color.h ****  * @param g8 8-bit green
 647:lvgl/src/draw/../misc/lv_color.h ****  * @param b8 8-bit blue
 648:lvgl/src/draw/../misc/lv_color.h ****  * @return the given RGB color in HSV
 649:lvgl/src/draw/../misc/lv_color.h ****  */
 650:lvgl/src/draw/../misc/lv_color.h **** lv_color_hsv_t lv_color_rgb_to_hsv(uint8_t r8, uint8_t g8, uint8_t b8);
 651:lvgl/src/draw/../misc/lv_color.h **** 
 652:lvgl/src/draw/../misc/lv_color.h **** /**
 653:lvgl/src/draw/../misc/lv_color.h ****  * Convert a color to HSV
 654:lvgl/src/draw/../misc/lv_color.h ****  * @param color color
 655:lvgl/src/draw/../misc/lv_color.h ****  * @return the given color in HSV
 656:lvgl/src/draw/../misc/lv_color.h ****  */
 657:lvgl/src/draw/../misc/lv_color.h **** lv_color_hsv_t lv_color_to_hsv(lv_color_t color);
 658:lvgl/src/draw/../misc/lv_color.h **** 
 659:lvgl/src/draw/../misc/lv_color.h **** /**
 660:lvgl/src/draw/../misc/lv_color.h ****  * Just a wrapper around LV_COLOR_CHROMA_KEY because it might be more convenient to use a function 
 661:lvgl/src/draw/../misc/lv_color.h ****  * @return LV_COLOR_CHROMA_KEY
 662:lvgl/src/draw/../misc/lv_color.h ****  */
 663:lvgl/src/draw/../misc/lv_color.h **** static inline lv_color_t lv_color_chroma_key(void)
 664:lvgl/src/draw/../misc/lv_color.h **** {
 665:lvgl/src/draw/../misc/lv_color.h ****     return LV_COLOR_CHROMA_KEY;
 666:lvgl/src/draw/../misc/lv_color.h **** }
 667:lvgl/src/draw/../misc/lv_color.h **** 
 668:lvgl/src/draw/../misc/lv_color.h **** /**********************
 669:lvgl/src/draw/../misc/lv_color.h ****  *  PREDEFINED COLORS
 670:lvgl/src/draw/../misc/lv_color.h ****  **********************/
 671:lvgl/src/draw/../misc/lv_color.h **** /*Source: https://vuetifyjs.com/en/styles/colors/#material-colors*/
 672:lvgl/src/draw/../misc/lv_color.h **** 
 673:lvgl/src/draw/../misc/lv_color.h **** lv_color_t lv_palette_main(lv_palette_t p);
 674:lvgl/src/draw/../misc/lv_color.h **** static inline lv_color_t lv_color_white(void) { return lv_color_make(0xff, 0xff, 0xff);}
 675:lvgl/src/draw/../misc/lv_color.h **** static inline lv_color_t lv_color_black(void) { return lv_color_make(0x00, 0x0, 0x00);}
 1893              		.loc 2 675 26 view .LVU724
 1894              	.LBE30:
 1895              		.loc 2 675 49 view .LVU725
 1896              	.LVL122:
 1897              	.LBB33:
 1898              	.LBB31:
 1899              	.LBI31:
 602:lvgl/src/draw/../misc/lv_color.h **** {
 1900              		.loc 2 602 26 view .LVU726
 1901              	.LBB32:
 604:lvgl/src/draw/../misc/lv_color.h **** }
ARM GAS  C:\Users\BLACK_~1\AppData\Local\Temp\ccCMpPOk.s 			page 66


 1902              		.loc 2 604 5 view .LVU727
 604:lvgl/src/draw/../misc/lv_color.h **** }
 1903              		.loc 2 604 12 is_stmt 0 view .LVU728
 1904 0012 4FF00003 		mov	r3, #0	@ movhi
 1905              	.LVL123:
 604:lvgl/src/draw/../misc/lv_color.h **** }
 1906              		.loc 2 604 12 view .LVU729
 1907              	.LBE32:
 1908              	.LBE31:
 1909              	.LBE33:
  67:lvgl/src/draw/lv_draw_arc.c **** }
 1910              		.loc 1 67 18 view .LVU730
 1911 0016 2380     		strh	r3, [r4]	@ movhi
  68:lvgl/src/draw/lv_draw_arc.c **** 
 1912              		.loc 1 68 1 view .LVU731
 1913 0018 10BD     		pop	{r4, pc}
  68:lvgl/src/draw/lv_draw_arc.c **** 
 1914              		.loc 1 68 1 view .LVU732
 1915              		.cfi_endproc
 1916              	.LFE48:
 1918              		.section	.text.lv_draw_arc,"ax",%progbits
 1919              		.align	1
 1920              		.global	lv_draw_arc
 1921              		.syntax unified
 1922              		.thumb
 1923              		.thumb_func
 1925              	lv_draw_arc:
 1926              	.LVL124:
 1927              	.LFB49:
  72:lvgl/src/draw/lv_draw_arc.c **** #if LV_DRAW_COMPLEX
 1928              		.loc 1 72 1 is_stmt 1 view -0
 1929              		.cfi_startproc
 1930              		@ args = 12, pretend = 0, frame = 304
 1931              		@ frame_needed = 0, uses_anonymous_args = 0
  72:lvgl/src/draw/lv_draw_arc.c **** #if LV_DRAW_COMPLEX
 1932              		.loc 1 72 1 is_stmt 0 view .LVU734
 1933 0000 2DE9F04F 		push	{r4, r5, r6, r7, r8, r9, r10, fp, lr}
 1934              	.LCFI18:
 1935              		.cfi_def_cfa_offset 36
 1936              		.cfi_offset 4, -36
 1937              		.cfi_offset 5, -32
 1938              		.cfi_offset 6, -28
 1939              		.cfi_offset 7, -24
 1940              		.cfi_offset 8, -20
 1941              		.cfi_offset 9, -16
 1942              		.cfi_offset 10, -12
 1943              		.cfi_offset 11, -8
 1944              		.cfi_offset 14, -4
 1945 0004 CFB0     		sub	sp, sp, #316
 1946              	.LCFI19:
 1947              		.cfi_def_cfa_offset 352
 1948 0006 0290     		str	r0, [sp, #8]
 1949 0008 0391     		str	r1, [sp, #12]
 1950 000a 1C46     		mov	r4, r3
 1951 000c BDF86051 		ldrh	r5, [sp, #352]
 1952 0010 5A9F     		ldr	r7, [sp, #360]
  74:lvgl/src/draw/lv_draw_arc.c ****     if(dsc->width == 0) return;
ARM GAS  C:\Users\BLACK_~1\AppData\Local\Temp\ccCMpPOk.s 			page 67


 1953              		.loc 1 74 5 is_stmt 1 view .LVU735
  74:lvgl/src/draw/lv_draw_arc.c ****     if(dsc->width == 0) return;
 1954              		.loc 1 74 11 is_stmt 0 view .LVU736
 1955 0012 3B7A     		ldrb	r3, [r7, #8]	@ zero_extendqisi2
 1956              	.LVL125:
  74:lvgl/src/draw/lv_draw_arc.c ****     if(dsc->width == 0) return;
 1957              		.loc 1 74 7 view .LVU737
 1958 0014 022B     		cmp	r3, #2
 1959 0016 40F2CB80 		bls	.L74
 1960 001a 1646     		mov	r6, r2
  75:lvgl/src/draw/lv_draw_arc.c ****     if(start_angle == end_angle) return;
 1961              		.loc 1 75 5 is_stmt 1 view .LVU738
  75:lvgl/src/draw/lv_draw_arc.c ****     if(start_angle == end_angle) return;
 1962              		.loc 1 75 11 is_stmt 0 view .LVU739
 1963 001c B7F90280 		ldrsh	r8, [r7, #2]
  75:lvgl/src/draw/lv_draw_arc.c ****     if(start_angle == end_angle) return;
 1964              		.loc 1 75 7 view .LVU740
 1965 0020 B8F1000F 		cmp	r8, #0
 1966 0024 00F0C480 		beq	.L74
  76:lvgl/src/draw/lv_draw_arc.c **** 
 1967              		.loc 1 76 5 is_stmt 1 view .LVU741
  76:lvgl/src/draw/lv_draw_arc.c **** 
 1968              		.loc 1 76 7 is_stmt 0 view .LVU742
 1969 0028 AC42     		cmp	r4, r5
 1970 002a 00F0C180 		beq	.L74
  78:lvgl/src/draw/lv_draw_arc.c ****     if(width > radius) width = radius;
 1971              		.loc 1 78 5 is_stmt 1 view .LVU743
 1972              	.LVL126:
  79:lvgl/src/draw/lv_draw_arc.c **** 
 1973              		.loc 1 79 5 view .LVU744
  79:lvgl/src/draw/lv_draw_arc.c **** 
 1974              		.loc 1 79 7 is_stmt 0 view .LVU745
 1975 002e 9045     		cmp	r8, r2
 1976 0030 01DD     		ble	.L76
  79:lvgl/src/draw/lv_draw_arc.c **** 
 1977              		.loc 1 79 24 is_stmt 1 discriminator 1 view .LVU746
  79:lvgl/src/draw/lv_draw_arc.c **** 
 1978              		.loc 1 79 30 is_stmt 0 discriminator 1 view .LVU747
 1979 0032 0FFA82F8 		sxth	r8, r2
 1980              	.LVL127:
 1981              	.L76:
  81:lvgl/src/draw/lv_draw_arc.c ****     lv_draw_rect_dsc_init(&cir_dsc);
 1982              		.loc 1 81 5 is_stmt 1 view .LVU748
  82:lvgl/src/draw/lv_draw_arc.c ****     cir_dsc.blend_mode = dsc->blend_mode;
 1983              		.loc 1 82 5 view .LVU749
 1984 0036 41A8     		add	r0, sp, #260
 1985              	.LVL128:
  82:lvgl/src/draw/lv_draw_arc.c ****     cir_dsc.blend_mode = dsc->blend_mode;
 1986              		.loc 1 82 5 is_stmt 0 view .LVU750
 1987 0038 FFF7FEFF 		bl	lv_draw_rect_dsc_init
 1988              	.LVL129:
  83:lvgl/src/draw/lv_draw_arc.c ****     if(dsc->img_src) {
 1989              		.loc 1 83 5 is_stmt 1 view .LVU751
  83:lvgl/src/draw/lv_draw_arc.c ****     if(dsc->img_src) {
 1990              		.loc 1 83 29 is_stmt 0 view .LVU752
 1991 003c 7B7A     		ldrb	r3, [r7, #9]	@ zero_extendqisi2
 1992 003e C3F30103 		ubfx	r3, r3, #0, #2
ARM GAS  C:\Users\BLACK_~1\AppData\Local\Temp\ccCMpPOk.s 			page 68


  83:lvgl/src/draw/lv_draw_arc.c ****     if(dsc->img_src) {
 1993              		.loc 1 83 24 view .LVU753
 1994 0042 8DF80631 		strb	r3, [sp, #262]
  84:lvgl/src/draw/lv_draw_arc.c ****         cir_dsc.bg_opa = LV_OPA_TRANSP;
 1995              		.loc 1 84 5 is_stmt 1 view .LVU754
  84:lvgl/src/draw/lv_draw_arc.c ****         cir_dsc.bg_opa = LV_OPA_TRANSP;
 1996              		.loc 1 84 11 is_stmt 0 view .LVU755
 1997 0046 7B68     		ldr	r3, [r7, #4]
  84:lvgl/src/draw/lv_draw_arc.c ****         cir_dsc.bg_opa = LV_OPA_TRANSP;
 1998              		.loc 1 84 7 view .LVU756
 1999 0048 002B     		cmp	r3, #0
 2000 004a 72D0     		beq	.L77
  85:lvgl/src/draw/lv_draw_arc.c ****         cir_dsc.bg_img_src = dsc->img_src;
 2001              		.loc 1 85 9 is_stmt 1 view .LVU757
  85:lvgl/src/draw/lv_draw_arc.c ****         cir_dsc.bg_img_src = dsc->img_src;
 2002              		.loc 1 85 24 is_stmt 0 view .LVU758
 2003 004c 0023     		movs	r3, #0
 2004 004e 8DF80E31 		strb	r3, [sp, #270]
  86:lvgl/src/draw/lv_draw_arc.c ****         cir_dsc.bg_img_opa = dsc->opa;
 2005              		.loc 1 86 9 is_stmt 1 view .LVU759
  86:lvgl/src/draw/lv_draw_arc.c ****         cir_dsc.bg_img_opa = dsc->opa;
 2006              		.loc 1 86 33 is_stmt 0 view .LVU760
 2007 0052 7B68     		ldr	r3, [r7, #4]
  86:lvgl/src/draw/lv_draw_arc.c ****         cir_dsc.bg_img_opa = dsc->opa;
 2008              		.loc 1 86 28 view .LVU761
 2009 0054 4493     		str	r3, [sp, #272]
  87:lvgl/src/draw/lv_draw_arc.c ****     } else {
 2010              		.loc 1 87 9 is_stmt 1 view .LVU762
  87:lvgl/src/draw/lv_draw_arc.c ****     } else {
 2011              		.loc 1 87 33 is_stmt 0 view .LVU763
 2012 0056 3B7A     		ldrb	r3, [r7, #8]	@ zero_extendqisi2
  87:lvgl/src/draw/lv_draw_arc.c ****     } else {
 2013              		.loc 1 87 28 view .LVU764
 2014 0058 8DF81A31 		strb	r3, [sp, #282]
 2015              	.L78:
  93:lvgl/src/draw/lv_draw_arc.c ****     area_out.x1 = center_x - radius;
 2016              		.loc 1 93 5 is_stmt 1 view .LVU765
  94:lvgl/src/draw/lv_draw_arc.c ****     area_out.y1 = center_y - radius;
 2017              		.loc 1 94 5 view .LVU766
  94:lvgl/src/draw/lv_draw_arc.c ****     area_out.y1 = center_y - radius;
 2018              		.loc 1 94 28 is_stmt 0 view .LVU767
 2019 005c BDF808A0 		ldrh	r10, [sp, #8]
 2020 0060 AAEB0600 		sub	r0, r10, r6
 2021 0064 0FFA80FB 		sxth	fp, r0
  94:lvgl/src/draw/lv_draw_arc.c ****     area_out.y1 = center_y - radius;
 2022              		.loc 1 94 17 view .LVU768
 2023 0068 ADF8FCB0 		strh	fp, [sp, #252]	@ movhi
  95:lvgl/src/draw/lv_draw_arc.c ****     area_out.x2 = center_x + radius - 1;  /*-1 because the center already belongs to the left/botto
 2024              		.loc 1 95 5 is_stmt 1 view .LVU769
  95:lvgl/src/draw/lv_draw_arc.c ****     area_out.x2 = center_x + radius - 1;  /*-1 because the center already belongs to the left/botto
 2025              		.loc 1 95 28 is_stmt 0 view .LVU770
 2026 006c BDF80C90 		ldrh	r9, [sp, #12]
 2027 0070 A9EB0601 		sub	r1, r9, r6
 2028 0074 0FFA81FE 		sxth	lr, r1
  95:lvgl/src/draw/lv_draw_arc.c ****     area_out.x2 = center_x + radius - 1;  /*-1 because the center already belongs to the left/botto
 2029              		.loc 1 95 17 view .LVU771
 2030 0078 ADF8FEE0 		strh	lr, [sp, #254]	@ movhi
ARM GAS  C:\Users\BLACK_~1\AppData\Local\Temp\ccCMpPOk.s 			page 69


  96:lvgl/src/draw/lv_draw_arc.c ****     area_out.y2 = center_y + radius - 1;
 2031              		.loc 1 96 5 is_stmt 1 view .LVU772
  96:lvgl/src/draw/lv_draw_arc.c ****     area_out.y2 = center_y + radius - 1;
 2032              		.loc 1 96 28 is_stmt 0 view .LVU773
 2033 007c 0AEB0602 		add	r2, r10, r6
 2034 0080 92B2     		uxth	r2, r2
  96:lvgl/src/draw/lv_draw_arc.c ****     area_out.y2 = center_y + radius - 1;
 2035              		.loc 1 96 37 view .LVU774
 2036 0082 013A     		subs	r2, r2, #1
 2037 0084 93B2     		uxth	r3, r2
 2038 0086 0493     		str	r3, [sp, #16]
 2039 0088 12B2     		sxth	r2, r2
  96:lvgl/src/draw/lv_draw_arc.c ****     area_out.y2 = center_y + radius - 1;
 2040              		.loc 1 96 17 view .LVU775
 2041 008a ADF80021 		strh	r2, [sp, #256]	@ movhi
  97:lvgl/src/draw/lv_draw_arc.c **** 
 2042              		.loc 1 97 5 is_stmt 1 view .LVU776
  97:lvgl/src/draw/lv_draw_arc.c **** 
 2043              		.loc 1 97 28 is_stmt 0 view .LVU777
 2044 008e 09EB0603 		add	r3, r9, r6
 2045 0092 9BB2     		uxth	r3, r3
  97:lvgl/src/draw/lv_draw_arc.c **** 
 2046              		.loc 1 97 37 view .LVU778
 2047 0094 013B     		subs	r3, r3, #1
 2048 0096 1FFA83FC 		uxth	ip, r3
 2049 009a 1BB2     		sxth	r3, r3
  97:lvgl/src/draw/lv_draw_arc.c **** 
 2050              		.loc 1 97 17 view .LVU779
 2051 009c ADF80231 		strh	r3, [sp, #258]	@ movhi
  99:lvgl/src/draw/lv_draw_arc.c ****     lv_area_copy(&area_in, &area_out);
 2052              		.loc 1 99 5 is_stmt 1 view .LVU780
 100:lvgl/src/draw/lv_draw_arc.c ****     area_in.x1 += dsc->width;
 2053              		.loc 1 100 5 view .LVU781
 2054              	.LVL130:
 2055              	.LBB34:
 2056              	.LBI34:
 2057              		.file 3 "lvgl/src/draw/../misc/lv_area.h"
   1:lvgl/src/draw/../misc/lv_area.h **** /**
   2:lvgl/src/draw/../misc/lv_area.h ****  * @file lv_area.h
   3:lvgl/src/draw/../misc/lv_area.h ****  *
   4:lvgl/src/draw/../misc/lv_area.h ****  */
   5:lvgl/src/draw/../misc/lv_area.h **** 
   6:lvgl/src/draw/../misc/lv_area.h **** #ifndef LV_AREA_H
   7:lvgl/src/draw/../misc/lv_area.h **** #define LV_AREA_H
   8:lvgl/src/draw/../misc/lv_area.h **** 
   9:lvgl/src/draw/../misc/lv_area.h **** #ifdef __cplusplus
  10:lvgl/src/draw/../misc/lv_area.h **** extern "C" {
  11:lvgl/src/draw/../misc/lv_area.h **** #endif
  12:lvgl/src/draw/../misc/lv_area.h **** 
  13:lvgl/src/draw/../misc/lv_area.h **** /*********************
  14:lvgl/src/draw/../misc/lv_area.h ****  *      INCLUDES
  15:lvgl/src/draw/../misc/lv_area.h ****  *********************/
  16:lvgl/src/draw/../misc/lv_area.h **** #include "../lv_conf_internal.h"
  17:lvgl/src/draw/../misc/lv_area.h **** #include <string.h>
  18:lvgl/src/draw/../misc/lv_area.h **** #include <stdbool.h>
  19:lvgl/src/draw/../misc/lv_area.h **** #include <stdint.h>
  20:lvgl/src/draw/../misc/lv_area.h **** 
ARM GAS  C:\Users\BLACK_~1\AppData\Local\Temp\ccCMpPOk.s 			page 70


  21:lvgl/src/draw/../misc/lv_area.h **** /*********************
  22:lvgl/src/draw/../misc/lv_area.h ****  *      DEFINES
  23:lvgl/src/draw/../misc/lv_area.h ****  *********************/
  24:lvgl/src/draw/../misc/lv_area.h **** 
  25:lvgl/src/draw/../misc/lv_area.h **** #define _LV_COORD_MAX_REDUCE    8192
  26:lvgl/src/draw/../misc/lv_area.h **** 
  27:lvgl/src/draw/../misc/lv_area.h **** #if LV_USE_LARGE_COORD
  28:lvgl/src/draw/../misc/lv_area.h **** typedef int32_t lv_coord_t;
  29:lvgl/src/draw/../misc/lv_area.h **** #else
  30:lvgl/src/draw/../misc/lv_area.h **** typedef int16_t lv_coord_t;
  31:lvgl/src/draw/../misc/lv_area.h **** #endif
  32:lvgl/src/draw/../misc/lv_area.h **** 
  33:lvgl/src/draw/../misc/lv_area.h **** /*To allow some special values in the end reduce the max value*/
  34:lvgl/src/draw/../misc/lv_area.h **** #define LV_COORD_MAX ((lv_coord_t)((uint32_t)((uint32_t)1 << (8 * sizeof(lv_coord_t) - 1)) - _LV_CO
  35:lvgl/src/draw/../misc/lv_area.h **** #define LV_COORD_MIN (-LV_COORD_MAX)
  36:lvgl/src/draw/../misc/lv_area.h **** 
  37:lvgl/src/draw/../misc/lv_area.h **** LV_EXPORT_CONST_INT(LV_COORD_MAX);
  38:lvgl/src/draw/../misc/lv_area.h **** LV_EXPORT_CONST_INT(LV_COORD_MIN);
  39:lvgl/src/draw/../misc/lv_area.h **** 
  40:lvgl/src/draw/../misc/lv_area.h **** /**********************
  41:lvgl/src/draw/../misc/lv_area.h ****  *      TYPEDEFS
  42:lvgl/src/draw/../misc/lv_area.h ****  **********************/
  43:lvgl/src/draw/../misc/lv_area.h **** 
  44:lvgl/src/draw/../misc/lv_area.h **** /**
  45:lvgl/src/draw/../misc/lv_area.h ****  * Represents a point on the screen.
  46:lvgl/src/draw/../misc/lv_area.h ****  */
  47:lvgl/src/draw/../misc/lv_area.h **** typedef struct {
  48:lvgl/src/draw/../misc/lv_area.h ****     lv_coord_t x;
  49:lvgl/src/draw/../misc/lv_area.h ****     lv_coord_t y;
  50:lvgl/src/draw/../misc/lv_area.h **** } lv_point_t;
  51:lvgl/src/draw/../misc/lv_area.h **** 
  52:lvgl/src/draw/../misc/lv_area.h **** /** Represents an area of the screen.*/
  53:lvgl/src/draw/../misc/lv_area.h **** typedef struct {
  54:lvgl/src/draw/../misc/lv_area.h ****     lv_coord_t x1;
  55:lvgl/src/draw/../misc/lv_area.h ****     lv_coord_t y1;
  56:lvgl/src/draw/../misc/lv_area.h ****     lv_coord_t x2;
  57:lvgl/src/draw/../misc/lv_area.h ****     lv_coord_t y2;
  58:lvgl/src/draw/../misc/lv_area.h **** } lv_area_t;
  59:lvgl/src/draw/../misc/lv_area.h **** 
  60:lvgl/src/draw/../misc/lv_area.h **** /** Alignments*/
  61:lvgl/src/draw/../misc/lv_area.h **** enum {
  62:lvgl/src/draw/../misc/lv_area.h ****     LV_ALIGN_DEFAULT = 0,
  63:lvgl/src/draw/../misc/lv_area.h ****     LV_ALIGN_TOP_LEFT,
  64:lvgl/src/draw/../misc/lv_area.h ****     LV_ALIGN_TOP_MID,
  65:lvgl/src/draw/../misc/lv_area.h ****     LV_ALIGN_TOP_RIGHT,
  66:lvgl/src/draw/../misc/lv_area.h ****     LV_ALIGN_BOTTOM_LEFT,
  67:lvgl/src/draw/../misc/lv_area.h ****     LV_ALIGN_BOTTOM_MID,
  68:lvgl/src/draw/../misc/lv_area.h ****     LV_ALIGN_BOTTOM_RIGHT,
  69:lvgl/src/draw/../misc/lv_area.h ****     LV_ALIGN_LEFT_MID,
  70:lvgl/src/draw/../misc/lv_area.h ****     LV_ALIGN_RIGHT_MID,
  71:lvgl/src/draw/../misc/lv_area.h ****     LV_ALIGN_CENTER,
  72:lvgl/src/draw/../misc/lv_area.h **** 
  73:lvgl/src/draw/../misc/lv_area.h ****     LV_ALIGN_OUT_TOP_LEFT,
  74:lvgl/src/draw/../misc/lv_area.h ****     LV_ALIGN_OUT_TOP_MID,
  75:lvgl/src/draw/../misc/lv_area.h ****     LV_ALIGN_OUT_TOP_RIGHT,
  76:lvgl/src/draw/../misc/lv_area.h ****     LV_ALIGN_OUT_BOTTOM_LEFT,
  77:lvgl/src/draw/../misc/lv_area.h ****     LV_ALIGN_OUT_BOTTOM_MID,
ARM GAS  C:\Users\BLACK_~1\AppData\Local\Temp\ccCMpPOk.s 			page 71


  78:lvgl/src/draw/../misc/lv_area.h ****     LV_ALIGN_OUT_BOTTOM_RIGHT,
  79:lvgl/src/draw/../misc/lv_area.h ****     LV_ALIGN_OUT_LEFT_TOP,
  80:lvgl/src/draw/../misc/lv_area.h ****     LV_ALIGN_OUT_LEFT_MID,
  81:lvgl/src/draw/../misc/lv_area.h ****     LV_ALIGN_OUT_LEFT_BOTTOM,
  82:lvgl/src/draw/../misc/lv_area.h ****     LV_ALIGN_OUT_RIGHT_TOP,
  83:lvgl/src/draw/../misc/lv_area.h ****     LV_ALIGN_OUT_RIGHT_MID,
  84:lvgl/src/draw/../misc/lv_area.h ****     LV_ALIGN_OUT_RIGHT_BOTTOM,
  85:lvgl/src/draw/../misc/lv_area.h **** };
  86:lvgl/src/draw/../misc/lv_area.h **** typedef uint8_t lv_align_t;
  87:lvgl/src/draw/../misc/lv_area.h **** 
  88:lvgl/src/draw/../misc/lv_area.h **** enum {
  89:lvgl/src/draw/../misc/lv_area.h ****     LV_DIR_NONE     = 0x00,
  90:lvgl/src/draw/../misc/lv_area.h ****     LV_DIR_LEFT     = (1 << 0),
  91:lvgl/src/draw/../misc/lv_area.h ****     LV_DIR_RIGHT    = (1 << 1),
  92:lvgl/src/draw/../misc/lv_area.h ****     LV_DIR_TOP      = (1 << 2),
  93:lvgl/src/draw/../misc/lv_area.h ****     LV_DIR_BOTTOM   = (1 << 3),
  94:lvgl/src/draw/../misc/lv_area.h ****     LV_DIR_HOR      = LV_DIR_LEFT | LV_DIR_RIGHT,
  95:lvgl/src/draw/../misc/lv_area.h ****     LV_DIR_VER      = LV_DIR_TOP | LV_DIR_BOTTOM,
  96:lvgl/src/draw/../misc/lv_area.h ****     LV_DIR_ALL      = LV_DIR_HOR | LV_DIR_VER,
  97:lvgl/src/draw/../misc/lv_area.h **** };
  98:lvgl/src/draw/../misc/lv_area.h **** 
  99:lvgl/src/draw/../misc/lv_area.h **** typedef uint8_t lv_dir_t;
 100:lvgl/src/draw/../misc/lv_area.h **** 
 101:lvgl/src/draw/../misc/lv_area.h **** /**********************
 102:lvgl/src/draw/../misc/lv_area.h ****  * GLOBAL PROTOTYPES
 103:lvgl/src/draw/../misc/lv_area.h ****  **********************/
 104:lvgl/src/draw/../misc/lv_area.h **** 
 105:lvgl/src/draw/../misc/lv_area.h **** /**
 106:lvgl/src/draw/../misc/lv_area.h ****  * Initialize an area
 107:lvgl/src/draw/../misc/lv_area.h ****  * @param area_p pointer to an area
 108:lvgl/src/draw/../misc/lv_area.h ****  * @param x1 left coordinate of the area
 109:lvgl/src/draw/../misc/lv_area.h ****  * @param y1 top coordinate of the area
 110:lvgl/src/draw/../misc/lv_area.h ****  * @param x2 right coordinate of the area
 111:lvgl/src/draw/../misc/lv_area.h ****  * @param y2 bottom coordinate of the area
 112:lvgl/src/draw/../misc/lv_area.h ****  */
 113:lvgl/src/draw/../misc/lv_area.h **** void lv_area_set(lv_area_t * area_p, lv_coord_t x1, lv_coord_t y1, lv_coord_t x2, lv_coord_t y2);
 114:lvgl/src/draw/../misc/lv_area.h **** 
 115:lvgl/src/draw/../misc/lv_area.h **** /**
 116:lvgl/src/draw/../misc/lv_area.h ****  * Copy an area
 117:lvgl/src/draw/../misc/lv_area.h ****  * @param dest pointer to the destination area
 118:lvgl/src/draw/../misc/lv_area.h ****  * @param src pointer to the source area
 119:lvgl/src/draw/../misc/lv_area.h ****  */
 120:lvgl/src/draw/../misc/lv_area.h **** inline static void lv_area_copy(lv_area_t * dest, const lv_area_t * src)
 2058              		.loc 3 120 20 view .LVU782
 2059              	.LBB35:
 121:lvgl/src/draw/../misc/lv_area.h **** {
 122:lvgl/src/draw/../misc/lv_area.h ****     dest->x1 = src->x1;
 2060              		.loc 3 122 5 view .LVU783
 2061              		.loc 3 122 14 is_stmt 0 view .LVU784
 2062 00a0 ADF8F4B0 		strh	fp, [sp, #244]	@ movhi
 123:lvgl/src/draw/../misc/lv_area.h ****     dest->y1 = src->y1;
 2063              		.loc 3 123 5 is_stmt 1 view .LVU785
 2064              		.loc 3 123 14 is_stmt 0 view .LVU786
 2065 00a4 ADF8F6E0 		strh	lr, [sp, #246]	@ movhi
 124:lvgl/src/draw/../misc/lv_area.h ****     dest->x2 = src->x2;
 2066              		.loc 3 124 5 is_stmt 1 view .LVU787
 2067              		.loc 3 124 14 is_stmt 0 view .LVU788
ARM GAS  C:\Users\BLACK_~1\AppData\Local\Temp\ccCMpPOk.s 			page 72


 2068 00a8 ADF8F820 		strh	r2, [sp, #248]	@ movhi
 125:lvgl/src/draw/../misc/lv_area.h ****     dest->y2 = src->y2;
 2069              		.loc 3 125 5 is_stmt 1 view .LVU789
 2070              		.loc 3 125 14 is_stmt 0 view .LVU790
 2071 00ac ADF8FA30 		strh	r3, [sp, #250]	@ movhi
 2072              	.LVL131:
 2073              		.loc 3 125 14 view .LVU791
 2074              	.LBE35:
 2075              	.LBE34:
 101:lvgl/src/draw/lv_draw_arc.c ****     area_in.y1 += dsc->width;
 2076              		.loc 1 101 5 is_stmt 1 view .LVU792
 101:lvgl/src/draw/lv_draw_arc.c ****     area_in.y1 += dsc->width;
 2077              		.loc 1 101 22 is_stmt 0 view .LVU793
 2078 00b0 7B88     		ldrh	r3, [r7, #2]
 101:lvgl/src/draw/lv_draw_arc.c ****     area_in.y1 += dsc->width;
 2079              		.loc 1 101 16 view .LVU794
 2080 00b2 13FA80F0 		uxtah	r0, r3, r0
 2081 00b6 ADF8F400 		strh	r0, [sp, #244]	@ movhi
 102:lvgl/src/draw/lv_draw_arc.c ****     area_in.x2 -= dsc->width;
 2082              		.loc 1 102 5 is_stmt 1 view .LVU795
 102:lvgl/src/draw/lv_draw_arc.c ****     area_in.x2 -= dsc->width;
 2083              		.loc 1 102 16 is_stmt 0 view .LVU796
 2084 00ba 13FA81F1 		uxtah	r1, r3, r1
 2085 00be ADF8F610 		strh	r1, [sp, #246]	@ movhi
 103:lvgl/src/draw/lv_draw_arc.c ****     area_in.y2 -= dsc->width;
 2086              		.loc 1 103 5 is_stmt 1 view .LVU797
 103:lvgl/src/draw/lv_draw_arc.c ****     area_in.y2 -= dsc->width;
 2087              		.loc 1 103 16 is_stmt 0 view .LVU798
 2088 00c2 049A     		ldr	r2, [sp, #16]
 2089 00c4 D21A     		subs	r2, r2, r3
 2090 00c6 ADF8F820 		strh	r2, [sp, #248]	@ movhi
 104:lvgl/src/draw/lv_draw_arc.c **** 
 2091              		.loc 1 104 5 is_stmt 1 view .LVU799
 104:lvgl/src/draw/lv_draw_arc.c **** 
 2092              		.loc 1 104 16 is_stmt 0 view .LVU800
 2093 00ca ACEB0303 		sub	r3, ip, r3
 2094 00ce ADF8FA30 		strh	r3, [sp, #250]	@ movhi
 107:lvgl/src/draw/lv_draw_arc.c ****     lv_draw_mask_radius_init(&mask_in_param, &area_in, LV_RADIUS_CIRCLE, true);
 2095              		.loc 1 107 5 is_stmt 1 view .LVU801
 108:lvgl/src/draw/lv_draw_arc.c ****     int16_t mask_in_id = lv_draw_mask_add(&mask_in_param, NULL);
 2096              		.loc 1 108 5 view .LVU802
 2097 00d2 0123     		movs	r3, #1
 2098 00d4 47F6FF72 		movw	r2, #32767
 2099 00d8 3DA9     		add	r1, sp, #244
 2100 00da 36A8     		add	r0, sp, #216
 2101 00dc FFF7FEFF 		bl	lv_draw_mask_radius_init
 2102              	.LVL132:
 109:lvgl/src/draw/lv_draw_arc.c **** 
 2103              		.loc 1 109 5 view .LVU803
 109:lvgl/src/draw/lv_draw_arc.c **** 
 2104              		.loc 1 109 26 is_stmt 0 view .LVU804
 2105 00e0 0021     		movs	r1, #0
 2106 00e2 36A8     		add	r0, sp, #216
 2107 00e4 FFF7FEFF 		bl	lv_draw_mask_add
 2108              	.LVL133:
 2109 00e8 0490     		str	r0, [sp, #16]
 2110              	.LVL134:
ARM GAS  C:\Users\BLACK_~1\AppData\Local\Temp\ccCMpPOk.s 			page 73


 111:lvgl/src/draw/lv_draw_arc.c ****     lv_draw_mask_radius_init(&mask_out_param, &area_out, LV_RADIUS_CIRCLE, false);
 2111              		.loc 1 111 5 is_stmt 1 view .LVU805
 112:lvgl/src/draw/lv_draw_arc.c ****     int16_t mask_out_id = lv_draw_mask_add(&mask_out_param, NULL);
 2112              		.loc 1 112 5 view .LVU806
 2113 00ea 0023     		movs	r3, #0
 2114 00ec 47F6FF72 		movw	r2, #32767
 2115 00f0 3FA9     		add	r1, sp, #252
 2116 00f2 2FA8     		add	r0, sp, #188
 2117 00f4 FFF7FEFF 		bl	lv_draw_mask_radius_init
 2118              	.LVL135:
 113:lvgl/src/draw/lv_draw_arc.c **** 
 2119              		.loc 1 113 5 view .LVU807
 113:lvgl/src/draw/lv_draw_arc.c **** 
 2120              		.loc 1 113 27 is_stmt 0 view .LVU808
 2121 00f8 0021     		movs	r1, #0
 2122 00fa 2FA8     		add	r0, sp, #188
 2123 00fc FFF7FEFF 		bl	lv_draw_mask_add
 2124              	.LVL136:
 2125 0100 0590     		str	r0, [sp, #20]
 2126              	.LVL137:
 116:lvgl/src/draw/lv_draw_arc.c ****         cir_dsc.radius = LV_RADIUS_CIRCLE;
 2127              		.loc 1 116 5 is_stmt 1 view .LVU809
 116:lvgl/src/draw/lv_draw_arc.c ****         cir_dsc.radius = LV_RADIUS_CIRCLE;
 2128              		.loc 1 116 20 is_stmt 0 view .LVU810
 2129 0102 04F5B473 		add	r3, r4, #360
 116:lvgl/src/draw/lv_draw_arc.c ****         cir_dsc.radius = LV_RADIUS_CIRCLE;
 2130              		.loc 1 116 7 view .LVU811
 2131 0106 AB42     		cmp	r3, r5
 2132 0108 03D0     		beq	.L79
 116:lvgl/src/draw/lv_draw_arc.c ****         cir_dsc.radius = LV_RADIUS_CIRCLE;
 2133              		.loc 1 116 67 discriminator 1 view .LVU812
 2134 010a 05F5B473 		add	r3, r5, #360
 116:lvgl/src/draw/lv_draw_arc.c ****         cir_dsc.radius = LV_RADIUS_CIRCLE;
 2135              		.loc 1 116 39 discriminator 1 view .LVU813
 2136 010e 9C42     		cmp	r4, r3
 2137 0110 19D1     		bne	.L80
 2138              	.L79:
 117:lvgl/src/draw/lv_draw_arc.c ****         lv_draw_rect(&area_out, clip_area, &cir_dsc);
 2139              		.loc 1 117 9 is_stmt 1 view .LVU814
 117:lvgl/src/draw/lv_draw_arc.c ****         lv_draw_rect(&area_out, clip_area, &cir_dsc);
 2140              		.loc 1 117 24 is_stmt 0 view .LVU815
 2141 0112 47F6FF73 		movw	r3, #32767
 2142 0116 ADF80431 		strh	r3, [sp, #260]	@ movhi
 118:lvgl/src/draw/lv_draw_arc.c **** 
 2143              		.loc 1 118 9 is_stmt 1 view .LVU816
 2144 011a 41AA     		add	r2, sp, #260
 2145 011c 5999     		ldr	r1, [sp, #356]
 2146 011e 3FA8     		add	r0, sp, #252
 2147 0120 FFF7FEFF 		bl	lv_draw_rect
 2148              	.LVL138:
 120:lvgl/src/draw/lv_draw_arc.c ****         lv_draw_mask_remove_id(mask_in_id);
 2149              		.loc 1 120 9 view .LVU817
 2150 0124 0598     		ldr	r0, [sp, #20]
