ARM GAS  /var/folders/k2/cd9bl_j17z77g23y6ffqb_400000gn/T//cc0jKSMI.s 			page 1


   1              		.cpu cortex-m4
   2              		.eabi_attribute 27, 1
   3              		.eabi_attribute 28, 1
   4              		.eabi_attribute 20, 1
   5              		.eabi_attribute 21, 1
   6              		.eabi_attribute 23, 3
   7              		.eabi_attribute 24, 1
   8              		.eabi_attribute 25, 1
   9              		.eabi_attribute 26, 1
  10              		.eabi_attribute 30, 1
  11              		.eabi_attribute 34, 1
  12              		.eabi_attribute 18, 4
  13              		.file	"lv_draw_rect.c"
  14              		.text
  15              	.Ltext0:
  16              		.cfi_sections	.debug_frame
  17              		.section	.text.shadow_blur_corner,"ax",%progbits
  18              		.align	1
  19              		.arch armv7e-m
  20              		.syntax unified
  21              		.thumb
  22              		.thumb_func
  23              		.fpu fpv4-sp-d16
  25              	shadow_blur_corner:
  26              	.LVL0:
  27              	.LFB155:
  28              		.file 1 "lvgl/src/draw/lv_draw_rect.c"
   1:lvgl/src/draw/lv_draw_rect.c **** /**
   2:lvgl/src/draw/lv_draw_rect.c ****  * @file lv_draw_rect.c
   3:lvgl/src/draw/lv_draw_rect.c ****  *
   4:lvgl/src/draw/lv_draw_rect.c ****  */
   5:lvgl/src/draw/lv_draw_rect.c **** 
   6:lvgl/src/draw/lv_draw_rect.c **** /*********************
   7:lvgl/src/draw/lv_draw_rect.c ****  *      INCLUDES
   8:lvgl/src/draw/lv_draw_rect.c ****  *********************/
   9:lvgl/src/draw/lv_draw_rect.c **** #include "lv_draw_rect.h"
  10:lvgl/src/draw/lv_draw_rect.c **** #include "lv_draw_blend.h"
  11:lvgl/src/draw/lv_draw_rect.c **** #include "lv_draw_mask.h"
  12:lvgl/src/draw/lv_draw_rect.c **** #include "../misc/lv_math.h"
  13:lvgl/src/draw/lv_draw_rect.c **** #include "../misc/lv_txt_ap.h"
  14:lvgl/src/draw/lv_draw_rect.c **** #include "../core/lv_refr.h"
  15:lvgl/src/draw/lv_draw_rect.c **** #include "../misc/lv_assert.h"
  16:lvgl/src/draw/lv_draw_rect.c **** 
  17:lvgl/src/draw/lv_draw_rect.c **** /*********************
  18:lvgl/src/draw/lv_draw_rect.c ****  *      DEFINES
  19:lvgl/src/draw/lv_draw_rect.c ****  *********************/
  20:lvgl/src/draw/lv_draw_rect.c **** #define SHADOW_UPSCALE_SHIFT   6
  21:lvgl/src/draw/lv_draw_rect.c **** #define SHADOW_ENHANCE          1
  22:lvgl/src/draw/lv_draw_rect.c **** #define SPLIT_LIMIT             50
  23:lvgl/src/draw/lv_draw_rect.c **** 
  24:lvgl/src/draw/lv_draw_rect.c **** /**********************
  25:lvgl/src/draw/lv_draw_rect.c ****  *      TYPEDEFS
  26:lvgl/src/draw/lv_draw_rect.c ****  **********************/
  27:lvgl/src/draw/lv_draw_rect.c **** 
  28:lvgl/src/draw/lv_draw_rect.c **** /**********************
  29:lvgl/src/draw/lv_draw_rect.c ****  *  STATIC PROTOTYPES
  30:lvgl/src/draw/lv_draw_rect.c ****  **********************/
ARM GAS  /var/folders/k2/cd9bl_j17z77g23y6ffqb_400000gn/T//cc0jKSMI.s 			page 2


  31:lvgl/src/draw/lv_draw_rect.c **** LV_ATTRIBUTE_FAST_MEM static void draw_bg(const lv_area_t * coords, const lv_area_t * clip,
  32:lvgl/src/draw/lv_draw_rect.c ****                                           const lv_draw_rect_dsc_t * dsc);
  33:lvgl/src/draw/lv_draw_rect.c **** LV_ATTRIBUTE_FAST_MEM static void draw_bg_img(const lv_area_t * coords, const lv_area_t * clip,
  34:lvgl/src/draw/lv_draw_rect.c ****                                           const lv_draw_rect_dsc_t * dsc);
  35:lvgl/src/draw/lv_draw_rect.c **** LV_ATTRIBUTE_FAST_MEM static void draw_border(const lv_area_t * coords, const lv_area_t * clip,
  36:lvgl/src/draw/lv_draw_rect.c ****                                               const lv_draw_rect_dsc_t * dsc);
  37:lvgl/src/draw/lv_draw_rect.c **** 
  38:lvgl/src/draw/lv_draw_rect.c **** static void draw_outline(const lv_area_t * coords, const lv_area_t * clip, const lv_draw_rect_dsc_t
  39:lvgl/src/draw/lv_draw_rect.c **** 
  40:lvgl/src/draw/lv_draw_rect.c **** #if LV_DRAW_COMPLEX
  41:lvgl/src/draw/lv_draw_rect.c **** LV_ATTRIBUTE_FAST_MEM static void draw_shadow(const lv_area_t * coords, const lv_area_t * clip,
  42:lvgl/src/draw/lv_draw_rect.c ****                                               const lv_draw_rect_dsc_t * dsc);
  43:lvgl/src/draw/lv_draw_rect.c **** LV_ATTRIBUTE_FAST_MEM static void shadow_draw_corner_buf(const lv_area_t * coords,  uint16_t * sh_b
  44:lvgl/src/draw/lv_draw_rect.c ****                                                          lv_coord_t r);
  45:lvgl/src/draw/lv_draw_rect.c **** LV_ATTRIBUTE_FAST_MEM static void shadow_blur_corner(lv_coord_t size, lv_coord_t sw, uint16_t * sh_
  46:lvgl/src/draw/lv_draw_rect.c **** 
  47:lvgl/src/draw/lv_draw_rect.c **** static void draw_full_border(const lv_area_t * area_inner, const lv_area_t * area_outer, const lv_a
  48:lvgl/src/draw/lv_draw_rect.c ****                              lv_coord_t radius, bool radius_is_in, lv_color_t color, lv_opa_t opa, 
  49:lvgl/src/draw/lv_draw_rect.c **** #else
  50:lvgl/src/draw/lv_draw_rect.c **** static void draw_simple_border(const lv_area_t * clip, const lv_area_t * area_inner, const lv_area_
  51:lvgl/src/draw/lv_draw_rect.c ****         lv_color_t color, lv_opa_t opa, lv_border_side_t side);
  52:lvgl/src/draw/lv_draw_rect.c **** #endif
  53:lvgl/src/draw/lv_draw_rect.c **** 
  54:lvgl/src/draw/lv_draw_rect.c **** #if LV_DRAW_COMPLEX
  55:lvgl/src/draw/lv_draw_rect.c **** LV_ATTRIBUTE_FAST_MEM static inline lv_color_t grad_get(const lv_draw_rect_dsc_t * dsc, lv_coord_t 
  56:lvgl/src/draw/lv_draw_rect.c **** #endif
  57:lvgl/src/draw/lv_draw_rect.c **** 
  58:lvgl/src/draw/lv_draw_rect.c **** /**********************
  59:lvgl/src/draw/lv_draw_rect.c ****  *  STATIC VARIABLES
  60:lvgl/src/draw/lv_draw_rect.c ****  **********************/
  61:lvgl/src/draw/lv_draw_rect.c **** #if defined(LV_SHADOW_CACHE_SIZE) && LV_SHADOW_CACHE_SIZE > 0
  62:lvgl/src/draw/lv_draw_rect.c ****     static uint8_t sh_cache[LV_SHADOW_CACHE_SIZE * LV_SHADOW_CACHE_SIZE];
  63:lvgl/src/draw/lv_draw_rect.c ****     static int32_t sh_cache_size = -1;
  64:lvgl/src/draw/lv_draw_rect.c ****     static int32_t sh_cache_r = -1;
  65:lvgl/src/draw/lv_draw_rect.c **** #endif
  66:lvgl/src/draw/lv_draw_rect.c **** 
  67:lvgl/src/draw/lv_draw_rect.c **** /**********************
  68:lvgl/src/draw/lv_draw_rect.c ****  *      MACROS
  69:lvgl/src/draw/lv_draw_rect.c ****  **********************/
  70:lvgl/src/draw/lv_draw_rect.c **** 
  71:lvgl/src/draw/lv_draw_rect.c **** /**********************
  72:lvgl/src/draw/lv_draw_rect.c ****  *   GLOBAL FUNCTIONS
  73:lvgl/src/draw/lv_draw_rect.c ****  **********************/
  74:lvgl/src/draw/lv_draw_rect.c **** 
  75:lvgl/src/draw/lv_draw_rect.c **** LV_ATTRIBUTE_FAST_MEM void lv_draw_rect_dsc_init(lv_draw_rect_dsc_t * dsc)
  76:lvgl/src/draw/lv_draw_rect.c **** {
  77:lvgl/src/draw/lv_draw_rect.c ****     lv_memset_00(dsc, sizeof(lv_draw_rect_dsc_t));
  78:lvgl/src/draw/lv_draw_rect.c ****     dsc->bg_color = lv_color_white();
  79:lvgl/src/draw/lv_draw_rect.c ****     dsc->bg_grad_color = lv_color_black();
  80:lvgl/src/draw/lv_draw_rect.c ****     dsc->border_color = lv_color_black();
  81:lvgl/src/draw/lv_draw_rect.c ****     dsc->shadow_color = lv_color_black();
  82:lvgl/src/draw/lv_draw_rect.c ****     dsc->bg_grad_color_stop = 0xFF;
  83:lvgl/src/draw/lv_draw_rect.c ****     dsc->bg_img_symbol_font = LV_FONT_DEFAULT;
  84:lvgl/src/draw/lv_draw_rect.c ****     dsc->bg_opa = LV_OPA_COVER;
  85:lvgl/src/draw/lv_draw_rect.c ****     dsc->bg_img_opa = LV_OPA_COVER;
  86:lvgl/src/draw/lv_draw_rect.c ****     dsc->outline_opa = LV_OPA_COVER;
  87:lvgl/src/draw/lv_draw_rect.c ****     dsc->border_opa = LV_OPA_COVER;
ARM GAS  /var/folders/k2/cd9bl_j17z77g23y6ffqb_400000gn/T//cc0jKSMI.s 			page 3


  88:lvgl/src/draw/lv_draw_rect.c ****     dsc->shadow_opa = LV_OPA_COVER;
  89:lvgl/src/draw/lv_draw_rect.c ****     dsc->border_side = LV_BORDER_SIDE_FULL;
  90:lvgl/src/draw/lv_draw_rect.c **** }
  91:lvgl/src/draw/lv_draw_rect.c **** 
  92:lvgl/src/draw/lv_draw_rect.c **** /**
  93:lvgl/src/draw/lv_draw_rect.c ****  * Draw a rectangle
  94:lvgl/src/draw/lv_draw_rect.c ****  * @param coords the coordinates of the rectangle
  95:lvgl/src/draw/lv_draw_rect.c ****  * @param mask the rectangle will be drawn only in this mask
  96:lvgl/src/draw/lv_draw_rect.c ****  * @param dsc pointer to an initialized `lv_draw_rect_dsc_t` variable
  97:lvgl/src/draw/lv_draw_rect.c ****  */
  98:lvgl/src/draw/lv_draw_rect.c **** void lv_draw_rect(const lv_area_t * coords, const lv_area_t * clip, const lv_draw_rect_dsc_t * dsc)
  99:lvgl/src/draw/lv_draw_rect.c **** {
 100:lvgl/src/draw/lv_draw_rect.c ****     if(lv_area_get_height(coords) < 1 || lv_area_get_width(coords) < 1) return;
 101:lvgl/src/draw/lv_draw_rect.c **** #if LV_DRAW_COMPLEX
 102:lvgl/src/draw/lv_draw_rect.c ****     draw_shadow(coords, clip, dsc);
 103:lvgl/src/draw/lv_draw_rect.c **** #endif
 104:lvgl/src/draw/lv_draw_rect.c **** 
 105:lvgl/src/draw/lv_draw_rect.c ****     draw_bg(coords, clip, dsc);
 106:lvgl/src/draw/lv_draw_rect.c ****     draw_bg_img(coords, clip, dsc);
 107:lvgl/src/draw/lv_draw_rect.c **** 
 108:lvgl/src/draw/lv_draw_rect.c ****     draw_border(coords, clip, dsc);
 109:lvgl/src/draw/lv_draw_rect.c **** 
 110:lvgl/src/draw/lv_draw_rect.c ****     draw_outline(coords, clip, dsc);
 111:lvgl/src/draw/lv_draw_rect.c **** 
 112:lvgl/src/draw/lv_draw_rect.c ****     LV_ASSERT_MEM_INTEGRITY();
 113:lvgl/src/draw/lv_draw_rect.c **** }
 114:lvgl/src/draw/lv_draw_rect.c **** 
 115:lvgl/src/draw/lv_draw_rect.c **** /**********************
 116:lvgl/src/draw/lv_draw_rect.c ****  *   STATIC FUNCTIONS
 117:lvgl/src/draw/lv_draw_rect.c ****  **********************/
 118:lvgl/src/draw/lv_draw_rect.c **** 
 119:lvgl/src/draw/lv_draw_rect.c **** LV_ATTRIBUTE_FAST_MEM static void draw_bg(const lv_area_t * coords, const lv_area_t * clip,
 120:lvgl/src/draw/lv_draw_rect.c ****                                           const lv_draw_rect_dsc_t * dsc)
 121:lvgl/src/draw/lv_draw_rect.c **** {
 122:lvgl/src/draw/lv_draw_rect.c ****     if(dsc->bg_opa <= LV_OPA_MIN) return;
 123:lvgl/src/draw/lv_draw_rect.c **** 
 124:lvgl/src/draw/lv_draw_rect.c ****     lv_area_t coords_bg;
 125:lvgl/src/draw/lv_draw_rect.c ****     lv_area_copy(&coords_bg, coords);
 126:lvgl/src/draw/lv_draw_rect.c **** 
 127:lvgl/src/draw/lv_draw_rect.c ****     /*If the border fully covers make the bg area 1px smaller to avoid artifacts on the corners*/
 128:lvgl/src/draw/lv_draw_rect.c ****     if(dsc->border_width > 1 && dsc->border_opa >= LV_OPA_MAX && dsc->radius != 0) {
 129:lvgl/src/draw/lv_draw_rect.c ****         coords_bg.x1 += (dsc->border_side & LV_BORDER_SIDE_LEFT) ? 1 : 0;
 130:lvgl/src/draw/lv_draw_rect.c ****         coords_bg.y1 += (dsc->border_side & LV_BORDER_SIDE_TOP) ? 1 : 0;
 131:lvgl/src/draw/lv_draw_rect.c ****         coords_bg.x2 -= (dsc->border_side & LV_BORDER_SIDE_RIGHT) ? 1 : 0;
 132:lvgl/src/draw/lv_draw_rect.c ****         coords_bg.y2 -= (dsc->border_side & LV_BORDER_SIDE_BOTTOM) ? 1 : 0;
 133:lvgl/src/draw/lv_draw_rect.c ****     }
 134:lvgl/src/draw/lv_draw_rect.c **** 
 135:lvgl/src/draw/lv_draw_rect.c ****     lv_opa_t opa = dsc->bg_opa;
 136:lvgl/src/draw/lv_draw_rect.c **** 
 137:lvgl/src/draw/lv_draw_rect.c ****     if(opa > LV_OPA_MAX) opa = LV_OPA_COVER;
 138:lvgl/src/draw/lv_draw_rect.c **** 
 139:lvgl/src/draw/lv_draw_rect.c ****     lv_disp_t * disp = _lv_refr_get_disp_refreshing();
 140:lvgl/src/draw/lv_draw_rect.c ****     lv_disp_draw_buf_t * draw_buf = lv_disp_get_draw_buf(disp);
 141:lvgl/src/draw/lv_draw_rect.c **** 
 142:lvgl/src/draw/lv_draw_rect.c ****     /*Get clipped fill area which is the real draw area.
 143:lvgl/src/draw/lv_draw_rect.c ****      *It is always the same or inside `fill_area`*/
 144:lvgl/src/draw/lv_draw_rect.c ****     lv_area_t draw_area;
ARM GAS  /var/folders/k2/cd9bl_j17z77g23y6ffqb_400000gn/T//cc0jKSMI.s 			page 4


 145:lvgl/src/draw/lv_draw_rect.c ****     bool is_common;
 146:lvgl/src/draw/lv_draw_rect.c ****     is_common = _lv_area_intersect(&draw_area, &coords_bg, clip);
 147:lvgl/src/draw/lv_draw_rect.c ****     if(is_common == false) return;
 148:lvgl/src/draw/lv_draw_rect.c **** 
 149:lvgl/src/draw/lv_draw_rect.c ****     const lv_area_t * disp_area = &draw_buf->area;
 150:lvgl/src/draw/lv_draw_rect.c **** 
 151:lvgl/src/draw/lv_draw_rect.c ****     /*Now `draw_area` has absolute coordinates.
 152:lvgl/src/draw/lv_draw_rect.c ****      *Make it relative to `disp_area` to simplify draw to `disp_buf`*/
 153:lvgl/src/draw/lv_draw_rect.c ****     draw_area.x1 -= disp_area->x1;
 154:lvgl/src/draw/lv_draw_rect.c ****     draw_area.y1 -= disp_area->y1;
 155:lvgl/src/draw/lv_draw_rect.c ****     draw_area.x2 -= disp_area->x1;
 156:lvgl/src/draw/lv_draw_rect.c ****     draw_area.y2 -= disp_area->y1;
 157:lvgl/src/draw/lv_draw_rect.c **** 
 158:lvgl/src/draw/lv_draw_rect.c **** 
 159:lvgl/src/draw/lv_draw_rect.c ****     lv_grad_dir_t grad_dir = dsc->bg_grad_dir;
 160:lvgl/src/draw/lv_draw_rect.c ****     if(dsc->bg_color.full == dsc->bg_grad_color.full) grad_dir = LV_GRAD_DIR_NONE;
 161:lvgl/src/draw/lv_draw_rect.c **** 
 162:lvgl/src/draw/lv_draw_rect.c ****     uint16_t other_mask_cnt = lv_draw_mask_get_cnt();
 163:lvgl/src/draw/lv_draw_rect.c ****     bool simple_mode = true;
 164:lvgl/src/draw/lv_draw_rect.c ****     if(other_mask_cnt) simple_mode = false;
 165:lvgl/src/draw/lv_draw_rect.c ****     else if(grad_dir == LV_GRAD_DIR_HOR) simple_mode = false;
 166:lvgl/src/draw/lv_draw_rect.c **** 
 167:lvgl/src/draw/lv_draw_rect.c **** 
 168:lvgl/src/draw/lv_draw_rect.c ****     int32_t coords_w = lv_area_get_width(&coords_bg);
 169:lvgl/src/draw/lv_draw_rect.c ****     int32_t coords_h = lv_area_get_height(&coords_bg);
 170:lvgl/src/draw/lv_draw_rect.c **** 
 171:lvgl/src/draw/lv_draw_rect.c ****     /*Get the real radius*/
 172:lvgl/src/draw/lv_draw_rect.c ****     int32_t rout = dsc->radius;
 173:lvgl/src/draw/lv_draw_rect.c ****     int32_t short_side = LV_MIN(coords_w, coords_h);
 174:lvgl/src/draw/lv_draw_rect.c ****     if(rout > short_side >> 1) rout = short_side >> 1;
 175:lvgl/src/draw/lv_draw_rect.c **** 
 176:lvgl/src/draw/lv_draw_rect.c ****     /*Most simple case: just a plain rectangle*/
 177:lvgl/src/draw/lv_draw_rect.c ****     if(simple_mode && rout == 0 && (grad_dir == LV_GRAD_DIR_NONE)) {
 178:lvgl/src/draw/lv_draw_rect.c ****         _lv_blend_fill(clip, &coords_bg,
 179:lvgl/src/draw/lv_draw_rect.c ****                        dsc->bg_color, NULL, LV_DRAW_MASK_RES_FULL_COVER, opa,
 180:lvgl/src/draw/lv_draw_rect.c ****                        dsc->blend_mode);
 181:lvgl/src/draw/lv_draw_rect.c ****     }
 182:lvgl/src/draw/lv_draw_rect.c **** 
 183:lvgl/src/draw/lv_draw_rect.c **** #if LV_DRAW_COMPLEX
 184:lvgl/src/draw/lv_draw_rect.c ****     /*More complex case: there is a radius, gradient or other mask.*/
 185:lvgl/src/draw/lv_draw_rect.c ****     else {
 186:lvgl/src/draw/lv_draw_rect.c ****         int32_t draw_area_w = lv_area_get_width(&draw_area);
 187:lvgl/src/draw/lv_draw_rect.c ****         int16_t mask_rout_id = LV_MASK_ID_INV;
 188:lvgl/src/draw/lv_draw_rect.c ****         lv_opa_t * mask_buf = lv_mem_buf_get(draw_area_w);
 189:lvgl/src/draw/lv_draw_rect.c ****         lv_draw_mask_radius_param_t mask_rout_param;
 190:lvgl/src/draw/lv_draw_rect.c ****         if(rout > 0) {
 191:lvgl/src/draw/lv_draw_rect.c ****             lv_draw_mask_radius_init(&mask_rout_param, &coords_bg, rout, false);
 192:lvgl/src/draw/lv_draw_rect.c ****             mask_rout_id = lv_draw_mask_add(&mask_rout_param, NULL);
 193:lvgl/src/draw/lv_draw_rect.c ****         }
 194:lvgl/src/draw/lv_draw_rect.c **** 
 195:lvgl/src/draw/lv_draw_rect.c ****         /*Draw the background line by line*/
 196:lvgl/src/draw/lv_draw_rect.c ****         int32_t h;
 197:lvgl/src/draw/lv_draw_rect.c ****         lv_draw_mask_res_t mask_res = LV_DRAW_MASK_RES_FULL_COVER;
 198:lvgl/src/draw/lv_draw_rect.c ****         lv_color_t grad_color = dsc->bg_color;
 199:lvgl/src/draw/lv_draw_rect.c **** 
 200:lvgl/src/draw/lv_draw_rect.c ****         /*In case of horizontal gradient pre-compute a line with a gradient*/
 201:lvgl/src/draw/lv_draw_rect.c ****         lv_color_t * grad_map = NULL;
ARM GAS  /var/folders/k2/cd9bl_j17z77g23y6ffqb_400000gn/T//cc0jKSMI.s 			page 5


 202:lvgl/src/draw/lv_draw_rect.c ****         if(grad_dir == LV_GRAD_DIR_HOR) {
 203:lvgl/src/draw/lv_draw_rect.c ****             grad_map = lv_mem_buf_get(coords_w * sizeof(lv_color_t));
 204:lvgl/src/draw/lv_draw_rect.c **** 
 205:lvgl/src/draw/lv_draw_rect.c ****             int32_t i;
 206:lvgl/src/draw/lv_draw_rect.c ****             for(i = 0; i < coords_w; i++) {
 207:lvgl/src/draw/lv_draw_rect.c ****                 grad_map[i] = grad_get(dsc, coords_w, i);
 208:lvgl/src/draw/lv_draw_rect.c ****             }
 209:lvgl/src/draw/lv_draw_rect.c ****         }
 210:lvgl/src/draw/lv_draw_rect.c **** 
 211:lvgl/src/draw/lv_draw_rect.c ****         bool split = false;
 212:lvgl/src/draw/lv_draw_rect.c ****         if(lv_area_get_width(&coords_bg) - 2 * rout > SPLIT_LIMIT) split = true;
 213:lvgl/src/draw/lv_draw_rect.c **** 
 214:lvgl/src/draw/lv_draw_rect.c ****         lv_opa_t opa2;
 215:lvgl/src/draw/lv_draw_rect.c **** 
 216:lvgl/src/draw/lv_draw_rect.c ****         lv_area_t fill_area;
 217:lvgl/src/draw/lv_draw_rect.c ****         fill_area.x1 = coords_bg.x1;
 218:lvgl/src/draw/lv_draw_rect.c ****         fill_area.x2 = coords_bg.x2;
 219:lvgl/src/draw/lv_draw_rect.c ****         fill_area.y1 = disp_area->y1 + draw_area.y1;
 220:lvgl/src/draw/lv_draw_rect.c ****         fill_area.y2 = fill_area.y1;
 221:lvgl/src/draw/lv_draw_rect.c ****         for(h = draw_area.y1; h <= draw_area.y2; h++) {
 222:lvgl/src/draw/lv_draw_rect.c ****             int32_t y = h + draw_buf->area.y1;
 223:lvgl/src/draw/lv_draw_rect.c **** 
 224:lvgl/src/draw/lv_draw_rect.c ****             opa2 = opa;
 225:lvgl/src/draw/lv_draw_rect.c **** 
 226:lvgl/src/draw/lv_draw_rect.c ****             /*In not corner areas apply the mask only if required*/
 227:lvgl/src/draw/lv_draw_rect.c ****             if(y > coords_bg.y1 + rout + 1 &&
 228:lvgl/src/draw/lv_draw_rect.c ****                y < coords_bg.y2 - rout - 1) {
 229:lvgl/src/draw/lv_draw_rect.c ****                 mask_res = LV_DRAW_MASK_RES_FULL_COVER;
 230:lvgl/src/draw/lv_draw_rect.c ****                 if(simple_mode == false) {
 231:lvgl/src/draw/lv_draw_rect.c ****                     lv_memset(mask_buf, opa, draw_area_w);
 232:lvgl/src/draw/lv_draw_rect.c ****                     mask_res = lv_draw_mask_apply(mask_buf, draw_buf->area.x1 + draw_area.x1, draw_
 233:lvgl/src/draw/lv_draw_rect.c ****                 }
 234:lvgl/src/draw/lv_draw_rect.c ****             }
 235:lvgl/src/draw/lv_draw_rect.c ****             /*In corner areas apply the mask anyway*/
 236:lvgl/src/draw/lv_draw_rect.c ****             else {
 237:lvgl/src/draw/lv_draw_rect.c ****                 lv_memset(mask_buf, opa, draw_area_w);
 238:lvgl/src/draw/lv_draw_rect.c ****                 mask_res = lv_draw_mask_apply(mask_buf, draw_buf->area.x1 + draw_area.x1, draw_buf-
 239:lvgl/src/draw/lv_draw_rect.c ****             }
 240:lvgl/src/draw/lv_draw_rect.c **** 
 241:lvgl/src/draw/lv_draw_rect.c ****             /*If mask will taken into account its base opacity was already set by memset above*/
 242:lvgl/src/draw/lv_draw_rect.c ****             if(mask_res == LV_DRAW_MASK_RES_CHANGED) {
 243:lvgl/src/draw/lv_draw_rect.c ****                 opa2 = LV_OPA_COVER;
 244:lvgl/src/draw/lv_draw_rect.c ****             }
 245:lvgl/src/draw/lv_draw_rect.c **** 
 246:lvgl/src/draw/lv_draw_rect.c ****             /*Get the current line color*/
 247:lvgl/src/draw/lv_draw_rect.c ****             if(grad_dir == LV_GRAD_DIR_VER) {
 248:lvgl/src/draw/lv_draw_rect.c ****                 grad_color = grad_get(dsc, lv_area_get_height(&coords_bg), y - coords_bg.y1);
 249:lvgl/src/draw/lv_draw_rect.c ****             }
 250:lvgl/src/draw/lv_draw_rect.c **** 
 251:lvgl/src/draw/lv_draw_rect.c ****             /*If there is not other mask and drawing the corner area split the drawing to corner an
 252:lvgl/src/draw/lv_draw_rect.c ****              *because it the middle mask shouldn't be taken into account (therefore its faster)*/
 253:lvgl/src/draw/lv_draw_rect.c ****             if(simple_mode && split &&
 254:lvgl/src/draw/lv_draw_rect.c ****                (y < coords_bg.y1 + rout + 1 ||
 255:lvgl/src/draw/lv_draw_rect.c ****                 y > coords_bg.y2 - rout - 1)) {
 256:lvgl/src/draw/lv_draw_rect.c **** 
 257:lvgl/src/draw/lv_draw_rect.c ****                 /*Left part*/
 258:lvgl/src/draw/lv_draw_rect.c ****                 lv_area_t fill_area2;
ARM GAS  /var/folders/k2/cd9bl_j17z77g23y6ffqb_400000gn/T//cc0jKSMI.s 			page 6


 259:lvgl/src/draw/lv_draw_rect.c ****                 fill_area2.x1 = coords_bg.x1;
 260:lvgl/src/draw/lv_draw_rect.c ****                 fill_area2.x2 = coords_bg.x1 + rout - 1;
 261:lvgl/src/draw/lv_draw_rect.c ****                 fill_area2.y1 = fill_area.y1;
 262:lvgl/src/draw/lv_draw_rect.c ****                 fill_area2.y2 = fill_area.y2;
 263:lvgl/src/draw/lv_draw_rect.c **** 
 264:lvgl/src/draw/lv_draw_rect.c ****                 _lv_blend_fill(clip, &fill_area2,
 265:lvgl/src/draw/lv_draw_rect.c ****                                grad_color, mask_buf, mask_res, opa2, dsc->blend_mode);
 266:lvgl/src/draw/lv_draw_rect.c **** 
 267:lvgl/src/draw/lv_draw_rect.c ****                 /*Center part*/
 268:lvgl/src/draw/lv_draw_rect.c ****                 if(grad_dir == LV_GRAD_DIR_VER) {
 269:lvgl/src/draw/lv_draw_rect.c ****                     fill_area2.x1 = coords_bg.x1 + rout;
 270:lvgl/src/draw/lv_draw_rect.c ****                     fill_area2.x2 = coords_bg.x2 - rout;
 271:lvgl/src/draw/lv_draw_rect.c ****                     _lv_blend_fill(clip, &fill_area2,
 272:lvgl/src/draw/lv_draw_rect.c ****                                    grad_color, NULL, LV_DRAW_MASK_RES_FULL_COVER, opa, dsc->blend_m
 273:lvgl/src/draw/lv_draw_rect.c ****                 }
 274:lvgl/src/draw/lv_draw_rect.c **** 
 275:lvgl/src/draw/lv_draw_rect.c ****                 /*Right part*/
 276:lvgl/src/draw/lv_draw_rect.c ****                 fill_area2.x1 = coords_bg.x2 - rout + 1;
 277:lvgl/src/draw/lv_draw_rect.c ****                 fill_area2.x2 = coords_bg.x2;
 278:lvgl/src/draw/lv_draw_rect.c **** 
 279:lvgl/src/draw/lv_draw_rect.c ****                 int32_t mask_ofs = (coords_bg.x2 - rout + 1) - (draw_buf->area.x1 + draw_area.x1);
 280:lvgl/src/draw/lv_draw_rect.c ****                 if(mask_ofs < 0) mask_ofs = 0;
 281:lvgl/src/draw/lv_draw_rect.c ****                 _lv_blend_fill(clip, &fill_area2,
 282:lvgl/src/draw/lv_draw_rect.c ****                                grad_color, mask_buf + mask_ofs, mask_res, opa2, dsc->blend_mode);
 283:lvgl/src/draw/lv_draw_rect.c **** 
 284:lvgl/src/draw/lv_draw_rect.c ****             }
 285:lvgl/src/draw/lv_draw_rect.c ****             else {
 286:lvgl/src/draw/lv_draw_rect.c ****                 if(grad_dir == LV_GRAD_DIR_HOR) {
 287:lvgl/src/draw/lv_draw_rect.c ****                     _lv_blend_map(clip, &fill_area, grad_map, mask_buf, mask_res, opa2, dsc->blend_
 288:lvgl/src/draw/lv_draw_rect.c ****                 }
 289:lvgl/src/draw/lv_draw_rect.c ****                 else if(grad_dir == LV_GRAD_DIR_VER) {
 290:lvgl/src/draw/lv_draw_rect.c ****                     _lv_blend_fill(clip, &fill_area,
 291:lvgl/src/draw/lv_draw_rect.c ****                                    grad_color, mask_buf, mask_res, opa2, dsc->blend_mode);
 292:lvgl/src/draw/lv_draw_rect.c ****                 }
 293:lvgl/src/draw/lv_draw_rect.c ****                 else if(other_mask_cnt != 0 || !split) {
 294:lvgl/src/draw/lv_draw_rect.c ****                     _lv_blend_fill(clip, &fill_area,
 295:lvgl/src/draw/lv_draw_rect.c ****                                    grad_color, mask_buf, mask_res, opa2, dsc->blend_mode);
 296:lvgl/src/draw/lv_draw_rect.c ****                 }
 297:lvgl/src/draw/lv_draw_rect.c ****             }
 298:lvgl/src/draw/lv_draw_rect.c ****             fill_area.y1++;
 299:lvgl/src/draw/lv_draw_rect.c ****             fill_area.y2++;
 300:lvgl/src/draw/lv_draw_rect.c ****         }
 301:lvgl/src/draw/lv_draw_rect.c **** 
 302:lvgl/src/draw/lv_draw_rect.c ****         if(grad_dir == LV_GRAD_DIR_NONE && other_mask_cnt == 0 && split) {
 303:lvgl/src/draw/lv_draw_rect.c ****             /*Central part*/
 304:lvgl/src/draw/lv_draw_rect.c ****             fill_area.x1 = coords_bg.x1 + rout;
 305:lvgl/src/draw/lv_draw_rect.c ****             fill_area.x2 = coords_bg.x2 - rout;
 306:lvgl/src/draw/lv_draw_rect.c ****             fill_area.y1 = coords_bg.y1;
 307:lvgl/src/draw/lv_draw_rect.c ****             fill_area.y2 = coords_bg.y1 + rout;
 308:lvgl/src/draw/lv_draw_rect.c **** 
 309:lvgl/src/draw/lv_draw_rect.c ****             _lv_blend_fill(clip, &fill_area,
 310:lvgl/src/draw/lv_draw_rect.c ****                            dsc->bg_color, NULL, LV_DRAW_MASK_RES_FULL_COVER, opa, dsc->blend_mode);
 311:lvgl/src/draw/lv_draw_rect.c **** 
 312:lvgl/src/draw/lv_draw_rect.c ****             fill_area.y1 = coords_bg.y2 - rout;
 313:lvgl/src/draw/lv_draw_rect.c ****             if(fill_area.y1 <= fill_area.y2) fill_area.y1 = fill_area.y2 + 1;    /*Avoid overdrawin
 314:lvgl/src/draw/lv_draw_rect.c ****             fill_area.y2 = coords_bg.y2;
 315:lvgl/src/draw/lv_draw_rect.c **** 
ARM GAS  /var/folders/k2/cd9bl_j17z77g23y6ffqb_400000gn/T//cc0jKSMI.s 			page 7


 316:lvgl/src/draw/lv_draw_rect.c ****             _lv_blend_fill(clip, &fill_area,
 317:lvgl/src/draw/lv_draw_rect.c ****                            dsc->bg_color, NULL, LV_DRAW_MASK_RES_FULL_COVER, opa, dsc->blend_mode);
 318:lvgl/src/draw/lv_draw_rect.c **** 
 319:lvgl/src/draw/lv_draw_rect.c ****             fill_area.x1 = coords_bg.x1;
 320:lvgl/src/draw/lv_draw_rect.c ****             fill_area.x2 = coords_bg.x2;
 321:lvgl/src/draw/lv_draw_rect.c ****             fill_area.y1 = coords_bg.y1 + rout + 1;
 322:lvgl/src/draw/lv_draw_rect.c ****             fill_area.y2 = coords_bg.y2 - rout - 1;
 323:lvgl/src/draw/lv_draw_rect.c **** 
 324:lvgl/src/draw/lv_draw_rect.c ****             _lv_blend_fill(clip, &fill_area,
 325:lvgl/src/draw/lv_draw_rect.c ****                            dsc->bg_color, NULL, LV_DRAW_MASK_RES_FULL_COVER, opa, dsc->blend_mode);
 326:lvgl/src/draw/lv_draw_rect.c **** 
 327:lvgl/src/draw/lv_draw_rect.c ****         }
 328:lvgl/src/draw/lv_draw_rect.c **** 
 329:lvgl/src/draw/lv_draw_rect.c ****         if(grad_map) lv_mem_buf_release(grad_map);
 330:lvgl/src/draw/lv_draw_rect.c ****         if(mask_buf) lv_mem_buf_release(mask_buf);
 331:lvgl/src/draw/lv_draw_rect.c ****         lv_draw_mask_remove_id(mask_rout_id);
 332:lvgl/src/draw/lv_draw_rect.c ****     }
 333:lvgl/src/draw/lv_draw_rect.c **** 
 334:lvgl/src/draw/lv_draw_rect.c **** #endif
 335:lvgl/src/draw/lv_draw_rect.c **** }
 336:lvgl/src/draw/lv_draw_rect.c **** 
 337:lvgl/src/draw/lv_draw_rect.c **** LV_ATTRIBUTE_FAST_MEM static void draw_bg_img(const lv_area_t * coords, const lv_area_t * clip,
 338:lvgl/src/draw/lv_draw_rect.c ****                                           const lv_draw_rect_dsc_t * dsc)
 339:lvgl/src/draw/lv_draw_rect.c **** {
 340:lvgl/src/draw/lv_draw_rect.c ****     if(dsc->bg_img_src == NULL) return;
 341:lvgl/src/draw/lv_draw_rect.c ****     if(dsc->bg_img_opa <= LV_OPA_MIN) return;
 342:lvgl/src/draw/lv_draw_rect.c **** 
 343:lvgl/src/draw/lv_draw_rect.c ****     lv_img_src_t src_type = lv_img_src_get_type(dsc->bg_img_src);
 344:lvgl/src/draw/lv_draw_rect.c ****     if(src_type == LV_IMG_SRC_SYMBOL) {
 345:lvgl/src/draw/lv_draw_rect.c ****         lv_point_t size;
 346:lvgl/src/draw/lv_draw_rect.c ****         lv_txt_get_size(&size, dsc->bg_img_src, dsc->bg_img_symbol_font, 0, 0, LV_COORD_MAX, LV_TEX
 347:lvgl/src/draw/lv_draw_rect.c ****         lv_area_t a;
 348:lvgl/src/draw/lv_draw_rect.c ****         a.x1 = coords->x1 + lv_area_get_width(coords) / 2 - size.x / 2;
 349:lvgl/src/draw/lv_draw_rect.c ****         a.x2 = a.x1 + size.x - 1;
 350:lvgl/src/draw/lv_draw_rect.c ****         a.y1 = coords->y1 + lv_area_get_height(coords) / 2 - size.y / 2;
 351:lvgl/src/draw/lv_draw_rect.c ****         a.y2 = a.y1 + size.y - 1;
 352:lvgl/src/draw/lv_draw_rect.c **** 
 353:lvgl/src/draw/lv_draw_rect.c ****         lv_draw_label_dsc_t label_draw_dsc;
 354:lvgl/src/draw/lv_draw_rect.c ****         lv_draw_label_dsc_init(&label_draw_dsc);
 355:lvgl/src/draw/lv_draw_rect.c ****         label_draw_dsc.font = dsc->bg_img_symbol_font;
 356:lvgl/src/draw/lv_draw_rect.c ****         label_draw_dsc.color = dsc->bg_img_recolor;
 357:lvgl/src/draw/lv_draw_rect.c ****         label_draw_dsc.opa = dsc->bg_img_opa;
 358:lvgl/src/draw/lv_draw_rect.c ****         lv_draw_label(&a, clip, &label_draw_dsc, dsc->bg_img_src, NULL);
 359:lvgl/src/draw/lv_draw_rect.c ****     }
 360:lvgl/src/draw/lv_draw_rect.c ****     else {
 361:lvgl/src/draw/lv_draw_rect.c ****         lv_img_header_t header;
 362:lvgl/src/draw/lv_draw_rect.c ****         lv_res_t res = lv_img_decoder_get_info(dsc->bg_img_src, &header);
 363:lvgl/src/draw/lv_draw_rect.c ****         if(res != LV_RES_OK) {
 364:lvgl/src/draw/lv_draw_rect.c ****             LV_LOG_WARN("Coudn't read the background image");
 365:lvgl/src/draw/lv_draw_rect.c ****             return;
 366:lvgl/src/draw/lv_draw_rect.c ****         }
 367:lvgl/src/draw/lv_draw_rect.c **** 
 368:lvgl/src/draw/lv_draw_rect.c ****         lv_draw_img_dsc_t img_dsc;
 369:lvgl/src/draw/lv_draw_rect.c ****         lv_draw_img_dsc_init(&img_dsc);
 370:lvgl/src/draw/lv_draw_rect.c ****         img_dsc.blend_mode = dsc->blend_mode;
 371:lvgl/src/draw/lv_draw_rect.c ****         img_dsc.recolor = dsc->bg_img_recolor;
 372:lvgl/src/draw/lv_draw_rect.c ****         img_dsc.recolor_opa = dsc->bg_img_recolor_opa;
ARM GAS  /var/folders/k2/cd9bl_j17z77g23y6ffqb_400000gn/T//cc0jKSMI.s 			page 8


 373:lvgl/src/draw/lv_draw_rect.c ****         img_dsc.opa = dsc->bg_img_opa;
 374:lvgl/src/draw/lv_draw_rect.c **** 
 375:lvgl/src/draw/lv_draw_rect.c ****         /*Center align*/
 376:lvgl/src/draw/lv_draw_rect.c ****         if(dsc->bg_img_tiled == false) {
 377:lvgl/src/draw/lv_draw_rect.c ****             lv_area_t area;
 378:lvgl/src/draw/lv_draw_rect.c ****             area.x1 = coords->x1 + lv_area_get_width(coords) / 2 - header.w / 2;
 379:lvgl/src/draw/lv_draw_rect.c ****             area.y1 = coords->y1 + lv_area_get_height(coords) / 2 - header.h / 2;
 380:lvgl/src/draw/lv_draw_rect.c ****             area.x2 = area.x1 + header.w - 1;
 381:lvgl/src/draw/lv_draw_rect.c ****             area.y2 = area.y1 + header.h - 1;
 382:lvgl/src/draw/lv_draw_rect.c **** 
 383:lvgl/src/draw/lv_draw_rect.c ****             lv_draw_img(&area, clip, dsc->bg_img_src, &img_dsc);
 384:lvgl/src/draw/lv_draw_rect.c ****         } else {
 385:lvgl/src/draw/lv_draw_rect.c ****             lv_area_t area;
 386:lvgl/src/draw/lv_draw_rect.c ****             area.y1 = coords->y1;
 387:lvgl/src/draw/lv_draw_rect.c ****             area.y2 = area.y1 + header.h - 1;
 388:lvgl/src/draw/lv_draw_rect.c **** 
 389:lvgl/src/draw/lv_draw_rect.c ****             for(; area.y1 <= coords->y2; area.y1 += header.h, area.y2 += header.h) {
 390:lvgl/src/draw/lv_draw_rect.c **** 
 391:lvgl/src/draw/lv_draw_rect.c ****                 area.x1 = coords->x1;
 392:lvgl/src/draw/lv_draw_rect.c ****                 area.x2 = area.x1 + header.w - 1;
 393:lvgl/src/draw/lv_draw_rect.c ****                 for(; area.x1 <= coords->x2; area.x1 += header.w, area.x2 += header.w) {
 394:lvgl/src/draw/lv_draw_rect.c ****                     lv_draw_img(&area, clip, dsc->bg_img_src, &img_dsc);
 395:lvgl/src/draw/lv_draw_rect.c ****                 }
 396:lvgl/src/draw/lv_draw_rect.c ****             }
 397:lvgl/src/draw/lv_draw_rect.c ****         }
 398:lvgl/src/draw/lv_draw_rect.c ****     }
 399:lvgl/src/draw/lv_draw_rect.c **** }
 400:lvgl/src/draw/lv_draw_rect.c **** 
 401:lvgl/src/draw/lv_draw_rect.c **** LV_ATTRIBUTE_FAST_MEM static void draw_border(const lv_area_t * coords, const lv_area_t * clip,
 402:lvgl/src/draw/lv_draw_rect.c ****                                               const lv_draw_rect_dsc_t * dsc)
 403:lvgl/src/draw/lv_draw_rect.c **** {
 404:lvgl/src/draw/lv_draw_rect.c ****     if(dsc->border_opa <= LV_OPA_MIN) return;
 405:lvgl/src/draw/lv_draw_rect.c ****     if(dsc->border_width == 0) return;
 406:lvgl/src/draw/lv_draw_rect.c ****     if(dsc->border_side == LV_BORDER_SIDE_NONE) return;
 407:lvgl/src/draw/lv_draw_rect.c ****     if(dsc->border_post) return;
 408:lvgl/src/draw/lv_draw_rect.c **** 
 409:lvgl/src/draw/lv_draw_rect.c ****     int32_t coords_w = lv_area_get_width(coords);
 410:lvgl/src/draw/lv_draw_rect.c ****     int32_t coords_h = lv_area_get_height(coords);
 411:lvgl/src/draw/lv_draw_rect.c **** 
 412:lvgl/src/draw/lv_draw_rect.c ****     /*Get the real radius*/
 413:lvgl/src/draw/lv_draw_rect.c ****     int32_t rout = dsc->radius;
 414:lvgl/src/draw/lv_draw_rect.c ****     int32_t short_side = LV_MIN(coords_w, coords_h);
 415:lvgl/src/draw/lv_draw_rect.c ****     if(rout > short_side >> 1) rout = short_side >> 1;
 416:lvgl/src/draw/lv_draw_rect.c **** 
 417:lvgl/src/draw/lv_draw_rect.c ****     /*Get the inner area*/
 418:lvgl/src/draw/lv_draw_rect.c ****     lv_area_t area_inner;
 419:lvgl/src/draw/lv_draw_rect.c ****     lv_area_copy(&area_inner, coords);
 420:lvgl/src/draw/lv_draw_rect.c ****     area_inner.x1 += ((dsc->border_side & LV_BORDER_SIDE_LEFT) ? dsc->border_width : - (dsc->border
 421:lvgl/src/draw/lv_draw_rect.c ****     area_inner.x2 -= ((dsc->border_side & LV_BORDER_SIDE_RIGHT) ? dsc->border_width : - (dsc->borde
 422:lvgl/src/draw/lv_draw_rect.c ****     area_inner.y1 += ((dsc->border_side & LV_BORDER_SIDE_TOP) ? dsc->border_width : - (dsc->border_
 423:lvgl/src/draw/lv_draw_rect.c ****     area_inner.y2 -= ((dsc->border_side & LV_BORDER_SIDE_BOTTOM) ? dsc->border_width : - (dsc->bord
 424:lvgl/src/draw/lv_draw_rect.c **** 
 425:lvgl/src/draw/lv_draw_rect.c **** #if LV_DRAW_COMPLEX
 426:lvgl/src/draw/lv_draw_rect.c ****     if(dsc->border_side == LV_BORDER_SIDE_FULL) {
 427:lvgl/src/draw/lv_draw_rect.c ****         draw_full_border(&area_inner, coords, clip, dsc->radius, false, dsc->border_color, dsc->bor
 428:lvgl/src/draw/lv_draw_rect.c ****                          dsc->blend_mode);
 429:lvgl/src/draw/lv_draw_rect.c ****     }
ARM GAS  /var/folders/k2/cd9bl_j17z77g23y6ffqb_400000gn/T//cc0jKSMI.s 			page 9


 430:lvgl/src/draw/lv_draw_rect.c ****     else {
 431:lvgl/src/draw/lv_draw_rect.c ****         lv_opa_t opa = dsc->border_opa;
 432:lvgl/src/draw/lv_draw_rect.c ****         if(opa > LV_OPA_MAX) opa = LV_OPA_COVER;
 433:lvgl/src/draw/lv_draw_rect.c **** 
 434:lvgl/src/draw/lv_draw_rect.c ****         lv_disp_t * disp = _lv_refr_get_disp_refreshing();
 435:lvgl/src/draw/lv_draw_rect.c ****         lv_disp_draw_buf_t * draw_buf = lv_disp_get_draw_buf(disp);
 436:lvgl/src/draw/lv_draw_rect.c **** 
 437:lvgl/src/draw/lv_draw_rect.c ****         /*Get clipped fill area which is the real draw area.
 438:lvgl/src/draw/lv_draw_rect.c ****          *It is always the same or inside `fill_area`*/
 439:lvgl/src/draw/lv_draw_rect.c ****         lv_area_t draw_area;
 440:lvgl/src/draw/lv_draw_rect.c ****         bool is_common;
 441:lvgl/src/draw/lv_draw_rect.c ****         is_common = _lv_area_intersect(&draw_area, coords, clip);
 442:lvgl/src/draw/lv_draw_rect.c ****         if(is_common == false) return;
 443:lvgl/src/draw/lv_draw_rect.c **** 
 444:lvgl/src/draw/lv_draw_rect.c ****         const lv_area_t * disp_area = &draw_buf->area;
 445:lvgl/src/draw/lv_draw_rect.c **** 
 446:lvgl/src/draw/lv_draw_rect.c ****         /*Now `draw_area` has absolute coordinates.
 447:lvgl/src/draw/lv_draw_rect.c ****          *Make it relative to `disp_area` to simplify draw to `disp_buf`*/
 448:lvgl/src/draw/lv_draw_rect.c ****         draw_area.x1 -= disp_area->x1;
 449:lvgl/src/draw/lv_draw_rect.c ****         draw_area.y1 -= disp_area->y1;
 450:lvgl/src/draw/lv_draw_rect.c ****         draw_area.x2 -= disp_area->x1;
 451:lvgl/src/draw/lv_draw_rect.c ****         draw_area.y2 -= disp_area->y1;
 452:lvgl/src/draw/lv_draw_rect.c **** 
 453:lvgl/src/draw/lv_draw_rect.c ****         int32_t draw_area_w = lv_area_get_width(&draw_area);
 454:lvgl/src/draw/lv_draw_rect.c **** 
 455:lvgl/src/draw/lv_draw_rect.c ****         /*Create a mask if there is a radius*/
 456:lvgl/src/draw/lv_draw_rect.c ****         lv_opa_t * mask_buf = lv_mem_buf_get(draw_area_w);
 457:lvgl/src/draw/lv_draw_rect.c **** 
 458:lvgl/src/draw/lv_draw_rect.c ****         /*Create mask for the outer area*/
 459:lvgl/src/draw/lv_draw_rect.c ****         int16_t mask_rout_id = LV_MASK_ID_INV;
 460:lvgl/src/draw/lv_draw_rect.c ****         lv_draw_mask_radius_param_t mask_rout_param;
 461:lvgl/src/draw/lv_draw_rect.c ****         if(rout > 0) {
 462:lvgl/src/draw/lv_draw_rect.c ****             lv_draw_mask_radius_init(&mask_rout_param, coords, rout, false);
 463:lvgl/src/draw/lv_draw_rect.c ****             mask_rout_id = lv_draw_mask_add(&mask_rout_param, NULL);
 464:lvgl/src/draw/lv_draw_rect.c ****         }
 465:lvgl/src/draw/lv_draw_rect.c **** 
 466:lvgl/src/draw/lv_draw_rect.c ****         /*Create mask for the inner mask*/
 467:lvgl/src/draw/lv_draw_rect.c ****         int32_t rin = rout - dsc->border_width;
 468:lvgl/src/draw/lv_draw_rect.c ****         if(rin < 0) rin = 0;
 469:lvgl/src/draw/lv_draw_rect.c ****         lv_draw_mask_radius_param_t mask_rin_param;
 470:lvgl/src/draw/lv_draw_rect.c ****         lv_draw_mask_radius_init(&mask_rin_param, &area_inner, rout - dsc->border_width, true);
 471:lvgl/src/draw/lv_draw_rect.c ****         int16_t mask_rin_id = lv_draw_mask_add(&mask_rin_param, NULL);
 472:lvgl/src/draw/lv_draw_rect.c **** 
 473:lvgl/src/draw/lv_draw_rect.c ****         int32_t corner_size = LV_MAX(rout, dsc->border_width - 1);
 474:lvgl/src/draw/lv_draw_rect.c **** 
 475:lvgl/src/draw/lv_draw_rect.c ****         int32_t h;
 476:lvgl/src/draw/lv_draw_rect.c ****         lv_draw_mask_res_t mask_res;
 477:lvgl/src/draw/lv_draw_rect.c ****         lv_area_t fill_area;
 478:lvgl/src/draw/lv_draw_rect.c **** 
 479:lvgl/src/draw/lv_draw_rect.c ****         lv_color_t color = dsc->border_color;
 480:lvgl/src/draw/lv_draw_rect.c ****         lv_blend_mode_t blend_mode = dsc->blend_mode;
 481:lvgl/src/draw/lv_draw_rect.c **** 
 482:lvgl/src/draw/lv_draw_rect.c ****         fill_area.x1 = coords->x1;
 483:lvgl/src/draw/lv_draw_rect.c ****         fill_area.x2 = coords->x2;
 484:lvgl/src/draw/lv_draw_rect.c ****         fill_area.y1 = disp_area->y1 + draw_area.y1;
 485:lvgl/src/draw/lv_draw_rect.c ****         fill_area.y2 = fill_area.y1;
 486:lvgl/src/draw/lv_draw_rect.c **** 
ARM GAS  /var/folders/k2/cd9bl_j17z77g23y6ffqb_400000gn/T//cc0jKSMI.s 			page 10


 487:lvgl/src/draw/lv_draw_rect.c ****         if(dsc->border_side == LV_BORDER_SIDE_LEFT) fill_area.x2 = coords->x1 + corner_size;
 488:lvgl/src/draw/lv_draw_rect.c **** 
 489:lvgl/src/draw/lv_draw_rect.c ****         volatile bool top_only = false;
 490:lvgl/src/draw/lv_draw_rect.c ****         volatile bool bottom_only = false;
 491:lvgl/src/draw/lv_draw_rect.c ****         if(dsc->border_side == LV_BORDER_SIDE_TOP) top_only = true;
 492:lvgl/src/draw/lv_draw_rect.c ****         if(dsc->border_side == LV_BORDER_SIDE_BOTTOM) bottom_only = true;
 493:lvgl/src/draw/lv_draw_rect.c ****         if(dsc->border_side == (LV_BORDER_SIDE_TOP | LV_BORDER_SIDE_BOTTOM)) {
 494:lvgl/src/draw/lv_draw_rect.c ****             top_only = true;
 495:lvgl/src/draw/lv_draw_rect.c ****             bottom_only = true;
 496:lvgl/src/draw/lv_draw_rect.c ****         }
 497:lvgl/src/draw/lv_draw_rect.c **** 
 498:lvgl/src/draw/lv_draw_rect.c ****         volatile bool normal = !top_only && !bottom_only ? true : false;
 499:lvgl/src/draw/lv_draw_rect.c **** 
 500:lvgl/src/draw/lv_draw_rect.c ****         for(h = draw_area.y1; h <= draw_area.y2; h++) {
 501:lvgl/src/draw/lv_draw_rect.c ****             if(normal ||
 502:lvgl/src/draw/lv_draw_rect.c ****                (top_only && fill_area.y1 <= coords->y1 + corner_size) ||
 503:lvgl/src/draw/lv_draw_rect.c ****                (bottom_only && fill_area.y1 >= coords->y2 - corner_size)) {
 504:lvgl/src/draw/lv_draw_rect.c ****                 lv_memset_ff(mask_buf, draw_area_w);
 505:lvgl/src/draw/lv_draw_rect.c ****                 mask_res = lv_draw_mask_apply(mask_buf, draw_buf->area.x1 + draw_area.x1, draw_buf-
 506:lvgl/src/draw/lv_draw_rect.c ****                 _lv_blend_fill(clip, &fill_area, color, mask_buf, mask_res, opa, blend_mode);
 507:lvgl/src/draw/lv_draw_rect.c ****             }
 508:lvgl/src/draw/lv_draw_rect.c ****             fill_area.y1++;
 509:lvgl/src/draw/lv_draw_rect.c ****             fill_area.y2++;
 510:lvgl/src/draw/lv_draw_rect.c **** 
 511:lvgl/src/draw/lv_draw_rect.c ****         }
 512:lvgl/src/draw/lv_draw_rect.c ****         lv_draw_mask_remove_id(mask_rin_id);
 513:lvgl/src/draw/lv_draw_rect.c ****         lv_draw_mask_remove_id(mask_rout_id);
 514:lvgl/src/draw/lv_draw_rect.c ****         lv_mem_buf_release(mask_buf);
 515:lvgl/src/draw/lv_draw_rect.c ****     }
 516:lvgl/src/draw/lv_draw_rect.c **** #else /*LV_DRAW_COMPLEX*/
 517:lvgl/src/draw/lv_draw_rect.c ****     draw_simple_border(clip, &area_inner, coords, dsc->border_color, dsc->border_opa, dsc->border_s
 518:lvgl/src/draw/lv_draw_rect.c **** #endif
 519:lvgl/src/draw/lv_draw_rect.c **** }
 520:lvgl/src/draw/lv_draw_rect.c **** 
 521:lvgl/src/draw/lv_draw_rect.c **** #if LV_DRAW_COMPLEX
 522:lvgl/src/draw/lv_draw_rect.c **** LV_ATTRIBUTE_FAST_MEM static inline lv_color_t grad_get(const lv_draw_rect_dsc_t * dsc, lv_coord_t 
 523:lvgl/src/draw/lv_draw_rect.c **** {
 524:lvgl/src/draw/lv_draw_rect.c ****     int32_t min = (dsc->bg_main_color_stop * s) >> 8;
 525:lvgl/src/draw/lv_draw_rect.c ****     if(i <= min) return dsc->bg_color;
 526:lvgl/src/draw/lv_draw_rect.c **** 
 527:lvgl/src/draw/lv_draw_rect.c ****     int32_t max = (dsc->bg_grad_color_stop * s) >> 8;
 528:lvgl/src/draw/lv_draw_rect.c ****     if(i >= max) return dsc->bg_grad_color;
 529:lvgl/src/draw/lv_draw_rect.c **** 
 530:lvgl/src/draw/lv_draw_rect.c ****     int32_t d = dsc->bg_grad_color_stop - dsc->bg_main_color_stop;
 531:lvgl/src/draw/lv_draw_rect.c ****     d = (s * d) >> 8;
 532:lvgl/src/draw/lv_draw_rect.c ****     i -= min;
 533:lvgl/src/draw/lv_draw_rect.c ****     lv_opa_t mix = (i * 255) / d;
 534:lvgl/src/draw/lv_draw_rect.c ****     return lv_color_mix(dsc->bg_grad_color, dsc->bg_color, mix);
 535:lvgl/src/draw/lv_draw_rect.c **** }
 536:lvgl/src/draw/lv_draw_rect.c **** 
 537:lvgl/src/draw/lv_draw_rect.c **** LV_ATTRIBUTE_FAST_MEM static void draw_shadow(const lv_area_t * coords, const lv_area_t * clip,
 538:lvgl/src/draw/lv_draw_rect.c ****                                               const lv_draw_rect_dsc_t * dsc)
 539:lvgl/src/draw/lv_draw_rect.c **** {
 540:lvgl/src/draw/lv_draw_rect.c ****     /*Check whether the shadow is visible*/
 541:lvgl/src/draw/lv_draw_rect.c ****     if(dsc->shadow_width == 0) return;
 542:lvgl/src/draw/lv_draw_rect.c ****     if(dsc->shadow_opa <= LV_OPA_MIN) return;
 543:lvgl/src/draw/lv_draw_rect.c **** 
ARM GAS  /var/folders/k2/cd9bl_j17z77g23y6ffqb_400000gn/T//cc0jKSMI.s 			page 11


 544:lvgl/src/draw/lv_draw_rect.c ****     if(dsc->shadow_width == 1 && dsc->shadow_ofs_x == 0 &&
 545:lvgl/src/draw/lv_draw_rect.c ****        dsc->shadow_ofs_y == 0 && dsc->shadow_spread <= 0) {
 546:lvgl/src/draw/lv_draw_rect.c ****         return;
 547:lvgl/src/draw/lv_draw_rect.c ****     }
 548:lvgl/src/draw/lv_draw_rect.c **** 
 549:lvgl/src/draw/lv_draw_rect.c ****     int32_t sw = dsc->shadow_width;
 550:lvgl/src/draw/lv_draw_rect.c **** 
 551:lvgl/src/draw/lv_draw_rect.c ****     lv_area_t sh_rect_area;
 552:lvgl/src/draw/lv_draw_rect.c ****     sh_rect_area.x1 = coords->x1  + dsc->shadow_ofs_x - dsc->shadow_spread;
 553:lvgl/src/draw/lv_draw_rect.c ****     sh_rect_area.x2 = coords->x2  + dsc->shadow_ofs_x + dsc->shadow_spread;
 554:lvgl/src/draw/lv_draw_rect.c ****     sh_rect_area.y1 = coords->y1  + dsc->shadow_ofs_y - dsc->shadow_spread;
 555:lvgl/src/draw/lv_draw_rect.c ****     sh_rect_area.y2 = coords->y2  + dsc->shadow_ofs_y + dsc->shadow_spread;
 556:lvgl/src/draw/lv_draw_rect.c **** 
 557:lvgl/src/draw/lv_draw_rect.c ****     lv_area_t sh_area;
 558:lvgl/src/draw/lv_draw_rect.c ****     sh_area.x1 = sh_rect_area.x1 - sw / 2 - 1;
 559:lvgl/src/draw/lv_draw_rect.c ****     sh_area.x2 = sh_rect_area.x2 + sw / 2 + 1;
 560:lvgl/src/draw/lv_draw_rect.c ****     sh_area.y1 = sh_rect_area.y1 - sw / 2 - 1;
 561:lvgl/src/draw/lv_draw_rect.c ****     sh_area.y2 = sh_rect_area.y2 + sw / 2 + 1;
 562:lvgl/src/draw/lv_draw_rect.c **** 
 563:lvgl/src/draw/lv_draw_rect.c ****     lv_opa_t opa = dsc->shadow_opa;
 564:lvgl/src/draw/lv_draw_rect.c **** 
 565:lvgl/src/draw/lv_draw_rect.c ****     if(opa > LV_OPA_MAX) opa = LV_OPA_COVER;
 566:lvgl/src/draw/lv_draw_rect.c **** 
 567:lvgl/src/draw/lv_draw_rect.c ****     lv_disp_t * disp = _lv_refr_get_disp_refreshing();
 568:lvgl/src/draw/lv_draw_rect.c ****     lv_disp_draw_buf_t * draw_buf = lv_disp_get_draw_buf(disp);
 569:lvgl/src/draw/lv_draw_rect.c **** 
 570:lvgl/src/draw/lv_draw_rect.c ****     /*Get clipped fill area which is the real draw area.
 571:lvgl/src/draw/lv_draw_rect.c ****      *It is always the same or inside `fill_area`*/
 572:lvgl/src/draw/lv_draw_rect.c ****     lv_area_t draw_area;
 573:lvgl/src/draw/lv_draw_rect.c ****     bool is_common;
 574:lvgl/src/draw/lv_draw_rect.c ****     is_common = _lv_area_intersect(&draw_area, &sh_area, clip);
 575:lvgl/src/draw/lv_draw_rect.c ****     if(is_common == false) return;
 576:lvgl/src/draw/lv_draw_rect.c **** 
 577:lvgl/src/draw/lv_draw_rect.c ****     const lv_area_t * disp_area = &draw_buf->area;
 578:lvgl/src/draw/lv_draw_rect.c **** 
 579:lvgl/src/draw/lv_draw_rect.c ****     /*Now `draw_area` has absolute coordinates.
 580:lvgl/src/draw/lv_draw_rect.c ****      *Make it relative to `disp_area` to simplify draw to `disp_buf`*/
 581:lvgl/src/draw/lv_draw_rect.c ****     draw_area.x1 -= disp_area->x1;
 582:lvgl/src/draw/lv_draw_rect.c ****     draw_area.y1 -= disp_area->y1;
 583:lvgl/src/draw/lv_draw_rect.c ****     draw_area.x2 -= disp_area->x1;
 584:lvgl/src/draw/lv_draw_rect.c ****     draw_area.y2 -= disp_area->y1;
 585:lvgl/src/draw/lv_draw_rect.c **** 
 586:lvgl/src/draw/lv_draw_rect.c ****     /*Consider 1 px smaller bg to be sure the edge will be covered by the shadow*/
 587:lvgl/src/draw/lv_draw_rect.c ****     lv_area_t bg_coords;
 588:lvgl/src/draw/lv_draw_rect.c ****     lv_area_copy(&bg_coords, coords);
 589:lvgl/src/draw/lv_draw_rect.c ****     bg_coords.x1 += 1;
 590:lvgl/src/draw/lv_draw_rect.c ****     bg_coords.y1 += 1;
 591:lvgl/src/draw/lv_draw_rect.c ****     bg_coords.x2 -= 1;
 592:lvgl/src/draw/lv_draw_rect.c ****     bg_coords.y2 -= 1;
 593:lvgl/src/draw/lv_draw_rect.c **** 
 594:lvgl/src/draw/lv_draw_rect.c ****     /*Get the real radius*/
 595:lvgl/src/draw/lv_draw_rect.c ****     int32_t r_bg = dsc->radius;
 596:lvgl/src/draw/lv_draw_rect.c ****     int32_t short_side = LV_MIN(lv_area_get_width(&bg_coords), lv_area_get_height(&bg_coords));
 597:lvgl/src/draw/lv_draw_rect.c ****     if(r_bg > short_side >> 1) r_bg = short_side >> 1;
 598:lvgl/src/draw/lv_draw_rect.c **** 
 599:lvgl/src/draw/lv_draw_rect.c ****     int32_t r_sh = dsc->radius;
 600:lvgl/src/draw/lv_draw_rect.c ****     short_side = LV_MIN(lv_area_get_width(&sh_rect_area), lv_area_get_height(&sh_rect_area));
ARM GAS  /var/folders/k2/cd9bl_j17z77g23y6ffqb_400000gn/T//cc0jKSMI.s 			page 12


 601:lvgl/src/draw/lv_draw_rect.c ****     if(r_sh > short_side >> 1) r_sh = short_side >> 1;
 602:lvgl/src/draw/lv_draw_rect.c **** 
 603:lvgl/src/draw/lv_draw_rect.c ****     int32_t corner_size = sw  + r_sh;
 604:lvgl/src/draw/lv_draw_rect.c **** 
 605:lvgl/src/draw/lv_draw_rect.c ****     lv_opa_t * sh_buf;
 606:lvgl/src/draw/lv_draw_rect.c **** 
 607:lvgl/src/draw/lv_draw_rect.c **** #if LV_SHADOW_CACHE_SIZE
 608:lvgl/src/draw/lv_draw_rect.c ****     if(sh_cache_size == corner_size && sh_cache_r == r_sh) {
 609:lvgl/src/draw/lv_draw_rect.c ****         /*Use the cache if available*/
 610:lvgl/src/draw/lv_draw_rect.c ****         sh_buf = lv_mem_buf_get(corner_size * corner_size);
 611:lvgl/src/draw/lv_draw_rect.c ****         lv_memcpy(sh_buf, sh_cache, corner_size * corner_size);
 612:lvgl/src/draw/lv_draw_rect.c ****     }
 613:lvgl/src/draw/lv_draw_rect.c ****     else {
 614:lvgl/src/draw/lv_draw_rect.c ****         /*A larger buffer is required for calculation*/
 615:lvgl/src/draw/lv_draw_rect.c ****         sh_buf = lv_mem_buf_get(corner_size * corner_size * sizeof(uint16_t));
 616:lvgl/src/draw/lv_draw_rect.c ****         shadow_draw_corner_buf(&sh_rect_area, (uint16_t *)sh_buf, dsc->shadow_width, r_sh);
 617:lvgl/src/draw/lv_draw_rect.c **** 
 618:lvgl/src/draw/lv_draw_rect.c ****         /*Cache the corner if it fits into the cache size*/
 619:lvgl/src/draw/lv_draw_rect.c ****         if((uint32_t)corner_size * corner_size < sizeof(sh_cache)) {
 620:lvgl/src/draw/lv_draw_rect.c ****             lv_memcpy(sh_cache, sh_buf, corner_size * corner_size);
 621:lvgl/src/draw/lv_draw_rect.c ****             sh_cache_size = corner_size;
 622:lvgl/src/draw/lv_draw_rect.c ****             sh_cache_r = r_sh;
 623:lvgl/src/draw/lv_draw_rect.c ****         }
 624:lvgl/src/draw/lv_draw_rect.c ****     }
 625:lvgl/src/draw/lv_draw_rect.c **** #else
 626:lvgl/src/draw/lv_draw_rect.c ****     sh_buf = lv_mem_buf_get(corner_size * corner_size * sizeof(uint16_t));
 627:lvgl/src/draw/lv_draw_rect.c ****     shadow_draw_corner_buf(&sh_rect_area, (uint16_t *)sh_buf, dsc->shadow_width, r_sh);
 628:lvgl/src/draw/lv_draw_rect.c **** #endif
 629:lvgl/src/draw/lv_draw_rect.c **** 
 630:lvgl/src/draw/lv_draw_rect.c ****     lv_coord_t h_half = sh_area.y1 + lv_area_get_height(&sh_area) / 2;
 631:lvgl/src/draw/lv_draw_rect.c ****     lv_coord_t w_half = sh_area.x1 + lv_area_get_width(&sh_area) / 2;
 632:lvgl/src/draw/lv_draw_rect.c **** 
 633:lvgl/src/draw/lv_draw_rect.c ****     bool simple_mode = true;
 634:lvgl/src/draw/lv_draw_rect.c ****     if(lv_draw_mask_get_cnt() > 0) simple_mode = false;
 635:lvgl/src/draw/lv_draw_rect.c ****     else if(dsc->shadow_ofs_x != 0 || dsc->shadow_ofs_y != 0) simple_mode = false;
 636:lvgl/src/draw/lv_draw_rect.c ****     else if(dsc->shadow_spread != 0) simple_mode = false;
 637:lvgl/src/draw/lv_draw_rect.c **** 
 638:lvgl/src/draw/lv_draw_rect.c ****     /*Create a mask*/
 639:lvgl/src/draw/lv_draw_rect.c ****     lv_draw_mask_res_t mask_res;
 640:lvgl/src/draw/lv_draw_rect.c ****     lv_opa_t * mask_buf = lv_mem_buf_get(lv_area_get_width(&sh_area));
 641:lvgl/src/draw/lv_draw_rect.c **** 
 642:lvgl/src/draw/lv_draw_rect.c ****     lv_draw_mask_radius_param_t mask_rout_param;
 643:lvgl/src/draw/lv_draw_rect.c ****     lv_draw_mask_radius_init(&mask_rout_param, &bg_coords, r_bg, true);
 644:lvgl/src/draw/lv_draw_rect.c **** 
 645:lvgl/src/draw/lv_draw_rect.c ****     int16_t mask_rout_id = lv_draw_mask_add(&mask_rout_param, NULL);
 646:lvgl/src/draw/lv_draw_rect.c **** 
 647:lvgl/src/draw/lv_draw_rect.c ****     lv_area_t a;
 648:lvgl/src/draw/lv_draw_rect.c **** 
 649:lvgl/src/draw/lv_draw_rect.c ****     /*Draw the top right corner*/
 650:lvgl/src/draw/lv_draw_rect.c ****     int32_t y;
 651:lvgl/src/draw/lv_draw_rect.c ****     lv_opa_t * sh_buf_tmp;
 652:lvgl/src/draw/lv_draw_rect.c ****     a.x2 = sh_area.x2;
 653:lvgl/src/draw/lv_draw_rect.c ****     a.x1 = a.x2 - corner_size + 1;
 654:lvgl/src/draw/lv_draw_rect.c ****     a.y1 = sh_area.y1;
 655:lvgl/src/draw/lv_draw_rect.c ****     a.y2 = a.y1 + corner_size - 1;
 656:lvgl/src/draw/lv_draw_rect.c **** 
 657:lvgl/src/draw/lv_draw_rect.c ****     lv_area_t ca;
ARM GAS  /var/folders/k2/cd9bl_j17z77g23y6ffqb_400000gn/T//cc0jKSMI.s 			page 13


 658:lvgl/src/draw/lv_draw_rect.c ****     bool has_com = _lv_area_intersect(&ca, &a, clip);
 659:lvgl/src/draw/lv_draw_rect.c ****     if(has_com && _lv_area_is_in(&a, &bg_coords, r_bg) == false) {
 660:lvgl/src/draw/lv_draw_rect.c ****         /*Avoid overlap in the middle with large radius*/
 661:lvgl/src/draw/lv_draw_rect.c ****         if(ca.y2 > h_half) ca.y2 = h_half;
 662:lvgl/src/draw/lv_draw_rect.c ****         if(ca.x1 <= w_half) ca.x1 = w_half + 1;
 663:lvgl/src/draw/lv_draw_rect.c **** 
 664:lvgl/src/draw/lv_draw_rect.c ****         lv_coord_t h = lv_area_get_height(&ca);
 665:lvgl/src/draw/lv_draw_rect.c ****         lv_coord_t w = lv_area_get_width(&ca);
 666:lvgl/src/draw/lv_draw_rect.c ****         if(w > 0) {
 667:lvgl/src/draw/lv_draw_rect.c ****             sh_buf_tmp = sh_buf + (ca.x1 - a.x1);
 668:lvgl/src/draw/lv_draw_rect.c ****             sh_buf_tmp += corner_size * (ca.y1 - a.y1);
 669:lvgl/src/draw/lv_draw_rect.c **** 
 670:lvgl/src/draw/lv_draw_rect.c ****             lv_area_t fa;
 671:lvgl/src/draw/lv_draw_rect.c ****             lv_area_copy(&fa, &ca);
 672:lvgl/src/draw/lv_draw_rect.c ****             fa.y2 = fa.y1;
 673:lvgl/src/draw/lv_draw_rect.c **** 
 674:lvgl/src/draw/lv_draw_rect.c ****             for(y = 0; y < h; y++) {
 675:lvgl/src/draw/lv_draw_rect.c ****                 lv_memcpy(mask_buf, sh_buf_tmp, w);
 676:lvgl/src/draw/lv_draw_rect.c ****                 mask_res = lv_draw_mask_apply(mask_buf, fa.x1, fa.y1, w);
 677:lvgl/src/draw/lv_draw_rect.c ****                 if(mask_res == LV_DRAW_MASK_RES_FULL_COVER) mask_res = LV_DRAW_MASK_RES_CHANGED;
 678:lvgl/src/draw/lv_draw_rect.c **** 
 679:lvgl/src/draw/lv_draw_rect.c ****                 _lv_blend_fill(clip, &fa, dsc->shadow_color, mask_buf,
 680:lvgl/src/draw/lv_draw_rect.c ****                                mask_res, opa, dsc->blend_mode);
 681:lvgl/src/draw/lv_draw_rect.c ****                 fa.y1++;
 682:lvgl/src/draw/lv_draw_rect.c ****                 fa.y2++;
 683:lvgl/src/draw/lv_draw_rect.c ****                 sh_buf_tmp += corner_size;
 684:lvgl/src/draw/lv_draw_rect.c ****             }
 685:lvgl/src/draw/lv_draw_rect.c ****         }
 686:lvgl/src/draw/lv_draw_rect.c ****     }
 687:lvgl/src/draw/lv_draw_rect.c **** 
 688:lvgl/src/draw/lv_draw_rect.c ****     /*Draw the bottom right corner*/
 689:lvgl/src/draw/lv_draw_rect.c ****     a.x2 = sh_area.x2;
 690:lvgl/src/draw/lv_draw_rect.c ****     a.x1 = a.x2 - corner_size + 1;
 691:lvgl/src/draw/lv_draw_rect.c ****     a.y1 = sh_area.y2 - corner_size + 1;
 692:lvgl/src/draw/lv_draw_rect.c ****     a.y2 = sh_area.y2;
 693:lvgl/src/draw/lv_draw_rect.c **** 
 694:lvgl/src/draw/lv_draw_rect.c ****     has_com = _lv_area_intersect(&ca, &a, clip);
 695:lvgl/src/draw/lv_draw_rect.c ****     if(has_com && _lv_area_is_in(&a, &bg_coords, r_bg) == false) {
 696:lvgl/src/draw/lv_draw_rect.c ****         /*Avoid overlap in the middle with large radius*/
 697:lvgl/src/draw/lv_draw_rect.c ****         if(ca.y1 <= h_half) ca.y1 = h_half;
 698:lvgl/src/draw/lv_draw_rect.c ****         if(ca.x1 <= w_half) ca.x1 = w_half;
 699:lvgl/src/draw/lv_draw_rect.c **** 
 700:lvgl/src/draw/lv_draw_rect.c ****         lv_coord_t h = lv_area_get_height(&ca);
 701:lvgl/src/draw/lv_draw_rect.c ****         lv_coord_t w = lv_area_get_width(&ca);
 702:lvgl/src/draw/lv_draw_rect.c **** 
 703:lvgl/src/draw/lv_draw_rect.c ****         if(w > 0) {
 704:lvgl/src/draw/lv_draw_rect.c ****             sh_buf_tmp = sh_buf + (ca.x1 - a.x1);
 705:lvgl/src/draw/lv_draw_rect.c ****             sh_buf_tmp += corner_size * (a.y2 - ca.y2);
 706:lvgl/src/draw/lv_draw_rect.c **** 
 707:lvgl/src/draw/lv_draw_rect.c ****             lv_area_t fa;
 708:lvgl/src/draw/lv_draw_rect.c ****             lv_area_copy(&fa, &ca);
 709:lvgl/src/draw/lv_draw_rect.c ****             fa.y1 = fa.y2;    /*Fill from bottom to top*/
 710:lvgl/src/draw/lv_draw_rect.c **** 
 711:lvgl/src/draw/lv_draw_rect.c ****             for(y = 0; y < h; y++) {
 712:lvgl/src/draw/lv_draw_rect.c ****                 lv_memcpy(mask_buf, sh_buf_tmp, w);
 713:lvgl/src/draw/lv_draw_rect.c ****                 mask_res = lv_draw_mask_apply(mask_buf, fa.x1, fa.y1, w);
 714:lvgl/src/draw/lv_draw_rect.c ****                 if(mask_res == LV_DRAW_MASK_RES_FULL_COVER) mask_res = LV_DRAW_MASK_RES_CHANGED;
ARM GAS  /var/folders/k2/cd9bl_j17z77g23y6ffqb_400000gn/T//cc0jKSMI.s 			page 14


 715:lvgl/src/draw/lv_draw_rect.c **** 
 716:lvgl/src/draw/lv_draw_rect.c ****                 _lv_blend_fill(clip, &fa, dsc->shadow_color, mask_buf,
 717:lvgl/src/draw/lv_draw_rect.c ****                                mask_res, opa, dsc->blend_mode);
 718:lvgl/src/draw/lv_draw_rect.c ****                 fa.y1--;
 719:lvgl/src/draw/lv_draw_rect.c ****                 fa.y2--;
 720:lvgl/src/draw/lv_draw_rect.c ****                 sh_buf_tmp += corner_size;
 721:lvgl/src/draw/lv_draw_rect.c ****             }
 722:lvgl/src/draw/lv_draw_rect.c ****         }
 723:lvgl/src/draw/lv_draw_rect.c ****     }
 724:lvgl/src/draw/lv_draw_rect.c **** 
 725:lvgl/src/draw/lv_draw_rect.c ****     /*Fill the right side*/
 726:lvgl/src/draw/lv_draw_rect.c ****     a.x2 = sh_area.x2;
 727:lvgl/src/draw/lv_draw_rect.c ****     a.x1 = a.x2 - corner_size + 1;
 728:lvgl/src/draw/lv_draw_rect.c ****     a.y1 = sh_area.y1 + corner_size;
 729:lvgl/src/draw/lv_draw_rect.c ****     a.y2 = sh_area.y2 - corner_size;
 730:lvgl/src/draw/lv_draw_rect.c **** 
 731:lvgl/src/draw/lv_draw_rect.c ****     has_com = _lv_area_intersect(&ca, &a, clip);
 732:lvgl/src/draw/lv_draw_rect.c ****     if(has_com && _lv_area_is_in(&a, &bg_coords, r_bg) == false) {
 733:lvgl/src/draw/lv_draw_rect.c ****         /*Avoid overlap in the middle with large radius*/
 734:lvgl/src/draw/lv_draw_rect.c ****         if(ca.x1 <= w_half) ca.x1 = w_half + 1;
 735:lvgl/src/draw/lv_draw_rect.c **** 
 736:lvgl/src/draw/lv_draw_rect.c ****         if(simple_mode) ca.x1 = LV_MAX(ca.x1, coords->x2);
 737:lvgl/src/draw/lv_draw_rect.c **** 
 738:lvgl/src/draw/lv_draw_rect.c ****         /*Draw horizontal lines*/
 739:lvgl/src/draw/lv_draw_rect.c ****         lv_coord_t w = lv_area_get_width(&ca);
 740:lvgl/src/draw/lv_draw_rect.c ****         if(w > 0) {
 741:lvgl/src/draw/lv_draw_rect.c ****             lv_coord_t h = lv_area_get_height(&ca);
 742:lvgl/src/draw/lv_draw_rect.c **** 
 743:lvgl/src/draw/lv_draw_rect.c ****             /*The last line of the shadow is repeated on the side*/
 744:lvgl/src/draw/lv_draw_rect.c ****             sh_buf_tmp = sh_buf + corner_size * (corner_size - 1);
 745:lvgl/src/draw/lv_draw_rect.c ****             sh_buf_tmp += ca.x1 - a.x1;
 746:lvgl/src/draw/lv_draw_rect.c **** 
 747:lvgl/src/draw/lv_draw_rect.c ****             lv_area_t fa;
 748:lvgl/src/draw/lv_draw_rect.c ****             lv_area_copy(&fa, &ca);
 749:lvgl/src/draw/lv_draw_rect.c ****             fa.y2 = fa.y1;
 750:lvgl/src/draw/lv_draw_rect.c ****             mask_res = LV_DRAW_MASK_RES_FULL_COVER;
 751:lvgl/src/draw/lv_draw_rect.c ****             for(y = 0; y < h; y++) {
 752:lvgl/src/draw/lv_draw_rect.c ****                 lv_memcpy(mask_buf, sh_buf_tmp, w);
 753:lvgl/src/draw/lv_draw_rect.c **** 
 754:lvgl/src/draw/lv_draw_rect.c ****                 if(simple_mode) {
 755:lvgl/src/draw/lv_draw_rect.c ****                     mask_res = LV_DRAW_MASK_RES_CHANGED;
 756:lvgl/src/draw/lv_draw_rect.c ****                 }
 757:lvgl/src/draw/lv_draw_rect.c ****                 else {
 758:lvgl/src/draw/lv_draw_rect.c ****                     mask_res = lv_draw_mask_apply(mask_buf, fa.x1, fa.y1, w);
 759:lvgl/src/draw/lv_draw_rect.c ****                     if(mask_res == LV_DRAW_MASK_RES_FULL_COVER) mask_res = LV_DRAW_MASK_RES_CHANGED
 760:lvgl/src/draw/lv_draw_rect.c ****                 }
 761:lvgl/src/draw/lv_draw_rect.c **** 
 762:lvgl/src/draw/lv_draw_rect.c ****                 _lv_blend_fill(clip, &fa,
 763:lvgl/src/draw/lv_draw_rect.c ****                                dsc->shadow_color, mask_buf, mask_res, dsc->shadow_opa, dsc->blend_m
 764:lvgl/src/draw/lv_draw_rect.c ****                 fa.y1++;
 765:lvgl/src/draw/lv_draw_rect.c ****                 fa.y2++;
 766:lvgl/src/draw/lv_draw_rect.c ****             }
 767:lvgl/src/draw/lv_draw_rect.c ****         }
 768:lvgl/src/draw/lv_draw_rect.c ****     }
 769:lvgl/src/draw/lv_draw_rect.c **** 
 770:lvgl/src/draw/lv_draw_rect.c ****     /*Invert the shadow corner buffer and draw the corners on the left*/
 771:lvgl/src/draw/lv_draw_rect.c ****     sh_buf_tmp = sh_buf ;
ARM GAS  /var/folders/k2/cd9bl_j17z77g23y6ffqb_400000gn/T//cc0jKSMI.s 			page 15


 772:lvgl/src/draw/lv_draw_rect.c ****     for(y = 0; y < corner_size; y++) {
 773:lvgl/src/draw/lv_draw_rect.c ****         int32_t x;
 774:lvgl/src/draw/lv_draw_rect.c ****         for(x = 0; x < corner_size / 2; x++) {
 775:lvgl/src/draw/lv_draw_rect.c ****             lv_opa_t tmp = sh_buf_tmp[x];
 776:lvgl/src/draw/lv_draw_rect.c ****             sh_buf_tmp[x] = sh_buf_tmp[corner_size - x - 1];
 777:lvgl/src/draw/lv_draw_rect.c ****             sh_buf_tmp[corner_size - x - 1] = tmp;
 778:lvgl/src/draw/lv_draw_rect.c ****         }
 779:lvgl/src/draw/lv_draw_rect.c ****         sh_buf_tmp += corner_size;
 780:lvgl/src/draw/lv_draw_rect.c ****     }
 781:lvgl/src/draw/lv_draw_rect.c **** 
 782:lvgl/src/draw/lv_draw_rect.c ****     /*Draw the top left corner*/
 783:lvgl/src/draw/lv_draw_rect.c ****     a.x1 = sh_area.x1;
 784:lvgl/src/draw/lv_draw_rect.c ****     a.x2 = a.x1 + corner_size - 1;
 785:lvgl/src/draw/lv_draw_rect.c ****     a.y1 = sh_area.y1;
 786:lvgl/src/draw/lv_draw_rect.c ****     a.y2 = a.y1 + corner_size - 1;
 787:lvgl/src/draw/lv_draw_rect.c **** 
 788:lvgl/src/draw/lv_draw_rect.c ****     has_com = _lv_area_intersect(&ca, &a, clip);
 789:lvgl/src/draw/lv_draw_rect.c ****     if(has_com && _lv_area_is_in(&a, &bg_coords, r_bg) == false) {
 790:lvgl/src/draw/lv_draw_rect.c ****         /*Avoid overlap in the middle with large radius*/
 791:lvgl/src/draw/lv_draw_rect.c ****         if(ca.y2 > h_half) ca.y2 = h_half;
 792:lvgl/src/draw/lv_draw_rect.c ****         if(ca.x2 > w_half) ca.x2 = w_half;
 793:lvgl/src/draw/lv_draw_rect.c **** 
 794:lvgl/src/draw/lv_draw_rect.c ****         lv_coord_t h = lv_area_get_height(&ca);
 795:lvgl/src/draw/lv_draw_rect.c ****         lv_coord_t w = lv_area_get_width(&ca);
 796:lvgl/src/draw/lv_draw_rect.c ****         if(w > 0) {
 797:lvgl/src/draw/lv_draw_rect.c ****             sh_buf_tmp = sh_buf + (ca.x1 - a.x1);
 798:lvgl/src/draw/lv_draw_rect.c ****             sh_buf_tmp += corner_size * (ca.y1 - a.y1);
 799:lvgl/src/draw/lv_draw_rect.c **** 
 800:lvgl/src/draw/lv_draw_rect.c ****             lv_area_t fa;
 801:lvgl/src/draw/lv_draw_rect.c ****             lv_area_copy(&fa, &ca);
 802:lvgl/src/draw/lv_draw_rect.c ****             fa.y2 = fa.y1;
 803:lvgl/src/draw/lv_draw_rect.c **** 
 804:lvgl/src/draw/lv_draw_rect.c ****             for(y = 0; y < h; y++) {
 805:lvgl/src/draw/lv_draw_rect.c ****                 lv_memcpy(mask_buf, sh_buf_tmp, w);
 806:lvgl/src/draw/lv_draw_rect.c ****                 mask_res = lv_draw_mask_apply(mask_buf, fa.x1, fa.y1, w);
 807:lvgl/src/draw/lv_draw_rect.c ****                 if(mask_res == LV_DRAW_MASK_RES_FULL_COVER) mask_res = LV_DRAW_MASK_RES_CHANGED;
 808:lvgl/src/draw/lv_draw_rect.c **** 
 809:lvgl/src/draw/lv_draw_rect.c ****                 _lv_blend_fill(clip, &fa, dsc->shadow_color, mask_buf,
 810:lvgl/src/draw/lv_draw_rect.c ****                                mask_res, opa, dsc->blend_mode);
 811:lvgl/src/draw/lv_draw_rect.c ****                 fa.y1++;
 812:lvgl/src/draw/lv_draw_rect.c ****                 fa.y2++;
 813:lvgl/src/draw/lv_draw_rect.c ****                 sh_buf_tmp += corner_size;
 814:lvgl/src/draw/lv_draw_rect.c ****             }
 815:lvgl/src/draw/lv_draw_rect.c ****         }
 816:lvgl/src/draw/lv_draw_rect.c ****     }
 817:lvgl/src/draw/lv_draw_rect.c **** 
 818:lvgl/src/draw/lv_draw_rect.c ****     /*Draw the bottom left corner*/
 819:lvgl/src/draw/lv_draw_rect.c ****     a.x1 = sh_area.x1;
 820:lvgl/src/draw/lv_draw_rect.c ****     a.x2 = a.x1 + corner_size - 1;
 821:lvgl/src/draw/lv_draw_rect.c ****     a.y1 = sh_area.y2 - corner_size + 1;
 822:lvgl/src/draw/lv_draw_rect.c ****     a.y2 = sh_area.y2;
 823:lvgl/src/draw/lv_draw_rect.c **** 
 824:lvgl/src/draw/lv_draw_rect.c ****     has_com = _lv_area_intersect(&ca, &a, clip);
 825:lvgl/src/draw/lv_draw_rect.c ****     if(has_com && _lv_area_is_in(&a, &bg_coords, r_bg) == false) {
 826:lvgl/src/draw/lv_draw_rect.c ****         /*Avoid overlap in the middle with large radius*/
 827:lvgl/src/draw/lv_draw_rect.c ****         if(ca.y1 <= h_half) ca.y1 = h_half + 1;
 828:lvgl/src/draw/lv_draw_rect.c ****         if(ca.x2 > w_half) ca.x2 = w_half;
ARM GAS  /var/folders/k2/cd9bl_j17z77g23y6ffqb_400000gn/T//cc0jKSMI.s 			page 16


 829:lvgl/src/draw/lv_draw_rect.c ****         lv_coord_t h = lv_area_get_height(&ca);
 830:lvgl/src/draw/lv_draw_rect.c ****         lv_coord_t w = lv_area_get_width(&ca);
 831:lvgl/src/draw/lv_draw_rect.c **** 
 832:lvgl/src/draw/lv_draw_rect.c ****         if(w > 0) {
 833:lvgl/src/draw/lv_draw_rect.c ****             sh_buf_tmp = sh_buf + (ca.x1 - a.x1);
 834:lvgl/src/draw/lv_draw_rect.c ****             sh_buf_tmp += corner_size * (a.y2 - ca.y2);
 835:lvgl/src/draw/lv_draw_rect.c **** 
 836:lvgl/src/draw/lv_draw_rect.c ****             lv_area_t fa;
 837:lvgl/src/draw/lv_draw_rect.c ****             lv_area_copy(&fa, &ca);
 838:lvgl/src/draw/lv_draw_rect.c ****             fa.y1 = fa.y2;    /*Fill from bottom to top*/
 839:lvgl/src/draw/lv_draw_rect.c **** 
 840:lvgl/src/draw/lv_draw_rect.c ****             for(y = 0; y < h; y++) {
 841:lvgl/src/draw/lv_draw_rect.c ****                 lv_memcpy(mask_buf, sh_buf_tmp, w);
 842:lvgl/src/draw/lv_draw_rect.c ****                 mask_res = lv_draw_mask_apply(mask_buf, fa.x1, fa.y1, w);
 843:lvgl/src/draw/lv_draw_rect.c ****                 if(mask_res == LV_DRAW_MASK_RES_FULL_COVER) mask_res = LV_DRAW_MASK_RES_CHANGED;
 844:lvgl/src/draw/lv_draw_rect.c **** 
 845:lvgl/src/draw/lv_draw_rect.c ****                 _lv_blend_fill(clip, &fa, dsc->shadow_color, mask_buf,
 846:lvgl/src/draw/lv_draw_rect.c ****                                mask_res, opa, dsc->blend_mode);
 847:lvgl/src/draw/lv_draw_rect.c ****                 fa.y1--;
 848:lvgl/src/draw/lv_draw_rect.c ****                 fa.y2--;
 849:lvgl/src/draw/lv_draw_rect.c ****                 sh_buf_tmp += corner_size;
 850:lvgl/src/draw/lv_draw_rect.c ****             }
 851:lvgl/src/draw/lv_draw_rect.c ****         }
 852:lvgl/src/draw/lv_draw_rect.c ****     }
 853:lvgl/src/draw/lv_draw_rect.c **** 
 854:lvgl/src/draw/lv_draw_rect.c ****     /*Fill the left side*/
 855:lvgl/src/draw/lv_draw_rect.c ****     a.x1 = sh_area.x1;
 856:lvgl/src/draw/lv_draw_rect.c ****     a.x2 = a.x1 + corner_size - 1;
 857:lvgl/src/draw/lv_draw_rect.c ****     a.y1 = sh_area.y1 + corner_size;
 858:lvgl/src/draw/lv_draw_rect.c ****     a.y2 = sh_area.y2 - corner_size;
 859:lvgl/src/draw/lv_draw_rect.c **** 
 860:lvgl/src/draw/lv_draw_rect.c ****     has_com = _lv_area_intersect(&ca, &a, clip);
 861:lvgl/src/draw/lv_draw_rect.c ****     if(has_com && _lv_area_is_in(&a, &bg_coords, r_bg) == false) {
 862:lvgl/src/draw/lv_draw_rect.c ****         /*Avoid overlap in the middle with large radius*/
 863:lvgl/src/draw/lv_draw_rect.c ****         if(ca.x2 > w_half) ca.x2 = w_half;
 864:lvgl/src/draw/lv_draw_rect.c **** 
 865:lvgl/src/draw/lv_draw_rect.c ****         if(simple_mode) ca.x2 = LV_MIN(coords->x1, ca.x2);
 866:lvgl/src/draw/lv_draw_rect.c ****         /*Draw vertical lines*/
 867:lvgl/src/draw/lv_draw_rect.c ****         lv_coord_t w = lv_area_get_width(&ca);
 868:lvgl/src/draw/lv_draw_rect.c ****         if(w > 0) {
 869:lvgl/src/draw/lv_draw_rect.c ****             lv_coord_t h = lv_area_get_height(&ca);
 870:lvgl/src/draw/lv_draw_rect.c ****             /*The last line of the shadow is repeated on the side*/
 871:lvgl/src/draw/lv_draw_rect.c ****             sh_buf_tmp = sh_buf + corner_size * (corner_size - 1);
 872:lvgl/src/draw/lv_draw_rect.c ****             sh_buf_tmp += ca.x1 - a.x1;
 873:lvgl/src/draw/lv_draw_rect.c **** 
 874:lvgl/src/draw/lv_draw_rect.c ****             lv_area_t fa;
 875:lvgl/src/draw/lv_draw_rect.c ****             lv_area_copy(&fa, &ca);
 876:lvgl/src/draw/lv_draw_rect.c ****             fa.y2 = fa.y1;
 877:lvgl/src/draw/lv_draw_rect.c ****             for(y = 0; y < h; y++) {
 878:lvgl/src/draw/lv_draw_rect.c ****                 lv_memcpy(mask_buf, sh_buf_tmp, w);
 879:lvgl/src/draw/lv_draw_rect.c ****                 if(simple_mode) {
 880:lvgl/src/draw/lv_draw_rect.c ****                     mask_res = LV_DRAW_MASK_RES_CHANGED;
 881:lvgl/src/draw/lv_draw_rect.c ****                 }
 882:lvgl/src/draw/lv_draw_rect.c ****                 else {
 883:lvgl/src/draw/lv_draw_rect.c ****                     mask_res = lv_draw_mask_apply(mask_buf, fa.x1, fa.y1, w);
 884:lvgl/src/draw/lv_draw_rect.c ****                     if(mask_res == LV_DRAW_MASK_RES_FULL_COVER) mask_res = LV_DRAW_MASK_RES_CHANGED
 885:lvgl/src/draw/lv_draw_rect.c ****                 }
ARM GAS  /var/folders/k2/cd9bl_j17z77g23y6ffqb_400000gn/T//cc0jKSMI.s 			page 17


 886:lvgl/src/draw/lv_draw_rect.c **** 
 887:lvgl/src/draw/lv_draw_rect.c ****                 _lv_blend_fill(clip, &fa,
 888:lvgl/src/draw/lv_draw_rect.c ****                                dsc->shadow_color, mask_buf, mask_res, dsc->shadow_opa, dsc->blend_m
 889:lvgl/src/draw/lv_draw_rect.c ****                 fa.y1++;
 890:lvgl/src/draw/lv_draw_rect.c ****                 fa.y2++;
 891:lvgl/src/draw/lv_draw_rect.c ****             }
 892:lvgl/src/draw/lv_draw_rect.c ****         }
 893:lvgl/src/draw/lv_draw_rect.c ****     }
 894:lvgl/src/draw/lv_draw_rect.c **** 
 895:lvgl/src/draw/lv_draw_rect.c ****     /*Fill the top side*/
 896:lvgl/src/draw/lv_draw_rect.c ****     a.x1 = sh_area.x1 + corner_size;
 897:lvgl/src/draw/lv_draw_rect.c ****     a.x2 = sh_area.x2 - corner_size;
 898:lvgl/src/draw/lv_draw_rect.c ****     a.y1 = sh_area.y1;
 899:lvgl/src/draw/lv_draw_rect.c ****     a.y2 = sh_area.y1 + corner_size - 1;
 900:lvgl/src/draw/lv_draw_rect.c **** 
 901:lvgl/src/draw/lv_draw_rect.c ****     has_com = _lv_area_intersect(&ca, &a, clip);
 902:lvgl/src/draw/lv_draw_rect.c ****     if(has_com && _lv_area_is_in(&a, &bg_coords, r_bg) == false) {
 903:lvgl/src/draw/lv_draw_rect.c ****         /*Avoid overlap in the middle with large radius*/
 904:lvgl/src/draw/lv_draw_rect.c ****         if(ca.y2 > h_half) ca.y2 = h_half;
 905:lvgl/src/draw/lv_draw_rect.c **** 
 906:lvgl/src/draw/lv_draw_rect.c ****         if(simple_mode) ca.y2 = LV_MIN(ca.y2, coords->y1);
 907:lvgl/src/draw/lv_draw_rect.c **** 
 908:lvgl/src/draw/lv_draw_rect.c ****         /*Draw horizontal lines*/
 909:lvgl/src/draw/lv_draw_rect.c ****         lv_coord_t w = lv_area_get_width(&ca);
 910:lvgl/src/draw/lv_draw_rect.c ****         lv_coord_t h = lv_area_get_height(&ca);
 911:lvgl/src/draw/lv_draw_rect.c ****         sh_buf_tmp = sh_buf + corner_size - 1;
 912:lvgl/src/draw/lv_draw_rect.c ****         sh_buf_tmp += corner_size * (ca.y1 - a.y1);
 913:lvgl/src/draw/lv_draw_rect.c **** 
 914:lvgl/src/draw/lv_draw_rect.c ****         lv_area_t fa;
 915:lvgl/src/draw/lv_draw_rect.c ****         lv_area_copy(&fa, &ca);
 916:lvgl/src/draw/lv_draw_rect.c ****         fa.y2 = fa.y1;
 917:lvgl/src/draw/lv_draw_rect.c ****         mask_res = LV_DRAW_MASK_RES_FULL_COVER;
 918:lvgl/src/draw/lv_draw_rect.c ****         for(y = 0; y < h; y++) {
 919:lvgl/src/draw/lv_draw_rect.c ****             lv_opa_t opa_tmp = sh_buf_tmp[0];
 920:lvgl/src/draw/lv_draw_rect.c ****             if(opa_tmp != LV_OPA_COVER || opa != LV_OPA_COVER) opa_tmp = (opa * opa_tmp) >> 8;
 921:lvgl/src/draw/lv_draw_rect.c **** 
 922:lvgl/src/draw/lv_draw_rect.c ****             lv_memset(mask_buf, opa_tmp, w);
 923:lvgl/src/draw/lv_draw_rect.c **** 
 924:lvgl/src/draw/lv_draw_rect.c ****             if(simple_mode) {
 925:lvgl/src/draw/lv_draw_rect.c ****                 mask_res = LV_DRAW_MASK_RES_CHANGED;
 926:lvgl/src/draw/lv_draw_rect.c ****             }
 927:lvgl/src/draw/lv_draw_rect.c ****             else {
 928:lvgl/src/draw/lv_draw_rect.c ****                 mask_res = lv_draw_mask_apply(mask_buf, fa.x1, fa.y1, w);
 929:lvgl/src/draw/lv_draw_rect.c ****                 if(mask_res == LV_DRAW_MASK_RES_FULL_COVER) mask_res = LV_DRAW_MASK_RES_CHANGED;
 930:lvgl/src/draw/lv_draw_rect.c ****             }
 931:lvgl/src/draw/lv_draw_rect.c **** 
 932:lvgl/src/draw/lv_draw_rect.c ****             _lv_blend_fill(clip, &fa, dsc->shadow_color, mask_buf,
 933:lvgl/src/draw/lv_draw_rect.c ****                            mask_res, LV_OPA_COVER, dsc->blend_mode);
 934:lvgl/src/draw/lv_draw_rect.c ****             fa.y1++;
 935:lvgl/src/draw/lv_draw_rect.c ****             fa.y2++;
 936:lvgl/src/draw/lv_draw_rect.c ****             sh_buf_tmp += corner_size;
 937:lvgl/src/draw/lv_draw_rect.c ****         }
 938:lvgl/src/draw/lv_draw_rect.c ****     }
 939:lvgl/src/draw/lv_draw_rect.c **** 
 940:lvgl/src/draw/lv_draw_rect.c ****     /*Fill the bottom side*/
 941:lvgl/src/draw/lv_draw_rect.c ****     a.x1 = sh_area.x1 + corner_size;
 942:lvgl/src/draw/lv_draw_rect.c ****     a.x2 = sh_area.x2 - corner_size;
ARM GAS  /var/folders/k2/cd9bl_j17z77g23y6ffqb_400000gn/T//cc0jKSMI.s 			page 18


 943:lvgl/src/draw/lv_draw_rect.c ****     a.y1 = sh_area.y2 - corner_size + 1;
 944:lvgl/src/draw/lv_draw_rect.c ****     a.y2 = sh_area.y2;
 945:lvgl/src/draw/lv_draw_rect.c **** 
 946:lvgl/src/draw/lv_draw_rect.c ****     has_com = _lv_area_intersect(&ca, &a, clip);
 947:lvgl/src/draw/lv_draw_rect.c ****     if(has_com && _lv_area_is_in(&a, &bg_coords, r_bg) == false) {
 948:lvgl/src/draw/lv_draw_rect.c ****         /*Avoid overlap in the middle with large radius*/
 949:lvgl/src/draw/lv_draw_rect.c ****         if(ca.y1 <= h_half) ca.y1 = h_half + 1;
 950:lvgl/src/draw/lv_draw_rect.c **** 
 951:lvgl/src/draw/lv_draw_rect.c ****         if(simple_mode) ca.y1 = LV_MAX(ca.y1, coords->y2);
 952:lvgl/src/draw/lv_draw_rect.c **** 
 953:lvgl/src/draw/lv_draw_rect.c ****         /*Draw horizontal lines*/
 954:lvgl/src/draw/lv_draw_rect.c ****         lv_coord_t w = lv_area_get_width(&ca);
 955:lvgl/src/draw/lv_draw_rect.c ****         lv_coord_t h = lv_area_get_height(&ca);
 956:lvgl/src/draw/lv_draw_rect.c ****         sh_buf_tmp = sh_buf + corner_size - 1;
 957:lvgl/src/draw/lv_draw_rect.c ****         sh_buf_tmp += corner_size * (a.y2 - ca.y2);
 958:lvgl/src/draw/lv_draw_rect.c **** 
 959:lvgl/src/draw/lv_draw_rect.c ****         lv_area_t fa;
 960:lvgl/src/draw/lv_draw_rect.c ****         lv_area_copy(&fa, &ca);
 961:lvgl/src/draw/lv_draw_rect.c ****         fa.y1 = fa.y2;
 962:lvgl/src/draw/lv_draw_rect.c ****         for(y = 0; y < h; y++) {
 963:lvgl/src/draw/lv_draw_rect.c ****             lv_opa_t opa_tmp = sh_buf_tmp[0];
 964:lvgl/src/draw/lv_draw_rect.c ****             if(opa_tmp != LV_OPA_COVER || opa != LV_OPA_COVER) opa_tmp = (opa * opa_tmp) >> 8;
 965:lvgl/src/draw/lv_draw_rect.c **** 
 966:lvgl/src/draw/lv_draw_rect.c ****             lv_memset(mask_buf, opa_tmp, w);
 967:lvgl/src/draw/lv_draw_rect.c ****             if(simple_mode) {
 968:lvgl/src/draw/lv_draw_rect.c ****                 mask_res = LV_DRAW_MASK_RES_CHANGED;
 969:lvgl/src/draw/lv_draw_rect.c ****             }
 970:lvgl/src/draw/lv_draw_rect.c ****             else {
 971:lvgl/src/draw/lv_draw_rect.c ****                 mask_res = lv_draw_mask_apply(mask_buf, fa.x1, fa.y1, w);
 972:lvgl/src/draw/lv_draw_rect.c ****                 if(mask_res == LV_DRAW_MASK_RES_FULL_COVER) mask_res = LV_DRAW_MASK_RES_CHANGED;
 973:lvgl/src/draw/lv_draw_rect.c ****             }
 974:lvgl/src/draw/lv_draw_rect.c **** 
 975:lvgl/src/draw/lv_draw_rect.c ****             _lv_blend_fill(clip, &fa, dsc->shadow_color, mask_buf,
 976:lvgl/src/draw/lv_draw_rect.c ****                            mask_res, LV_OPA_COVER, dsc->blend_mode);
 977:lvgl/src/draw/lv_draw_rect.c ****             fa.y1--;
 978:lvgl/src/draw/lv_draw_rect.c ****             fa.y2--;
 979:lvgl/src/draw/lv_draw_rect.c ****             sh_buf_tmp += corner_size;
 980:lvgl/src/draw/lv_draw_rect.c ****         }
 981:lvgl/src/draw/lv_draw_rect.c ****     }
 982:lvgl/src/draw/lv_draw_rect.c **** 
 983:lvgl/src/draw/lv_draw_rect.c ****     /*Draw the middle area*/
 984:lvgl/src/draw/lv_draw_rect.c ****     a.x1 = sh_area.x1 + corner_size;
 985:lvgl/src/draw/lv_draw_rect.c ****     a.x2 = sh_area.x2 - corner_size;
 986:lvgl/src/draw/lv_draw_rect.c ****     a.y1 = sh_area.y1 + corner_size;
 987:lvgl/src/draw/lv_draw_rect.c ****     a.y2 = sh_area.y2 - corner_size;
 988:lvgl/src/draw/lv_draw_rect.c **** 
 989:lvgl/src/draw/lv_draw_rect.c ****     has_com = _lv_area_intersect(&ca, &a, clip);
 990:lvgl/src/draw/lv_draw_rect.c ****     if(has_com && simple_mode == false &&  _lv_area_is_in(&a, &bg_coords, r_bg) == false) {
 991:lvgl/src/draw/lv_draw_rect.c ****         /*Draw horizontal lines*/
 992:lvgl/src/draw/lv_draw_rect.c ****         lv_coord_t w = lv_area_get_width(&ca);
 993:lvgl/src/draw/lv_draw_rect.c ****         lv_coord_t h = lv_area_get_height(&ca);
 994:lvgl/src/draw/lv_draw_rect.c **** 
 995:lvgl/src/draw/lv_draw_rect.c ****         lv_area_t fa;
 996:lvgl/src/draw/lv_draw_rect.c ****         lv_area_copy(&fa, &ca);
 997:lvgl/src/draw/lv_draw_rect.c ****         fa.y2 = fa.y1;
 998:lvgl/src/draw/lv_draw_rect.c ****         for(y = 0; y < h; y++) {
 999:lvgl/src/draw/lv_draw_rect.c ****             lv_memset(mask_buf, dsc->shadow_opa, w);
ARM GAS  /var/folders/k2/cd9bl_j17z77g23y6ffqb_400000gn/T//cc0jKSMI.s 			page 19


1000:lvgl/src/draw/lv_draw_rect.c ****             mask_res = lv_draw_mask_apply(mask_buf, fa.x1, fa.y1, w);
1001:lvgl/src/draw/lv_draw_rect.c ****             if(mask_res == LV_DRAW_MASK_RES_FULL_COVER) mask_res = LV_DRAW_MASK_RES_CHANGED;
1002:lvgl/src/draw/lv_draw_rect.c **** 
1003:lvgl/src/draw/lv_draw_rect.c ****             _lv_blend_fill(clip, &fa, dsc->shadow_color, mask_buf,
1004:lvgl/src/draw/lv_draw_rect.c ****                            mask_res, LV_OPA_COVER, dsc->blend_mode);
1005:lvgl/src/draw/lv_draw_rect.c ****             fa.y1++;
1006:lvgl/src/draw/lv_draw_rect.c ****             fa.y2++;
1007:lvgl/src/draw/lv_draw_rect.c ****         }
1008:lvgl/src/draw/lv_draw_rect.c ****     }
1009:lvgl/src/draw/lv_draw_rect.c **** 
1010:lvgl/src/draw/lv_draw_rect.c ****     lv_draw_mask_remove_id(mask_rout_id);
1011:lvgl/src/draw/lv_draw_rect.c ****     lv_mem_buf_release(mask_buf);
1012:lvgl/src/draw/lv_draw_rect.c ****     lv_mem_buf_release(sh_buf);
1013:lvgl/src/draw/lv_draw_rect.c **** }
1014:lvgl/src/draw/lv_draw_rect.c **** 
1015:lvgl/src/draw/lv_draw_rect.c **** /**
1016:lvgl/src/draw/lv_draw_rect.c ****  * Calculate a blurred corner
1017:lvgl/src/draw/lv_draw_rect.c ****  * @param coords Coordinates of the shadow
1018:lvgl/src/draw/lv_draw_rect.c ****  * @param sh_buf a buffer to store the result. It's size should be `(sw + r)^2 * 2`
1019:lvgl/src/draw/lv_draw_rect.c ****  * @param sw shadow width
1020:lvgl/src/draw/lv_draw_rect.c ****  * @param r radius
1021:lvgl/src/draw/lv_draw_rect.c ****  */
1022:lvgl/src/draw/lv_draw_rect.c **** LV_ATTRIBUTE_FAST_MEM static void shadow_draw_corner_buf(const lv_area_t * coords, uint16_t * sh_bu
1023:lvgl/src/draw/lv_draw_rect.c ****                                                          lv_coord_t r)
1024:lvgl/src/draw/lv_draw_rect.c **** {
1025:lvgl/src/draw/lv_draw_rect.c ****     int32_t sw_ori = sw;
1026:lvgl/src/draw/lv_draw_rect.c ****     int32_t size = sw_ori  + r;
1027:lvgl/src/draw/lv_draw_rect.c **** 
1028:lvgl/src/draw/lv_draw_rect.c ****     lv_area_t sh_area;
1029:lvgl/src/draw/lv_draw_rect.c ****     lv_area_copy(&sh_area, coords);
1030:lvgl/src/draw/lv_draw_rect.c ****     sh_area.x2 = sw / 2 + r - 1  - ((sw & 1) ? 0 : 1);
1031:lvgl/src/draw/lv_draw_rect.c ****     sh_area.y1 = sw / 2 + 1;
1032:lvgl/src/draw/lv_draw_rect.c **** 
1033:lvgl/src/draw/lv_draw_rect.c ****     sh_area.x1 = sh_area.x2 - lv_area_get_width(coords);
1034:lvgl/src/draw/lv_draw_rect.c ****     sh_area.y2 = sh_area.y1 + lv_area_get_height(coords);
1035:lvgl/src/draw/lv_draw_rect.c **** 
1036:lvgl/src/draw/lv_draw_rect.c ****     lv_draw_mask_radius_param_t mask_param;
1037:lvgl/src/draw/lv_draw_rect.c ****     lv_draw_mask_radius_init(&mask_param, &sh_area, r, false);
1038:lvgl/src/draw/lv_draw_rect.c **** 
1039:lvgl/src/draw/lv_draw_rect.c **** #if SHADOW_ENHANCE
1040:lvgl/src/draw/lv_draw_rect.c ****     /*Set half shadow width width because blur will be repeated*/
1041:lvgl/src/draw/lv_draw_rect.c ****     if(sw_ori == 1) sw = 1;
1042:lvgl/src/draw/lv_draw_rect.c ****     else sw = sw_ori >> 1;
1043:lvgl/src/draw/lv_draw_rect.c **** #endif
1044:lvgl/src/draw/lv_draw_rect.c **** 
1045:lvgl/src/draw/lv_draw_rect.c ****     int32_t y;
1046:lvgl/src/draw/lv_draw_rect.c ****     lv_opa_t * mask_line = lv_mem_buf_get(size);
1047:lvgl/src/draw/lv_draw_rect.c ****     uint16_t * sh_ups_tmp_buf = (uint16_t *)sh_buf;
1048:lvgl/src/draw/lv_draw_rect.c ****     for(y = 0; y < size; y++) {
1049:lvgl/src/draw/lv_draw_rect.c ****         lv_memset_ff(mask_line, size);
1050:lvgl/src/draw/lv_draw_rect.c ****         lv_draw_mask_res_t mask_res = mask_param.dsc.cb(mask_line, 0, y, size, &mask_param);
1051:lvgl/src/draw/lv_draw_rect.c ****         if(mask_res == LV_DRAW_MASK_RES_TRANSP) {
1052:lvgl/src/draw/lv_draw_rect.c ****             lv_memset_00(sh_ups_tmp_buf, size * sizeof(sh_ups_tmp_buf[0]));
1053:lvgl/src/draw/lv_draw_rect.c ****         }
1054:lvgl/src/draw/lv_draw_rect.c ****         else {
1055:lvgl/src/draw/lv_draw_rect.c ****             int32_t i;
1056:lvgl/src/draw/lv_draw_rect.c ****             sh_ups_tmp_buf[0] = (mask_line[0] << SHADOW_UPSCALE_SHIFT) / sw;
ARM GAS  /var/folders/k2/cd9bl_j17z77g23y6ffqb_400000gn/T//cc0jKSMI.s 			page 20


1057:lvgl/src/draw/lv_draw_rect.c ****             for(i = 1; i < size; i++) {
1058:lvgl/src/draw/lv_draw_rect.c ****                 if(mask_line[i] == mask_line[i - 1]) sh_ups_tmp_buf[i] = sh_ups_tmp_buf[i - 1];
1059:lvgl/src/draw/lv_draw_rect.c ****                 else  sh_ups_tmp_buf[i] = (mask_line[i] << SHADOW_UPSCALE_SHIFT) / sw;
1060:lvgl/src/draw/lv_draw_rect.c ****             }
1061:lvgl/src/draw/lv_draw_rect.c ****         }
1062:lvgl/src/draw/lv_draw_rect.c **** 
1063:lvgl/src/draw/lv_draw_rect.c ****         sh_ups_tmp_buf += size;
1064:lvgl/src/draw/lv_draw_rect.c ****     }
1065:lvgl/src/draw/lv_draw_rect.c ****     lv_mem_buf_release(mask_line);
1066:lvgl/src/draw/lv_draw_rect.c **** 
1067:lvgl/src/draw/lv_draw_rect.c ****     if(sw == 1) {
1068:lvgl/src/draw/lv_draw_rect.c ****         int32_t i;
1069:lvgl/src/draw/lv_draw_rect.c ****         lv_opa_t * res_buf = (lv_opa_t *)sh_buf;
1070:lvgl/src/draw/lv_draw_rect.c ****         for(i = 0; i < size * size; i++) {
1071:lvgl/src/draw/lv_draw_rect.c ****             res_buf[i] = (sh_buf[i] >> SHADOW_UPSCALE_SHIFT);
1072:lvgl/src/draw/lv_draw_rect.c ****         }
1073:lvgl/src/draw/lv_draw_rect.c ****         return;
1074:lvgl/src/draw/lv_draw_rect.c ****     }
1075:lvgl/src/draw/lv_draw_rect.c **** 
1076:lvgl/src/draw/lv_draw_rect.c ****     shadow_blur_corner(size, sw, sh_buf);
1077:lvgl/src/draw/lv_draw_rect.c **** 
1078:lvgl/src/draw/lv_draw_rect.c **** #if SHADOW_ENHANCE == 0
1079:lvgl/src/draw/lv_draw_rect.c ****     /*The result is required in lv_opa_t not uint16_t*/
1080:lvgl/src/draw/lv_draw_rect.c ****     uint32_t x;
1081:lvgl/src/draw/lv_draw_rect.c ****     lv_opa_t * res_buf = (lv_opa_t *)sh_buf;
1082:lvgl/src/draw/lv_draw_rect.c ****     for(x = 0; x < size * size; x++) {
1083:lvgl/src/draw/lv_draw_rect.c ****         res_buf[x] = sh_buf[x];
1084:lvgl/src/draw/lv_draw_rect.c ****     }
1085:lvgl/src/draw/lv_draw_rect.c **** #else
1086:lvgl/src/draw/lv_draw_rect.c ****     sw += sw_ori & 1;
1087:lvgl/src/draw/lv_draw_rect.c ****     if(sw > 1) {
1088:lvgl/src/draw/lv_draw_rect.c ****         uint32_t i;
1089:lvgl/src/draw/lv_draw_rect.c ****         sh_buf[0] = (sh_buf[0] << SHADOW_UPSCALE_SHIFT) / sw;
1090:lvgl/src/draw/lv_draw_rect.c ****         for(i = 1; i < (uint32_t) size * size; i++) {
1091:lvgl/src/draw/lv_draw_rect.c ****             if(sh_buf[i] == sh_buf[i - 1]) sh_buf[i] = sh_buf[i - 1];
1092:lvgl/src/draw/lv_draw_rect.c ****             else  sh_buf[i] = (sh_buf[i] << SHADOW_UPSCALE_SHIFT) / sw;
1093:lvgl/src/draw/lv_draw_rect.c ****         }
1094:lvgl/src/draw/lv_draw_rect.c **** 
1095:lvgl/src/draw/lv_draw_rect.c ****         shadow_blur_corner(size, sw, sh_buf);
1096:lvgl/src/draw/lv_draw_rect.c ****     }
1097:lvgl/src/draw/lv_draw_rect.c ****     int32_t x;
1098:lvgl/src/draw/lv_draw_rect.c ****     lv_opa_t * res_buf = (lv_opa_t *)sh_buf;
1099:lvgl/src/draw/lv_draw_rect.c ****     for(x = 0; x < size * size; x++) {
1100:lvgl/src/draw/lv_draw_rect.c ****         res_buf[x] = sh_buf[x];
1101:lvgl/src/draw/lv_draw_rect.c ****     }
1102:lvgl/src/draw/lv_draw_rect.c **** #endif
1103:lvgl/src/draw/lv_draw_rect.c **** 
1104:lvgl/src/draw/lv_draw_rect.c **** }
1105:lvgl/src/draw/lv_draw_rect.c **** 
1106:lvgl/src/draw/lv_draw_rect.c **** LV_ATTRIBUTE_FAST_MEM static void shadow_blur_corner(lv_coord_t size, lv_coord_t sw, uint16_t * sh_
1107:lvgl/src/draw/lv_draw_rect.c **** {
  29              		.loc 1 1107 1 view -0
  30              		.cfi_startproc
  31              		@ args = 0, pretend = 0, frame = 8
  32              		@ frame_needed = 0, uses_anonymous_args = 0
  33              		.loc 1 1107 1 is_stmt 0 view .LVU1
  34 0000 2DE9F04F 		push	{r4, r5, r6, r7, r8, r9, r10, fp, lr}
ARM GAS  /var/folders/k2/cd9bl_j17z77g23y6ffqb_400000gn/T//cc0jKSMI.s 			page 21


  35              	.LCFI0:
  36              		.cfi_def_cfa_offset 36
  37              		.cfi_offset 4, -36
  38              		.cfi_offset 5, -32
  39              		.cfi_offset 6, -28
  40              		.cfi_offset 7, -24
  41              		.cfi_offset 8, -20
  42              		.cfi_offset 9, -16
  43              		.cfi_offset 10, -12
  44              		.cfi_offset 11, -8
  45              		.cfi_offset 14, -4
  46 0004 83B0     		sub	sp, sp, #12
  47              	.LCFI1:
  48              		.cfi_def_cfa_offset 48
  49 0006 0446     		mov	r4, r0
  50 0008 0191     		str	r1, [sp, #4]
  51 000a 1646     		mov	r6, r2
1108:lvgl/src/draw/lv_draw_rect.c ****     int32_t s_left = sw >> 1;
  52              		.loc 1 1108 5 is_stmt 1 view .LVU2
  53              		.loc 1 1108 25 is_stmt 0 view .LVU3
  54 000c 4FEA6108 		asr	r8, r1, #1
  55              	.LVL1:
1109:lvgl/src/draw/lv_draw_rect.c ****     int32_t s_right = (sw >> 1);
  56              		.loc 1 1109 5 is_stmt 1 view .LVU4
1110:lvgl/src/draw/lv_draw_rect.c ****     if((sw & 1) == 0) s_left--;
  57              		.loc 1 1110 5 view .LVU5
  58              		.loc 1 1110 7 is_stmt 0 view .LVU6
  59 0010 11F0010F 		tst	r1, #1
  60 0014 02D1     		bne	.L25
  61              		.loc 1 1110 23 is_stmt 1 discriminator 1 view .LVU7
  62              		.loc 1 1110 29 is_stmt 0 discriminator 1 view .LVU8
  63 0016 08F1FF39 		add	r9, r8, #-1
  64              	.LVL2:
  65              		.loc 1 1110 29 discriminator 1 view .LVU9
  66 001a 00E0     		b	.L2
  67              	.LVL3:
  68              	.L25:
1108:lvgl/src/draw/lv_draw_rect.c ****     int32_t s_left = sw >> 1;
  69              		.loc 1 1108 13 view .LVU10
  70 001c C146     		mov	r9, r8
  71              	.LVL4:
  72              	.L2:
1111:lvgl/src/draw/lv_draw_rect.c **** 
1112:lvgl/src/draw/lv_draw_rect.c ****     /*Horizontal blur*/
1113:lvgl/src/draw/lv_draw_rect.c ****     uint16_t * sh_ups_blur_buf = lv_mem_buf_get(size * sizeof(uint16_t));
  73              		.loc 1 1113 5 is_stmt 1 view .LVU11
  74              		.loc 1 1113 54 is_stmt 0 view .LVU12
  75 001e 6700     		lsls	r7, r4, #1
  76              		.loc 1 1113 34 view .LVU13
  77 0020 3846     		mov	r0, r7
  78              	.LVL5:
  79              		.loc 1 1113 34 view .LVU14
  80 0022 FFF7FEFF 		bl	lv_mem_buf_get
  81              	.LVL6:
  82              		.loc 1 1113 34 view .LVU15
  83 0026 0546     		mov	r5, r0
  84              	.LVL7:
ARM GAS  /var/folders/k2/cd9bl_j17z77g23y6ffqb_400000gn/T//cc0jKSMI.s 			page 22


1114:lvgl/src/draw/lv_draw_rect.c **** 
1115:lvgl/src/draw/lv_draw_rect.c ****     int32_t x;
  85              		.loc 1 1115 5 is_stmt 1 view .LVU16
1116:lvgl/src/draw/lv_draw_rect.c ****     int32_t y;
  86              		.loc 1 1116 5 view .LVU17
1117:lvgl/src/draw/lv_draw_rect.c **** 
1118:lvgl/src/draw/lv_draw_rect.c ****     uint16_t * sh_ups_tmp_buf = sh_ups_buf;
  87              		.loc 1 1118 5 view .LVU18
1119:lvgl/src/draw/lv_draw_rect.c **** 
1120:lvgl/src/draw/lv_draw_rect.c ****     for(y = 0; y < size; y++) {
  88              		.loc 1 1120 5 view .LVU19
1118:lvgl/src/draw/lv_draw_rect.c **** 
  89              		.loc 1 1118 16 is_stmt 0 view .LVU20
  90 0028 B246     		mov	r10, r6
  91              		.loc 1 1120 11 view .LVU21
  92 002a 4FF0000B 		mov	fp, #0
  93              		.loc 1 1120 5 view .LVU22
  94 002e 22E0     		b	.L3
  95              	.LVL8:
  96              	.L26:
  97              	.LBB189:
  98              	.LBB190:
1121:lvgl/src/draw/lv_draw_rect.c ****         int32_t v = sh_ups_tmp_buf[size - 1] * sw;
1122:lvgl/src/draw/lv_draw_rect.c ****         for(x = size - 1; x >= 0; x--) {
1123:lvgl/src/draw/lv_draw_rect.c ****             sh_ups_blur_buf[x] = v;
1124:lvgl/src/draw/lv_draw_rect.c **** 
1125:lvgl/src/draw/lv_draw_rect.c ****             /*Forget the right pixel*/
1126:lvgl/src/draw/lv_draw_rect.c ****             uint32_t right_val = 0;
  99              		.loc 1 1126 22 view .LVU23
 100 0030 0021     		movs	r1, #0
 101              	.LVL9:
 102              	.L5:
1127:lvgl/src/draw/lv_draw_rect.c ****             if(x + s_right < size) right_val = sh_ups_tmp_buf[x + s_right];
1128:lvgl/src/draw/lv_draw_rect.c ****             v -= right_val;
 103              		.loc 1 1128 13 is_stmt 1 view .LVU24
 104              		.loc 1 1128 15 is_stmt 0 view .LVU25
 105 0032 521A     		subs	r2, r2, r1
 106              	.LVL10:
1129:lvgl/src/draw/lv_draw_rect.c **** 
1130:lvgl/src/draw/lv_draw_rect.c ****             /*Add the left pixel*/
1131:lvgl/src/draw/lv_draw_rect.c ****             uint32_t left_val;
 107              		.loc 1 1131 13 is_stmt 1 view .LVU26
1132:lvgl/src/draw/lv_draw_rect.c ****             if(x - s_left - 1 < 0) left_val = sh_ups_tmp_buf[0];
 108              		.loc 1 1132 13 view .LVU27
 109              		.loc 1 1132 18 is_stmt 0 view .LVU28
 110 0034 A3EB0901 		sub	r1, r3, r9
 111              	.LVL11:
 112              		.loc 1 1132 15 view .LVU29
 113 0038 0029     		cmp	r1, #0
 114 003a 11DD     		ble	.L29
1133:lvgl/src/draw/lv_draw_rect.c ****             else left_val = sh_ups_tmp_buf[x - s_left - 1];
 115              		.loc 1 1133 18 is_stmt 1 view .LVU30
 116              		.loc 1 1133 43 is_stmt 0 view .LVU31
 117 003c 01F10041 		add	r1, r1, #-2147483648
 118 0040 0139     		subs	r1, r1, #1
 119 0042 3AF81110 		ldrh	r1, [r10, r1, lsl #1]
 120              	.LVL12:
ARM GAS  /var/folders/k2/cd9bl_j17z77g23y6ffqb_400000gn/T//cc0jKSMI.s 			page 23


 121              	.L7:
1134:lvgl/src/draw/lv_draw_rect.c ****             v += left_val;
 122              		.loc 1 1134 13 is_stmt 1 discriminator 2 view .LVU32
 123              		.loc 1 1134 15 is_stmt 0 discriminator 2 view .LVU33
 124 0046 0A44     		add	r2, r2, r1
 125              	.LVL13:
 126              		.loc 1 1134 15 discriminator 2 view .LVU34
 127              	.LBE190:
1122:lvgl/src/draw/lv_draw_rect.c ****             sh_ups_blur_buf[x] = v;
 128              		.loc 1 1122 35 is_stmt 1 discriminator 2 view .LVU35
1122:lvgl/src/draw/lv_draw_rect.c ****             sh_ups_blur_buf[x] = v;
 129              		.loc 1 1122 36 is_stmt 0 discriminator 2 view .LVU36
 130 0048 013B     		subs	r3, r3, #1
 131              	.LVL14:
 132              	.L4:
1122:lvgl/src/draw/lv_draw_rect.c ****             sh_ups_blur_buf[x] = v;
 133              		.loc 1 1122 27 is_stmt 1 discriminator 1 view .LVU37
1122:lvgl/src/draw/lv_draw_rect.c ****             sh_ups_blur_buf[x] = v;
 134              		.loc 1 1122 9 is_stmt 0 discriminator 1 view .LVU38
 135 004a 002B     		cmp	r3, #0
 136 004c 0BDB     		blt	.L30
 137              	.LBB191:
1123:lvgl/src/draw/lv_draw_rect.c **** 
 138              		.loc 1 1123 13 is_stmt 1 view .LVU39
1123:lvgl/src/draw/lv_draw_rect.c **** 
 139              		.loc 1 1123 32 is_stmt 0 view .LVU40
 140 004e 25F81320 		strh	r2, [r5, r3, lsl #1]	@ movhi
1126:lvgl/src/draw/lv_draw_rect.c ****             if(x + s_right < size) right_val = sh_ups_tmp_buf[x + s_right];
 141              		.loc 1 1126 13 is_stmt 1 view .LVU41
 142              	.LVL15:
1127:lvgl/src/draw/lv_draw_rect.c ****             v -= right_val;
 143              		.loc 1 1127 13 view .LVU42
1127:lvgl/src/draw/lv_draw_rect.c ****             v -= right_val;
 144              		.loc 1 1127 18 is_stmt 0 view .LVU43
 145 0052 03EB0801 		add	r1, r3, r8
1127:lvgl/src/draw/lv_draw_rect.c ****             v -= right_val;
 146              		.loc 1 1127 15 view .LVU44
 147 0056 A142     		cmp	r1, r4
 148 0058 EADA     		bge	.L26
1127:lvgl/src/draw/lv_draw_rect.c ****             v -= right_val;
 149              		.loc 1 1127 36 is_stmt 1 discriminator 1 view .LVU45
1127:lvgl/src/draw/lv_draw_rect.c ****             v -= right_val;
 150              		.loc 1 1127 62 is_stmt 0 discriminator 1 view .LVU46
 151 005a 3AF81110 		ldrh	r1, [r10, r1, lsl #1]
 152              	.LVL16:
1127:lvgl/src/draw/lv_draw_rect.c ****             v -= right_val;
 153              		.loc 1 1127 62 discriminator 1 view .LVU47
 154 005e E8E7     		b	.L5
 155              	.LVL17:
 156              	.L29:
1132:lvgl/src/draw/lv_draw_rect.c ****             else left_val = sh_ups_tmp_buf[x - s_left - 1];
 157              		.loc 1 1132 36 is_stmt 1 discriminator 1 view .LVU48
1132:lvgl/src/draw/lv_draw_rect.c ****             else left_val = sh_ups_tmp_buf[x - s_left - 1];
 158              		.loc 1 1132 61 is_stmt 0 discriminator 1 view .LVU49
 159 0060 BAF80010 		ldrh	r1, [r10]
 160              	.LVL18:
1132:lvgl/src/draw/lv_draw_rect.c ****             else left_val = sh_ups_tmp_buf[x - s_left - 1];
ARM GAS  /var/folders/k2/cd9bl_j17z77g23y6ffqb_400000gn/T//cc0jKSMI.s 			page 24


 161              		.loc 1 1132 61 discriminator 1 view .LVU50
 162 0064 EFE7     		b	.L7
 163              	.LVL19:
 164              	.L30:
1132:lvgl/src/draw/lv_draw_rect.c ****             else left_val = sh_ups_tmp_buf[x - s_left - 1];
 165              		.loc 1 1132 61 discriminator 1 view .LVU51
 166              	.LBE191:
1135:lvgl/src/draw/lv_draw_rect.c ****         }
1136:lvgl/src/draw/lv_draw_rect.c ****         lv_memcpy(sh_ups_tmp_buf, sh_ups_blur_buf, size * sizeof(uint16_t));
 167              		.loc 1 1136 9 is_stmt 1 discriminator 2 view .LVU52
 168 0066 3A46     		mov	r2, r7
 169              	.LVL20:
 170              		.loc 1 1136 9 is_stmt 0 discriminator 2 view .LVU53
 171 0068 2946     		mov	r1, r5
 172 006a 5046     		mov	r0, r10
 173 006c FFF7FEFF 		bl	lv_memcpy
 174              	.LVL21:
1137:lvgl/src/draw/lv_draw_rect.c ****         sh_ups_tmp_buf += size;
 175              		.loc 1 1137 9 is_stmt 1 discriminator 2 view .LVU54
 176              		.loc 1 1137 24 is_stmt 0 discriminator 2 view .LVU55
 177 0070 BA44     		add	r10, r10, r7
 178              	.LVL22:
 179              		.loc 1 1137 24 discriminator 2 view .LVU56
 180              	.LBE189:
1120:lvgl/src/draw/lv_draw_rect.c ****         int32_t v = sh_ups_tmp_buf[size - 1] * sw;
 181              		.loc 1 1120 26 is_stmt 1 discriminator 2 view .LVU57
1120:lvgl/src/draw/lv_draw_rect.c ****         int32_t v = sh_ups_tmp_buf[size - 1] * sw;
 182              		.loc 1 1120 27 is_stmt 0 discriminator 2 view .LVU58
 183 0072 0BF1010B 		add	fp, fp, #1
 184              	.LVL23:
 185              	.L3:
1120:lvgl/src/draw/lv_draw_rect.c ****         int32_t v = sh_ups_tmp_buf[size - 1] * sw;
 186              		.loc 1 1120 16 is_stmt 1 discriminator 1 view .LVU59
1120:lvgl/src/draw/lv_draw_rect.c ****         int32_t v = sh_ups_tmp_buf[size - 1] * sw;
 187              		.loc 1 1120 5 is_stmt 0 discriminator 1 view .LVU60
 188 0076 5C45     		cmp	r4, fp
 189 0078 09DD     		ble	.L31
 190              	.LBB192:
1121:lvgl/src/draw/lv_draw_rect.c ****         for(x = size - 1; x >= 0; x--) {
 191              		.loc 1 1121 9 is_stmt 1 view .LVU61
1121:lvgl/src/draw/lv_draw_rect.c ****         for(x = size - 1; x >= 0; x--) {
 192              		.loc 1 1121 35 is_stmt 0 view .LVU62
 193 007a 04F10043 		add	r3, r4, #-2147483648
 194 007e 013B     		subs	r3, r3, #1
 195 0080 3AF81320 		ldrh	r2, [r10, r3, lsl #1]
1121:lvgl/src/draw/lv_draw_rect.c ****         for(x = size - 1; x >= 0; x--) {
 196              		.loc 1 1121 17 view .LVU63
 197 0084 019B     		ldr	r3, [sp, #4]
 198 0086 03FB02F2 		mul	r2, r3, r2
 199              	.LVL24:
1122:lvgl/src/draw/lv_draw_rect.c ****             sh_ups_blur_buf[x] = v;
 200              		.loc 1 1122 9 is_stmt 1 view .LVU64
1122:lvgl/src/draw/lv_draw_rect.c ****             sh_ups_blur_buf[x] = v;
 201              		.loc 1 1122 15 is_stmt 0 view .LVU65
 202 008a 631E     		subs	r3, r4, #1
 203              	.LVL25:
1122:lvgl/src/draw/lv_draw_rect.c ****             sh_ups_blur_buf[x] = v;
ARM GAS  /var/folders/k2/cd9bl_j17z77g23y6ffqb_400000gn/T//cc0jKSMI.s 			page 25


 204              		.loc 1 1122 9 view .LVU66
 205 008c DDE7     		b	.L4
 206              	.LVL26:
 207              	.L31:
1122:lvgl/src/draw/lv_draw_rect.c ****             sh_ups_blur_buf[x] = v;
 208              		.loc 1 1122 9 view .LVU67
 209              	.LBE192:
1138:lvgl/src/draw/lv_draw_rect.c ****     }
1139:lvgl/src/draw/lv_draw_rect.c **** 
1140:lvgl/src/draw/lv_draw_rect.c ****     /*Vertical blur*/
1141:lvgl/src/draw/lv_draw_rect.c ****     uint32_t i;
 210              		.loc 1 1141 5 is_stmt 1 view .LVU68
1142:lvgl/src/draw/lv_draw_rect.c ****     sh_ups_buf[0] = sh_ups_buf[0] / sw;
 211              		.loc 1 1142 5 view .LVU69
 212              		.loc 1 1142 31 is_stmt 0 view .LVU70
 213 008e 3388     		ldrh	r3, [r6]
 214              		.loc 1 1142 35 view .LVU71
 215 0090 019A     		ldr	r2, [sp, #4]
 216 0092 93FBF2F3 		sdiv	r3, r3, r2
 217              		.loc 1 1142 19 view .LVU72
 218 0096 3380     		strh	r3, [r6]	@ movhi
1143:lvgl/src/draw/lv_draw_rect.c ****     for(i = 1; i < (uint32_t)size * size; i++) {
 219              		.loc 1 1143 5 is_stmt 1 view .LVU73
 220              	.LVL27:
 221              		.loc 1 1143 11 is_stmt 0 view .LVU74
 222 0098 0123     		movs	r3, #1
 223              		.loc 1 1143 5 view .LVU75
 224 009a 02E0     		b	.L10
 225              	.LVL28:
 226              	.L33:
1144:lvgl/src/draw/lv_draw_rect.c ****         if(sh_ups_buf[i] == sh_ups_buf[i - 1]) sh_ups_buf[i] = sh_ups_buf[i - 1];
 227              		.loc 1 1144 48 is_stmt 1 discriminator 1 view .LVU76
 228              		.loc 1 1144 62 is_stmt 0 discriminator 1 view .LVU77
 229 009c 26F81320 		strh	r2, [r6, r3, lsl #1]	@ movhi
 230              	.L12:
1143:lvgl/src/draw/lv_draw_rect.c ****     for(i = 1; i < (uint32_t)size * size; i++) {
 231              		.loc 1 1143 43 is_stmt 1 discriminator 2 view .LVU78
1143:lvgl/src/draw/lv_draw_rect.c ****     for(i = 1; i < (uint32_t)size * size; i++) {
 232              		.loc 1 1143 44 is_stmt 0 discriminator 2 view .LVU79
 233 00a0 0133     		adds	r3, r3, #1
 234              	.LVL29:
 235              	.L10:
1143:lvgl/src/draw/lv_draw_rect.c ****     for(i = 1; i < (uint32_t)size * size; i++) {
 236              		.loc 1 1143 16 is_stmt 1 discriminator 1 view .LVU80
1143:lvgl/src/draw/lv_draw_rect.c ****     for(i = 1; i < (uint32_t)size * size; i++) {
 237              		.loc 1 1143 35 is_stmt 0 discriminator 1 view .LVU81
 238 00a2 04FB04F2 		mul	r2, r4, r4
1143:lvgl/src/draw/lv_draw_rect.c ****     for(i = 1; i < (uint32_t)size * size; i++) {
 239              		.loc 1 1143 5 discriminator 1 view .LVU82
 240 00a6 9A42     		cmp	r2, r3
 241 00a8 0ED9     		bls	.L32
 242              		.loc 1 1144 9 is_stmt 1 view .LVU83
 243              		.loc 1 1144 22 is_stmt 0 view .LVU84
 244 00aa 36F81310 		ldrh	r1, [r6, r3, lsl #1]
 245              		.loc 1 1144 39 view .LVU85
 246 00ae 03F10042 		add	r2, r3, #-2147483648
 247 00b2 013A     		subs	r2, r2, #1
ARM GAS  /var/folders/k2/cd9bl_j17z77g23y6ffqb_400000gn/T//cc0jKSMI.s 			page 26


 248 00b4 36F81220 		ldrh	r2, [r6, r2, lsl #1]
 249              		.loc 1 1144 11 view .LVU86
 250 00b8 9142     		cmp	r1, r2
 251 00ba EFD0     		beq	.L33
1145:lvgl/src/draw/lv_draw_rect.c ****         else  sh_ups_buf[i] = sh_ups_buf[i] / sw;
 252              		.loc 1 1145 15 is_stmt 1 view .LVU87
 253              		.loc 1 1145 45 is_stmt 0 view .LVU88
 254 00bc 019A     		ldr	r2, [sp, #4]
 255 00be 91FBF2F1 		sdiv	r1, r1, r2
 256              		.loc 1 1145 29 view .LVU89
 257 00c2 26F81310 		strh	r1, [r6, r3, lsl #1]	@ movhi
 258 00c6 EBE7     		b	.L12
 259              	.L32:
1146:lvgl/src/draw/lv_draw_rect.c ****     }
1147:lvgl/src/draw/lv_draw_rect.c **** 
1148:lvgl/src/draw/lv_draw_rect.c ****     for(x = 0; x < size; x++) {
 260              		.loc 1 1148 11 view .LVU90
 261 00c8 4FF0000E 		mov	lr, #0
 262 00cc 32E0     		b	.L14
 263              	.LVL30:
 264              	.L27:
 265              	.LBB193:
 266              	.LBB194:
1149:lvgl/src/draw/lv_draw_rect.c ****         sh_ups_tmp_buf = &sh_ups_buf[x];
1150:lvgl/src/draw/lv_draw_rect.c ****         int32_t v = sh_ups_tmp_buf[0] * sw;
1151:lvgl/src/draw/lv_draw_rect.c ****         for(y = 0; y < size ; y++, sh_ups_tmp_buf += size) {
1152:lvgl/src/draw/lv_draw_rect.c ****             sh_ups_blur_buf[y] = v < 0 ? 0 : (v >> SHADOW_UPSCALE_SHIFT);
 267              		.loc 1 1152 32 view .LVU91
 268 00ce 0021     		movs	r1, #0
 269 00d0 10E0     		b	.L16
 270              	.L35:
1153:lvgl/src/draw/lv_draw_rect.c **** 
1154:lvgl/src/draw/lv_draw_rect.c ****             /*Forget the top pixel*/
1155:lvgl/src/draw/lv_draw_rect.c ****             uint32_t top_val;
1156:lvgl/src/draw/lv_draw_rect.c ****             if(y - s_right <= 0) top_val = sh_ups_tmp_buf[0];
 271              		.loc 1 1156 34 is_stmt 1 discriminator 1 view .LVU92
 272              		.loc 1 1156 58 is_stmt 0 discriminator 1 view .LVU93
 273 00d2 BCF80010 		ldrh	r1, [ip]
 274              	.LVL31:
 275              		.loc 1 1156 58 discriminator 1 view .LVU94
 276 00d6 17E0     		b	.L18
 277              	.LVL32:
 278              	.L19:
1157:lvgl/src/draw/lv_draw_rect.c ****             else top_val = sh_ups_buf[(y - s_right) * size + x];
1158:lvgl/src/draw/lv_draw_rect.c ****             v -= top_val;
1159:lvgl/src/draw/lv_draw_rect.c **** 
1160:lvgl/src/draw/lv_draw_rect.c ****             /*Add the bottom pixel*/
1161:lvgl/src/draw/lv_draw_rect.c ****             uint32_t bottom_val;
1162:lvgl/src/draw/lv_draw_rect.c ****             if(y + s_left + 1 < size) bottom_val = sh_ups_buf[(y + s_left + 1) * size + x];
1163:lvgl/src/draw/lv_draw_rect.c ****             else bottom_val = sh_ups_buf[(size - 1) * size + x];
 279              		.loc 1 1163 18 is_stmt 1 view .LVU95
 280              		.loc 1 1163 48 is_stmt 0 view .LVU96
 281 00d8 611E     		subs	r1, r4, #1
 282              		.loc 1 1163 60 view .LVU97
 283 00da 01FB04E1 		mla	r1, r1, r4, lr
 284              		.loc 1 1163 41 view .LVU98
 285 00de 36F81110 		ldrh	r1, [r6, r1, lsl #1]
ARM GAS  /var/folders/k2/cd9bl_j17z77g23y6ffqb_400000gn/T//cc0jKSMI.s 			page 27


 286              	.LVL33:
 287              	.L20:
1164:lvgl/src/draw/lv_draw_rect.c ****             v += bottom_val;
 288              		.loc 1 1164 13 is_stmt 1 discriminator 2 view .LVU99
 289              		.loc 1 1164 15 is_stmt 0 discriminator 2 view .LVU100
 290 00e2 0A44     		add	r2, r2, r1
 291              	.LVL34:
 292              		.loc 1 1164 15 discriminator 2 view .LVU101
 293              	.LBE194:
1151:lvgl/src/draw/lv_draw_rect.c ****             sh_ups_blur_buf[y] = v < 0 ? 0 : (v >> SHADOW_UPSCALE_SHIFT);
 294              		.loc 1 1151 31 is_stmt 1 discriminator 2 view .LVU102
1151:lvgl/src/draw/lv_draw_rect.c ****             sh_ups_blur_buf[y] = v < 0 ? 0 : (v >> SHADOW_UPSCALE_SHIFT);
 295              		.loc 1 1151 32 is_stmt 0 discriminator 2 view .LVU103
 296 00e4 0133     		adds	r3, r3, #1
 297              	.LVL35:
1151:lvgl/src/draw/lv_draw_rect.c ****             sh_ups_blur_buf[y] = v < 0 ? 0 : (v >> SHADOW_UPSCALE_SHIFT);
 298              		.loc 1 1151 51 discriminator 2 view .LVU104
 299 00e6 BC44     		add	ip, ip, r7
 300              	.LVL36:
 301              	.L15:
1151:lvgl/src/draw/lv_draw_rect.c ****             sh_ups_blur_buf[y] = v < 0 ? 0 : (v >> SHADOW_UPSCALE_SHIFT);
 302              		.loc 1 1151 20 is_stmt 1 discriminator 1 view .LVU105
1151:lvgl/src/draw/lv_draw_rect.c ****             sh_ups_blur_buf[y] = v < 0 ? 0 : (v >> SHADOW_UPSCALE_SHIFT);
 303              		.loc 1 1151 9 is_stmt 0 discriminator 1 view .LVU106
 304 00e8 9C42     		cmp	r4, r3
 305 00ea 18DD     		ble	.L34
 306              	.LBB195:
1152:lvgl/src/draw/lv_draw_rect.c **** 
 307              		.loc 1 1152 13 is_stmt 1 view .LVU107
1152:lvgl/src/draw/lv_draw_rect.c **** 
 308              		.loc 1 1152 32 is_stmt 0 view .LVU108
 309 00ec 002A     		cmp	r2, #0
 310 00ee EEDB     		blt	.L27
1152:lvgl/src/draw/lv_draw_rect.c **** 
 311              		.loc 1 1152 32 discriminator 1 view .LVU109
 312 00f0 C2F38F11 		ubfx	r1, r2, #6, #16
 313              	.L16:
1152:lvgl/src/draw/lv_draw_rect.c **** 
 314              		.loc 1 1152 32 discriminator 4 view .LVU110
 315 00f4 25F81310 		strh	r1, [r5, r3, lsl #1]	@ movhi
1155:lvgl/src/draw/lv_draw_rect.c ****             if(y - s_right <= 0) top_val = sh_ups_tmp_buf[0];
 316              		.loc 1 1155 13 is_stmt 1 discriminator 4 view .LVU111
1156:lvgl/src/draw/lv_draw_rect.c ****             else top_val = sh_ups_buf[(y - s_right) * size + x];
 317              		.loc 1 1156 13 discriminator 4 view .LVU112
1156:lvgl/src/draw/lv_draw_rect.c ****             else top_val = sh_ups_buf[(y - s_right) * size + x];
 318              		.loc 1 1156 18 is_stmt 0 discriminator 4 view .LVU113
 319 00f8 A3EB0801 		sub	r1, r3, r8
1156:lvgl/src/draw/lv_draw_rect.c ****             else top_val = sh_ups_buf[(y - s_right) * size + x];
 320              		.loc 1 1156 15 discriminator 4 view .LVU114
 321 00fc 0029     		cmp	r1, #0
 322 00fe E8DD     		ble	.L35
1157:lvgl/src/draw/lv_draw_rect.c ****             v -= top_val;
 323              		.loc 1 1157 18 is_stmt 1 view .LVU115
1157:lvgl/src/draw/lv_draw_rect.c ****             v -= top_val;
 324              		.loc 1 1157 60 is_stmt 0 view .LVU116
 325 0100 01FB04E1 		mla	r1, r1, r4, lr
1157:lvgl/src/draw/lv_draw_rect.c ****             v -= top_val;
ARM GAS  /var/folders/k2/cd9bl_j17z77g23y6ffqb_400000gn/T//cc0jKSMI.s 			page 28


 326              		.loc 1 1157 38 view .LVU117
 327 0104 36F81110 		ldrh	r1, [r6, r1, lsl #1]
 328              	.LVL37:
 329              	.L18:
1158:lvgl/src/draw/lv_draw_rect.c **** 
 330              		.loc 1 1158 13 is_stmt 1 view .LVU118
1158:lvgl/src/draw/lv_draw_rect.c **** 
 331              		.loc 1 1158 15 is_stmt 0 view .LVU119
 332 0108 521A     		subs	r2, r2, r1
 333              	.LVL38:
1161:lvgl/src/draw/lv_draw_rect.c ****             if(y + s_left + 1 < size) bottom_val = sh_ups_buf[(y + s_left + 1) * size + x];
 334              		.loc 1 1161 13 is_stmt 1 view .LVU120
1162:lvgl/src/draw/lv_draw_rect.c ****             else bottom_val = sh_ups_buf[(size - 1) * size + x];
 335              		.loc 1 1162 13 view .LVU121
1162:lvgl/src/draw/lv_draw_rect.c ****             else bottom_val = sh_ups_buf[(size - 1) * size + x];
 336              		.loc 1 1162 18 is_stmt 0 view .LVU122
 337 010a 09EB0301 		add	r1, r9, r3
 338              	.LVL39:
1162:lvgl/src/draw/lv_draw_rect.c ****             else bottom_val = sh_ups_buf[(size - 1) * size + x];
 339              		.loc 1 1162 27 view .LVU123
 340 010e 0131     		adds	r1, r1, #1
1162:lvgl/src/draw/lv_draw_rect.c ****             else bottom_val = sh_ups_buf[(size - 1) * size + x];
 341              		.loc 1 1162 15 view .LVU124
 342 0110 8C42     		cmp	r4, r1
 343 0112 E1DD     		ble	.L19
1162:lvgl/src/draw/lv_draw_rect.c ****             else bottom_val = sh_ups_buf[(size - 1) * size + x];
 344              		.loc 1 1162 39 is_stmt 1 discriminator 1 view .LVU125
1162:lvgl/src/draw/lv_draw_rect.c ****             else bottom_val = sh_ups_buf[(size - 1) * size + x];
 345              		.loc 1 1162 87 is_stmt 0 discriminator 1 view .LVU126
 346 0114 01FB04E1 		mla	r1, r1, r4, lr
1162:lvgl/src/draw/lv_draw_rect.c ****             else bottom_val = sh_ups_buf[(size - 1) * size + x];
 347              		.loc 1 1162 62 discriminator 1 view .LVU127
 348 0118 36F81110 		ldrh	r1, [r6, r1, lsl #1]
 349              	.LVL40:
1162:lvgl/src/draw/lv_draw_rect.c ****             else bottom_val = sh_ups_buf[(size - 1) * size + x];
 350              		.loc 1 1162 62 discriminator 1 view .LVU128
 351 011c E1E7     		b	.L20
 352              	.LVL41:
 353              	.L34:
1162:lvgl/src/draw/lv_draw_rect.c ****             else bottom_val = sh_ups_buf[(size - 1) * size + x];
 354              		.loc 1 1162 62 discriminator 1 view .LVU129
 355              	.LBE195:
1165:lvgl/src/draw/lv_draw_rect.c ****         }
1166:lvgl/src/draw/lv_draw_rect.c **** 
1167:lvgl/src/draw/lv_draw_rect.c ****         /*Write back the result into `sh_ups_buf`*/
1168:lvgl/src/draw/lv_draw_rect.c ****         sh_ups_tmp_buf = &sh_ups_buf[x];
1169:lvgl/src/draw/lv_draw_rect.c ****         for(y = 0; y < size; y++, sh_ups_tmp_buf += size) {
 356              		.loc 1 1169 15 view .LVU130
 357 011e 0023     		movs	r3, #0
 358              	.LVL42:
 359              		.loc 1 1169 15 view .LVU131
 360 0120 04E0     		b	.L22
 361              	.LVL43:
 362              	.L23:
1170:lvgl/src/draw/lv_draw_rect.c ****             (*sh_ups_tmp_buf) = sh_ups_blur_buf[y];
 363              		.loc 1 1170 13 is_stmt 1 discriminator 3 view .LVU132
 364              		.loc 1 1170 48 is_stmt 0 discriminator 3 view .LVU133
ARM GAS  /var/folders/k2/cd9bl_j17z77g23y6ffqb_400000gn/T//cc0jKSMI.s 			page 29


 365 0122 35F81320 		ldrh	r2, [r5, r3, lsl #1]
 366              		.loc 1 1170 31 discriminator 3 view .LVU134
 367 0126 0280     		strh	r2, [r0]	@ movhi
1169:lvgl/src/draw/lv_draw_rect.c ****             (*sh_ups_tmp_buf) = sh_ups_blur_buf[y];
 368              		.loc 1 1169 30 is_stmt 1 discriminator 3 view .LVU135
1169:lvgl/src/draw/lv_draw_rect.c ****             (*sh_ups_tmp_buf) = sh_ups_blur_buf[y];
 369              		.loc 1 1169 31 is_stmt 0 discriminator 3 view .LVU136
 370 0128 0133     		adds	r3, r3, #1
 371              	.LVL44:
1169:lvgl/src/draw/lv_draw_rect.c ****             (*sh_ups_tmp_buf) = sh_ups_blur_buf[y];
 372              		.loc 1 1169 50 discriminator 3 view .LVU137
 373 012a 3844     		add	r0, r0, r7
 374              	.LVL45:
 375              	.L22:
1169:lvgl/src/draw/lv_draw_rect.c ****             (*sh_ups_tmp_buf) = sh_ups_blur_buf[y];
 376              		.loc 1 1169 20 is_stmt 1 discriminator 1 view .LVU138
1169:lvgl/src/draw/lv_draw_rect.c ****             (*sh_ups_tmp_buf) = sh_ups_blur_buf[y];
 377              		.loc 1 1169 9 is_stmt 0 discriminator 1 view .LVU139
 378 012c 9C42     		cmp	r4, r3
 379 012e F8DC     		bgt	.L23
 380              	.LBE193:
1148:lvgl/src/draw/lv_draw_rect.c ****         sh_ups_tmp_buf = &sh_ups_buf[x];
 381              		.loc 1 1148 26 is_stmt 1 discriminator 2 view .LVU140
1148:lvgl/src/draw/lv_draw_rect.c ****         sh_ups_tmp_buf = &sh_ups_buf[x];
 382              		.loc 1 1148 27 is_stmt 0 discriminator 2 view .LVU141
 383 0130 0EF1010E 		add	lr, lr, #1
 384              	.LVL46:
 385              	.L14:
1148:lvgl/src/draw/lv_draw_rect.c ****         sh_ups_tmp_buf = &sh_ups_buf[x];
 386              		.loc 1 1148 16 is_stmt 1 discriminator 1 view .LVU142
1148:lvgl/src/draw/lv_draw_rect.c ****         sh_ups_tmp_buf = &sh_ups_buf[x];
 387              		.loc 1 1148 5 is_stmt 0 discriminator 1 view .LVU143
 388 0134 7445     		cmp	r4, lr
 389 0136 09DD     		ble	.L36
 390              	.LBB196:
1149:lvgl/src/draw/lv_draw_rect.c ****         int32_t v = sh_ups_tmp_buf[0] * sw;
 391              		.loc 1 1149 9 is_stmt 1 view .LVU144
1149:lvgl/src/draw/lv_draw_rect.c ****         int32_t v = sh_ups_tmp_buf[0] * sw;
 392              		.loc 1 1149 24 is_stmt 0 view .LVU145
 393 0138 06EB4E00 		add	r0, r6, lr, lsl #1
 394              	.LVL47:
1150:lvgl/src/draw/lv_draw_rect.c ****         for(y = 0; y < size ; y++, sh_ups_tmp_buf += size) {
 395              		.loc 1 1150 9 is_stmt 1 view .LVU146
1150:lvgl/src/draw/lv_draw_rect.c ****         for(y = 0; y < size ; y++, sh_ups_tmp_buf += size) {
 396              		.loc 1 1150 35 is_stmt 0 view .LVU147
 397 013c 36F81E20 		ldrh	r2, [r6, lr, lsl #1]
1150:lvgl/src/draw/lv_draw_rect.c ****         for(y = 0; y < size ; y++, sh_ups_tmp_buf += size) {
 398              		.loc 1 1150 17 view .LVU148
 399 0140 019B     		ldr	r3, [sp, #4]
 400 0142 03FB02F2 		mul	r2, r3, r2
 401              	.LVL48:
1151:lvgl/src/draw/lv_draw_rect.c ****             sh_ups_blur_buf[y] = v < 0 ? 0 : (v >> SHADOW_UPSCALE_SHIFT);
 402              		.loc 1 1151 9 is_stmt 1 view .LVU149
1149:lvgl/src/draw/lv_draw_rect.c ****         int32_t v = sh_ups_tmp_buf[0] * sw;
 403              		.loc 1 1149 24 is_stmt 0 view .LVU150
 404 0146 8446     		mov	ip, r0
1151:lvgl/src/draw/lv_draw_rect.c ****             sh_ups_blur_buf[y] = v < 0 ? 0 : (v >> SHADOW_UPSCALE_SHIFT);
ARM GAS  /var/folders/k2/cd9bl_j17z77g23y6ffqb_400000gn/T//cc0jKSMI.s 			page 30


 405              		.loc 1 1151 15 view .LVU151
 406 0148 0023     		movs	r3, #0
1151:lvgl/src/draw/lv_draw_rect.c ****             sh_ups_blur_buf[y] = v < 0 ? 0 : (v >> SHADOW_UPSCALE_SHIFT);
 407              		.loc 1 1151 9 view .LVU152
 408 014a CDE7     		b	.L15
 409              	.LVL49:
 410              	.L36:
1151:lvgl/src/draw/lv_draw_rect.c ****             sh_ups_blur_buf[y] = v < 0 ? 0 : (v >> SHADOW_UPSCALE_SHIFT);
 411              		.loc 1 1151 9 view .LVU153
 412              	.LBE196:
1171:lvgl/src/draw/lv_draw_rect.c ****         }
1172:lvgl/src/draw/lv_draw_rect.c ****     }
1173:lvgl/src/draw/lv_draw_rect.c **** 
1174:lvgl/src/draw/lv_draw_rect.c ****     lv_mem_buf_release(sh_ups_blur_buf);
 413              		.loc 1 1174 5 is_stmt 1 view .LVU154
 414 014c 2846     		mov	r0, r5
 415 014e FFF7FEFF 		bl	lv_mem_buf_release
 416              	.LVL50:
1175:lvgl/src/draw/lv_draw_rect.c **** }
 417              		.loc 1 1175 1 is_stmt 0 view .LVU155
 418 0152 03B0     		add	sp, sp, #12
 419              	.LCFI2:
 420              		.cfi_def_cfa_offset 36
 421              		@ sp needed
 422 0154 BDE8F08F 		pop	{r4, r5, r6, r7, r8, r9, r10, fp, pc}
 423              		.loc 1 1175 1 view .LVU156
 424              		.cfi_endproc
 425              	.LFE155:
 427              		.section	.text.shadow_draw_corner_buf,"ax",%progbits
 428              		.align	1
 429              		.syntax unified
 430              		.thumb
 431              		.thumb_func
 432              		.fpu fpv4-sp-d16
 434              	shadow_draw_corner_buf:
 435              	.LVL51:
 436              	.LFB154:
1024:lvgl/src/draw/lv_draw_rect.c ****     int32_t sw_ori = sw;
 437              		.loc 1 1024 1 is_stmt 1 view -0
 438              		.cfi_startproc
 439              		@ args = 0, pretend = 0, frame = 40
 440              		@ frame_needed = 0, uses_anonymous_args = 0
1024:lvgl/src/draw/lv_draw_rect.c ****     int32_t sw_ori = sw;
 441              		.loc 1 1024 1 is_stmt 0 view .LVU158
 442 0000 2DE9F04F 		push	{r4, r5, r6, r7, r8, r9, r10, fp, lr}
 443              	.LCFI3:
 444              		.cfi_def_cfa_offset 36
 445              		.cfi_offset 4, -36
 446              		.cfi_offset 5, -32
 447              		.cfi_offset 6, -28
 448              		.cfi_offset 7, -24
 449              		.cfi_offset 8, -20
 450              		.cfi_offset 9, -16
 451              		.cfi_offset 10, -12
 452              		.cfi_offset 11, -8
 453              		.cfi_offset 14, -4
 454 0004 8DB0     		sub	sp, sp, #52
ARM GAS  /var/folders/k2/cd9bl_j17z77g23y6ffqb_400000gn/T//cc0jKSMI.s 			page 31


 455              	.LCFI4:
 456              		.cfi_def_cfa_offset 88
 457 0006 8846     		mov	r8, r1
 458 0008 9146     		mov	r9, r2
 459 000a 1A46     		mov	r2, r3
 460              	.LVL52:
1025:lvgl/src/draw/lv_draw_rect.c ****     int32_t size = sw_ori  + r;
 461              		.loc 1 1025 5 is_stmt 1 view .LVU159
1026:lvgl/src/draw/lv_draw_rect.c **** 
 462              		.loc 1 1026 5 view .LVU160
1026:lvgl/src/draw/lv_draw_rect.c **** 
 463              		.loc 1 1026 13 is_stmt 0 view .LVU161
 464 000c 03EB0904 		add	r4, r3, r9
 465              	.LVL53:
1028:lvgl/src/draw/lv_draw_rect.c ****     lv_area_copy(&sh_area, coords);
 466              		.loc 1 1028 5 is_stmt 1 view .LVU162
1029:lvgl/src/draw/lv_draw_rect.c ****     sh_area.x2 = sw / 2 + r - 1  - ((sw & 1) ? 0 : 1);
 467              		.loc 1 1029 5 view .LVU163
 468              	.LBB197:
 469              	.LBI197:
 470              		.file 2 "lvgl/src/draw/../misc/lv_area.h"
   1:lvgl/src/draw/../misc/lv_area.h **** /**
   2:lvgl/src/draw/../misc/lv_area.h ****  * @file lv_area.h
   3:lvgl/src/draw/../misc/lv_area.h ****  *
   4:lvgl/src/draw/../misc/lv_area.h ****  */
   5:lvgl/src/draw/../misc/lv_area.h **** 
   6:lvgl/src/draw/../misc/lv_area.h **** #ifndef LV_AREA_H
   7:lvgl/src/draw/../misc/lv_area.h **** #define LV_AREA_H
   8:lvgl/src/draw/../misc/lv_area.h **** 
   9:lvgl/src/draw/../misc/lv_area.h **** #ifdef __cplusplus
  10:lvgl/src/draw/../misc/lv_area.h **** extern "C" {
  11:lvgl/src/draw/../misc/lv_area.h **** #endif
  12:lvgl/src/draw/../misc/lv_area.h **** 
  13:lvgl/src/draw/../misc/lv_area.h **** /*********************
  14:lvgl/src/draw/../misc/lv_area.h ****  *      INCLUDES
  15:lvgl/src/draw/../misc/lv_area.h ****  *********************/
  16:lvgl/src/draw/../misc/lv_area.h **** #include "../lv_conf_internal.h"
  17:lvgl/src/draw/../misc/lv_area.h **** #include <string.h>
  18:lvgl/src/draw/../misc/lv_area.h **** #include <stdbool.h>
  19:lvgl/src/draw/../misc/lv_area.h **** #include <stdint.h>
  20:lvgl/src/draw/../misc/lv_area.h **** 
  21:lvgl/src/draw/../misc/lv_area.h **** /*********************
  22:lvgl/src/draw/../misc/lv_area.h ****  *      DEFINES
  23:lvgl/src/draw/../misc/lv_area.h ****  *********************/
  24:lvgl/src/draw/../misc/lv_area.h **** 
  25:lvgl/src/draw/../misc/lv_area.h **** #define _LV_COORD_MAX_REDUCE    8192
  26:lvgl/src/draw/../misc/lv_area.h **** 
  27:lvgl/src/draw/../misc/lv_area.h **** #if LV_USE_LARGE_COORD
  28:lvgl/src/draw/../misc/lv_area.h **** typedef int32_t lv_coord_t;
  29:lvgl/src/draw/../misc/lv_area.h **** #else
  30:lvgl/src/draw/../misc/lv_area.h **** typedef int16_t lv_coord_t;
  31:lvgl/src/draw/../misc/lv_area.h **** #endif
  32:lvgl/src/draw/../misc/lv_area.h **** 
  33:lvgl/src/draw/../misc/lv_area.h **** /*To allow some special values in the end reduce the max value*/
  34:lvgl/src/draw/../misc/lv_area.h **** #define LV_COORD_MAX ((lv_coord_t)((uint32_t)((uint32_t)1 << (8 * sizeof(lv_coord_t) - 1)) - _LV_CO
  35:lvgl/src/draw/../misc/lv_area.h **** #define LV_COORD_MIN (-LV_COORD_MAX)
  36:lvgl/src/draw/../misc/lv_area.h **** 
ARM GAS  /var/folders/k2/cd9bl_j17z77g23y6ffqb_400000gn/T//cc0jKSMI.s 			page 32


  37:lvgl/src/draw/../misc/lv_area.h **** LV_EXPORT_CONST_INT(LV_COORD_MAX);
  38:lvgl/src/draw/../misc/lv_area.h **** LV_EXPORT_CONST_INT(LV_COORD_MIN);
  39:lvgl/src/draw/../misc/lv_area.h **** 
  40:lvgl/src/draw/../misc/lv_area.h **** /**********************
  41:lvgl/src/draw/../misc/lv_area.h ****  *      TYPEDEFS
  42:lvgl/src/draw/../misc/lv_area.h ****  **********************/
  43:lvgl/src/draw/../misc/lv_area.h **** 
  44:lvgl/src/draw/../misc/lv_area.h **** /**
  45:lvgl/src/draw/../misc/lv_area.h ****  * Represents a point on the screen.
  46:lvgl/src/draw/../misc/lv_area.h ****  */
  47:lvgl/src/draw/../misc/lv_area.h **** typedef struct {
  48:lvgl/src/draw/../misc/lv_area.h ****     lv_coord_t x;
  49:lvgl/src/draw/../misc/lv_area.h ****     lv_coord_t y;
  50:lvgl/src/draw/../misc/lv_area.h **** } lv_point_t;
  51:lvgl/src/draw/../misc/lv_area.h **** 
  52:lvgl/src/draw/../misc/lv_area.h **** /** Represents an area of the screen.*/
  53:lvgl/src/draw/../misc/lv_area.h **** typedef struct {
  54:lvgl/src/draw/../misc/lv_area.h ****     lv_coord_t x1;
  55:lvgl/src/draw/../misc/lv_area.h ****     lv_coord_t y1;
  56:lvgl/src/draw/../misc/lv_area.h ****     lv_coord_t x2;
  57:lvgl/src/draw/../misc/lv_area.h ****     lv_coord_t y2;
  58:lvgl/src/draw/../misc/lv_area.h **** } lv_area_t;
  59:lvgl/src/draw/../misc/lv_area.h **** 
  60:lvgl/src/draw/../misc/lv_area.h **** /** Alignments*/
  61:lvgl/src/draw/../misc/lv_area.h **** enum {
  62:lvgl/src/draw/../misc/lv_area.h ****     LV_ALIGN_DEFAULT = 0,
  63:lvgl/src/draw/../misc/lv_area.h ****     LV_ALIGN_TOP_LEFT,
  64:lvgl/src/draw/../misc/lv_area.h ****     LV_ALIGN_TOP_MID,
  65:lvgl/src/draw/../misc/lv_area.h ****     LV_ALIGN_TOP_RIGHT,
  66:lvgl/src/draw/../misc/lv_area.h ****     LV_ALIGN_BOTTOM_LEFT,
  67:lvgl/src/draw/../misc/lv_area.h ****     LV_ALIGN_BOTTOM_MID,
  68:lvgl/src/draw/../misc/lv_area.h ****     LV_ALIGN_BOTTOM_RIGHT,
  69:lvgl/src/draw/../misc/lv_area.h ****     LV_ALIGN_LEFT_MID,
  70:lvgl/src/draw/../misc/lv_area.h ****     LV_ALIGN_RIGHT_MID,
  71:lvgl/src/draw/../misc/lv_area.h ****     LV_ALIGN_CENTER,
  72:lvgl/src/draw/../misc/lv_area.h **** 
  73:lvgl/src/draw/../misc/lv_area.h ****     LV_ALIGN_OUT_TOP_LEFT,
  74:lvgl/src/draw/../misc/lv_area.h ****     LV_ALIGN_OUT_TOP_MID,
  75:lvgl/src/draw/../misc/lv_area.h ****     LV_ALIGN_OUT_TOP_RIGHT,
  76:lvgl/src/draw/../misc/lv_area.h ****     LV_ALIGN_OUT_BOTTOM_LEFT,
  77:lvgl/src/draw/../misc/lv_area.h ****     LV_ALIGN_OUT_BOTTOM_MID,
  78:lvgl/src/draw/../misc/lv_area.h ****     LV_ALIGN_OUT_BOTTOM_RIGHT,
  79:lvgl/src/draw/../misc/lv_area.h ****     LV_ALIGN_OUT_LEFT_TOP,
  80:lvgl/src/draw/../misc/lv_area.h ****     LV_ALIGN_OUT_LEFT_MID,
  81:lvgl/src/draw/../misc/lv_area.h ****     LV_ALIGN_OUT_LEFT_BOTTOM,
  82:lvgl/src/draw/../misc/lv_area.h ****     LV_ALIGN_OUT_RIGHT_TOP,
  83:lvgl/src/draw/../misc/lv_area.h ****     LV_ALIGN_OUT_RIGHT_MID,
  84:lvgl/src/draw/../misc/lv_area.h ****     LV_ALIGN_OUT_RIGHT_BOTTOM,
  85:lvgl/src/draw/../misc/lv_area.h **** };
  86:lvgl/src/draw/../misc/lv_area.h **** typedef uint8_t lv_align_t;
  87:lvgl/src/draw/../misc/lv_area.h **** 
  88:lvgl/src/draw/../misc/lv_area.h **** enum {
  89:lvgl/src/draw/../misc/lv_area.h ****     LV_DIR_NONE     = 0x00,
  90:lvgl/src/draw/../misc/lv_area.h ****     LV_DIR_LEFT     = (1 << 0),
  91:lvgl/src/draw/../misc/lv_area.h ****     LV_DIR_RIGHT    = (1 << 1),
  92:lvgl/src/draw/../misc/lv_area.h ****     LV_DIR_TOP      = (1 << 2),
  93:lvgl/src/draw/../misc/lv_area.h ****     LV_DIR_BOTTOM   = (1 << 3),
ARM GAS  /var/folders/k2/cd9bl_j17z77g23y6ffqb_400000gn/T//cc0jKSMI.s 			page 33


  94:lvgl/src/draw/../misc/lv_area.h ****     LV_DIR_HOR      = LV_DIR_LEFT | LV_DIR_RIGHT,
  95:lvgl/src/draw/../misc/lv_area.h ****     LV_DIR_VER      = LV_DIR_TOP | LV_DIR_BOTTOM,
  96:lvgl/src/draw/../misc/lv_area.h ****     LV_DIR_ALL      = LV_DIR_HOR | LV_DIR_VER,
  97:lvgl/src/draw/../misc/lv_area.h **** };
  98:lvgl/src/draw/../misc/lv_area.h **** 
  99:lvgl/src/draw/../misc/lv_area.h **** typedef uint8_t lv_dir_t;
 100:lvgl/src/draw/../misc/lv_area.h **** 
 101:lvgl/src/draw/../misc/lv_area.h **** /**********************
 102:lvgl/src/draw/../misc/lv_area.h ****  * GLOBAL PROTOTYPES
 103:lvgl/src/draw/../misc/lv_area.h ****  **********************/
 104:lvgl/src/draw/../misc/lv_area.h **** 
 105:lvgl/src/draw/../misc/lv_area.h **** /**
 106:lvgl/src/draw/../misc/lv_area.h ****  * Initialize an area
 107:lvgl/src/draw/../misc/lv_area.h ****  * @param area_p pointer to an area
 108:lvgl/src/draw/../misc/lv_area.h ****  * @param x1 left coordinate of the area
 109:lvgl/src/draw/../misc/lv_area.h ****  * @param y1 top coordinate of the area
 110:lvgl/src/draw/../misc/lv_area.h ****  * @param x2 right coordinate of the area
 111:lvgl/src/draw/../misc/lv_area.h ****  * @param y2 bottom coordinate of the area
 112:lvgl/src/draw/../misc/lv_area.h ****  */
 113:lvgl/src/draw/../misc/lv_area.h **** void lv_area_set(lv_area_t * area_p, lv_coord_t x1, lv_coord_t y1, lv_coord_t x2, lv_coord_t y2);
 114:lvgl/src/draw/../misc/lv_area.h **** 
 115:lvgl/src/draw/../misc/lv_area.h **** /**
 116:lvgl/src/draw/../misc/lv_area.h ****  * Copy an area
 117:lvgl/src/draw/../misc/lv_area.h ****  * @param dest pointer to the destination area
 118:lvgl/src/draw/../misc/lv_area.h ****  * @param src pointer to the source area
 119:lvgl/src/draw/../misc/lv_area.h ****  */
 120:lvgl/src/draw/../misc/lv_area.h **** inline static void lv_area_copy(lv_area_t * dest, const lv_area_t * src)
 471              		.loc 2 120 20 view .LVU164
 472              	.LBB198:
 121:lvgl/src/draw/../misc/lv_area.h **** {
 122:lvgl/src/draw/../misc/lv_area.h ****     dest->x1 = src->x1;
 473              		.loc 2 122 5 view .LVU165
 474              		.loc 2 122 19 is_stmt 0 view .LVU166
 475 0010 B0F90030 		ldrsh	r3, [r0]
 476              	.LVL54:
 477              		.loc 2 122 14 view .LVU167
 478 0014 ADF82830 		strh	r3, [sp, #40]	@ movhi
 123:lvgl/src/draw/../misc/lv_area.h ****     dest->y1 = src->y1;
 479              		.loc 2 123 5 is_stmt 1 view .LVU168
 480              		.loc 2 123 19 is_stmt 0 view .LVU169
 481 0018 B0F90230 		ldrsh	r3, [r0, #2]
 482              		.loc 2 123 14 view .LVU170
 483 001c ADF82A30 		strh	r3, [sp, #42]	@ movhi
 124:lvgl/src/draw/../misc/lv_area.h ****     dest->x2 = src->x2;
 484              		.loc 2 124 5 is_stmt 1 view .LVU171
 485              		.loc 2 124 19 is_stmt 0 view .LVU172
 486 0020 B0F90430 		ldrsh	r3, [r0, #4]
 487              		.loc 2 124 14 view .LVU173
 488 0024 ADF82C30 		strh	r3, [sp, #44]	@ movhi
 125:lvgl/src/draw/../misc/lv_area.h ****     dest->y2 = src->y2;
 489              		.loc 2 125 5 is_stmt 1 view .LVU174
 490              		.loc 2 125 19 is_stmt 0 view .LVU175
 491 0028 B0F90630 		ldrsh	r3, [r0, #6]
 492              		.loc 2 125 14 view .LVU176
 493 002c ADF82E30 		strh	r3, [sp, #46]	@ movhi
 494              	.LVL55:
 495              		.loc 2 125 14 view .LVU177
ARM GAS  /var/folders/k2/cd9bl_j17z77g23y6ffqb_400000gn/T//cc0jKSMI.s 			page 34


 496              	.LBE198:
 497              	.LBE197:
1030:lvgl/src/draw/lv_draw_rect.c ****     sh_area.y1 = sw / 2 + 1;
 498              		.loc 1 1030 5 is_stmt 1 view .LVU178
1030:lvgl/src/draw/lv_draw_rect.c ****     sh_area.y1 = sw / 2 + 1;
 499              		.loc 1 1030 25 is_stmt 0 view .LVU179
 500 0030 09EBD971 		add	r1, r9, r9, lsr #31
 501              	.LVL56:
1030:lvgl/src/draw/lv_draw_rect.c ****     sh_area.y1 = sw / 2 + 1;
 502              		.loc 1 1030 25 view .LVU180
 503 0034 C1F34F01 		ubfx	r1, r1, #1, #16
 504 0038 8B18     		adds	r3, r1, r2
 505 003a 9BB2     		uxth	r3, r3
1030:lvgl/src/draw/lv_draw_rect.c ****     sh_area.y1 = sw / 2 + 1;
 506              		.loc 1 1030 50 view .LVU181
 507 003c 19F0010A 		ands	r10, r9, #1
 508 0040 0CBF     		ite	eq
 509 0042 0125     		moveq	r5, #1
 510 0044 0025     		movne	r5, #0
1030:lvgl/src/draw/lv_draw_rect.c ****     sh_area.y1 = sw / 2 + 1;
 511              		.loc 1 1030 34 view .LVU182
 512 0046 5B1B     		subs	r3, r3, r5
 513 0048 013B     		subs	r3, r3, #1
 514 004a 9EB2     		uxth	r6, r3
1030:lvgl/src/draw/lv_draw_rect.c ****     sh_area.y1 = sw / 2 + 1;
 515              		.loc 1 1030 16 view .LVU183
 516 004c ADF82C30 		strh	r3, [sp, #44]	@ movhi
1031:lvgl/src/draw/lv_draw_rect.c **** 
 517              		.loc 1 1031 5 is_stmt 1 view .LVU184
1031:lvgl/src/draw/lv_draw_rect.c **** 
 518              		.loc 1 1031 25 is_stmt 0 view .LVU185
 519 0050 0131     		adds	r1, r1, #1
1031:lvgl/src/draw/lv_draw_rect.c **** 
 520              		.loc 1 1031 16 view .LVU186
 521 0052 ADF82A10 		strh	r1, [sp, #42]	@ movhi
1033:lvgl/src/draw/lv_draw_rect.c ****     sh_area.y2 = sh_area.y1 + lv_area_get_height(coords);
 522              		.loc 1 1033 5 is_stmt 1 view .LVU187
 523              	.LVL57:
 524              	.LBB199:
 525              	.LBI199:
 126:lvgl/src/draw/../misc/lv_area.h **** }
 127:lvgl/src/draw/../misc/lv_area.h **** 
 128:lvgl/src/draw/../misc/lv_area.h **** /**
 129:lvgl/src/draw/../misc/lv_area.h ****  * Get the width of an area
 130:lvgl/src/draw/../misc/lv_area.h ****  * @param area_p pointer to an area
 131:lvgl/src/draw/../misc/lv_area.h ****  * @return the width of the area (if x1 == x2 -> width = 1)
 132:lvgl/src/draw/../misc/lv_area.h ****  */
 133:lvgl/src/draw/../misc/lv_area.h **** static inline lv_coord_t lv_area_get_width(const lv_area_t * area_p)
 526              		.loc 2 133 26 view .LVU188
 527              	.LBB200:
 134:lvgl/src/draw/../misc/lv_area.h **** {
 135:lvgl/src/draw/../misc/lv_area.h ****     return (lv_coord_t)(area_p->x2 - area_p->x1 + 1);
 528              		.loc 2 135 5 view .LVU189
 529              		.loc 2 135 31 is_stmt 0 view .LVU190
 530 0056 8588     		ldrh	r5, [r0, #4]
 531              		.loc 2 135 44 view .LVU191
 532 0058 0388     		ldrh	r3, [r0]
ARM GAS  /var/folders/k2/cd9bl_j17z77g23y6ffqb_400000gn/T//cc0jKSMI.s 			page 35


 533              		.loc 2 135 36 view .LVU192
 534 005a ED1A     		subs	r5, r5, r3
 535 005c ADB2     		uxth	r5, r5
 536              		.loc 2 135 49 view .LVU193
 537 005e 0135     		adds	r5, r5, #1
 538 0060 ADB2     		uxth	r5, r5
 539              	.LVL58:
 540              		.loc 2 135 49 view .LVU194
 541              	.LBE200:
 542              	.LBE199:
1033:lvgl/src/draw/lv_draw_rect.c ****     sh_area.y2 = sh_area.y1 + lv_area_get_height(coords);
 543              		.loc 1 1033 29 view .LVU195
 544 0062 751B     		subs	r5, r6, r5
1033:lvgl/src/draw/lv_draw_rect.c ****     sh_area.y2 = sh_area.y1 + lv_area_get_height(coords);
 545              		.loc 1 1033 16 view .LVU196
 546 0064 ADF82850 		strh	r5, [sp, #40]	@ movhi
1034:lvgl/src/draw/lv_draw_rect.c **** 
 547              		.loc 1 1034 5 is_stmt 1 view .LVU197
 548              	.LVL59:
 549              	.LBB201:
 550              	.LBI201:
 136:lvgl/src/draw/../misc/lv_area.h **** }
 137:lvgl/src/draw/../misc/lv_area.h **** 
 138:lvgl/src/draw/../misc/lv_area.h **** /**
 139:lvgl/src/draw/../misc/lv_area.h ****  * Get the height of an area
 140:lvgl/src/draw/../misc/lv_area.h ****  * @param area_p pointer to an area
 141:lvgl/src/draw/../misc/lv_area.h ****  * @return the height of the area (if y1 == y2 -> height = 1)
 142:lvgl/src/draw/../misc/lv_area.h ****  */
 143:lvgl/src/draw/../misc/lv_area.h **** static inline lv_coord_t lv_area_get_height(const lv_area_t * area_p)
 551              		.loc 2 143 26 view .LVU198
 552              	.LBB202:
 144:lvgl/src/draw/../misc/lv_area.h **** {
 145:lvgl/src/draw/../misc/lv_area.h ****     return (lv_coord_t)(area_p->y2 - area_p->y1 + 1);
 553              		.loc 2 145 5 view .LVU199
 554              		.loc 2 145 31 is_stmt 0 view .LVU200
 555 0068 C588     		ldrh	r5, [r0, #6]
 556              		.loc 2 145 44 view .LVU201
 557 006a 4088     		ldrh	r0, [r0, #2]
 558              	.LVL60:
 559              		.loc 2 145 36 view .LVU202
 560 006c 281A     		subs	r0, r5, r0
 561 006e 80B2     		uxth	r0, r0
 562              		.loc 2 145 49 view .LVU203
 563 0070 0130     		adds	r0, r0, #1
 564 0072 80B2     		uxth	r0, r0
 565              	.LVL61:
 566              		.loc 2 145 49 view .LVU204
 567              	.LBE202:
 568              	.LBE201:
1034:lvgl/src/draw/lv_draw_rect.c **** 
 569              		.loc 1 1034 29 view .LVU205
 570 0074 10FA81F1 		uxtah	r1, r0, r1
1034:lvgl/src/draw/lv_draw_rect.c **** 
 571              		.loc 1 1034 16 view .LVU206
 572 0078 ADF82E10 		strh	r1, [sp, #46]	@ movhi
1036:lvgl/src/draw/lv_draw_rect.c ****     lv_draw_mask_radius_init(&mask_param, &sh_area, r, false);
 573              		.loc 1 1036 5 is_stmt 1 view .LVU207
ARM GAS  /var/folders/k2/cd9bl_j17z77g23y6ffqb_400000gn/T//cc0jKSMI.s 			page 36


1037:lvgl/src/draw/lv_draw_rect.c **** 
 574              		.loc 1 1037 5 view .LVU208
 575 007c 0023     		movs	r3, #0
 576 007e 0AA9     		add	r1, sp, #40
 577 0080 03A8     		add	r0, sp, #12
 578 0082 FFF7FEFF 		bl	lv_draw_mask_radius_init
 579              	.LVL62:
1041:lvgl/src/draw/lv_draw_rect.c ****     else sw = sw_ori >> 1;
 580              		.loc 1 1041 5 view .LVU209
1041:lvgl/src/draw/lv_draw_rect.c ****     else sw = sw_ori >> 1;
 581              		.loc 1 1041 7 is_stmt 0 view .LVU210
 582 0086 B9F1010F 		cmp	r9, #1
 583 008a 09D0     		beq	.L58
1042:lvgl/src/draw/lv_draw_rect.c **** #endif
 584              		.loc 1 1042 10 is_stmt 1 view .LVU211
1042:lvgl/src/draw/lv_draw_rect.c **** #endif
 585              		.loc 1 1042 13 is_stmt 0 view .LVU212
 586 008c 4FEA6909 		asr	r9, r9, #1
 587              	.LVL63:
 588              	.L38:
1045:lvgl/src/draw/lv_draw_rect.c ****     lv_opa_t * mask_line = lv_mem_buf_get(size);
 589              		.loc 1 1045 5 is_stmt 1 view .LVU213
1046:lvgl/src/draw/lv_draw_rect.c ****     uint16_t * sh_ups_tmp_buf = (uint16_t *)sh_buf;
 590              		.loc 1 1046 5 view .LVU214
1046:lvgl/src/draw/lv_draw_rect.c ****     uint16_t * sh_ups_tmp_buf = (uint16_t *)sh_buf;
 591              		.loc 1 1046 28 is_stmt 0 view .LVU215
 592 0090 2046     		mov	r0, r4
 593 0092 FFF7FEFF 		bl	lv_mem_buf_get
 594              	.LVL64:
 595 0096 0546     		mov	r5, r0
 596              	.LVL65:
1047:lvgl/src/draw/lv_draw_rect.c ****     for(y = 0; y < size; y++) {
 597              		.loc 1 1047 5 is_stmt 1 view .LVU216
1048:lvgl/src/draw/lv_draw_rect.c ****         lv_memset_ff(mask_line, size);
 598              		.loc 1 1048 5 view .LVU217
1047:lvgl/src/draw/lv_draw_rect.c ****     for(y = 0; y < size; y++) {
 599              		.loc 1 1047 16 is_stmt 0 view .LVU218
 600 0098 4646     		mov	r6, r8
1048:lvgl/src/draw/lv_draw_rect.c ****         lv_memset_ff(mask_line, size);
 601              		.loc 1 1048 11 view .LVU219
 602 009a 4FF0000B 		mov	fp, #0
1048:lvgl/src/draw/lv_draw_rect.c ****         lv_memset_ff(mask_line, size);
 603              		.loc 1 1048 5 view .LVU220
 604 009e 24E0     		b	.L39
 605              	.LVL66:
 606              	.L58:
1041:lvgl/src/draw/lv_draw_rect.c ****     else sw = sw_ori >> 1;
 607              		.loc 1 1041 24 view .LVU221
 608 00a0 4FF00109 		mov	r9, #1
 609              	.LVL67:
1041:lvgl/src/draw/lv_draw_rect.c ****     else sw = sw_ori >> 1;
 610              		.loc 1 1041 24 view .LVU222
 611 00a4 F4E7     		b	.L38
 612              	.LVL68:
 613              	.L40:
 614              	.LBB203:
 615              	.LBB204:
ARM GAS  /var/folders/k2/cd9bl_j17z77g23y6ffqb_400000gn/T//cc0jKSMI.s 			page 37


1055:lvgl/src/draw/lv_draw_rect.c ****             sh_ups_tmp_buf[0] = (mask_line[0] << SHADOW_UPSCALE_SHIFT) / sw;
 616              		.loc 1 1055 13 is_stmt 1 view .LVU223
1056:lvgl/src/draw/lv_draw_rect.c ****             for(i = 1; i < size; i++) {
 617              		.loc 1 1056 13 view .LVU224
1056:lvgl/src/draw/lv_draw_rect.c ****             for(i = 1; i < size; i++) {
 618              		.loc 1 1056 43 is_stmt 0 view .LVU225
 619 00a6 2B78     		ldrb	r3, [r5]	@ zero_extendqisi2
1056:lvgl/src/draw/lv_draw_rect.c ****             for(i = 1; i < size; i++) {
 620              		.loc 1 1056 47 view .LVU226
 621 00a8 9B01     		lsls	r3, r3, #6
1056:lvgl/src/draw/lv_draw_rect.c ****             for(i = 1; i < size; i++) {
 622              		.loc 1 1056 72 view .LVU227
 623 00aa 4846     		mov	r0, r9
 624              	.LVL69:
1056:lvgl/src/draw/lv_draw_rect.c ****             for(i = 1; i < size; i++) {
 625              		.loc 1 1056 72 view .LVU228
 626 00ac 93FBF9F3 		sdiv	r3, r3, r9
1056:lvgl/src/draw/lv_draw_rect.c ****             for(i = 1; i < size; i++) {
 627              		.loc 1 1056 31 view .LVU229
 628 00b0 3380     		strh	r3, [r6]	@ movhi
1057:lvgl/src/draw/lv_draw_rect.c ****                 if(mask_line[i] == mask_line[i - 1]) sh_ups_tmp_buf[i] = sh_ups_tmp_buf[i - 1];
 629              		.loc 1 1057 13 is_stmt 1 view .LVU230
 630              	.LVL70:
1057:lvgl/src/draw/lv_draw_rect.c ****                 if(mask_line[i] == mask_line[i - 1]) sh_ups_tmp_buf[i] = sh_ups_tmp_buf[i - 1];
 631              		.loc 1 1057 19 is_stmt 0 view .LVU231
 632 00b2 0123     		movs	r3, #1
1057:lvgl/src/draw/lv_draw_rect.c ****                 if(mask_line[i] == mask_line[i - 1]) sh_ups_tmp_buf[i] = sh_ups_tmp_buf[i - 1];
 633              		.loc 1 1057 13 view .LVU232
 634 00b4 07E0     		b	.L42
 635              	.LVL71:
 636              	.L62:
1058:lvgl/src/draw/lv_draw_rect.c ****                 else  sh_ups_tmp_buf[i] = (mask_line[i] << SHADOW_UPSCALE_SHIFT) / sw;
 637              		.loc 1 1058 54 is_stmt 1 discriminator 1 view .LVU233
1058:lvgl/src/draw/lv_draw_rect.c ****                 else  sh_ups_tmp_buf[i] = (mask_line[i] << SHADOW_UPSCALE_SHIFT) / sw;
 638              		.loc 1 1058 88 is_stmt 0 discriminator 1 view .LVU234
 639 00b6 03F10042 		add	r2, r3, #-2147483648
 640 00ba 013A     		subs	r2, r2, #1
 641 00bc 36F81220 		ldrh	r2, [r6, r2, lsl #1]
1058:lvgl/src/draw/lv_draw_rect.c ****                 else  sh_ups_tmp_buf[i] = (mask_line[i] << SHADOW_UPSCALE_SHIFT) / sw;
 642              		.loc 1 1058 72 discriminator 1 view .LVU235
 643 00c0 26F81320 		strh	r2, [r6, r3, lsl #1]	@ movhi
 644              	.L44:
1057:lvgl/src/draw/lv_draw_rect.c ****                 if(mask_line[i] == mask_line[i - 1]) sh_ups_tmp_buf[i] = sh_ups_tmp_buf[i - 1];
 645              		.loc 1 1057 34 is_stmt 1 discriminator 2 view .LVU236
1057:lvgl/src/draw/lv_draw_rect.c ****                 if(mask_line[i] == mask_line[i - 1]) sh_ups_tmp_buf[i] = sh_ups_tmp_buf[i - 1];
 646              		.loc 1 1057 35 is_stmt 0 discriminator 2 view .LVU237
 647 00c4 0133     		adds	r3, r3, #1
 648              	.LVL72:
 649              	.L42:
1057:lvgl/src/draw/lv_draw_rect.c ****                 if(mask_line[i] == mask_line[i - 1]) sh_ups_tmp_buf[i] = sh_ups_tmp_buf[i - 1];
 650              		.loc 1 1057 24 is_stmt 1 discriminator 1 view .LVU238
1057:lvgl/src/draw/lv_draw_rect.c ****                 if(mask_line[i] == mask_line[i - 1]) sh_ups_tmp_buf[i] = sh_ups_tmp_buf[i - 1];
 651              		.loc 1 1057 13 is_stmt 0 discriminator 1 view .LVU239
 652 00c6 A342     		cmp	r3, r4
 653 00c8 0BDA     		bge	.L41
1058:lvgl/src/draw/lv_draw_rect.c ****                 else  sh_ups_tmp_buf[i] = (mask_line[i] << SHADOW_UPSCALE_SHIFT) / sw;
 654              		.loc 1 1058 17 is_stmt 1 view .LVU240
ARM GAS  /var/folders/k2/cd9bl_j17z77g23y6ffqb_400000gn/T//cc0jKSMI.s 			page 38


1058:lvgl/src/draw/lv_draw_rect.c ****                 else  sh_ups_tmp_buf[i] = (mask_line[i] << SHADOW_UPSCALE_SHIFT) / sw;
 655              		.loc 1 1058 29 is_stmt 0 view .LVU241
 656 00ca EA5C     		ldrb	r2, [r5, r3]	@ zero_extendqisi2
1058:lvgl/src/draw/lv_draw_rect.c ****                 else  sh_ups_tmp_buf[i] = (mask_line[i] << SHADOW_UPSCALE_SHIFT) / sw;
 657              		.loc 1 1058 45 view .LVU242
 658 00cc E918     		adds	r1, r5, r3
 659 00ce 11F8011C 		ldrb	r1, [r1, #-1]	@ zero_extendqisi2
1058:lvgl/src/draw/lv_draw_rect.c ****                 else  sh_ups_tmp_buf[i] = (mask_line[i] << SHADOW_UPSCALE_SHIFT) / sw;
 660              		.loc 1 1058 19 view .LVU243
 661 00d2 8A42     		cmp	r2, r1
 662 00d4 EFD0     		beq	.L62
1059:lvgl/src/draw/lv_draw_rect.c ****             }
 663              		.loc 1 1059 23 is_stmt 1 view .LVU244
1059:lvgl/src/draw/lv_draw_rect.c ****             }
 664              		.loc 1 1059 57 is_stmt 0 view .LVU245
 665 00d6 9201     		lsls	r2, r2, #6
1059:lvgl/src/draw/lv_draw_rect.c ****             }
 666              		.loc 1 1059 82 view .LVU246
 667 00d8 92FBF0F2 		sdiv	r2, r2, r0
1059:lvgl/src/draw/lv_draw_rect.c ****             }
 668              		.loc 1 1059 41 view .LVU247
 669 00dc 26F81320 		strh	r2, [r6, r3, lsl #1]	@ movhi
 670 00e0 F0E7     		b	.L44
 671              	.LVL73:
 672              	.L41:
1059:lvgl/src/draw/lv_draw_rect.c ****             }
 673              		.loc 1 1059 41 view .LVU248
 674              	.LBE204:
1063:lvgl/src/draw/lv_draw_rect.c ****     }
 675              		.loc 1 1063 9 is_stmt 1 discriminator 2 view .LVU249
1063:lvgl/src/draw/lv_draw_rect.c ****     }
 676              		.loc 1 1063 24 is_stmt 0 discriminator 2 view .LVU250
 677 00e2 06EB4406 		add	r6, r6, r4, lsl #1
 678              	.LVL74:
1063:lvgl/src/draw/lv_draw_rect.c ****     }
 679              		.loc 1 1063 24 discriminator 2 view .LVU251
 680              	.LBE203:
1048:lvgl/src/draw/lv_draw_rect.c ****         lv_memset_ff(mask_line, size);
 681              		.loc 1 1048 26 is_stmt 1 discriminator 2 view .LVU252
1048:lvgl/src/draw/lv_draw_rect.c ****         lv_memset_ff(mask_line, size);
 682              		.loc 1 1048 27 is_stmt 0 discriminator 2 view .LVU253
 683 00e6 0BF1010B 		add	fp, fp, #1
 684              	.LVL75:
 685              	.L39:
1048:lvgl/src/draw/lv_draw_rect.c ****         lv_memset_ff(mask_line, size);
 686              		.loc 1 1048 16 is_stmt 1 discriminator 1 view .LVU254
1048:lvgl/src/draw/lv_draw_rect.c ****         lv_memset_ff(mask_line, size);
 687              		.loc 1 1048 5 is_stmt 0 discriminator 1 view .LVU255
 688 00ea A345     		cmp	fp, r4
 689 00ec 13DA     		bge	.L63
 690              	.LBB205:
1049:lvgl/src/draw/lv_draw_rect.c ****         lv_draw_mask_res_t mask_res = mask_param.dsc.cb(mask_line, 0, y, size, &mask_param);
 691              		.loc 1 1049 9 is_stmt 1 view .LVU256
 692 00ee 2146     		mov	r1, r4
 693 00f0 2846     		mov	r0, r5
 694 00f2 FFF7FEFF 		bl	lv_memset_ff
 695              	.LVL76:
ARM GAS  /var/folders/k2/cd9bl_j17z77g23y6ffqb_400000gn/T//cc0jKSMI.s 			page 39


1050:lvgl/src/draw/lv_draw_rect.c ****         if(mask_res == LV_DRAW_MASK_RES_TRANSP) {
 696              		.loc 1 1050 9 view .LVU257
1050:lvgl/src/draw/lv_draw_rect.c ****         if(mask_res == LV_DRAW_MASK_RES_TRANSP) {
 697              		.loc 1 1050 39 is_stmt 0 view .LVU258
 698 00f6 03AB     		add	r3, sp, #12
 699 00f8 0093     		str	r3, [sp]
 700 00fa 23B2     		sxth	r3, r4
 701 00fc 0FFA8BF2 		sxth	r2, fp
 702 0100 0021     		movs	r1, #0
 703 0102 2846     		mov	r0, r5
 704 0104 039F     		ldr	r7, [sp, #12]
 705 0106 B847     		blx	r7
 706              	.LVL77:
1051:lvgl/src/draw/lv_draw_rect.c ****             lv_memset_00(sh_ups_tmp_buf, size * sizeof(sh_ups_tmp_buf[0]));
 707              		.loc 1 1051 9 is_stmt 1 view .LVU259
1051:lvgl/src/draw/lv_draw_rect.c ****             lv_memset_00(sh_ups_tmp_buf, size * sizeof(sh_ups_tmp_buf[0]));
 708              		.loc 1 1051 11 is_stmt 0 view .LVU260
 709 0108 0028     		cmp	r0, #0
 710 010a CCD1     		bne	.L40
1052:lvgl/src/draw/lv_draw_rect.c ****         }
 711              		.loc 1 1052 13 is_stmt 1 view .LVU261
 712 010c 6100     		lsls	r1, r4, #1
 713 010e 3046     		mov	r0, r6
 714              	.LVL78:
1052:lvgl/src/draw/lv_draw_rect.c ****         }
 715              		.loc 1 1052 13 is_stmt 0 view .LVU262
 716 0110 FFF7FEFF 		bl	lv_memset_00
 717              	.LVL79:
 718 0114 E5E7     		b	.L41
 719              	.L63:
1052:lvgl/src/draw/lv_draw_rect.c ****         }
 720              		.loc 1 1052 13 view .LVU263
 721              	.LBE205:
1065:lvgl/src/draw/lv_draw_rect.c **** 
 722              		.loc 1 1065 5 is_stmt 1 view .LVU264
 723 0116 2846     		mov	r0, r5
 724 0118 FFF7FEFF 		bl	lv_mem_buf_release
 725              	.LVL80:
1067:lvgl/src/draw/lv_draw_rect.c ****         int32_t i;
 726              		.loc 1 1067 5 view .LVU265
1067:lvgl/src/draw/lv_draw_rect.c ****         int32_t i;
 727              		.loc 1 1067 7 is_stmt 0 view .LVU266
 728 011c B9F1010F 		cmp	r9, #1
 729 0120 1DD0     		beq	.L64
1076:lvgl/src/draw/lv_draw_rect.c **** 
 730              		.loc 1 1076 5 is_stmt 1 view .LVU267
 731 0122 25B2     		sxth	r5, r4
 732              	.LVL81:
1076:lvgl/src/draw/lv_draw_rect.c **** 
 733              		.loc 1 1076 5 is_stmt 0 view .LVU268
 734 0124 4246     		mov	r2, r8
 735 0126 4946     		mov	r1, r9
 736 0128 2846     		mov	r0, r5
 737 012a FFF7FEFF 		bl	shadow_blur_corner
 738              	.LVL82:
1086:lvgl/src/draw/lv_draw_rect.c ****     if(sw > 1) {
 739              		.loc 1 1086 5 is_stmt 1 view .LVU269
ARM GAS  /var/folders/k2/cd9bl_j17z77g23y6ffqb_400000gn/T//cc0jKSMI.s 			page 40


1086:lvgl/src/draw/lv_draw_rect.c ****     if(sw > 1) {
 740              		.loc 1 1086 8 is_stmt 0 view .LVU270
 741 012e 0AEB0901 		add	r1, r10, r9
 742              	.LVL83:
1087:lvgl/src/draw/lv_draw_rect.c ****         uint32_t i;
 743              		.loc 1 1087 5 is_stmt 1 view .LVU271
1087:lvgl/src/draw/lv_draw_rect.c ****         uint32_t i;
 744              		.loc 1 1087 7 is_stmt 0 view .LVU272
 745 0132 0129     		cmp	r1, #1
 746 0134 2FDD     		ble	.L51
 747              	.LBB206:
1088:lvgl/src/draw/lv_draw_rect.c ****         sh_buf[0] = (sh_buf[0] << SHADOW_UPSCALE_SHIFT) / sw;
 748              		.loc 1 1088 9 is_stmt 1 view .LVU273
1089:lvgl/src/draw/lv_draw_rect.c ****         for(i = 1; i < (uint32_t) size * size; i++) {
 749              		.loc 1 1089 9 view .LVU274
1089:lvgl/src/draw/lv_draw_rect.c ****         for(i = 1; i < (uint32_t) size * size; i++) {
 750              		.loc 1 1089 28 is_stmt 0 view .LVU275
 751 0136 B8F80030 		ldrh	r3, [r8]
1089:lvgl/src/draw/lv_draw_rect.c ****         for(i = 1; i < (uint32_t) size * size; i++) {
 752              		.loc 1 1089 32 view .LVU276
 753 013a 9B01     		lsls	r3, r3, #6
1089:lvgl/src/draw/lv_draw_rect.c ****         for(i = 1; i < (uint32_t) size * size; i++) {
 754              		.loc 1 1089 57 view .LVU277
 755 013c 93FBF1F3 		sdiv	r3, r3, r1
1089:lvgl/src/draw/lv_draw_rect.c ****         for(i = 1; i < (uint32_t) size * size; i++) {
 756              		.loc 1 1089 19 view .LVU278
 757 0140 A8F80030 		strh	r3, [r8]	@ movhi
1090:lvgl/src/draw/lv_draw_rect.c ****             if(sh_buf[i] == sh_buf[i - 1]) sh_buf[i] = sh_buf[i - 1];
 758              		.loc 1 1090 9 is_stmt 1 view .LVU279
 759              	.LVL84:
1090:lvgl/src/draw/lv_draw_rect.c ****             if(sh_buf[i] == sh_buf[i - 1]) sh_buf[i] = sh_buf[i - 1];
 760              		.loc 1 1090 15 is_stmt 0 view .LVU280
 761 0144 0123     		movs	r3, #1
1090:lvgl/src/draw/lv_draw_rect.c ****             if(sh_buf[i] == sh_buf[i - 1]) sh_buf[i] = sh_buf[i - 1];
 762              		.loc 1 1090 9 view .LVU281
 763 0146 0FE0     		b	.L52
 764              	.LVL85:
 765              	.L49:
1090:lvgl/src/draw/lv_draw_rect.c ****             if(sh_buf[i] == sh_buf[i - 1]) sh_buf[i] = sh_buf[i - 1];
 766              		.loc 1 1090 9 view .LVU282
 767              	.LBE206:
 768              	.LBB207:
1071:lvgl/src/draw/lv_draw_rect.c ****         }
 769              		.loc 1 1071 13 is_stmt 1 discriminator 3 view .LVU283
1071:lvgl/src/draw/lv_draw_rect.c ****         }
 770              		.loc 1 1071 33 is_stmt 0 discriminator 3 view .LVU284
 771 0148 38F81320 		ldrh	r2, [r8, r3, lsl #1]
1071:lvgl/src/draw/lv_draw_rect.c ****         }
 772              		.loc 1 1071 24 discriminator 3 view .LVU285
 773 014c 9209     		lsrs	r2, r2, #6
 774 014e 08F80320 		strb	r2, [r8, r3]
1070:lvgl/src/draw/lv_draw_rect.c ****             res_buf[i] = (sh_buf[i] >> SHADOW_UPSCALE_SHIFT);
 775              		.loc 1 1070 37 is_stmt 1 discriminator 3 view .LVU286
1070:lvgl/src/draw/lv_draw_rect.c ****             res_buf[i] = (sh_buf[i] >> SHADOW_UPSCALE_SHIFT);
 776              		.loc 1 1070 38 is_stmt 0 discriminator 3 view .LVU287
 777 0152 0133     		adds	r3, r3, #1
 778              	.LVL86:
ARM GAS  /var/folders/k2/cd9bl_j17z77g23y6ffqb_400000gn/T//cc0jKSMI.s 			page 41


 779              	.L47:
1070:lvgl/src/draw/lv_draw_rect.c ****             res_buf[i] = (sh_buf[i] >> SHADOW_UPSCALE_SHIFT);
 780              		.loc 1 1070 20 is_stmt 1 discriminator 1 view .LVU288
1070:lvgl/src/draw/lv_draw_rect.c ****             res_buf[i] = (sh_buf[i] >> SHADOW_UPSCALE_SHIFT);
 781              		.loc 1 1070 29 is_stmt 0 discriminator 1 view .LVU289
 782 0154 04FB04F2 		mul	r2, r4, r4
1070:lvgl/src/draw/lv_draw_rect.c ****             res_buf[i] = (sh_buf[i] >> SHADOW_UPSCALE_SHIFT);
 783              		.loc 1 1070 9 discriminator 1 view .LVU290
 784 0158 9A42     		cmp	r2, r3
 785 015a F5DC     		bgt	.L49
 786 015c 26E0     		b	.L37
 787              	.LVL87:
 788              	.L64:
1070:lvgl/src/draw/lv_draw_rect.c ****             res_buf[i] = (sh_buf[i] >> SHADOW_UPSCALE_SHIFT);
 789              		.loc 1 1070 15 view .LVU291
 790 015e 0023     		movs	r3, #0
 791 0160 F8E7     		b	.L47
 792              	.LVL88:
 793              	.L66:
1070:lvgl/src/draw/lv_draw_rect.c ****             res_buf[i] = (sh_buf[i] >> SHADOW_UPSCALE_SHIFT);
 794              		.loc 1 1070 15 view .LVU292
 795              	.LBE207:
 796              	.LBB208:
1091:lvgl/src/draw/lv_draw_rect.c ****             else  sh_buf[i] = (sh_buf[i] << SHADOW_UPSCALE_SHIFT) / sw;
 797              		.loc 1 1091 44 is_stmt 1 discriminator 1 view .LVU293
1091:lvgl/src/draw/lv_draw_rect.c ****             else  sh_buf[i] = (sh_buf[i] << SHADOW_UPSCALE_SHIFT) / sw;
 798              		.loc 1 1091 54 is_stmt 0 discriminator 1 view .LVU294
 799 0162 28F81300 		strh	r0, [r8, r3, lsl #1]	@ movhi
 800              	.L54:
1090:lvgl/src/draw/lv_draw_rect.c ****             if(sh_buf[i] == sh_buf[i - 1]) sh_buf[i] = sh_buf[i - 1];
 801              		.loc 1 1090 48 is_stmt 1 discriminator 2 view .LVU295
1090:lvgl/src/draw/lv_draw_rect.c ****             if(sh_buf[i] == sh_buf[i - 1]) sh_buf[i] = sh_buf[i - 1];
 802              		.loc 1 1090 49 is_stmt 0 discriminator 2 view .LVU296
 803 0166 0133     		adds	r3, r3, #1
 804              	.LVL89:
 805              	.L52:
1090:lvgl/src/draw/lv_draw_rect.c ****             if(sh_buf[i] == sh_buf[i - 1]) sh_buf[i] = sh_buf[i - 1];
 806              		.loc 1 1090 20 is_stmt 1 discriminator 1 view .LVU297
1090:lvgl/src/draw/lv_draw_rect.c ****             if(sh_buf[i] == sh_buf[i - 1]) sh_buf[i] = sh_buf[i - 1];
 807              		.loc 1 1090 40 is_stmt 0 discriminator 1 view .LVU298
 808 0168 04FB04F2 		mul	r2, r4, r4
1090:lvgl/src/draw/lv_draw_rect.c ****             if(sh_buf[i] == sh_buf[i - 1]) sh_buf[i] = sh_buf[i - 1];
 809              		.loc 1 1090 9 discriminator 1 view .LVU299
 810 016c 9A42     		cmp	r2, r3
 811 016e 0ED9     		bls	.L65
1091:lvgl/src/draw/lv_draw_rect.c ****             else  sh_buf[i] = (sh_buf[i] << SHADOW_UPSCALE_SHIFT) / sw;
 812              		.loc 1 1091 13 is_stmt 1 view .LVU300
1091:lvgl/src/draw/lv_draw_rect.c ****             else  sh_buf[i] = (sh_buf[i] << SHADOW_UPSCALE_SHIFT) / sw;
 813              		.loc 1 1091 22 is_stmt 0 view .LVU301
 814 0170 38F81320 		ldrh	r2, [r8, r3, lsl #1]
1091:lvgl/src/draw/lv_draw_rect.c ****             else  sh_buf[i] = (sh_buf[i] << SHADOW_UPSCALE_SHIFT) / sw;
 815              		.loc 1 1091 35 view .LVU302
 816 0174 03F10040 		add	r0, r3, #-2147483648
 817 0178 0138     		subs	r0, r0, #1
 818 017a 38F81000 		ldrh	r0, [r8, r0, lsl #1]
1091:lvgl/src/draw/lv_draw_rect.c ****             else  sh_buf[i] = (sh_buf[i] << SHADOW_UPSCALE_SHIFT) / sw;
 819              		.loc 1 1091 15 view .LVU303
ARM GAS  /var/folders/k2/cd9bl_j17z77g23y6ffqb_400000gn/T//cc0jKSMI.s 			page 42


 820 017e 8242     		cmp	r2, r0
 821 0180 EFD0     		beq	.L66
1092:lvgl/src/draw/lv_draw_rect.c ****         }
 822              		.loc 1 1092 19 is_stmt 1 view .LVU304
1092:lvgl/src/draw/lv_draw_rect.c ****         }
 823              		.loc 1 1092 42 is_stmt 0 view .LVU305
 824 0182 9201     		lsls	r2, r2, #6
1092:lvgl/src/draw/lv_draw_rect.c ****         }
 825              		.loc 1 1092 67 view .LVU306
 826 0184 92FBF1F2 		sdiv	r2, r2, r1
1092:lvgl/src/draw/lv_draw_rect.c ****         }
 827              		.loc 1 1092 29 view .LVU307
 828 0188 28F81320 		strh	r2, [r8, r3, lsl #1]	@ movhi
 829 018c EBE7     		b	.L54
 830              	.L65:
1095:lvgl/src/draw/lv_draw_rect.c ****     }
 831              		.loc 1 1095 9 is_stmt 1 view .LVU308
 832 018e 4246     		mov	r2, r8
 833 0190 2846     		mov	r0, r5
 834 0192 FFF7FEFF 		bl	shadow_blur_corner
 835              	.LVL90:
 836              	.L51:
1090:lvgl/src/draw/lv_draw_rect.c ****             if(sh_buf[i] == sh_buf[i - 1]) sh_buf[i] = sh_buf[i - 1];
 837              		.loc 1 1090 15 is_stmt 0 discriminator 1 view .LVU309
 838 0196 0023     		movs	r3, #0
 839 0198 04E0     		b	.L56
 840              	.LVL91:
 841              	.L57:
1090:lvgl/src/draw/lv_draw_rect.c ****             if(sh_buf[i] == sh_buf[i - 1]) sh_buf[i] = sh_buf[i - 1];
 842              		.loc 1 1090 15 discriminator 1 view .LVU310
 843              	.LBE208:
1100:lvgl/src/draw/lv_draw_rect.c ****     }
 844              		.loc 1 1100 9 is_stmt 1 discriminator 3 view .LVU311
1100:lvgl/src/draw/lv_draw_rect.c ****     }
 845              		.loc 1 1100 28 is_stmt 0 discriminator 3 view .LVU312
 846 019a 38F81320 		ldrh	r2, [r8, r3, lsl #1]
1100:lvgl/src/draw/lv_draw_rect.c ****     }
 847              		.loc 1 1100 20 discriminator 3 view .LVU313
 848 019e 08F80320 		strb	r2, [r8, r3]
1099:lvgl/src/draw/lv_draw_rect.c ****         res_buf[x] = sh_buf[x];
 849              		.loc 1 1099 33 is_stmt 1 discriminator 3 view .LVU314
1099:lvgl/src/draw/lv_draw_rect.c ****         res_buf[x] = sh_buf[x];
 850              		.loc 1 1099 34 is_stmt 0 discriminator 3 view .LVU315
 851 01a2 0133     		adds	r3, r3, #1
 852              	.LVL92:
 853              	.L56:
1099:lvgl/src/draw/lv_draw_rect.c ****         res_buf[x] = sh_buf[x];
 854              		.loc 1 1099 16 is_stmt 1 discriminator 1 view .LVU316
1099:lvgl/src/draw/lv_draw_rect.c ****         res_buf[x] = sh_buf[x];
 855              		.loc 1 1099 25 is_stmt 0 discriminator 1 view .LVU317
 856 01a4 04FB04F2 		mul	r2, r4, r4
1099:lvgl/src/draw/lv_draw_rect.c ****         res_buf[x] = sh_buf[x];
 857              		.loc 1 1099 5 discriminator 1 view .LVU318
 858 01a8 9A42     		cmp	r2, r3
 859 01aa F6DC     		bgt	.L57
 860              	.LVL93:
 861              	.L37:
ARM GAS  /var/folders/k2/cd9bl_j17z77g23y6ffqb_400000gn/T//cc0jKSMI.s 			page 43


1104:lvgl/src/draw/lv_draw_rect.c **** 
 862              		.loc 1 1104 1 view .LVU319
 863 01ac 0DB0     		add	sp, sp, #52
 864              	.LCFI5:
 865              		.cfi_def_cfa_offset 36
 866              		@ sp needed
 867 01ae BDE8F08F 		pop	{r4, r5, r6, r7, r8, r9, r10, fp, pc}
1104:lvgl/src/draw/lv_draw_rect.c **** 
 868              		.loc 1 1104 1 view .LVU320
 869              		.cfi_endproc
 870              	.LFE154:
 872              		.section	.text.draw_shadow,"ax",%progbits
 873              		.align	1
 874              		.syntax unified
 875              		.thumb
 876              		.thumb_func
 877              		.fpu fpv4-sp-d16
 879              	draw_shadow:
 880              	.LVL94:
 881              	.LFB153:
 539:lvgl/src/draw/lv_draw_rect.c ****     /*Check whether the shadow is visible*/
 882              		.loc 1 539 1 is_stmt 1 view -0
 883              		.cfi_startproc
 884              		@ args = 0, pretend = 0, frame = 136
 885              		@ frame_needed = 0, uses_anonymous_args = 0
 539:lvgl/src/draw/lv_draw_rect.c ****     /*Check whether the shadow is visible*/
 886              		.loc 1 539 1 is_stmt 0 view .LVU322
 887 0000 2DE9F04F 		push	{r4, r5, r6, r7, r8, r9, r10, fp, lr}
 888              	.LCFI6:
 889              		.cfi_def_cfa_offset 36
 890              		.cfi_offset 4, -36
 891              		.cfi_offset 5, -32
 892              		.cfi_offset 6, -28
 893              		.cfi_offset 7, -24
 894              		.cfi_offset 8, -20
 895              		.cfi_offset 9, -16
 896              		.cfi_offset 10, -12
 897              		.cfi_offset 11, -8
 898              		.cfi_offset 14, -4
 899 0004 A7B0     		sub	sp, sp, #156
 900              	.LCFI7:
 901              		.cfi_def_cfa_offset 192
 902 0006 0590     		str	r0, [sp, #20]
 541:lvgl/src/draw/lv_draw_rect.c ****     if(dsc->shadow_opa <= LV_OPA_MIN) return;
 903              		.loc 1 541 5 is_stmt 1 view .LVU323
 541:lvgl/src/draw/lv_draw_rect.c ****     if(dsc->shadow_opa <= LV_OPA_MIN) return;
 904              		.loc 1 541 11 is_stmt 0 view .LVU324
 905 0008 B2F93840 		ldrsh	r4, [r2, #56]
 541:lvgl/src/draw/lv_draw_rect.c ****     if(dsc->shadow_opa <= LV_OPA_MIN) return;
 906              		.loc 1 541 7 view .LVU325
 907 000c 002C     		cmp	r4, #0
 908 000e 00F0D283 		beq	.L67
 909 0012 8A46     		mov	r10, r1
 910 0014 1546     		mov	r5, r2
 542:lvgl/src/draw/lv_draw_rect.c **** 
 911              		.loc 1 542 5 is_stmt 1 view .LVU326
 542:lvgl/src/draw/lv_draw_rect.c **** 
ARM GAS  /var/folders/k2/cd9bl_j17z77g23y6ffqb_400000gn/T//cc0jKSMI.s 			page 44


 912              		.loc 1 542 11 is_stmt 0 view .LVU327
 913 0016 92F84030 		ldrb	r3, [r2, #64]	@ zero_extendqisi2
 914 001a 0493     		str	r3, [sp, #16]
 542:lvgl/src/draw/lv_draw_rect.c **** 
 915              		.loc 1 542 7 view .LVU328
 916 001c 022B     		cmp	r3, #2
 917 001e 40F2CA83 		bls	.L67
 544:lvgl/src/draw/lv_draw_rect.c ****        dsc->shadow_ofs_y == 0 && dsc->shadow_spread <= 0) {
 918              		.loc 1 544 5 is_stmt 1 view .LVU329
 544:lvgl/src/draw/lv_draw_rect.c ****        dsc->shadow_ofs_y == 0 && dsc->shadow_spread <= 0) {
 919              		.loc 1 544 31 is_stmt 0 view .LVU330
 920 0022 936B     		ldr	r3, [r2, #56]
 544:lvgl/src/draw/lv_draw_rect.c ****        dsc->shadow_ofs_y == 0 && dsc->shadow_spread <= 0) {
 921              		.loc 1 544 7 view .LVU331
 922 0024 012B     		cmp	r3, #1
 923 0026 00F0F380 		beq	.L158
 924              	.L69:
 549:lvgl/src/draw/lv_draw_rect.c **** 
 925              		.loc 1 549 5 is_stmt 1 view .LVU332
 926              	.LVL95:
 551:lvgl/src/draw/lv_draw_rect.c ****     sh_rect_area.x1 = coords->x1  + dsc->shadow_ofs_x - dsc->shadow_spread;
 927              		.loc 1 551 5 view .LVU333
 552:lvgl/src/draw/lv_draw_rect.c ****     sh_rect_area.x2 = coords->x2  + dsc->shadow_ofs_x + dsc->shadow_spread;
 928              		.loc 1 552 5 view .LVU334
 552:lvgl/src/draw/lv_draw_rect.c ****     sh_rect_area.x2 = coords->x2  + dsc->shadow_ofs_x + dsc->shadow_spread;
 929              		.loc 1 552 29 is_stmt 0 view .LVU335
 930 002a 059F     		ldr	r7, [sp, #20]
 931 002c 3A88     		ldrh	r2, [r7]
 932              	.LVL96:
 552:lvgl/src/draw/lv_draw_rect.c ****     sh_rect_area.x2 = coords->x2  + dsc->shadow_ofs_x + dsc->shadow_spread;
 933              		.loc 1 552 40 view .LVU336
 934 002e 688F     		ldrh	r0, [r5, #58]
 935              	.LVL97:
 552:lvgl/src/draw/lv_draw_rect.c ****     sh_rect_area.x2 = coords->x2  + dsc->shadow_ofs_x + dsc->shadow_spread;
 936              		.loc 1 552 35 view .LVU337
 937 0030 0244     		add	r2, r2, r0
 938 0032 92B2     		uxth	r2, r2
 552:lvgl/src/draw/lv_draw_rect.c ****     sh_rect_area.x2 = coords->x2  + dsc->shadow_ofs_x + dsc->shadow_spread;
 939              		.loc 1 552 60 view .LVU338
 940 0034 EE8F     		ldrh	r6, [r5, #62]
 552:lvgl/src/draw/lv_draw_rect.c ****     sh_rect_area.x2 = coords->x2  + dsc->shadow_ofs_x + dsc->shadow_spread;
 941              		.loc 1 552 55 view .LVU339
 942 0036 921B     		subs	r2, r2, r6
 552:lvgl/src/draw/lv_draw_rect.c ****     sh_rect_area.x2 = coords->x2  + dsc->shadow_ofs_x + dsc->shadow_spread;
 943              		.loc 1 552 21 view .LVU340
 944 0038 ADF89020 		strh	r2, [sp, #144]	@ movhi
 553:lvgl/src/draw/lv_draw_rect.c ****     sh_rect_area.y1 = coords->y1  + dsc->shadow_ofs_y - dsc->shadow_spread;
 945              		.loc 1 553 5 is_stmt 1 view .LVU341
 553:lvgl/src/draw/lv_draw_rect.c ****     sh_rect_area.y1 = coords->y1  + dsc->shadow_ofs_y - dsc->shadow_spread;
 946              		.loc 1 553 29 is_stmt 0 view .LVU342
 947 003c BB88     		ldrh	r3, [r7, #4]
 553:lvgl/src/draw/lv_draw_rect.c ****     sh_rect_area.y1 = coords->y1  + dsc->shadow_ofs_y - dsc->shadow_spread;
 948              		.loc 1 553 35 view .LVU343
 949 003e 1844     		add	r0, r0, r3
 553:lvgl/src/draw/lv_draw_rect.c ****     sh_rect_area.y1 = coords->y1  + dsc->shadow_ofs_y - dsc->shadow_spread;
 950              		.loc 1 553 55 view .LVU344
 951 0040 16FA80F0 		uxtah	r0, r6, r0
ARM GAS  /var/folders/k2/cd9bl_j17z77g23y6ffqb_400000gn/T//cc0jKSMI.s 			page 45


 553:lvgl/src/draw/lv_draw_rect.c ****     sh_rect_area.y1 = coords->y1  + dsc->shadow_ofs_y - dsc->shadow_spread;
 952              		.loc 1 553 21 view .LVU345
 953 0044 ADF89400 		strh	r0, [sp, #148]	@ movhi
 554:lvgl/src/draw/lv_draw_rect.c ****     sh_rect_area.y2 = coords->y2  + dsc->shadow_ofs_y + dsc->shadow_spread;
 954              		.loc 1 554 5 is_stmt 1 view .LVU346
 554:lvgl/src/draw/lv_draw_rect.c ****     sh_rect_area.y2 = coords->y2  + dsc->shadow_ofs_y + dsc->shadow_spread;
 955              		.loc 1 554 29 is_stmt 0 view .LVU347
 956 0048 7B88     		ldrh	r3, [r7, #2]
 554:lvgl/src/draw/lv_draw_rect.c ****     sh_rect_area.y2 = coords->y2  + dsc->shadow_ofs_y + dsc->shadow_spread;
 957              		.loc 1 554 40 view .LVU348
 958 004a A98F     		ldrh	r1, [r5, #60]
 959              	.LVL98:
 554:lvgl/src/draw/lv_draw_rect.c ****     sh_rect_area.y2 = coords->y2  + dsc->shadow_ofs_y + dsc->shadow_spread;
 960              		.loc 1 554 35 view .LVU349
 961 004c 0B44     		add	r3, r3, r1
 962 004e 9BB2     		uxth	r3, r3
 554:lvgl/src/draw/lv_draw_rect.c ****     sh_rect_area.y2 = coords->y2  + dsc->shadow_ofs_y + dsc->shadow_spread;
 963              		.loc 1 554 55 view .LVU350
 964 0050 9B1B     		subs	r3, r3, r6
 554:lvgl/src/draw/lv_draw_rect.c ****     sh_rect_area.y2 = coords->y2  + dsc->shadow_ofs_y + dsc->shadow_spread;
 965              		.loc 1 554 21 view .LVU351
 966 0052 ADF89230 		strh	r3, [sp, #146]	@ movhi
 555:lvgl/src/draw/lv_draw_rect.c **** 
 967              		.loc 1 555 5 is_stmt 1 view .LVU352
 555:lvgl/src/draw/lv_draw_rect.c **** 
 968              		.loc 1 555 29 is_stmt 0 view .LVU353
 969 0056 FF88     		ldrh	r7, [r7, #6]
 555:lvgl/src/draw/lv_draw_rect.c **** 
 970              		.loc 1 555 35 view .LVU354
 971 0058 3944     		add	r1, r1, r7
 555:lvgl/src/draw/lv_draw_rect.c **** 
 972              		.loc 1 555 55 view .LVU355
 973 005a 16FA81F1 		uxtah	r1, r6, r1
 555:lvgl/src/draw/lv_draw_rect.c **** 
 974              		.loc 1 555 21 view .LVU356
 975 005e ADF89610 		strh	r1, [sp, #150]	@ movhi
 557:lvgl/src/draw/lv_draw_rect.c ****     sh_area.x1 = sh_rect_area.x1 - sw / 2 - 1;
 976              		.loc 1 557 5 is_stmt 1 view .LVU357
 558:lvgl/src/draw/lv_draw_rect.c ****     sh_area.x2 = sh_rect_area.x2 + sw / 2 + 1;
 977              		.loc 1 558 5 view .LVU358
 558:lvgl/src/draw/lv_draw_rect.c ****     sh_area.x2 = sh_rect_area.x2 + sw / 2 + 1;
 978              		.loc 1 558 39 is_stmt 0 view .LVU359
 979 0062 04EBD47C 		add	ip, r4, r4, lsr #31
 980 0066 4FEA6C07 		asr	r7, ip, #1
 981 006a 7F42     		rsbs	r7, r7, #0
 558:lvgl/src/draw/lv_draw_rect.c ****     sh_area.x2 = sh_rect_area.x2 + sw / 2 + 1;
 982              		.loc 1 558 34 view .LVU360
 983 006c BFB2     		uxth	r7, r7
 984 006e 17FA82F2 		uxtah	r2, r7, r2
 985 0072 92B2     		uxth	r2, r2
 558:lvgl/src/draw/lv_draw_rect.c ****     sh_area.x2 = sh_rect_area.x2 + sw / 2 + 1;
 986              		.loc 1 558 43 view .LVU361
 987 0074 561E     		subs	r6, r2, #1
 558:lvgl/src/draw/lv_draw_rect.c ****     sh_area.x2 = sh_rect_area.x2 + sw / 2 + 1;
 988              		.loc 1 558 16 view .LVU362
 989 0076 ADF88860 		strh	r6, [sp, #136]	@ movhi
 559:lvgl/src/draw/lv_draw_rect.c ****     sh_area.y1 = sh_rect_area.y1 - sw / 2 - 1;
ARM GAS  /var/folders/k2/cd9bl_j17z77g23y6ffqb_400000gn/T//cc0jKSMI.s 			page 46


 990              		.loc 1 559 5 is_stmt 1 view .LVU363
 559:lvgl/src/draw/lv_draw_rect.c ****     sh_area.y1 = sh_rect_area.y1 - sw / 2 - 1;
 991              		.loc 1 559 34 is_stmt 0 view .LVU364
 992 007a CCF34F06 		ubfx	r6, ip, #1, #16
 993 007e 16FA80F0 		uxtah	r0, r6, r0
 994 0082 80B2     		uxth	r0, r0
 559:lvgl/src/draw/lv_draw_rect.c ****     sh_area.y1 = sh_rect_area.y1 - sw / 2 - 1;
 995              		.loc 1 559 43 view .LVU365
 996 0084 0130     		adds	r0, r0, #1
 559:lvgl/src/draw/lv_draw_rect.c ****     sh_area.y1 = sh_rect_area.y1 - sw / 2 - 1;
 997              		.loc 1 559 16 view .LVU366
 998 0086 ADF88C00 		strh	r0, [sp, #140]	@ movhi
 560:lvgl/src/draw/lv_draw_rect.c ****     sh_area.y2 = sh_rect_area.y2 + sw / 2 + 1;
 999              		.loc 1 560 5 is_stmt 1 view .LVU367
 560:lvgl/src/draw/lv_draw_rect.c ****     sh_area.y2 = sh_rect_area.y2 + sw / 2 + 1;
 1000              		.loc 1 560 34 is_stmt 0 view .LVU368
 1001 008a 17FA83F2 		uxtah	r2, r7, r3
 1002 008e 92B2     		uxth	r2, r2
 560:lvgl/src/draw/lv_draw_rect.c ****     sh_area.y2 = sh_rect_area.y2 + sw / 2 + 1;
 1003              		.loc 1 560 43 view .LVU369
 1004 0090 013A     		subs	r2, r2, #1
 560:lvgl/src/draw/lv_draw_rect.c ****     sh_area.y2 = sh_rect_area.y2 + sw / 2 + 1;
 1005              		.loc 1 560 16 view .LVU370
 1006 0092 ADF88A20 		strh	r2, [sp, #138]	@ movhi
 561:lvgl/src/draw/lv_draw_rect.c **** 
 1007              		.loc 1 561 5 is_stmt 1 view .LVU371
 561:lvgl/src/draw/lv_draw_rect.c **** 
 1008              		.loc 1 561 34 is_stmt 0 view .LVU372
 1009 0096 16FA81F3 		uxtah	r3, r6, r1
 1010 009a 9BB2     		uxth	r3, r3
 561:lvgl/src/draw/lv_draw_rect.c **** 
 1011              		.loc 1 561 43 view .LVU373
 1012 009c 0133     		adds	r3, r3, #1
 561:lvgl/src/draw/lv_draw_rect.c **** 
 1013              		.loc 1 561 16 view .LVU374
 1014 009e ADF88E30 		strh	r3, [sp, #142]	@ movhi
 563:lvgl/src/draw/lv_draw_rect.c **** 
 1015              		.loc 1 563 5 is_stmt 1 view .LVU375
 1016              	.LVL99:
 565:lvgl/src/draw/lv_draw_rect.c **** 
 1017              		.loc 1 565 5 view .LVU376
 565:lvgl/src/draw/lv_draw_rect.c **** 
 1018              		.loc 1 565 7 is_stmt 0 view .LVU377
 1019 00a2 049B     		ldr	r3, [sp, #16]
 1020 00a4 FD2B     		cmp	r3, #253
 1021 00a6 01D9     		bls	.L70
 565:lvgl/src/draw/lv_draw_rect.c **** 
 1022              		.loc 1 565 30 view .LVU378
 1023 00a8 FF23     		movs	r3, #255
 1024 00aa 0493     		str	r3, [sp, #16]
 1025              	.LVL100:
 1026              	.L70:
 567:lvgl/src/draw/lv_draw_rect.c ****     lv_disp_draw_buf_t * draw_buf = lv_disp_get_draw_buf(disp);
 1027              		.loc 1 567 5 is_stmt 1 view .LVU379
 567:lvgl/src/draw/lv_draw_rect.c ****     lv_disp_draw_buf_t * draw_buf = lv_disp_get_draw_buf(disp);
 1028              		.loc 1 567 24 is_stmt 0 view .LVU380
 1029 00ac FFF7FEFF 		bl	_lv_refr_get_disp_refreshing
ARM GAS  /var/folders/k2/cd9bl_j17z77g23y6ffqb_400000gn/T//cc0jKSMI.s 			page 47


 1030              	.LVL101:
 568:lvgl/src/draw/lv_draw_rect.c **** 
 1031              		.loc 1 568 5 is_stmt 1 view .LVU381
 568:lvgl/src/draw/lv_draw_rect.c **** 
 1032              		.loc 1 568 37 is_stmt 0 view .LVU382
 1033 00b0 FFF7FEFF 		bl	lv_disp_get_draw_buf
 1034              	.LVL102:
 568:lvgl/src/draw/lv_draw_rect.c **** 
 1035              		.loc 1 568 37 view .LVU383
 1036 00b4 0646     		mov	r6, r0
 1037              	.LVL103:
 572:lvgl/src/draw/lv_draw_rect.c ****     bool is_common;
 1038              		.loc 1 572 5 is_stmt 1 view .LVU384
 573:lvgl/src/draw/lv_draw_rect.c ****     is_common = _lv_area_intersect(&draw_area, &sh_area, clip);
 1039              		.loc 1 573 5 view .LVU385
 574:lvgl/src/draw/lv_draw_rect.c ****     if(is_common == false) return;
 1040              		.loc 1 574 5 view .LVU386
 574:lvgl/src/draw/lv_draw_rect.c ****     if(is_common == false) return;
 1041              		.loc 1 574 17 is_stmt 0 view .LVU387
 1042 00b6 5246     		mov	r2, r10
 1043 00b8 22A9     		add	r1, sp, #136
 1044 00ba 20A8     		add	r0, sp, #128
 1045              	.LVL104:
 574:lvgl/src/draw/lv_draw_rect.c ****     if(is_common == false) return;
 1046              		.loc 1 574 17 view .LVU388
 1047 00bc FFF7FEFF 		bl	_lv_area_intersect
 1048              	.LVL105:
 575:lvgl/src/draw/lv_draw_rect.c **** 
 1049              		.loc 1 575 5 is_stmt 1 view .LVU389
 575:lvgl/src/draw/lv_draw_rect.c **** 
 1050              		.loc 1 575 7 is_stmt 0 view .LVU390
 1051 00c0 0690     		str	r0, [sp, #24]
 1052 00c2 0028     		cmp	r0, #0
 1053 00c4 00F07783 		beq	.L67
 577:lvgl/src/draw/lv_draw_rect.c **** 
 1054              		.loc 1 577 5 is_stmt 1 view .LVU391
 1055              	.LVL106:
 581:lvgl/src/draw/lv_draw_rect.c ****     draw_area.y1 -= disp_area->y1;
 1056              		.loc 1 581 5 view .LVU392
 581:lvgl/src/draw/lv_draw_rect.c ****     draw_area.y1 -= disp_area->y1;
 1057              		.loc 1 581 30 is_stmt 0 view .LVU393
 1058 00c8 318A     		ldrh	r1, [r6, #16]
 581:lvgl/src/draw/lv_draw_rect.c ****     draw_area.y1 -= disp_area->y1;
 1059              		.loc 1 581 18 view .LVU394
 1060 00ca BDF88030 		ldrh	r3, [sp, #128]
 1061 00ce 5B1A     		subs	r3, r3, r1
 1062 00d0 ADF88030 		strh	r3, [sp, #128]	@ movhi
 582:lvgl/src/draw/lv_draw_rect.c ****     draw_area.x2 -= disp_area->x1;
 1063              		.loc 1 582 5 is_stmt 1 view .LVU395
 582:lvgl/src/draw/lv_draw_rect.c ****     draw_area.x2 -= disp_area->x1;
 1064              		.loc 1 582 30 is_stmt 0 view .LVU396
 1065 00d4 728A     		ldrh	r2, [r6, #18]
 582:lvgl/src/draw/lv_draw_rect.c ****     draw_area.x2 -= disp_area->x1;
 1066              		.loc 1 582 18 view .LVU397
 1067 00d6 BDF88230 		ldrh	r3, [sp, #130]
 1068 00da 9B1A     		subs	r3, r3, r2
 1069 00dc ADF88230 		strh	r3, [sp, #130]	@ movhi
ARM GAS  /var/folders/k2/cd9bl_j17z77g23y6ffqb_400000gn/T//cc0jKSMI.s 			page 48


 583:lvgl/src/draw/lv_draw_rect.c ****     draw_area.y2 -= disp_area->y1;
 1070              		.loc 1 583 5 is_stmt 1 view .LVU398
 583:lvgl/src/draw/lv_draw_rect.c ****     draw_area.y2 -= disp_area->y1;
 1071              		.loc 1 583 18 is_stmt 0 view .LVU399
 1072 00e0 BDF88430 		ldrh	r3, [sp, #132]
 1073 00e4 5B1A     		subs	r3, r3, r1
 1074 00e6 ADF88430 		strh	r3, [sp, #132]	@ movhi
 584:lvgl/src/draw/lv_draw_rect.c **** 
 1075              		.loc 1 584 5 is_stmt 1 view .LVU400
 584:lvgl/src/draw/lv_draw_rect.c **** 
 1076              		.loc 1 584 18 is_stmt 0 view .LVU401
 1077 00ea BDF88630 		ldrh	r3, [sp, #134]
 1078 00ee 9B1A     		subs	r3, r3, r2
 1079 00f0 ADF88630 		strh	r3, [sp, #134]	@ movhi
 587:lvgl/src/draw/lv_draw_rect.c ****     lv_area_copy(&bg_coords, coords);
 1080              		.loc 1 587 5 is_stmt 1 view .LVU402
 588:lvgl/src/draw/lv_draw_rect.c ****     bg_coords.x1 += 1;
 1081              		.loc 1 588 5 view .LVU403
 1082              	.LVL107:
 1083              	.LBB209:
 1084              	.LBI209:
 120:lvgl/src/draw/../misc/lv_area.h **** {
 1085              		.loc 2 120 20 view .LVU404
 1086              	.LBB210:
 122:lvgl/src/draw/../misc/lv_area.h ****     dest->y1 = src->y1;
 1087              		.loc 2 122 5 view .LVU405
 122:lvgl/src/draw/../misc/lv_area.h ****     dest->y1 = src->y1;
 1088              		.loc 2 122 19 is_stmt 0 view .LVU406
 1089 00f4 059A     		ldr	r2, [sp, #20]
 1090 00f6 B2F90000 		ldrsh	r0, [r2]
 1091              	.LVL108:
 122:lvgl/src/draw/../misc/lv_area.h ****     dest->y1 = src->y1;
 1092              		.loc 2 122 14 view .LVU407
 1093 00fa ADF87800 		strh	r0, [sp, #120]	@ movhi
 123:lvgl/src/draw/../misc/lv_area.h ****     dest->x2 = src->x2;
 1094              		.loc 2 123 5 is_stmt 1 view .LVU408
 123:lvgl/src/draw/../misc/lv_area.h ****     dest->x2 = src->x2;
 1095              		.loc 2 123 19 is_stmt 0 view .LVU409
 1096 00fe B2F90210 		ldrsh	r1, [r2, #2]
 123:lvgl/src/draw/../misc/lv_area.h ****     dest->x2 = src->x2;
 1097              		.loc 2 123 14 view .LVU410
 1098 0102 ADF87A10 		strh	r1, [sp, #122]	@ movhi
 124:lvgl/src/draw/../misc/lv_area.h ****     dest->y2 = src->y2;
 1099              		.loc 2 124 5 is_stmt 1 view .LVU411
 124:lvgl/src/draw/../misc/lv_area.h ****     dest->y2 = src->y2;
 1100              		.loc 2 124 19 is_stmt 0 view .LVU412
 1101 0106 B2F90430 		ldrsh	r3, [r2, #4]
 124:lvgl/src/draw/../misc/lv_area.h ****     dest->y2 = src->y2;
 1102              		.loc 2 124 14 view .LVU413
 1103 010a ADF87C30 		strh	r3, [sp, #124]	@ movhi
 125:lvgl/src/draw/../misc/lv_area.h **** }
 1104              		.loc 2 125 5 is_stmt 1 view .LVU414
 125:lvgl/src/draw/../misc/lv_area.h **** }
 1105              		.loc 2 125 19 is_stmt 0 view .LVU415
 1106 010e B2F90620 		ldrsh	r2, [r2, #6]
 125:lvgl/src/draw/../misc/lv_area.h **** }
 1107              		.loc 2 125 14 view .LVU416
ARM GAS  /var/folders/k2/cd9bl_j17z77g23y6ffqb_400000gn/T//cc0jKSMI.s 			page 49


 1108 0112 ADF87E20 		strh	r2, [sp, #126]	@ movhi
 1109              	.LVL109:
 125:lvgl/src/draw/../misc/lv_area.h **** }
 1110              		.loc 2 125 14 view .LVU417
 1111              	.LBE210:
 1112              	.LBE209:
 589:lvgl/src/draw/lv_draw_rect.c ****     bg_coords.y1 += 1;
 1113              		.loc 1 589 5 is_stmt 1 view .LVU418
 589:lvgl/src/draw/lv_draw_rect.c ****     bg_coords.y1 += 1;
 1114              		.loc 1 589 18 is_stmt 0 view .LVU419
 1115 0116 0130     		adds	r0, r0, #1
 1116 0118 86B2     		uxth	r6, r0
 1117              	.LVL110:
 589:lvgl/src/draw/lv_draw_rect.c ****     bg_coords.y1 += 1;
 1118              		.loc 1 589 18 view .LVU420
 1119 011a ADF87860 		strh	r6, [sp, #120]	@ movhi
 590:lvgl/src/draw/lv_draw_rect.c ****     bg_coords.x2 -= 1;
 1120              		.loc 1 590 5 is_stmt 1 view .LVU421
 590:lvgl/src/draw/lv_draw_rect.c ****     bg_coords.x2 -= 1;
 1121              		.loc 1 590 18 is_stmt 0 view .LVU422
 1122 011e 0131     		adds	r1, r1, #1
 1123 0120 89B2     		uxth	r1, r1
 1124 0122 ADF87A10 		strh	r1, [sp, #122]	@ movhi
 591:lvgl/src/draw/lv_draw_rect.c ****     bg_coords.y2 -= 1;
 1125              		.loc 1 591 5 is_stmt 1 view .LVU423
 591:lvgl/src/draw/lv_draw_rect.c ****     bg_coords.y2 -= 1;
 1126              		.loc 1 591 18 is_stmt 0 view .LVU424
 1127 0126 013B     		subs	r3, r3, #1
 1128 0128 9BB2     		uxth	r3, r3
 1129 012a ADF87C30 		strh	r3, [sp, #124]	@ movhi
 592:lvgl/src/draw/lv_draw_rect.c **** 
 1130              		.loc 1 592 5 is_stmt 1 view .LVU425
 592:lvgl/src/draw/lv_draw_rect.c **** 
 1131              		.loc 1 592 18 is_stmt 0 view .LVU426
 1132 012e 013A     		subs	r2, r2, #1
 1133 0130 90B2     		uxth	r0, r2
 1134 0132 ADF87E00 		strh	r0, [sp, #126]	@ movhi
 595:lvgl/src/draw/lv_draw_rect.c ****     int32_t short_side = LV_MIN(lv_area_get_width(&bg_coords), lv_area_get_height(&bg_coords));
 1135              		.loc 1 595 5 is_stmt 1 view .LVU427
 595:lvgl/src/draw/lv_draw_rect.c ****     int32_t short_side = LV_MIN(lv_area_get_width(&bg_coords), lv_area_get_height(&bg_coords));
 1136              		.loc 1 595 23 is_stmt 0 view .LVU428
 1137 0136 B5F90020 		ldrsh	r2, [r5]
 1138              	.LVL111:
 596:lvgl/src/draw/lv_draw_rect.c ****     if(r_bg > short_side >> 1) r_bg = short_side >> 1;
 1139              		.loc 1 596 5 is_stmt 1 view .LVU429
 1140              	.LBB211:
 1141              	.LBI211:
 133:lvgl/src/draw/../misc/lv_area.h **** {
 1142              		.loc 2 133 26 view .LVU430
 1143              	.LBB212:
 135:lvgl/src/draw/../misc/lv_area.h **** }
 1144              		.loc 2 135 5 view .LVU431
 135:lvgl/src/draw/../misc/lv_area.h **** }
 1145              		.loc 2 135 36 is_stmt 0 view .LVU432
 1146 013a 9B1B     		subs	r3, r3, r6
 1147 013c 9BB2     		uxth	r3, r3
 135:lvgl/src/draw/../misc/lv_area.h **** }
ARM GAS  /var/folders/k2/cd9bl_j17z77g23y6ffqb_400000gn/T//cc0jKSMI.s 			page 50


 1148              		.loc 2 135 49 view .LVU433
 1149 013e 0133     		adds	r3, r3, #1
 135:lvgl/src/draw/../misc/lv_area.h **** }
 1150              		.loc 2 135 12 view .LVU434
 1151 0140 1BB2     		sxth	r3, r3
 1152              	.LVL112:
 135:lvgl/src/draw/../misc/lv_area.h **** }
 1153              		.loc 2 135 12 view .LVU435
 1154              	.LBE212:
 1155              	.LBE211:
 1156              	.LBB213:
 1157              	.LBI213:
 143:lvgl/src/draw/../misc/lv_area.h **** {
 1158              		.loc 2 143 26 is_stmt 1 view .LVU436
 1159              	.LBB214:
 1160              		.loc 2 145 5 view .LVU437
 1161              		.loc 2 145 36 is_stmt 0 view .LVU438
 1162 0142 411A     		subs	r1, r0, r1
 1163 0144 89B2     		uxth	r1, r1
 1164              		.loc 2 145 49 view .LVU439
 1165 0146 0131     		adds	r1, r1, #1
 1166              		.loc 2 145 12 view .LVU440
 1167 0148 09B2     		sxth	r1, r1
 1168              	.LVL113:
 1169              		.loc 2 145 12 view .LVU441
 1170              	.LBE214:
 1171              	.LBE213:
 596:lvgl/src/draw/lv_draw_rect.c ****     if(r_bg > short_side >> 1) r_bg = short_side >> 1;
 1172              		.loc 1 596 26 view .LVU442
 1173 014a 8B42     		cmp	r3, r1
 1174 014c 00DB     		blt	.L72
 1175              	.LVL114:
 1176              		.loc 2 145 5 is_stmt 1 view .LVU443
 596:lvgl/src/draw/lv_draw_rect.c ****     if(r_bg > short_side >> 1) r_bg = short_side >> 1;
 1177              		.loc 1 596 26 is_stmt 0 view .LVU444
 1178 014e 0B46     		mov	r3, r1
 1179              	.L72:
 1180              	.LVL115:
 597:lvgl/src/draw/lv_draw_rect.c **** 
 1181              		.loc 1 597 5 is_stmt 1 discriminator 4 view .LVU445
 597:lvgl/src/draw/lv_draw_rect.c **** 
 1182              		.loc 1 597 26 is_stmt 0 discriminator 4 view .LVU446
 1183 0150 5F10     		asrs	r7, r3, #1
 597:lvgl/src/draw/lv_draw_rect.c **** 
 1184              		.loc 1 597 7 discriminator 4 view .LVU447
 1185 0152 B2EB630F 		cmp	r2, r3, asr #1
 1186 0156 00DC     		bgt	.L73
 595:lvgl/src/draw/lv_draw_rect.c ****     int32_t short_side = LV_MIN(lv_area_get_width(&bg_coords), lv_area_get_height(&bg_coords));
 1187              		.loc 1 595 13 view .LVU448
 1188 0158 1746     		mov	r7, r2
 1189              	.L73:
 1190              	.LVL116:
 599:lvgl/src/draw/lv_draw_rect.c ****     short_side = LV_MIN(lv_area_get_width(&sh_rect_area), lv_area_get_height(&sh_rect_area));
 1191              		.loc 1 599 5 is_stmt 1 view .LVU449
 600:lvgl/src/draw/lv_draw_rect.c ****     if(r_sh > short_side >> 1) r_sh = short_side >> 1;
 1192              		.loc 1 600 5 view .LVU450
 1193              	.LBB215:
ARM GAS  /var/folders/k2/cd9bl_j17z77g23y6ffqb_400000gn/T//cc0jKSMI.s 			page 51


 1194              	.LBI215:
 133:lvgl/src/draw/../misc/lv_area.h **** {
 1195              		.loc 2 133 26 view .LVU451
 1196              	.LBB216:
 135:lvgl/src/draw/../misc/lv_area.h **** }
 1197              		.loc 2 135 5 view .LVU452
 135:lvgl/src/draw/../misc/lv_area.h **** }
 1198              		.loc 2 135 31 is_stmt 0 view .LVU453
 1199 015a BDF89430 		ldrh	r3, [sp, #148]
 1200              	.LVL117:
 135:lvgl/src/draw/../misc/lv_area.h **** }
 1201              		.loc 2 135 44 view .LVU454
 1202 015e BDF89010 		ldrh	r1, [sp, #144]
 135:lvgl/src/draw/../misc/lv_area.h **** }
 1203              		.loc 2 135 36 view .LVU455
 1204 0162 5B1A     		subs	r3, r3, r1
 1205 0164 9BB2     		uxth	r3, r3
 135:lvgl/src/draw/../misc/lv_area.h **** }
 1206              		.loc 2 135 49 view .LVU456
 1207 0166 0133     		adds	r3, r3, #1
 135:lvgl/src/draw/../misc/lv_area.h **** }
 1208              		.loc 2 135 12 view .LVU457
 1209 0168 19B2     		sxth	r1, r3
 1210              	.LVL118:
 135:lvgl/src/draw/../misc/lv_area.h **** }
 1211              		.loc 2 135 12 view .LVU458
 1212              	.LBE216:
 1213              	.LBE215:
 1214              	.LBB217:
 1215              	.LBI217:
 143:lvgl/src/draw/../misc/lv_area.h **** {
 1216              		.loc 2 143 26 is_stmt 1 view .LVU459
 1217              	.LBB218:
 1218              		.loc 2 145 5 view .LVU460
 1219              		.loc 2 145 31 is_stmt 0 view .LVU461
 1220 016a BDF89630 		ldrh	r3, [sp, #150]
 1221              		.loc 2 145 44 view .LVU462
 1222 016e BDF89200 		ldrh	r0, [sp, #146]
 1223              		.loc 2 145 36 view .LVU463
 1224 0172 1B1A     		subs	r3, r3, r0
 1225 0174 9BB2     		uxth	r3, r3
 1226              		.loc 2 145 49 view .LVU464
 1227 0176 0133     		adds	r3, r3, #1
 1228              		.loc 2 145 12 view .LVU465
 1229 0178 1BB2     		sxth	r3, r3
 1230              	.LVL119:
 1231              		.loc 2 145 12 view .LVU466
 1232              	.LBE218:
 1233              	.LBE217:
 600:lvgl/src/draw/lv_draw_rect.c ****     if(r_sh > short_side >> 1) r_sh = short_side >> 1;
 1234              		.loc 1 600 18 view .LVU467
 1235 017a 8B42     		cmp	r3, r1
 1236 017c 00DD     		ble	.L75
 1237              	.LVL120:
 135:lvgl/src/draw/../misc/lv_area.h **** }
 1238              		.loc 2 135 5 is_stmt 1 view .LVU468
 600:lvgl/src/draw/lv_draw_rect.c ****     if(r_sh > short_side >> 1) r_sh = short_side >> 1;
ARM GAS  /var/folders/k2/cd9bl_j17z77g23y6ffqb_400000gn/T//cc0jKSMI.s 			page 52


 1239              		.loc 1 600 18 is_stmt 0 view .LVU469
 1240 017e 0B46     		mov	r3, r1
 1241              	.L75:
 1242              	.LVL121:
 601:lvgl/src/draw/lv_draw_rect.c **** 
 1243              		.loc 1 601 5 is_stmt 1 discriminator 4 view .LVU470
 601:lvgl/src/draw/lv_draw_rect.c **** 
 1244              		.loc 1 601 26 is_stmt 0 discriminator 4 view .LVU471
 1245 0180 5E10     		asrs	r6, r3, #1
 601:lvgl/src/draw/lv_draw_rect.c **** 
 1246              		.loc 1 601 7 discriminator 4 view .LVU472
 1247 0182 B2EB630F 		cmp	r2, r3, asr #1
 1248 0186 00DC     		bgt	.L76
 599:lvgl/src/draw/lv_draw_rect.c ****     short_side = LV_MIN(lv_area_get_width(&sh_rect_area), lv_area_get_height(&sh_rect_area));
 1249              		.loc 1 599 13 view .LVU473
 1250 0188 1646     		mov	r6, r2
 1251              	.L76:
 1252              	.LVL122:
 603:lvgl/src/draw/lv_draw_rect.c **** 
 1253              		.loc 1 603 5 is_stmt 1 view .LVU474
 603:lvgl/src/draw/lv_draw_rect.c **** 
 1254              		.loc 1 603 13 is_stmt 0 view .LVU475
 1255 018a 3444     		add	r4, r4, r6
 1256              	.LVL123:
 605:lvgl/src/draw/lv_draw_rect.c **** 
 1257              		.loc 1 605 5 is_stmt 1 view .LVU476
 626:lvgl/src/draw/lv_draw_rect.c ****     shadow_draw_corner_buf(&sh_rect_area, (uint16_t *)sh_buf, dsc->shadow_width, r_sh);
 1258              		.loc 1 626 5 view .LVU477
 626:lvgl/src/draw/lv_draw_rect.c ****     shadow_draw_corner_buf(&sh_rect_area, (uint16_t *)sh_buf, dsc->shadow_width, r_sh);
 1259              		.loc 1 626 41 is_stmt 0 view .LVU478
 1260 018c 04FB04F0 		mul	r0, r4, r4
 626:lvgl/src/draw/lv_draw_rect.c ****     shadow_draw_corner_buf(&sh_rect_area, (uint16_t *)sh_buf, dsc->shadow_width, r_sh);
 1261              		.loc 1 626 14 view .LVU479
 1262 0190 4000     		lsls	r0, r0, #1
 1263 0192 FFF7FEFF 		bl	lv_mem_buf_get
 1264              	.LVL124:
 626:lvgl/src/draw/lv_draw_rect.c ****     shadow_draw_corner_buf(&sh_rect_area, (uint16_t *)sh_buf, dsc->shadow_width, r_sh);
 1265              		.loc 1 626 14 view .LVU480
 1266 0196 0146     		mov	r1, r0
 1267 0198 0790     		str	r0, [sp, #28]
 1268              	.LVL125:
 627:lvgl/src/draw/lv_draw_rect.c **** #endif
 1269              		.loc 1 627 5 is_stmt 1 view .LVU481
 1270 019a 33B2     		sxth	r3, r6
 1271 019c B5F93820 		ldrsh	r2, [r5, #56]
 1272 01a0 24A8     		add	r0, sp, #144
 1273              	.LVL126:
 627:lvgl/src/draw/lv_draw_rect.c **** #endif
 1274              		.loc 1 627 5 is_stmt 0 view .LVU482
 1275 01a2 FFF7FEFF 		bl	shadow_draw_corner_buf
 1276              	.LVL127:
 630:lvgl/src/draw/lv_draw_rect.c ****     lv_coord_t w_half = sh_area.x1 + lv_area_get_width(&sh_area) / 2;
 1277              		.loc 1 630 5 is_stmt 1 view .LVU483
 630:lvgl/src/draw/lv_draw_rect.c ****     lv_coord_t w_half = sh_area.x1 + lv_area_get_width(&sh_area) / 2;
 1278              		.loc 1 630 32 is_stmt 0 view .LVU484
 1279 01a6 BDF88A20 		ldrh	r2, [sp, #138]
 1280              	.LVL128:
ARM GAS  /var/folders/k2/cd9bl_j17z77g23y6ffqb_400000gn/T//cc0jKSMI.s 			page 53


 1281              	.LBB219:
 1282              	.LBI219:
 143:lvgl/src/draw/../misc/lv_area.h **** {
 1283              		.loc 2 143 26 is_stmt 1 view .LVU485
 1284              	.LBB220:
 1285              		.loc 2 145 5 view .LVU486
 1286              		.loc 2 145 31 is_stmt 0 view .LVU487
 1287 01aa BDF88E30 		ldrh	r3, [sp, #142]
 1288              		.loc 2 145 36 view .LVU488
 1289 01ae 9B1A     		subs	r3, r3, r2
 1290 01b0 9BB2     		uxth	r3, r3
 1291              		.loc 2 145 49 view .LVU489
 1292 01b2 0133     		adds	r3, r3, #1
 1293              	.LVL129:
 1294              		.loc 2 145 49 view .LVU490
 1295              	.LBE220:
 1296              	.LBE219:
 630:lvgl/src/draw/lv_draw_rect.c ****     lv_coord_t w_half = sh_area.x1 + lv_area_get_width(&sh_area) / 2;
 1297              		.loc 1 630 36 view .LVU491
 1298 01b4 C3F3C031 		ubfx	r1, r3, #15, #1
 1299 01b8 01FA83F3 		sxtah	r3, r1, r3
 1300 01bc 02EB6303 		add	r3, r2, r3, asr #1
 1301 01c0 9AB2     		uxth	r2, r3
 1302 01c2 0C92     		str	r2, [sp, #48]
 630:lvgl/src/draw/lv_draw_rect.c ****     lv_coord_t w_half = sh_area.x1 + lv_area_get_width(&sh_area) / 2;
 1303              		.loc 1 630 16 view .LVU492
 1304 01c4 1BB2     		sxth	r3, r3
 1305 01c6 0B93     		str	r3, [sp, #44]
 1306              	.LVL130:
 631:lvgl/src/draw/lv_draw_rect.c **** 
 1307              		.loc 1 631 5 is_stmt 1 view .LVU493
 631:lvgl/src/draw/lv_draw_rect.c **** 
 1308              		.loc 1 631 32 is_stmt 0 view .LVU494
 1309 01c8 BDF88820 		ldrh	r2, [sp, #136]
 1310              	.LVL131:
 1311              	.LBB221:
 1312              	.LBI221:
 133:lvgl/src/draw/../misc/lv_area.h **** {
 1313              		.loc 2 133 26 is_stmt 1 view .LVU495
 1314              	.LBB222:
 135:lvgl/src/draw/../misc/lv_area.h **** }
 1315              		.loc 2 135 5 view .LVU496
 135:lvgl/src/draw/../misc/lv_area.h **** }
 1316              		.loc 2 135 31 is_stmt 0 view .LVU497
 1317 01cc BDF88C30 		ldrh	r3, [sp, #140]
 135:lvgl/src/draw/../misc/lv_area.h **** }
 1318              		.loc 2 135 36 view .LVU498
 1319 01d0 9B1A     		subs	r3, r3, r2
 1320 01d2 9BB2     		uxth	r3, r3
 135:lvgl/src/draw/../misc/lv_area.h **** }
 1321              		.loc 2 135 49 view .LVU499
 1322 01d4 0133     		adds	r3, r3, #1
 1323              	.LVL132:
 135:lvgl/src/draw/../misc/lv_area.h **** }
 1324              		.loc 2 135 49 view .LVU500
 1325              	.LBE222:
 1326              	.LBE221:
ARM GAS  /var/folders/k2/cd9bl_j17z77g23y6ffqb_400000gn/T//cc0jKSMI.s 			page 54


 631:lvgl/src/draw/lv_draw_rect.c **** 
 1327              		.loc 1 631 36 view .LVU501
 1328 01d6 C3F3C031 		ubfx	r1, r3, #15, #1
 1329 01da 01FA83F3 		sxtah	r3, r1, r3
 1330 01de 02EB6303 		add	r3, r2, r3, asr #1
 1331 01e2 9AB2     		uxth	r2, r3
 1332 01e4 0D92     		str	r2, [sp, #52]
 631:lvgl/src/draw/lv_draw_rect.c **** 
 1333              		.loc 1 631 16 view .LVU502
 1334 01e6 1BB2     		sxth	r3, r3
 1335 01e8 0A93     		str	r3, [sp, #40]
 1336              	.LVL133:
 633:lvgl/src/draw/lv_draw_rect.c ****     if(lv_draw_mask_get_cnt() > 0) simple_mode = false;
 1337              		.loc 1 633 5 is_stmt 1 view .LVU503
 634:lvgl/src/draw/lv_draw_rect.c ****     else if(dsc->shadow_ofs_x != 0 || dsc->shadow_ofs_y != 0) simple_mode = false;
 1338              		.loc 1 634 5 view .LVU504
 634:lvgl/src/draw/lv_draw_rect.c ****     else if(dsc->shadow_ofs_x != 0 || dsc->shadow_ofs_y != 0) simple_mode = false;
 1339              		.loc 1 634 8 is_stmt 0 view .LVU505
 1340 01ea FFF7FEFF 		bl	lv_draw_mask_get_cnt
 1341              	.LVL134:
 634:lvgl/src/draw/lv_draw_rect.c ****     else if(dsc->shadow_ofs_x != 0 || dsc->shadow_ofs_y != 0) simple_mode = false;
 1342              		.loc 1 634 7 view .LVU506
 1343 01ee D0B9     		cbnz	r0, .L139
 635:lvgl/src/draw/lv_draw_rect.c ****     else if(dsc->shadow_spread != 0) simple_mode = false;
 1344              		.loc 1 635 10 is_stmt 1 view .LVU507
 635:lvgl/src/draw/lv_draw_rect.c ****     else if(dsc->shadow_spread != 0) simple_mode = false;
 1345              		.loc 1 635 16 is_stmt 0 view .LVU508
 1346 01f0 B5F93A30 		ldrsh	r3, [r5, #58]
 635:lvgl/src/draw/lv_draw_rect.c ****     else if(dsc->shadow_spread != 0) simple_mode = false;
 1347              		.loc 1 635 12 view .LVU509
 1348 01f4 002B     		cmp	r3, #0
 1349 01f6 40F08780 		bne	.L140
 635:lvgl/src/draw/lv_draw_rect.c ****     else if(dsc->shadow_spread != 0) simple_mode = false;
 1350              		.loc 1 635 42 discriminator 2 view .LVU510
 1351 01fa B5F93C30 		ldrsh	r3, [r5, #60]
 635:lvgl/src/draw/lv_draw_rect.c ****     else if(dsc->shadow_spread != 0) simple_mode = false;
 1352              		.loc 1 635 36 discriminator 2 view .LVU511
 1353 01fe 002B     		cmp	r3, #0
 1354 0200 40F08580 		bne	.L141
 636:lvgl/src/draw/lv_draw_rect.c **** 
 1355              		.loc 1 636 10 is_stmt 1 view .LVU512
 636:lvgl/src/draw/lv_draw_rect.c **** 
 1356              		.loc 1 636 16 is_stmt 0 view .LVU513
 1357 0204 B5F93E30 		ldrsh	r3, [r5, #62]
 636:lvgl/src/draw/lv_draw_rect.c **** 
 1358              		.loc 1 636 12 view .LVU514
 1359 0208 7BB1     		cbz	r3, .L77
 636:lvgl/src/draw/lv_draw_rect.c **** 
 1360              		.loc 1 636 50 view .LVU515
 1361 020a 0023     		movs	r3, #0
 1362 020c 0693     		str	r3, [sp, #24]
 1363 020e 0CE0     		b	.L77
 1364              	.LVL135:
 1365              	.L158:
 545:lvgl/src/draw/lv_draw_rect.c ****         return;
 1366              		.loc 1 545 11 discriminator 1 view .LVU516
 1367 0210 B2F93C30 		ldrsh	r3, [r2, #60]
ARM GAS  /var/folders/k2/cd9bl_j17z77g23y6ffqb_400000gn/T//cc0jKSMI.s 			page 55


 544:lvgl/src/draw/lv_draw_rect.c ****        dsc->shadow_ofs_y == 0 && dsc->shadow_spread <= 0) {
 1368              		.loc 1 544 57 discriminator 1 view .LVU517
 1369 0214 002B     		cmp	r3, #0
 1370 0216 7FF408AF 		bne	.L69
 545:lvgl/src/draw/lv_draw_rect.c ****         return;
 1371              		.loc 1 545 37 view .LVU518
 1372 021a B2F93E30 		ldrsh	r3, [r2, #62]
 545:lvgl/src/draw/lv_draw_rect.c ****         return;
 1373              		.loc 1 545 31 view .LVU519
 1374 021e 002B     		cmp	r3, #0
 1375 0220 3FF703AF 		bgt	.L69
 1376 0224 C7E2     		b	.L67
 1377              	.LVL136:
 1378              	.L139:
 634:lvgl/src/draw/lv_draw_rect.c ****     else if(dsc->shadow_ofs_x != 0 || dsc->shadow_ofs_y != 0) simple_mode = false;
 1379              		.loc 1 634 48 view .LVU520
 1380 0226 0023     		movs	r3, #0
 1381 0228 0693     		str	r3, [sp, #24]
 1382              	.L77:
 1383              	.LVL137:
 639:lvgl/src/draw/lv_draw_rect.c ****     lv_opa_t * mask_buf = lv_mem_buf_get(lv_area_get_width(&sh_area));
 1384              		.loc 1 639 5 is_stmt 1 view .LVU521
 640:lvgl/src/draw/lv_draw_rect.c **** 
 1385              		.loc 1 640 5 view .LVU522
 1386              	.LBB223:
 1387              	.LBI223:
 133:lvgl/src/draw/../misc/lv_area.h **** {
 1388              		.loc 2 133 26 view .LVU523
 1389              	.LBB224:
 135:lvgl/src/draw/../misc/lv_area.h **** }
 1390              		.loc 2 135 5 view .LVU524
 135:lvgl/src/draw/../misc/lv_area.h **** }
 1391              		.loc 2 135 31 is_stmt 0 view .LVU525
 1392 022a BDF88C00 		ldrh	r0, [sp, #140]
 135:lvgl/src/draw/../misc/lv_area.h **** }
 1393              		.loc 2 135 44 view .LVU526
 1394 022e BDF88830 		ldrh	r3, [sp, #136]
 135:lvgl/src/draw/../misc/lv_area.h **** }
 1395              		.loc 2 135 36 view .LVU527
 1396 0232 C01A     		subs	r0, r0, r3
 1397 0234 80B2     		uxth	r0, r0
 135:lvgl/src/draw/../misc/lv_area.h **** }
 1398              		.loc 2 135 49 view .LVU528
 1399 0236 0130     		adds	r0, r0, #1
 1400              	.LVL138:
 135:lvgl/src/draw/../misc/lv_area.h **** }
 1401              		.loc 2 135 49 view .LVU529
 1402              	.LBE224:
 1403              	.LBE223:
 640:lvgl/src/draw/lv_draw_rect.c **** 
 1404              		.loc 1 640 27 view .LVU530
 1405 0238 00B2     		sxth	r0, r0
 1406 023a FFF7FEFF 		bl	lv_mem_buf_get
 1407              	.LVL139:
 1408 023e 0646     		mov	r6, r0
 1409              	.LVL140:
 642:lvgl/src/draw/lv_draw_rect.c ****     lv_draw_mask_radius_init(&mask_rout_param, &bg_coords, r_bg, true);
ARM GAS  /var/folders/k2/cd9bl_j17z77g23y6ffqb_400000gn/T//cc0jKSMI.s 			page 56


 1410              		.loc 1 642 5 is_stmt 1 view .LVU531
 643:lvgl/src/draw/lv_draw_rect.c **** 
 1411              		.loc 1 643 5 view .LVU532
 1412 0240 3BB2     		sxth	r3, r7
 1413 0242 1A46     		mov	r2, r3
 1414 0244 0893     		str	r3, [sp, #32]
 1415 0246 0123     		movs	r3, #1
 1416 0248 1EA9     		add	r1, sp, #120
 1417 024a 17A8     		add	r0, sp, #92
 1418              	.LVL141:
 643:lvgl/src/draw/lv_draw_rect.c **** 
 1419              		.loc 1 643 5 is_stmt 0 view .LVU533
 1420 024c FFF7FEFF 		bl	lv_draw_mask_radius_init
 1421              	.LVL142:
 645:lvgl/src/draw/lv_draw_rect.c **** 
 1422              		.loc 1 645 5 is_stmt 1 view .LVU534
 645:lvgl/src/draw/lv_draw_rect.c **** 
 1423              		.loc 1 645 28 is_stmt 0 view .LVU535
 1424 0250 0021     		movs	r1, #0
 1425 0252 17A8     		add	r0, sp, #92
 1426 0254 FFF7FEFF 		bl	lv_draw_mask_add
 1427              	.LVL143:
 1428 0258 0990     		str	r0, [sp, #36]
 1429              	.LVL144:
 647:lvgl/src/draw/lv_draw_rect.c **** 
 1430              		.loc 1 647 5 is_stmt 1 view .LVU536
 650:lvgl/src/draw/lv_draw_rect.c ****     lv_opa_t * sh_buf_tmp;
 1431              		.loc 1 650 5 view .LVU537
 651:lvgl/src/draw/lv_draw_rect.c ****     a.x2 = sh_area.x2;
 1432              		.loc 1 651 5 view .LVU538
 652:lvgl/src/draw/lv_draw_rect.c ****     a.x1 = a.x2 - corner_size + 1;
 1433              		.loc 1 652 5 view .LVU539
 652:lvgl/src/draw/lv_draw_rect.c ****     a.x1 = a.x2 - corner_size + 1;
 1434              		.loc 1 652 19 is_stmt 0 view .LVU540
 1435 025a BDF98C30 		ldrsh	r3, [sp, #140]
 652:lvgl/src/draw/lv_draw_rect.c ****     a.x1 = a.x2 - corner_size + 1;
 1436              		.loc 1 652 10 view .LVU541
 1437 025e ADF85830 		strh	r3, [sp, #88]	@ movhi
 653:lvgl/src/draw/lv_draw_rect.c ****     a.y1 = sh_area.y1;
 1438              		.loc 1 653 5 is_stmt 1 view .LVU542
 653:lvgl/src/draw/lv_draw_rect.c ****     a.y1 = sh_area.y1;
 1439              		.loc 1 653 13 is_stmt 0 view .LVU543
 1440 0262 9BB2     		uxth	r3, r3
 653:lvgl/src/draw/lv_draw_rect.c ****     a.y1 = sh_area.y1;
 1441              		.loc 1 653 17 view .LVU544
 1442 0264 A7B2     		uxth	r7, r4
 1443              	.LVL145:
 653:lvgl/src/draw/lv_draw_rect.c ****     a.y1 = sh_area.y1;
 1444              		.loc 1 653 17 view .LVU545
 1445 0266 DB1B     		subs	r3, r3, r7
 1446 0268 9BB2     		uxth	r3, r3
 653:lvgl/src/draw/lv_draw_rect.c ****     a.y1 = sh_area.y1;
 1447              		.loc 1 653 31 view .LVU546
 1448 026a 0133     		adds	r3, r3, #1
 653:lvgl/src/draw/lv_draw_rect.c ****     a.y1 = sh_area.y1;
 1449              		.loc 1 653 10 view .LVU547
 1450 026c ADF85430 		strh	r3, [sp, #84]	@ movhi
ARM GAS  /var/folders/k2/cd9bl_j17z77g23y6ffqb_400000gn/T//cc0jKSMI.s 			page 57


 654:lvgl/src/draw/lv_draw_rect.c ****     a.y2 = a.y1 + corner_size - 1;
 1451              		.loc 1 654 5 is_stmt 1 view .LVU548
 654:lvgl/src/draw/lv_draw_rect.c ****     a.y2 = a.y1 + corner_size - 1;
 1452              		.loc 1 654 19 is_stmt 0 view .LVU549
 1453 0270 BDF98A30 		ldrsh	r3, [sp, #138]
 654:lvgl/src/draw/lv_draw_rect.c ****     a.y2 = a.y1 + corner_size - 1;
 1454              		.loc 1 654 10 view .LVU550
 1455 0274 ADF85630 		strh	r3, [sp, #86]	@ movhi
 655:lvgl/src/draw/lv_draw_rect.c **** 
 1456              		.loc 1 655 5 is_stmt 1 view .LVU551
 655:lvgl/src/draw/lv_draw_rect.c **** 
 1457              		.loc 1 655 17 is_stmt 0 view .LVU552
 1458 0278 17FA83F3 		uxtah	r3, r7, r3
 1459 027c 9BB2     		uxth	r3, r3
 655:lvgl/src/draw/lv_draw_rect.c **** 
 1460              		.loc 1 655 31 view .LVU553
 1461 027e 013B     		subs	r3, r3, #1
 655:lvgl/src/draw/lv_draw_rect.c **** 
 1462              		.loc 1 655 10 view .LVU554
 1463 0280 ADF85A30 		strh	r3, [sp, #90]	@ movhi
 657:lvgl/src/draw/lv_draw_rect.c ****     bool has_com = _lv_area_intersect(&ca, &a, clip);
 1464              		.loc 1 657 5 is_stmt 1 view .LVU555
 658:lvgl/src/draw/lv_draw_rect.c ****     if(has_com && _lv_area_is_in(&a, &bg_coords, r_bg) == false) {
 1465              		.loc 1 658 5 view .LVU556
 658:lvgl/src/draw/lv_draw_rect.c ****     if(has_com && _lv_area_is_in(&a, &bg_coords, r_bg) == false) {
 1466              		.loc 1 658 20 is_stmt 0 view .LVU557
 1467 0284 5246     		mov	r2, r10
 1468 0286 15A9     		add	r1, sp, #84
 1469 0288 13A8     		add	r0, sp, #76
 1470 028a FFF7FEFF 		bl	_lv_area_intersect
 1471              	.LVL146:
 659:lvgl/src/draw/lv_draw_rect.c ****         /*Avoid overlap in the middle with large radius*/
 1472              		.loc 1 659 5 is_stmt 1 view .LVU558
 659:lvgl/src/draw/lv_draw_rect.c ****         /*Avoid overlap in the middle with large radius*/
 1473              		.loc 1 659 7 is_stmt 0 view .LVU559
 1474 028e 0028     		cmp	r0, #0
 1475 0290 40D1     		bne	.L159
 1476              	.LVL147:
 1477              	.L78:
 689:lvgl/src/draw/lv_draw_rect.c ****     a.x1 = a.x2 - corner_size + 1;
 1478              		.loc 1 689 5 is_stmt 1 view .LVU560
 689:lvgl/src/draw/lv_draw_rect.c ****     a.x1 = a.x2 - corner_size + 1;
 1479              		.loc 1 689 19 is_stmt 0 view .LVU561
 1480 0292 BDF98C30 		ldrsh	r3, [sp, #140]
 689:lvgl/src/draw/lv_draw_rect.c ****     a.x1 = a.x2 - corner_size + 1;
 1481              		.loc 1 689 10 view .LVU562
 1482 0296 ADF85830 		strh	r3, [sp, #88]	@ movhi
 690:lvgl/src/draw/lv_draw_rect.c ****     a.y1 = sh_area.y2 - corner_size + 1;
 1483              		.loc 1 690 5 is_stmt 1 view .LVU563
 690:lvgl/src/draw/lv_draw_rect.c ****     a.y1 = sh_area.y2 - corner_size + 1;
 1484              		.loc 1 690 13 is_stmt 0 view .LVU564
 1485 029a 9BB2     		uxth	r3, r3
 690:lvgl/src/draw/lv_draw_rect.c ****     a.y1 = sh_area.y2 - corner_size + 1;
 1486              		.loc 1 690 17 view .LVU565
 1487 029c DB1B     		subs	r3, r3, r7
 1488 029e 9BB2     		uxth	r3, r3
 690:lvgl/src/draw/lv_draw_rect.c ****     a.y1 = sh_area.y2 - corner_size + 1;
ARM GAS  /var/folders/k2/cd9bl_j17z77g23y6ffqb_400000gn/T//cc0jKSMI.s 			page 58


 1489              		.loc 1 690 31 view .LVU566
 1490 02a0 0133     		adds	r3, r3, #1
 690:lvgl/src/draw/lv_draw_rect.c ****     a.y1 = sh_area.y2 - corner_size + 1;
 1491              		.loc 1 690 10 view .LVU567
 1492 02a2 ADF85430 		strh	r3, [sp, #84]	@ movhi
 691:lvgl/src/draw/lv_draw_rect.c ****     a.y2 = sh_area.y2;
 1493              		.loc 1 691 5 is_stmt 1 view .LVU568
 691:lvgl/src/draw/lv_draw_rect.c ****     a.y2 = sh_area.y2;
 1494              		.loc 1 691 19 is_stmt 0 view .LVU569
 1495 02a6 BDF98E20 		ldrsh	r2, [sp, #142]
 1496 02aa 93B2     		uxth	r3, r2
 691:lvgl/src/draw/lv_draw_rect.c ****     a.y2 = sh_area.y2;
 1497              		.loc 1 691 23 view .LVU570
 1498 02ac DB1B     		subs	r3, r3, r7
 1499 02ae 9BB2     		uxth	r3, r3
 691:lvgl/src/draw/lv_draw_rect.c ****     a.y2 = sh_area.y2;
 1500              		.loc 1 691 37 view .LVU571
 1501 02b0 0133     		adds	r3, r3, #1
 691:lvgl/src/draw/lv_draw_rect.c ****     a.y2 = sh_area.y2;
 1502              		.loc 1 691 10 view .LVU572
 1503 02b2 ADF85630 		strh	r3, [sp, #86]	@ movhi
 692:lvgl/src/draw/lv_draw_rect.c **** 
 1504              		.loc 1 692 5 is_stmt 1 view .LVU573
 692:lvgl/src/draw/lv_draw_rect.c **** 
 1505              		.loc 1 692 10 is_stmt 0 view .LVU574
 1506 02b6 ADF85A20 		strh	r2, [sp, #90]	@ movhi
 694:lvgl/src/draw/lv_draw_rect.c ****     if(has_com && _lv_area_is_in(&a, &bg_coords, r_bg) == false) {
 1507              		.loc 1 694 5 is_stmt 1 view .LVU575
 694:lvgl/src/draw/lv_draw_rect.c ****     if(has_com && _lv_area_is_in(&a, &bg_coords, r_bg) == false) {
 1508              		.loc 1 694 15 is_stmt 0 view .LVU576
 1509 02ba 5246     		mov	r2, r10
 1510 02bc 15A9     		add	r1, sp, #84
 1511 02be 13A8     		add	r0, sp, #76
 1512 02c0 FFF7FEFF 		bl	_lv_area_intersect
 1513              	.LVL148:
 695:lvgl/src/draw/lv_draw_rect.c ****         /*Avoid overlap in the middle with large radius*/
 1514              		.loc 1 695 5 is_stmt 1 view .LVU577
 695:lvgl/src/draw/lv_draw_rect.c ****         /*Avoid overlap in the middle with large radius*/
 1515              		.loc 1 695 7 is_stmt 0 view .LVU578
 1516 02c4 0028     		cmp	r0, #0
 1517 02c6 40F0A380 		bne	.L160
 1518              	.LVL149:
 1519              	.L84:
 726:lvgl/src/draw/lv_draw_rect.c ****     a.x1 = a.x2 - corner_size + 1;
 1520              		.loc 1 726 5 is_stmt 1 view .LVU579
 726:lvgl/src/draw/lv_draw_rect.c ****     a.x1 = a.x2 - corner_size + 1;
 1521              		.loc 1 726 19 is_stmt 0 view .LVU580
 1522 02ca BDF98C30 		ldrsh	r3, [sp, #140]
 726:lvgl/src/draw/lv_draw_rect.c ****     a.x1 = a.x2 - corner_size + 1;
 1523              		.loc 1 726 10 view .LVU581
 1524 02ce ADF85830 		strh	r3, [sp, #88]	@ movhi
 727:lvgl/src/draw/lv_draw_rect.c ****     a.y1 = sh_area.y1 + corner_size;
 1525              		.loc 1 727 5 is_stmt 1 view .LVU582
 727:lvgl/src/draw/lv_draw_rect.c ****     a.y1 = sh_area.y1 + corner_size;
 1526              		.loc 1 727 13 is_stmt 0 view .LVU583
 1527 02d2 9BB2     		uxth	r3, r3
 727:lvgl/src/draw/lv_draw_rect.c ****     a.y1 = sh_area.y1 + corner_size;
ARM GAS  /var/folders/k2/cd9bl_j17z77g23y6ffqb_400000gn/T//cc0jKSMI.s 			page 59


 1528              		.loc 1 727 17 view .LVU584
 1529 02d4 DB1B     		subs	r3, r3, r7
 1530 02d6 9BB2     		uxth	r3, r3
 727:lvgl/src/draw/lv_draw_rect.c ****     a.y1 = sh_area.y1 + corner_size;
 1531              		.loc 1 727 31 view .LVU585
 1532 02d8 0133     		adds	r3, r3, #1
 727:lvgl/src/draw/lv_draw_rect.c ****     a.y1 = sh_area.y1 + corner_size;
 1533              		.loc 1 727 10 view .LVU586
 1534 02da ADF85430 		strh	r3, [sp, #84]	@ movhi
 728:lvgl/src/draw/lv_draw_rect.c ****     a.y2 = sh_area.y2 - corner_size;
 1535              		.loc 1 728 5 is_stmt 1 view .LVU587
 728:lvgl/src/draw/lv_draw_rect.c ****     a.y2 = sh_area.y2 - corner_size;
 1536              		.loc 1 728 19 is_stmt 0 view .LVU588
 1537 02de BDF88A30 		ldrh	r3, [sp, #138]
 728:lvgl/src/draw/lv_draw_rect.c ****     a.y2 = sh_area.y2 - corner_size;
 1538              		.loc 1 728 23 view .LVU589
 1539 02e2 3B44     		add	r3, r3, r7
 728:lvgl/src/draw/lv_draw_rect.c ****     a.y2 = sh_area.y2 - corner_size;
 1540              		.loc 1 728 10 view .LVU590
 1541 02e4 ADF85630 		strh	r3, [sp, #86]	@ movhi
 729:lvgl/src/draw/lv_draw_rect.c **** 
 1542              		.loc 1 729 5 is_stmt 1 view .LVU591
 729:lvgl/src/draw/lv_draw_rect.c **** 
 1543              		.loc 1 729 19 is_stmt 0 view .LVU592
 1544 02e8 BDF88E30 		ldrh	r3, [sp, #142]
 729:lvgl/src/draw/lv_draw_rect.c **** 
 1545              		.loc 1 729 23 view .LVU593
 1546 02ec DB1B     		subs	r3, r3, r7
 729:lvgl/src/draw/lv_draw_rect.c **** 
 1547              		.loc 1 729 10 view .LVU594
 1548 02ee ADF85A30 		strh	r3, [sp, #90]	@ movhi
 731:lvgl/src/draw/lv_draw_rect.c ****     if(has_com && _lv_area_is_in(&a, &bg_coords, r_bg) == false) {
 1549              		.loc 1 731 5 is_stmt 1 view .LVU595
 731:lvgl/src/draw/lv_draw_rect.c ****     if(has_com && _lv_area_is_in(&a, &bg_coords, r_bg) == false) {
 1550              		.loc 1 731 15 is_stmt 0 view .LVU596
 1551 02f2 5246     		mov	r2, r10
 1552 02f4 15A9     		add	r1, sp, #84
 1553 02f6 13A8     		add	r0, sp, #76
 1554 02f8 FFF7FEFF 		bl	_lv_area_intersect
 1555              	.LVL150:
 732:lvgl/src/draw/lv_draw_rect.c ****         /*Avoid overlap in the middle with large radius*/
 1556              		.loc 1 732 5 is_stmt 1 view .LVU597
 732:lvgl/src/draw/lv_draw_rect.c ****         /*Avoid overlap in the middle with large radius*/
 1557              		.loc 1 732 7 is_stmt 0 view .LVU598
 1558 02fc 0028     		cmp	r0, #0
 1559 02fe 40F00481 		bne	.L161
 1560              	.LVL151:
 1561              	.L90:
 1562              	.LBB225:
 774:lvgl/src/draw/lv_draw_rect.c ****             lv_opa_t tmp = sh_buf_tmp[x];
 1563              		.loc 1 774 15 discriminator 1 view .LVU599
 1564 0302 0799     		ldr	r1, [sp, #28]
 1565 0304 0020     		movs	r0, #0
 1566 0306 9FE1     		b	.L97
 1567              	.LVL152:
 1568              	.L140:
 774:lvgl/src/draw/lv_draw_rect.c ****             lv_opa_t tmp = sh_buf_tmp[x];
ARM GAS  /var/folders/k2/cd9bl_j17z77g23y6ffqb_400000gn/T//cc0jKSMI.s 			page 60


 1569              		.loc 1 774 15 discriminator 1 view .LVU600
 1570              	.LBE225:
 635:lvgl/src/draw/lv_draw_rect.c ****     else if(dsc->shadow_spread != 0) simple_mode = false;
 1571              		.loc 1 635 75 view .LVU601
 1572 0308 0023     		movs	r3, #0
 1573 030a 0693     		str	r3, [sp, #24]
 1574 030c 8DE7     		b	.L77
 1575              	.L141:
 1576 030e 0023     		movs	r3, #0
 1577 0310 0693     		str	r3, [sp, #24]
 1578 0312 8AE7     		b	.L77
 1579              	.LVL153:
 1580              	.L159:
 659:lvgl/src/draw/lv_draw_rect.c ****         /*Avoid overlap in the middle with large radius*/
 1581              		.loc 1 659 19 discriminator 1 view .LVU602
 1582 0314 089A     		ldr	r2, [sp, #32]
 1583 0316 1EA9     		add	r1, sp, #120
 1584 0318 15A8     		add	r0, sp, #84
 1585              	.LVL154:
 659:lvgl/src/draw/lv_draw_rect.c ****         /*Avoid overlap in the middle with large radius*/
 1586              		.loc 1 659 19 discriminator 1 view .LVU603
 1587 031a FFF7FEFF 		bl	_lv_area_is_in
 1588              	.LVL155:
 659:lvgl/src/draw/lv_draw_rect.c ****         /*Avoid overlap in the middle with large radius*/
 1589              		.loc 1 659 16 discriminator 1 view .LVU604
 1590 031e 0028     		cmp	r0, #0
 1591 0320 B7D1     		bne	.L78
 1592              	.LBB227:
 661:lvgl/src/draw/lv_draw_rect.c ****         if(ca.x1 <= w_half) ca.x1 = w_half + 1;
 1593              		.loc 1 661 9 is_stmt 1 view .LVU605
 661:lvgl/src/draw/lv_draw_rect.c ****         if(ca.x1 <= w_half) ca.x1 = w_half + 1;
 1594              		.loc 1 661 14 is_stmt 0 view .LVU606
 1595 0322 BDF95230 		ldrsh	r3, [sp, #82]
 661:lvgl/src/draw/lv_draw_rect.c ****         if(ca.x1 <= w_half) ca.x1 = w_half + 1;
 1596              		.loc 1 661 11 view .LVU607
 1597 0326 0B9A     		ldr	r2, [sp, #44]
 1598 0328 9342     		cmp	r3, r2
 1599 032a 01DD     		ble	.L79
 661:lvgl/src/draw/lv_draw_rect.c ****         if(ca.x1 <= w_half) ca.x1 = w_half + 1;
 1600              		.loc 1 661 28 is_stmt 1 discriminator 1 view .LVU608
 661:lvgl/src/draw/lv_draw_rect.c ****         if(ca.x1 <= w_half) ca.x1 = w_half + 1;
 1601              		.loc 1 661 34 is_stmt 0 discriminator 1 view .LVU609
 1602 032c ADF85220 		strh	r2, [sp, #82]	@ movhi
 1603              	.L79:
 662:lvgl/src/draw/lv_draw_rect.c **** 
 1604              		.loc 1 662 9 is_stmt 1 view .LVU610
 662:lvgl/src/draw/lv_draw_rect.c **** 
 1605              		.loc 1 662 14 is_stmt 0 view .LVU611
 1606 0330 BDF94C30 		ldrsh	r3, [sp, #76]
 662:lvgl/src/draw/lv_draw_rect.c **** 
 1607              		.loc 1 662 11 view .LVU612
 1608 0334 0A9A     		ldr	r2, [sp, #40]
 1609 0336 9342     		cmp	r3, r2
 1610 0338 03DC     		bgt	.L80
 662:lvgl/src/draw/lv_draw_rect.c **** 
 1611              		.loc 1 662 29 is_stmt 1 discriminator 1 view .LVU613
 662:lvgl/src/draw/lv_draw_rect.c **** 
ARM GAS  /var/folders/k2/cd9bl_j17z77g23y6ffqb_400000gn/T//cc0jKSMI.s 			page 61


 1612              		.loc 1 662 44 is_stmt 0 discriminator 1 view .LVU614
 1613 033a 0D9B     		ldr	r3, [sp, #52]
 1614 033c 0133     		adds	r3, r3, #1
 662:lvgl/src/draw/lv_draw_rect.c **** 
 1615              		.loc 1 662 35 discriminator 1 view .LVU615
 1616 033e ADF84C30 		strh	r3, [sp, #76]	@ movhi
 1617              	.L80:
 664:lvgl/src/draw/lv_draw_rect.c ****         lv_coord_t w = lv_area_get_width(&ca);
 1618              		.loc 1 664 9 is_stmt 1 view .LVU616
 1619              	.LVL156:
 1620              	.LBB228:
 1621              	.LBI228:
 143:lvgl/src/draw/../misc/lv_area.h **** {
 1622              		.loc 2 143 26 view .LVU617
 1623              	.LBB229:
 1624              		.loc 2 145 5 view .LVU618
 1625              		.loc 2 145 31 is_stmt 0 view .LVU619
 1626 0342 BDF952E0 		ldrsh	lr, [sp, #82]
 1627 0346 1FFA8EF2 		uxth	r2, lr
 1628              		.loc 2 145 44 view .LVU620
 1629 034a BDF94E30 		ldrsh	r3, [sp, #78]
 1630 034e 98B2     		uxth	r0, r3
 1631              		.loc 2 145 36 view .LVU621
 1632 0350 121A     		subs	r2, r2, r0
 1633 0352 92B2     		uxth	r2, r2
 1634              		.loc 2 145 49 view .LVU622
 1635 0354 0132     		adds	r2, r2, #1
 1636              		.loc 2 145 12 view .LVU623
 1637 0356 12B2     		sxth	r2, r2
 1638 0358 0E92     		str	r2, [sp, #56]
 1639              	.LVL157:
 1640              		.loc 2 145 12 view .LVU624
 1641              	.LBE229:
 1642              	.LBE228:
 665:lvgl/src/draw/lv_draw_rect.c ****         if(w > 0) {
 1643              		.loc 1 665 9 is_stmt 1 view .LVU625
 1644              	.LBB230:
 1645              	.LBI230:
 133:lvgl/src/draw/../misc/lv_area.h **** {
 1646              		.loc 2 133 26 view .LVU626
 1647              	.LBB231:
 135:lvgl/src/draw/../misc/lv_area.h **** }
 1648              		.loc 2 135 5 view .LVU627
 135:lvgl/src/draw/../misc/lv_area.h **** }
 1649              		.loc 2 135 31 is_stmt 0 view .LVU628
 1650 035a BDF95000 		ldrsh	r0, [sp, #80]
 1651 035e 1FFA80FB 		uxth	fp, r0
 135:lvgl/src/draw/../misc/lv_area.h **** }
 1652              		.loc 2 135 44 view .LVU629
 1653 0362 BDF94C20 		ldrsh	r2, [sp, #76]
 1654 0366 1FFA82FC 		uxth	ip, r2
 135:lvgl/src/draw/../misc/lv_area.h **** }
 1655              		.loc 2 135 36 view .LVU630
 1656 036a ABEB0C0B 		sub	fp, fp, ip
 1657 036e 1FFA8BFB 		uxth	fp, fp
 135:lvgl/src/draw/../misc/lv_area.h **** }
 1658              		.loc 2 135 49 view .LVU631
ARM GAS  /var/folders/k2/cd9bl_j17z77g23y6ffqb_400000gn/T//cc0jKSMI.s 			page 62


 1659 0372 0BF1010B 		add	fp, fp, #1
 135:lvgl/src/draw/../misc/lv_area.h **** }
 1660              		.loc 2 135 12 view .LVU632
 1661 0376 0FFA8BFB 		sxth	fp, fp
 1662              	.LVL158:
 135:lvgl/src/draw/../misc/lv_area.h **** }
 1663              		.loc 2 135 12 view .LVU633
 1664              	.LBE231:
 1665              	.LBE230:
 666:lvgl/src/draw/lv_draw_rect.c ****             sh_buf_tmp = sh_buf + (ca.x1 - a.x1);
 1666              		.loc 1 666 9 is_stmt 1 view .LVU634
 666:lvgl/src/draw/lv_draw_rect.c ****             sh_buf_tmp = sh_buf + (ca.x1 - a.x1);
 1667              		.loc 1 666 11 is_stmt 0 view .LVU635
 1668 037a BBF1000F 		cmp	fp, #0
 1669 037e 88DD     		ble	.L78
 1670              	.LBB232:
 667:lvgl/src/draw/lv_draw_rect.c ****             sh_buf_tmp += corner_size * (ca.y1 - a.y1);
 1671              		.loc 1 667 13 is_stmt 1 view .LVU636
 667:lvgl/src/draw/lv_draw_rect.c ****             sh_buf_tmp += corner_size * (ca.y1 - a.y1);
 1672              		.loc 1 667 45 is_stmt 0 view .LVU637
 1673 0380 BDF95480 		ldrsh	r8, [sp, #84]
 667:lvgl/src/draw/lv_draw_rect.c ****             sh_buf_tmp += corner_size * (ca.y1 - a.y1);
 1674              		.loc 1 667 42 view .LVU638
 1675 0384 A2EB0808 		sub	r8, r2, r8
 1676              	.LVL159:
 668:lvgl/src/draw/lv_draw_rect.c **** 
 1677              		.loc 1 668 13 is_stmt 1 view .LVU639
 668:lvgl/src/draw/lv_draw_rect.c **** 
 1678              		.loc 1 668 51 is_stmt 0 view .LVU640
 1679 0388 BDF956C0 		ldrsh	ip, [sp, #86]
 668:lvgl/src/draw/lv_draw_rect.c **** 
 1680              		.loc 1 668 48 view .LVU641
 1681 038c A3EB0C0C 		sub	ip, r3, ip
 668:lvgl/src/draw/lv_draw_rect.c **** 
 1682              		.loc 1 668 24 view .LVU642
 1683 0390 04FB0C88 		mla	r8, r4, ip, r8
 1684              	.LVL160:
 668:lvgl/src/draw/lv_draw_rect.c **** 
 1685              		.loc 1 668 24 view .LVU643
 1686 0394 0799     		ldr	r1, [sp, #28]
 1687 0396 8844     		add	r8, r8, r1
 1688              	.LVL161:
 670:lvgl/src/draw/lv_draw_rect.c ****             lv_area_copy(&fa, &ca);
 1689              		.loc 1 670 13 is_stmt 1 view .LVU644
 671:lvgl/src/draw/lv_draw_rect.c ****             fa.y2 = fa.y1;
 1690              		.loc 1 671 13 view .LVU645
 1691              	.LBB233:
 1692              	.LBI233:
 120:lvgl/src/draw/../misc/lv_area.h **** {
 1693              		.loc 2 120 20 view .LVU646
 1694              	.LBB234:
 122:lvgl/src/draw/../misc/lv_area.h ****     dest->y1 = src->y1;
 1695              		.loc 2 122 5 view .LVU647
 122:lvgl/src/draw/../misc/lv_area.h ****     dest->y1 = src->y1;
 1696              		.loc 2 122 14 is_stmt 0 view .LVU648
 1697 0398 ADF84420 		strh	r2, [sp, #68]	@ movhi
 123:lvgl/src/draw/../misc/lv_area.h ****     dest->x2 = src->x2;
ARM GAS  /var/folders/k2/cd9bl_j17z77g23y6ffqb_400000gn/T//cc0jKSMI.s 			page 63


 1698              		.loc 2 123 5 is_stmt 1 view .LVU649
 123:lvgl/src/draw/../misc/lv_area.h ****     dest->x2 = src->x2;
 1699              		.loc 2 123 14 is_stmt 0 view .LVU650
 1700 039c ADF84630 		strh	r3, [sp, #70]	@ movhi
 124:lvgl/src/draw/../misc/lv_area.h ****     dest->y2 = src->y2;
 1701              		.loc 2 124 5 is_stmt 1 view .LVU651
 124:lvgl/src/draw/../misc/lv_area.h ****     dest->y2 = src->y2;
 1702              		.loc 2 124 14 is_stmt 0 view .LVU652
 1703 03a0 ADF84800 		strh	r0, [sp, #72]	@ movhi
 125:lvgl/src/draw/../misc/lv_area.h **** }
 1704              		.loc 2 125 5 is_stmt 1 view .LVU653
 125:lvgl/src/draw/../misc/lv_area.h **** }
 1705              		.loc 2 125 14 is_stmt 0 view .LVU654
 1706 03a4 ADF84AE0 		strh	lr, [sp, #74]	@ movhi
 1707              	.LVL162:
 125:lvgl/src/draw/../misc/lv_area.h **** }
 1708              		.loc 2 125 14 view .LVU655
 1709              	.LBE234:
 1710              	.LBE233:
 672:lvgl/src/draw/lv_draw_rect.c **** 
 1711              		.loc 1 672 13 is_stmt 1 view .LVU656
 672:lvgl/src/draw/lv_draw_rect.c **** 
 1712              		.loc 1 672 19 is_stmt 0 view .LVU657
 1713 03a8 ADF84A30 		strh	r3, [sp, #74]	@ movhi
 674:lvgl/src/draw/lv_draw_rect.c ****                 lv_memcpy(mask_buf, sh_buf_tmp, w);
 1714              		.loc 1 674 13 is_stmt 1 view .LVU658
 1715              	.LVL163:
 674:lvgl/src/draw/lv_draw_rect.c ****                 lv_memcpy(mask_buf, sh_buf_tmp, w);
 1716              		.loc 1 674 19 is_stmt 0 view .LVU659
 1717 03ac 4FF00009 		mov	r9, #0
 1718 03b0 0F97     		str	r7, [sp, #60]
 1719 03b2 0E9F     		ldr	r7, [sp, #56]
 674:lvgl/src/draw/lv_draw_rect.c ****                 lv_memcpy(mask_buf, sh_buf_tmp, w);
 1720              		.loc 1 674 13 view .LVU660
 1721 03b4 17E0     		b	.L81
 1722              	.LVL164:
 1723              	.L82:
 679:lvgl/src/draw/lv_draw_rect.c ****                                mask_res, opa, dsc->blend_mode);
 1724              		.loc 1 679 17 is_stmt 1 discriminator 2 view .LVU661
 1725 03b6 AB78     		ldrb	r3, [r5, #2]	@ zero_extendqisi2
 1726 03b8 0293     		str	r3, [sp, #8]
 1727 03ba 049B     		ldr	r3, [sp, #16]
 1728 03bc 0193     		str	r3, [sp, #4]
 1729 03be 0090     		str	r0, [sp]
 1730 03c0 3346     		mov	r3, r6
 1731 03c2 6A6B     		ldr	r2, [r5, #52]
 1732 03c4 11A9     		add	r1, sp, #68
 1733 03c6 5046     		mov	r0, r10
 1734              	.LVL165:
 679:lvgl/src/draw/lv_draw_rect.c ****                                mask_res, opa, dsc->blend_mode);
 1735              		.loc 1 679 17 is_stmt 0 discriminator 2 view .LVU662
 1736 03c8 FFF7FEFF 		bl	_lv_blend_fill
 1737              	.LVL166:
 681:lvgl/src/draw/lv_draw_rect.c ****                 fa.y2++;
 1738              		.loc 1 681 17 is_stmt 1 discriminator 2 view .LVU663
 681:lvgl/src/draw/lv_draw_rect.c ****                 fa.y2++;
 1739              		.loc 1 681 19 is_stmt 0 discriminator 2 view .LVU664
ARM GAS  /var/folders/k2/cd9bl_j17z77g23y6ffqb_400000gn/T//cc0jKSMI.s 			page 64


 1740 03cc BDF94630 		ldrsh	r3, [sp, #70]
 681:lvgl/src/draw/lv_draw_rect.c ****                 fa.y2++;
 1741              		.loc 1 681 22 discriminator 2 view .LVU665
 1742 03d0 0133     		adds	r3, r3, #1
 1743 03d2 ADF84630 		strh	r3, [sp, #70]	@ movhi
 682:lvgl/src/draw/lv_draw_rect.c ****                 sh_buf_tmp += corner_size;
 1744              		.loc 1 682 17 is_stmt 1 discriminator 2 view .LVU666
 682:lvgl/src/draw/lv_draw_rect.c ****                 sh_buf_tmp += corner_size;
 1745              		.loc 1 682 19 is_stmt 0 discriminator 2 view .LVU667
 1746 03d6 BDF94A30 		ldrsh	r3, [sp, #74]
 682:lvgl/src/draw/lv_draw_rect.c ****                 sh_buf_tmp += corner_size;
 1747              		.loc 1 682 22 discriminator 2 view .LVU668
 1748 03da 0133     		adds	r3, r3, #1
 1749 03dc ADF84A30 		strh	r3, [sp, #74]	@ movhi
 683:lvgl/src/draw/lv_draw_rect.c ****             }
 1750              		.loc 1 683 17 is_stmt 1 discriminator 2 view .LVU669
 683:lvgl/src/draw/lv_draw_rect.c ****             }
 1751              		.loc 1 683 28 is_stmt 0 discriminator 2 view .LVU670
 1752 03e0 A044     		add	r8, r8, r4
 1753              	.LVL167:
 674:lvgl/src/draw/lv_draw_rect.c ****                 lv_memcpy(mask_buf, sh_buf_tmp, w);
 1754              		.loc 1 674 31 is_stmt 1 discriminator 2 view .LVU671
 674:lvgl/src/draw/lv_draw_rect.c ****                 lv_memcpy(mask_buf, sh_buf_tmp, w);
 1755              		.loc 1 674 32 is_stmt 0 discriminator 2 view .LVU672
 1756 03e2 09F10109 		add	r9, r9, #1
 1757              	.LVL168:
 1758              	.L81:
 674:lvgl/src/draw/lv_draw_rect.c ****                 lv_memcpy(mask_buf, sh_buf_tmp, w);
 1759              		.loc 1 674 24 is_stmt 1 discriminator 1 view .LVU673
 674:lvgl/src/draw/lv_draw_rect.c ****                 lv_memcpy(mask_buf, sh_buf_tmp, w);
 1760              		.loc 1 674 13 is_stmt 0 discriminator 1 view .LVU674
 1761 03e6 4F45     		cmp	r7, r9
 1762 03e8 10DD     		ble	.L162
 675:lvgl/src/draw/lv_draw_rect.c ****                 mask_res = lv_draw_mask_apply(mask_buf, fa.x1, fa.y1, w);
 1763              		.loc 1 675 17 is_stmt 1 view .LVU675
 1764 03ea 5A46     		mov	r2, fp
 1765 03ec 4146     		mov	r1, r8
 1766 03ee 3046     		mov	r0, r6
 1767 03f0 FFF7FEFF 		bl	lv_memcpy
 1768              	.LVL169:
 676:lvgl/src/draw/lv_draw_rect.c ****                 if(mask_res == LV_DRAW_MASK_RES_FULL_COVER) mask_res = LV_DRAW_MASK_RES_CHANGED;
 1769              		.loc 1 676 17 view .LVU676
 676:lvgl/src/draw/lv_draw_rect.c ****                 if(mask_res == LV_DRAW_MASK_RES_FULL_COVER) mask_res = LV_DRAW_MASK_RES_CHANGED;
 1770              		.loc 1 676 28 is_stmt 0 view .LVU677
 1771 03f4 5B46     		mov	r3, fp
 1772 03f6 BDF94620 		ldrsh	r2, [sp, #70]
 1773 03fa BDF94410 		ldrsh	r1, [sp, #68]
 1774 03fe 3046     		mov	r0, r6
 1775 0400 FFF7FEFF 		bl	lv_draw_mask_apply
 1776              	.LVL170:
 677:lvgl/src/draw/lv_draw_rect.c **** 
 1777              		.loc 1 677 17 is_stmt 1 view .LVU678
 677:lvgl/src/draw/lv_draw_rect.c **** 
 1778              		.loc 1 677 19 is_stmt 0 view .LVU679
 1779 0404 0128     		cmp	r0, #1
 1780 0406 D6D1     		bne	.L82
 677:lvgl/src/draw/lv_draw_rect.c **** 
ARM GAS  /var/folders/k2/cd9bl_j17z77g23y6ffqb_400000gn/T//cc0jKSMI.s 			page 65


 1781              		.loc 1 677 70 view .LVU680
 1782 0408 0220     		movs	r0, #2
 1783              	.LVL171:
 677:lvgl/src/draw/lv_draw_rect.c **** 
 1784              		.loc 1 677 70 view .LVU681
 1785 040a D4E7     		b	.L82
 1786              	.L162:
 677:lvgl/src/draw/lv_draw_rect.c **** 
 1787              		.loc 1 677 70 view .LVU682
 1788 040c 0F9F     		ldr	r7, [sp, #60]
 1789 040e 40E7     		b	.L78
 1790              	.LVL172:
 1791              	.L160:
 677:lvgl/src/draw/lv_draw_rect.c **** 
 1792              		.loc 1 677 70 view .LVU683
 1793              	.LBE232:
 1794              	.LBE227:
 695:lvgl/src/draw/lv_draw_rect.c ****         /*Avoid overlap in the middle with large radius*/
 1795              		.loc 1 695 19 discriminator 1 view .LVU684
 1796 0410 089A     		ldr	r2, [sp, #32]
 1797 0412 1EA9     		add	r1, sp, #120
 1798 0414 15A8     		add	r0, sp, #84
 1799              	.LVL173:
 695:lvgl/src/draw/lv_draw_rect.c ****         /*Avoid overlap in the middle with large radius*/
 1800              		.loc 1 695 19 discriminator 1 view .LVU685
 1801 0416 FFF7FEFF 		bl	_lv_area_is_in
 1802              	.LVL174:
 695:lvgl/src/draw/lv_draw_rect.c ****         /*Avoid overlap in the middle with large radius*/
 1803              		.loc 1 695 16 discriminator 1 view .LVU686
 1804 041a 0028     		cmp	r0, #0
 1805 041c 7FF455AF 		bne	.L84
 1806              	.LBB235:
 697:lvgl/src/draw/lv_draw_rect.c ****         if(ca.x1 <= w_half) ca.x1 = w_half;
 1807              		.loc 1 697 9 is_stmt 1 view .LVU687
 697:lvgl/src/draw/lv_draw_rect.c ****         if(ca.x1 <= w_half) ca.x1 = w_half;
 1808              		.loc 1 697 14 is_stmt 0 view .LVU688
 1809 0420 BDF94E30 		ldrsh	r3, [sp, #78]
 697:lvgl/src/draw/lv_draw_rect.c ****         if(ca.x1 <= w_half) ca.x1 = w_half;
 1810              		.loc 1 697 11 view .LVU689
 1811 0424 0B9A     		ldr	r2, [sp, #44]
 1812 0426 9342     		cmp	r3, r2
 1813 0428 01DC     		bgt	.L85
 697:lvgl/src/draw/lv_draw_rect.c ****         if(ca.x1 <= w_half) ca.x1 = w_half;
 1814              		.loc 1 697 29 is_stmt 1 discriminator 1 view .LVU690
 697:lvgl/src/draw/lv_draw_rect.c ****         if(ca.x1 <= w_half) ca.x1 = w_half;
 1815              		.loc 1 697 35 is_stmt 0 discriminator 1 view .LVU691
 1816 042a ADF84E20 		strh	r2, [sp, #78]	@ movhi
 1817              	.L85:
 698:lvgl/src/draw/lv_draw_rect.c **** 
 1818              		.loc 1 698 9 is_stmt 1 view .LVU692
 698:lvgl/src/draw/lv_draw_rect.c **** 
 1819              		.loc 1 698 14 is_stmt 0 view .LVU693
 1820 042e BDF94C30 		ldrsh	r3, [sp, #76]
 698:lvgl/src/draw/lv_draw_rect.c **** 
 1821              		.loc 1 698 11 view .LVU694
 1822 0432 0A9A     		ldr	r2, [sp, #40]
 1823 0434 9342     		cmp	r3, r2
ARM GAS  /var/folders/k2/cd9bl_j17z77g23y6ffqb_400000gn/T//cc0jKSMI.s 			page 66


 1824 0436 01DC     		bgt	.L86
 698:lvgl/src/draw/lv_draw_rect.c **** 
 1825              		.loc 1 698 29 is_stmt 1 discriminator 1 view .LVU695
 698:lvgl/src/draw/lv_draw_rect.c **** 
 1826              		.loc 1 698 35 is_stmt 0 discriminator 1 view .LVU696
 1827 0438 ADF84C20 		strh	r2, [sp, #76]	@ movhi
 1828              	.L86:
 700:lvgl/src/draw/lv_draw_rect.c ****         lv_coord_t w = lv_area_get_width(&ca);
 1829              		.loc 1 700 9 is_stmt 1 view .LVU697
 1830              	.LVL175:
 1831              	.LBB236:
 1832              	.LBI236:
 143:lvgl/src/draw/../misc/lv_area.h **** {
 1833              		.loc 2 143 26 view .LVU698
 1834              	.LBB237:
 1835              		.loc 2 145 5 view .LVU699
 1836              		.loc 2 145 31 is_stmt 0 view .LVU700
 1837 043c BDF95230 		ldrsh	r3, [sp, #82]
 1838 0440 9AB2     		uxth	r2, r3
 1839              		.loc 2 145 44 view .LVU701
 1840 0442 BDF94E00 		ldrsh	r0, [sp, #78]
 1841 0446 81B2     		uxth	r1, r0
 1842              		.loc 2 145 36 view .LVU702
 1843 0448 521A     		subs	r2, r2, r1
 1844 044a 92B2     		uxth	r2, r2
 1845              		.loc 2 145 49 view .LVU703
 1846 044c 0132     		adds	r2, r2, #1
 1847              		.loc 2 145 12 view .LVU704
 1848 044e 12B2     		sxth	r2, r2
 1849 0450 0E92     		str	r2, [sp, #56]
 1850              	.LVL176:
 1851              		.loc 2 145 12 view .LVU705
 1852              	.LBE237:
 1853              	.LBE236:
 701:lvgl/src/draw/lv_draw_rect.c **** 
 1854              		.loc 1 701 9 is_stmt 1 view .LVU706
 1855              	.LBB238:
 1856              	.LBI238:
 133:lvgl/src/draw/../misc/lv_area.h **** {
 1857              		.loc 2 133 26 view .LVU707
 1858              	.LBB239:
 135:lvgl/src/draw/../misc/lv_area.h **** }
 1859              		.loc 2 135 5 view .LVU708
 135:lvgl/src/draw/../misc/lv_area.h **** }
 1860              		.loc 2 135 31 is_stmt 0 view .LVU709
 1861 0452 BDF950E0 		ldrsh	lr, [sp, #80]
 1862 0456 1FFA8EFB 		uxth	fp, lr
 135:lvgl/src/draw/../misc/lv_area.h **** }
 1863              		.loc 2 135 44 view .LVU710
 1864 045a BDF94C20 		ldrsh	r2, [sp, #76]
 1865 045e 1FFA82FC 		uxth	ip, r2
 135:lvgl/src/draw/../misc/lv_area.h **** }
 1866              		.loc 2 135 36 view .LVU711
 1867 0462 ABEB0C0B 		sub	fp, fp, ip
 1868 0466 1FFA8BFB 		uxth	fp, fp
 135:lvgl/src/draw/../misc/lv_area.h **** }
 1869              		.loc 2 135 49 view .LVU712
ARM GAS  /var/folders/k2/cd9bl_j17z77g23y6ffqb_400000gn/T//cc0jKSMI.s 			page 67


 1870 046a 0BF1010B 		add	fp, fp, #1
 135:lvgl/src/draw/../misc/lv_area.h **** }
 1871              		.loc 2 135 12 view .LVU713
 1872 046e 0FFA8BFB 		sxth	fp, fp
 1873              	.LVL177:
 135:lvgl/src/draw/../misc/lv_area.h **** }
 1874              		.loc 2 135 12 view .LVU714
 1875              	.LBE239:
 1876              	.LBE238:
 703:lvgl/src/draw/lv_draw_rect.c ****             sh_buf_tmp = sh_buf + (ca.x1 - a.x1);
 1877              		.loc 1 703 9 is_stmt 1 view .LVU715
 703:lvgl/src/draw/lv_draw_rect.c ****             sh_buf_tmp = sh_buf + (ca.x1 - a.x1);
 1878              		.loc 1 703 11 is_stmt 0 view .LVU716
 1879 0472 BBF1000F 		cmp	fp, #0
 1880 0476 7FF728AF 		ble	.L84
 1881              	.LBB240:
 704:lvgl/src/draw/lv_draw_rect.c ****             sh_buf_tmp += corner_size * (a.y2 - ca.y2);
 1882              		.loc 1 704 13 is_stmt 1 view .LVU717
 704:lvgl/src/draw/lv_draw_rect.c ****             sh_buf_tmp += corner_size * (a.y2 - ca.y2);
 1883              		.loc 1 704 45 is_stmt 0 view .LVU718
 1884 047a BDF95480 		ldrsh	r8, [sp, #84]
 704:lvgl/src/draw/lv_draw_rect.c ****             sh_buf_tmp += corner_size * (a.y2 - ca.y2);
 1885              		.loc 1 704 42 view .LVU719
 1886 047e A2EB0808 		sub	r8, r2, r8
 1887              	.LVL178:
 705:lvgl/src/draw/lv_draw_rect.c **** 
 1888              		.loc 1 705 13 is_stmt 1 view .LVU720
 705:lvgl/src/draw/lv_draw_rect.c **** 
 1889              		.loc 1 705 43 is_stmt 0 view .LVU721
 1890 0482 BDF95AC0 		ldrsh	ip, [sp, #90]
 705:lvgl/src/draw/lv_draw_rect.c **** 
 1891              		.loc 1 705 47 view .LVU722
 1892 0486 ACEB030C 		sub	ip, ip, r3
 705:lvgl/src/draw/lv_draw_rect.c **** 
 1893              		.loc 1 705 24 view .LVU723
 1894 048a 04FB0C88 		mla	r8, r4, ip, r8
 1895              	.LVL179:
 705:lvgl/src/draw/lv_draw_rect.c **** 
 1896              		.loc 1 705 24 view .LVU724
 1897 048e 0799     		ldr	r1, [sp, #28]
 1898 0490 8844     		add	r8, r8, r1
 1899              	.LVL180:
 707:lvgl/src/draw/lv_draw_rect.c ****             lv_area_copy(&fa, &ca);
 1900              		.loc 1 707 13 is_stmt 1 view .LVU725
 708:lvgl/src/draw/lv_draw_rect.c ****             fa.y1 = fa.y2;    /*Fill from bottom to top*/
 1901              		.loc 1 708 13 view .LVU726
 1902              	.LBB241:
 1903              	.LBI241:
 120:lvgl/src/draw/../misc/lv_area.h **** {
 1904              		.loc 2 120 20 view .LVU727
 1905              	.LBB242:
 122:lvgl/src/draw/../misc/lv_area.h ****     dest->y1 = src->y1;
 1906              		.loc 2 122 5 view .LVU728
 122:lvgl/src/draw/../misc/lv_area.h ****     dest->y1 = src->y1;
 1907              		.loc 2 122 14 is_stmt 0 view .LVU729
 1908 0492 ADF84420 		strh	r2, [sp, #68]	@ movhi
 123:lvgl/src/draw/../misc/lv_area.h ****     dest->x2 = src->x2;
ARM GAS  /var/folders/k2/cd9bl_j17z77g23y6ffqb_400000gn/T//cc0jKSMI.s 			page 68


 1909              		.loc 2 123 5 is_stmt 1 view .LVU730
 123:lvgl/src/draw/../misc/lv_area.h ****     dest->x2 = src->x2;
 1910              		.loc 2 123 14 is_stmt 0 view .LVU731
 1911 0496 ADF84600 		strh	r0, [sp, #70]	@ movhi
 124:lvgl/src/draw/../misc/lv_area.h ****     dest->y2 = src->y2;
 1912              		.loc 2 124 5 is_stmt 1 view .LVU732
 124:lvgl/src/draw/../misc/lv_area.h ****     dest->y2 = src->y2;
 1913              		.loc 2 124 14 is_stmt 0 view .LVU733
 1914 049a ADF848E0 		strh	lr, [sp, #72]	@ movhi
 125:lvgl/src/draw/../misc/lv_area.h **** }
 1915              		.loc 2 125 5 is_stmt 1 view .LVU734
 125:lvgl/src/draw/../misc/lv_area.h **** }
 1916              		.loc 2 125 14 is_stmt 0 view .LVU735
 1917 049e ADF84A30 		strh	r3, [sp, #74]	@ movhi
 1918              	.LVL181:
 125:lvgl/src/draw/../misc/lv_area.h **** }
 1919              		.loc 2 125 14 view .LVU736
 1920              	.LBE242:
 1921              	.LBE241:
 709:lvgl/src/draw/lv_draw_rect.c **** 
 1922              		.loc 1 709 13 is_stmt 1 view .LVU737
 709:lvgl/src/draw/lv_draw_rect.c **** 
 1923              		.loc 1 709 19 is_stmt 0 view .LVU738
 1924 04a2 ADF84630 		strh	r3, [sp, #70]	@ movhi
 711:lvgl/src/draw/lv_draw_rect.c ****                 lv_memcpy(mask_buf, sh_buf_tmp, w);
 1925              		.loc 1 711 13 is_stmt 1 view .LVU739
 1926              	.LVL182:
 711:lvgl/src/draw/lv_draw_rect.c ****                 lv_memcpy(mask_buf, sh_buf_tmp, w);
 1927              		.loc 1 711 19 is_stmt 0 view .LVU740
 1928 04a6 4FF00009 		mov	r9, #0
 1929 04aa 0F97     		str	r7, [sp, #60]
 1930 04ac 0E9F     		ldr	r7, [sp, #56]
 711:lvgl/src/draw/lv_draw_rect.c ****                 lv_memcpy(mask_buf, sh_buf_tmp, w);
 1931              		.loc 1 711 13 view .LVU741
 1932 04ae 17E0     		b	.L87
 1933              	.LVL183:
 1934              	.L88:
 716:lvgl/src/draw/lv_draw_rect.c ****                                mask_res, opa, dsc->blend_mode);
 1935              		.loc 1 716 17 is_stmt 1 discriminator 2 view .LVU742
 1936 04b0 AB78     		ldrb	r3, [r5, #2]	@ zero_extendqisi2
 1937 04b2 0293     		str	r3, [sp, #8]
 1938 04b4 049B     		ldr	r3, [sp, #16]
 1939 04b6 0193     		str	r3, [sp, #4]
 1940 04b8 0090     		str	r0, [sp]
 1941 04ba 3346     		mov	r3, r6
 1942 04bc 6A6B     		ldr	r2, [r5, #52]
 1943 04be 11A9     		add	r1, sp, #68
 1944 04c0 5046     		mov	r0, r10
 1945              	.LVL184:
 716:lvgl/src/draw/lv_draw_rect.c ****                                mask_res, opa, dsc->blend_mode);
 1946              		.loc 1 716 17 is_stmt 0 discriminator 2 view .LVU743
 1947 04c2 FFF7FEFF 		bl	_lv_blend_fill
 1948              	.LVL185:
 718:lvgl/src/draw/lv_draw_rect.c ****                 fa.y2--;
 1949              		.loc 1 718 17 is_stmt 1 discriminator 2 view .LVU744
 718:lvgl/src/draw/lv_draw_rect.c ****                 fa.y2--;
 1950              		.loc 1 718 19 is_stmt 0 discriminator 2 view .LVU745
ARM GAS  /var/folders/k2/cd9bl_j17z77g23y6ffqb_400000gn/T//cc0jKSMI.s 			page 69


 1951 04c6 BDF94630 		ldrsh	r3, [sp, #70]
 718:lvgl/src/draw/lv_draw_rect.c ****                 fa.y2--;
 1952              		.loc 1 718 22 discriminator 2 view .LVU746
 1953 04ca 013B     		subs	r3, r3, #1
 1954 04cc ADF84630 		strh	r3, [sp, #70]	@ movhi
 719:lvgl/src/draw/lv_draw_rect.c ****                 sh_buf_tmp += corner_size;
 1955              		.loc 1 719 17 is_stmt 1 discriminator 2 view .LVU747
 719:lvgl/src/draw/lv_draw_rect.c ****                 sh_buf_tmp += corner_size;
 1956              		.loc 1 719 19 is_stmt 0 discriminator 2 view .LVU748
 1957 04d0 BDF94A30 		ldrsh	r3, [sp, #74]
 719:lvgl/src/draw/lv_draw_rect.c ****                 sh_buf_tmp += corner_size;
 1958              		.loc 1 719 22 discriminator 2 view .LVU749
 1959 04d4 013B     		subs	r3, r3, #1
 1960 04d6 ADF84A30 		strh	r3, [sp, #74]	@ movhi
 720:lvgl/src/draw/lv_draw_rect.c ****             }
 1961              		.loc 1 720 17 is_stmt 1 discriminator 2 view .LVU750
 720:lvgl/src/draw/lv_draw_rect.c ****             }
 1962              		.loc 1 720 28 is_stmt 0 discriminator 2 view .LVU751
 1963 04da A044     		add	r8, r8, r4
 1964              	.LVL186:
 711:lvgl/src/draw/lv_draw_rect.c ****                 lv_memcpy(mask_buf, sh_buf_tmp, w);
 1965              		.loc 1 711 31 is_stmt 1 discriminator 2 view .LVU752
 711:lvgl/src/draw/lv_draw_rect.c ****                 lv_memcpy(mask_buf, sh_buf_tmp, w);
 1966              		.loc 1 711 32 is_stmt 0 discriminator 2 view .LVU753
 1967 04dc 09F10109 		add	r9, r9, #1
 1968              	.LVL187:
 1969              	.L87:
 711:lvgl/src/draw/lv_draw_rect.c ****                 lv_memcpy(mask_buf, sh_buf_tmp, w);
 1970              		.loc 1 711 24 is_stmt 1 discriminator 1 view .LVU754
 711:lvgl/src/draw/lv_draw_rect.c ****                 lv_memcpy(mask_buf, sh_buf_tmp, w);
 1971              		.loc 1 711 13 is_stmt 0 discriminator 1 view .LVU755
 1972 04e0 4F45     		cmp	r7, r9
 1973 04e2 10DD     		ble	.L163
 712:lvgl/src/draw/lv_draw_rect.c ****                 mask_res = lv_draw_mask_apply(mask_buf, fa.x1, fa.y1, w);
 1974              		.loc 1 712 17 is_stmt 1 view .LVU756
 1975 04e4 5A46     		mov	r2, fp
 1976 04e6 4146     		mov	r1, r8
 1977 04e8 3046     		mov	r0, r6
 1978 04ea FFF7FEFF 		bl	lv_memcpy
 1979              	.LVL188:
 713:lvgl/src/draw/lv_draw_rect.c ****                 if(mask_res == LV_DRAW_MASK_RES_FULL_COVER) mask_res = LV_DRAW_MASK_RES_CHANGED;
 1980              		.loc 1 713 17 view .LVU757
 713:lvgl/src/draw/lv_draw_rect.c ****                 if(mask_res == LV_DRAW_MASK_RES_FULL_COVER) mask_res = LV_DRAW_MASK_RES_CHANGED;
 1981              		.loc 1 713 28 is_stmt 0 view .LVU758
 1982 04ee 5B46     		mov	r3, fp
 1983 04f0 BDF94620 		ldrsh	r2, [sp, #70]
 1984 04f4 BDF94410 		ldrsh	r1, [sp, #68]
 1985 04f8 3046     		mov	r0, r6
 1986 04fa FFF7FEFF 		bl	lv_draw_mask_apply
 1987              	.LVL189:
 714:lvgl/src/draw/lv_draw_rect.c **** 
 1988              		.loc 1 714 17 is_stmt 1 view .LVU759
 714:lvgl/src/draw/lv_draw_rect.c **** 
 1989              		.loc 1 714 19 is_stmt 0 view .LVU760
 1990 04fe 0128     		cmp	r0, #1
 1991 0500 D6D1     		bne	.L88
 714:lvgl/src/draw/lv_draw_rect.c **** 
ARM GAS  /var/folders/k2/cd9bl_j17z77g23y6ffqb_400000gn/T//cc0jKSMI.s 			page 70


 1992              		.loc 1 714 70 view .LVU761
 1993 0502 0220     		movs	r0, #2
 1994              	.LVL190:
 714:lvgl/src/draw/lv_draw_rect.c **** 
 1995              		.loc 1 714 70 view .LVU762
 1996 0504 D4E7     		b	.L88
 1997              	.L163:
 714:lvgl/src/draw/lv_draw_rect.c **** 
 1998              		.loc 1 714 70 view .LVU763
 1999 0506 0F9F     		ldr	r7, [sp, #60]
 2000 0508 DFE6     		b	.L84
 2001              	.LVL191:
 2002              	.L161:
 714:lvgl/src/draw/lv_draw_rect.c **** 
 2003              		.loc 1 714 70 view .LVU764
 2004              	.LBE240:
 2005              	.LBE235:
 732:lvgl/src/draw/lv_draw_rect.c ****         /*Avoid overlap in the middle with large radius*/
 2006              		.loc 1 732 19 discriminator 1 view .LVU765
 2007 050a 089A     		ldr	r2, [sp, #32]
 2008 050c 1EA9     		add	r1, sp, #120
 2009 050e 15A8     		add	r0, sp, #84
 2010              	.LVL192:
 732:lvgl/src/draw/lv_draw_rect.c ****         /*Avoid overlap in the middle with large radius*/
 2011              		.loc 1 732 19 discriminator 1 view .LVU766
 2012 0510 FFF7FEFF 		bl	_lv_area_is_in
 2013              	.LVL193:
 732:lvgl/src/draw/lv_draw_rect.c ****         /*Avoid overlap in the middle with large radius*/
 2014              		.loc 1 732 16 discriminator 1 view .LVU767
 2015 0514 0028     		cmp	r0, #0
 2016 0516 7FF4F4AE 		bne	.L90
 2017              	.LBB243:
 734:lvgl/src/draw/lv_draw_rect.c **** 
 2018              		.loc 1 734 9 is_stmt 1 view .LVU768
 734:lvgl/src/draw/lv_draw_rect.c **** 
 2019              		.loc 1 734 14 is_stmt 0 view .LVU769
 2020 051a BDF94C30 		ldrsh	r3, [sp, #76]
 734:lvgl/src/draw/lv_draw_rect.c **** 
 2021              		.loc 1 734 11 view .LVU770
 2022 051e 0A9A     		ldr	r2, [sp, #40]
 2023 0520 9342     		cmp	r3, r2
 2024 0522 03DC     		bgt	.L91
 734:lvgl/src/draw/lv_draw_rect.c **** 
 2025              		.loc 1 734 29 is_stmt 1 discriminator 1 view .LVU771
 734:lvgl/src/draw/lv_draw_rect.c **** 
 2026              		.loc 1 734 44 is_stmt 0 discriminator 1 view .LVU772
 2027 0524 0D9B     		ldr	r3, [sp, #52]
 2028 0526 0133     		adds	r3, r3, #1
 734:lvgl/src/draw/lv_draw_rect.c **** 
 2029              		.loc 1 734 35 discriminator 1 view .LVU773
 2030 0528 ADF84C30 		strh	r3, [sp, #76]	@ movhi
 2031              	.L91:
 736:lvgl/src/draw/lv_draw_rect.c **** 
 2032              		.loc 1 736 9 is_stmt 1 view .LVU774
 736:lvgl/src/draw/lv_draw_rect.c **** 
 2033              		.loc 1 736 11 is_stmt 0 view .LVU775
 2034 052c 069B     		ldr	r3, [sp, #24]
ARM GAS  /var/folders/k2/cd9bl_j17z77g23y6ffqb_400000gn/T//cc0jKSMI.s 			page 71


 2035 052e 4BB1     		cbz	r3, .L92
 736:lvgl/src/draw/lv_draw_rect.c **** 
 2036              		.loc 1 736 25 is_stmt 1 discriminator 1 view .LVU776
 736:lvgl/src/draw/lv_draw_rect.c **** 
 2037              		.loc 1 736 33 is_stmt 0 discriminator 1 view .LVU777
 2038 0530 059B     		ldr	r3, [sp, #20]
 2039 0532 B3F90430 		ldrsh	r3, [r3, #4]
 2040 0536 BDF94C20 		ldrsh	r2, [sp, #76]
 2041 053a 9342     		cmp	r3, r2
 2042 053c B8BF     		it	lt
 2043 053e 1346     		movlt	r3, r2
 736:lvgl/src/draw/lv_draw_rect.c **** 
 2044              		.loc 1 736 31 discriminator 1 view .LVU778
 2045 0540 ADF84C30 		strh	r3, [sp, #76]	@ movhi
 2046              	.L92:
 739:lvgl/src/draw/lv_draw_rect.c ****         if(w > 0) {
 2047              		.loc 1 739 9 is_stmt 1 view .LVU779
 2048              	.LVL194:
 2049              	.LBB244:
 2050              	.LBI244:
 133:lvgl/src/draw/../misc/lv_area.h **** {
 2051              		.loc 2 133 26 view .LVU780
 2052              	.LBB245:
 135:lvgl/src/draw/../misc/lv_area.h **** }
 2053              		.loc 2 135 5 view .LVU781
 135:lvgl/src/draw/../misc/lv_area.h **** }
 2054              		.loc 2 135 31 is_stmt 0 view .LVU782
 2055 0544 BDF95020 		ldrsh	r2, [sp, #80]
 2056 0548 1FFA82F9 		uxth	r9, r2
 135:lvgl/src/draw/../misc/lv_area.h **** }
 2057              		.loc 2 135 44 view .LVU783
 2058 054c BDF94C30 		ldrsh	r3, [sp, #76]
 2059 0550 99B2     		uxth	r1, r3
 135:lvgl/src/draw/../misc/lv_area.h **** }
 2060              		.loc 2 135 36 view .LVU784
 2061 0552 A9EB0109 		sub	r9, r9, r1
 2062 0556 1FFA89F9 		uxth	r9, r9
 135:lvgl/src/draw/../misc/lv_area.h **** }
 2063              		.loc 2 135 49 view .LVU785
 2064 055a 09F10109 		add	r9, r9, #1
 135:lvgl/src/draw/../misc/lv_area.h **** }
 2065              		.loc 2 135 12 view .LVU786
 2066 055e 0FFA89F9 		sxth	r9, r9
 2067              	.LVL195:
 135:lvgl/src/draw/../misc/lv_area.h **** }
 2068              		.loc 2 135 12 view .LVU787
 2069              	.LBE245:
 2070              	.LBE244:
 740:lvgl/src/draw/lv_draw_rect.c ****             lv_coord_t h = lv_area_get_height(&ca);
 2071              		.loc 1 740 9 is_stmt 1 view .LVU788
 740:lvgl/src/draw/lv_draw_rect.c ****             lv_coord_t h = lv_area_get_height(&ca);
 2072              		.loc 1 740 11 is_stmt 0 view .LVU789
 2073 0562 B9F1000F 		cmp	r9, #0
 2074 0566 7FF7CCAE 		ble	.L90
 2075              	.LBB246:
 741:lvgl/src/draw/lv_draw_rect.c **** 
 2076              		.loc 1 741 13 is_stmt 1 view .LVU790
ARM GAS  /var/folders/k2/cd9bl_j17z77g23y6ffqb_400000gn/T//cc0jKSMI.s 			page 72


 2077              	.LVL196:
 2078              	.LBB247:
 2079              	.LBI247:
 143:lvgl/src/draw/../misc/lv_area.h **** {
 2080              		.loc 2 143 26 view .LVU791
 2081              	.LBB248:
 2082              		.loc 2 145 5 view .LVU792
 2083              		.loc 2 145 31 is_stmt 0 view .LVU793
 2084 056a BDF95280 		ldrsh	r8, [sp, #82]
 2085 056e 1FFA88FB 		uxth	fp, r8
 2086              		.loc 2 145 44 view .LVU794
 2087 0572 BDF94E10 		ldrsh	r1, [sp, #78]
 2088 0576 1FFA81FC 		uxth	ip, r1
 2089              		.loc 2 145 36 view .LVU795
 2090 057a ABEB0C0B 		sub	fp, fp, ip
 2091 057e 1FFA8BFB 		uxth	fp, fp
 2092              		.loc 2 145 49 view .LVU796
 2093 0582 0BF1010B 		add	fp, fp, #1
 2094              		.loc 2 145 12 view .LVU797
 2095 0586 0FFA8BFB 		sxth	fp, fp
 2096              	.LVL197:
 2097              		.loc 2 145 12 view .LVU798
 2098              	.LBE248:
 2099              	.LBE247:
 744:lvgl/src/draw/lv_draw_rect.c ****             sh_buf_tmp += ca.x1 - a.x1;
 2100              		.loc 1 744 13 is_stmt 1 view .LVU799
 744:lvgl/src/draw/lv_draw_rect.c ****             sh_buf_tmp += ca.x1 - a.x1;
 2101              		.loc 1 744 62 is_stmt 0 view .LVU800
 2102 058a 04F1FF3E 		add	lr, r4, #-1
 745:lvgl/src/draw/lv_draw_rect.c **** 
 2103              		.loc 1 745 13 is_stmt 1 view .LVU801
 745:lvgl/src/draw/lv_draw_rect.c **** 
 2104              		.loc 1 745 36 is_stmt 0 view .LVU802
 2105 058e BDF954C0 		ldrsh	ip, [sp, #84]
 745:lvgl/src/draw/lv_draw_rect.c **** 
 2106              		.loc 1 745 33 view .LVU803
 2107 0592 A3EB0C0C 		sub	ip, r3, ip
 745:lvgl/src/draw/lv_draw_rect.c **** 
 2108              		.loc 1 745 24 view .LVU804
 2109 0596 04FB0ECC 		mla	ip, r4, lr, ip
 2110 059a 0798     		ldr	r0, [sp, #28]
 2111 059c 6044     		add	r0, r0, ip
 2112              	.LVL198:
 747:lvgl/src/draw/lv_draw_rect.c ****             lv_area_copy(&fa, &ca);
 2113              		.loc 1 747 13 is_stmt 1 view .LVU805
 748:lvgl/src/draw/lv_draw_rect.c ****             fa.y2 = fa.y1;
 2114              		.loc 1 748 13 view .LVU806
 2115              	.LBB249:
 2116              	.LBI249:
 120:lvgl/src/draw/../misc/lv_area.h **** {
 2117              		.loc 2 120 20 view .LVU807
 2118              	.LBB250:
 122:lvgl/src/draw/../misc/lv_area.h ****     dest->y1 = src->y1;
 2119              		.loc 2 122 5 view .LVU808
 122:lvgl/src/draw/../misc/lv_area.h ****     dest->y1 = src->y1;
 2120              		.loc 2 122 14 is_stmt 0 view .LVU809
 2121 059e ADF84430 		strh	r3, [sp, #68]	@ movhi
ARM GAS  /var/folders/k2/cd9bl_j17z77g23y6ffqb_400000gn/T//cc0jKSMI.s 			page 73


 123:lvgl/src/draw/../misc/lv_area.h ****     dest->x2 = src->x2;
 2122              		.loc 2 123 5 is_stmt 1 view .LVU810
 123:lvgl/src/draw/../misc/lv_area.h ****     dest->x2 = src->x2;
 2123              		.loc 2 123 14 is_stmt 0 view .LVU811
 2124 05a2 ADF84610 		strh	r1, [sp, #70]	@ movhi
 124:lvgl/src/draw/../misc/lv_area.h ****     dest->y2 = src->y2;
 2125              		.loc 2 124 5 is_stmt 1 view .LVU812
 124:lvgl/src/draw/../misc/lv_area.h ****     dest->y2 = src->y2;
 2126              		.loc 2 124 14 is_stmt 0 view .LVU813
 2127 05a6 ADF84820 		strh	r2, [sp, #72]	@ movhi
 125:lvgl/src/draw/../misc/lv_area.h **** }
 2128              		.loc 2 125 5 is_stmt 1 view .LVU814
 125:lvgl/src/draw/../misc/lv_area.h **** }
 2129              		.loc 2 125 14 is_stmt 0 view .LVU815
 2130 05aa ADF84A80 		strh	r8, [sp, #74]	@ movhi
 2131              	.LVL199:
 125:lvgl/src/draw/../misc/lv_area.h **** }
 2132              		.loc 2 125 14 view .LVU816
 2133              	.LBE250:
 2134              	.LBE249:
 749:lvgl/src/draw/lv_draw_rect.c ****             mask_res = LV_DRAW_MASK_RES_FULL_COVER;
 2135              		.loc 1 749 13 is_stmt 1 view .LVU817
 749:lvgl/src/draw/lv_draw_rect.c ****             mask_res = LV_DRAW_MASK_RES_FULL_COVER;
 2136              		.loc 1 749 19 is_stmt 0 view .LVU818
 2137 05ae ADF84A10 		strh	r1, [sp, #74]	@ movhi
 750:lvgl/src/draw/lv_draw_rect.c ****             for(y = 0; y < h; y++) {
 2138              		.loc 1 750 13 is_stmt 1 view .LVU819
 2139              	.LVL200:
 751:lvgl/src/draw/lv_draw_rect.c ****                 lv_memcpy(mask_buf, sh_buf_tmp, w);
 2140              		.loc 1 751 13 view .LVU820
 751:lvgl/src/draw/lv_draw_rect.c ****                 lv_memcpy(mask_buf, sh_buf_tmp, w);
 2141              		.loc 1 751 19 is_stmt 0 view .LVU821
 2142 05b2 4FF00008 		mov	r8, #0
 2143 05b6 0D97     		str	r7, [sp, #52]
 2144 05b8 0E94     		str	r4, [sp, #56]
 2145 05ba 069C     		ldr	r4, [sp, #24]
 2146              	.LVL201:
 751:lvgl/src/draw/lv_draw_rect.c ****                 lv_memcpy(mask_buf, sh_buf_tmp, w);
 2147              		.loc 1 751 19 view .LVU822
 2148 05bc 0746     		mov	r7, r0
 751:lvgl/src/draw/lv_draw_rect.c ****                 lv_memcpy(mask_buf, sh_buf_tmp, w);
 2149              		.loc 1 751 13 view .LVU823
 2150 05be 21E0     		b	.L93
 2151              	.LVL202:
 2152              	.L166:
 758:lvgl/src/draw/lv_draw_rect.c ****                     if(mask_res == LV_DRAW_MASK_RES_FULL_COVER) mask_res = LV_DRAW_MASK_RES_CHANGED
 2153              		.loc 1 758 21 is_stmt 1 view .LVU824
 758:lvgl/src/draw/lv_draw_rect.c ****                     if(mask_res == LV_DRAW_MASK_RES_FULL_COVER) mask_res = LV_DRAW_MASK_RES_CHANGED
 2154              		.loc 1 758 32 is_stmt 0 view .LVU825
 2155 05c0 4B46     		mov	r3, r9
 2156 05c2 BDF94620 		ldrsh	r2, [sp, #70]
 2157 05c6 BDF94410 		ldrsh	r1, [sp, #68]
 2158 05ca 3046     		mov	r0, r6
 2159 05cc FFF7FEFF 		bl	lv_draw_mask_apply
 2160              	.LVL203:
 759:lvgl/src/draw/lv_draw_rect.c ****                 }
 2161              		.loc 1 759 21 is_stmt 1 view .LVU826
ARM GAS  /var/folders/k2/cd9bl_j17z77g23y6ffqb_400000gn/T//cc0jKSMI.s 			page 74


 759:lvgl/src/draw/lv_draw_rect.c ****                 }
 2162              		.loc 1 759 23 is_stmt 0 view .LVU827
 2163 05d0 0128     		cmp	r0, #1
 2164 05d2 22D0     		beq	.L164
 2165              	.LVL204:
 2166              	.L94:
 762:lvgl/src/draw/lv_draw_rect.c ****                                dsc->shadow_color, mask_buf, mask_res, dsc->shadow_opa, dsc->blend_m
 2167              		.loc 1 762 17 is_stmt 1 discriminator 2 view .LVU828
 2168 05d4 AB78     		ldrb	r3, [r5, #2]	@ zero_extendqisi2
 2169 05d6 0293     		str	r3, [sp, #8]
 2170 05d8 95F84030 		ldrb	r3, [r5, #64]	@ zero_extendqisi2
 2171 05dc 0193     		str	r3, [sp, #4]
 2172 05de 0090     		str	r0, [sp]
 2173 05e0 3346     		mov	r3, r6
 2174 05e2 6A6B     		ldr	r2, [r5, #52]
 2175 05e4 11A9     		add	r1, sp, #68
 2176 05e6 5046     		mov	r0, r10
 2177              	.LVL205:
 762:lvgl/src/draw/lv_draw_rect.c ****                                dsc->shadow_color, mask_buf, mask_res, dsc->shadow_opa, dsc->blend_m
 2178              		.loc 1 762 17 is_stmt 0 discriminator 2 view .LVU829
 2179 05e8 FFF7FEFF 		bl	_lv_blend_fill
 2180              	.LVL206:
 764:lvgl/src/draw/lv_draw_rect.c ****                 fa.y2++;
 2181              		.loc 1 764 17 is_stmt 1 discriminator 2 view .LVU830
 764:lvgl/src/draw/lv_draw_rect.c ****                 fa.y2++;
 2182              		.loc 1 764 19 is_stmt 0 discriminator 2 view .LVU831
 2183 05ec BDF94630 		ldrsh	r3, [sp, #70]
 764:lvgl/src/draw/lv_draw_rect.c ****                 fa.y2++;
 2184              		.loc 1 764 22 discriminator 2 view .LVU832
 2185 05f0 0133     		adds	r3, r3, #1
 2186 05f2 ADF84630 		strh	r3, [sp, #70]	@ movhi
 765:lvgl/src/draw/lv_draw_rect.c ****             }
 2187              		.loc 1 765 17 is_stmt 1 discriminator 2 view .LVU833
 765:lvgl/src/draw/lv_draw_rect.c ****             }
 2188              		.loc 1 765 19 is_stmt 0 discriminator 2 view .LVU834
 2189 05f6 BDF94A30 		ldrsh	r3, [sp, #74]
 765:lvgl/src/draw/lv_draw_rect.c ****             }
 2190              		.loc 1 765 22 discriminator 2 view .LVU835
 2191 05fa 0133     		adds	r3, r3, #1
 2192 05fc ADF84A30 		strh	r3, [sp, #74]	@ movhi
 751:lvgl/src/draw/lv_draw_rect.c ****                 lv_memcpy(mask_buf, sh_buf_tmp, w);
 2193              		.loc 1 751 31 is_stmt 1 discriminator 2 view .LVU836
 751:lvgl/src/draw/lv_draw_rect.c ****                 lv_memcpy(mask_buf, sh_buf_tmp, w);
 2194              		.loc 1 751 32 is_stmt 0 discriminator 2 view .LVU837
 2195 0600 08F10108 		add	r8, r8, #1
 2196              	.LVL207:
 2197              	.L93:
 751:lvgl/src/draw/lv_draw_rect.c ****                 lv_memcpy(mask_buf, sh_buf_tmp, w);
 2198              		.loc 1 751 24 is_stmt 1 discriminator 1 view .LVU838
 751:lvgl/src/draw/lv_draw_rect.c ****                 lv_memcpy(mask_buf, sh_buf_tmp, w);
 2199              		.loc 1 751 13 is_stmt 0 discriminator 1 view .LVU839
 2200 0604 C345     		cmp	fp, r8
 2201 0606 0ADD     		ble	.L165
 752:lvgl/src/draw/lv_draw_rect.c **** 
 2202              		.loc 1 752 17 is_stmt 1 view .LVU840
 2203 0608 4A46     		mov	r2, r9
 2204 060a 3946     		mov	r1, r7
ARM GAS  /var/folders/k2/cd9bl_j17z77g23y6ffqb_400000gn/T//cc0jKSMI.s 			page 75


 2205 060c 3046     		mov	r0, r6
 2206 060e FFF7FEFF 		bl	lv_memcpy
 2207              	.LVL208:
 754:lvgl/src/draw/lv_draw_rect.c ****                     mask_res = LV_DRAW_MASK_RES_CHANGED;
 2208              		.loc 1 754 17 view .LVU841
 754:lvgl/src/draw/lv_draw_rect.c ****                     mask_res = LV_DRAW_MASK_RES_CHANGED;
 2209              		.loc 1 754 19 is_stmt 0 view .LVU842
 2210 0612 002C     		cmp	r4, #0
 2211 0614 D4D0     		beq	.L166
 755:lvgl/src/draw/lv_draw_rect.c ****                 }
 2212              		.loc 1 755 30 view .LVU843
 2213 0616 0220     		movs	r0, #2
 2214 0618 DCE7     		b	.L94
 2215              	.LVL209:
 2216              	.L164:
 759:lvgl/src/draw/lv_draw_rect.c ****                 }
 2217              		.loc 1 759 74 view .LVU844
 2218 061a 0220     		movs	r0, #2
 2219              	.LVL210:
 759:lvgl/src/draw/lv_draw_rect.c ****                 }
 2220              		.loc 1 759 74 view .LVU845
 2221 061c DAE7     		b	.L94
 2222              	.L165:
 759:lvgl/src/draw/lv_draw_rect.c ****                 }
 2223              		.loc 1 759 74 view .LVU846
 2224 061e 0D9F     		ldr	r7, [sp, #52]
 2225              	.LVL211:
 759:lvgl/src/draw/lv_draw_rect.c ****                 }
 2226              		.loc 1 759 74 view .LVU847
 2227 0620 0E9C     		ldr	r4, [sp, #56]
 2228 0622 6EE6     		b	.L90
 2229              	.LVL212:
 2230              	.L96:
 759:lvgl/src/draw/lv_draw_rect.c ****                 }
 2231              		.loc 1 759 74 view .LVU848
 2232              	.LBE246:
 2233              	.LBE243:
 2234              	.LBB251:
 2235              	.LBB226:
 775:lvgl/src/draw/lv_draw_rect.c ****             sh_buf_tmp[x] = sh_buf_tmp[corner_size - x - 1];
 2236              		.loc 1 775 13 is_stmt 1 discriminator 3 view .LVU849
 775:lvgl/src/draw/lv_draw_rect.c ****             sh_buf_tmp[x] = sh_buf_tmp[corner_size - x - 1];
 2237              		.loc 1 775 22 is_stmt 0 discriminator 3 view .LVU850
 2238 0624 11F803C0 		ldrb	ip, [r1, r3]	@ zero_extendqisi2
 2239              	.LVL213:
 776:lvgl/src/draw/lv_draw_rect.c ****             sh_buf_tmp[corner_size - x - 1] = tmp;
 2240              		.loc 1 776 13 is_stmt 1 discriminator 3 view .LVU851
 776:lvgl/src/draw/lv_draw_rect.c ****             sh_buf_tmp[corner_size - x - 1] = tmp;
 2241              		.loc 1 776 52 is_stmt 0 discriminator 3 view .LVU852
 2242 0628 E21A     		subs	r2, r4, r3
 776:lvgl/src/draw/lv_draw_rect.c ****             sh_buf_tmp[corner_size - x - 1] = tmp;
 2243              		.loc 1 776 39 discriminator 3 view .LVU853
 2244 062a 013A     		subs	r2, r2, #1
 2245 062c 11F802E0 		ldrb	lr, [r1, r2]	@ zero_extendqisi2
 776:lvgl/src/draw/lv_draw_rect.c ****             sh_buf_tmp[corner_size - x - 1] = tmp;
 2246              		.loc 1 776 27 discriminator 3 view .LVU854
 2247 0630 01F803E0 		strb	lr, [r1, r3]
ARM GAS  /var/folders/k2/cd9bl_j17z77g23y6ffqb_400000gn/T//cc0jKSMI.s 			page 76


 777:lvgl/src/draw/lv_draw_rect.c ****         }
 2248              		.loc 1 777 13 is_stmt 1 discriminator 3 view .LVU855
 777:lvgl/src/draw/lv_draw_rect.c ****         }
 2249              		.loc 1 777 45 is_stmt 0 discriminator 3 view .LVU856
 2250 0634 01F802C0 		strb	ip, [r1, r2]
 2251              	.LBE226:
 774:lvgl/src/draw/lv_draw_rect.c ****             lv_opa_t tmp = sh_buf_tmp[x];
 2252              		.loc 1 774 41 is_stmt 1 discriminator 3 view .LVU857
 774:lvgl/src/draw/lv_draw_rect.c ****             lv_opa_t tmp = sh_buf_tmp[x];
 2253              		.loc 1 774 42 is_stmt 0 discriminator 3 view .LVU858
 2254 0638 0133     		adds	r3, r3, #1
 2255              	.LVL214:
 2256              	.L98:
 774:lvgl/src/draw/lv_draw_rect.c ****             lv_opa_t tmp = sh_buf_tmp[x];
 2257              		.loc 1 774 20 is_stmt 1 discriminator 1 view .LVU859
 774:lvgl/src/draw/lv_draw_rect.c ****             lv_opa_t tmp = sh_buf_tmp[x];
 2258              		.loc 1 774 36 is_stmt 0 discriminator 1 view .LVU860
 2259 063a 04EBD472 		add	r2, r4, r4, lsr #31
 774:lvgl/src/draw/lv_draw_rect.c ****             lv_opa_t tmp = sh_buf_tmp[x];
 2260              		.loc 1 774 9 discriminator 1 view .LVU861
 2261 063e B3EB620F 		cmp	r3, r2, asr #1
 2262 0642 EFDB     		blt	.L96
 779:lvgl/src/draw/lv_draw_rect.c ****     }
 2263              		.loc 1 779 9 is_stmt 1 discriminator 2 view .LVU862
 779:lvgl/src/draw/lv_draw_rect.c ****     }
 2264              		.loc 1 779 20 is_stmt 0 discriminator 2 view .LVU863
 2265 0644 2144     		add	r1, r1, r4
 2266              	.LVL215:
 779:lvgl/src/draw/lv_draw_rect.c ****     }
 2267              		.loc 1 779 20 discriminator 2 view .LVU864
 2268              	.LBE251:
 772:lvgl/src/draw/lv_draw_rect.c ****         int32_t x;
 2269              		.loc 1 772 33 is_stmt 1 discriminator 2 view .LVU865
 772:lvgl/src/draw/lv_draw_rect.c ****         int32_t x;
 2270              		.loc 1 772 34 is_stmt 0 discriminator 2 view .LVU866
 2271 0646 0130     		adds	r0, r0, #1
 2272              	.LVL216:
 2273              	.L97:
 772:lvgl/src/draw/lv_draw_rect.c ****         int32_t x;
 2274              		.loc 1 772 16 is_stmt 1 discriminator 1 view .LVU867
 772:lvgl/src/draw/lv_draw_rect.c ****         int32_t x;
 2275              		.loc 1 772 5 is_stmt 0 discriminator 1 view .LVU868
 2276 0648 A042     		cmp	r0, r4
 2277 064a 01DA     		bge	.L167
 2278              	.LBB252:
 774:lvgl/src/draw/lv_draw_rect.c ****             lv_opa_t tmp = sh_buf_tmp[x];
 2279              		.loc 1 774 15 view .LVU869
 2280 064c 0023     		movs	r3, #0
 2281 064e F4E7     		b	.L98
 2282              	.L167:
 2283              	.LBE252:
 783:lvgl/src/draw/lv_draw_rect.c ****     a.x2 = a.x1 + corner_size - 1;
 2284              		.loc 1 783 5 is_stmt 1 view .LVU870
 783:lvgl/src/draw/lv_draw_rect.c ****     a.x2 = a.x1 + corner_size - 1;
 2285              		.loc 1 783 19 is_stmt 0 view .LVU871
 2286 0650 BDF98830 		ldrsh	r3, [sp, #136]
 783:lvgl/src/draw/lv_draw_rect.c ****     a.x2 = a.x1 + corner_size - 1;
ARM GAS  /var/folders/k2/cd9bl_j17z77g23y6ffqb_400000gn/T//cc0jKSMI.s 			page 77


 2287              		.loc 1 783 10 view .LVU872
 2288 0654 ADF85430 		strh	r3, [sp, #84]	@ movhi
 784:lvgl/src/draw/lv_draw_rect.c ****     a.y1 = sh_area.y1;
 2289              		.loc 1 784 5 is_stmt 1 view .LVU873
 784:lvgl/src/draw/lv_draw_rect.c ****     a.y1 = sh_area.y1;
 2290              		.loc 1 784 17 is_stmt 0 view .LVU874
 2291 0658 17FA83F3 		uxtah	r3, r7, r3
 2292 065c 9BB2     		uxth	r3, r3
 784:lvgl/src/draw/lv_draw_rect.c ****     a.y1 = sh_area.y1;
 2293              		.loc 1 784 31 view .LVU875
 2294 065e 013B     		subs	r3, r3, #1
 784:lvgl/src/draw/lv_draw_rect.c ****     a.y1 = sh_area.y1;
 2295              		.loc 1 784 10 view .LVU876
 2296 0660 ADF85830 		strh	r3, [sp, #88]	@ movhi
 785:lvgl/src/draw/lv_draw_rect.c ****     a.y2 = a.y1 + corner_size - 1;
 2297              		.loc 1 785 5 is_stmt 1 view .LVU877
 785:lvgl/src/draw/lv_draw_rect.c ****     a.y2 = a.y1 + corner_size - 1;
 2298              		.loc 1 785 19 is_stmt 0 view .LVU878
 2299 0664 BDF98A30 		ldrsh	r3, [sp, #138]
 785:lvgl/src/draw/lv_draw_rect.c ****     a.y2 = a.y1 + corner_size - 1;
 2300              		.loc 1 785 10 view .LVU879
 2301 0668 ADF85630 		strh	r3, [sp, #86]	@ movhi
 786:lvgl/src/draw/lv_draw_rect.c **** 
 2302              		.loc 1 786 5 is_stmt 1 view .LVU880
 786:lvgl/src/draw/lv_draw_rect.c **** 
 2303              		.loc 1 786 17 is_stmt 0 view .LVU881
 2304 066c 17FA83F3 		uxtah	r3, r7, r3
 2305 0670 9BB2     		uxth	r3, r3
 786:lvgl/src/draw/lv_draw_rect.c **** 
 2306              		.loc 1 786 31 view .LVU882
 2307 0672 013B     		subs	r3, r3, #1
 786:lvgl/src/draw/lv_draw_rect.c **** 
 2308              		.loc 1 786 10 view .LVU883
 2309 0674 ADF85A30 		strh	r3, [sp, #90]	@ movhi
 788:lvgl/src/draw/lv_draw_rect.c ****     if(has_com && _lv_area_is_in(&a, &bg_coords, r_bg) == false) {
 2310              		.loc 1 788 5 is_stmt 1 view .LVU884
 788:lvgl/src/draw/lv_draw_rect.c ****     if(has_com && _lv_area_is_in(&a, &bg_coords, r_bg) == false) {
 2311              		.loc 1 788 15 is_stmt 0 view .LVU885
 2312 0678 5246     		mov	r2, r10
 2313 067a 15A9     		add	r1, sp, #84
 2314              	.LVL217:
 788:lvgl/src/draw/lv_draw_rect.c ****     if(has_com && _lv_area_is_in(&a, &bg_coords, r_bg) == false) {
 2315              		.loc 1 788 15 view .LVU886
 2316 067c 13A8     		add	r0, sp, #76
 2317              	.LVL218:
 788:lvgl/src/draw/lv_draw_rect.c ****     if(has_com && _lv_area_is_in(&a, &bg_coords, r_bg) == false) {
 2318              		.loc 1 788 15 view .LVU887
 2319 067e FFF7FEFF 		bl	_lv_area_intersect
 2320              	.LVL219:
 789:lvgl/src/draw/lv_draw_rect.c ****         /*Avoid overlap in the middle with large radius*/
 2321              		.loc 1 789 5 is_stmt 1 view .LVU888
 789:lvgl/src/draw/lv_draw_rect.c ****         /*Avoid overlap in the middle with large radius*/
 2322              		.loc 1 789 7 is_stmt 0 view .LVU889
 2323 0682 0028     		cmp	r0, #0
 2324 0684 40F09A80 		bne	.L168
 2325              	.LVL220:
 2326              	.L99:
ARM GAS  /var/folders/k2/cd9bl_j17z77g23y6ffqb_400000gn/T//cc0jKSMI.s 			page 78


 819:lvgl/src/draw/lv_draw_rect.c ****     a.x2 = a.x1 + corner_size - 1;
 2327              		.loc 1 819 5 is_stmt 1 view .LVU890
 819:lvgl/src/draw/lv_draw_rect.c ****     a.x2 = a.x1 + corner_size - 1;
 2328              		.loc 1 819 19 is_stmt 0 view .LVU891
 2329 0688 BDF98830 		ldrsh	r3, [sp, #136]
 819:lvgl/src/draw/lv_draw_rect.c ****     a.x2 = a.x1 + corner_size - 1;
 2330              		.loc 1 819 10 view .LVU892
 2331 068c ADF85430 		strh	r3, [sp, #84]	@ movhi
 820:lvgl/src/draw/lv_draw_rect.c ****     a.y1 = sh_area.y2 - corner_size + 1;
 2332              		.loc 1 820 5 is_stmt 1 view .LVU893
 820:lvgl/src/draw/lv_draw_rect.c ****     a.y1 = sh_area.y2 - corner_size + 1;
 2333              		.loc 1 820 17 is_stmt 0 view .LVU894
 2334 0690 17FA83F3 		uxtah	r3, r7, r3
 2335 0694 9BB2     		uxth	r3, r3
 820:lvgl/src/draw/lv_draw_rect.c ****     a.y1 = sh_area.y2 - corner_size + 1;
 2336              		.loc 1 820 31 view .LVU895
 2337 0696 013B     		subs	r3, r3, #1
 820:lvgl/src/draw/lv_draw_rect.c ****     a.y1 = sh_area.y2 - corner_size + 1;
 2338              		.loc 1 820 10 view .LVU896
 2339 0698 ADF85830 		strh	r3, [sp, #88]	@ movhi
 821:lvgl/src/draw/lv_draw_rect.c ****     a.y2 = sh_area.y2;
 2340              		.loc 1 821 5 is_stmt 1 view .LVU897
 821:lvgl/src/draw/lv_draw_rect.c ****     a.y2 = sh_area.y2;
 2341              		.loc 1 821 19 is_stmt 0 view .LVU898
 2342 069c BDF98E20 		ldrsh	r2, [sp, #142]
 2343 06a0 93B2     		uxth	r3, r2
 821:lvgl/src/draw/lv_draw_rect.c ****     a.y2 = sh_area.y2;
 2344              		.loc 1 821 23 view .LVU899
 2345 06a2 DB1B     		subs	r3, r3, r7
 2346 06a4 9BB2     		uxth	r3, r3
 821:lvgl/src/draw/lv_draw_rect.c ****     a.y2 = sh_area.y2;
 2347              		.loc 1 821 37 view .LVU900
 2348 06a6 0133     		adds	r3, r3, #1
 821:lvgl/src/draw/lv_draw_rect.c ****     a.y2 = sh_area.y2;
 2349              		.loc 1 821 10 view .LVU901
 2350 06a8 ADF85630 		strh	r3, [sp, #86]	@ movhi
 822:lvgl/src/draw/lv_draw_rect.c **** 
 2351              		.loc 1 822 5 is_stmt 1 view .LVU902
 822:lvgl/src/draw/lv_draw_rect.c **** 
 2352              		.loc 1 822 10 is_stmt 0 view .LVU903
 2353 06ac ADF85A20 		strh	r2, [sp, #90]	@ movhi
 824:lvgl/src/draw/lv_draw_rect.c ****     if(has_com && _lv_area_is_in(&a, &bg_coords, r_bg) == false) {
 2354              		.loc 1 824 5 is_stmt 1 view .LVU904
 824:lvgl/src/draw/lv_draw_rect.c ****     if(has_com && _lv_area_is_in(&a, &bg_coords, r_bg) == false) {
 2355              		.loc 1 824 15 is_stmt 0 view .LVU905
 2356 06b0 5246     		mov	r2, r10
 2357 06b2 15A9     		add	r1, sp, #84
 2358 06b4 13A8     		add	r0, sp, #76
 2359 06b6 FFF7FEFF 		bl	_lv_area_intersect
 2360              	.LVL221:
 825:lvgl/src/draw/lv_draw_rect.c ****         /*Avoid overlap in the middle with large radius*/
 2361              		.loc 1 825 5 is_stmt 1 view .LVU906
 825:lvgl/src/draw/lv_draw_rect.c ****         /*Avoid overlap in the middle with large radius*/
 2362              		.loc 1 825 7 is_stmt 0 view .LVU907
 2363 06ba 0028     		cmp	r0, #0
 2364 06bc 40F0FC80 		bne	.L169
 2365              	.LVL222:
ARM GAS  /var/folders/k2/cd9bl_j17z77g23y6ffqb_400000gn/T//cc0jKSMI.s 			page 79


 2366              	.L105:
 855:lvgl/src/draw/lv_draw_rect.c ****     a.x2 = a.x1 + corner_size - 1;
 2367              		.loc 1 855 5 is_stmt 1 view .LVU908
 855:lvgl/src/draw/lv_draw_rect.c ****     a.x2 = a.x1 + corner_size - 1;
 2368              		.loc 1 855 19 is_stmt 0 view .LVU909
 2369 06c0 BDF98830 		ldrsh	r3, [sp, #136]
 855:lvgl/src/draw/lv_draw_rect.c ****     a.x2 = a.x1 + corner_size - 1;
 2370              		.loc 1 855 10 view .LVU910
 2371 06c4 ADF85430 		strh	r3, [sp, #84]	@ movhi
 856:lvgl/src/draw/lv_draw_rect.c ****     a.y1 = sh_area.y1 + corner_size;
 2372              		.loc 1 856 5 is_stmt 1 view .LVU911
 856:lvgl/src/draw/lv_draw_rect.c ****     a.y1 = sh_area.y1 + corner_size;
 2373              		.loc 1 856 17 is_stmt 0 view .LVU912
 2374 06c8 17FA83F3 		uxtah	r3, r7, r3
 2375 06cc 9BB2     		uxth	r3, r3
 856:lvgl/src/draw/lv_draw_rect.c ****     a.y1 = sh_area.y1 + corner_size;
 2376              		.loc 1 856 31 view .LVU913
 2377 06ce 013B     		subs	r3, r3, #1
 856:lvgl/src/draw/lv_draw_rect.c ****     a.y1 = sh_area.y1 + corner_size;
 2378              		.loc 1 856 10 view .LVU914
 2379 06d0 ADF85830 		strh	r3, [sp, #88]	@ movhi
 857:lvgl/src/draw/lv_draw_rect.c ****     a.y2 = sh_area.y2 - corner_size;
 2380              		.loc 1 857 5 is_stmt 1 view .LVU915
 857:lvgl/src/draw/lv_draw_rect.c ****     a.y2 = sh_area.y2 - corner_size;
 2381              		.loc 1 857 19 is_stmt 0 view .LVU916
 2382 06d4 BDF88A30 		ldrh	r3, [sp, #138]
 857:lvgl/src/draw/lv_draw_rect.c ****     a.y2 = sh_area.y2 - corner_size;
 2383              		.loc 1 857 23 view .LVU917
 2384 06d8 3B44     		add	r3, r3, r7
 857:lvgl/src/draw/lv_draw_rect.c ****     a.y2 = sh_area.y2 - corner_size;
 2385              		.loc 1 857 10 view .LVU918
 2386 06da ADF85630 		strh	r3, [sp, #86]	@ movhi
 858:lvgl/src/draw/lv_draw_rect.c **** 
 2387              		.loc 1 858 5 is_stmt 1 view .LVU919
 858:lvgl/src/draw/lv_draw_rect.c **** 
 2388              		.loc 1 858 19 is_stmt 0 view .LVU920
 2389 06de BDF88E30 		ldrh	r3, [sp, #142]
 858:lvgl/src/draw/lv_draw_rect.c **** 
 2390              		.loc 1 858 23 view .LVU921
 2391 06e2 DB1B     		subs	r3, r3, r7
 858:lvgl/src/draw/lv_draw_rect.c **** 
 2392              		.loc 1 858 10 view .LVU922
 2393 06e4 ADF85A30 		strh	r3, [sp, #90]	@ movhi
 860:lvgl/src/draw/lv_draw_rect.c ****     if(has_com && _lv_area_is_in(&a, &bg_coords, r_bg) == false) {
 2394              		.loc 1 860 5 is_stmt 1 view .LVU923
 860:lvgl/src/draw/lv_draw_rect.c ****     if(has_com && _lv_area_is_in(&a, &bg_coords, r_bg) == false) {
 2395              		.loc 1 860 15 is_stmt 0 view .LVU924
 2396 06e8 5246     		mov	r2, r10
 2397 06ea 15A9     		add	r1, sp, #84
 2398 06ec 13A8     		add	r0, sp, #76
 2399 06ee FFF7FEFF 		bl	_lv_area_intersect
 2400              	.LVL223:
 861:lvgl/src/draw/lv_draw_rect.c ****         /*Avoid overlap in the middle with large radius*/
 2401              		.loc 1 861 5 is_stmt 1 view .LVU925
 861:lvgl/src/draw/lv_draw_rect.c ****         /*Avoid overlap in the middle with large radius*/
 2402              		.loc 1 861 7 is_stmt 0 view .LVU926
 2403 06f2 0028     		cmp	r0, #0
ARM GAS  /var/folders/k2/cd9bl_j17z77g23y6ffqb_400000gn/T//cc0jKSMI.s 			page 80


 2404 06f4 40F05F81 		bne	.L170
 2405              	.LVL224:
 2406              	.L111:
 896:lvgl/src/draw/lv_draw_rect.c ****     a.x2 = sh_area.x2 - corner_size;
 2407              		.loc 1 896 5 is_stmt 1 view .LVU927
 896:lvgl/src/draw/lv_draw_rect.c ****     a.x2 = sh_area.x2 - corner_size;
 2408              		.loc 1 896 19 is_stmt 0 view .LVU928
 2409 06f8 BDF88830 		ldrh	r3, [sp, #136]
 896:lvgl/src/draw/lv_draw_rect.c ****     a.x2 = sh_area.x2 - corner_size;
 2410              		.loc 1 896 23 view .LVU929
 2411 06fc 3B44     		add	r3, r3, r7
 896:lvgl/src/draw/lv_draw_rect.c ****     a.x2 = sh_area.x2 - corner_size;
 2412              		.loc 1 896 10 view .LVU930
 2413 06fe ADF85430 		strh	r3, [sp, #84]	@ movhi
 897:lvgl/src/draw/lv_draw_rect.c ****     a.y1 = sh_area.y1;
 2414              		.loc 1 897 5 is_stmt 1 view .LVU931
 897:lvgl/src/draw/lv_draw_rect.c ****     a.y1 = sh_area.y1;
 2415              		.loc 1 897 19 is_stmt 0 view .LVU932
 2416 0702 BDF88C30 		ldrh	r3, [sp, #140]
 897:lvgl/src/draw/lv_draw_rect.c ****     a.y1 = sh_area.y1;
 2417              		.loc 1 897 23 view .LVU933
 2418 0706 DB1B     		subs	r3, r3, r7
 897:lvgl/src/draw/lv_draw_rect.c ****     a.y1 = sh_area.y1;
 2419              		.loc 1 897 10 view .LVU934
 2420 0708 ADF85830 		strh	r3, [sp, #88]	@ movhi
 898:lvgl/src/draw/lv_draw_rect.c ****     a.y2 = sh_area.y1 + corner_size - 1;
 2421              		.loc 1 898 5 is_stmt 1 view .LVU935
 898:lvgl/src/draw/lv_draw_rect.c ****     a.y2 = sh_area.y1 + corner_size - 1;
 2422              		.loc 1 898 19 is_stmt 0 view .LVU936
 2423 070c BDF98A30 		ldrsh	r3, [sp, #138]
 898:lvgl/src/draw/lv_draw_rect.c ****     a.y2 = sh_area.y1 + corner_size - 1;
 2424              		.loc 1 898 10 view .LVU937
 2425 0710 ADF85630 		strh	r3, [sp, #86]	@ movhi
 899:lvgl/src/draw/lv_draw_rect.c **** 
 2426              		.loc 1 899 5 is_stmt 1 view .LVU938
 899:lvgl/src/draw/lv_draw_rect.c **** 
 2427              		.loc 1 899 23 is_stmt 0 view .LVU939
 2428 0714 17FA83F3 		uxtah	r3, r7, r3
 2429 0718 9BB2     		uxth	r3, r3
 899:lvgl/src/draw/lv_draw_rect.c **** 
 2430              		.loc 1 899 37 view .LVU940
 2431 071a 013B     		subs	r3, r3, #1
 899:lvgl/src/draw/lv_draw_rect.c **** 
 2432              		.loc 1 899 10 view .LVU941
 2433 071c ADF85A30 		strh	r3, [sp, #90]	@ movhi
 901:lvgl/src/draw/lv_draw_rect.c ****     if(has_com && _lv_area_is_in(&a, &bg_coords, r_bg) == false) {
 2434              		.loc 1 901 5 is_stmt 1 view .LVU942
 901:lvgl/src/draw/lv_draw_rect.c ****     if(has_com && _lv_area_is_in(&a, &bg_coords, r_bg) == false) {
 2435              		.loc 1 901 15 is_stmt 0 view .LVU943
 2436 0720 5246     		mov	r2, r10
 2437 0722 15A9     		add	r1, sp, #84
 2438 0724 13A8     		add	r0, sp, #76
 2439 0726 FFF7FEFF 		bl	_lv_area_intersect
 2440              	.LVL225:
 902:lvgl/src/draw/lv_draw_rect.c ****         /*Avoid overlap in the middle with large radius*/
 2441              		.loc 1 902 5 is_stmt 1 view .LVU944
 902:lvgl/src/draw/lv_draw_rect.c ****         /*Avoid overlap in the middle with large radius*/
ARM GAS  /var/folders/k2/cd9bl_j17z77g23y6ffqb_400000gn/T//cc0jKSMI.s 			page 81


 2442              		.loc 1 902 7 is_stmt 0 view .LVU945
 2443 072a 0028     		cmp	r0, #0
 2444 072c 40F0CE81 		bne	.L171
 2445              	.LVL226:
 2446              	.L117:
 941:lvgl/src/draw/lv_draw_rect.c ****     a.x2 = sh_area.x2 - corner_size;
 2447              		.loc 1 941 5 is_stmt 1 view .LVU946
 941:lvgl/src/draw/lv_draw_rect.c ****     a.x2 = sh_area.x2 - corner_size;
 2448              		.loc 1 941 19 is_stmt 0 view .LVU947
 2449 0730 BDF88830 		ldrh	r3, [sp, #136]
 941:lvgl/src/draw/lv_draw_rect.c ****     a.x2 = sh_area.x2 - corner_size;
 2450              		.loc 1 941 23 view .LVU948
 2451 0734 3B44     		add	r3, r3, r7
 941:lvgl/src/draw/lv_draw_rect.c ****     a.x2 = sh_area.x2 - corner_size;
 2452              		.loc 1 941 10 view .LVU949
 2453 0736 ADF85430 		strh	r3, [sp, #84]	@ movhi
 942:lvgl/src/draw/lv_draw_rect.c ****     a.y1 = sh_area.y2 - corner_size + 1;
 2454              		.loc 1 942 5 is_stmt 1 view .LVU950
 942:lvgl/src/draw/lv_draw_rect.c ****     a.y1 = sh_area.y2 - corner_size + 1;
 2455              		.loc 1 942 19 is_stmt 0 view .LVU951
 2456 073a BDF88C30 		ldrh	r3, [sp, #140]
 942:lvgl/src/draw/lv_draw_rect.c ****     a.y1 = sh_area.y2 - corner_size + 1;
 2457              		.loc 1 942 23 view .LVU952
 2458 073e DB1B     		subs	r3, r3, r7
 942:lvgl/src/draw/lv_draw_rect.c ****     a.y1 = sh_area.y2 - corner_size + 1;
 2459              		.loc 1 942 10 view .LVU953
 2460 0740 ADF85830 		strh	r3, [sp, #88]	@ movhi
 943:lvgl/src/draw/lv_draw_rect.c ****     a.y2 = sh_area.y2;
 2461              		.loc 1 943 5 is_stmt 1 view .LVU954
 943:lvgl/src/draw/lv_draw_rect.c ****     a.y2 = sh_area.y2;
 2462              		.loc 1 943 19 is_stmt 0 view .LVU955
 2463 0744 BDF98E20 		ldrsh	r2, [sp, #142]
 2464 0748 93B2     		uxth	r3, r2
 943:lvgl/src/draw/lv_draw_rect.c ****     a.y2 = sh_area.y2;
 2465              		.loc 1 943 23 view .LVU956
 2466 074a DB1B     		subs	r3, r3, r7
 2467 074c 9BB2     		uxth	r3, r3
 943:lvgl/src/draw/lv_draw_rect.c ****     a.y2 = sh_area.y2;
 2468              		.loc 1 943 37 view .LVU957
 2469 074e 0133     		adds	r3, r3, #1
 943:lvgl/src/draw/lv_draw_rect.c ****     a.y2 = sh_area.y2;
 2470              		.loc 1 943 10 view .LVU958
 2471 0750 ADF85630 		strh	r3, [sp, #86]	@ movhi
 944:lvgl/src/draw/lv_draw_rect.c **** 
 2472              		.loc 1 944 5 is_stmt 1 view .LVU959
 944:lvgl/src/draw/lv_draw_rect.c **** 
 2473              		.loc 1 944 10 is_stmt 0 view .LVU960
 2474 0754 ADF85A20 		strh	r2, [sp, #90]	@ movhi
 946:lvgl/src/draw/lv_draw_rect.c ****     if(has_com && _lv_area_is_in(&a, &bg_coords, r_bg) == false) {
 2475              		.loc 1 946 5 is_stmt 1 view .LVU961
 946:lvgl/src/draw/lv_draw_rect.c ****     if(has_com && _lv_area_is_in(&a, &bg_coords, r_bg) == false) {
 2476              		.loc 1 946 15 is_stmt 0 view .LVU962
 2477 0758 5246     		mov	r2, r10
 2478 075a 15A9     		add	r1, sp, #84
 2479 075c 13A8     		add	r0, sp, #76
 2480 075e FFF7FEFF 		bl	_lv_area_intersect
 2481              	.LVL227:
ARM GAS  /var/folders/k2/cd9bl_j17z77g23y6ffqb_400000gn/T//cc0jKSMI.s 			page 82


 947:lvgl/src/draw/lv_draw_rect.c ****         /*Avoid overlap in the middle with large radius*/
 2482              		.loc 1 947 5 is_stmt 1 view .LVU963
 947:lvgl/src/draw/lv_draw_rect.c ****         /*Avoid overlap in the middle with large radius*/
 2483              		.loc 1 947 7 is_stmt 0 view .LVU964
 2484 0762 0028     		cmp	r0, #0
 2485 0764 40F03B82 		bne	.L172
 2486              	.LVL228:
 2487              	.L125:
 984:lvgl/src/draw/lv_draw_rect.c ****     a.x2 = sh_area.x2 - corner_size;
 2488              		.loc 1 984 5 is_stmt 1 view .LVU965
 984:lvgl/src/draw/lv_draw_rect.c ****     a.x2 = sh_area.x2 - corner_size;
 2489              		.loc 1 984 19 is_stmt 0 view .LVU966
 2490 0768 BDF88830 		ldrh	r3, [sp, #136]
 984:lvgl/src/draw/lv_draw_rect.c ****     a.x2 = sh_area.x2 - corner_size;
 2491              		.loc 1 984 23 view .LVU967
 2492 076c 3B44     		add	r3, r3, r7
 984:lvgl/src/draw/lv_draw_rect.c ****     a.x2 = sh_area.x2 - corner_size;
 2493              		.loc 1 984 10 view .LVU968
 2494 076e ADF85430 		strh	r3, [sp, #84]	@ movhi
 985:lvgl/src/draw/lv_draw_rect.c ****     a.y1 = sh_area.y1 + corner_size;
 2495              		.loc 1 985 5 is_stmt 1 view .LVU969
 985:lvgl/src/draw/lv_draw_rect.c ****     a.y1 = sh_area.y1 + corner_size;
 2496              		.loc 1 985 19 is_stmt 0 view .LVU970
 2497 0772 BDF88C30 		ldrh	r3, [sp, #140]
 985:lvgl/src/draw/lv_draw_rect.c ****     a.y1 = sh_area.y1 + corner_size;
 2498              		.loc 1 985 23 view .LVU971
 2499 0776 DB1B     		subs	r3, r3, r7
 985:lvgl/src/draw/lv_draw_rect.c ****     a.y1 = sh_area.y1 + corner_size;
 2500              		.loc 1 985 10 view .LVU972
 2501 0778 ADF85830 		strh	r3, [sp, #88]	@ movhi
 986:lvgl/src/draw/lv_draw_rect.c ****     a.y2 = sh_area.y2 - corner_size;
 2502              		.loc 1 986 5 is_stmt 1 view .LVU973
 986:lvgl/src/draw/lv_draw_rect.c ****     a.y2 = sh_area.y2 - corner_size;
 2503              		.loc 1 986 19 is_stmt 0 view .LVU974
 2504 077c BDF88A30 		ldrh	r3, [sp, #138]
 986:lvgl/src/draw/lv_draw_rect.c ****     a.y2 = sh_area.y2 - corner_size;
 2505              		.loc 1 986 23 view .LVU975
 2506 0780 3B44     		add	r3, r3, r7
 986:lvgl/src/draw/lv_draw_rect.c ****     a.y2 = sh_area.y2 - corner_size;
 2507              		.loc 1 986 10 view .LVU976
 2508 0782 ADF85630 		strh	r3, [sp, #86]	@ movhi
 987:lvgl/src/draw/lv_draw_rect.c **** 
 2509              		.loc 1 987 5 is_stmt 1 view .LVU977
 987:lvgl/src/draw/lv_draw_rect.c **** 
 2510              		.loc 1 987 19 is_stmt 0 view .LVU978
 2511 0786 BDF88E30 		ldrh	r3, [sp, #142]
 987:lvgl/src/draw/lv_draw_rect.c **** 
 2512              		.loc 1 987 23 view .LVU979
 2513 078a DF1B     		subs	r7, r3, r7
 987:lvgl/src/draw/lv_draw_rect.c **** 
 2514              		.loc 1 987 10 view .LVU980
 2515 078c ADF85A70 		strh	r7, [sp, #90]	@ movhi
 989:lvgl/src/draw/lv_draw_rect.c ****     if(has_com && simple_mode == false &&  _lv_area_is_in(&a, &bg_coords, r_bg) == false) {
 2516              		.loc 1 989 5 is_stmt 1 view .LVU981
 989:lvgl/src/draw/lv_draw_rect.c ****     if(has_com && simple_mode == false &&  _lv_area_is_in(&a, &bg_coords, r_bg) == false) {
 2517              		.loc 1 989 15 is_stmt 0 view .LVU982
 2518 0790 5246     		mov	r2, r10
ARM GAS  /var/folders/k2/cd9bl_j17z77g23y6ffqb_400000gn/T//cc0jKSMI.s 			page 83


 2519 0792 15A9     		add	r1, sp, #84
 2520 0794 13A8     		add	r0, sp, #76
 2521 0796 FFF7FEFF 		bl	_lv_area_intersect
 2522              	.LVL229:
 990:lvgl/src/draw/lv_draw_rect.c ****         /*Draw horizontal lines*/
 2523              		.loc 1 990 5 is_stmt 1 view .LVU983
 990:lvgl/src/draw/lv_draw_rect.c ****         /*Draw horizontal lines*/
 2524              		.loc 1 990 7 is_stmt 0 view .LVU984
 2525 079a 18B1     		cbz	r0, .L133
 990:lvgl/src/draw/lv_draw_rect.c ****         /*Draw horizontal lines*/
 2526              		.loc 1 990 16 discriminator 1 view .LVU985
 2527 079c 069B     		ldr	r3, [sp, #24]
 2528 079e 002B     		cmp	r3, #0
 2529 07a0 00F0A982 		beq	.L173
 2530              	.LVL230:
 2531              	.L133:
1010:lvgl/src/draw/lv_draw_rect.c ****     lv_mem_buf_release(mask_buf);
 2532              		.loc 1 1010 5 is_stmt 1 discriminator 1 view .LVU986
 2533 07a4 0998     		ldr	r0, [sp, #36]
 2534 07a6 FFF7FEFF 		bl	lv_draw_mask_remove_id
 2535              	.LVL231:
1011:lvgl/src/draw/lv_draw_rect.c ****     lv_mem_buf_release(sh_buf);
 2536              		.loc 1 1011 5 discriminator 1 view .LVU987
 2537 07aa 3046     		mov	r0, r6
 2538 07ac FFF7FEFF 		bl	lv_mem_buf_release
 2539              	.LVL232:
1012:lvgl/src/draw/lv_draw_rect.c **** }
 2540              		.loc 1 1012 5 discriminator 1 view .LVU988
 2541 07b0 0798     		ldr	r0, [sp, #28]
 2542 07b2 FFF7FEFF 		bl	lv_mem_buf_release
 2543              	.LVL233:
 2544              	.L67:
1013:lvgl/src/draw/lv_draw_rect.c **** 
 2545              		.loc 1 1013 1 is_stmt 0 view .LVU989
 2546 07b6 27B0     		add	sp, sp, #156
 2547              	.LCFI8:
 2548              		.cfi_remember_state
 2549              		.cfi_def_cfa_offset 36
 2550              		@ sp needed
 2551 07b8 BDE8F08F 		pop	{r4, r5, r6, r7, r8, r9, r10, fp, pc}
 2552              	.LVL234:
 2553              	.L168:
 2554              	.LCFI9:
 2555              		.cfi_restore_state
 789:lvgl/src/draw/lv_draw_rect.c ****         /*Avoid overlap in the middle with large radius*/
 2556              		.loc 1 789 19 discriminator 1 view .LVU990
 2557 07bc 089A     		ldr	r2, [sp, #32]
 2558 07be 1EA9     		add	r1, sp, #120
 2559 07c0 15A8     		add	r0, sp, #84
 2560              	.LVL235:
 789:lvgl/src/draw/lv_draw_rect.c ****         /*Avoid overlap in the middle with large radius*/
 2561              		.loc 1 789 19 discriminator 1 view .LVU991
 2562 07c2 FFF7FEFF 		bl	_lv_area_is_in
 2563              	.LVL236:
 789:lvgl/src/draw/lv_draw_rect.c ****         /*Avoid overlap in the middle with large radius*/
 2564              		.loc 1 789 16 discriminator 1 view .LVU992
 2565 07c6 0028     		cmp	r0, #0
ARM GAS  /var/folders/k2/cd9bl_j17z77g23y6ffqb_400000gn/T//cc0jKSMI.s 			page 84


 2566 07c8 7FF45EAF 		bne	.L99
 2567              	.LBB253:
 791:lvgl/src/draw/lv_draw_rect.c ****         if(ca.x2 > w_half) ca.x2 = w_half;
 2568              		.loc 1 791 9 is_stmt 1 view .LVU993
 791:lvgl/src/draw/lv_draw_rect.c ****         if(ca.x2 > w_half) ca.x2 = w_half;
 2569              		.loc 1 791 14 is_stmt 0 view .LVU994
 2570 07cc BDF95230 		ldrsh	r3, [sp, #82]
 791:lvgl/src/draw/lv_draw_rect.c ****         if(ca.x2 > w_half) ca.x2 = w_half;
 2571              		.loc 1 791 11 view .LVU995
 2572 07d0 0B9A     		ldr	r2, [sp, #44]
 2573 07d2 9342     		cmp	r3, r2
 2574 07d4 01DD     		ble	.L100
 791:lvgl/src/draw/lv_draw_rect.c ****         if(ca.x2 > w_half) ca.x2 = w_half;
 2575              		.loc 1 791 28 is_stmt 1 discriminator 1 view .LVU996
 791:lvgl/src/draw/lv_draw_rect.c ****         if(ca.x2 > w_half) ca.x2 = w_half;
 2576              		.loc 1 791 34 is_stmt 0 discriminator 1 view .LVU997
 2577 07d6 ADF85220 		strh	r2, [sp, #82]	@ movhi
 2578              	.L100:
 792:lvgl/src/draw/lv_draw_rect.c **** 
 2579              		.loc 1 792 9 is_stmt 1 view .LVU998
 792:lvgl/src/draw/lv_draw_rect.c **** 
 2580              		.loc 1 792 14 is_stmt 0 view .LVU999
 2581 07da BDF95030 		ldrsh	r3, [sp, #80]
 792:lvgl/src/draw/lv_draw_rect.c **** 
 2582              		.loc 1 792 11 view .LVU1000
 2583 07de 0A9A     		ldr	r2, [sp, #40]
 2584 07e0 9342     		cmp	r3, r2
 2585 07e2 01DD     		ble	.L101
 792:lvgl/src/draw/lv_draw_rect.c **** 
 2586              		.loc 1 792 28 is_stmt 1 discriminator 1 view .LVU1001
 792:lvgl/src/draw/lv_draw_rect.c **** 
 2587              		.loc 1 792 34 is_stmt 0 discriminator 1 view .LVU1002
 2588 07e4 ADF85020 		strh	r2, [sp, #80]	@ movhi
 2589              	.L101:
 794:lvgl/src/draw/lv_draw_rect.c ****         lv_coord_t w = lv_area_get_width(&ca);
 2590              		.loc 1 794 9 is_stmt 1 view .LVU1003
 2591              	.LVL237:
 2592              	.LBB254:
 2593              	.LBI254:
 143:lvgl/src/draw/../misc/lv_area.h **** {
 2594              		.loc 2 143 26 view .LVU1004
 2595              	.LBB255:
 2596              		.loc 2 145 5 view .LVU1005
 2597              		.loc 2 145 31 is_stmt 0 view .LVU1006
 2598 07e8 BDF952E0 		ldrsh	lr, [sp, #82]
 2599 07ec 1FFA8EF2 		uxth	r2, lr
 2600              		.loc 2 145 44 view .LVU1007
 2601 07f0 BDF94E30 		ldrsh	r3, [sp, #78]
 2602 07f4 98B2     		uxth	r0, r3
 2603              		.loc 2 145 36 view .LVU1008
 2604 07f6 121A     		subs	r2, r2, r0
 2605 07f8 92B2     		uxth	r2, r2
 2606              		.loc 2 145 49 view .LVU1009
 2607 07fa 0132     		adds	r2, r2, #1
 2608              		.loc 2 145 12 view .LVU1010
 2609 07fc 12B2     		sxth	r2, r2
 2610 07fe 0D92     		str	r2, [sp, #52]
ARM GAS  /var/folders/k2/cd9bl_j17z77g23y6ffqb_400000gn/T//cc0jKSMI.s 			page 85


 2611              	.LVL238:
 2612              		.loc 2 145 12 view .LVU1011
 2613              	.LBE255:
 2614              	.LBE254:
 795:lvgl/src/draw/lv_draw_rect.c ****         if(w > 0) {
 2615              		.loc 1 795 9 is_stmt 1 view .LVU1012
 2616              	.LBB256:
 2617              	.LBI256:
 133:lvgl/src/draw/../misc/lv_area.h **** {
 2618              		.loc 2 133 26 view .LVU1013
 2619              	.LBB257:
 135:lvgl/src/draw/../misc/lv_area.h **** }
 2620              		.loc 2 135 5 view .LVU1014
 135:lvgl/src/draw/../misc/lv_area.h **** }
 2621              		.loc 2 135 31 is_stmt 0 view .LVU1015
 2622 0800 BDF95000 		ldrsh	r0, [sp, #80]
 2623 0804 1FFA80FB 		uxth	fp, r0
 135:lvgl/src/draw/../misc/lv_area.h **** }
 2624              		.loc 2 135 44 view .LVU1016
 2625 0808 BDF94C20 		ldrsh	r2, [sp, #76]
 2626 080c 1FFA82FC 		uxth	ip, r2
 135:lvgl/src/draw/../misc/lv_area.h **** }
 2627              		.loc 2 135 36 view .LVU1017
 2628 0810 ABEB0C0B 		sub	fp, fp, ip
 2629 0814 1FFA8BFB 		uxth	fp, fp
 135:lvgl/src/draw/../misc/lv_area.h **** }
 2630              		.loc 2 135 49 view .LVU1018
 2631 0818 0BF1010B 		add	fp, fp, #1
 135:lvgl/src/draw/../misc/lv_area.h **** }
 2632              		.loc 2 135 12 view .LVU1019
 2633 081c 0FFA8BFB 		sxth	fp, fp
 2634              	.LVL239:
 135:lvgl/src/draw/../misc/lv_area.h **** }
 2635              		.loc 2 135 12 view .LVU1020
 2636              	.LBE257:
 2637              	.LBE256:
 796:lvgl/src/draw/lv_draw_rect.c ****             sh_buf_tmp = sh_buf + (ca.x1 - a.x1);
 2638              		.loc 1 796 9 is_stmt 1 view .LVU1021
 796:lvgl/src/draw/lv_draw_rect.c ****             sh_buf_tmp = sh_buf + (ca.x1 - a.x1);
 2639              		.loc 1 796 11 is_stmt 0 view .LVU1022
 2640 0820 BBF1000F 		cmp	fp, #0
 2641 0824 7FF730AF 		ble	.L99
 2642              	.LBB258:
 797:lvgl/src/draw/lv_draw_rect.c ****             sh_buf_tmp += corner_size * (ca.y1 - a.y1);
 2643              		.loc 1 797 13 is_stmt 1 view .LVU1023
 797:lvgl/src/draw/lv_draw_rect.c ****             sh_buf_tmp += corner_size * (ca.y1 - a.y1);
 2644              		.loc 1 797 45 is_stmt 0 view .LVU1024
 2645 0828 BDF95480 		ldrsh	r8, [sp, #84]
 797:lvgl/src/draw/lv_draw_rect.c ****             sh_buf_tmp += corner_size * (ca.y1 - a.y1);
 2646              		.loc 1 797 42 view .LVU1025
 2647 082c A2EB0808 		sub	r8, r2, r8
 2648              	.LVL240:
 798:lvgl/src/draw/lv_draw_rect.c **** 
 2649              		.loc 1 798 13 is_stmt 1 view .LVU1026
 798:lvgl/src/draw/lv_draw_rect.c **** 
 2650              		.loc 1 798 51 is_stmt 0 view .LVU1027
 2651 0830 BDF956C0 		ldrsh	ip, [sp, #86]
ARM GAS  /var/folders/k2/cd9bl_j17z77g23y6ffqb_400000gn/T//cc0jKSMI.s 			page 86


 798:lvgl/src/draw/lv_draw_rect.c **** 
 2652              		.loc 1 798 48 view .LVU1028
 2653 0834 A3EB0C0C 		sub	ip, r3, ip
 798:lvgl/src/draw/lv_draw_rect.c **** 
 2654              		.loc 1 798 24 view .LVU1029
 2655 0838 04FB0C88 		mla	r8, r4, ip, r8
 2656              	.LVL241:
 798:lvgl/src/draw/lv_draw_rect.c **** 
 2657              		.loc 1 798 24 view .LVU1030
 2658 083c 0799     		ldr	r1, [sp, #28]
 2659 083e 8844     		add	r8, r8, r1
 2660              	.LVL242:
 800:lvgl/src/draw/lv_draw_rect.c ****             lv_area_copy(&fa, &ca);
 2661              		.loc 1 800 13 is_stmt 1 view .LVU1031
 801:lvgl/src/draw/lv_draw_rect.c ****             fa.y2 = fa.y1;
 2662              		.loc 1 801 13 view .LVU1032
 2663              	.LBB259:
 2664              	.LBI259:
 120:lvgl/src/draw/../misc/lv_area.h **** {
 2665              		.loc 2 120 20 view .LVU1033
 2666              	.LBB260:
 122:lvgl/src/draw/../misc/lv_area.h ****     dest->y1 = src->y1;
 2667              		.loc 2 122 5 view .LVU1034
 122:lvgl/src/draw/../misc/lv_area.h ****     dest->y1 = src->y1;
 2668              		.loc 2 122 14 is_stmt 0 view .LVU1035
 2669 0840 ADF84420 		strh	r2, [sp, #68]	@ movhi
 123:lvgl/src/draw/../misc/lv_area.h ****     dest->x2 = src->x2;
 2670              		.loc 2 123 5 is_stmt 1 view .LVU1036
 123:lvgl/src/draw/../misc/lv_area.h ****     dest->x2 = src->x2;
 2671              		.loc 2 123 14 is_stmt 0 view .LVU1037
 2672 0844 ADF84630 		strh	r3, [sp, #70]	@ movhi
 124:lvgl/src/draw/../misc/lv_area.h ****     dest->y2 = src->y2;
 2673              		.loc 2 124 5 is_stmt 1 view .LVU1038
 124:lvgl/src/draw/../misc/lv_area.h ****     dest->y2 = src->y2;
 2674              		.loc 2 124 14 is_stmt 0 view .LVU1039
 2675 0848 ADF84800 		strh	r0, [sp, #72]	@ movhi
 125:lvgl/src/draw/../misc/lv_area.h **** }
 2676              		.loc 2 125 5 is_stmt 1 view .LVU1040
 125:lvgl/src/draw/../misc/lv_area.h **** }
 2677              		.loc 2 125 14 is_stmt 0 view .LVU1041
 2678 084c ADF84AE0 		strh	lr, [sp, #74]	@ movhi
 2679              	.LVL243:
 125:lvgl/src/draw/../misc/lv_area.h **** }
 2680              		.loc 2 125 14 view .LVU1042
 2681              	.LBE260:
 2682              	.LBE259:
 802:lvgl/src/draw/lv_draw_rect.c **** 
 2683              		.loc 1 802 13 is_stmt 1 view .LVU1043
 802:lvgl/src/draw/lv_draw_rect.c **** 
 2684              		.loc 1 802 19 is_stmt 0 view .LVU1044
 2685 0850 ADF84A30 		strh	r3, [sp, #74]	@ movhi
 804:lvgl/src/draw/lv_draw_rect.c ****                 lv_memcpy(mask_buf, sh_buf_tmp, w);
 2686              		.loc 1 804 13 is_stmt 1 view .LVU1045
 2687              	.LVL244:
 804:lvgl/src/draw/lv_draw_rect.c ****                 lv_memcpy(mask_buf, sh_buf_tmp, w);
 2688              		.loc 1 804 19 is_stmt 0 view .LVU1046
 2689 0854 4FF00009 		mov	r9, #0
ARM GAS  /var/folders/k2/cd9bl_j17z77g23y6ffqb_400000gn/T//cc0jKSMI.s 			page 87


 2690 0858 0E97     		str	r7, [sp, #56]
 2691 085a 0D9F     		ldr	r7, [sp, #52]
 804:lvgl/src/draw/lv_draw_rect.c ****                 lv_memcpy(mask_buf, sh_buf_tmp, w);
 2692              		.loc 1 804 13 view .LVU1047
 2693 085c 17E0     		b	.L102
 2694              	.LVL245:
 2695              	.L103:
 809:lvgl/src/draw/lv_draw_rect.c ****                                mask_res, opa, dsc->blend_mode);
 2696              		.loc 1 809 17 is_stmt 1 discriminator 2 view .LVU1048
 2697 085e AB78     		ldrb	r3, [r5, #2]	@ zero_extendqisi2
 2698 0860 0293     		str	r3, [sp, #8]
 2699 0862 049B     		ldr	r3, [sp, #16]
 2700 0864 0193     		str	r3, [sp, #4]
 2701 0866 0090     		str	r0, [sp]
 2702 0868 3346     		mov	r3, r6
 2703 086a 6A6B     		ldr	r2, [r5, #52]
 2704 086c 11A9     		add	r1, sp, #68
 2705 086e 5046     		mov	r0, r10
 2706              	.LVL246:
 809:lvgl/src/draw/lv_draw_rect.c ****                                mask_res, opa, dsc->blend_mode);
 2707              		.loc 1 809 17 is_stmt 0 discriminator 2 view .LVU1049
 2708 0870 FFF7FEFF 		bl	_lv_blend_fill
 2709              	.LVL247:
 811:lvgl/src/draw/lv_draw_rect.c ****                 fa.y2++;
 2710              		.loc 1 811 17 is_stmt 1 discriminator 2 view .LVU1050
 811:lvgl/src/draw/lv_draw_rect.c ****                 fa.y2++;
 2711              		.loc 1 811 19 is_stmt 0 discriminator 2 view .LVU1051
 2712 0874 BDF94630 		ldrsh	r3, [sp, #70]
 811:lvgl/src/draw/lv_draw_rect.c ****                 fa.y2++;
 2713              		.loc 1 811 22 discriminator 2 view .LVU1052
 2714 0878 0133     		adds	r3, r3, #1
 2715 087a ADF84630 		strh	r3, [sp, #70]	@ movhi
 812:lvgl/src/draw/lv_draw_rect.c ****                 sh_buf_tmp += corner_size;
 2716              		.loc 1 812 17 is_stmt 1 discriminator 2 view .LVU1053
 812:lvgl/src/draw/lv_draw_rect.c ****                 sh_buf_tmp += corner_size;
 2717              		.loc 1 812 19 is_stmt 0 discriminator 2 view .LVU1054
 2718 087e BDF94A30 		ldrsh	r3, [sp, #74]
 812:lvgl/src/draw/lv_draw_rect.c ****                 sh_buf_tmp += corner_size;
 2719              		.loc 1 812 22 discriminator 2 view .LVU1055
 2720 0882 0133     		adds	r3, r3, #1
 2721 0884 ADF84A30 		strh	r3, [sp, #74]	@ movhi
 813:lvgl/src/draw/lv_draw_rect.c ****             }
 2722              		.loc 1 813 17 is_stmt 1 discriminator 2 view .LVU1056
 813:lvgl/src/draw/lv_draw_rect.c ****             }
 2723              		.loc 1 813 28 is_stmt 0 discriminator 2 view .LVU1057
 2724 0888 A044     		add	r8, r8, r4
 2725              	.LVL248:
 804:lvgl/src/draw/lv_draw_rect.c ****                 lv_memcpy(mask_buf, sh_buf_tmp, w);
 2726              		.loc 1 804 31 is_stmt 1 discriminator 2 view .LVU1058
 804:lvgl/src/draw/lv_draw_rect.c ****                 lv_memcpy(mask_buf, sh_buf_tmp, w);
 2727              		.loc 1 804 32 is_stmt 0 discriminator 2 view .LVU1059
 2728 088a 09F10109 		add	r9, r9, #1
 2729              	.LVL249:
 2730              	.L102:
 804:lvgl/src/draw/lv_draw_rect.c ****                 lv_memcpy(mask_buf, sh_buf_tmp, w);
 2731              		.loc 1 804 24 is_stmt 1 discriminator 1 view .LVU1060
 804:lvgl/src/draw/lv_draw_rect.c ****                 lv_memcpy(mask_buf, sh_buf_tmp, w);
ARM GAS  /var/folders/k2/cd9bl_j17z77g23y6ffqb_400000gn/T//cc0jKSMI.s 			page 88


 2732              		.loc 1 804 13 is_stmt 0 discriminator 1 view .LVU1061
 2733 088e 4F45     		cmp	r7, r9
 2734 0890 10DD     		ble	.L174
 805:lvgl/src/draw/lv_draw_rect.c ****                 mask_res = lv_draw_mask_apply(mask_buf, fa.x1, fa.y1, w);
 2735              		.loc 1 805 17 is_stmt 1 view .LVU1062
 2736 0892 5A46     		mov	r2, fp
 2737 0894 4146     		mov	r1, r8
 2738 0896 3046     		mov	r0, r6
 2739 0898 FFF7FEFF 		bl	lv_memcpy
 2740              	.LVL250:
 806:lvgl/src/draw/lv_draw_rect.c ****                 if(mask_res == LV_DRAW_MASK_RES_FULL_COVER) mask_res = LV_DRAW_MASK_RES_CHANGED;
 2741              		.loc 1 806 17 view .LVU1063
 806:lvgl/src/draw/lv_draw_rect.c ****                 if(mask_res == LV_DRAW_MASK_RES_FULL_COVER) mask_res = LV_DRAW_MASK_RES_CHANGED;
 2742              		.loc 1 806 28 is_stmt 0 view .LVU1064
 2743 089c 5B46     		mov	r3, fp
 2744 089e BDF94620 		ldrsh	r2, [sp, #70]
 2745 08a2 BDF94410 		ldrsh	r1, [sp, #68]
 2746 08a6 3046     		mov	r0, r6
 2747 08a8 FFF7FEFF 		bl	lv_draw_mask_apply
 2748              	.LVL251:
 807:lvgl/src/draw/lv_draw_rect.c **** 
 2749              		.loc 1 807 17 is_stmt 1 view .LVU1065
 807:lvgl/src/draw/lv_draw_rect.c **** 
 2750              		.loc 1 807 19 is_stmt 0 view .LVU1066
 2751 08ac 0128     		cmp	r0, #1
 2752 08ae D6D1     		bne	.L103
 807:lvgl/src/draw/lv_draw_rect.c **** 
 2753              		.loc 1 807 70 view .LVU1067
 2754 08b0 0220     		movs	r0, #2
 2755              	.LVL252:
 807:lvgl/src/draw/lv_draw_rect.c **** 
 2756              		.loc 1 807 70 view .LVU1068
 2757 08b2 D4E7     		b	.L103
 2758              	.L174:
 807:lvgl/src/draw/lv_draw_rect.c **** 
 2759              		.loc 1 807 70 view .LVU1069
 2760 08b4 0E9F     		ldr	r7, [sp, #56]
 2761 08b6 E7E6     		b	.L99
 2762              	.LVL253:
 2763              	.L169:
 807:lvgl/src/draw/lv_draw_rect.c **** 
 2764              		.loc 1 807 70 view .LVU1070
 2765              	.LBE258:
 2766              	.LBE253:
 825:lvgl/src/draw/lv_draw_rect.c ****         /*Avoid overlap in the middle with large radius*/
 2767              		.loc 1 825 19 discriminator 1 view .LVU1071
 2768 08b8 089A     		ldr	r2, [sp, #32]
 2769 08ba 1EA9     		add	r1, sp, #120
 2770 08bc 15A8     		add	r0, sp, #84
 2771              	.LVL254:
 825:lvgl/src/draw/lv_draw_rect.c ****         /*Avoid overlap in the middle with large radius*/
 2772              		.loc 1 825 19 discriminator 1 view .LVU1072
 2773 08be FFF7FEFF 		bl	_lv_area_is_in
 2774              	.LVL255:
 825:lvgl/src/draw/lv_draw_rect.c ****         /*Avoid overlap in the middle with large radius*/
 2775              		.loc 1 825 16 discriminator 1 view .LVU1073
 2776 08c2 0028     		cmp	r0, #0
ARM GAS  /var/folders/k2/cd9bl_j17z77g23y6ffqb_400000gn/T//cc0jKSMI.s 			page 89


 2777 08c4 7FF4FCAE 		bne	.L105
 2778              	.LBB261:
 827:lvgl/src/draw/lv_draw_rect.c ****         if(ca.x2 > w_half) ca.x2 = w_half;
 2779              		.loc 1 827 9 is_stmt 1 view .LVU1074
 827:lvgl/src/draw/lv_draw_rect.c ****         if(ca.x2 > w_half) ca.x2 = w_half;
 2780              		.loc 1 827 14 is_stmt 0 view .LVU1075
 2781 08c8 BDF94E30 		ldrsh	r3, [sp, #78]
 827:lvgl/src/draw/lv_draw_rect.c ****         if(ca.x2 > w_half) ca.x2 = w_half;
 2782              		.loc 1 827 11 view .LVU1076
 2783 08cc 0B9A     		ldr	r2, [sp, #44]
 2784 08ce 9342     		cmp	r3, r2
 2785 08d0 03DC     		bgt	.L106
 827:lvgl/src/draw/lv_draw_rect.c ****         if(ca.x2 > w_half) ca.x2 = w_half;
 2786              		.loc 1 827 29 is_stmt 1 discriminator 1 view .LVU1077
 827:lvgl/src/draw/lv_draw_rect.c ****         if(ca.x2 > w_half) ca.x2 = w_half;
 2787              		.loc 1 827 44 is_stmt 0 discriminator 1 view .LVU1078
 2788 08d2 0C9B     		ldr	r3, [sp, #48]
 2789 08d4 0133     		adds	r3, r3, #1
 827:lvgl/src/draw/lv_draw_rect.c ****         if(ca.x2 > w_half) ca.x2 = w_half;
 2790              		.loc 1 827 35 discriminator 1 view .LVU1079
 2791 08d6 ADF84E30 		strh	r3, [sp, #78]	@ movhi
 2792              	.L106:
 828:lvgl/src/draw/lv_draw_rect.c ****         lv_coord_t h = lv_area_get_height(&ca);
 2793              		.loc 1 828 9 is_stmt 1 view .LVU1080
 828:lvgl/src/draw/lv_draw_rect.c ****         lv_coord_t h = lv_area_get_height(&ca);
 2794              		.loc 1 828 14 is_stmt 0 view .LVU1081
 2795 08da BDF95030 		ldrsh	r3, [sp, #80]
 828:lvgl/src/draw/lv_draw_rect.c ****         lv_coord_t h = lv_area_get_height(&ca);
 2796              		.loc 1 828 11 view .LVU1082
 2797 08de 0A9A     		ldr	r2, [sp, #40]
 2798 08e0 9342     		cmp	r3, r2
 2799 08e2 01DD     		ble	.L107
 828:lvgl/src/draw/lv_draw_rect.c ****         lv_coord_t h = lv_area_get_height(&ca);
 2800              		.loc 1 828 28 is_stmt 1 discriminator 1 view .LVU1083
 828:lvgl/src/draw/lv_draw_rect.c ****         lv_coord_t h = lv_area_get_height(&ca);
 2801              		.loc 1 828 34 is_stmt 0 discriminator 1 view .LVU1084
 2802 08e4 ADF85020 		strh	r2, [sp, #80]	@ movhi
 2803              	.L107:
 829:lvgl/src/draw/lv_draw_rect.c ****         lv_coord_t w = lv_area_get_width(&ca);
 2804              		.loc 1 829 9 is_stmt 1 view .LVU1085
 2805              	.LVL256:
 2806              	.LBB262:
 2807              	.LBI262:
 143:lvgl/src/draw/../misc/lv_area.h **** {
 2808              		.loc 2 143 26 view .LVU1086
 2809              	.LBB263:
 2810              		.loc 2 145 5 view .LVU1087
 2811              		.loc 2 145 31 is_stmt 0 view .LVU1088
 2812 08e8 BDF95230 		ldrsh	r3, [sp, #82]
 2813 08ec 9AB2     		uxth	r2, r3
 2814              		.loc 2 145 44 view .LVU1089
 2815 08ee BDF94E00 		ldrsh	r0, [sp, #78]
 2816 08f2 81B2     		uxth	r1, r0
 2817              		.loc 2 145 36 view .LVU1090
 2818 08f4 521A     		subs	r2, r2, r1
 2819 08f6 92B2     		uxth	r2, r2
 2820              		.loc 2 145 49 view .LVU1091
ARM GAS  /var/folders/k2/cd9bl_j17z77g23y6ffqb_400000gn/T//cc0jKSMI.s 			page 90


 2821 08f8 0132     		adds	r2, r2, #1
 2822              		.loc 2 145 12 view .LVU1092
 2823 08fa 12B2     		sxth	r2, r2
 2824 08fc 0D92     		str	r2, [sp, #52]
 2825              	.LVL257:
 2826              		.loc 2 145 12 view .LVU1093
 2827              	.LBE263:
 2828              	.LBE262:
 830:lvgl/src/draw/lv_draw_rect.c **** 
 2829              		.loc 1 830 9 is_stmt 1 view .LVU1094
 2830              	.LBB264:
 2831              	.LBI264:
 133:lvgl/src/draw/../misc/lv_area.h **** {
 2832              		.loc 2 133 26 view .LVU1095
 2833              	.LBB265:
 135:lvgl/src/draw/../misc/lv_area.h **** }
 2834              		.loc 2 135 5 view .LVU1096
 135:lvgl/src/draw/../misc/lv_area.h **** }
 2835              		.loc 2 135 31 is_stmt 0 view .LVU1097
 2836 08fe BDF950E0 		ldrsh	lr, [sp, #80]
 2837 0902 1FFA8EFB 		uxth	fp, lr
 135:lvgl/src/draw/../misc/lv_area.h **** }
 2838              		.loc 2 135 44 view .LVU1098
 2839 0906 BDF94C20 		ldrsh	r2, [sp, #76]
 2840 090a 1FFA82FC 		uxth	ip, r2
 135:lvgl/src/draw/../misc/lv_area.h **** }
 2841              		.loc 2 135 36 view .LVU1099
 2842 090e ABEB0C0B 		sub	fp, fp, ip
 2843 0912 1FFA8BFB 		uxth	fp, fp
 135:lvgl/src/draw/../misc/lv_area.h **** }
 2844              		.loc 2 135 49 view .LVU1100
 2845 0916 0BF1010B 		add	fp, fp, #1
 135:lvgl/src/draw/../misc/lv_area.h **** }
 2846              		.loc 2 135 12 view .LVU1101
 2847 091a 0FFA8BFB 		sxth	fp, fp
 2848              	.LVL258:
 135:lvgl/src/draw/../misc/lv_area.h **** }
 2849              		.loc 2 135 12 view .LVU1102
 2850              	.LBE265:
 2851              	.LBE264:
 832:lvgl/src/draw/lv_draw_rect.c ****             sh_buf_tmp = sh_buf + (ca.x1 - a.x1);
 2852              		.loc 1 832 9 is_stmt 1 view .LVU1103
 832:lvgl/src/draw/lv_draw_rect.c ****             sh_buf_tmp = sh_buf + (ca.x1 - a.x1);
 2853              		.loc 1 832 11 is_stmt 0 view .LVU1104
 2854 091e BBF1000F 		cmp	fp, #0
 2855 0922 7FF7CDAE 		ble	.L105
 2856              	.LBB266:
 833:lvgl/src/draw/lv_draw_rect.c ****             sh_buf_tmp += corner_size * (a.y2 - ca.y2);
 2857              		.loc 1 833 13 is_stmt 1 view .LVU1105
 833:lvgl/src/draw/lv_draw_rect.c ****             sh_buf_tmp += corner_size * (a.y2 - ca.y2);
 2858              		.loc 1 833 45 is_stmt 0 view .LVU1106
 2859 0926 BDF95480 		ldrsh	r8, [sp, #84]
 833:lvgl/src/draw/lv_draw_rect.c ****             sh_buf_tmp += corner_size * (a.y2 - ca.y2);
 2860              		.loc 1 833 42 view .LVU1107
 2861 092a A2EB0808 		sub	r8, r2, r8
 2862              	.LVL259:
 834:lvgl/src/draw/lv_draw_rect.c **** 
ARM GAS  /var/folders/k2/cd9bl_j17z77g23y6ffqb_400000gn/T//cc0jKSMI.s 			page 91


 2863              		.loc 1 834 13 is_stmt 1 view .LVU1108
 834:lvgl/src/draw/lv_draw_rect.c **** 
 2864              		.loc 1 834 43 is_stmt 0 view .LVU1109
 2865 092e BDF95AC0 		ldrsh	ip, [sp, #90]
 834:lvgl/src/draw/lv_draw_rect.c **** 
 2866              		.loc 1 834 47 view .LVU1110
 2867 0932 ACEB030C 		sub	ip, ip, r3
 834:lvgl/src/draw/lv_draw_rect.c **** 
 2868              		.loc 1 834 24 view .LVU1111
 2869 0936 04FB0C88 		mla	r8, r4, ip, r8
 2870              	.LVL260:
 834:lvgl/src/draw/lv_draw_rect.c **** 
 2871              		.loc 1 834 24 view .LVU1112
 2872 093a 0799     		ldr	r1, [sp, #28]
 2873 093c 8844     		add	r8, r8, r1
 2874              	.LVL261:
 836:lvgl/src/draw/lv_draw_rect.c ****             lv_area_copy(&fa, &ca);
 2875              		.loc 1 836 13 is_stmt 1 view .LVU1113
 837:lvgl/src/draw/lv_draw_rect.c ****             fa.y1 = fa.y2;    /*Fill from bottom to top*/
 2876              		.loc 1 837 13 view .LVU1114
 2877              	.LBB267:
 2878              	.LBI267:
 120:lvgl/src/draw/../misc/lv_area.h **** {
 2879              		.loc 2 120 20 view .LVU1115
 2880              	.LBB268:
 122:lvgl/src/draw/../misc/lv_area.h ****     dest->y1 = src->y1;
 2881              		.loc 2 122 5 view .LVU1116
 122:lvgl/src/draw/../misc/lv_area.h ****     dest->y1 = src->y1;
 2882              		.loc 2 122 14 is_stmt 0 view .LVU1117
 2883 093e ADF84420 		strh	r2, [sp, #68]	@ movhi
 123:lvgl/src/draw/../misc/lv_area.h ****     dest->x2 = src->x2;
 2884              		.loc 2 123 5 is_stmt 1 view .LVU1118
 123:lvgl/src/draw/../misc/lv_area.h ****     dest->x2 = src->x2;
 2885              		.loc 2 123 14 is_stmt 0 view .LVU1119
 2886 0942 ADF84600 		strh	r0, [sp, #70]	@ movhi
 124:lvgl/src/draw/../misc/lv_area.h ****     dest->y2 = src->y2;
 2887              		.loc 2 124 5 is_stmt 1 view .LVU1120
 124:lvgl/src/draw/../misc/lv_area.h ****     dest->y2 = src->y2;
 2888              		.loc 2 124 14 is_stmt 0 view .LVU1121
 2889 0946 ADF848E0 		strh	lr, [sp, #72]	@ movhi
 125:lvgl/src/draw/../misc/lv_area.h **** }
 2890              		.loc 2 125 5 is_stmt 1 view .LVU1122
 125:lvgl/src/draw/../misc/lv_area.h **** }
 2891              		.loc 2 125 14 is_stmt 0 view .LVU1123
 2892 094a ADF84A30 		strh	r3, [sp, #74]	@ movhi
 2893              	.LVL262:
 125:lvgl/src/draw/../misc/lv_area.h **** }
 2894              		.loc 2 125 14 view .LVU1124
 2895              	.LBE268:
 2896              	.LBE267:
 838:lvgl/src/draw/lv_draw_rect.c **** 
 2897              		.loc 1 838 13 is_stmt 1 view .LVU1125
 838:lvgl/src/draw/lv_draw_rect.c **** 
 2898              		.loc 1 838 19 is_stmt 0 view .LVU1126
 2899 094e ADF84630 		strh	r3, [sp, #70]	@ movhi
 840:lvgl/src/draw/lv_draw_rect.c ****                 lv_memcpy(mask_buf, sh_buf_tmp, w);
 2900              		.loc 1 840 13 is_stmt 1 view .LVU1127
ARM GAS  /var/folders/k2/cd9bl_j17z77g23y6ffqb_400000gn/T//cc0jKSMI.s 			page 92


 2901              	.LVL263:
 840:lvgl/src/draw/lv_draw_rect.c ****                 lv_memcpy(mask_buf, sh_buf_tmp, w);
 2902              		.loc 1 840 19 is_stmt 0 view .LVU1128
 2903 0952 4FF00009 		mov	r9, #0
 2904 0956 0E97     		str	r7, [sp, #56]
 2905 0958 0D9F     		ldr	r7, [sp, #52]
 840:lvgl/src/draw/lv_draw_rect.c ****                 lv_memcpy(mask_buf, sh_buf_tmp, w);
 2906              		.loc 1 840 13 view .LVU1129
 2907 095a 17E0     		b	.L108
 2908              	.LVL264:
 2909              	.L109:
 845:lvgl/src/draw/lv_draw_rect.c ****                                mask_res, opa, dsc->blend_mode);
 2910              		.loc 1 845 17 is_stmt 1 discriminator 2 view .LVU1130
 2911 095c AB78     		ldrb	r3, [r5, #2]	@ zero_extendqisi2
 2912 095e 0293     		str	r3, [sp, #8]
 2913 0960 049B     		ldr	r3, [sp, #16]
 2914 0962 0193     		str	r3, [sp, #4]
 2915 0964 0090     		str	r0, [sp]
 2916 0966 3346     		mov	r3, r6
 2917 0968 6A6B     		ldr	r2, [r5, #52]
 2918 096a 11A9     		add	r1, sp, #68
 2919 096c 5046     		mov	r0, r10
 2920              	.LVL265:
 845:lvgl/src/draw/lv_draw_rect.c ****                                mask_res, opa, dsc->blend_mode);
 2921              		.loc 1 845 17 is_stmt 0 discriminator 2 view .LVU1131
 2922 096e FFF7FEFF 		bl	_lv_blend_fill
 2923              	.LVL266:
 847:lvgl/src/draw/lv_draw_rect.c ****                 fa.y2--;
 2924              		.loc 1 847 17 is_stmt 1 discriminator 2 view .LVU1132
 847:lvgl/src/draw/lv_draw_rect.c ****                 fa.y2--;
 2925              		.loc 1 847 19 is_stmt 0 discriminator 2 view .LVU1133
 2926 0972 BDF94630 		ldrsh	r3, [sp, #70]
 847:lvgl/src/draw/lv_draw_rect.c ****                 fa.y2--;
 2927              		.loc 1 847 22 discriminator 2 view .LVU1134
 2928 0976 013B     		subs	r3, r3, #1
 2929 0978 ADF84630 		strh	r3, [sp, #70]	@ movhi
 848:lvgl/src/draw/lv_draw_rect.c ****                 sh_buf_tmp += corner_size;
 2930              		.loc 1 848 17 is_stmt 1 discriminator 2 view .LVU1135
 848:lvgl/src/draw/lv_draw_rect.c ****                 sh_buf_tmp += corner_size;
 2931              		.loc 1 848 19 is_stmt 0 discriminator 2 view .LVU1136
 2932 097c BDF94A30 		ldrsh	r3, [sp, #74]
 848:lvgl/src/draw/lv_draw_rect.c ****                 sh_buf_tmp += corner_size;
 2933              		.loc 1 848 22 discriminator 2 view .LVU1137
 2934 0980 013B     		subs	r3, r3, #1
 2935 0982 ADF84A30 		strh	r3, [sp, #74]	@ movhi
 849:lvgl/src/draw/lv_draw_rect.c ****             }
 2936              		.loc 1 849 17 is_stmt 1 discriminator 2 view .LVU1138
 849:lvgl/src/draw/lv_draw_rect.c ****             }
 2937              		.loc 1 849 28 is_stmt 0 discriminator 2 view .LVU1139
 2938 0986 A044     		add	r8, r8, r4
 2939              	.LVL267:
 840:lvgl/src/draw/lv_draw_rect.c ****                 lv_memcpy(mask_buf, sh_buf_tmp, w);
 2940              		.loc 1 840 31 is_stmt 1 discriminator 2 view .LVU1140
 840:lvgl/src/draw/lv_draw_rect.c ****                 lv_memcpy(mask_buf, sh_buf_tmp, w);
 2941              		.loc 1 840 32 is_stmt 0 discriminator 2 view .LVU1141
 2942 0988 09F10109 		add	r9, r9, #1
 2943              	.LVL268:
ARM GAS  /var/folders/k2/cd9bl_j17z77g23y6ffqb_400000gn/T//cc0jKSMI.s 			page 93


 2944              	.L108:
 840:lvgl/src/draw/lv_draw_rect.c ****                 lv_memcpy(mask_buf, sh_buf_tmp, w);
 2945              		.loc 1 840 24 is_stmt 1 discriminator 1 view .LVU1142
 840:lvgl/src/draw/lv_draw_rect.c ****                 lv_memcpy(mask_buf, sh_buf_tmp, w);
 2946              		.loc 1 840 13 is_stmt 0 discriminator 1 view .LVU1143
 2947 098c 4F45     		cmp	r7, r9
 2948 098e 10DD     		ble	.L175
 841:lvgl/src/draw/lv_draw_rect.c ****                 mask_res = lv_draw_mask_apply(mask_buf, fa.x1, fa.y1, w);
 2949              		.loc 1 841 17 is_stmt 1 view .LVU1144
 2950 0990 5A46     		mov	r2, fp
 2951 0992 4146     		mov	r1, r8
 2952 0994 3046     		mov	r0, r6
 2953 0996 FFF7FEFF 		bl	lv_memcpy
 2954              	.LVL269:
 842:lvgl/src/draw/lv_draw_rect.c ****                 if(mask_res == LV_DRAW_MASK_RES_FULL_COVER) mask_res = LV_DRAW_MASK_RES_CHANGED;
 2955              		.loc 1 842 17 view .LVU1145
 842:lvgl/src/draw/lv_draw_rect.c ****                 if(mask_res == LV_DRAW_MASK_RES_FULL_COVER) mask_res = LV_DRAW_MASK_RES_CHANGED;
 2956              		.loc 1 842 28 is_stmt 0 view .LVU1146
 2957 099a 5B46     		mov	r3, fp
 2958 099c BDF94620 		ldrsh	r2, [sp, #70]
 2959 09a0 BDF94410 		ldrsh	r1, [sp, #68]
 2960 09a4 3046     		mov	r0, r6
 2961 09a6 FFF7FEFF 		bl	lv_draw_mask_apply
 2962              	.LVL270:
 843:lvgl/src/draw/lv_draw_rect.c **** 
 2963              		.loc 1 843 17 is_stmt 1 view .LVU1147
 843:lvgl/src/draw/lv_draw_rect.c **** 
 2964              		.loc 1 843 19 is_stmt 0 view .LVU1148
 2965 09aa 0128     		cmp	r0, #1
 2966 09ac D6D1     		bne	.L109
 843:lvgl/src/draw/lv_draw_rect.c **** 
 2967              		.loc 1 843 70 view .LVU1149
 2968 09ae 0220     		movs	r0, #2
 2969              	.LVL271:
 843:lvgl/src/draw/lv_draw_rect.c **** 
 2970              		.loc 1 843 70 view .LVU1150
 2971 09b0 D4E7     		b	.L109
 2972              	.L175:
 843:lvgl/src/draw/lv_draw_rect.c **** 
 2973              		.loc 1 843 70 view .LVU1151
 2974 09b2 0E9F     		ldr	r7, [sp, #56]
 2975 09b4 84E6     		b	.L105
 2976              	.LVL272:
 2977              	.L170:
 843:lvgl/src/draw/lv_draw_rect.c **** 
 2978              		.loc 1 843 70 view .LVU1152
 2979              	.LBE266:
 2980              	.LBE261:
 861:lvgl/src/draw/lv_draw_rect.c ****         /*Avoid overlap in the middle with large radius*/
 2981              		.loc 1 861 19 discriminator 1 view .LVU1153
 2982 09b6 089A     		ldr	r2, [sp, #32]
 2983 09b8 1EA9     		add	r1, sp, #120
 2984 09ba 15A8     		add	r0, sp, #84
 2985              	.LVL273:
 861:lvgl/src/draw/lv_draw_rect.c ****         /*Avoid overlap in the middle with large radius*/
 2986              		.loc 1 861 19 discriminator 1 view .LVU1154
 2987 09bc FFF7FEFF 		bl	_lv_area_is_in
ARM GAS  /var/folders/k2/cd9bl_j17z77g23y6ffqb_400000gn/T//cc0jKSMI.s 			page 94


 2988              	.LVL274:
 861:lvgl/src/draw/lv_draw_rect.c ****         /*Avoid overlap in the middle with large radius*/
 2989              		.loc 1 861 16 discriminator 1 view .LVU1155
 2990 09c0 0028     		cmp	r0, #0
 2991 09c2 7FF499AE 		bne	.L111
 2992              	.LBB269:
 863:lvgl/src/draw/lv_draw_rect.c **** 
 2993              		.loc 1 863 9 is_stmt 1 view .LVU1156
 863:lvgl/src/draw/lv_draw_rect.c **** 
 2994              		.loc 1 863 14 is_stmt 0 view .LVU1157
 2995 09c6 BDF95030 		ldrsh	r3, [sp, #80]
 863:lvgl/src/draw/lv_draw_rect.c **** 
 2996              		.loc 1 863 11 view .LVU1158
 2997 09ca 0A9A     		ldr	r2, [sp, #40]
 2998 09cc 9342     		cmp	r3, r2
 2999 09ce 01DD     		ble	.L112
 863:lvgl/src/draw/lv_draw_rect.c **** 
 3000              		.loc 1 863 28 is_stmt 1 discriminator 1 view .LVU1159
 863:lvgl/src/draw/lv_draw_rect.c **** 
 3001              		.loc 1 863 34 is_stmt 0 discriminator 1 view .LVU1160
 3002 09d0 ADF85020 		strh	r2, [sp, #80]	@ movhi
 3003              	.L112:
 865:lvgl/src/draw/lv_draw_rect.c ****         /*Draw vertical lines*/
 3004              		.loc 1 865 9 is_stmt 1 view .LVU1161
 865:lvgl/src/draw/lv_draw_rect.c ****         /*Draw vertical lines*/
 3005              		.loc 1 865 11 is_stmt 0 view .LVU1162
 3006 09d4 069B     		ldr	r3, [sp, #24]
 3007 09d6 4BB1     		cbz	r3, .L113
 865:lvgl/src/draw/lv_draw_rect.c ****         /*Draw vertical lines*/
 3008              		.loc 1 865 25 is_stmt 1 discriminator 1 view .LVU1163
 865:lvgl/src/draw/lv_draw_rect.c ****         /*Draw vertical lines*/
 3009              		.loc 1 865 33 is_stmt 0 discriminator 1 view .LVU1164
 3010 09d8 BDF95030 		ldrsh	r3, [sp, #80]
 3011 09dc 059A     		ldr	r2, [sp, #20]
 3012 09de B2F90020 		ldrsh	r2, [r2]
 3013 09e2 9342     		cmp	r3, r2
 3014 09e4 A8BF     		it	ge
 3015 09e6 1346     		movge	r3, r2
 865:lvgl/src/draw/lv_draw_rect.c ****         /*Draw vertical lines*/
 3016              		.loc 1 865 31 discriminator 1 view .LVU1165
 3017 09e8 ADF85030 		strh	r3, [sp, #80]	@ movhi
 3018              	.L113:
 867:lvgl/src/draw/lv_draw_rect.c ****         if(w > 0) {
 3019              		.loc 1 867 9 is_stmt 1 view .LVU1166
 3020              	.LVL275:
 3021              	.LBB270:
 3022              	.LBI270:
 133:lvgl/src/draw/../misc/lv_area.h **** {
 3023              		.loc 2 133 26 view .LVU1167
 3024              	.LBB271:
 135:lvgl/src/draw/../misc/lv_area.h **** }
 3025              		.loc 2 135 5 view .LVU1168
 135:lvgl/src/draw/../misc/lv_area.h **** }
 3026              		.loc 2 135 31 is_stmt 0 view .LVU1169
 3027 09ec BDF95020 		ldrsh	r2, [sp, #80]
 3028 09f0 1FFA82F9 		uxth	r9, r2
 135:lvgl/src/draw/../misc/lv_area.h **** }
ARM GAS  /var/folders/k2/cd9bl_j17z77g23y6ffqb_400000gn/T//cc0jKSMI.s 			page 95


 3029              		.loc 2 135 44 view .LVU1170
 3030 09f4 BDF94C30 		ldrsh	r3, [sp, #76]
 3031 09f8 99B2     		uxth	r1, r3
 135:lvgl/src/draw/../misc/lv_area.h **** }
 3032              		.loc 2 135 36 view .LVU1171
 3033 09fa A9EB0109 		sub	r9, r9, r1
 3034 09fe 1FFA89F9 		uxth	r9, r9
 135:lvgl/src/draw/../misc/lv_area.h **** }
 3035              		.loc 2 135 49 view .LVU1172
 3036 0a02 09F10109 		add	r9, r9, #1
 135:lvgl/src/draw/../misc/lv_area.h **** }
 3037              		.loc 2 135 12 view .LVU1173
 3038 0a06 0FFA89F9 		sxth	r9, r9
 3039              	.LVL276:
 135:lvgl/src/draw/../misc/lv_area.h **** }
 3040              		.loc 2 135 12 view .LVU1174
 3041              	.LBE271:
 3042              	.LBE270:
 868:lvgl/src/draw/lv_draw_rect.c ****             lv_coord_t h = lv_area_get_height(&ca);
 3043              		.loc 1 868 9 is_stmt 1 view .LVU1175
 868:lvgl/src/draw/lv_draw_rect.c ****             lv_coord_t h = lv_area_get_height(&ca);
 3044              		.loc 1 868 11 is_stmt 0 view .LVU1176
 3045 0a0a B9F1000F 		cmp	r9, #0
 3046 0a0e 7FF773AE 		ble	.L111
 3047              	.LBB272:
 869:lvgl/src/draw/lv_draw_rect.c ****             /*The last line of the shadow is repeated on the side*/
 3048              		.loc 1 869 13 is_stmt 1 view .LVU1177
 3049              	.LVL277:
 3050              	.LBB273:
 3051              	.LBI273:
 143:lvgl/src/draw/../misc/lv_area.h **** {
 3052              		.loc 2 143 26 view .LVU1178
 3053              	.LBB274:
 3054              		.loc 2 145 5 view .LVU1179
 3055              		.loc 2 145 31 is_stmt 0 view .LVU1180
 3056 0a12 BDF95280 		ldrsh	r8, [sp, #82]
 3057 0a16 1FFA88FB 		uxth	fp, r8
 3058              		.loc 2 145 44 view .LVU1181
 3059 0a1a BDF94E10 		ldrsh	r1, [sp, #78]
 3060 0a1e 1FFA81FC 		uxth	ip, r1
 3061              		.loc 2 145 36 view .LVU1182
 3062 0a22 ABEB0C0B 		sub	fp, fp, ip
 3063 0a26 1FFA8BFB 		uxth	fp, fp
 3064              		.loc 2 145 49 view .LVU1183
 3065 0a2a 0BF1010B 		add	fp, fp, #1
 3066              		.loc 2 145 12 view .LVU1184
 3067 0a2e 0FFA8BFB 		sxth	fp, fp
 3068              	.LVL278:
 3069              		.loc 2 145 12 view .LVU1185
 3070              	.LBE274:
 3071              	.LBE273:
 871:lvgl/src/draw/lv_draw_rect.c ****             sh_buf_tmp += ca.x1 - a.x1;
 3072              		.loc 1 871 13 is_stmt 1 view .LVU1186
 871:lvgl/src/draw/lv_draw_rect.c ****             sh_buf_tmp += ca.x1 - a.x1;
 3073              		.loc 1 871 62 is_stmt 0 view .LVU1187
 3074 0a32 04F1FF3E 		add	lr, r4, #-1
 872:lvgl/src/draw/lv_draw_rect.c **** 
ARM GAS  /var/folders/k2/cd9bl_j17z77g23y6ffqb_400000gn/T//cc0jKSMI.s 			page 96


 3075              		.loc 1 872 13 is_stmt 1 view .LVU1188
 872:lvgl/src/draw/lv_draw_rect.c **** 
 3076              		.loc 1 872 36 is_stmt 0 view .LVU1189
 3077 0a36 BDF954C0 		ldrsh	ip, [sp, #84]
 872:lvgl/src/draw/lv_draw_rect.c **** 
 3078              		.loc 1 872 33 view .LVU1190
 3079 0a3a A3EB0C0C 		sub	ip, r3, ip
 872:lvgl/src/draw/lv_draw_rect.c **** 
 3080              		.loc 1 872 24 view .LVU1191
 3081 0a3e 04FB0ECC 		mla	ip, r4, lr, ip
 3082 0a42 0798     		ldr	r0, [sp, #28]
 3083 0a44 6044     		add	r0, r0, ip
 3084              	.LVL279:
 874:lvgl/src/draw/lv_draw_rect.c ****             lv_area_copy(&fa, &ca);
 3085              		.loc 1 874 13 is_stmt 1 view .LVU1192
 875:lvgl/src/draw/lv_draw_rect.c ****             fa.y2 = fa.y1;
 3086              		.loc 1 875 13 view .LVU1193
 3087              	.LBB275:
 3088              	.LBI275:
 120:lvgl/src/draw/../misc/lv_area.h **** {
 3089              		.loc 2 120 20 view .LVU1194
 3090              	.LBB276:
 122:lvgl/src/draw/../misc/lv_area.h ****     dest->y1 = src->y1;
 3091              		.loc 2 122 5 view .LVU1195
 122:lvgl/src/draw/../misc/lv_area.h ****     dest->y1 = src->y1;
 3092              		.loc 2 122 14 is_stmt 0 view .LVU1196
 3093 0a46 ADF84430 		strh	r3, [sp, #68]	@ movhi
 123:lvgl/src/draw/../misc/lv_area.h ****     dest->x2 = src->x2;
 3094              		.loc 2 123 5 is_stmt 1 view .LVU1197
 123:lvgl/src/draw/../misc/lv_area.h ****     dest->x2 = src->x2;
 3095              		.loc 2 123 14 is_stmt 0 view .LVU1198
 3096 0a4a ADF84610 		strh	r1, [sp, #70]	@ movhi
 124:lvgl/src/draw/../misc/lv_area.h ****     dest->y2 = src->y2;
 3097              		.loc 2 124 5 is_stmt 1 view .LVU1199
 124:lvgl/src/draw/../misc/lv_area.h ****     dest->y2 = src->y2;
 3098              		.loc 2 124 14 is_stmt 0 view .LVU1200
 3099 0a4e ADF84820 		strh	r2, [sp, #72]	@ movhi
 125:lvgl/src/draw/../misc/lv_area.h **** }
 3100              		.loc 2 125 5 is_stmt 1 view .LVU1201
 125:lvgl/src/draw/../misc/lv_area.h **** }
 3101              		.loc 2 125 14 is_stmt 0 view .LVU1202
 3102 0a52 ADF84A80 		strh	r8, [sp, #74]	@ movhi
 3103              	.LVL280:
 125:lvgl/src/draw/../misc/lv_area.h **** }
 3104              		.loc 2 125 14 view .LVU1203
 3105              	.LBE276:
 3106              	.LBE275:
 876:lvgl/src/draw/lv_draw_rect.c ****             for(y = 0; y < h; y++) {
 3107              		.loc 1 876 13 is_stmt 1 view .LVU1204
 876:lvgl/src/draw/lv_draw_rect.c ****             for(y = 0; y < h; y++) {
 3108              		.loc 1 876 19 is_stmt 0 view .LVU1205
 3109 0a56 ADF84A10 		strh	r1, [sp, #74]	@ movhi
 877:lvgl/src/draw/lv_draw_rect.c ****                 lv_memcpy(mask_buf, sh_buf_tmp, w);
 3110              		.loc 1 877 13 is_stmt 1 view .LVU1206
 3111              	.LVL281:
 877:lvgl/src/draw/lv_draw_rect.c ****                 lv_memcpy(mask_buf, sh_buf_tmp, w);
 3112              		.loc 1 877 19 is_stmt 0 view .LVU1207
ARM GAS  /var/folders/k2/cd9bl_j17z77g23y6ffqb_400000gn/T//cc0jKSMI.s 			page 97


 3113 0a5a 4FF00008 		mov	r8, #0
 3114 0a5e 0A97     		str	r7, [sp, #40]
 3115              	.LVL282:
 877:lvgl/src/draw/lv_draw_rect.c ****                 lv_memcpy(mask_buf, sh_buf_tmp, w);
 3116              		.loc 1 877 19 view .LVU1208
 3117 0a60 0D94     		str	r4, [sp, #52]
 3118 0a62 069C     		ldr	r4, [sp, #24]
 3119 0a64 0746     		mov	r7, r0
 877:lvgl/src/draw/lv_draw_rect.c ****                 lv_memcpy(mask_buf, sh_buf_tmp, w);
 3120              		.loc 1 877 13 view .LVU1209
 3121 0a66 21E0     		b	.L114
 3122              	.LVL283:
 3123              	.L178:
 883:lvgl/src/draw/lv_draw_rect.c ****                     if(mask_res == LV_DRAW_MASK_RES_FULL_COVER) mask_res = LV_DRAW_MASK_RES_CHANGED
 3124              		.loc 1 883 21 is_stmt 1 view .LVU1210
 883:lvgl/src/draw/lv_draw_rect.c ****                     if(mask_res == LV_DRAW_MASK_RES_FULL_COVER) mask_res = LV_DRAW_MASK_RES_CHANGED
 3125              		.loc 1 883 32 is_stmt 0 view .LVU1211
 3126 0a68 4B46     		mov	r3, r9
 3127 0a6a BDF94620 		ldrsh	r2, [sp, #70]
 3128 0a6e BDF94410 		ldrsh	r1, [sp, #68]
 3129 0a72 3046     		mov	r0, r6
 3130 0a74 FFF7FEFF 		bl	lv_draw_mask_apply
 3131              	.LVL284:
 884:lvgl/src/draw/lv_draw_rect.c ****                 }
 3132              		.loc 1 884 21 is_stmt 1 view .LVU1212
 884:lvgl/src/draw/lv_draw_rect.c ****                 }
 3133              		.loc 1 884 23 is_stmt 0 view .LVU1213
 3134 0a78 0128     		cmp	r0, #1
 3135 0a7a 22D0     		beq	.L176
 3136              	.LVL285:
 3137              	.L115:
 887:lvgl/src/draw/lv_draw_rect.c ****                                dsc->shadow_color, mask_buf, mask_res, dsc->shadow_opa, dsc->blend_m
 3138              		.loc 1 887 17 is_stmt 1 discriminator 2 view .LVU1214
 3139 0a7c AB78     		ldrb	r3, [r5, #2]	@ zero_extendqisi2
 3140 0a7e 0293     		str	r3, [sp, #8]
 3141 0a80 95F84030 		ldrb	r3, [r5, #64]	@ zero_extendqisi2
 3142 0a84 0193     		str	r3, [sp, #4]
 3143 0a86 0090     		str	r0, [sp]
 3144 0a88 3346     		mov	r3, r6
 3145 0a8a 6A6B     		ldr	r2, [r5, #52]
 3146 0a8c 11A9     		add	r1, sp, #68
 3147 0a8e 5046     		mov	r0, r10
 3148              	.LVL286:
 887:lvgl/src/draw/lv_draw_rect.c ****                                dsc->shadow_color, mask_buf, mask_res, dsc->shadow_opa, dsc->blend_m
 3149              		.loc 1 887 17 is_stmt 0 discriminator 2 view .LVU1215
 3150 0a90 FFF7FEFF 		bl	_lv_blend_fill
 3151              	.LVL287:
 889:lvgl/src/draw/lv_draw_rect.c ****                 fa.y2++;
 3152              		.loc 1 889 17 is_stmt 1 discriminator 2 view .LVU1216
 889:lvgl/src/draw/lv_draw_rect.c ****                 fa.y2++;
 3153              		.loc 1 889 19 is_stmt 0 discriminator 2 view .LVU1217
 3154 0a94 BDF94630 		ldrsh	r3, [sp, #70]
 889:lvgl/src/draw/lv_draw_rect.c ****                 fa.y2++;
 3155              		.loc 1 889 22 discriminator 2 view .LVU1218
 3156 0a98 0133     		adds	r3, r3, #1
 3157 0a9a ADF84630 		strh	r3, [sp, #70]	@ movhi
 890:lvgl/src/draw/lv_draw_rect.c ****             }
ARM GAS  /var/folders/k2/cd9bl_j17z77g23y6ffqb_400000gn/T//cc0jKSMI.s 			page 98


 3158              		.loc 1 890 17 is_stmt 1 discriminator 2 view .LVU1219
 890:lvgl/src/draw/lv_draw_rect.c ****             }
 3159              		.loc 1 890 19 is_stmt 0 discriminator 2 view .LVU1220
 3160 0a9e BDF94A30 		ldrsh	r3, [sp, #74]
 890:lvgl/src/draw/lv_draw_rect.c ****             }
 3161              		.loc 1 890 22 discriminator 2 view .LVU1221
 3162 0aa2 0133     		adds	r3, r3, #1
 3163 0aa4 ADF84A30 		strh	r3, [sp, #74]	@ movhi
 877:lvgl/src/draw/lv_draw_rect.c ****                 lv_memcpy(mask_buf, sh_buf_tmp, w);
 3164              		.loc 1 877 31 is_stmt 1 discriminator 2 view .LVU1222
 877:lvgl/src/draw/lv_draw_rect.c ****                 lv_memcpy(mask_buf, sh_buf_tmp, w);
 3165              		.loc 1 877 32 is_stmt 0 discriminator 2 view .LVU1223
 3166 0aa8 08F10108 		add	r8, r8, #1
 3167              	.LVL288:
 3168              	.L114:
 877:lvgl/src/draw/lv_draw_rect.c ****                 lv_memcpy(mask_buf, sh_buf_tmp, w);
 3169              		.loc 1 877 24 is_stmt 1 discriminator 1 view .LVU1224
 877:lvgl/src/draw/lv_draw_rect.c ****                 lv_memcpy(mask_buf, sh_buf_tmp, w);
 3170              		.loc 1 877 13 is_stmt 0 discriminator 1 view .LVU1225
 3171 0aac C345     		cmp	fp, r8
 3172 0aae 0ADD     		ble	.L177
 878:lvgl/src/draw/lv_draw_rect.c ****                 if(simple_mode) {
 3173              		.loc 1 878 17 is_stmt 1 view .LVU1226
 3174 0ab0 4A46     		mov	r2, r9
 3175 0ab2 3946     		mov	r1, r7
 3176 0ab4 3046     		mov	r0, r6
 3177 0ab6 FFF7FEFF 		bl	lv_memcpy
 3178              	.LVL289:
 879:lvgl/src/draw/lv_draw_rect.c ****                     mask_res = LV_DRAW_MASK_RES_CHANGED;
 3179              		.loc 1 879 17 view .LVU1227
 879:lvgl/src/draw/lv_draw_rect.c ****                     mask_res = LV_DRAW_MASK_RES_CHANGED;
 3180              		.loc 1 879 19 is_stmt 0 view .LVU1228
 3181 0aba 002C     		cmp	r4, #0
 3182 0abc D4D0     		beq	.L178
 880:lvgl/src/draw/lv_draw_rect.c ****                 }
 3183              		.loc 1 880 30 view .LVU1229
 3184 0abe 0220     		movs	r0, #2
 3185 0ac0 DCE7     		b	.L115
 3186              	.LVL290:
 3187              	.L176:
 884:lvgl/src/draw/lv_draw_rect.c ****                 }
 3188              		.loc 1 884 74 view .LVU1230
 3189 0ac2 0220     		movs	r0, #2
 3190              	.LVL291:
 884:lvgl/src/draw/lv_draw_rect.c ****                 }
 3191              		.loc 1 884 74 view .LVU1231
 3192 0ac4 DAE7     		b	.L115
 3193              	.L177:
 884:lvgl/src/draw/lv_draw_rect.c ****                 }
 3194              		.loc 1 884 74 view .LVU1232
 3195 0ac6 0A9F     		ldr	r7, [sp, #40]
 3196              	.LVL292:
 884:lvgl/src/draw/lv_draw_rect.c ****                 }
 3197              		.loc 1 884 74 view .LVU1233
 3198 0ac8 0D9C     		ldr	r4, [sp, #52]
 3199 0aca 15E6     		b	.L111
 3200              	.LVL293:
ARM GAS  /var/folders/k2/cd9bl_j17z77g23y6ffqb_400000gn/T//cc0jKSMI.s 			page 99


 3201              	.L171:
 884:lvgl/src/draw/lv_draw_rect.c ****                 }
 3202              		.loc 1 884 74 view .LVU1234
 3203              	.LBE272:
 3204              	.LBE269:
 902:lvgl/src/draw/lv_draw_rect.c ****         /*Avoid overlap in the middle with large radius*/
 3205              		.loc 1 902 19 discriminator 1 view .LVU1235
 3206 0acc 089A     		ldr	r2, [sp, #32]
 3207 0ace 1EA9     		add	r1, sp, #120
 3208 0ad0 15A8     		add	r0, sp, #84
 3209              	.LVL294:
 902:lvgl/src/draw/lv_draw_rect.c ****         /*Avoid overlap in the middle with large radius*/
 3210              		.loc 1 902 19 discriminator 1 view .LVU1236
 3211 0ad2 FFF7FEFF 		bl	_lv_area_is_in
 3212              	.LVL295:
 902:lvgl/src/draw/lv_draw_rect.c ****         /*Avoid overlap in the middle with large radius*/
 3213              		.loc 1 902 16 discriminator 1 view .LVU1237
 3214 0ad6 0028     		cmp	r0, #0
 3215 0ad8 7FF42AAE 		bne	.L117
 3216              	.LBB277:
 904:lvgl/src/draw/lv_draw_rect.c **** 
 3217              		.loc 1 904 9 is_stmt 1 view .LVU1238
 904:lvgl/src/draw/lv_draw_rect.c **** 
 3218              		.loc 1 904 14 is_stmt 0 view .LVU1239
 3219 0adc BDF95230 		ldrsh	r3, [sp, #82]
 904:lvgl/src/draw/lv_draw_rect.c **** 
 3220              		.loc 1 904 11 view .LVU1240
 3221 0ae0 0B9A     		ldr	r2, [sp, #44]
 3222 0ae2 9342     		cmp	r3, r2
 3223 0ae4 01DD     		ble	.L118
 904:lvgl/src/draw/lv_draw_rect.c **** 
 3224              		.loc 1 904 28 is_stmt 1 discriminator 1 view .LVU1241
 904:lvgl/src/draw/lv_draw_rect.c **** 
 3225              		.loc 1 904 34 is_stmt 0 discriminator 1 view .LVU1242
 3226 0ae6 ADF85220 		strh	r2, [sp, #82]	@ movhi
 3227              	.L118:
 906:lvgl/src/draw/lv_draw_rect.c **** 
 3228              		.loc 1 906 9 is_stmt 1 view .LVU1243
 906:lvgl/src/draw/lv_draw_rect.c **** 
 3229              		.loc 1 906 11 is_stmt 0 view .LVU1244
 3230 0aea 069B     		ldr	r3, [sp, #24]
 3231 0aec 4BB1     		cbz	r3, .L119
 906:lvgl/src/draw/lv_draw_rect.c **** 
 3232              		.loc 1 906 25 is_stmt 1 discriminator 1 view .LVU1245
 906:lvgl/src/draw/lv_draw_rect.c **** 
 3233              		.loc 1 906 33 is_stmt 0 discriminator 1 view .LVU1246
 3234 0aee 059B     		ldr	r3, [sp, #20]
 3235 0af0 B3F90230 		ldrsh	r3, [r3, #2]
 3236 0af4 BDF95220 		ldrsh	r2, [sp, #82]
 3237 0af8 9342     		cmp	r3, r2
 3238 0afa A8BF     		it	ge
 3239 0afc 1346     		movge	r3, r2
 906:lvgl/src/draw/lv_draw_rect.c **** 
 3240              		.loc 1 906 31 discriminator 1 view .LVU1247
 3241 0afe ADF85230 		strh	r3, [sp, #82]	@ movhi
 3242              	.L119:
 909:lvgl/src/draw/lv_draw_rect.c ****         lv_coord_t h = lv_area_get_height(&ca);
ARM GAS  /var/folders/k2/cd9bl_j17z77g23y6ffqb_400000gn/T//cc0jKSMI.s 			page 100


 3243              		.loc 1 909 9 is_stmt 1 view .LVU1248
 3244              	.LVL296:
 3245              	.LBB278:
 3246              	.LBI278:
 133:lvgl/src/draw/../misc/lv_area.h **** {
 3247              		.loc 2 133 26 view .LVU1249
 3248              	.LBB279:
 135:lvgl/src/draw/../misc/lv_area.h **** }
 3249              		.loc 2 135 5 view .LVU1250
 135:lvgl/src/draw/../misc/lv_area.h **** }
 3250              		.loc 2 135 31 is_stmt 0 view .LVU1251
 3251 0b02 BDF95010 		ldrsh	r1, [sp, #80]
 3252 0b06 8BB2     		uxth	r3, r1
 135:lvgl/src/draw/../misc/lv_area.h **** }
 3253              		.loc 2 135 44 view .LVU1252
 3254 0b08 BDF94C00 		ldrsh	r0, [sp, #76]
 3255 0b0c 82B2     		uxth	r2, r0
 135:lvgl/src/draw/../misc/lv_area.h **** }
 3256              		.loc 2 135 36 view .LVU1253
 3257 0b0e 9B1A     		subs	r3, r3, r2
 3258 0b10 9BB2     		uxth	r3, r3
 135:lvgl/src/draw/../misc/lv_area.h **** }
 3259              		.loc 2 135 49 view .LVU1254
 3260 0b12 0133     		adds	r3, r3, #1
 135:lvgl/src/draw/../misc/lv_area.h **** }
 3261              		.loc 2 135 12 view .LVU1255
 3262 0b14 1BB2     		sxth	r3, r3
 3263 0b16 0A93     		str	r3, [sp, #40]
 3264              	.LVL297:
 135:lvgl/src/draw/../misc/lv_area.h **** }
 3265              		.loc 2 135 12 view .LVU1256
 3266              	.LBE279:
 3267              	.LBE278:
 910:lvgl/src/draw/lv_draw_rect.c ****         sh_buf_tmp = sh_buf + corner_size - 1;
 3268              		.loc 1 910 9 is_stmt 1 view .LVU1257
 3269              	.LBB280:
 3270              	.LBI280:
 143:lvgl/src/draw/../misc/lv_area.h **** {
 3271              		.loc 2 143 26 view .LVU1258
 3272              	.LBB281:
 3273              		.loc 2 145 5 view .LVU1259
 3274              		.loc 2 145 31 is_stmt 0 view .LVU1260
 3275 0b18 BDF952E0 		ldrsh	lr, [sp, #82]
 3276 0b1c 1FFA8EFB 		uxth	fp, lr
 3277              		.loc 2 145 44 view .LVU1261
 3278 0b20 BDF94E30 		ldrsh	r3, [sp, #78]
 3279 0b24 1FFA83FC 		uxth	ip, r3
 3280              		.loc 2 145 36 view .LVU1262
 3281 0b28 ABEB0C0B 		sub	fp, fp, ip
 3282 0b2c 1FFA8BFB 		uxth	fp, fp
 3283              		.loc 2 145 49 view .LVU1263
 3284 0b30 0BF1010B 		add	fp, fp, #1
 3285              		.loc 2 145 12 view .LVU1264
 3286 0b34 0FFA8BFB 		sxth	fp, fp
 3287              	.LVL298:
 3288              		.loc 2 145 12 view .LVU1265
 3289              	.LBE281:
ARM GAS  /var/folders/k2/cd9bl_j17z77g23y6ffqb_400000gn/T//cc0jKSMI.s 			page 101


 3290              	.LBE280:
 911:lvgl/src/draw/lv_draw_rect.c ****         sh_buf_tmp += corner_size * (ca.y1 - a.y1);
 3291              		.loc 1 911 9 is_stmt 1 view .LVU1266
 911:lvgl/src/draw/lv_draw_rect.c ****         sh_buf_tmp += corner_size * (ca.y1 - a.y1);
 3292              		.loc 1 911 43 is_stmt 0 view .LVU1267
 3293 0b38 04F1FF38 		add	r8, r4, #-1
 912:lvgl/src/draw/lv_draw_rect.c **** 
 3294              		.loc 1 912 9 is_stmt 1 view .LVU1268
 912:lvgl/src/draw/lv_draw_rect.c **** 
 3295              		.loc 1 912 47 is_stmt 0 view .LVU1269
 3296 0b3c BDF956C0 		ldrsh	ip, [sp, #86]
 912:lvgl/src/draw/lv_draw_rect.c **** 
 3297              		.loc 1 912 44 view .LVU1270
 3298 0b40 A3EB0C0C 		sub	ip, r3, ip
 912:lvgl/src/draw/lv_draw_rect.c **** 
 3299              		.loc 1 912 20 view .LVU1271
 3300 0b44 04FB0C88 		mla	r8, r4, ip, r8
 3301 0b48 079A     		ldr	r2, [sp, #28]
 3302 0b4a 9044     		add	r8, r8, r2
 3303              	.LVL299:
 914:lvgl/src/draw/lv_draw_rect.c ****         lv_area_copy(&fa, &ca);
 3304              		.loc 1 914 9 is_stmt 1 view .LVU1272
 915:lvgl/src/draw/lv_draw_rect.c ****         fa.y2 = fa.y1;
 3305              		.loc 1 915 9 view .LVU1273
 3306              	.LBB282:
 3307              	.LBI282:
 120:lvgl/src/draw/../misc/lv_area.h **** {
 3308              		.loc 2 120 20 view .LVU1274
 3309              	.LBB283:
 122:lvgl/src/draw/../misc/lv_area.h ****     dest->y1 = src->y1;
 3310              		.loc 2 122 5 view .LVU1275
 122:lvgl/src/draw/../misc/lv_area.h ****     dest->y1 = src->y1;
 3311              		.loc 2 122 14 is_stmt 0 view .LVU1276
 3312 0b4c ADF84400 		strh	r0, [sp, #68]	@ movhi
 123:lvgl/src/draw/../misc/lv_area.h ****     dest->x2 = src->x2;
 3313              		.loc 2 123 5 is_stmt 1 view .LVU1277
 123:lvgl/src/draw/../misc/lv_area.h ****     dest->x2 = src->x2;
 3314              		.loc 2 123 14 is_stmt 0 view .LVU1278
 3315 0b50 ADF84630 		strh	r3, [sp, #70]	@ movhi
 124:lvgl/src/draw/../misc/lv_area.h ****     dest->y2 = src->y2;
 3316              		.loc 2 124 5 is_stmt 1 view .LVU1279
 124:lvgl/src/draw/../misc/lv_area.h ****     dest->y2 = src->y2;
 3317              		.loc 2 124 14 is_stmt 0 view .LVU1280
 3318 0b54 ADF84810 		strh	r1, [sp, #72]	@ movhi
 125:lvgl/src/draw/../misc/lv_area.h **** }
 3319              		.loc 2 125 5 is_stmt 1 view .LVU1281
 125:lvgl/src/draw/../misc/lv_area.h **** }
 3320              		.loc 2 125 14 is_stmt 0 view .LVU1282
 3321 0b58 ADF84AE0 		strh	lr, [sp, #74]	@ movhi
 3322              	.LVL300:
 125:lvgl/src/draw/../misc/lv_area.h **** }
 3323              		.loc 2 125 14 view .LVU1283
 3324              	.LBE283:
 3325              	.LBE282:
 916:lvgl/src/draw/lv_draw_rect.c ****         mask_res = LV_DRAW_MASK_RES_FULL_COVER;
 3326              		.loc 1 916 9 is_stmt 1 view .LVU1284
 916:lvgl/src/draw/lv_draw_rect.c ****         mask_res = LV_DRAW_MASK_RES_FULL_COVER;
ARM GAS  /var/folders/k2/cd9bl_j17z77g23y6ffqb_400000gn/T//cc0jKSMI.s 			page 102


 3327              		.loc 1 916 15 is_stmt 0 view .LVU1285
 3328 0b5c ADF84A30 		strh	r3, [sp, #74]	@ movhi
 917:lvgl/src/draw/lv_draw_rect.c ****         for(y = 0; y < h; y++) {
 3329              		.loc 1 917 9 is_stmt 1 view .LVU1286
 3330              	.LVL301:
 918:lvgl/src/draw/lv_draw_rect.c ****             lv_opa_t opa_tmp = sh_buf_tmp[0];
 3331              		.loc 1 918 9 view .LVU1287
 918:lvgl/src/draw/lv_draw_rect.c ****             lv_opa_t opa_tmp = sh_buf_tmp[0];
 3332              		.loc 1 918 15 is_stmt 0 view .LVU1288
 3333 0b60 4FF00009 		mov	r9, #0
 3334 0b64 0D97     		str	r7, [sp, #52]
 3335 0b66 049F     		ldr	r7, [sp, #16]
 918:lvgl/src/draw/lv_draw_rect.c ****             lv_opa_t opa_tmp = sh_buf_tmp[0];
 3336              		.loc 1 918 9 view .LVU1289
 3337 0b68 22E0     		b	.L120
 3338              	.LVL302:
 3339              	.L121:
 3340              	.LBB284:
 920:lvgl/src/draw/lv_draw_rect.c **** 
 3341              		.loc 1 920 64 is_stmt 1 discriminator 3 view .LVU1290
 920:lvgl/src/draw/lv_draw_rect.c **** 
 3342              		.loc 1 920 79 is_stmt 0 discriminator 3 view .LVU1291
 3343 0b6a 07FB01F1 		mul	r1, r7, r1
 3344              	.LVL303:
 920:lvgl/src/draw/lv_draw_rect.c **** 
 3345              		.loc 1 920 72 discriminator 3 view .LVU1292
 3346 0b6e C1F30721 		ubfx	r1, r1, #8, #8
 3347              	.LVL304:
 3348              	.L122:
 922:lvgl/src/draw/lv_draw_rect.c **** 
 3349              		.loc 1 922 13 is_stmt 1 view .LVU1293
 3350 0b72 0A9A     		ldr	r2, [sp, #40]
 3351 0b74 3046     		mov	r0, r6
 3352 0b76 FFF7FEFF 		bl	lv_memset
 3353              	.LVL305:
 924:lvgl/src/draw/lv_draw_rect.c ****                 mask_res = LV_DRAW_MASK_RES_CHANGED;
 3354              		.loc 1 924 13 view .LVU1294
 924:lvgl/src/draw/lv_draw_rect.c ****                 mask_res = LV_DRAW_MASK_RES_CHANGED;
 3355              		.loc 1 924 15 is_stmt 0 view .LVU1295
 3356 0b7a 069B     		ldr	r3, [sp, #24]
 3357 0b7c 0BB3     		cbz	r3, .L179
 925:lvgl/src/draw/lv_draw_rect.c ****             }
 3358              		.loc 1 925 26 view .LVU1296
 3359 0b7e 0220     		movs	r0, #2
 3360              	.L123:
 3361              	.LVL306:
 932:lvgl/src/draw/lv_draw_rect.c ****                            mask_res, LV_OPA_COVER, dsc->blend_mode);
 3362              		.loc 1 932 13 is_stmt 1 discriminator 2 view .LVU1297
 3363 0b80 AB78     		ldrb	r3, [r5, #2]	@ zero_extendqisi2
 3364 0b82 0293     		str	r3, [sp, #8]
 3365 0b84 FF23     		movs	r3, #255
 3366 0b86 0193     		str	r3, [sp, #4]
 3367 0b88 0090     		str	r0, [sp]
 3368 0b8a 3346     		mov	r3, r6
 3369 0b8c 6A6B     		ldr	r2, [r5, #52]
 3370 0b8e 11A9     		add	r1, sp, #68
 3371 0b90 5046     		mov	r0, r10
ARM GAS  /var/folders/k2/cd9bl_j17z77g23y6ffqb_400000gn/T//cc0jKSMI.s 			page 103


 3372              	.LVL307:
 932:lvgl/src/draw/lv_draw_rect.c ****                            mask_res, LV_OPA_COVER, dsc->blend_mode);
 3373              		.loc 1 932 13 is_stmt 0 discriminator 2 view .LVU1298
 3374 0b92 FFF7FEFF 		bl	_lv_blend_fill
 3375              	.LVL308:
 934:lvgl/src/draw/lv_draw_rect.c ****             fa.y2++;
 3376              		.loc 1 934 13 is_stmt 1 discriminator 2 view .LVU1299
 934:lvgl/src/draw/lv_draw_rect.c ****             fa.y2++;
 3377              		.loc 1 934 15 is_stmt 0 discriminator 2 view .LVU1300
 3378 0b96 BDF94630 		ldrsh	r3, [sp, #70]
 934:lvgl/src/draw/lv_draw_rect.c ****             fa.y2++;
 3379              		.loc 1 934 18 discriminator 2 view .LVU1301
 3380 0b9a 0133     		adds	r3, r3, #1
 3381 0b9c ADF84630 		strh	r3, [sp, #70]	@ movhi
 935:lvgl/src/draw/lv_draw_rect.c ****             sh_buf_tmp += corner_size;
 3382              		.loc 1 935 13 is_stmt 1 discriminator 2 view .LVU1302
 935:lvgl/src/draw/lv_draw_rect.c ****             sh_buf_tmp += corner_size;
 3383              		.loc 1 935 15 is_stmt 0 discriminator 2 view .LVU1303
 3384 0ba0 BDF94A30 		ldrsh	r3, [sp, #74]
 935:lvgl/src/draw/lv_draw_rect.c ****             sh_buf_tmp += corner_size;
 3385              		.loc 1 935 18 discriminator 2 view .LVU1304
 3386 0ba4 0133     		adds	r3, r3, #1
 3387 0ba6 ADF84A30 		strh	r3, [sp, #74]	@ movhi
 936:lvgl/src/draw/lv_draw_rect.c ****         }
 3388              		.loc 1 936 13 is_stmt 1 discriminator 2 view .LVU1305
 936:lvgl/src/draw/lv_draw_rect.c ****         }
 3389              		.loc 1 936 24 is_stmt 0 discriminator 2 view .LVU1306
 3390 0baa A044     		add	r8, r8, r4
 3391              	.LVL309:
 936:lvgl/src/draw/lv_draw_rect.c ****         }
 3392              		.loc 1 936 24 discriminator 2 view .LVU1307
 3393              	.LBE284:
 918:lvgl/src/draw/lv_draw_rect.c ****             lv_opa_t opa_tmp = sh_buf_tmp[0];
 3394              		.loc 1 918 27 is_stmt 1 discriminator 2 view .LVU1308
 918:lvgl/src/draw/lv_draw_rect.c ****             lv_opa_t opa_tmp = sh_buf_tmp[0];
 3395              		.loc 1 918 28 is_stmt 0 discriminator 2 view .LVU1309
 3396 0bac 09F10109 		add	r9, r9, #1
 3397              	.LVL310:
 3398              	.L120:
 918:lvgl/src/draw/lv_draw_rect.c ****             lv_opa_t opa_tmp = sh_buf_tmp[0];
 3399              		.loc 1 918 20 is_stmt 1 discriminator 1 view .LVU1310
 918:lvgl/src/draw/lv_draw_rect.c ****             lv_opa_t opa_tmp = sh_buf_tmp[0];
 3400              		.loc 1 918 9 is_stmt 0 discriminator 1 view .LVU1311
 3401 0bb0 CB45     		cmp	fp, r9
 3402 0bb2 12DD     		ble	.L180
 3403              	.LBB285:
 919:lvgl/src/draw/lv_draw_rect.c ****             if(opa_tmp != LV_OPA_COVER || opa != LV_OPA_COVER) opa_tmp = (opa * opa_tmp) >> 8;
 3404              		.loc 1 919 13 is_stmt 1 view .LVU1312
 919:lvgl/src/draw/lv_draw_rect.c ****             if(opa_tmp != LV_OPA_COVER || opa != LV_OPA_COVER) opa_tmp = (opa * opa_tmp) >> 8;
 3405              		.loc 1 919 22 is_stmt 0 view .LVU1313
 3406 0bb4 98F80010 		ldrb	r1, [r8]	@ zero_extendqisi2
 3407              	.LVL311:
 920:lvgl/src/draw/lv_draw_rect.c **** 
 3408              		.loc 1 920 13 is_stmt 1 view .LVU1314
 920:lvgl/src/draw/lv_draw_rect.c **** 
 3409              		.loc 1 920 15 is_stmt 0 view .LVU1315
 3410 0bb8 FF29     		cmp	r1, #255
ARM GAS  /var/folders/k2/cd9bl_j17z77g23y6ffqb_400000gn/T//cc0jKSMI.s 			page 104


 3411 0bba D6D1     		bne	.L121
 920:lvgl/src/draw/lv_draw_rect.c **** 
 3412              		.loc 1 920 40 discriminator 2 view .LVU1316
 3413 0bbc FF2F     		cmp	r7, #255
 3414 0bbe D4D1     		bne	.L121
 3415 0bc0 D7E7     		b	.L122
 3416              	.LVL312:
 3417              	.L179:
 928:lvgl/src/draw/lv_draw_rect.c ****                 if(mask_res == LV_DRAW_MASK_RES_FULL_COVER) mask_res = LV_DRAW_MASK_RES_CHANGED;
 3418              		.loc 1 928 17 is_stmt 1 view .LVU1317
 928:lvgl/src/draw/lv_draw_rect.c ****                 if(mask_res == LV_DRAW_MASK_RES_FULL_COVER) mask_res = LV_DRAW_MASK_RES_CHANGED;
 3419              		.loc 1 928 28 is_stmt 0 view .LVU1318
 3420 0bc2 0A9B     		ldr	r3, [sp, #40]
 3421 0bc4 BDF94620 		ldrsh	r2, [sp, #70]
 3422 0bc8 BDF94410 		ldrsh	r1, [sp, #68]
 3423 0bcc 3046     		mov	r0, r6
 3424 0bce FFF7FEFF 		bl	lv_draw_mask_apply
 3425              	.LVL313:
 929:lvgl/src/draw/lv_draw_rect.c ****             }
 3426              		.loc 1 929 17 is_stmt 1 view .LVU1319
 929:lvgl/src/draw/lv_draw_rect.c ****             }
 3427              		.loc 1 929 19 is_stmt 0 view .LVU1320
 3428 0bd2 0128     		cmp	r0, #1
 3429 0bd4 D4D1     		bne	.L123
 929:lvgl/src/draw/lv_draw_rect.c ****             }
 3430              		.loc 1 929 70 view .LVU1321
 3431 0bd6 0220     		movs	r0, #2
 3432              	.LVL314:
 929:lvgl/src/draw/lv_draw_rect.c ****             }
 3433              		.loc 1 929 70 view .LVU1322
 3434 0bd8 D2E7     		b	.L123
 3435              	.L180:
 929:lvgl/src/draw/lv_draw_rect.c ****             }
 3436              		.loc 1 929 70 view .LVU1323
 3437 0bda 0D9F     		ldr	r7, [sp, #52]
 3438 0bdc A8E5     		b	.L117
 3439              	.LVL315:
 3440              	.L172:
 929:lvgl/src/draw/lv_draw_rect.c ****             }
 3441              		.loc 1 929 70 view .LVU1324
 3442              	.LBE285:
 3443              	.LBE277:
 947:lvgl/src/draw/lv_draw_rect.c ****         /*Avoid overlap in the middle with large radius*/
 3444              		.loc 1 947 19 discriminator 1 view .LVU1325
 3445 0bde 089A     		ldr	r2, [sp, #32]
 3446 0be0 1EA9     		add	r1, sp, #120
 3447 0be2 15A8     		add	r0, sp, #84
 3448              	.LVL316:
 947:lvgl/src/draw/lv_draw_rect.c ****         /*Avoid overlap in the middle with large radius*/
 3449              		.loc 1 947 19 discriminator 1 view .LVU1326
 3450 0be4 FFF7FEFF 		bl	_lv_area_is_in
 3451              	.LVL317:
 947:lvgl/src/draw/lv_draw_rect.c ****         /*Avoid overlap in the middle with large radius*/
 3452              		.loc 1 947 16 discriminator 1 view .LVU1327
 3453 0be8 0028     		cmp	r0, #0
 3454 0bea 7FF4BDAD 		bne	.L125
 3455              	.LBB286:
ARM GAS  /var/folders/k2/cd9bl_j17z77g23y6ffqb_400000gn/T//cc0jKSMI.s 			page 105


 949:lvgl/src/draw/lv_draw_rect.c **** 
 3456              		.loc 1 949 9 is_stmt 1 view .LVU1328
 949:lvgl/src/draw/lv_draw_rect.c **** 
 3457              		.loc 1 949 14 is_stmt 0 view .LVU1329
 3458 0bee BDF94E30 		ldrsh	r3, [sp, #78]
 949:lvgl/src/draw/lv_draw_rect.c **** 
 3459              		.loc 1 949 11 view .LVU1330
 3460 0bf2 0B9A     		ldr	r2, [sp, #44]
 3461 0bf4 9342     		cmp	r3, r2
 3462 0bf6 03DC     		bgt	.L126
 949:lvgl/src/draw/lv_draw_rect.c **** 
 3463              		.loc 1 949 29 is_stmt 1 discriminator 1 view .LVU1331
 949:lvgl/src/draw/lv_draw_rect.c **** 
 3464              		.loc 1 949 44 is_stmt 0 discriminator 1 view .LVU1332
 3465 0bf8 0C9B     		ldr	r3, [sp, #48]
 3466 0bfa 0133     		adds	r3, r3, #1
 949:lvgl/src/draw/lv_draw_rect.c **** 
 3467              		.loc 1 949 35 discriminator 1 view .LVU1333
 3468 0bfc ADF84E30 		strh	r3, [sp, #78]	@ movhi
 3469              	.L126:
 951:lvgl/src/draw/lv_draw_rect.c **** 
 3470              		.loc 1 951 9 is_stmt 1 view .LVU1334
 951:lvgl/src/draw/lv_draw_rect.c **** 
 3471              		.loc 1 951 11 is_stmt 0 view .LVU1335
 3472 0c00 069B     		ldr	r3, [sp, #24]
 3473 0c02 4BB1     		cbz	r3, .L127
 951:lvgl/src/draw/lv_draw_rect.c **** 
 3474              		.loc 1 951 25 is_stmt 1 discriminator 1 view .LVU1336
 951:lvgl/src/draw/lv_draw_rect.c **** 
 3475              		.loc 1 951 33 is_stmt 0 discriminator 1 view .LVU1337
 3476 0c04 059B     		ldr	r3, [sp, #20]
 3477 0c06 B3F90630 		ldrsh	r3, [r3, #6]
 3478 0c0a BDF94E20 		ldrsh	r2, [sp, #78]
 3479 0c0e 9342     		cmp	r3, r2
 3480 0c10 B8BF     		it	lt
 3481 0c12 1346     		movlt	r3, r2
 951:lvgl/src/draw/lv_draw_rect.c **** 
 3482              		.loc 1 951 31 discriminator 1 view .LVU1338
 3483 0c14 ADF84E30 		strh	r3, [sp, #78]	@ movhi
 3484              	.L127:
 954:lvgl/src/draw/lv_draw_rect.c ****         lv_coord_t h = lv_area_get_height(&ca);
 3485              		.loc 1 954 9 is_stmt 1 view .LVU1339
 3486              	.LVL318:
 3487              	.LBB287:
 3488              	.LBI287:
 133:lvgl/src/draw/../misc/lv_area.h **** {
 3489              		.loc 2 133 26 view .LVU1340
 3490              	.LBB288:
 135:lvgl/src/draw/../misc/lv_area.h **** }
 3491              		.loc 2 135 5 view .LVU1341
 135:lvgl/src/draw/../misc/lv_area.h **** }
 3492              		.loc 2 135 31 is_stmt 0 view .LVU1342
 3493 0c18 BDF950E0 		ldrsh	lr, [sp, #80]
 3494 0c1c 1FFA8EF1 		uxth	r1, lr
 135:lvgl/src/draw/../misc/lv_area.h **** }
 3495              		.loc 2 135 44 view .LVU1343
 3496 0c20 BDF94C00 		ldrsh	r0, [sp, #76]
ARM GAS  /var/folders/k2/cd9bl_j17z77g23y6ffqb_400000gn/T//cc0jKSMI.s 			page 106


 3497 0c24 83B2     		uxth	r3, r0
 135:lvgl/src/draw/../misc/lv_area.h **** }
 3498              		.loc 2 135 36 view .LVU1344
 3499 0c26 CB1A     		subs	r3, r1, r3
 3500 0c28 9BB2     		uxth	r3, r3
 135:lvgl/src/draw/../misc/lv_area.h **** }
 3501              		.loc 2 135 49 view .LVU1345
 3502 0c2a 0133     		adds	r3, r3, #1
 135:lvgl/src/draw/../misc/lv_area.h **** }
 3503              		.loc 2 135 12 view .LVU1346
 3504 0c2c 1BB2     		sxth	r3, r3
 3505 0c2e 0593     		str	r3, [sp, #20]
 3506              	.LVL319:
 135:lvgl/src/draw/../misc/lv_area.h **** }
 3507              		.loc 2 135 12 view .LVU1347
 3508              	.LBE288:
 3509              	.LBE287:
 955:lvgl/src/draw/lv_draw_rect.c ****         sh_buf_tmp = sh_buf + corner_size - 1;
 3510              		.loc 1 955 9 is_stmt 1 view .LVU1348
 3511              	.LBB289:
 3512              	.LBI289:
 143:lvgl/src/draw/../misc/lv_area.h **** {
 3513              		.loc 2 143 26 view .LVU1349
 3514              	.LBB290:
 3515              		.loc 2 145 5 view .LVU1350
 3516              		.loc 2 145 31 is_stmt 0 view .LVU1351
 3517 0c30 BDF95230 		ldrsh	r3, [sp, #82]
 3518 0c34 1FFA83FB 		uxth	fp, r3
 3519              		.loc 2 145 44 view .LVU1352
 3520 0c38 BDF94E10 		ldrsh	r1, [sp, #78]
 3521 0c3c 1FFA81FC 		uxth	ip, r1
 3522              		.loc 2 145 36 view .LVU1353
 3523 0c40 ABEB0C0B 		sub	fp, fp, ip
 3524 0c44 1FFA8BFB 		uxth	fp, fp
 3525              		.loc 2 145 49 view .LVU1354
 3526 0c48 0BF1010B 		add	fp, fp, #1
 3527              		.loc 2 145 12 view .LVU1355
 3528 0c4c 0FFA8BFB 		sxth	fp, fp
 3529              	.LVL320:
 3530              		.loc 2 145 12 view .LVU1356
 3531              	.LBE290:
 3532              	.LBE289:
 956:lvgl/src/draw/lv_draw_rect.c ****         sh_buf_tmp += corner_size * (a.y2 - ca.y2);
 3533              		.loc 1 956 9 is_stmt 1 view .LVU1357
 956:lvgl/src/draw/lv_draw_rect.c ****         sh_buf_tmp += corner_size * (a.y2 - ca.y2);
 3534              		.loc 1 956 43 is_stmt 0 view .LVU1358
 3535 0c50 04F1FF38 		add	r8, r4, #-1
 957:lvgl/src/draw/lv_draw_rect.c **** 
 3536              		.loc 1 957 9 is_stmt 1 view .LVU1359
 957:lvgl/src/draw/lv_draw_rect.c **** 
 3537              		.loc 1 957 39 is_stmt 0 view .LVU1360
 3538 0c54 BDF95AC0 		ldrsh	ip, [sp, #90]
 957:lvgl/src/draw/lv_draw_rect.c **** 
 3539              		.loc 1 957 43 view .LVU1361
 3540 0c58 ACEB030C 		sub	ip, ip, r3
 957:lvgl/src/draw/lv_draw_rect.c **** 
 3541              		.loc 1 957 20 view .LVU1362
ARM GAS  /var/folders/k2/cd9bl_j17z77g23y6ffqb_400000gn/T//cc0jKSMI.s 			page 107


 3542 0c5c 04FB0C88 		mla	r8, r4, ip, r8
 3543 0c60 079A     		ldr	r2, [sp, #28]
 3544 0c62 9044     		add	r8, r8, r2
 3545              	.LVL321:
 959:lvgl/src/draw/lv_draw_rect.c ****         lv_area_copy(&fa, &ca);
 3546              		.loc 1 959 9 is_stmt 1 view .LVU1363
 960:lvgl/src/draw/lv_draw_rect.c ****         fa.y1 = fa.y2;
 3547              		.loc 1 960 9 view .LVU1364
 3548              	.LBB291:
 3549              	.LBI291:
 120:lvgl/src/draw/../misc/lv_area.h **** {
 3550              		.loc 2 120 20 view .LVU1365
 3551              	.LBB292:
 122:lvgl/src/draw/../misc/lv_area.h ****     dest->y1 = src->y1;
 3552              		.loc 2 122 5 view .LVU1366
 122:lvgl/src/draw/../misc/lv_area.h ****     dest->y1 = src->y1;
 3553              		.loc 2 122 14 is_stmt 0 view .LVU1367
 3554 0c64 ADF84400 		strh	r0, [sp, #68]	@ movhi
 123:lvgl/src/draw/../misc/lv_area.h ****     dest->x2 = src->x2;
 3555              		.loc 2 123 5 is_stmt 1 view .LVU1368
 123:lvgl/src/draw/../misc/lv_area.h ****     dest->x2 = src->x2;
 3556              		.loc 2 123 14 is_stmt 0 view .LVU1369
 3557 0c68 ADF84610 		strh	r1, [sp, #70]	@ movhi
 124:lvgl/src/draw/../misc/lv_area.h ****     dest->y2 = src->y2;
 3558              		.loc 2 124 5 is_stmt 1 view .LVU1370
 124:lvgl/src/draw/../misc/lv_area.h ****     dest->y2 = src->y2;
 3559              		.loc 2 124 14 is_stmt 0 view .LVU1371
 3560 0c6c ADF848E0 		strh	lr, [sp, #72]	@ movhi
 125:lvgl/src/draw/../misc/lv_area.h **** }
 3561              		.loc 2 125 5 is_stmt 1 view .LVU1372
 125:lvgl/src/draw/../misc/lv_area.h **** }
 3562              		.loc 2 125 14 is_stmt 0 view .LVU1373
 3563 0c70 ADF84A30 		strh	r3, [sp, #74]	@ movhi
 3564              	.LVL322:
 125:lvgl/src/draw/../misc/lv_area.h **** }
 3565              		.loc 2 125 14 view .LVU1374
 3566              	.LBE292:
 3567              	.LBE291:
 961:lvgl/src/draw/lv_draw_rect.c ****         for(y = 0; y < h; y++) {
 3568              		.loc 1 961 9 is_stmt 1 view .LVU1375
 961:lvgl/src/draw/lv_draw_rect.c ****         for(y = 0; y < h; y++) {
 3569              		.loc 1 961 15 is_stmt 0 view .LVU1376
 3570 0c74 ADF84630 		strh	r3, [sp, #70]	@ movhi
 962:lvgl/src/draw/lv_draw_rect.c ****             lv_opa_t opa_tmp = sh_buf_tmp[0];
 3571              		.loc 1 962 9 is_stmt 1 view .LVU1377
 3572              	.LVL323:
 962:lvgl/src/draw/lv_draw_rect.c ****             lv_opa_t opa_tmp = sh_buf_tmp[0];
 3573              		.loc 1 962 15 is_stmt 0 view .LVU1378
 3574 0c78 4FF00009 		mov	r9, #0
 3575 0c7c 0A97     		str	r7, [sp, #40]
 3576 0c7e 049F     		ldr	r7, [sp, #16]
 962:lvgl/src/draw/lv_draw_rect.c ****             lv_opa_t opa_tmp = sh_buf_tmp[0];
 3577              		.loc 1 962 9 view .LVU1379
 3578 0c80 22E0     		b	.L128
 3579              	.LVL324:
 3580              	.L129:
 3581              	.LBB293:
ARM GAS  /var/folders/k2/cd9bl_j17z77g23y6ffqb_400000gn/T//cc0jKSMI.s 			page 108


 964:lvgl/src/draw/lv_draw_rect.c **** 
 3582              		.loc 1 964 64 is_stmt 1 discriminator 3 view .LVU1380
 964:lvgl/src/draw/lv_draw_rect.c **** 
 3583              		.loc 1 964 79 is_stmt 0 discriminator 3 view .LVU1381
 3584 0c82 07FB01F1 		mul	r1, r7, r1
 3585              	.LVL325:
 964:lvgl/src/draw/lv_draw_rect.c **** 
 3586              		.loc 1 964 72 discriminator 3 view .LVU1382
 3587 0c86 C1F30721 		ubfx	r1, r1, #8, #8
 3588              	.LVL326:
 3589              	.L130:
 966:lvgl/src/draw/lv_draw_rect.c ****             if(simple_mode) {
 3590              		.loc 1 966 13 is_stmt 1 view .LVU1383
 3591 0c8a 059A     		ldr	r2, [sp, #20]
 3592 0c8c 3046     		mov	r0, r6
 3593 0c8e FFF7FEFF 		bl	lv_memset
 3594              	.LVL327:
 967:lvgl/src/draw/lv_draw_rect.c ****                 mask_res = LV_DRAW_MASK_RES_CHANGED;
 3595              		.loc 1 967 13 view .LVU1384
 967:lvgl/src/draw/lv_draw_rect.c ****                 mask_res = LV_DRAW_MASK_RES_CHANGED;
 3596              		.loc 1 967 15 is_stmt 0 view .LVU1385
 3597 0c92 069B     		ldr	r3, [sp, #24]
 3598 0c94 0BB3     		cbz	r3, .L181
 968:lvgl/src/draw/lv_draw_rect.c ****             }
 3599              		.loc 1 968 26 view .LVU1386
 3600 0c96 0220     		movs	r0, #2
 3601              	.L131:
 3602              	.LVL328:
 975:lvgl/src/draw/lv_draw_rect.c ****                            mask_res, LV_OPA_COVER, dsc->blend_mode);
 3603              		.loc 1 975 13 is_stmt 1 discriminator 2 view .LVU1387
 3604 0c98 AB78     		ldrb	r3, [r5, #2]	@ zero_extendqisi2
 3605 0c9a 0293     		str	r3, [sp, #8]
 3606 0c9c FF23     		movs	r3, #255
 3607 0c9e 0193     		str	r3, [sp, #4]
 3608 0ca0 0090     		str	r0, [sp]
 3609 0ca2 3346     		mov	r3, r6
 3610 0ca4 6A6B     		ldr	r2, [r5, #52]
 3611 0ca6 11A9     		add	r1, sp, #68
 3612 0ca8 5046     		mov	r0, r10
 3613              	.LVL329:
 975:lvgl/src/draw/lv_draw_rect.c ****                            mask_res, LV_OPA_COVER, dsc->blend_mode);
 3614              		.loc 1 975 13 is_stmt 0 discriminator 2 view .LVU1388
 3615 0caa FFF7FEFF 		bl	_lv_blend_fill
 3616              	.LVL330:
 977:lvgl/src/draw/lv_draw_rect.c ****             fa.y2--;
 3617              		.loc 1 977 13 is_stmt 1 discriminator 2 view .LVU1389
 977:lvgl/src/draw/lv_draw_rect.c ****             fa.y2--;
 3618              		.loc 1 977 15 is_stmt 0 discriminator 2 view .LVU1390
 3619 0cae BDF94630 		ldrsh	r3, [sp, #70]
 977:lvgl/src/draw/lv_draw_rect.c ****             fa.y2--;
 3620              		.loc 1 977 18 discriminator 2 view .LVU1391
 3621 0cb2 013B     		subs	r3, r3, #1
 3622 0cb4 ADF84630 		strh	r3, [sp, #70]	@ movhi
 978:lvgl/src/draw/lv_draw_rect.c ****             sh_buf_tmp += corner_size;
 3623              		.loc 1 978 13 is_stmt 1 discriminator 2 view .LVU1392
 978:lvgl/src/draw/lv_draw_rect.c ****             sh_buf_tmp += corner_size;
 3624              		.loc 1 978 15 is_stmt 0 discriminator 2 view .LVU1393
ARM GAS  /var/folders/k2/cd9bl_j17z77g23y6ffqb_400000gn/T//cc0jKSMI.s 			page 109


 3625 0cb8 BDF94A30 		ldrsh	r3, [sp, #74]
 978:lvgl/src/draw/lv_draw_rect.c ****             sh_buf_tmp += corner_size;
 3626              		.loc 1 978 18 discriminator 2 view .LVU1394
 3627 0cbc 013B     		subs	r3, r3, #1
 3628 0cbe ADF84A30 		strh	r3, [sp, #74]	@ movhi
 979:lvgl/src/draw/lv_draw_rect.c ****         }
 3629              		.loc 1 979 13 is_stmt 1 discriminator 2 view .LVU1395
 979:lvgl/src/draw/lv_draw_rect.c ****         }
 3630              		.loc 1 979 24 is_stmt 0 discriminator 2 view .LVU1396
 3631 0cc2 A044     		add	r8, r8, r4
 3632              	.LVL331:
 979:lvgl/src/draw/lv_draw_rect.c ****         }
 3633              		.loc 1 979 24 discriminator 2 view .LVU1397
 3634              	.LBE293:
 962:lvgl/src/draw/lv_draw_rect.c ****             lv_opa_t opa_tmp = sh_buf_tmp[0];
 3635              		.loc 1 962 27 is_stmt 1 discriminator 2 view .LVU1398
 962:lvgl/src/draw/lv_draw_rect.c ****             lv_opa_t opa_tmp = sh_buf_tmp[0];
 3636              		.loc 1 962 28 is_stmt 0 discriminator 2 view .LVU1399
 3637 0cc4 09F10109 		add	r9, r9, #1
 3638              	.LVL332:
 3639              	.L128:
 962:lvgl/src/draw/lv_draw_rect.c ****             lv_opa_t opa_tmp = sh_buf_tmp[0];
 3640              		.loc 1 962 20 is_stmt 1 discriminator 1 view .LVU1400
 962:lvgl/src/draw/lv_draw_rect.c ****             lv_opa_t opa_tmp = sh_buf_tmp[0];
 3641              		.loc 1 962 9 is_stmt 0 discriminator 1 view .LVU1401
 3642 0cc8 CB45     		cmp	fp, r9
 3643 0cca 12DD     		ble	.L182
 3644              	.LBB294:
 963:lvgl/src/draw/lv_draw_rect.c ****             if(opa_tmp != LV_OPA_COVER || opa != LV_OPA_COVER) opa_tmp = (opa * opa_tmp) >> 8;
 3645              		.loc 1 963 13 is_stmt 1 view .LVU1402
 963:lvgl/src/draw/lv_draw_rect.c ****             if(opa_tmp != LV_OPA_COVER || opa != LV_OPA_COVER) opa_tmp = (opa * opa_tmp) >> 8;
 3646              		.loc 1 963 22 is_stmt 0 view .LVU1403
 3647 0ccc 98F80010 		ldrb	r1, [r8]	@ zero_extendqisi2
 3648              	.LVL333:
 964:lvgl/src/draw/lv_draw_rect.c **** 
 3649              		.loc 1 964 13 is_stmt 1 view .LVU1404
 964:lvgl/src/draw/lv_draw_rect.c **** 
 3650              		.loc 1 964 15 is_stmt 0 view .LVU1405
 3651 0cd0 FF29     		cmp	r1, #255
 3652 0cd2 D6D1     		bne	.L129
 964:lvgl/src/draw/lv_draw_rect.c **** 
 3653              		.loc 1 964 40 discriminator 2 view .LVU1406
 3654 0cd4 FF2F     		cmp	r7, #255
 3655 0cd6 D4D1     		bne	.L129
 3656 0cd8 D7E7     		b	.L130
 3657              	.LVL334:
 3658              	.L181:
 971:lvgl/src/draw/lv_draw_rect.c ****                 if(mask_res == LV_DRAW_MASK_RES_FULL_COVER) mask_res = LV_DRAW_MASK_RES_CHANGED;
 3659              		.loc 1 971 17 is_stmt 1 view .LVU1407
 971:lvgl/src/draw/lv_draw_rect.c ****                 if(mask_res == LV_DRAW_MASK_RES_FULL_COVER) mask_res = LV_DRAW_MASK_RES_CHANGED;
 3660              		.loc 1 971 28 is_stmt 0 view .LVU1408
 3661 0cda 059B     		ldr	r3, [sp, #20]
 3662 0cdc BDF94620 		ldrsh	r2, [sp, #70]
 3663 0ce0 BDF94410 		ldrsh	r1, [sp, #68]
 3664 0ce4 3046     		mov	r0, r6
 3665 0ce6 FFF7FEFF 		bl	lv_draw_mask_apply
 3666              	.LVL335:
ARM GAS  /var/folders/k2/cd9bl_j17z77g23y6ffqb_400000gn/T//cc0jKSMI.s 			page 110


 972:lvgl/src/draw/lv_draw_rect.c ****             }
 3667              		.loc 1 972 17 is_stmt 1 view .LVU1409
 972:lvgl/src/draw/lv_draw_rect.c ****             }
 3668              		.loc 1 972 19 is_stmt 0 view .LVU1410
 3669 0cea 0128     		cmp	r0, #1
 3670 0cec D4D1     		bne	.L131
 972:lvgl/src/draw/lv_draw_rect.c ****             }
 3671              		.loc 1 972 70 view .LVU1411
 3672 0cee 0220     		movs	r0, #2
 3673              	.LVL336:
 972:lvgl/src/draw/lv_draw_rect.c ****             }
 3674              		.loc 1 972 70 view .LVU1412
 3675 0cf0 D2E7     		b	.L131
 3676              	.L182:
 972:lvgl/src/draw/lv_draw_rect.c ****             }
 3677              		.loc 1 972 70 view .LVU1413
 3678 0cf2 0A9F     		ldr	r7, [sp, #40]
 3679 0cf4 38E5     		b	.L125
 3680              	.LVL337:
 3681              	.L173:
 972:lvgl/src/draw/lv_draw_rect.c ****             }
 3682              		.loc 1 972 70 view .LVU1414
 3683              	.LBE294:
 3684              	.LBE286:
 990:lvgl/src/draw/lv_draw_rect.c ****         /*Draw horizontal lines*/
 3685              		.loc 1 990 44 discriminator 2 view .LVU1415
 3686 0cf6 089A     		ldr	r2, [sp, #32]
 3687 0cf8 1EA9     		add	r1, sp, #120
 3688 0cfa 15A8     		add	r0, sp, #84
 3689              	.LVL338:
 990:lvgl/src/draw/lv_draw_rect.c ****         /*Draw horizontal lines*/
 3690              		.loc 1 990 44 discriminator 2 view .LVU1416
 3691 0cfc FFF7FEFF 		bl	_lv_area_is_in
 3692              	.LVL339:
 990:lvgl/src/draw/lv_draw_rect.c ****         /*Draw horizontal lines*/
 3693              		.loc 1 990 40 discriminator 2 view .LVU1417
 3694 0d00 0028     		cmp	r0, #0
 3695 0d02 7FF44FAD 		bne	.L133
 3696              	.LBB295:
 992:lvgl/src/draw/lv_draw_rect.c ****         lv_coord_t h = lv_area_get_height(&ca);
 3697              		.loc 1 992 9 is_stmt 1 view .LVU1418
 3698              	.LVL340:
 3699              	.LBB296:
 3700              	.LBI296:
 133:lvgl/src/draw/../misc/lv_area.h **** {
 3701              		.loc 2 133 26 view .LVU1419
 3702              	.LBB297:
 135:lvgl/src/draw/../misc/lv_area.h **** }
 3703              		.loc 2 135 5 view .LVU1420
 135:lvgl/src/draw/../misc/lv_area.h **** }
 3704              		.loc 2 135 31 is_stmt 0 view .LVU1421
 3705 0d06 BDF95010 		ldrsh	r1, [sp, #80]
 3706 0d0a 8FB2     		uxth	r7, r1
 135:lvgl/src/draw/../misc/lv_area.h **** }
 3707              		.loc 2 135 44 view .LVU1422
 3708 0d0c BDF94C00 		ldrsh	r0, [sp, #76]
 3709 0d10 83B2     		uxth	r3, r0
ARM GAS  /var/folders/k2/cd9bl_j17z77g23y6ffqb_400000gn/T//cc0jKSMI.s 			page 111


 135:lvgl/src/draw/../misc/lv_area.h **** }
 3710              		.loc 2 135 36 view .LVU1423
 3711 0d12 FF1A     		subs	r7, r7, r3
 3712 0d14 BFB2     		uxth	r7, r7
 135:lvgl/src/draw/../misc/lv_area.h **** }
 3713              		.loc 2 135 49 view .LVU1424
 3714 0d16 0137     		adds	r7, r7, #1
 135:lvgl/src/draw/../misc/lv_area.h **** }
 3715              		.loc 2 135 12 view .LVU1425
 3716 0d18 3FB2     		sxth	r7, r7
 3717              	.LVL341:
 135:lvgl/src/draw/../misc/lv_area.h **** }
 3718              		.loc 2 135 12 view .LVU1426
 3719              	.LBE297:
 3720              	.LBE296:
 993:lvgl/src/draw/lv_draw_rect.c **** 
 3721              		.loc 1 993 9 is_stmt 1 view .LVU1427
 3722              	.LBB298:
 3723              	.LBI298:
 143:lvgl/src/draw/../misc/lv_area.h **** {
 3724              		.loc 2 143 26 view .LVU1428
 3725              	.LBB299:
 3726              		.loc 2 145 5 view .LVU1429
 3727              		.loc 2 145 31 is_stmt 0 view .LVU1430
 3728 0d1a BDF95220 		ldrsh	r2, [sp, #82]
 3729 0d1e 1FFA82F8 		uxth	r8, r2
 3730              		.loc 2 145 44 view .LVU1431
 3731 0d22 BDF94E30 		ldrsh	r3, [sp, #78]
 3732 0d26 9CB2     		uxth	r4, r3
 3733              		.loc 2 145 36 view .LVU1432
 3734 0d28 A8EB0408 		sub	r8, r8, r4
 3735 0d2c 1FFA88F8 		uxth	r8, r8
 3736              		.loc 2 145 49 view .LVU1433
 3737 0d30 08F10108 		add	r8, r8, #1
 3738              		.loc 2 145 12 view .LVU1434
 3739 0d34 0FFA88F8 		sxth	r8, r8
 3740              	.LVL342:
 3741              		.loc 2 145 12 view .LVU1435
 3742              	.LBE299:
 3743              	.LBE298:
 995:lvgl/src/draw/lv_draw_rect.c ****         lv_area_copy(&fa, &ca);
 3744              		.loc 1 995 9 is_stmt 1 view .LVU1436
 996:lvgl/src/draw/lv_draw_rect.c ****         fa.y2 = fa.y1;
 3745              		.loc 1 996 9 view .LVU1437
 3746              	.LBB300:
 3747              	.LBI300:
 120:lvgl/src/draw/../misc/lv_area.h **** {
 3748              		.loc 2 120 20 view .LVU1438
 3749              	.LBB301:
 122:lvgl/src/draw/../misc/lv_area.h ****     dest->y1 = src->y1;
 3750              		.loc 2 122 5 view .LVU1439
 122:lvgl/src/draw/../misc/lv_area.h ****     dest->y1 = src->y1;
 3751              		.loc 2 122 14 is_stmt 0 view .LVU1440
 3752 0d38 ADF84400 		strh	r0, [sp, #68]	@ movhi
 123:lvgl/src/draw/../misc/lv_area.h ****     dest->x2 = src->x2;
 3753              		.loc 2 123 5 is_stmt 1 view .LVU1441
 123:lvgl/src/draw/../misc/lv_area.h ****     dest->x2 = src->x2;
ARM GAS  /var/folders/k2/cd9bl_j17z77g23y6ffqb_400000gn/T//cc0jKSMI.s 			page 112


 3754              		.loc 2 123 14 is_stmt 0 view .LVU1442
 3755 0d3c ADF84630 		strh	r3, [sp, #70]	@ movhi
 124:lvgl/src/draw/../misc/lv_area.h ****     dest->y2 = src->y2;
 3756              		.loc 2 124 5 is_stmt 1 view .LVU1443
 124:lvgl/src/draw/../misc/lv_area.h ****     dest->y2 = src->y2;
 3757              		.loc 2 124 14 is_stmt 0 view .LVU1444
 3758 0d40 ADF84810 		strh	r1, [sp, #72]	@ movhi
 125:lvgl/src/draw/../misc/lv_area.h **** }
 3759              		.loc 2 125 5 is_stmt 1 view .LVU1445
 125:lvgl/src/draw/../misc/lv_area.h **** }
 3760              		.loc 2 125 14 is_stmt 0 view .LVU1446
 3761 0d44 ADF84A20 		strh	r2, [sp, #74]	@ movhi
 3762              	.LVL343:
 125:lvgl/src/draw/../misc/lv_area.h **** }
 3763              		.loc 2 125 14 view .LVU1447
 3764              	.LBE301:
 3765              	.LBE300:
 997:lvgl/src/draw/lv_draw_rect.c ****         for(y = 0; y < h; y++) {
 3766              		.loc 1 997 9 is_stmt 1 view .LVU1448
 997:lvgl/src/draw/lv_draw_rect.c ****         for(y = 0; y < h; y++) {
 3767              		.loc 1 997 15 is_stmt 0 view .LVU1449
 3768 0d48 ADF84A30 		strh	r3, [sp, #74]	@ movhi
 998:lvgl/src/draw/lv_draw_rect.c ****             lv_memset(mask_buf, dsc->shadow_opa, w);
 3769              		.loc 1 998 9 is_stmt 1 view .LVU1450
 3770              	.LVL344:
 998:lvgl/src/draw/lv_draw_rect.c ****             lv_memset(mask_buf, dsc->shadow_opa, w);
 3771              		.loc 1 998 15 is_stmt 0 view .LVU1451
 3772 0d4c 0024     		movs	r4, #0
 998:lvgl/src/draw/lv_draw_rect.c ****             lv_memset(mask_buf, dsc->shadow_opa, w);
 3773              		.loc 1 998 9 view .LVU1452
 3774 0d4e 15E0     		b	.L134
 3775              	.LVL345:
 3776              	.L135:
1003:lvgl/src/draw/lv_draw_rect.c ****                            mask_res, LV_OPA_COVER, dsc->blend_mode);
 3777              		.loc 1 1003 13 is_stmt 1 discriminator 2 view .LVU1453
 3778 0d50 AB78     		ldrb	r3, [r5, #2]	@ zero_extendqisi2
 3779 0d52 0293     		str	r3, [sp, #8]
 3780 0d54 FF23     		movs	r3, #255
 3781 0d56 0193     		str	r3, [sp, #4]
 3782 0d58 0090     		str	r0, [sp]
 3783 0d5a 3346     		mov	r3, r6
 3784 0d5c 6A6B     		ldr	r2, [r5, #52]
 3785 0d5e 11A9     		add	r1, sp, #68
 3786 0d60 5046     		mov	r0, r10
 3787              	.LVL346:
1003:lvgl/src/draw/lv_draw_rect.c ****                            mask_res, LV_OPA_COVER, dsc->blend_mode);
 3788              		.loc 1 1003 13 is_stmt 0 discriminator 2 view .LVU1454
 3789 0d62 FFF7FEFF 		bl	_lv_blend_fill
 3790              	.LVL347:
1005:lvgl/src/draw/lv_draw_rect.c ****             fa.y2++;
 3791              		.loc 1 1005 13 is_stmt 1 discriminator 2 view .LVU1455
1005:lvgl/src/draw/lv_draw_rect.c ****             fa.y2++;
 3792              		.loc 1 1005 15 is_stmt 0 discriminator 2 view .LVU1456
 3793 0d66 BDF94630 		ldrsh	r3, [sp, #70]
1005:lvgl/src/draw/lv_draw_rect.c ****             fa.y2++;
 3794              		.loc 1 1005 18 discriminator 2 view .LVU1457
 3795 0d6a 0133     		adds	r3, r3, #1
ARM GAS  /var/folders/k2/cd9bl_j17z77g23y6ffqb_400000gn/T//cc0jKSMI.s 			page 113


 3796 0d6c ADF84630 		strh	r3, [sp, #70]	@ movhi
1006:lvgl/src/draw/lv_draw_rect.c ****         }
 3797              		.loc 1 1006 13 is_stmt 1 discriminator 2 view .LVU1458
1006:lvgl/src/draw/lv_draw_rect.c ****         }
 3798              		.loc 1 1006 15 is_stmt 0 discriminator 2 view .LVU1459
 3799 0d70 BDF94A30 		ldrsh	r3, [sp, #74]
1006:lvgl/src/draw/lv_draw_rect.c ****         }
 3800              		.loc 1 1006 18 discriminator 2 view .LVU1460
 3801 0d74 0133     		adds	r3, r3, #1
 3802 0d76 ADF84A30 		strh	r3, [sp, #74]	@ movhi
 998:lvgl/src/draw/lv_draw_rect.c ****             lv_memset(mask_buf, dsc->shadow_opa, w);
 3803              		.loc 1 998 27 is_stmt 1 discriminator 2 view .LVU1461
 998:lvgl/src/draw/lv_draw_rect.c ****             lv_memset(mask_buf, dsc->shadow_opa, w);
 3804              		.loc 1 998 28 is_stmt 0 discriminator 2 view .LVU1462
 3805 0d7a 0134     		adds	r4, r4, #1
 3806              	.LVL348:
 3807              	.L134:
 998:lvgl/src/draw/lv_draw_rect.c ****             lv_memset(mask_buf, dsc->shadow_opa, w);
 3808              		.loc 1 998 20 is_stmt 1 discriminator 1 view .LVU1463
 998:lvgl/src/draw/lv_draw_rect.c ****             lv_memset(mask_buf, dsc->shadow_opa, w);
 3809              		.loc 1 998 9 is_stmt 0 discriminator 1 view .LVU1464
 3810 0d7c A045     		cmp	r8, r4
 3811 0d7e 7FF711AD 		ble	.L133
 999:lvgl/src/draw/lv_draw_rect.c ****             mask_res = lv_draw_mask_apply(mask_buf, fa.x1, fa.y1, w);
 3812              		.loc 1 999 13 is_stmt 1 view .LVU1465
 3813 0d82 3A46     		mov	r2, r7
 3814 0d84 95F84010 		ldrb	r1, [r5, #64]	@ zero_extendqisi2
 3815 0d88 3046     		mov	r0, r6
 3816 0d8a FFF7FEFF 		bl	lv_memset
 3817              	.LVL349:
1000:lvgl/src/draw/lv_draw_rect.c ****             if(mask_res == LV_DRAW_MASK_RES_FULL_COVER) mask_res = LV_DRAW_MASK_RES_CHANGED;
 3818              		.loc 1 1000 13 view .LVU1466
1000:lvgl/src/draw/lv_draw_rect.c ****             if(mask_res == LV_DRAW_MASK_RES_FULL_COVER) mask_res = LV_DRAW_MASK_RES_CHANGED;
 3819              		.loc 1 1000 24 is_stmt 0 view .LVU1467
 3820 0d8e 3B46     		mov	r3, r7
 3821 0d90 BDF94620 		ldrsh	r2, [sp, #70]
 3822 0d94 BDF94410 		ldrsh	r1, [sp, #68]
 3823 0d98 3046     		mov	r0, r6
 3824 0d9a FFF7FEFF 		bl	lv_draw_mask_apply
 3825              	.LVL350:
1001:lvgl/src/draw/lv_draw_rect.c **** 
 3826              		.loc 1 1001 13 is_stmt 1 view .LVU1468
1001:lvgl/src/draw/lv_draw_rect.c **** 
 3827              		.loc 1 1001 15 is_stmt 0 view .LVU1469
 3828 0d9e 0128     		cmp	r0, #1
 3829 0da0 D6D1     		bne	.L135
1001:lvgl/src/draw/lv_draw_rect.c **** 
 3830              		.loc 1 1001 66 view .LVU1470
 3831 0da2 0220     		movs	r0, #2
 3832              	.LVL351:
1001:lvgl/src/draw/lv_draw_rect.c **** 
 3833              		.loc 1 1001 66 view .LVU1471
 3834 0da4 D4E7     		b	.L135
 3835              	.LBE295:
 3836              		.cfi_endproc
 3837              	.LFE153:
 3839              		.section	.text.draw_full_border,"ax",%progbits
ARM GAS  /var/folders/k2/cd9bl_j17z77g23y6ffqb_400000gn/T//cc0jKSMI.s 			page 114


 3840              		.align	1
 3841              		.syntax unified
 3842              		.thumb
 3843              		.thumb_func
 3844              		.fpu fpv4-sp-d16
 3846              	draw_full_border:
 3847              	.LVL352:
 3848              	.LFB157:
1176:lvgl/src/draw/lv_draw_rect.c **** 
1177:lvgl/src/draw/lv_draw_rect.c **** #endif
1178:lvgl/src/draw/lv_draw_rect.c **** 
1179:lvgl/src/draw/lv_draw_rect.c **** static void draw_outline(const lv_area_t * coords, const lv_area_t * clip, const lv_draw_rect_dsc_t
1180:lvgl/src/draw/lv_draw_rect.c **** {
1181:lvgl/src/draw/lv_draw_rect.c ****     if(dsc->outline_opa <= LV_OPA_MIN) return;
1182:lvgl/src/draw/lv_draw_rect.c ****     if(dsc->outline_width == 0) return;
1183:lvgl/src/draw/lv_draw_rect.c **** 
1184:lvgl/src/draw/lv_draw_rect.c ****     lv_opa_t opa = dsc->outline_opa;
1185:lvgl/src/draw/lv_draw_rect.c **** 
1186:lvgl/src/draw/lv_draw_rect.c ****     if(opa > LV_OPA_MAX) opa = LV_OPA_COVER;
1187:lvgl/src/draw/lv_draw_rect.c **** 
1188:lvgl/src/draw/lv_draw_rect.c ****     /*Get the inner radius*/
1189:lvgl/src/draw/lv_draw_rect.c ****     lv_area_t area_inner;
1190:lvgl/src/draw/lv_draw_rect.c ****     lv_area_copy(&area_inner, coords);
1191:lvgl/src/draw/lv_draw_rect.c **** 
1192:lvgl/src/draw/lv_draw_rect.c ****     /*Extend the outline into the background area if it's overlapping the edge*/
1193:lvgl/src/draw/lv_draw_rect.c ****     lv_coord_t pad = (dsc->outline_pad == 0 ? (dsc->outline_pad - 1) : dsc->outline_pad);
1194:lvgl/src/draw/lv_draw_rect.c ****     area_inner.x1 -= pad;
1195:lvgl/src/draw/lv_draw_rect.c ****     area_inner.y1 -= pad;
1196:lvgl/src/draw/lv_draw_rect.c ****     area_inner.x2 += pad;
1197:lvgl/src/draw/lv_draw_rect.c ****     area_inner.y2 += pad;
1198:lvgl/src/draw/lv_draw_rect.c **** 
1199:lvgl/src/draw/lv_draw_rect.c ****     lv_area_t area_outer;
1200:lvgl/src/draw/lv_draw_rect.c ****     lv_area_copy(&area_outer, &area_inner);
1201:lvgl/src/draw/lv_draw_rect.c **** 
1202:lvgl/src/draw/lv_draw_rect.c ****     area_outer.x1 -= dsc->outline_width;
1203:lvgl/src/draw/lv_draw_rect.c ****     area_outer.x2 += dsc->outline_width;
1204:lvgl/src/draw/lv_draw_rect.c ****     area_outer.y1 -= dsc->outline_width;
1205:lvgl/src/draw/lv_draw_rect.c ****     area_outer.y2 += dsc->outline_width;
1206:lvgl/src/draw/lv_draw_rect.c **** 
1207:lvgl/src/draw/lv_draw_rect.c **** #if LV_DRAW_COMPLEX
1208:lvgl/src/draw/lv_draw_rect.c ****     draw_full_border(&area_inner, &area_outer, clip, dsc->radius, true, dsc->outline_color, dsc->ou
1209:lvgl/src/draw/lv_draw_rect.c ****                      dsc->blend_mode);
1210:lvgl/src/draw/lv_draw_rect.c **** #else
1211:lvgl/src/draw/lv_draw_rect.c ****     draw_simple_border(clip, &area_inner, &area_outer, dsc->outline_color, dsc->outline_opa, LV_BOR
1212:lvgl/src/draw/lv_draw_rect.c **** #endif
1213:lvgl/src/draw/lv_draw_rect.c **** }
1214:lvgl/src/draw/lv_draw_rect.c **** 
1215:lvgl/src/draw/lv_draw_rect.c **** #if LV_DRAW_COMPLEX
1216:lvgl/src/draw/lv_draw_rect.c **** static void draw_full_border(const lv_area_t * area_inner, const lv_area_t * area_outer, const lv_a
1217:lvgl/src/draw/lv_draw_rect.c ****                              lv_coord_t radius, bool radius_is_in, lv_color_t color, lv_opa_t opa, 
1218:lvgl/src/draw/lv_draw_rect.c **** {
 3849              		.loc 1 1218 1 is_stmt 1 view -0
 3850              		.cfi_startproc
 3851              		@ args = 16, pretend = 0, frame = 128
 3852              		@ frame_needed = 0, uses_anonymous_args = 0
 3853              		.loc 1 1218 1 is_stmt 0 view .LVU1473
 3854 0000 2DE9F04F 		push	{r4, r5, r6, r7, r8, r9, r10, fp, lr}
ARM GAS  /var/folders/k2/cd9bl_j17z77g23y6ffqb_400000gn/T//cc0jKSMI.s 			page 115


 3855              	.LCFI10:
 3856              		.cfi_def_cfa_offset 36
 3857              		.cfi_offset 4, -36
 3858              		.cfi_offset 5, -32
 3859              		.cfi_offset 6, -28
 3860              		.cfi_offset 7, -24
 3861              		.cfi_offset 8, -20
 3862              		.cfi_offset 9, -16
 3863              		.cfi_offset 10, -12
 3864              		.cfi_offset 11, -8
 3865              		.cfi_offset 14, -4
 3866 0004 A5B0     		sub	sp, sp, #148
 3867              	.LCFI11:
 3868              		.cfi_def_cfa_offset 184
 3869 0006 0546     		mov	r5, r0
 3870 0008 0C46     		mov	r4, r1
 3871 000a 0592     		str	r2, [sp, #20]
 3872 000c 1E46     		mov	r6, r3
 3873 000e 9DF8B890 		ldrb	r9, [sp, #184]	@ zero_extendqisi2
 3874 0012 9DF8C070 		ldrb	r7, [sp, #192]	@ zero_extendqisi2
 3875 0016 9DF8C430 		ldrb	r3, [sp, #196]	@ zero_extendqisi2
 3876              	.LVL353:
 3877              		.loc 1 1218 1 view .LVU1474
 3878 001a 0693     		str	r3, [sp, #24]
1219:lvgl/src/draw/lv_draw_rect.c **** 
1220:lvgl/src/draw/lv_draw_rect.c ****     uint8_t other_mask_cnt = lv_draw_mask_get_cnt();
 3879              		.loc 1 1220 5 is_stmt 1 view .LVU1475
 3880              		.loc 1 1220 30 is_stmt 0 view .LVU1476
 3881 001c FFF7FEFF 		bl	lv_draw_mask_get_cnt
 3882              	.LVL354:
1221:lvgl/src/draw/lv_draw_rect.c ****     bool simple_mode = true;
 3883              		.loc 1 1221 5 is_stmt 1 view .LVU1477
1222:lvgl/src/draw/lv_draw_rect.c ****     if(other_mask_cnt) simple_mode = false;
 3884              		.loc 1 1222 5 view .LVU1478
 3885              		.loc 1 1222 7 is_stmt 0 view .LVU1479
 3886 0020 0028     		cmp	r0, #0
 3887 0022 40D1     		bne	.L205
1221:lvgl/src/draw/lv_draw_rect.c ****     bool simple_mode = true;
 3888              		.loc 1 1221 10 view .LVU1480
 3889 0024 4FF0010A 		mov	r10, #1
 3890              	.L184:
 3891              	.LVL355:
1223:lvgl/src/draw/lv_draw_rect.c **** 
1224:lvgl/src/draw/lv_draw_rect.c ****     int32_t inner_w = lv_area_get_width(area_inner);
 3892              		.loc 1 1224 5 is_stmt 1 view .LVU1481
 3893              	.LBB302:
 3894              	.LBI302:
 133:lvgl/src/draw/../misc/lv_area.h **** {
 3895              		.loc 2 133 26 view .LVU1482
 3896              	.LBB303:
 135:lvgl/src/draw/../misc/lv_area.h **** }
 3897              		.loc 2 135 5 view .LVU1483
 135:lvgl/src/draw/../misc/lv_area.h **** }
 3898              		.loc 2 135 31 is_stmt 0 view .LVU1484
 3899 0028 A988     		ldrh	r1, [r5, #4]
 3900 002a 0C91     		str	r1, [sp, #48]
 135:lvgl/src/draw/../misc/lv_area.h **** }
ARM GAS  /var/folders/k2/cd9bl_j17z77g23y6ffqb_400000gn/T//cc0jKSMI.s 			page 116


 3901              		.loc 2 135 44 view .LVU1485
 3902 002c 2A88     		ldrh	r2, [r5]
 135:lvgl/src/draw/../misc/lv_area.h **** }
 3903              		.loc 2 135 36 view .LVU1486
 3904 002e 8A1A     		subs	r2, r1, r2
 3905 0030 92B2     		uxth	r2, r2
 135:lvgl/src/draw/../misc/lv_area.h **** }
 3906              		.loc 2 135 49 view .LVU1487
 3907 0032 0132     		adds	r2, r2, #1
 135:lvgl/src/draw/../misc/lv_area.h **** }
 3908              		.loc 2 135 12 view .LVU1488
 3909 0034 12B2     		sxth	r2, r2
 3910              	.LVL356:
 135:lvgl/src/draw/../misc/lv_area.h **** }
 3911              		.loc 2 135 12 view .LVU1489
 3912              	.LBE303:
 3913              	.LBE302:
1225:lvgl/src/draw/lv_draw_rect.c ****     int32_t inner_h = lv_area_get_height(area_inner);
 3914              		.loc 1 1225 5 is_stmt 1 view .LVU1490
 3915              	.LBB304:
 3916              	.LBI304:
 143:lvgl/src/draw/../misc/lv_area.h **** {
 3917              		.loc 2 143 26 view .LVU1491
 3918              	.LBB305:
 3919              		.loc 2 145 5 view .LVU1492
 3920              		.loc 2 145 31 is_stmt 0 view .LVU1493
 3921 0036 E888     		ldrh	r0, [r5, #6]
 3922              	.LVL357:
 3923              		.loc 2 145 44 view .LVU1494
 3924 0038 6B88     		ldrh	r3, [r5, #2]
 3925              		.loc 2 145 36 view .LVU1495
 3926 003a C01A     		subs	r0, r0, r3
 3927 003c 80B2     		uxth	r0, r0
 3928              		.loc 2 145 49 view .LVU1496
 3929 003e 0130     		adds	r0, r0, #1
 3930              		.loc 2 145 12 view .LVU1497
 3931 0040 00B2     		sxth	r0, r0
 3932              	.LVL358:
 3933              		.loc 2 145 12 view .LVU1498
 3934              	.LBE305:
 3935              	.LBE304:
1226:lvgl/src/draw/lv_draw_rect.c ****     lv_coord_t border_width = area_outer->x2 - area_inner->x2;
 3936              		.loc 1 1226 5 is_stmt 1 view .LVU1499
 3937              		.loc 1 1226 41 is_stmt 0 view .LVU1500
 3938 0042 A388     		ldrh	r3, [r4, #4]
 3939              		.loc 1 1226 46 view .LVU1501
 3940 0044 0A93     		str	r3, [sp, #40]
 3941 0046 5B1A     		subs	r3, r3, r1
 3942 0048 99B2     		uxth	r1, r3
 3943 004a 0B91     		str	r1, [sp, #44]
 3944              		.loc 1 1226 16 view .LVU1502
 3945 004c 19B2     		sxth	r1, r3
 3946 004e 0891     		str	r1, [sp, #32]
 3947              	.LVL359:
1227:lvgl/src/draw/lv_draw_rect.c **** 
1228:lvgl/src/draw/lv_draw_rect.c ****     int32_t coords_out_w = lv_area_get_width(area_outer);
 3948              		.loc 1 1228 5 is_stmt 1 view .LVU1503
ARM GAS  /var/folders/k2/cd9bl_j17z77g23y6ffqb_400000gn/T//cc0jKSMI.s 			page 117


 3949              	.LBB306:
 3950              	.LBI306:
 133:lvgl/src/draw/../misc/lv_area.h **** {
 3951              		.loc 2 133 26 view .LVU1504
 3952              	.LBB307:
 135:lvgl/src/draw/../misc/lv_area.h **** }
 3953              		.loc 2 135 5 view .LVU1505
 135:lvgl/src/draw/../misc/lv_area.h **** }
 3954              		.loc 2 135 44 is_stmt 0 view .LVU1506
 3955 0050 2388     		ldrh	r3, [r4]
 135:lvgl/src/draw/../misc/lv_area.h **** }
 3956              		.loc 2 135 36 view .LVU1507
 3957 0052 0A99     		ldr	r1, [sp, #40]
 3958 0054 CB1A     		subs	r3, r1, r3
 3959 0056 9BB2     		uxth	r3, r3
 135:lvgl/src/draw/../misc/lv_area.h **** }
 3960              		.loc 2 135 49 view .LVU1508
 3961 0058 0133     		adds	r3, r3, #1
 135:lvgl/src/draw/../misc/lv_area.h **** }
 3962              		.loc 2 135 12 view .LVU1509
 3963 005a 1BB2     		sxth	r3, r3
 3964              	.LVL360:
 135:lvgl/src/draw/../misc/lv_area.h **** }
 3965              		.loc 2 135 12 view .LVU1510
 3966              	.LBE307:
 3967              	.LBE306:
1229:lvgl/src/draw/lv_draw_rect.c ****     int32_t coords_out_h = lv_area_get_height(area_outer);
 3968              		.loc 1 1229 5 is_stmt 1 view .LVU1511
 3969              	.LBB308:
 3970              	.LBI308:
 143:lvgl/src/draw/../misc/lv_area.h **** {
 3971              		.loc 2 143 26 view .LVU1512
 3972              	.LBB309:
 3973              		.loc 2 145 5 view .LVU1513
 3974              		.loc 2 145 31 is_stmt 0 view .LVU1514
 3975 005c E188     		ldrh	r1, [r4, #6]
 3976              		.loc 2 145 44 view .LVU1515
 3977 005e B4F802C0 		ldrh	ip, [r4, #2]
 3978              		.loc 2 145 36 view .LVU1516
 3979 0062 A1EB0C01 		sub	r1, r1, ip
 3980 0066 89B2     		uxth	r1, r1
 3981              		.loc 2 145 49 view .LVU1517
 3982 0068 0131     		adds	r1, r1, #1
 3983              		.loc 2 145 12 view .LVU1518
 3984 006a 09B2     		sxth	r1, r1
 3985              	.LVL361:
 3986              		.loc 2 145 12 view .LVU1519
 3987              	.LBE309:
 3988              	.LBE308:
1230:lvgl/src/draw/lv_draw_rect.c **** 
1231:lvgl/src/draw/lv_draw_rect.c ****     int32_t rin;
 3989              		.loc 1 1231 5 is_stmt 1 view .LVU1520
1232:lvgl/src/draw/lv_draw_rect.c ****     int32_t rout;
 3990              		.loc 1 1232 5 view .LVU1521
1233:lvgl/src/draw/lv_draw_rect.c ****     if(radius_is_in) {
 3991              		.loc 1 1233 5 view .LVU1522
 3992              		.loc 1 1233 7 is_stmt 0 view .LVU1523
ARM GAS  /var/folders/k2/cd9bl_j17z77g23y6ffqb_400000gn/T//cc0jKSMI.s 			page 118


 3993 006c B9F1000F 		cmp	r9, #0
 3994 0070 1CD0     		beq	.L185
 3995              	.LBB310:
1234:lvgl/src/draw/lv_draw_rect.c ****         rin = radius;
 3996              		.loc 1 1234 9 is_stmt 1 view .LVU1524
 3997              	.LVL362:
1235:lvgl/src/draw/lv_draw_rect.c ****         int32_t short_side = LV_MIN(inner_w, inner_h);
 3998              		.loc 1 1235 9 view .LVU1525
 3999              		.loc 1 1235 17 is_stmt 0 view .LVU1526
 4000 0072 8242     		cmp	r2, r0
 4001 0074 A8BF     		it	ge
 4002 0076 0246     		movge	r2, r0
 4003              	.LVL363:
1236:lvgl/src/draw/lv_draw_rect.c ****         if(rin > short_side >> 1) rin = short_side >> 1;
 4004              		.loc 1 1236 9 is_stmt 1 view .LVU1527
 4005              		.loc 1 1236 29 is_stmt 0 view .LVU1528
 4006 0078 4FEA6209 		asr	r9, r2, #1
 4007              		.loc 1 1236 11 view .LVU1529
 4008 007c B6EB620F 		cmp	r6, r2, asr #1
 4009 0080 00DC     		bgt	.L186
1234:lvgl/src/draw/lv_draw_rect.c ****         rin = radius;
 4010              		.loc 1 1234 13 view .LVU1530
 4011 0082 B146     		mov	r9, r6
 4012              	.L186:
 4013              	.LVL364:
1237:lvgl/src/draw/lv_draw_rect.c **** 
1238:lvgl/src/draw/lv_draw_rect.c ****         /*Get the outer area*/
1239:lvgl/src/draw/lv_draw_rect.c ****         rout = rin + border_width;
 4014              		.loc 1 1239 9 is_stmt 1 view .LVU1531
 4015              		.loc 1 1239 14 is_stmt 0 view .LVU1532
 4016 0084 089B     		ldr	r3, [sp, #32]
 4017              	.LVL365:
 4018              		.loc 1 1239 14 view .LVU1533
 4019 0086 4B44     		add	r3, r3, r9
 4020 0088 0793     		str	r3, [sp, #28]
 4021              	.LVL366:
 4022              	.L187:
 4023              		.loc 1 1239 14 view .LVU1534
 4024              	.LBE310:
1240:lvgl/src/draw/lv_draw_rect.c ****     }
1241:lvgl/src/draw/lv_draw_rect.c ****     else {
1242:lvgl/src/draw/lv_draw_rect.c ****         rout = radius;
1243:lvgl/src/draw/lv_draw_rect.c ****         int32_t short_side = LV_MIN(coords_out_w, coords_out_h);
1244:lvgl/src/draw/lv_draw_rect.c ****         if(rout > short_side >> 1) rout = short_side >> 1;
1245:lvgl/src/draw/lv_draw_rect.c **** 
1246:lvgl/src/draw/lv_draw_rect.c ****         /*Get the outer area*/
1247:lvgl/src/draw/lv_draw_rect.c ****         rin = rout - border_width;
1248:lvgl/src/draw/lv_draw_rect.c ****         if(rin < 0) rin = 0;
1249:lvgl/src/draw/lv_draw_rect.c **** 
1250:lvgl/src/draw/lv_draw_rect.c ****     }
1251:lvgl/src/draw/lv_draw_rect.c **** 
1252:lvgl/src/draw/lv_draw_rect.c ****     lv_disp_t * disp = _lv_refr_get_disp_refreshing();
 4025              		.loc 1 1252 5 is_stmt 1 view .LVU1535
 4026              		.loc 1 1252 24 is_stmt 0 view .LVU1536
 4027 008a FFF7FEFF 		bl	_lv_refr_get_disp_refreshing
 4028              	.LVL367:
1253:lvgl/src/draw/lv_draw_rect.c ****     lv_disp_draw_buf_t * draw_buf = lv_disp_get_draw_buf(disp);
ARM GAS  /var/folders/k2/cd9bl_j17z77g23y6ffqb_400000gn/T//cc0jKSMI.s 			page 119


 4029              		.loc 1 1253 5 is_stmt 1 view .LVU1537
 4030              		.loc 1 1253 37 is_stmt 0 view .LVU1538
 4031 008e FFF7FEFF 		bl	lv_disp_get_draw_buf
 4032              	.LVL368:
 4033              		.loc 1 1253 37 view .LVU1539
 4034 0092 0646     		mov	r6, r0
 4035              	.LVL369:
1254:lvgl/src/draw/lv_draw_rect.c **** 
1255:lvgl/src/draw/lv_draw_rect.c ****     /*Get clipped fill area which is the real draw area.
1256:lvgl/src/draw/lv_draw_rect.c ****      *It is always the same or inside `fill_area`*/
1257:lvgl/src/draw/lv_draw_rect.c ****     lv_area_t draw_area;
 4036              		.loc 1 1257 5 is_stmt 1 view .LVU1540
1258:lvgl/src/draw/lv_draw_rect.c ****     bool is_common;
 4037              		.loc 1 1258 5 view .LVU1541
1259:lvgl/src/draw/lv_draw_rect.c ****     is_common = _lv_area_intersect(&draw_area, area_outer, clip);
 4038              		.loc 1 1259 5 view .LVU1542
 4039              		.loc 1 1259 17 is_stmt 0 view .LVU1543
 4040 0094 059A     		ldr	r2, [sp, #20]
 4041 0096 2146     		mov	r1, r4
 4042 0098 22A8     		add	r0, sp, #136
 4043              	.LVL370:
 4044              		.loc 1 1259 17 view .LVU1544
 4045 009a FFF7FEFF 		bl	_lv_area_intersect
 4046              	.LVL371:
1260:lvgl/src/draw/lv_draw_rect.c ****     if(is_common == false) return;
 4047              		.loc 1 1260 5 is_stmt 1 view .LVU1545
 4048              		.loc 1 1260 7 is_stmt 0 view .LVU1546
 4049 009e B0B9     		cbnz	r0, .L211
 4050              	.LVL372:
 4051              	.L183:
1261:lvgl/src/draw/lv_draw_rect.c **** 
1262:lvgl/src/draw/lv_draw_rect.c ****     const lv_area_t * disp_area = &draw_buf->area;
1263:lvgl/src/draw/lv_draw_rect.c **** 
1264:lvgl/src/draw/lv_draw_rect.c ****     /*Now `draw_area` has absolute coordinates.
1265:lvgl/src/draw/lv_draw_rect.c ****      *Make it relative to `disp_area` to simplify draw to `disp_buf`*/
1266:lvgl/src/draw/lv_draw_rect.c ****     draw_area.x1 -= disp_area->x1;
1267:lvgl/src/draw/lv_draw_rect.c ****     draw_area.y1 -= disp_area->y1;
1268:lvgl/src/draw/lv_draw_rect.c ****     draw_area.x2 -= disp_area->x1;
1269:lvgl/src/draw/lv_draw_rect.c ****     draw_area.y2 -= disp_area->y1;
1270:lvgl/src/draw/lv_draw_rect.c **** 
1271:lvgl/src/draw/lv_draw_rect.c ****     int32_t draw_area_w = lv_area_get_width(&draw_area);
1272:lvgl/src/draw/lv_draw_rect.c **** 
1273:lvgl/src/draw/lv_draw_rect.c ****     /*Create inner the mask*/
1274:lvgl/src/draw/lv_draw_rect.c ****     lv_draw_mask_radius_param_t mask_rin_param;
1275:lvgl/src/draw/lv_draw_rect.c ****     lv_draw_mask_radius_init(&mask_rin_param, area_inner, rin, true);
1276:lvgl/src/draw/lv_draw_rect.c ****     int16_t mask_rin_id = lv_draw_mask_add(&mask_rin_param, NULL);
1277:lvgl/src/draw/lv_draw_rect.c **** 
1278:lvgl/src/draw/lv_draw_rect.c ****     lv_draw_mask_radius_param_t mask_rout_param;
1279:lvgl/src/draw/lv_draw_rect.c ****     lv_draw_mask_radius_init(&mask_rout_param, area_outer, rout, false);
1280:lvgl/src/draw/lv_draw_rect.c ****     int16_t mask_rout_id = lv_draw_mask_add(&mask_rout_param, NULL);
1281:lvgl/src/draw/lv_draw_rect.c **** 
1282:lvgl/src/draw/lv_draw_rect.c ****     lv_opa_t * mask_buf = lv_mem_buf_get(draw_area_w);
1283:lvgl/src/draw/lv_draw_rect.c **** 
1284:lvgl/src/draw/lv_draw_rect.c ****     int32_t corner_size = LV_MAX(rout, border_width - 1);
1285:lvgl/src/draw/lv_draw_rect.c **** 
1286:lvgl/src/draw/lv_draw_rect.c ****     int32_t h;
1287:lvgl/src/draw/lv_draw_rect.c ****     lv_draw_mask_res_t mask_res;
ARM GAS  /var/folders/k2/cd9bl_j17z77g23y6ffqb_400000gn/T//cc0jKSMI.s 			page 120


1288:lvgl/src/draw/lv_draw_rect.c ****     lv_area_t fill_area;
1289:lvgl/src/draw/lv_draw_rect.c **** 
1290:lvgl/src/draw/lv_draw_rect.c ****     /*Apply some optimization if there is no other mask*/
1291:lvgl/src/draw/lv_draw_rect.c ****     if(simple_mode) {
1292:lvgl/src/draw/lv_draw_rect.c ****         /*Draw the upper corner area*/
1293:lvgl/src/draw/lv_draw_rect.c ****         int32_t upper_corner_end = area_outer->y1 - disp_area->y1 + corner_size;
1294:lvgl/src/draw/lv_draw_rect.c **** 
1295:lvgl/src/draw/lv_draw_rect.c ****         fill_area.x1 = area_outer->x1;
1296:lvgl/src/draw/lv_draw_rect.c ****         fill_area.x2 = area_outer->x2;
1297:lvgl/src/draw/lv_draw_rect.c ****         fill_area.y1 = disp_area->y1 + draw_area.y1;
1298:lvgl/src/draw/lv_draw_rect.c ****         fill_area.y2 = fill_area.y1;
1299:lvgl/src/draw/lv_draw_rect.c ****         for(h = draw_area.y1; h <= upper_corner_end; h++) {
1300:lvgl/src/draw/lv_draw_rect.c ****             lv_memset_ff(mask_buf, draw_area_w);
1301:lvgl/src/draw/lv_draw_rect.c ****             mask_res = lv_draw_mask_apply(mask_buf, draw_buf->area.x1 + draw_area.x1, draw_buf->are
1302:lvgl/src/draw/lv_draw_rect.c **** 
1303:lvgl/src/draw/lv_draw_rect.c ****             lv_area_t fill_area2;
1304:lvgl/src/draw/lv_draw_rect.c ****             fill_area2.y1 = fill_area.y1;
1305:lvgl/src/draw/lv_draw_rect.c ****             fill_area2.y2 = fill_area.y2;
1306:lvgl/src/draw/lv_draw_rect.c **** 
1307:lvgl/src/draw/lv_draw_rect.c ****             fill_area2.x1 = area_outer->x1;
1308:lvgl/src/draw/lv_draw_rect.c ****             fill_area2.x2 = area_outer->x1 + rout - 1;
1309:lvgl/src/draw/lv_draw_rect.c **** 
1310:lvgl/src/draw/lv_draw_rect.c ****             _lv_blend_fill(clip, &fill_area2, color, mask_buf, mask_res, opa, blend_mode);
1311:lvgl/src/draw/lv_draw_rect.c **** 
1312:lvgl/src/draw/lv_draw_rect.c ****             /*Draw the top horizontal line*/
1313:lvgl/src/draw/lv_draw_rect.c ****             if(fill_area2.y2 < area_outer->y1 + border_width) {
1314:lvgl/src/draw/lv_draw_rect.c ****                 fill_area2.x1 = area_outer->x1 + rout;
1315:lvgl/src/draw/lv_draw_rect.c ****                 fill_area2.x2 = area_outer->x2 - rout;
1316:lvgl/src/draw/lv_draw_rect.c **** 
1317:lvgl/src/draw/lv_draw_rect.c ****                 _lv_blend_fill(clip, &fill_area2, color, NULL, LV_DRAW_MASK_RES_FULL_COVER, opa, bl
1318:lvgl/src/draw/lv_draw_rect.c ****             }
1319:lvgl/src/draw/lv_draw_rect.c **** 
1320:lvgl/src/draw/lv_draw_rect.c ****             fill_area2.x1 = area_outer->x2 - rout + 1;
1321:lvgl/src/draw/lv_draw_rect.c ****             fill_area2.x2 = area_outer->x2;
1322:lvgl/src/draw/lv_draw_rect.c **** 
1323:lvgl/src/draw/lv_draw_rect.c ****             int32_t mask_ofs = (area_outer->x2 - rout + 1) - (draw_buf->area.x1 + draw_area.x1);
1324:lvgl/src/draw/lv_draw_rect.c ****             if(mask_ofs < 0) mask_ofs = 0;
1325:lvgl/src/draw/lv_draw_rect.c ****             _lv_blend_fill(clip, &fill_area2, color, mask_buf + mask_ofs, mask_res, opa, blend_mode
1326:lvgl/src/draw/lv_draw_rect.c **** 
1327:lvgl/src/draw/lv_draw_rect.c ****             fill_area.y1++;
1328:lvgl/src/draw/lv_draw_rect.c ****             fill_area.y2++;
1329:lvgl/src/draw/lv_draw_rect.c ****         }
1330:lvgl/src/draw/lv_draw_rect.c **** 
1331:lvgl/src/draw/lv_draw_rect.c ****         /*Draw the lower corner area*/
1332:lvgl/src/draw/lv_draw_rect.c ****         int32_t lower_corner_end = area_outer->y2 - disp_area->y1 - corner_size;
1333:lvgl/src/draw/lv_draw_rect.c ****         if(lower_corner_end <= upper_corner_end) lower_corner_end = upper_corner_end + 1;
1334:lvgl/src/draw/lv_draw_rect.c ****         fill_area.y1 = disp_area->y1 + lower_corner_end;
1335:lvgl/src/draw/lv_draw_rect.c ****         fill_area.y2 = fill_area.y1;
1336:lvgl/src/draw/lv_draw_rect.c ****         for(h = lower_corner_end; h <= draw_area.y2; h++) {
1337:lvgl/src/draw/lv_draw_rect.c ****             lv_memset_ff(mask_buf, draw_area_w);
1338:lvgl/src/draw/lv_draw_rect.c ****             mask_res = lv_draw_mask_apply(mask_buf, draw_buf->area.x1 + draw_area.x1, draw_buf->are
1339:lvgl/src/draw/lv_draw_rect.c **** 
1340:lvgl/src/draw/lv_draw_rect.c ****             lv_area_t fill_area2;
1341:lvgl/src/draw/lv_draw_rect.c ****             fill_area2.x1 = area_outer->x1;
1342:lvgl/src/draw/lv_draw_rect.c ****             fill_area2.x2 = area_outer->x1 + rout - 1;
1343:lvgl/src/draw/lv_draw_rect.c ****             fill_area2.y1 = fill_area.y1;
1344:lvgl/src/draw/lv_draw_rect.c ****             fill_area2.y2 = fill_area.y2;
ARM GAS  /var/folders/k2/cd9bl_j17z77g23y6ffqb_400000gn/T//cc0jKSMI.s 			page 121


1345:lvgl/src/draw/lv_draw_rect.c **** 
1346:lvgl/src/draw/lv_draw_rect.c ****             _lv_blend_fill(clip, &fill_area2, color, mask_buf, mask_res, opa, blend_mode);
1347:lvgl/src/draw/lv_draw_rect.c **** 
1348:lvgl/src/draw/lv_draw_rect.c ****             /*Draw the bottom horizontal line*/
1349:lvgl/src/draw/lv_draw_rect.c ****             if(fill_area2.y2 > area_outer->y2 - border_width) {
1350:lvgl/src/draw/lv_draw_rect.c ****                 fill_area2.x1 = area_outer->x1 + rout;
1351:lvgl/src/draw/lv_draw_rect.c ****                 fill_area2.x2 = area_outer->x2 - rout;
1352:lvgl/src/draw/lv_draw_rect.c **** 
1353:lvgl/src/draw/lv_draw_rect.c ****                 _lv_blend_fill(clip, &fill_area2, color, NULL, LV_DRAW_MASK_RES_FULL_COVER, opa, bl
1354:lvgl/src/draw/lv_draw_rect.c ****             }
1355:lvgl/src/draw/lv_draw_rect.c ****             fill_area2.x1 = area_outer->x2 - rout + 1;
1356:lvgl/src/draw/lv_draw_rect.c ****             fill_area2.x2 = area_outer->x2;
1357:lvgl/src/draw/lv_draw_rect.c **** 
1358:lvgl/src/draw/lv_draw_rect.c ****             int32_t mask_ofs = (area_outer->x2 - rout + 1) - (draw_buf->area.x1 + draw_area.x1);
1359:lvgl/src/draw/lv_draw_rect.c ****             if(mask_ofs < 0) mask_ofs = 0;
1360:lvgl/src/draw/lv_draw_rect.c ****             _lv_blend_fill(clip, &fill_area2, color, mask_buf + mask_ofs, mask_res, opa, blend_mode
1361:lvgl/src/draw/lv_draw_rect.c **** 
1362:lvgl/src/draw/lv_draw_rect.c ****             fill_area.y1++;
1363:lvgl/src/draw/lv_draw_rect.c ****             fill_area.y2++;
1364:lvgl/src/draw/lv_draw_rect.c ****         }
1365:lvgl/src/draw/lv_draw_rect.c **** 
1366:lvgl/src/draw/lv_draw_rect.c ****         /*Draw the left vertical part*/
1367:lvgl/src/draw/lv_draw_rect.c ****         fill_area.y1 = area_outer->y1 + corner_size + 1;
1368:lvgl/src/draw/lv_draw_rect.c ****         fill_area.y2 = area_outer->y2 - corner_size - 1;
1369:lvgl/src/draw/lv_draw_rect.c **** 
1370:lvgl/src/draw/lv_draw_rect.c ****         fill_area.x1 = area_outer->x1;
1371:lvgl/src/draw/lv_draw_rect.c ****         fill_area.x2 = area_outer->x1 + border_width - 1;
1372:lvgl/src/draw/lv_draw_rect.c ****         _lv_blend_fill(clip, &fill_area, color, NULL, LV_DRAW_MASK_RES_FULL_COVER, opa, blend_mode)
1373:lvgl/src/draw/lv_draw_rect.c **** 
1374:lvgl/src/draw/lv_draw_rect.c ****         /*Draw the right vertical border*/
1375:lvgl/src/draw/lv_draw_rect.c ****         fill_area.x1 = area_outer->x2 - border_width + 1;
1376:lvgl/src/draw/lv_draw_rect.c ****         fill_area.x2 = area_outer->x2;
1377:lvgl/src/draw/lv_draw_rect.c **** 
1378:lvgl/src/draw/lv_draw_rect.c ****         _lv_blend_fill(clip, &fill_area, color, NULL, LV_DRAW_MASK_RES_FULL_COVER, opa, blend_mode)
1379:lvgl/src/draw/lv_draw_rect.c ****     }
1380:lvgl/src/draw/lv_draw_rect.c ****     /*Process line by line if there is other mask too*/
1381:lvgl/src/draw/lv_draw_rect.c ****     else {
1382:lvgl/src/draw/lv_draw_rect.c ****         fill_area.x1 = area_outer->x1;
1383:lvgl/src/draw/lv_draw_rect.c ****         fill_area.x2 = area_outer->x2;
1384:lvgl/src/draw/lv_draw_rect.c ****         fill_area.y1 = disp_area->y1 + draw_area.y1;
1385:lvgl/src/draw/lv_draw_rect.c ****         fill_area.y2 = fill_area.y1;
1386:lvgl/src/draw/lv_draw_rect.c **** 
1387:lvgl/src/draw/lv_draw_rect.c ****         for(h = draw_area.y1; h <= draw_area.y2; h++) {
1388:lvgl/src/draw/lv_draw_rect.c ****             lv_memset_ff(mask_buf, draw_area_w);
1389:lvgl/src/draw/lv_draw_rect.c ****             mask_res = lv_draw_mask_apply(mask_buf, draw_buf->area.x1 + draw_area.x1, draw_buf->are
1390:lvgl/src/draw/lv_draw_rect.c **** 
1391:lvgl/src/draw/lv_draw_rect.c ****             _lv_blend_fill(clip, &fill_area, color, mask_buf, mask_res, opa, blend_mode);
1392:lvgl/src/draw/lv_draw_rect.c ****             fill_area.y1++;
1393:lvgl/src/draw/lv_draw_rect.c ****             fill_area.y2++;
1394:lvgl/src/draw/lv_draw_rect.c **** 
1395:lvgl/src/draw/lv_draw_rect.c ****         }
1396:lvgl/src/draw/lv_draw_rect.c ****     }
1397:lvgl/src/draw/lv_draw_rect.c ****     lv_draw_mask_remove_id(mask_rin_id);
1398:lvgl/src/draw/lv_draw_rect.c ****     lv_draw_mask_remove_id(mask_rout_id);
1399:lvgl/src/draw/lv_draw_rect.c ****     lv_mem_buf_release(mask_buf);
1400:lvgl/src/draw/lv_draw_rect.c **** }
 4052              		.loc 1 1400 1 view .LVU1547
ARM GAS  /var/folders/k2/cd9bl_j17z77g23y6ffqb_400000gn/T//cc0jKSMI.s 			page 122


 4053 00a0 25B0     		add	sp, sp, #148
 4054              	.LCFI12:
 4055              		.cfi_remember_state
 4056              		.cfi_def_cfa_offset 36
 4057              		@ sp needed
 4058 00a2 BDE8F08F 		pop	{r4, r5, r6, r7, r8, r9, r10, fp, pc}
 4059              	.LVL373:
 4060              	.L205:
 4061              	.LCFI13:
 4062              		.cfi_restore_state
1222:lvgl/src/draw/lv_draw_rect.c **** 
 4063              		.loc 1 1222 36 view .LVU1548
 4064 00a6 4FF0000A 		mov	r10, #0
 4065 00aa BDE7     		b	.L184
 4066              	.LVL374:
 4067              	.L185:
 4068              	.LBB311:
1242:lvgl/src/draw/lv_draw_rect.c ****         int32_t short_side = LV_MIN(coords_out_w, coords_out_h);
 4069              		.loc 1 1242 9 is_stmt 1 view .LVU1549
1243:lvgl/src/draw/lv_draw_rect.c ****         if(rout > short_side >> 1) rout = short_side >> 1;
 4070              		.loc 1 1243 9 view .LVU1550
1243:lvgl/src/draw/lv_draw_rect.c ****         if(rout > short_side >> 1) rout = short_side >> 1;
 4071              		.loc 1 1243 17 is_stmt 0 view .LVU1551
 4072 00ac 9942     		cmp	r1, r3
 4073 00ae A8BF     		it	ge
 4074 00b0 1946     		movge	r1, r3
 4075              	.LVL375:
1244:lvgl/src/draw/lv_draw_rect.c **** 
 4076              		.loc 1 1244 9 is_stmt 1 view .LVU1552
1244:lvgl/src/draw/lv_draw_rect.c **** 
 4077              		.loc 1 1244 30 is_stmt 0 view .LVU1553
 4078 00b2 4B10     		asrs	r3, r1, #1
 4079              	.LVL376:
1244:lvgl/src/draw/lv_draw_rect.c **** 
 4080              		.loc 1 1244 30 view .LVU1554
 4081 00b4 0793     		str	r3, [sp, #28]
1244:lvgl/src/draw/lv_draw_rect.c **** 
 4082              		.loc 1 1244 11 view .LVU1555
 4083 00b6 B6EB610F 		cmp	r6, r1, asr #1
 4084 00ba 00DC     		bgt	.L188
1242:lvgl/src/draw/lv_draw_rect.c ****         int32_t short_side = LV_MIN(coords_out_w, coords_out_h);
 4085              		.loc 1 1242 14 view .LVU1556
 4086 00bc 0796     		str	r6, [sp, #28]
 4087              	.L188:
 4088              	.LVL377:
1247:lvgl/src/draw/lv_draw_rect.c ****         if(rin < 0) rin = 0;
 4089              		.loc 1 1247 9 is_stmt 1 view .LVU1557
1248:lvgl/src/draw/lv_draw_rect.c **** 
 4090              		.loc 1 1248 9 view .LVU1558
1248:lvgl/src/draw/lv_draw_rect.c **** 
 4091              		.loc 1 1248 11 is_stmt 0 view .LVU1559
 4092 00be 079B     		ldr	r3, [sp, #28]
 4093 00c0 089A     		ldr	r2, [sp, #32]
 4094              	.LVL378:
1248:lvgl/src/draw/lv_draw_rect.c **** 
 4095              		.loc 1 1248 11 view .LVU1560
 4096 00c2 B3EB0209 		subs	r9, r3, r2
ARM GAS  /var/folders/k2/cd9bl_j17z77g23y6ffqb_400000gn/T//cc0jKSMI.s 			page 123


 4097              	.LVL379:
1248:lvgl/src/draw/lv_draw_rect.c **** 
 4098              		.loc 1 1248 11 view .LVU1561
 4099 00c6 E0D5     		bpl	.L187
1248:lvgl/src/draw/lv_draw_rect.c **** 
 4100              		.loc 1 1248 25 view .LVU1562
 4101 00c8 4FF00009 		mov	r9, #0
 4102              	.LVL380:
1248:lvgl/src/draw/lv_draw_rect.c **** 
 4103              		.loc 1 1248 25 view .LVU1563
 4104 00cc DDE7     		b	.L187
 4105              	.LVL381:
 4106              	.L211:
1248:lvgl/src/draw/lv_draw_rect.c **** 
 4107              		.loc 1 1248 25 view .LVU1564
 4108              	.LBE311:
1262:lvgl/src/draw/lv_draw_rect.c **** 
 4109              		.loc 1 1262 5 is_stmt 1 view .LVU1565
1266:lvgl/src/draw/lv_draw_rect.c ****     draw_area.y1 -= disp_area->y1;
 4110              		.loc 1 1266 5 view .LVU1566
1266:lvgl/src/draw/lv_draw_rect.c ****     draw_area.y1 -= disp_area->y1;
 4111              		.loc 1 1266 30 is_stmt 0 view .LVU1567
 4112 00ce B6F810C0 		ldrh	ip, [r6, #16]
1266:lvgl/src/draw/lv_draw_rect.c ****     draw_area.y1 -= disp_area->y1;
 4113              		.loc 1 1266 18 view .LVU1568
 4114 00d2 BDF88830 		ldrh	r3, [sp, #136]
 4115 00d6 A3EB0C03 		sub	r3, r3, ip
 4116 00da 9AB2     		uxth	r2, r3
 4117 00dc ADF88820 		strh	r2, [sp, #136]	@ movhi
1267:lvgl/src/draw/lv_draw_rect.c ****     draw_area.x2 -= disp_area->x1;
 4118              		.loc 1 1267 5 is_stmt 1 view .LVU1569
1267:lvgl/src/draw/lv_draw_rect.c ****     draw_area.x2 -= disp_area->x1;
 4119              		.loc 1 1267 30 is_stmt 0 view .LVU1570
 4120 00e0 708A     		ldrh	r0, [r6, #18]
 4121              	.LVL382:
1267:lvgl/src/draw/lv_draw_rect.c ****     draw_area.x2 -= disp_area->x1;
 4122              		.loc 1 1267 18 view .LVU1571
 4123 00e2 BDF88A10 		ldrh	r1, [sp, #138]
 4124 00e6 091A     		subs	r1, r1, r0
 4125 00e8 ADF88A10 		strh	r1, [sp, #138]	@ movhi
1268:lvgl/src/draw/lv_draw_rect.c ****     draw_area.y2 -= disp_area->y1;
 4126              		.loc 1 1268 5 is_stmt 1 view .LVU1572
1268:lvgl/src/draw/lv_draw_rect.c ****     draw_area.y2 -= disp_area->y1;
 4127              		.loc 1 1268 18 is_stmt 0 view .LVU1573
 4128 00ec BDF88C30 		ldrh	r3, [sp, #140]
 4129 00f0 A3EB0C03 		sub	r3, r3, ip
 4130 00f4 9BB2     		uxth	r3, r3
 4131 00f6 ADF88C30 		strh	r3, [sp, #140]	@ movhi
1269:lvgl/src/draw/lv_draw_rect.c **** 
 4132              		.loc 1 1269 5 is_stmt 1 view .LVU1574
1269:lvgl/src/draw/lv_draw_rect.c **** 
 4133              		.loc 1 1269 18 is_stmt 0 view .LVU1575
 4134 00fa BDF88E10 		ldrh	r1, [sp, #142]
 4135 00fe 091A     		subs	r1, r1, r0
 4136 0100 ADF88E10 		strh	r1, [sp, #142]	@ movhi
1271:lvgl/src/draw/lv_draw_rect.c **** 
 4137              		.loc 1 1271 5 is_stmt 1 view .LVU1576
ARM GAS  /var/folders/k2/cd9bl_j17z77g23y6ffqb_400000gn/T//cc0jKSMI.s 			page 124


 4138              	.LVL383:
 4139              	.LBB312:
 4140              	.LBI312:
 133:lvgl/src/draw/../misc/lv_area.h **** {
 4141              		.loc 2 133 26 view .LVU1577
 4142              	.LBB313:
 135:lvgl/src/draw/../misc/lv_area.h **** }
 4143              		.loc 2 135 5 view .LVU1578
 135:lvgl/src/draw/../misc/lv_area.h **** }
 4144              		.loc 2 135 36 is_stmt 0 view .LVU1579
 4145 0104 9B1A     		subs	r3, r3, r2
 4146 0106 9BB2     		uxth	r3, r3
 135:lvgl/src/draw/../misc/lv_area.h **** }
 4147              		.loc 2 135 49 view .LVU1580
 4148 0108 0133     		adds	r3, r3, #1
 135:lvgl/src/draw/../misc/lv_area.h **** }
 4149              		.loc 2 135 12 view .LVU1581
 4150 010a 0FFA83F8 		sxth	r8, r3
 4151              	.LVL384:
 135:lvgl/src/draw/../misc/lv_area.h **** }
 4152              		.loc 2 135 12 view .LVU1582
 4153              	.LBE313:
 4154              	.LBE312:
1274:lvgl/src/draw/lv_draw_rect.c ****     lv_draw_mask_radius_init(&mask_rin_param, area_inner, rin, true);
 4155              		.loc 1 1274 5 is_stmt 1 view .LVU1583
1275:lvgl/src/draw/lv_draw_rect.c ****     int16_t mask_rin_id = lv_draw_mask_add(&mask_rin_param, NULL);
 4156              		.loc 1 1275 5 view .LVU1584
 4157 010e 0123     		movs	r3, #1
 4158 0110 0FFA89F2 		sxth	r2, r9
 4159 0114 2946     		mov	r1, r5
 4160 0116 1BA8     		add	r0, sp, #108
 4161 0118 FFF7FEFF 		bl	lv_draw_mask_radius_init
 4162              	.LVL385:
1276:lvgl/src/draw/lv_draw_rect.c **** 
 4163              		.loc 1 1276 5 view .LVU1585
1276:lvgl/src/draw/lv_draw_rect.c **** 
 4164              		.loc 1 1276 27 is_stmt 0 view .LVU1586
 4165 011c 0021     		movs	r1, #0
 4166 011e 1BA8     		add	r0, sp, #108
 4167 0120 FFF7FEFF 		bl	lv_draw_mask_add
 4168              	.LVL386:
 4169 0124 0E90     		str	r0, [sp, #56]
 4170              	.LVL387:
1278:lvgl/src/draw/lv_draw_rect.c ****     lv_draw_mask_radius_init(&mask_rout_param, area_outer, rout, false);
 4171              		.loc 1 1278 5 is_stmt 1 view .LVU1587
1279:lvgl/src/draw/lv_draw_rect.c ****     int16_t mask_rout_id = lv_draw_mask_add(&mask_rout_param, NULL);
 4172              		.loc 1 1279 5 view .LVU1588
 4173 0126 0023     		movs	r3, #0
 4174 0128 DDF81C90 		ldr	r9, [sp, #28]
 4175              	.LVL388:
1279:lvgl/src/draw/lv_draw_rect.c ****     int16_t mask_rout_id = lv_draw_mask_add(&mask_rout_param, NULL);
 4176              		.loc 1 1279 5 is_stmt 0 view .LVU1589
 4177 012c 0FFA89F2 		sxth	r2, r9
 4178 0130 2146     		mov	r1, r4
 4179 0132 14A8     		add	r0, sp, #80
 4180 0134 FFF7FEFF 		bl	lv_draw_mask_radius_init
 4181              	.LVL389:
ARM GAS  /var/folders/k2/cd9bl_j17z77g23y6ffqb_400000gn/T//cc0jKSMI.s 			page 125


1280:lvgl/src/draw/lv_draw_rect.c **** 
 4182              		.loc 1 1280 5 is_stmt 1 view .LVU1590
1280:lvgl/src/draw/lv_draw_rect.c **** 
 4183              		.loc 1 1280 28 is_stmt 0 view .LVU1591
 4184 0138 0021     		movs	r1, #0
 4185 013a 14A8     		add	r0, sp, #80
 4186 013c FFF7FEFF 		bl	lv_draw_mask_add
 4187              	.LVL390:
 4188 0140 0F90     		str	r0, [sp, #60]
 4189              	.LVL391:
1282:lvgl/src/draw/lv_draw_rect.c **** 
 4190              		.loc 1 1282 5 is_stmt 1 view .LVU1592
1282:lvgl/src/draw/lv_draw_rect.c **** 
 4191              		.loc 1 1282 27 is_stmt 0 view .LVU1593
 4192 0142 4046     		mov	r0, r8
 4193 0144 FFF7FEFF 		bl	lv_mem_buf_get
 4194              	.LVL392:
 4195 0148 0546     		mov	r5, r0
 4196              	.LVL393:
1284:lvgl/src/draw/lv_draw_rect.c **** 
 4197              		.loc 1 1284 5 is_stmt 1 view .LVU1594
1284:lvgl/src/draw/lv_draw_rect.c **** 
 4198              		.loc 1 1284 27 is_stmt 0 view .LVU1595
 4199 014a 089B     		ldr	r3, [sp, #32]
 4200 014c 4B45     		cmp	r3, r9
 4201 014e 22DD     		ble	.L207
1284:lvgl/src/draw/lv_draw_rect.c **** 
 4202              		.loc 1 1284 27 discriminator 1 view .LVU1596
 4203 0150 013B     		subs	r3, r3, #1
 4204 0152 0D93     		str	r3, [sp, #52]
 4205              	.L191:
 4206              	.LVL394:
1286:lvgl/src/draw/lv_draw_rect.c ****     lv_draw_mask_res_t mask_res;
 4207              		.loc 1 1286 5 is_stmt 1 discriminator 4 view .LVU1597
1287:lvgl/src/draw/lv_draw_rect.c ****     lv_area_t fill_area;
 4208              		.loc 1 1287 5 discriminator 4 view .LVU1598
1288:lvgl/src/draw/lv_draw_rect.c **** 
 4209              		.loc 1 1288 5 discriminator 4 view .LVU1599
1291:lvgl/src/draw/lv_draw_rect.c ****         /*Draw the upper corner area*/
 4210              		.loc 1 1291 5 discriminator 4 view .LVU1600
1291:lvgl/src/draw/lv_draw_rect.c ****         /*Draw the upper corner area*/
 4211              		.loc 1 1291 7 is_stmt 0 discriminator 4 view .LVU1601
 4212 0154 BAF1000F 		cmp	r10, #0
 4213 0158 00F08081 		beq	.L192
 4214              	.LBB314:
1293:lvgl/src/draw/lv_draw_rect.c **** 
 4215              		.loc 1 1293 9 is_stmt 1 view .LVU1602
1293:lvgl/src/draw/lv_draw_rect.c **** 
 4216              		.loc 1 1293 46 is_stmt 0 view .LVU1603
 4217 015c B4F90220 		ldrsh	r2, [r4, #2]
1293:lvgl/src/draw/lv_draw_rect.c **** 
 4218              		.loc 1 1293 62 view .LVU1604
 4219 0160 B6F91230 		ldrsh	r3, [r6, #18]
1293:lvgl/src/draw/lv_draw_rect.c **** 
 4220              		.loc 1 1293 51 view .LVU1605
 4221 0164 D21A     		subs	r2, r2, r3
1293:lvgl/src/draw/lv_draw_rect.c **** 
ARM GAS  /var/folders/k2/cd9bl_j17z77g23y6ffqb_400000gn/T//cc0jKSMI.s 			page 126


 4222              		.loc 1 1293 17 view .LVU1606
 4223 0166 0D99     		ldr	r1, [sp, #52]
 4224 0168 0A44     		add	r2, r2, r1
 4225 016a 0992     		str	r2, [sp, #36]
 4226              	.LVL395:
1295:lvgl/src/draw/lv_draw_rect.c ****         fill_area.x2 = area_outer->x2;
 4227              		.loc 1 1295 9 is_stmt 1 view .LVU1607
1295:lvgl/src/draw/lv_draw_rect.c ****         fill_area.x2 = area_outer->x2;
 4228              		.loc 1 1295 34 is_stmt 0 view .LVU1608
 4229 016c B4F90020 		ldrsh	r2, [r4]
 4230              	.LVL396:
1295:lvgl/src/draw/lv_draw_rect.c ****         fill_area.x2 = area_outer->x2;
 4231              		.loc 1 1295 22 view .LVU1609
 4232 0170 ADF84820 		strh	r2, [sp, #72]	@ movhi
1296:lvgl/src/draw/lv_draw_rect.c ****         fill_area.y1 = disp_area->y1 + draw_area.y1;
 4233              		.loc 1 1296 9 is_stmt 1 view .LVU1610
1296:lvgl/src/draw/lv_draw_rect.c ****         fill_area.y1 = disp_area->y1 + draw_area.y1;
 4234              		.loc 1 1296 34 is_stmt 0 view .LVU1611
 4235 0174 B4F90420 		ldrsh	r2, [r4, #4]
1296:lvgl/src/draw/lv_draw_rect.c ****         fill_area.y1 = disp_area->y1 + draw_area.y1;
 4236              		.loc 1 1296 22 view .LVU1612
 4237 0178 ADF84C20 		strh	r2, [sp, #76]	@ movhi
1297:lvgl/src/draw/lv_draw_rect.c ****         fill_area.y2 = fill_area.y1;
 4238              		.loc 1 1297 9 is_stmt 1 view .LVU1613
1297:lvgl/src/draw/lv_draw_rect.c ****         fill_area.y2 = fill_area.y1;
 4239              		.loc 1 1297 49 is_stmt 0 view .LVU1614
 4240 017c BDF98AA0 		ldrsh	r10, [sp, #138]
 4241              	.LVL397:
1297:lvgl/src/draw/lv_draw_rect.c ****         fill_area.y2 = fill_area.y1;
 4242              		.loc 1 1297 49 view .LVU1615
 4243 0180 1FFA8AF2 		uxth	r2, r10
1297:lvgl/src/draw/lv_draw_rect.c ****         fill_area.y2 = fill_area.y1;
 4244              		.loc 1 1297 38 view .LVU1616
 4245 0184 12FA83F3 		uxtah	r3, r2, r3
 4246 0188 1BB2     		sxth	r3, r3
1297:lvgl/src/draw/lv_draw_rect.c ****         fill_area.y2 = fill_area.y1;
 4247              		.loc 1 1297 22 view .LVU1617
 4248 018a ADF84A30 		strh	r3, [sp, #74]	@ movhi
1298:lvgl/src/draw/lv_draw_rect.c ****         for(h = draw_area.y1; h <= upper_corner_end; h++) {
 4249              		.loc 1 1298 9 is_stmt 1 view .LVU1618
1298:lvgl/src/draw/lv_draw_rect.c ****         for(h = draw_area.y1; h <= upper_corner_end; h++) {
 4250              		.loc 1 1298 22 is_stmt 0 view .LVU1619
 4251 018e ADF84E30 		strh	r3, [sp, #78]	@ movhi
1299:lvgl/src/draw/lv_draw_rect.c ****             lv_memset_ff(mask_buf, draw_area_w);
 4252              		.loc 1 1299 9 is_stmt 1 view .LVU1620
 4253              	.LVL398:
1299:lvgl/src/draw/lv_draw_rect.c ****             lv_memset_ff(mask_buf, draw_area_w);
 4254              		.loc 1 1299 9 is_stmt 0 view .LVU1621
 4255 0192 A146     		mov	r9, r4
 4256 0194 2FE0     		b	.L193
 4257              	.LVL399:
 4258              	.L207:
1299:lvgl/src/draw/lv_draw_rect.c ****             lv_memset_ff(mask_buf, draw_area_w);
 4259              		.loc 1 1299 9 view .LVU1622
 4260              	.LBE314:
1284:lvgl/src/draw/lv_draw_rect.c **** 
 4261              		.loc 1 1284 27 view .LVU1623
ARM GAS  /var/folders/k2/cd9bl_j17z77g23y6ffqb_400000gn/T//cc0jKSMI.s 			page 127


 4262 0196 079B     		ldr	r3, [sp, #28]
 4263 0198 0D93     		str	r3, [sp, #52]
 4264 019a DBE7     		b	.L191
 4265              	.LVL400:
 4266              	.L213:
 4267              	.LBB319:
 4268              	.LBB315:
1314:lvgl/src/draw/lv_draw_rect.c ****                 fill_area2.x2 = area_outer->x2 - rout;
 4269              		.loc 1 1314 17 is_stmt 1 view .LVU1624
1314:lvgl/src/draw/lv_draw_rect.c ****                 fill_area2.x2 = area_outer->x2 - rout;
 4270              		.loc 1 1314 43 is_stmt 0 view .LVU1625
 4271 019c B9F80030 		ldrh	r3, [r9]
1314:lvgl/src/draw/lv_draw_rect.c ****                 fill_area2.x2 = area_outer->x2 - rout;
 4272              		.loc 1 1314 48 view .LVU1626
 4273 01a0 5B44     		add	r3, r3, fp
1314:lvgl/src/draw/lv_draw_rect.c ****                 fill_area2.x2 = area_outer->x2 - rout;
 4274              		.loc 1 1314 31 view .LVU1627
 4275 01a2 ADF84030 		strh	r3, [sp, #64]	@ movhi
1315:lvgl/src/draw/lv_draw_rect.c **** 
 4276              		.loc 1 1315 17 is_stmt 1 view .LVU1628
1315:lvgl/src/draw/lv_draw_rect.c **** 
 4277              		.loc 1 1315 43 is_stmt 0 view .LVU1629
 4278 01a6 B9F80430 		ldrh	r3, [r9, #4]
1315:lvgl/src/draw/lv_draw_rect.c **** 
 4279              		.loc 1 1315 48 view .LVU1630
 4280 01aa A3EB0B03 		sub	r3, r3, fp
1315:lvgl/src/draw/lv_draw_rect.c **** 
 4281              		.loc 1 1315 31 view .LVU1631
 4282 01ae ADF84430 		strh	r3, [sp, #68]	@ movhi
1317:lvgl/src/draw/lv_draw_rect.c ****             }
 4283              		.loc 1 1317 17 is_stmt 1 view .LVU1632
 4284 01b2 069B     		ldr	r3, [sp, #24]
 4285 01b4 0293     		str	r3, [sp, #8]
 4286 01b6 0197     		str	r7, [sp, #4]
 4287 01b8 0123     		movs	r3, #1
 4288 01ba 0093     		str	r3, [sp]
 4289 01bc 0023     		movs	r3, #0
 4290 01be 2F9A     		ldr	r2, [sp, #188]
 4291 01c0 10A9     		add	r1, sp, #64
 4292 01c2 0598     		ldr	r0, [sp, #20]
 4293 01c4 FFF7FEFF 		bl	_lv_blend_fill
 4294              	.LVL401:
 4295 01c8 4FE0     		b	.L194
 4296              	.LVL402:
 4297              	.L195:
1325:lvgl/src/draw/lv_draw_rect.c **** 
 4298              		.loc 1 1325 13 discriminator 2 view .LVU1633
 4299 01ca 069A     		ldr	r2, [sp, #24]
 4300 01cc 0292     		str	r2, [sp, #8]
 4301 01ce 0197     		str	r7, [sp, #4]
 4302 01d0 0094     		str	r4, [sp]
 4303 01d2 2B44     		add	r3, r3, r5
 4304              	.LVL403:
1325:lvgl/src/draw/lv_draw_rect.c **** 
 4305              		.loc 1 1325 13 is_stmt 0 discriminator 2 view .LVU1634
 4306 01d4 2F9A     		ldr	r2, [sp, #188]
 4307 01d6 10A9     		add	r1, sp, #64
ARM GAS  /var/folders/k2/cd9bl_j17z77g23y6ffqb_400000gn/T//cc0jKSMI.s 			page 128


 4308 01d8 0598     		ldr	r0, [sp, #20]
 4309 01da FFF7FEFF 		bl	_lv_blend_fill
 4310              	.LVL404:
1327:lvgl/src/draw/lv_draw_rect.c ****             fill_area.y2++;
 4311              		.loc 1 1327 13 is_stmt 1 discriminator 2 view .LVU1635
1327:lvgl/src/draw/lv_draw_rect.c ****             fill_area.y2++;
 4312              		.loc 1 1327 22 is_stmt 0 discriminator 2 view .LVU1636
 4313 01de BDF94A30 		ldrsh	r3, [sp, #74]
1327:lvgl/src/draw/lv_draw_rect.c ****             fill_area.y2++;
 4314              		.loc 1 1327 25 discriminator 2 view .LVU1637
 4315 01e2 0133     		adds	r3, r3, #1
 4316 01e4 ADF84A30 		strh	r3, [sp, #74]	@ movhi
1328:lvgl/src/draw/lv_draw_rect.c ****         }
 4317              		.loc 1 1328 13 is_stmt 1 discriminator 2 view .LVU1638
1328:lvgl/src/draw/lv_draw_rect.c ****         }
 4318              		.loc 1 1328 22 is_stmt 0 discriminator 2 view .LVU1639
 4319 01e8 BDF94E30 		ldrsh	r3, [sp, #78]
1328:lvgl/src/draw/lv_draw_rect.c ****         }
 4320              		.loc 1 1328 25 discriminator 2 view .LVU1640
 4321 01ec 0133     		adds	r3, r3, #1
 4322 01ee ADF84E30 		strh	r3, [sp, #78]	@ movhi
 4323              	.LBE315:
1299:lvgl/src/draw/lv_draw_rect.c ****             lv_memset_ff(mask_buf, draw_area_w);
 4324              		.loc 1 1299 54 is_stmt 1 discriminator 2 view .LVU1641
1299:lvgl/src/draw/lv_draw_rect.c ****             lv_memset_ff(mask_buf, draw_area_w);
 4325              		.loc 1 1299 55 is_stmt 0 discriminator 2 view .LVU1642
 4326 01f2 0AF1010A 		add	r10, r10, #1
 4327              	.LVL405:
 4328              	.L193:
1299:lvgl/src/draw/lv_draw_rect.c ****             lv_memset_ff(mask_buf, draw_area_w);
 4329              		.loc 1 1299 31 is_stmt 1 discriminator 1 view .LVU1643
1299:lvgl/src/draw/lv_draw_rect.c ****             lv_memset_ff(mask_buf, draw_area_w);
 4330              		.loc 1 1299 9 is_stmt 0 discriminator 1 view .LVU1644
 4331 01f6 099B     		ldr	r3, [sp, #36]
 4332 01f8 9A45     		cmp	r10, r3
 4333 01fa 4FDC     		bgt	.L212
 4334              	.LBB316:
1300:lvgl/src/draw/lv_draw_rect.c ****             mask_res = lv_draw_mask_apply(mask_buf, draw_buf->area.x1 + draw_area.x1, draw_buf->are
 4335              		.loc 1 1300 13 is_stmt 1 view .LVU1645
 4336 01fc 4146     		mov	r1, r8
 4337 01fe 2846     		mov	r0, r5
 4338 0200 FFF7FEFF 		bl	lv_memset_ff
 4339              	.LVL406:
1301:lvgl/src/draw/lv_draw_rect.c **** 
 4340              		.loc 1 1301 13 view .LVU1646
1301:lvgl/src/draw/lv_draw_rect.c **** 
 4341              		.loc 1 1301 67 is_stmt 0 view .LVU1647
 4342 0204 318A     		ldrh	r1, [r6, #16]
1301:lvgl/src/draw/lv_draw_rect.c **** 
 4343              		.loc 1 1301 82 view .LVU1648
 4344 0206 BDF88830 		ldrh	r3, [sp, #136]
1301:lvgl/src/draw/lv_draw_rect.c **** 
 4345              		.loc 1 1301 71 view .LVU1649
 4346 020a 1944     		add	r1, r1, r3
1301:lvgl/src/draw/lv_draw_rect.c **** 
 4347              		.loc 1 1301 101 view .LVU1650
 4348 020c 728A     		ldrh	r2, [r6, #18]
ARM GAS  /var/folders/k2/cd9bl_j17z77g23y6ffqb_400000gn/T//cc0jKSMI.s 			page 129


1301:lvgl/src/draw/lv_draw_rect.c **** 
 4349              		.loc 1 1301 105 view .LVU1651
 4350 020e 5244     		add	r2, r2, r10
1301:lvgl/src/draw/lv_draw_rect.c **** 
 4351              		.loc 1 1301 24 view .LVU1652
 4352 0210 4346     		mov	r3, r8
 4353 0212 12B2     		sxth	r2, r2
 4354 0214 09B2     		sxth	r1, r1
 4355 0216 2846     		mov	r0, r5
 4356 0218 FFF7FEFF 		bl	lv_draw_mask_apply
 4357              	.LVL407:
 4358 021c 0446     		mov	r4, r0
 4359              	.LVL408:
1303:lvgl/src/draw/lv_draw_rect.c ****             fill_area2.y1 = fill_area.y1;
 4360              		.loc 1 1303 13 is_stmt 1 view .LVU1653
1304:lvgl/src/draw/lv_draw_rect.c ****             fill_area2.y2 = fill_area.y2;
 4361              		.loc 1 1304 13 view .LVU1654
1304:lvgl/src/draw/lv_draw_rect.c ****             fill_area2.y2 = fill_area.y2;
 4362              		.loc 1 1304 38 is_stmt 0 view .LVU1655
 4363 021e BDF94A30 		ldrsh	r3, [sp, #74]
1304:lvgl/src/draw/lv_draw_rect.c ****             fill_area2.y2 = fill_area.y2;
 4364              		.loc 1 1304 27 view .LVU1656
 4365 0222 ADF84230 		strh	r3, [sp, #66]	@ movhi
1305:lvgl/src/draw/lv_draw_rect.c **** 
 4366              		.loc 1 1305 13 is_stmt 1 view .LVU1657
1305:lvgl/src/draw/lv_draw_rect.c **** 
 4367              		.loc 1 1305 38 is_stmt 0 view .LVU1658
 4368 0226 BDF94E30 		ldrsh	r3, [sp, #78]
1305:lvgl/src/draw/lv_draw_rect.c **** 
 4369              		.loc 1 1305 27 view .LVU1659
 4370 022a ADF84630 		strh	r3, [sp, #70]	@ movhi
1307:lvgl/src/draw/lv_draw_rect.c ****             fill_area2.x2 = area_outer->x1 + rout - 1;
 4371              		.loc 1 1307 13 is_stmt 1 view .LVU1660
1307:lvgl/src/draw/lv_draw_rect.c ****             fill_area2.x2 = area_outer->x1 + rout - 1;
 4372              		.loc 1 1307 39 is_stmt 0 view .LVU1661
 4373 022e B9F90030 		ldrsh	r3, [r9]
1307:lvgl/src/draw/lv_draw_rect.c ****             fill_area2.x2 = area_outer->x1 + rout - 1;
 4374              		.loc 1 1307 27 view .LVU1662
 4375 0232 ADF84030 		strh	r3, [sp, #64]	@ movhi
1308:lvgl/src/draw/lv_draw_rect.c **** 
 4376              		.loc 1 1308 13 is_stmt 1 view .LVU1663
1308:lvgl/src/draw/lv_draw_rect.c **** 
 4377              		.loc 1 1308 44 is_stmt 0 view .LVU1664
 4378 0236 BDF81CB0 		ldrh	fp, [sp, #28]
 4379 023a 1BFA83F3 		uxtah	r3, fp, r3
 4380 023e 9BB2     		uxth	r3, r3
1308:lvgl/src/draw/lv_draw_rect.c **** 
 4381              		.loc 1 1308 51 view .LVU1665
 4382 0240 013B     		subs	r3, r3, #1
1308:lvgl/src/draw/lv_draw_rect.c **** 
 4383              		.loc 1 1308 27 view .LVU1666
 4384 0242 ADF84430 		strh	r3, [sp, #68]	@ movhi
1310:lvgl/src/draw/lv_draw_rect.c **** 
 4385              		.loc 1 1310 13 is_stmt 1 view .LVU1667
 4386 0246 069B     		ldr	r3, [sp, #24]
 4387 0248 0293     		str	r3, [sp, #8]
 4388 024a 0197     		str	r7, [sp, #4]
ARM GAS  /var/folders/k2/cd9bl_j17z77g23y6ffqb_400000gn/T//cc0jKSMI.s 			page 130


 4389 024c 0090     		str	r0, [sp]
 4390 024e 2B46     		mov	r3, r5
 4391 0250 2F9A     		ldr	r2, [sp, #188]
 4392 0252 10A9     		add	r1, sp, #64
 4393 0254 0598     		ldr	r0, [sp, #20]
 4394              	.LVL409:
1310:lvgl/src/draw/lv_draw_rect.c **** 
 4395              		.loc 1 1310 13 is_stmt 0 view .LVU1668
 4396 0256 FFF7FEFF 		bl	_lv_blend_fill
 4397              	.LVL410:
1313:lvgl/src/draw/lv_draw_rect.c ****                 fill_area2.x1 = area_outer->x1 + rout;
 4398              		.loc 1 1313 13 is_stmt 1 view .LVU1669
1313:lvgl/src/draw/lv_draw_rect.c ****                 fill_area2.x1 = area_outer->x1 + rout;
 4399              		.loc 1 1313 26 is_stmt 0 view .LVU1670
 4400 025a BDF94620 		ldrsh	r2, [sp, #70]
1313:lvgl/src/draw/lv_draw_rect.c ****                 fill_area2.x1 = area_outer->x1 + rout;
 4401              		.loc 1 1313 42 view .LVU1671
 4402 025e B9F90230 		ldrsh	r3, [r9, #2]
1313:lvgl/src/draw/lv_draw_rect.c ****                 fill_area2.x1 = area_outer->x1 + rout;
 4403              		.loc 1 1313 47 view .LVU1672
 4404 0262 0899     		ldr	r1, [sp, #32]
 4405 0264 0B44     		add	r3, r3, r1
1313:lvgl/src/draw/lv_draw_rect.c ****                 fill_area2.x1 = area_outer->x1 + rout;
 4406              		.loc 1 1313 15 view .LVU1673
 4407 0266 9A42     		cmp	r2, r3
 4408 0268 98DB     		blt	.L213
 4409              	.L194:
1320:lvgl/src/draw/lv_draw_rect.c ****             fill_area2.x2 = area_outer->x2;
 4410              		.loc 1 1320 13 is_stmt 1 view .LVU1674
1320:lvgl/src/draw/lv_draw_rect.c ****             fill_area2.x2 = area_outer->x2;
 4411              		.loc 1 1320 39 is_stmt 0 view .LVU1675
 4412 026a B9F90430 		ldrsh	r3, [r9, #4]
 4413 026e 9AB2     		uxth	r2, r3
1320:lvgl/src/draw/lv_draw_rect.c ****             fill_area2.x2 = area_outer->x2;
 4414              		.loc 1 1320 44 view .LVU1676
 4415 0270 A2EB0B0B 		sub	fp, r2, fp
 4416 0274 1FFA8BFB 		uxth	fp, fp
1320:lvgl/src/draw/lv_draw_rect.c ****             fill_area2.x2 = area_outer->x2;
 4417              		.loc 1 1320 51 view .LVU1677
 4418 0278 0BF1010B 		add	fp, fp, #1
1320:lvgl/src/draw/lv_draw_rect.c ****             fill_area2.x2 = area_outer->x2;
 4419              		.loc 1 1320 27 view .LVU1678
 4420 027c ADF840B0 		strh	fp, [sp, #64]	@ movhi
1321:lvgl/src/draw/lv_draw_rect.c **** 
 4421              		.loc 1 1321 13 is_stmt 1 view .LVU1679
1321:lvgl/src/draw/lv_draw_rect.c **** 
 4422              		.loc 1 1321 27 is_stmt 0 view .LVU1680
 4423 0280 ADF84430 		strh	r3, [sp, #68]	@ movhi
1323:lvgl/src/draw/lv_draw_rect.c ****             if(mask_ofs < 0) mask_ofs = 0;
 4424              		.loc 1 1323 13 is_stmt 1 view .LVU1681
1323:lvgl/src/draw/lv_draw_rect.c ****             if(mask_ofs < 0) mask_ofs = 0;
 4425              		.loc 1 1323 48 is_stmt 0 view .LVU1682
 4426 0284 079A     		ldr	r2, [sp, #28]
 4427 0286 9B1A     		subs	r3, r3, r2
1323:lvgl/src/draw/lv_draw_rect.c ****             if(mask_ofs < 0) mask_ofs = 0;
 4428              		.loc 1 1323 55 view .LVU1683
 4429 0288 0133     		adds	r3, r3, #1
ARM GAS  /var/folders/k2/cd9bl_j17z77g23y6ffqb_400000gn/T//cc0jKSMI.s 			page 131


1323:lvgl/src/draw/lv_draw_rect.c ****             if(mask_ofs < 0) mask_ofs = 0;
 4430              		.loc 1 1323 77 view .LVU1684
 4431 028a B6F91020 		ldrsh	r2, [r6, #16]
1323:lvgl/src/draw/lv_draw_rect.c ****             if(mask_ofs < 0) mask_ofs = 0;
 4432              		.loc 1 1323 92 view .LVU1685
 4433 028e BDF98810 		ldrsh	r1, [sp, #136]
1323:lvgl/src/draw/lv_draw_rect.c ****             if(mask_ofs < 0) mask_ofs = 0;
 4434              		.loc 1 1323 81 view .LVU1686
 4435 0292 0A44     		add	r2, r2, r1
 4436              	.LVL411:
1324:lvgl/src/draw/lv_draw_rect.c ****             _lv_blend_fill(clip, &fill_area2, color, mask_buf + mask_ofs, mask_res, opa, blend_mode
 4437              		.loc 1 1324 13 is_stmt 1 view .LVU1687
1324:lvgl/src/draw/lv_draw_rect.c ****             _lv_blend_fill(clip, &fill_area2, color, mask_buf + mask_ofs, mask_res, opa, blend_mode
 4438              		.loc 1 1324 15 is_stmt 0 view .LVU1688
 4439 0294 9B1A     		subs	r3, r3, r2
 4440              	.LVL412:
1324:lvgl/src/draw/lv_draw_rect.c ****             _lv_blend_fill(clip, &fill_area2, color, mask_buf + mask_ofs, mask_res, opa, blend_mode
 4441              		.loc 1 1324 15 view .LVU1689
 4442 0296 98D5     		bpl	.L195
1324:lvgl/src/draw/lv_draw_rect.c ****             _lv_blend_fill(clip, &fill_area2, color, mask_buf + mask_ofs, mask_res, opa, blend_mode
 4443              		.loc 1 1324 39 view .LVU1690
 4444 0298 0023     		movs	r3, #0
 4445              	.LVL413:
1324:lvgl/src/draw/lv_draw_rect.c ****             _lv_blend_fill(clip, &fill_area2, color, mask_buf + mask_ofs, mask_res, opa, blend_mode
 4446              		.loc 1 1324 39 view .LVU1691
 4447 029a 96E7     		b	.L195
 4448              	.L212:
1324:lvgl/src/draw/lv_draw_rect.c ****             _lv_blend_fill(clip, &fill_area2, color, mask_buf + mask_ofs, mask_res, opa, blend_mode
 4449              		.loc 1 1324 39 view .LVU1692
 4450              	.LBE316:
1332:lvgl/src/draw/lv_draw_rect.c ****         if(lower_corner_end <= upper_corner_end) lower_corner_end = upper_corner_end + 1;
 4451              		.loc 1 1332 46 view .LVU1693
 4452 029c 4C46     		mov	r4, r9
1332:lvgl/src/draw/lv_draw_rect.c ****         if(lower_corner_end <= upper_corner_end) lower_corner_end = upper_corner_end + 1;
 4453              		.loc 1 1332 9 is_stmt 1 view .LVU1694
1332:lvgl/src/draw/lv_draw_rect.c ****         if(lower_corner_end <= upper_corner_end) lower_corner_end = upper_corner_end + 1;
 4454              		.loc 1 1332 46 is_stmt 0 view .LVU1695
 4455 029e B9F90690 		ldrsh	r9, [r9, #6]
 4456              	.LVL414:
1332:lvgl/src/draw/lv_draw_rect.c ****         if(lower_corner_end <= upper_corner_end) lower_corner_end = upper_corner_end + 1;
 4457              		.loc 1 1332 62 view .LVU1696
 4458 02a2 B6F91230 		ldrsh	r3, [r6, #18]
1332:lvgl/src/draw/lv_draw_rect.c ****         if(lower_corner_end <= upper_corner_end) lower_corner_end = upper_corner_end + 1;
 4459              		.loc 1 1332 51 view .LVU1697
 4460 02a6 A9EB0309 		sub	r9, r9, r3
1332:lvgl/src/draw/lv_draw_rect.c ****         if(lower_corner_end <= upper_corner_end) lower_corner_end = upper_corner_end + 1;
 4461              		.loc 1 1332 17 view .LVU1698
 4462 02aa 0D9A     		ldr	r2, [sp, #52]
 4463 02ac A9EB0209 		sub	r9, r9, r2
 4464              	.LVL415:
1333:lvgl/src/draw/lv_draw_rect.c ****         fill_area.y1 = disp_area->y1 + lower_corner_end;
 4465              		.loc 1 1333 9 is_stmt 1 view .LVU1699
1333:lvgl/src/draw/lv_draw_rect.c ****         fill_area.y1 = disp_area->y1 + lower_corner_end;
 4466              		.loc 1 1333 11 is_stmt 0 view .LVU1700
 4467 02b0 099A     		ldr	r2, [sp, #36]
 4468 02b2 4A45     		cmp	r2, r9
 4469 02b4 01DB     		blt	.L197
ARM GAS  /var/folders/k2/cd9bl_j17z77g23y6ffqb_400000gn/T//cc0jKSMI.s 			page 132


1333:lvgl/src/draw/lv_draw_rect.c ****         fill_area.y1 = disp_area->y1 + lower_corner_end;
 4470              		.loc 1 1333 50 is_stmt 1 discriminator 1 view .LVU1701
1333:lvgl/src/draw/lv_draw_rect.c ****         fill_area.y1 = disp_area->y1 + lower_corner_end;
 4471              		.loc 1 1333 67 is_stmt 0 discriminator 1 view .LVU1702
 4472 02b6 02F10109 		add	r9, r2, #1
 4473              	.LVL416:
 4474              	.L197:
1334:lvgl/src/draw/lv_draw_rect.c ****         fill_area.y2 = fill_area.y1;
 4475              		.loc 1 1334 9 is_stmt 1 view .LVU1703
1334:lvgl/src/draw/lv_draw_rect.c ****         fill_area.y2 = fill_area.y1;
 4476              		.loc 1 1334 38 is_stmt 0 view .LVU1704
 4477 02ba 19FA83F3 		uxtah	r3, r9, r3
 4478 02be 1BB2     		sxth	r3, r3
1334:lvgl/src/draw/lv_draw_rect.c ****         fill_area.y2 = fill_area.y1;
 4479              		.loc 1 1334 22 view .LVU1705
 4480 02c0 ADF84A30 		strh	r3, [sp, #74]	@ movhi
1335:lvgl/src/draw/lv_draw_rect.c ****         for(h = lower_corner_end; h <= draw_area.y2; h++) {
 4481              		.loc 1 1335 9 is_stmt 1 view .LVU1706
1335:lvgl/src/draw/lv_draw_rect.c ****         for(h = lower_corner_end; h <= draw_area.y2; h++) {
 4482              		.loc 1 1335 22 is_stmt 0 view .LVU1707
 4483 02c4 ADF84E30 		strh	r3, [sp, #78]	@ movhi
1336:lvgl/src/draw/lv_draw_rect.c ****             lv_memset_ff(mask_buf, draw_area_w);
 4484              		.loc 1 1336 9 is_stmt 1 view .LVU1708
 4485              	.LVL417:
1336:lvgl/src/draw/lv_draw_rect.c ****             lv_memset_ff(mask_buf, draw_area_w);
 4486              		.loc 1 1336 9 is_stmt 0 view .LVU1709
 4487 02c8 B346     		mov	fp, r6
 4488 02ca 2AE0     		b	.L198
 4489              	.LVL418:
 4490              	.L215:
 4491              	.LBB317:
1350:lvgl/src/draw/lv_draw_rect.c ****                 fill_area2.x2 = area_outer->x2 - rout;
 4492              		.loc 1 1350 17 is_stmt 1 view .LVU1710
1350:lvgl/src/draw/lv_draw_rect.c ****                 fill_area2.x2 = area_outer->x2 - rout;
 4493              		.loc 1 1350 43 is_stmt 0 view .LVU1711
 4494 02cc 2388     		ldrh	r3, [r4]
1350:lvgl/src/draw/lv_draw_rect.c ****                 fill_area2.x2 = area_outer->x2 - rout;
 4495              		.loc 1 1350 48 view .LVU1712
 4496 02ce 5344     		add	r3, r3, r10
1350:lvgl/src/draw/lv_draw_rect.c ****                 fill_area2.x2 = area_outer->x2 - rout;
 4497              		.loc 1 1350 31 view .LVU1713
 4498 02d0 ADF84030 		strh	r3, [sp, #64]	@ movhi
1351:lvgl/src/draw/lv_draw_rect.c **** 
 4499              		.loc 1 1351 17 is_stmt 1 view .LVU1714
1351:lvgl/src/draw/lv_draw_rect.c **** 
 4500              		.loc 1 1351 43 is_stmt 0 view .LVU1715
 4501 02d4 A388     		ldrh	r3, [r4, #4]
1351:lvgl/src/draw/lv_draw_rect.c **** 
 4502              		.loc 1 1351 48 view .LVU1716
 4503 02d6 A3EB0A03 		sub	r3, r3, r10
1351:lvgl/src/draw/lv_draw_rect.c **** 
 4504              		.loc 1 1351 31 view .LVU1717
 4505 02da ADF84430 		strh	r3, [sp, #68]	@ movhi
1353:lvgl/src/draw/lv_draw_rect.c ****             }
 4506              		.loc 1 1353 17 is_stmt 1 view .LVU1718
 4507 02de 069B     		ldr	r3, [sp, #24]
 4508 02e0 0293     		str	r3, [sp, #8]
ARM GAS  /var/folders/k2/cd9bl_j17z77g23y6ffqb_400000gn/T//cc0jKSMI.s 			page 133


 4509 02e2 0197     		str	r7, [sp, #4]
 4510 02e4 0123     		movs	r3, #1
 4511 02e6 0093     		str	r3, [sp]
 4512 02e8 0023     		movs	r3, #0
 4513 02ea 2F9A     		ldr	r2, [sp, #188]
 4514 02ec 10A9     		add	r1, sp, #64
 4515 02ee 0598     		ldr	r0, [sp, #20]
 4516 02f0 FFF7FEFF 		bl	_lv_blend_fill
 4517              	.LVL419:
 4518 02f4 52E0     		b	.L199
 4519              	.LVL420:
 4520              	.L200:
1360:lvgl/src/draw/lv_draw_rect.c **** 
 4521              		.loc 1 1360 13 discriminator 2 view .LVU1719
 4522 02f6 069A     		ldr	r2, [sp, #24]
 4523 02f8 0292     		str	r2, [sp, #8]
 4524 02fa 0197     		str	r7, [sp, #4]
 4525 02fc 0096     		str	r6, [sp]
 4526 02fe 2B44     		add	r3, r3, r5
 4527              	.LVL421:
1360:lvgl/src/draw/lv_draw_rect.c **** 
 4528              		.loc 1 1360 13 is_stmt 0 discriminator 2 view .LVU1720
 4529 0300 2F9A     		ldr	r2, [sp, #188]
 4530 0302 10A9     		add	r1, sp, #64
 4531 0304 0598     		ldr	r0, [sp, #20]
 4532 0306 FFF7FEFF 		bl	_lv_blend_fill
 4533              	.LVL422:
1362:lvgl/src/draw/lv_draw_rect.c ****             fill_area.y2++;
 4534              		.loc 1 1362 13 is_stmt 1 discriminator 2 view .LVU1721
1362:lvgl/src/draw/lv_draw_rect.c ****             fill_area.y2++;
 4535              		.loc 1 1362 22 is_stmt 0 discriminator 2 view .LVU1722
 4536 030a BDF94A30 		ldrsh	r3, [sp, #74]
1362:lvgl/src/draw/lv_draw_rect.c ****             fill_area.y2++;
 4537              		.loc 1 1362 25 discriminator 2 view .LVU1723
 4538 030e 0133     		adds	r3, r3, #1
 4539 0310 ADF84A30 		strh	r3, [sp, #74]	@ movhi
1363:lvgl/src/draw/lv_draw_rect.c ****         }
 4540              		.loc 1 1363 13 is_stmt 1 discriminator 2 view .LVU1724
1363:lvgl/src/draw/lv_draw_rect.c ****         }
 4541              		.loc 1 1363 22 is_stmt 0 discriminator 2 view .LVU1725
 4542 0314 BDF94E30 		ldrsh	r3, [sp, #78]
1363:lvgl/src/draw/lv_draw_rect.c ****         }
 4543              		.loc 1 1363 25 discriminator 2 view .LVU1726
 4544 0318 0133     		adds	r3, r3, #1
 4545 031a ADF84E30 		strh	r3, [sp, #78]	@ movhi
 4546              	.LBE317:
1336:lvgl/src/draw/lv_draw_rect.c ****             lv_memset_ff(mask_buf, draw_area_w);
 4547              		.loc 1 1336 54 is_stmt 1 discriminator 2 view .LVU1727
1336:lvgl/src/draw/lv_draw_rect.c ****             lv_memset_ff(mask_buf, draw_area_w);
 4548              		.loc 1 1336 55 is_stmt 0 discriminator 2 view .LVU1728
 4549 031e 09F10109 		add	r9, r9, #1
 4550              	.LVL423:
 4551              	.L198:
1336:lvgl/src/draw/lv_draw_rect.c ****             lv_memset_ff(mask_buf, draw_area_w);
 4552              		.loc 1 1336 35 is_stmt 1 discriminator 1 view .LVU1729
1336:lvgl/src/draw/lv_draw_rect.c ****             lv_memset_ff(mask_buf, draw_area_w);
 4553              		.loc 1 1336 49 is_stmt 0 discriminator 1 view .LVU1730
ARM GAS  /var/folders/k2/cd9bl_j17z77g23y6ffqb_400000gn/T//cc0jKSMI.s 			page 134


 4554 0322 BDF98E30 		ldrsh	r3, [sp, #142]
1336:lvgl/src/draw/lv_draw_rect.c ****             lv_memset_ff(mask_buf, draw_area_w);
 4555              		.loc 1 1336 9 discriminator 1 view .LVU1731
 4556 0326 4B45     		cmp	r3, r9
 4557 0328 51DB     		blt	.L214
 4558              	.LBB318:
1337:lvgl/src/draw/lv_draw_rect.c ****             mask_res = lv_draw_mask_apply(mask_buf, draw_buf->area.x1 + draw_area.x1, draw_buf->are
 4559              		.loc 1 1337 13 is_stmt 1 view .LVU1732
 4560 032a 4146     		mov	r1, r8
 4561 032c 2846     		mov	r0, r5
 4562 032e FFF7FEFF 		bl	lv_memset_ff
 4563              	.LVL424:
1338:lvgl/src/draw/lv_draw_rect.c **** 
 4564              		.loc 1 1338 13 view .LVU1733
1338:lvgl/src/draw/lv_draw_rect.c **** 
 4565              		.loc 1 1338 67 is_stmt 0 view .LVU1734
 4566 0332 BBF81010 		ldrh	r1, [fp, #16]
1338:lvgl/src/draw/lv_draw_rect.c **** 
 4567              		.loc 1 1338 82 view .LVU1735
 4568 0336 BDF88830 		ldrh	r3, [sp, #136]
1338:lvgl/src/draw/lv_draw_rect.c **** 
 4569              		.loc 1 1338 71 view .LVU1736
 4570 033a 1944     		add	r1, r1, r3
1338:lvgl/src/draw/lv_draw_rect.c **** 
 4571              		.loc 1 1338 101 view .LVU1737
 4572 033c BBF81220 		ldrh	r2, [fp, #18]
1338:lvgl/src/draw/lv_draw_rect.c **** 
 4573              		.loc 1 1338 105 view .LVU1738
 4574 0340 4A44     		add	r2, r2, r9
1338:lvgl/src/draw/lv_draw_rect.c **** 
 4575              		.loc 1 1338 24 view .LVU1739
 4576 0342 4346     		mov	r3, r8
 4577 0344 12B2     		sxth	r2, r2
 4578 0346 09B2     		sxth	r1, r1
 4579 0348 2846     		mov	r0, r5
 4580 034a FFF7FEFF 		bl	lv_draw_mask_apply
 4581              	.LVL425:
 4582 034e 0646     		mov	r6, r0
 4583              	.LVL426:
1340:lvgl/src/draw/lv_draw_rect.c ****             fill_area2.x1 = area_outer->x1;
 4584              		.loc 1 1340 13 is_stmt 1 view .LVU1740
1341:lvgl/src/draw/lv_draw_rect.c ****             fill_area2.x2 = area_outer->x1 + rout - 1;
 4585              		.loc 1 1341 13 view .LVU1741
1341:lvgl/src/draw/lv_draw_rect.c ****             fill_area2.x2 = area_outer->x1 + rout - 1;
 4586              		.loc 1 1341 39 is_stmt 0 view .LVU1742
 4587 0350 B4F90030 		ldrsh	r3, [r4]
1341:lvgl/src/draw/lv_draw_rect.c ****             fill_area2.x2 = area_outer->x1 + rout - 1;
 4588              		.loc 1 1341 27 view .LVU1743
 4589 0354 ADF84030 		strh	r3, [sp, #64]	@ movhi
1342:lvgl/src/draw/lv_draw_rect.c ****             fill_area2.y1 = fill_area.y1;
 4590              		.loc 1 1342 13 is_stmt 1 view .LVU1744
1342:lvgl/src/draw/lv_draw_rect.c ****             fill_area2.y1 = fill_area.y1;
 4591              		.loc 1 1342 44 is_stmt 0 view .LVU1745
 4592 0358 BDF81CA0 		ldrh	r10, [sp, #28]
 4593 035c 1AFA83F3 		uxtah	r3, r10, r3
 4594 0360 9BB2     		uxth	r3, r3
1342:lvgl/src/draw/lv_draw_rect.c ****             fill_area2.y1 = fill_area.y1;
ARM GAS  /var/folders/k2/cd9bl_j17z77g23y6ffqb_400000gn/T//cc0jKSMI.s 			page 135


 4595              		.loc 1 1342 51 view .LVU1746
 4596 0362 013B     		subs	r3, r3, #1
1342:lvgl/src/draw/lv_draw_rect.c ****             fill_area2.y1 = fill_area.y1;
 4597              		.loc 1 1342 27 view .LVU1747
 4598 0364 ADF84430 		strh	r3, [sp, #68]	@ movhi
1343:lvgl/src/draw/lv_draw_rect.c ****             fill_area2.y2 = fill_area.y2;
 4599              		.loc 1 1343 13 is_stmt 1 view .LVU1748
1343:lvgl/src/draw/lv_draw_rect.c ****             fill_area2.y2 = fill_area.y2;
 4600              		.loc 1 1343 38 is_stmt 0 view .LVU1749
 4601 0368 BDF94A30 		ldrsh	r3, [sp, #74]
1343:lvgl/src/draw/lv_draw_rect.c ****             fill_area2.y2 = fill_area.y2;
 4602              		.loc 1 1343 27 view .LVU1750
 4603 036c ADF84230 		strh	r3, [sp, #66]	@ movhi
1344:lvgl/src/draw/lv_draw_rect.c **** 
 4604              		.loc 1 1344 13 is_stmt 1 view .LVU1751
1344:lvgl/src/draw/lv_draw_rect.c **** 
 4605              		.loc 1 1344 38 is_stmt 0 view .LVU1752
 4606 0370 BDF94E30 		ldrsh	r3, [sp, #78]
1344:lvgl/src/draw/lv_draw_rect.c **** 
 4607              		.loc 1 1344 27 view .LVU1753
 4608 0374 ADF84630 		strh	r3, [sp, #70]	@ movhi
1346:lvgl/src/draw/lv_draw_rect.c **** 
 4609              		.loc 1 1346 13 is_stmt 1 view .LVU1754
 4610 0378 069B     		ldr	r3, [sp, #24]
 4611 037a 0293     		str	r3, [sp, #8]
 4612 037c 0197     		str	r7, [sp, #4]
 4613 037e 0090     		str	r0, [sp]
 4614 0380 2B46     		mov	r3, r5
 4615 0382 2F9A     		ldr	r2, [sp, #188]
 4616 0384 10A9     		add	r1, sp, #64
 4617 0386 0598     		ldr	r0, [sp, #20]
 4618              	.LVL427:
1346:lvgl/src/draw/lv_draw_rect.c **** 
 4619              		.loc 1 1346 13 is_stmt 0 view .LVU1755
 4620 0388 FFF7FEFF 		bl	_lv_blend_fill
 4621              	.LVL428:
1349:lvgl/src/draw/lv_draw_rect.c ****                 fill_area2.x1 = area_outer->x1 + rout;
 4622              		.loc 1 1349 13 is_stmt 1 view .LVU1756
1349:lvgl/src/draw/lv_draw_rect.c ****                 fill_area2.x1 = area_outer->x1 + rout;
 4623              		.loc 1 1349 26 is_stmt 0 view .LVU1757
 4624 038c BDF94620 		ldrsh	r2, [sp, #70]
1349:lvgl/src/draw/lv_draw_rect.c ****                 fill_area2.x1 = area_outer->x1 + rout;
 4625              		.loc 1 1349 42 view .LVU1758
 4626 0390 B4F90630 		ldrsh	r3, [r4, #6]
1349:lvgl/src/draw/lv_draw_rect.c ****                 fill_area2.x1 = area_outer->x1 + rout;
 4627              		.loc 1 1349 47 view .LVU1759
 4628 0394 0899     		ldr	r1, [sp, #32]
 4629 0396 5B1A     		subs	r3, r3, r1
1349:lvgl/src/draw/lv_draw_rect.c ****                 fill_area2.x1 = area_outer->x1 + rout;
 4630              		.loc 1 1349 15 view .LVU1760
 4631 0398 9A42     		cmp	r2, r3
 4632 039a 97DC     		bgt	.L215
 4633              	.L199:
1355:lvgl/src/draw/lv_draw_rect.c ****             fill_area2.x2 = area_outer->x2;
 4634              		.loc 1 1355 13 is_stmt 1 view .LVU1761
1355:lvgl/src/draw/lv_draw_rect.c ****             fill_area2.x2 = area_outer->x2;
 4635              		.loc 1 1355 39 is_stmt 0 view .LVU1762
ARM GAS  /var/folders/k2/cd9bl_j17z77g23y6ffqb_400000gn/T//cc0jKSMI.s 			page 136


 4636 039c B4F90430 		ldrsh	r3, [r4, #4]
 4637 03a0 9AB2     		uxth	r2, r3
1355:lvgl/src/draw/lv_draw_rect.c ****             fill_area2.x2 = area_outer->x2;
 4638              		.loc 1 1355 44 view .LVU1763
 4639 03a2 A2EB0A0A 		sub	r10, r2, r10
 4640 03a6 1FFA8AFA 		uxth	r10, r10
1355:lvgl/src/draw/lv_draw_rect.c ****             fill_area2.x2 = area_outer->x2;
 4641              		.loc 1 1355 51 view .LVU1764
 4642 03aa 0AF1010A 		add	r10, r10, #1
1355:lvgl/src/draw/lv_draw_rect.c ****             fill_area2.x2 = area_outer->x2;
 4643              		.loc 1 1355 27 view .LVU1765
 4644 03ae ADF840A0 		strh	r10, [sp, #64]	@ movhi
1356:lvgl/src/draw/lv_draw_rect.c **** 
 4645              		.loc 1 1356 13 is_stmt 1 view .LVU1766
1356:lvgl/src/draw/lv_draw_rect.c **** 
 4646              		.loc 1 1356 27 is_stmt 0 view .LVU1767
 4647 03b2 ADF84430 		strh	r3, [sp, #68]	@ movhi
1358:lvgl/src/draw/lv_draw_rect.c ****             if(mask_ofs < 0) mask_ofs = 0;
 4648              		.loc 1 1358 13 is_stmt 1 view .LVU1768
1358:lvgl/src/draw/lv_draw_rect.c ****             if(mask_ofs < 0) mask_ofs = 0;
 4649              		.loc 1 1358 48 is_stmt 0 view .LVU1769
 4650 03b6 079A     		ldr	r2, [sp, #28]
 4651 03b8 9B1A     		subs	r3, r3, r2
1358:lvgl/src/draw/lv_draw_rect.c ****             if(mask_ofs < 0) mask_ofs = 0;
 4652              		.loc 1 1358 55 view .LVU1770
 4653 03ba 0133     		adds	r3, r3, #1
1358:lvgl/src/draw/lv_draw_rect.c ****             if(mask_ofs < 0) mask_ofs = 0;
 4654              		.loc 1 1358 77 view .LVU1771
 4655 03bc BBF91020 		ldrsh	r2, [fp, #16]
1358:lvgl/src/draw/lv_draw_rect.c ****             if(mask_ofs < 0) mask_ofs = 0;
 4656              		.loc 1 1358 92 view .LVU1772
 4657 03c0 BDF98810 		ldrsh	r1, [sp, #136]
1358:lvgl/src/draw/lv_draw_rect.c ****             if(mask_ofs < 0) mask_ofs = 0;
 4658              		.loc 1 1358 81 view .LVU1773
 4659 03c4 0A44     		add	r2, r2, r1
 4660              	.LVL429:
1359:lvgl/src/draw/lv_draw_rect.c ****             _lv_blend_fill(clip, &fill_area2, color, mask_buf + mask_ofs, mask_res, opa, blend_mode
 4661              		.loc 1 1359 13 is_stmt 1 view .LVU1774
1359:lvgl/src/draw/lv_draw_rect.c ****             _lv_blend_fill(clip, &fill_area2, color, mask_buf + mask_ofs, mask_res, opa, blend_mode
 4662              		.loc 1 1359 15 is_stmt 0 view .LVU1775
 4663 03c6 9B1A     		subs	r3, r3, r2
 4664              	.LVL430:
1359:lvgl/src/draw/lv_draw_rect.c ****             _lv_blend_fill(clip, &fill_area2, color, mask_buf + mask_ofs, mask_res, opa, blend_mode
 4665              		.loc 1 1359 15 view .LVU1776
 4666 03c8 95D5     		bpl	.L200
1359:lvgl/src/draw/lv_draw_rect.c ****             _lv_blend_fill(clip, &fill_area2, color, mask_buf + mask_ofs, mask_res, opa, blend_mode
 4667              		.loc 1 1359 39 view .LVU1777
 4668 03ca 0023     		movs	r3, #0
 4669              	.LVL431:
1359:lvgl/src/draw/lv_draw_rect.c ****             _lv_blend_fill(clip, &fill_area2, color, mask_buf + mask_ofs, mask_res, opa, blend_mode
 4670              		.loc 1 1359 39 view .LVU1778
 4671 03cc 93E7     		b	.L200
 4672              	.L214:
1359:lvgl/src/draw/lv_draw_rect.c ****             _lv_blend_fill(clip, &fill_area2, color, mask_buf + mask_ofs, mask_res, opa, blend_mode
 4673              		.loc 1 1359 39 view .LVU1779
 4674              	.LBE318:
1367:lvgl/src/draw/lv_draw_rect.c ****         fill_area.y2 = area_outer->y2 - corner_size - 1;
ARM GAS  /var/folders/k2/cd9bl_j17z77g23y6ffqb_400000gn/T//cc0jKSMI.s 			page 137


 4675              		.loc 1 1367 9 is_stmt 1 view .LVU1780
1367:lvgl/src/draw/lv_draw_rect.c ****         fill_area.y2 = area_outer->y2 - corner_size - 1;
 4676              		.loc 1 1367 34 is_stmt 0 view .LVU1781
 4677 03ce 6388     		ldrh	r3, [r4, #2]
1367:lvgl/src/draw/lv_draw_rect.c ****         fill_area.y2 = area_outer->y2 - corner_size - 1;
 4678              		.loc 1 1367 39 view .LVU1782
 4679 03d0 BDF83420 		ldrh	r2, [sp, #52]
 4680 03d4 1344     		add	r3, r3, r2
 4681 03d6 9BB2     		uxth	r3, r3
1367:lvgl/src/draw/lv_draw_rect.c ****         fill_area.y2 = area_outer->y2 - corner_size - 1;
 4682              		.loc 1 1367 53 view .LVU1783
 4683 03d8 0133     		adds	r3, r3, #1
1367:lvgl/src/draw/lv_draw_rect.c ****         fill_area.y2 = area_outer->y2 - corner_size - 1;
 4684              		.loc 1 1367 22 view .LVU1784
 4685 03da ADF84A30 		strh	r3, [sp, #74]	@ movhi
1368:lvgl/src/draw/lv_draw_rect.c **** 
 4686              		.loc 1 1368 9 is_stmt 1 view .LVU1785
1368:lvgl/src/draw/lv_draw_rect.c **** 
 4687              		.loc 1 1368 34 is_stmt 0 view .LVU1786
 4688 03de E388     		ldrh	r3, [r4, #6]
1368:lvgl/src/draw/lv_draw_rect.c **** 
 4689              		.loc 1 1368 39 view .LVU1787
 4690 03e0 9B1A     		subs	r3, r3, r2
 4691 03e2 9BB2     		uxth	r3, r3
1368:lvgl/src/draw/lv_draw_rect.c **** 
 4692              		.loc 1 1368 53 view .LVU1788
 4693 03e4 013B     		subs	r3, r3, #1
1368:lvgl/src/draw/lv_draw_rect.c **** 
 4694              		.loc 1 1368 22 view .LVU1789
 4695 03e6 ADF84E30 		strh	r3, [sp, #78]	@ movhi
1370:lvgl/src/draw/lv_draw_rect.c ****         fill_area.x2 = area_outer->x1 + border_width - 1;
 4696              		.loc 1 1370 9 is_stmt 1 view .LVU1790
1370:lvgl/src/draw/lv_draw_rect.c ****         fill_area.x2 = area_outer->x1 + border_width - 1;
 4697              		.loc 1 1370 34 is_stmt 0 view .LVU1791
 4698 03ea B4F90030 		ldrsh	r3, [r4]
1370:lvgl/src/draw/lv_draw_rect.c ****         fill_area.x2 = area_outer->x1 + border_width - 1;
 4699              		.loc 1 1370 22 view .LVU1792
 4700 03ee ADF84830 		strh	r3, [sp, #72]	@ movhi
1371:lvgl/src/draw/lv_draw_rect.c ****         _lv_blend_fill(clip, &fill_area, color, NULL, LV_DRAW_MASK_RES_FULL_COVER, opa, blend_mode)
 4701              		.loc 1 1371 9 is_stmt 1 view .LVU1793
1371:lvgl/src/draw/lv_draw_rect.c ****         _lv_blend_fill(clip, &fill_area, color, NULL, LV_DRAW_MASK_RES_FULL_COVER, opa, blend_mode)
 4702              		.loc 1 1371 39 is_stmt 0 view .LVU1794
 4703 03f2 0B9A     		ldr	r2, [sp, #44]
 4704 03f4 12FA83F3 		uxtah	r3, r2, r3
 4705 03f8 9BB2     		uxth	r3, r3
1371:lvgl/src/draw/lv_draw_rect.c ****         _lv_blend_fill(clip, &fill_area, color, NULL, LV_DRAW_MASK_RES_FULL_COVER, opa, blend_mode)
 4706              		.loc 1 1371 54 view .LVU1795
 4707 03fa 013B     		subs	r3, r3, #1
1371:lvgl/src/draw/lv_draw_rect.c ****         _lv_blend_fill(clip, &fill_area, color, NULL, LV_DRAW_MASK_RES_FULL_COVER, opa, blend_mode)
 4708              		.loc 1 1371 22 view .LVU1796
 4709 03fc ADF84C30 		strh	r3, [sp, #76]	@ movhi
1372:lvgl/src/draw/lv_draw_rect.c **** 
 4710              		.loc 1 1372 9 is_stmt 1 view .LVU1797
 4711 0400 069B     		ldr	r3, [sp, #24]
 4712 0402 0293     		str	r3, [sp, #8]
 4713 0404 0197     		str	r7, [sp, #4]
 4714 0406 0126     		movs	r6, #1
ARM GAS  /var/folders/k2/cd9bl_j17z77g23y6ffqb_400000gn/T//cc0jKSMI.s 			page 138


 4715 0408 0096     		str	r6, [sp]
 4716 040a 0023     		movs	r3, #0
 4717 040c 2F9A     		ldr	r2, [sp, #188]
 4718 040e 12A9     		add	r1, sp, #72
 4719 0410 DDF81480 		ldr	r8, [sp, #20]
 4720              	.LVL432:
1372:lvgl/src/draw/lv_draw_rect.c **** 
 4721              		.loc 1 1372 9 is_stmt 0 view .LVU1798
 4722 0414 4046     		mov	r0, r8
 4723 0416 FFF7FEFF 		bl	_lv_blend_fill
 4724              	.LVL433:
1375:lvgl/src/draw/lv_draw_rect.c ****         fill_area.x2 = area_outer->x2;
 4725              		.loc 1 1375 9 is_stmt 1 view .LVU1799
1375:lvgl/src/draw/lv_draw_rect.c ****         fill_area.x2 = area_outer->x2;
 4726              		.loc 1 1375 34 is_stmt 0 view .LVU1800
 4727 041a B4F90420 		ldrsh	r2, [r4, #4]
1375:lvgl/src/draw/lv_draw_rect.c ****         fill_area.x2 = area_outer->x2;
 4728              		.loc 1 1375 39 view .LVU1801
 4729 041e 0C99     		ldr	r1, [sp, #48]
 4730 0420 0A9C     		ldr	r4, [sp, #40]
 4731              	.LVL434:
1375:lvgl/src/draw/lv_draw_rect.c ****         fill_area.x2 = area_outer->x2;
 4732              		.loc 1 1375 39 view .LVU1802
 4733 0422 0B1B     		subs	r3, r1, r4
 4734 0424 13FA82F3 		uxtah	r3, r3, r2
 4735 0428 9BB2     		uxth	r3, r3
1375:lvgl/src/draw/lv_draw_rect.c ****         fill_area.x2 = area_outer->x2;
 4736              		.loc 1 1375 54 view .LVU1803
 4737 042a 3344     		add	r3, r3, r6
1375:lvgl/src/draw/lv_draw_rect.c ****         fill_area.x2 = area_outer->x2;
 4738              		.loc 1 1375 22 view .LVU1804
 4739 042c ADF84830 		strh	r3, [sp, #72]	@ movhi
1376:lvgl/src/draw/lv_draw_rect.c **** 
 4740              		.loc 1 1376 9 is_stmt 1 view .LVU1805
1376:lvgl/src/draw/lv_draw_rect.c **** 
 4741              		.loc 1 1376 22 is_stmt 0 view .LVU1806
 4742 0430 ADF84C20 		strh	r2, [sp, #76]	@ movhi
1378:lvgl/src/draw/lv_draw_rect.c ****     }
 4743              		.loc 1 1378 9 is_stmt 1 view .LVU1807
 4744 0434 069B     		ldr	r3, [sp, #24]
 4745 0436 0293     		str	r3, [sp, #8]
 4746 0438 0197     		str	r7, [sp, #4]
 4747 043a 0096     		str	r6, [sp]
 4748 043c 0023     		movs	r3, #0
 4749 043e 2F9A     		ldr	r2, [sp, #188]
 4750 0440 12A9     		add	r1, sp, #72
 4751 0442 4046     		mov	r0, r8
 4752 0444 FFF7FEFF 		bl	_lv_blend_fill
 4753              	.LVL435:
 4754              	.L202:
1378:lvgl/src/draw/lv_draw_rect.c ****     }
 4755              		.loc 1 1378 9 is_stmt 0 view .LVU1808
 4756              	.LBE319:
1397:lvgl/src/draw/lv_draw_rect.c ****     lv_draw_mask_remove_id(mask_rout_id);
 4757              		.loc 1 1397 5 is_stmt 1 view .LVU1809
 4758 0448 0E98     		ldr	r0, [sp, #56]
 4759 044a FFF7FEFF 		bl	lv_draw_mask_remove_id
ARM GAS  /var/folders/k2/cd9bl_j17z77g23y6ffqb_400000gn/T//cc0jKSMI.s 			page 139


 4760              	.LVL436:
1398:lvgl/src/draw/lv_draw_rect.c ****     lv_mem_buf_release(mask_buf);
 4761              		.loc 1 1398 5 view .LVU1810
 4762 044e 0F98     		ldr	r0, [sp, #60]
 4763 0450 FFF7FEFF 		bl	lv_draw_mask_remove_id
 4764              	.LVL437:
1399:lvgl/src/draw/lv_draw_rect.c **** }
 4765              		.loc 1 1399 5 view .LVU1811
 4766 0454 2846     		mov	r0, r5
 4767 0456 FFF7FEFF 		bl	lv_mem_buf_release
 4768              	.LVL438:
 4769 045a 21E6     		b	.L183
 4770              	.LVL439:
 4771              	.L192:
1382:lvgl/src/draw/lv_draw_rect.c ****         fill_area.x2 = area_outer->x2;
 4772              		.loc 1 1382 9 view .LVU1812
1382:lvgl/src/draw/lv_draw_rect.c ****         fill_area.x2 = area_outer->x2;
 4773              		.loc 1 1382 34 is_stmt 0 view .LVU1813
 4774 045c B4F90030 		ldrsh	r3, [r4]
1382:lvgl/src/draw/lv_draw_rect.c ****         fill_area.x2 = area_outer->x2;
 4775              		.loc 1 1382 22 view .LVU1814
 4776 0460 ADF84830 		strh	r3, [sp, #72]	@ movhi
1383:lvgl/src/draw/lv_draw_rect.c ****         fill_area.y1 = disp_area->y1 + draw_area.y1;
 4777              		.loc 1 1383 9 is_stmt 1 view .LVU1815
1383:lvgl/src/draw/lv_draw_rect.c ****         fill_area.y1 = disp_area->y1 + draw_area.y1;
 4778              		.loc 1 1383 34 is_stmt 0 view .LVU1816
 4779 0464 B4F90430 		ldrsh	r3, [r4, #4]
1383:lvgl/src/draw/lv_draw_rect.c ****         fill_area.y1 = disp_area->y1 + draw_area.y1;
 4780              		.loc 1 1383 22 view .LVU1817
 4781 0468 ADF84C30 		strh	r3, [sp, #76]	@ movhi
1384:lvgl/src/draw/lv_draw_rect.c ****         fill_area.y2 = fill_area.y1;
 4782              		.loc 1 1384 9 is_stmt 1 view .LVU1818
1384:lvgl/src/draw/lv_draw_rect.c ****         fill_area.y2 = fill_area.y1;
 4783              		.loc 1 1384 33 is_stmt 0 view .LVU1819
 4784 046c 738A     		ldrh	r3, [r6, #18]
1384:lvgl/src/draw/lv_draw_rect.c ****         fill_area.y2 = fill_area.y1;
 4785              		.loc 1 1384 49 view .LVU1820
 4786 046e BDF98A40 		ldrsh	r4, [sp, #138]
 4787              	.LVL440:
1384:lvgl/src/draw/lv_draw_rect.c ****         fill_area.y2 = fill_area.y1;
 4788              		.loc 1 1384 38 view .LVU1821
 4789 0472 13FA84F3 		uxtah	r3, r3, r4
 4790 0476 1BB2     		sxth	r3, r3
1384:lvgl/src/draw/lv_draw_rect.c ****         fill_area.y2 = fill_area.y1;
 4791              		.loc 1 1384 22 view .LVU1822
 4792 0478 ADF84A30 		strh	r3, [sp, #74]	@ movhi
1385:lvgl/src/draw/lv_draw_rect.c **** 
 4793              		.loc 1 1385 9 is_stmt 1 view .LVU1823
1385:lvgl/src/draw/lv_draw_rect.c **** 
 4794              		.loc 1 1385 22 is_stmt 0 view .LVU1824
 4795 047c ADF84E30 		strh	r3, [sp, #78]	@ movhi
1387:lvgl/src/draw/lv_draw_rect.c ****             lv_memset_ff(mask_buf, draw_area_w);
 4796              		.loc 1 1387 9 is_stmt 1 view .LVU1825
 4797              	.LVL441:
1387:lvgl/src/draw/lv_draw_rect.c ****             lv_memset_ff(mask_buf, draw_area_w);
 4798              		.loc 1 1387 9 is_stmt 0 view .LVU1826
 4799 0480 DDF81490 		ldr	r9, [sp, #20]
ARM GAS  /var/folders/k2/cd9bl_j17z77g23y6ffqb_400000gn/T//cc0jKSMI.s 			page 140


 4800 0484 DDF8BCA0 		ldr	r10, [sp, #188]
 4801              	.LVL442:
1387:lvgl/src/draw/lv_draw_rect.c ****             lv_memset_ff(mask_buf, draw_area_w);
 4802              		.loc 1 1387 9 view .LVU1827
 4803 0488 DDF818B0 		ldr	fp, [sp, #24]
 4804 048c 24E0     		b	.L203
 4805              	.LVL443:
 4806              	.L204:
1388:lvgl/src/draw/lv_draw_rect.c ****             mask_res = lv_draw_mask_apply(mask_buf, draw_buf->area.x1 + draw_area.x1, draw_buf->are
 4807              		.loc 1 1388 13 is_stmt 1 discriminator 3 view .LVU1828
 4808 048e 4146     		mov	r1, r8
 4809 0490 2846     		mov	r0, r5
 4810 0492 FFF7FEFF 		bl	lv_memset_ff
 4811              	.LVL444:
1389:lvgl/src/draw/lv_draw_rect.c **** 
 4812              		.loc 1 1389 13 discriminator 3 view .LVU1829
1389:lvgl/src/draw/lv_draw_rect.c **** 
 4813              		.loc 1 1389 67 is_stmt 0 discriminator 3 view .LVU1830
 4814 0496 318A     		ldrh	r1, [r6, #16]
1389:lvgl/src/draw/lv_draw_rect.c **** 
 4815              		.loc 1 1389 82 discriminator 3 view .LVU1831
 4816 0498 BDF88830 		ldrh	r3, [sp, #136]
1389:lvgl/src/draw/lv_draw_rect.c **** 
 4817              		.loc 1 1389 71 discriminator 3 view .LVU1832
 4818 049c 1944     		add	r1, r1, r3
1389:lvgl/src/draw/lv_draw_rect.c **** 
 4819              		.loc 1 1389 101 discriminator 3 view .LVU1833
 4820 049e 728A     		ldrh	r2, [r6, #18]
1389:lvgl/src/draw/lv_draw_rect.c **** 
 4821              		.loc 1 1389 105 discriminator 3 view .LVU1834
 4822 04a0 2244     		add	r2, r2, r4
1389:lvgl/src/draw/lv_draw_rect.c **** 
 4823              		.loc 1 1389 24 discriminator 3 view .LVU1835
 4824 04a2 4346     		mov	r3, r8
 4825 04a4 12B2     		sxth	r2, r2
 4826 04a6 09B2     		sxth	r1, r1
 4827 04a8 2846     		mov	r0, r5
 4828 04aa FFF7FEFF 		bl	lv_draw_mask_apply
 4829              	.LVL445:
1391:lvgl/src/draw/lv_draw_rect.c ****             fill_area.y1++;
 4830              		.loc 1 1391 13 is_stmt 1 discriminator 3 view .LVU1836
 4831 04ae CDF808B0 		str	fp, [sp, #8]
 4832 04b2 0197     		str	r7, [sp, #4]
 4833 04b4 0090     		str	r0, [sp]
 4834 04b6 2B46     		mov	r3, r5
 4835 04b8 5246     		mov	r2, r10
 4836 04ba 12A9     		add	r1, sp, #72
 4837 04bc 4846     		mov	r0, r9
 4838              	.LVL446:
1391:lvgl/src/draw/lv_draw_rect.c ****             fill_area.y1++;
 4839              		.loc 1 1391 13 is_stmt 0 discriminator 3 view .LVU1837
 4840 04be FFF7FEFF 		bl	_lv_blend_fill
 4841              	.LVL447:
1392:lvgl/src/draw/lv_draw_rect.c ****             fill_area.y2++;
 4842              		.loc 1 1392 13 is_stmt 1 discriminator 3 view .LVU1838
1392:lvgl/src/draw/lv_draw_rect.c ****             fill_area.y2++;
 4843              		.loc 1 1392 22 is_stmt 0 discriminator 3 view .LVU1839
ARM GAS  /var/folders/k2/cd9bl_j17z77g23y6ffqb_400000gn/T//cc0jKSMI.s 			page 141


 4844 04c2 BDF94A30 		ldrsh	r3, [sp, #74]
1392:lvgl/src/draw/lv_draw_rect.c ****             fill_area.y2++;
 4845              		.loc 1 1392 25 discriminator 3 view .LVU1840
 4846 04c6 0133     		adds	r3, r3, #1
 4847 04c8 ADF84A30 		strh	r3, [sp, #74]	@ movhi
1393:lvgl/src/draw/lv_draw_rect.c **** 
 4848              		.loc 1 1393 13 is_stmt 1 discriminator 3 view .LVU1841
1393:lvgl/src/draw/lv_draw_rect.c **** 
 4849              		.loc 1 1393 22 is_stmt 0 discriminator 3 view .LVU1842
 4850 04cc BDF94E30 		ldrsh	r3, [sp, #78]
1393:lvgl/src/draw/lv_draw_rect.c **** 
 4851              		.loc 1 1393 25 discriminator 3 view .LVU1843
 4852 04d0 0133     		adds	r3, r3, #1
 4853 04d2 ADF84E30 		strh	r3, [sp, #78]	@ movhi
1387:lvgl/src/draw/lv_draw_rect.c ****             lv_memset_ff(mask_buf, draw_area_w);
 4854              		.loc 1 1387 50 is_stmt 1 discriminator 3 view .LVU1844
1387:lvgl/src/draw/lv_draw_rect.c ****             lv_memset_ff(mask_buf, draw_area_w);
 4855              		.loc 1 1387 51 is_stmt 0 discriminator 3 view .LVU1845
 4856 04d6 0134     		adds	r4, r4, #1
 4857              	.LVL448:
 4858              	.L203:
1387:lvgl/src/draw/lv_draw_rect.c ****             lv_memset_ff(mask_buf, draw_area_w);
 4859              		.loc 1 1387 31 is_stmt 1 discriminator 1 view .LVU1846
1387:lvgl/src/draw/lv_draw_rect.c ****             lv_memset_ff(mask_buf, draw_area_w);
 4860              		.loc 1 1387 45 is_stmt 0 discriminator 1 view .LVU1847
 4861 04d8 BDF98E30 		ldrsh	r3, [sp, #142]
1387:lvgl/src/draw/lv_draw_rect.c ****             lv_memset_ff(mask_buf, draw_area_w);
 4862              		.loc 1 1387 9 discriminator 1 view .LVU1848
 4863 04dc A342     		cmp	r3, r4
 4864 04de D6DA     		bge	.L204
 4865 04e0 B2E7     		b	.L202
 4866              		.cfi_endproc
 4867              	.LFE157:
 4869              		.section	.text.draw_outline,"ax",%progbits
 4870              		.align	1
 4871              		.syntax unified
 4872              		.thumb
 4873              		.thumb_func
 4874              		.fpu fpv4-sp-d16
 4876              	draw_outline:
 4877              	.LVL449:
 4878              	.LFB156:
1180:lvgl/src/draw/lv_draw_rect.c ****     if(dsc->outline_opa <= LV_OPA_MIN) return;
 4879              		.loc 1 1180 1 is_stmt 1 view -0
 4880              		.cfi_startproc
 4881              		@ args = 0, pretend = 0, frame = 16
 4882              		@ frame_needed = 0, uses_anonymous_args = 0
1180:lvgl/src/draw/lv_draw_rect.c ****     if(dsc->outline_opa <= LV_OPA_MIN) return;
 4883              		.loc 1 1180 1 is_stmt 0 view .LVU1850
 4884 0000 2DE9F043 		push	{r4, r5, r6, r7, r8, r9, lr}
 4885              	.LCFI14:
 4886              		.cfi_def_cfa_offset 28
 4887              		.cfi_offset 4, -28
 4888              		.cfi_offset 5, -24
 4889              		.cfi_offset 6, -20
 4890              		.cfi_offset 7, -16
 4891              		.cfi_offset 8, -12
ARM GAS  /var/folders/k2/cd9bl_j17z77g23y6ffqb_400000gn/T//cc0jKSMI.s 			page 142


 4892              		.cfi_offset 9, -8
 4893              		.cfi_offset 14, -4
 4894 0004 89B0     		sub	sp, sp, #36
 4895              	.LCFI15:
 4896              		.cfi_def_cfa_offset 64
1181:lvgl/src/draw/lv_draw_rect.c ****     if(dsc->outline_width == 0) return;
 4897              		.loc 1 1181 5 is_stmt 1 view .LVU1851
1181:lvgl/src/draw/lv_draw_rect.c ****     if(dsc->outline_width == 0) return;
 4898              		.loc 1 1181 11 is_stmt 0 view .LVU1852
 4899 0006 92F83050 		ldrb	r5, [r2, #48]	@ zero_extendqisi2
1181:lvgl/src/draw/lv_draw_rect.c ****     if(dsc->outline_width == 0) return;
 4900              		.loc 1 1181 7 view .LVU1853
 4901 000a 022D     		cmp	r5, #2
 4902 000c 59D9     		bls	.L216
1182:lvgl/src/draw/lv_draw_rect.c **** 
 4903              		.loc 1 1182 5 is_stmt 1 view .LVU1854
1182:lvgl/src/draw/lv_draw_rect.c **** 
 4904              		.loc 1 1182 11 is_stmt 0 view .LVU1855
 4905 000e B2F92C40 		ldrsh	r4, [r2, #44]
1182:lvgl/src/draw/lv_draw_rect.c **** 
 4906              		.loc 1 1182 7 view .LVU1856
 4907 0012 002C     		cmp	r4, #0
 4908 0014 55D0     		beq	.L216
1184:lvgl/src/draw/lv_draw_rect.c **** 
 4909              		.loc 1 1184 5 is_stmt 1 view .LVU1857
 4910              	.LVL450:
1186:lvgl/src/draw/lv_draw_rect.c **** 
 4911              		.loc 1 1186 5 view .LVU1858
1189:lvgl/src/draw/lv_draw_rect.c ****     lv_area_copy(&area_inner, coords);
 4912              		.loc 1 1189 5 view .LVU1859
1190:lvgl/src/draw/lv_draw_rect.c **** 
 4913              		.loc 1 1190 5 view .LVU1860
 4914              	.LBB320:
 4915              	.LBI320:
 120:lvgl/src/draw/../misc/lv_area.h **** {
 4916              		.loc 2 120 20 view .LVU1861
 4917              	.LBB321:
 122:lvgl/src/draw/../misc/lv_area.h ****     dest->y1 = src->y1;
 4918              		.loc 2 122 5 view .LVU1862
 122:lvgl/src/draw/../misc/lv_area.h ****     dest->y1 = src->y1;
 4919              		.loc 2 122 19 is_stmt 0 view .LVU1863
 4920 0016 B0F900E0 		ldrsh	lr, [r0]
 122:lvgl/src/draw/../misc/lv_area.h ****     dest->y1 = src->y1;
 4921              		.loc 2 122 14 view .LVU1864
 4922 001a ADF818E0 		strh	lr, [sp, #24]	@ movhi
 123:lvgl/src/draw/../misc/lv_area.h ****     dest->x2 = src->x2;
 4923              		.loc 2 123 5 is_stmt 1 view .LVU1865
 123:lvgl/src/draw/../misc/lv_area.h ****     dest->x2 = src->x2;
 4924              		.loc 2 123 19 is_stmt 0 view .LVU1866
 4925 001e B0F902C0 		ldrsh	ip, [r0, #2]
 123:lvgl/src/draw/../misc/lv_area.h ****     dest->x2 = src->x2;
 4926              		.loc 2 123 14 view .LVU1867
 4927 0022 ADF81AC0 		strh	ip, [sp, #26]	@ movhi
 124:lvgl/src/draw/../misc/lv_area.h ****     dest->y2 = src->y2;
 4928              		.loc 2 124 5 is_stmt 1 view .LVU1868
 124:lvgl/src/draw/../misc/lv_area.h ****     dest->y2 = src->y2;
 4929              		.loc 2 124 19 is_stmt 0 view .LVU1869
ARM GAS  /var/folders/k2/cd9bl_j17z77g23y6ffqb_400000gn/T//cc0jKSMI.s 			page 143


 4930 0026 B0F90460 		ldrsh	r6, [r0, #4]
 124:lvgl/src/draw/../misc/lv_area.h ****     dest->y2 = src->y2;
 4931              		.loc 2 124 14 view .LVU1870
 4932 002a ADF81C60 		strh	r6, [sp, #28]	@ movhi
 125:lvgl/src/draw/../misc/lv_area.h **** }
 4933              		.loc 2 125 5 is_stmt 1 view .LVU1871
 125:lvgl/src/draw/../misc/lv_area.h **** }
 4934              		.loc 2 125 19 is_stmt 0 view .LVU1872
 4935 002e B0F90600 		ldrsh	r0, [r0, #6]
 4936              	.LVL451:
 125:lvgl/src/draw/../misc/lv_area.h **** }
 4937              		.loc 2 125 14 view .LVU1873
 4938 0032 ADF81E00 		strh	r0, [sp, #30]	@ movhi
 4939              	.LVL452:
 125:lvgl/src/draw/../misc/lv_area.h **** }
 4940              		.loc 2 125 14 view .LVU1874
 4941              	.LBE321:
 4942              	.LBE320:
1193:lvgl/src/draw/lv_draw_rect.c ****     area_inner.x1 -= pad;
 4943              		.loc 1 1193 5 is_stmt 1 view .LVU1875
1193:lvgl/src/draw/lv_draw_rect.c ****     area_inner.x1 -= pad;
 4944              		.loc 1 1193 26 is_stmt 0 view .LVU1876
 4945 0036 B2F92E30 		ldrsh	r3, [r2, #46]
1193:lvgl/src/draw/lv_draw_rect.c ****     area_inner.x1 -= pad;
 4946              		.loc 1 1193 16 view .LVU1877
 4947 003a 13B9     		cbnz	r3, .L218
1193:lvgl/src/draw/lv_draw_rect.c ****     area_inner.x1 -= pad;
 4948              		.loc 1 1193 51 discriminator 1 view .LVU1878
 4949 003c 9BB2     		uxth	r3, r3
1193:lvgl/src/draw/lv_draw_rect.c ****     area_inner.x1 -= pad;
 4950              		.loc 1 1193 65 discriminator 1 view .LVU1879
 4951 003e 013B     		subs	r3, r3, #1
1193:lvgl/src/draw/lv_draw_rect.c ****     area_inner.x1 -= pad;
 4952              		.loc 1 1193 16 discriminator 1 view .LVU1880
 4953 0040 1BB2     		sxth	r3, r3
 4954              	.L218:
 4955              	.LVL453:
1194:lvgl/src/draw/lv_draw_rect.c ****     area_inner.y1 -= pad;
 4956              		.loc 1 1194 5 is_stmt 1 discriminator 4 view .LVU1881
1194:lvgl/src/draw/lv_draw_rect.c ****     area_inner.y1 -= pad;
 4957              		.loc 1 1194 19 is_stmt 0 discriminator 4 view .LVU1882
 4958 0042 9BB2     		uxth	r3, r3
1194:lvgl/src/draw/lv_draw_rect.c ****     area_inner.y1 -= pad;
 4959              		.loc 1 1194 19 discriminator 4 view .LVU1883
 4960 0044 AEEB030E 		sub	lr, lr, r3
 4961 0048 1FFA8EF7 		uxth	r7, lr
 4962 004c 0FFA8EFE 		sxth	lr, lr
 4963 0050 ADF818E0 		strh	lr, [sp, #24]	@ movhi
1195:lvgl/src/draw/lv_draw_rect.c ****     area_inner.x2 += pad;
 4964              		.loc 1 1195 5 is_stmt 1 discriminator 4 view .LVU1884
1195:lvgl/src/draw/lv_draw_rect.c ****     area_inner.x2 += pad;
 4965              		.loc 1 1195 19 is_stmt 0 discriminator 4 view .LVU1885
 4966 0054 ACEB030C 		sub	ip, ip, r3
 4967 0058 1FFA8CF8 		uxth	r8, ip
 4968 005c 0FFA8CFC 		sxth	ip, ip
 4969 0060 ADF81AC0 		strh	ip, [sp, #26]	@ movhi
1196:lvgl/src/draw/lv_draw_rect.c ****     area_inner.y2 += pad;
ARM GAS  /var/folders/k2/cd9bl_j17z77g23y6ffqb_400000gn/T//cc0jKSMI.s 			page 144


 4970              		.loc 1 1196 5 is_stmt 1 discriminator 4 view .LVU1886
1196:lvgl/src/draw/lv_draw_rect.c ****     area_inner.y2 += pad;
 4971              		.loc 1 1196 19 is_stmt 0 discriminator 4 view .LVU1887
 4972 0064 1E44     		add	r6, r6, r3
 4973 0066 0FFA86F9 		sxth	r9, r6
 4974 006a ADF81C90 		strh	r9, [sp, #28]	@ movhi
1197:lvgl/src/draw/lv_draw_rect.c **** 
 4975              		.loc 1 1197 5 is_stmt 1 discriminator 4 view .LVU1888
1197:lvgl/src/draw/lv_draw_rect.c **** 
 4976              		.loc 1 1197 19 is_stmt 0 discriminator 4 view .LVU1889
 4977 006e 0344     		add	r3, r3, r0
 4978              	.LVL454:
1197:lvgl/src/draw/lv_draw_rect.c **** 
 4979              		.loc 1 1197 19 discriminator 4 view .LVU1890
 4980 0070 18B2     		sxth	r0, r3
 4981 0072 ADF81E00 		strh	r0, [sp, #30]	@ movhi
1199:lvgl/src/draw/lv_draw_rect.c ****     lv_area_copy(&area_outer, &area_inner);
 4982              		.loc 1 1199 5 is_stmt 1 discriminator 4 view .LVU1891
1200:lvgl/src/draw/lv_draw_rect.c **** 
 4983              		.loc 1 1200 5 discriminator 4 view .LVU1892
 4984              	.LVL455:
 4985              	.LBB322:
 4986              	.LBI322:
 120:lvgl/src/draw/../misc/lv_area.h **** {
 4987              		.loc 2 120 20 discriminator 4 view .LVU1893
 4988              	.LBB323:
 122:lvgl/src/draw/../misc/lv_area.h ****     dest->y1 = src->y1;
 4989              		.loc 2 122 5 discriminator 4 view .LVU1894
 122:lvgl/src/draw/../misc/lv_area.h ****     dest->y1 = src->y1;
 4990              		.loc 2 122 14 is_stmt 0 discriminator 4 view .LVU1895
 4991 0076 ADF810E0 		strh	lr, [sp, #16]	@ movhi
 123:lvgl/src/draw/../misc/lv_area.h ****     dest->x2 = src->x2;
 4992              		.loc 2 123 5 is_stmt 1 discriminator 4 view .LVU1896
 123:lvgl/src/draw/../misc/lv_area.h ****     dest->x2 = src->x2;
 4993              		.loc 2 123 14 is_stmt 0 discriminator 4 view .LVU1897
 4994 007a ADF812C0 		strh	ip, [sp, #18]	@ movhi
 124:lvgl/src/draw/../misc/lv_area.h ****     dest->y2 = src->y2;
 4995              		.loc 2 124 5 is_stmt 1 discriminator 4 view .LVU1898
 124:lvgl/src/draw/../misc/lv_area.h ****     dest->y2 = src->y2;
 4996              		.loc 2 124 14 is_stmt 0 discriminator 4 view .LVU1899
 4997 007e ADF81490 		strh	r9, [sp, #20]	@ movhi
 125:lvgl/src/draw/../misc/lv_area.h **** }
 4998              		.loc 2 125 5 is_stmt 1 discriminator 4 view .LVU1900
 125:lvgl/src/draw/../misc/lv_area.h **** }
 4999              		.loc 2 125 14 is_stmt 0 discriminator 4 view .LVU1901
 5000 0082 ADF81600 		strh	r0, [sp, #22]	@ movhi
 5001              	.LVL456:
 125:lvgl/src/draw/../misc/lv_area.h **** }
 5002              		.loc 2 125 14 discriminator 4 view .LVU1902
 5003              	.LBE323:
 5004              	.LBE322:
1202:lvgl/src/draw/lv_draw_rect.c ****     area_outer.x2 += dsc->outline_width;
 5005              		.loc 1 1202 5 is_stmt 1 discriminator 4 view .LVU1903
1202:lvgl/src/draw/lv_draw_rect.c ****     area_outer.x2 += dsc->outline_width;
 5006              		.loc 1 1202 25 is_stmt 0 discriminator 4 view .LVU1904
 5007 0086 A0B2     		uxth	r0, r4
1202:lvgl/src/draw/lv_draw_rect.c ****     area_outer.x2 += dsc->outline_width;
ARM GAS  /var/folders/k2/cd9bl_j17z77g23y6ffqb_400000gn/T//cc0jKSMI.s 			page 145


 5008              		.loc 1 1202 19 discriminator 4 view .LVU1905
 5009 0088 3F1A     		subs	r7, r7, r0
 5010 008a ADF81070 		strh	r7, [sp, #16]	@ movhi
1203:lvgl/src/draw/lv_draw_rect.c ****     area_outer.y1 -= dsc->outline_width;
 5011              		.loc 1 1203 5 is_stmt 1 discriminator 4 view .LVU1906
1203:lvgl/src/draw/lv_draw_rect.c ****     area_outer.y1 -= dsc->outline_width;
 5012              		.loc 1 1203 19 is_stmt 0 discriminator 4 view .LVU1907
 5013 008e 10FA86F6 		uxtah	r6, r0, r6
 5014 0092 ADF81460 		strh	r6, [sp, #20]	@ movhi
1204:lvgl/src/draw/lv_draw_rect.c ****     area_outer.y2 += dsc->outline_width;
 5015              		.loc 1 1204 5 is_stmt 1 discriminator 4 view .LVU1908
1204:lvgl/src/draw/lv_draw_rect.c ****     area_outer.y2 += dsc->outline_width;
 5016              		.loc 1 1204 19 is_stmt 0 discriminator 4 view .LVU1909
 5017 0096 A8EB0008 		sub	r8, r8, r0
 5018 009a ADF81280 		strh	r8, [sp, #18]	@ movhi
1205:lvgl/src/draw/lv_draw_rect.c **** 
 5019              		.loc 1 1205 5 is_stmt 1 discriminator 4 view .LVU1910
1205:lvgl/src/draw/lv_draw_rect.c **** 
 5020              		.loc 1 1205 19 is_stmt 0 discriminator 4 view .LVU1911
 5021 009e 10FA83F3 		uxtah	r3, r0, r3
 5022 00a2 ADF81630 		strh	r3, [sp, #22]	@ movhi
1208:lvgl/src/draw/lv_draw_rect.c ****                      dsc->blend_mode);
 5023              		.loc 1 1208 5 is_stmt 1 discriminator 4 view .LVU1912
 5024 00a6 9378     		ldrb	r3, [r2, #2]	@ zero_extendqisi2
 5025 00a8 0393     		str	r3, [sp, #12]
 5026 00aa 0295     		str	r5, [sp, #8]
 5027 00ac 936A     		ldr	r3, [r2, #40]
 5028 00ae 0193     		str	r3, [sp, #4]
 5029 00b0 0123     		movs	r3, #1
 5030 00b2 0093     		str	r3, [sp]
 5031 00b4 B2F90030 		ldrsh	r3, [r2]
 5032 00b8 0A46     		mov	r2, r1
 5033              	.LVL457:
1208:lvgl/src/draw/lv_draw_rect.c ****                      dsc->blend_mode);
 5034              		.loc 1 1208 5 is_stmt 0 discriminator 4 view .LVU1913
 5035 00ba 04A9     		add	r1, sp, #16
 5036              	.LVL458:
1208:lvgl/src/draw/lv_draw_rect.c ****                      dsc->blend_mode);
 5037              		.loc 1 1208 5 discriminator 4 view .LVU1914
 5038 00bc 06A8     		add	r0, sp, #24
 5039 00be FFF7FEFF 		bl	draw_full_border
 5040              	.LVL459:
 5041              	.L216:
1213:lvgl/src/draw/lv_draw_rect.c **** 
 5042              		.loc 1 1213 1 view .LVU1915
 5043 00c2 09B0     		add	sp, sp, #36
 5044              	.LCFI16:
 5045              		.cfi_def_cfa_offset 28
 5046              		@ sp needed
 5047 00c4 BDE8F083 		pop	{r4, r5, r6, r7, r8, r9, pc}
 5048              		.cfi_endproc
 5049              	.LFE156:
 5051              		.section	.text.draw_border,"ax",%progbits
 5052              		.align	1
 5053              		.syntax unified
 5054              		.thumb
 5055              		.thumb_func
ARM GAS  /var/folders/k2/cd9bl_j17z77g23y6ffqb_400000gn/T//cc0jKSMI.s 			page 146


 5056              		.fpu fpv4-sp-d16
 5058              	draw_border:
 5059              	.LVL460:
 5060              	.LFB151:
 403:lvgl/src/draw/lv_draw_rect.c ****     if(dsc->border_opa <= LV_OPA_MIN) return;
 5061              		.loc 1 403 1 is_stmt 1 view -0
 5062              		.cfi_startproc
 5063              		@ args = 0, pretend = 0, frame = 104
 5064              		@ frame_needed = 0, uses_anonymous_args = 0
 403:lvgl/src/draw/lv_draw_rect.c ****     if(dsc->border_opa <= LV_OPA_MIN) return;
 5065              		.loc 1 403 1 is_stmt 0 view .LVU1917
 5066 0000 2DE9F04F 		push	{r4, r5, r6, r7, r8, r9, r10, fp, lr}
 5067              	.LCFI17:
 5068              		.cfi_def_cfa_offset 36
 5069              		.cfi_offset 4, -36
 5070              		.cfi_offset 5, -32
 5071              		.cfi_offset 6, -28
 5072              		.cfi_offset 7, -24
 5073              		.cfi_offset 8, -20
 5074              		.cfi_offset 9, -16
 5075              		.cfi_offset 10, -12
 5076              		.cfi_offset 11, -8
 5077              		.cfi_offset 14, -4
 5078 0004 9FB0     		sub	sp, sp, #124
 5079              	.LCFI18:
 5080              		.cfi_def_cfa_offset 160
 5081 0006 0491     		str	r1, [sp, #16]
 404:lvgl/src/draw/lv_draw_rect.c ****     if(dsc->border_width == 0) return;
 5082              		.loc 1 404 5 is_stmt 1 view .LVU1918
 404:lvgl/src/draw/lv_draw_rect.c ****     if(dsc->border_width == 0) return;
 5083              		.loc 1 404 11 is_stmt 0 view .LVU1919
 5084 0008 92F82660 		ldrb	r6, [r2, #38]	@ zero_extendqisi2
 404:lvgl/src/draw/lv_draw_rect.c ****     if(dsc->border_width == 0) return;
 5085              		.loc 1 404 7 view .LVU1920
 5086 000c 022E     		cmp	r6, #2
 5087 000e 6FD9     		bls	.L221
 5088 0010 0546     		mov	r5, r0
 5089 0012 1446     		mov	r4, r2
 405:lvgl/src/draw/lv_draw_rect.c ****     if(dsc->border_side == LV_BORDER_SIDE_NONE) return;
 5090              		.loc 1 405 5 is_stmt 1 view .LVU1921
 405:lvgl/src/draw/lv_draw_rect.c ****     if(dsc->border_side == LV_BORDER_SIDE_NONE) return;
 5091              		.loc 1 405 11 is_stmt 0 view .LVU1922
 5092 0014 B2F92430 		ldrsh	r3, [r2, #36]
 405:lvgl/src/draw/lv_draw_rect.c ****     if(dsc->border_side == LV_BORDER_SIDE_NONE) return;
 5093              		.loc 1 405 7 view .LVU1923
 5094 0018 002B     		cmp	r3, #0
 5095 001a 69D0     		beq	.L221
 406:lvgl/src/draw/lv_draw_rect.c ****     if(dsc->border_post) return;
 5096              		.loc 1 406 5 is_stmt 1 view .LVU1924
 406:lvgl/src/draw/lv_draw_rect.c ****     if(dsc->border_post) return;
 5097              		.loc 1 406 25 is_stmt 0 view .LVU1925
 5098 001c 92F82720 		ldrb	r2, [r2, #39]	@ zero_extendqisi2
 5099              	.LVL461:
 406:lvgl/src/draw/lv_draw_rect.c ****     if(dsc->border_post) return;
 5100              		.loc 1 406 7 view .LVU1926
 5101 0020 12F03E07 		ands	r7, r2, #62
 5102 0024 64D0     		beq	.L221
ARM GAS  /var/folders/k2/cd9bl_j17z77g23y6ffqb_400000gn/T//cc0jKSMI.s 			page 147


 407:lvgl/src/draw/lv_draw_rect.c **** 
 5103              		.loc 1 407 5 is_stmt 1 view .LVU1927
 407:lvgl/src/draw/lv_draw_rect.c **** 
 5104              		.loc 1 407 7 is_stmt 0 view .LVU1928
 5105 0026 12F0010F 		tst	r2, #1
 5106 002a 61D1     		bne	.L221
 409:lvgl/src/draw/lv_draw_rect.c ****     int32_t coords_h = lv_area_get_height(coords);
 5107              		.loc 1 409 5 is_stmt 1 view .LVU1929
 5108              	.LVL462:
 5109              	.LBB324:
 5110              	.LBI324:
 133:lvgl/src/draw/../misc/lv_area.h **** {
 5111              		.loc 2 133 26 view .LVU1930
 5112              	.LBB325:
 135:lvgl/src/draw/../misc/lv_area.h **** }
 5113              		.loc 2 135 5 view .LVU1931
 135:lvgl/src/draw/../misc/lv_area.h **** }
 5114              		.loc 2 135 31 is_stmt 0 view .LVU1932
 5115 002c B0F90420 		ldrsh	r2, [r0, #4]
 5116 0030 0692     		str	r2, [sp, #24]
 5117 0032 90B2     		uxth	r0, r2
 5118              	.LVL463:
 135:lvgl/src/draw/../misc/lv_area.h **** }
 5119              		.loc 2 135 44 view .LVU1933
 5120 0034 B5F90090 		ldrsh	r9, [r5]
 5121 0038 1FFA89FE 		uxth	lr, r9
 135:lvgl/src/draw/../misc/lv_area.h **** }
 5122              		.loc 2 135 36 view .LVU1934
 5123 003c A0EB0E02 		sub	r2, r0, lr
 5124 0040 92B2     		uxth	r2, r2
 135:lvgl/src/draw/../misc/lv_area.h **** }
 5125              		.loc 2 135 49 view .LVU1935
 5126 0042 0132     		adds	r2, r2, #1
 135:lvgl/src/draw/../misc/lv_area.h **** }
 5127              		.loc 2 135 12 view .LVU1936
 5128 0044 0FFA82FA 		sxth	r10, r2
 5129              	.LVL464:
 135:lvgl/src/draw/../misc/lv_area.h **** }
 5130              		.loc 2 135 12 view .LVU1937
 5131              	.LBE325:
 5132              	.LBE324:
 410:lvgl/src/draw/lv_draw_rect.c **** 
 5133              		.loc 1 410 5 is_stmt 1 view .LVU1938
 5134              	.LBB326:
 5135              	.LBI326:
 143:lvgl/src/draw/../misc/lv_area.h **** {
 5136              		.loc 2 143 26 view .LVU1939
 5137              	.LBB327:
 5138              		.loc 2 145 5 view .LVU1940
 5139              		.loc 2 145 31 is_stmt 0 view .LVU1941
 5140 0048 B5F906B0 		ldrsh	fp, [r5, #6]
 5141 004c 1FFA8BF2 		uxth	r2, fp
 5142 0050 0592     		str	r2, [sp, #20]
 5143              		.loc 2 145 44 view .LVU1942
 5144 0052 B5F90280 		ldrsh	r8, [r5, #2]
 5145 0056 1FFA88FC 		uxth	ip, r8
 5146              		.loc 2 145 36 view .LVU1943
ARM GAS  /var/folders/k2/cd9bl_j17z77g23y6ffqb_400000gn/T//cc0jKSMI.s 			page 148


 5147 005a A2EB0C02 		sub	r2, r2, ip
 5148 005e 92B2     		uxth	r2, r2
 5149              		.loc 2 145 49 view .LVU1944
 5150 0060 0132     		adds	r2, r2, #1
 5151              		.loc 2 145 12 view .LVU1945
 5152 0062 12B2     		sxth	r2, r2
 5153              	.LVL465:
 5154              		.loc 2 145 12 view .LVU1946
 5155              	.LBE327:
 5156              	.LBE326:
 413:lvgl/src/draw/lv_draw_rect.c ****     int32_t short_side = LV_MIN(coords_w, coords_h);
 5157              		.loc 1 413 5 is_stmt 1 view .LVU1947
 413:lvgl/src/draw/lv_draw_rect.c ****     int32_t short_side = LV_MIN(coords_w, coords_h);
 5158              		.loc 1 413 23 is_stmt 0 view .LVU1948
 5159 0064 B4F90010 		ldrsh	r1, [r4]
 5160              	.LVL466:
 414:lvgl/src/draw/lv_draw_rect.c ****     if(rout > short_side >> 1) rout = short_side >> 1;
 5161              		.loc 1 414 5 is_stmt 1 view .LVU1949
 414:lvgl/src/draw/lv_draw_rect.c ****     if(rout > short_side >> 1) rout = short_side >> 1;
 5162              		.loc 1 414 13 is_stmt 0 view .LVU1950
 5163 0068 5245     		cmp	r2, r10
 5164 006a A8BF     		it	ge
 5165 006c 5246     		movge	r2, r10
 5166              	.LVL467:
 415:lvgl/src/draw/lv_draw_rect.c **** 
 5167              		.loc 1 415 5 is_stmt 1 view .LVU1951
 415:lvgl/src/draw/lv_draw_rect.c **** 
 5168              		.loc 1 415 26 is_stmt 0 view .LVU1952
 5169 006e 4FEA620A 		asr	r10, r2, #1
 5170              	.LVL468:
 415:lvgl/src/draw/lv_draw_rect.c **** 
 5171              		.loc 1 415 7 view .LVU1953
 5172 0072 0791     		str	r1, [sp, #28]
 5173 0074 B1EB620F 		cmp	r1, r2, asr #1
 5174 0078 00DC     		bgt	.L223
 413:lvgl/src/draw/lv_draw_rect.c ****     int32_t short_side = LV_MIN(coords_w, coords_h);
 5175              		.loc 1 413 13 view .LVU1954
 5176 007a 8A46     		mov	r10, r1
 5177              	.L223:
 5178              	.LVL469:
 418:lvgl/src/draw/lv_draw_rect.c ****     lv_area_copy(&area_inner, coords);
 5179              		.loc 1 418 5 is_stmt 1 view .LVU1955
 419:lvgl/src/draw/lv_draw_rect.c ****     area_inner.x1 += ((dsc->border_side & LV_BORDER_SIDE_LEFT) ? dsc->border_width : - (dsc->border
 5180              		.loc 1 419 5 view .LVU1956
 5181              	.LBB328:
 5182              	.LBI328:
 120:lvgl/src/draw/../misc/lv_area.h **** {
 5183              		.loc 2 120 20 view .LVU1957
 5184              	.LBB329:
 122:lvgl/src/draw/../misc/lv_area.h ****     dest->y1 = src->y1;
 5185              		.loc 2 122 5 view .LVU1958
 122:lvgl/src/draw/../misc/lv_area.h ****     dest->y1 = src->y1;
 5186              		.loc 2 122 14 is_stmt 0 view .LVU1959
 5187 007c ADF87090 		strh	r9, [sp, #112]	@ movhi
 123:lvgl/src/draw/../misc/lv_area.h ****     dest->x2 = src->x2;
 5188              		.loc 2 123 5 is_stmt 1 view .LVU1960
 123:lvgl/src/draw/../misc/lv_area.h ****     dest->x2 = src->x2;
ARM GAS  /var/folders/k2/cd9bl_j17z77g23y6ffqb_400000gn/T//cc0jKSMI.s 			page 149


 5189              		.loc 2 123 14 is_stmt 0 view .LVU1961
 5190 0080 ADF87280 		strh	r8, [sp, #114]	@ movhi
 124:lvgl/src/draw/../misc/lv_area.h ****     dest->y2 = src->y2;
 5191              		.loc 2 124 5 is_stmt 1 view .LVU1962
 124:lvgl/src/draw/../misc/lv_area.h ****     dest->y2 = src->y2;
 5192              		.loc 2 124 14 is_stmt 0 view .LVU1963
 5193 0084 069A     		ldr	r2, [sp, #24]
 5194              	.LVL470:
 124:lvgl/src/draw/../misc/lv_area.h ****     dest->y2 = src->y2;
 5195              		.loc 2 124 14 view .LVU1964
 5196 0086 ADF87420 		strh	r2, [sp, #116]	@ movhi
 125:lvgl/src/draw/../misc/lv_area.h **** }
 5197              		.loc 2 125 5 is_stmt 1 view .LVU1965
 125:lvgl/src/draw/../misc/lv_area.h **** }
 5198              		.loc 2 125 14 is_stmt 0 view .LVU1966
 5199 008a ADF876B0 		strh	fp, [sp, #118]	@ movhi
 5200              	.LVL471:
 125:lvgl/src/draw/../misc/lv_area.h **** }
 5201              		.loc 2 125 14 view .LVU1967
 5202              	.LBE329:
 5203              	.LBE328:
 420:lvgl/src/draw/lv_draw_rect.c ****     area_inner.x2 -= ((dsc->border_side & LV_BORDER_SIDE_RIGHT) ? dsc->border_width : - (dsc->borde
 5204              		.loc 1 420 5 is_stmt 1 view .LVU1968
 420:lvgl/src/draw/lv_draw_rect.c ****     area_inner.x2 -= ((dsc->border_side & LV_BORDER_SIDE_RIGHT) ? dsc->border_width : - (dsc->borde
 5205              		.loc 1 420 27 is_stmt 0 view .LVU1969
 5206 008e 94F82720 		ldrb	r2, [r4, #39]	@ zero_extendqisi2
 5207 0092 C2F34408 		ubfx	r8, r2, #1, #5
 420:lvgl/src/draw/lv_draw_rect.c ****     area_inner.x2 -= ((dsc->border_side & LV_BORDER_SIDE_RIGHT) ? dsc->border_width : - (dsc->borde
 5208              		.loc 1 420 19 view .LVU1970
 5209 0096 12F0080F 		tst	r2, #8
 5210 009a 2CD0     		beq	.L224
 420:lvgl/src/draw/lv_draw_rect.c ****     area_inner.x2 -= ((dsc->border_side & LV_BORDER_SIDE_RIGHT) ? dsc->border_width : - (dsc->borde
 5211              		.loc 1 420 19 discriminator 1 view .LVU1971
 5212 009c 9AB2     		uxth	r2, r3
 5213              	.L225:
 420:lvgl/src/draw/lv_draw_rect.c ****     area_inner.x2 -= ((dsc->border_side & LV_BORDER_SIDE_RIGHT) ? dsc->border_width : - (dsc->borde
 5214              		.loc 1 420 19 discriminator 4 view .LVU1972
 5215 009e 9644     		add	lr, lr, r2
 5216              	.LVL472:
 420:lvgl/src/draw/lv_draw_rect.c ****     area_inner.x2 -= ((dsc->border_side & LV_BORDER_SIDE_RIGHT) ? dsc->border_width : - (dsc->borde
 5217              		.loc 1 420 19 discriminator 4 view .LVU1973
 5218 00a0 ADF870E0 		strh	lr, [sp, #112]	@ movhi
 421:lvgl/src/draw/lv_draw_rect.c ****     area_inner.y1 += ((dsc->border_side & LV_BORDER_SIDE_TOP) ? dsc->border_width : - (dsc->border_
 5219              		.loc 1 421 5 is_stmt 1 discriminator 4 view .LVU1974
 421:lvgl/src/draw/lv_draw_rect.c ****     area_inner.y1 += ((dsc->border_side & LV_BORDER_SIDE_TOP) ? dsc->border_width : - (dsc->border_
 5220              		.loc 1 421 19 is_stmt 0 discriminator 4 view .LVU1975
 5221 00a4 18F0080F 		tst	r8, #8
 5222 00a8 2BD0     		beq	.L226
 421:lvgl/src/draw/lv_draw_rect.c ****     area_inner.y1 += ((dsc->border_side & LV_BORDER_SIDE_TOP) ? dsc->border_width : - (dsc->border_
 5223              		.loc 1 421 19 discriminator 1 view .LVU1976
 5224 00aa 9AB2     		uxth	r2, r3
 5225              	.L227:
 421:lvgl/src/draw/lv_draw_rect.c ****     area_inner.y1 += ((dsc->border_side & LV_BORDER_SIDE_TOP) ? dsc->border_width : - (dsc->border_
 5226              		.loc 1 421 19 discriminator 4 view .LVU1977
 5227 00ac 801A     		subs	r0, r0, r2
 5228              	.LVL473:
 421:lvgl/src/draw/lv_draw_rect.c ****     area_inner.y1 += ((dsc->border_side & LV_BORDER_SIDE_TOP) ? dsc->border_width : - (dsc->border_
ARM GAS  /var/folders/k2/cd9bl_j17z77g23y6ffqb_400000gn/T//cc0jKSMI.s 			page 150


 5229              		.loc 1 421 19 discriminator 4 view .LVU1978
 5230 00ae ADF87400 		strh	r0, [sp, #116]	@ movhi
 422:lvgl/src/draw/lv_draw_rect.c ****     area_inner.y2 -= ((dsc->border_side & LV_BORDER_SIDE_BOTTOM) ? dsc->border_width : - (dsc->bord
 5231              		.loc 1 422 5 is_stmt 1 discriminator 4 view .LVU1979
 422:lvgl/src/draw/lv_draw_rect.c ****     area_inner.y2 -= ((dsc->border_side & LV_BORDER_SIDE_BOTTOM) ? dsc->border_width : - (dsc->bord
 5232              		.loc 1 422 19 is_stmt 0 discriminator 4 view .LVU1980
 5233 00b2 18F0020F 		tst	r8, #2
 5234 00b6 2AD0     		beq	.L228
 422:lvgl/src/draw/lv_draw_rect.c ****     area_inner.y2 -= ((dsc->border_side & LV_BORDER_SIDE_BOTTOM) ? dsc->border_width : - (dsc->bord
 5235              		.loc 1 422 19 discriminator 1 view .LVU1981
 5236 00b8 9AB2     		uxth	r2, r3
 5237              	.L229:
 422:lvgl/src/draw/lv_draw_rect.c ****     area_inner.y2 -= ((dsc->border_side & LV_BORDER_SIDE_BOTTOM) ? dsc->border_width : - (dsc->bord
 5238              		.loc 1 422 19 discriminator 4 view .LVU1982
 5239 00ba 9444     		add	ip, ip, r2
 5240              	.LVL474:
 422:lvgl/src/draw/lv_draw_rect.c ****     area_inner.y2 -= ((dsc->border_side & LV_BORDER_SIDE_BOTTOM) ? dsc->border_width : - (dsc->bord
 5241              		.loc 1 422 19 discriminator 4 view .LVU1983
 5242 00bc ADF872C0 		strh	ip, [sp, #114]	@ movhi
 5243              	.LVL475:
 423:lvgl/src/draw/lv_draw_rect.c **** 
 5244              		.loc 1 423 5 is_stmt 1 discriminator 4 view .LVU1984
 423:lvgl/src/draw/lv_draw_rect.c **** 
 5245              		.loc 1 423 19 is_stmt 0 discriminator 4 view .LVU1985
 5246 00c0 18F0010F 		tst	r8, #1
 5247 00c4 29D0     		beq	.L230
 423:lvgl/src/draw/lv_draw_rect.c **** 
 5248              		.loc 1 423 19 discriminator 1 view .LVU1986
 5249 00c6 9BB2     		uxth	r3, r3
 5250              	.L231:
 423:lvgl/src/draw/lv_draw_rect.c **** 
 5251              		.loc 1 423 19 discriminator 4 view .LVU1987
 5252 00c8 059A     		ldr	r2, [sp, #20]
 5253 00ca D31A     		subs	r3, r2, r3
 5254 00cc ADF87630 		strh	r3, [sp, #118]	@ movhi
 426:lvgl/src/draw/lv_draw_rect.c ****         draw_full_border(&area_inner, coords, clip, dsc->radius, false, dsc->border_color, dsc->bor
 5255              		.loc 1 426 5 is_stmt 1 discriminator 4 view .LVU1988
 426:lvgl/src/draw/lv_draw_rect.c ****         draw_full_border(&area_inner, coords, clip, dsc->radius, false, dsc->border_color, dsc->bor
 5256              		.loc 1 426 7 is_stmt 0 discriminator 4 view .LVU1989
 5257 00d0 1E2F     		cmp	r7, #30
 5258 00d2 28D0     		beq	.L254
 5259              	.LBB330:
 431:lvgl/src/draw/lv_draw_rect.c ****         if(opa > LV_OPA_MAX) opa = LV_OPA_COVER;
 5260              		.loc 1 431 9 is_stmt 1 view .LVU1990
 5261              	.LVL476:
 432:lvgl/src/draw/lv_draw_rect.c **** 
 5262              		.loc 1 432 9 view .LVU1991
 432:lvgl/src/draw/lv_draw_rect.c **** 
 5263              		.loc 1 432 11 is_stmt 0 view .LVU1992
 5264 00d4 FD2E     		cmp	r6, #253
 5265 00d6 00D9     		bls	.L234
 432:lvgl/src/draw/lv_draw_rect.c **** 
 5266              		.loc 1 432 34 view .LVU1993
 5267 00d8 FF26     		movs	r6, #255
 5268              	.LVL477:
 5269              	.L234:
 434:lvgl/src/draw/lv_draw_rect.c ****         lv_disp_draw_buf_t * draw_buf = lv_disp_get_draw_buf(disp);
ARM GAS  /var/folders/k2/cd9bl_j17z77g23y6ffqb_400000gn/T//cc0jKSMI.s 			page 151


 5270              		.loc 1 434 9 is_stmt 1 view .LVU1994
 434:lvgl/src/draw/lv_draw_rect.c ****         lv_disp_draw_buf_t * draw_buf = lv_disp_get_draw_buf(disp);
 5271              		.loc 1 434 28 is_stmt 0 view .LVU1995
 5272 00da FFF7FEFF 		bl	_lv_refr_get_disp_refreshing
 5273              	.LVL478:
 435:lvgl/src/draw/lv_draw_rect.c **** 
 5274              		.loc 1 435 9 is_stmt 1 view .LVU1996
 435:lvgl/src/draw/lv_draw_rect.c **** 
 5275              		.loc 1 435 41 is_stmt 0 view .LVU1997
 5276 00de FFF7FEFF 		bl	lv_disp_get_draw_buf
 5277              	.LVL479:
 435:lvgl/src/draw/lv_draw_rect.c **** 
 5278              		.loc 1 435 41 view .LVU1998
 5279 00e2 8046     		mov	r8, r0
 5280              	.LVL480:
 439:lvgl/src/draw/lv_draw_rect.c ****         bool is_common;
 5281              		.loc 1 439 9 is_stmt 1 view .LVU1999
 440:lvgl/src/draw/lv_draw_rect.c ****         is_common = _lv_area_intersect(&draw_area, coords, clip);
 5282              		.loc 1 440 9 view .LVU2000
 441:lvgl/src/draw/lv_draw_rect.c ****         if(is_common == false) return;
 5283              		.loc 1 441 9 view .LVU2001
 441:lvgl/src/draw/lv_draw_rect.c ****         if(is_common == false) return;
 5284              		.loc 1 441 21 is_stmt 0 view .LVU2002
 5285 00e4 049A     		ldr	r2, [sp, #16]
 5286 00e6 2946     		mov	r1, r5
 5287 00e8 0AA8     		add	r0, sp, #40
 5288              	.LVL481:
 441:lvgl/src/draw/lv_draw_rect.c ****         if(is_common == false) return;
 5289              		.loc 1 441 21 view .LVU2003
 5290 00ea FFF7FEFF 		bl	_lv_area_intersect
 5291              	.LVL482:
 442:lvgl/src/draw/lv_draw_rect.c **** 
 5292              		.loc 1 442 9 is_stmt 1 view .LVU2004
 442:lvgl/src/draw/lv_draw_rect.c **** 
 5293              		.loc 1 442 11 is_stmt 0 view .LVU2005
 5294 00ee 48BB     		cbnz	r0, .L255
 5295              	.LVL483:
 5296              	.L221:
 442:lvgl/src/draw/lv_draw_rect.c **** 
 5297              		.loc 1 442 11 view .LVU2006
 5298              	.LBE330:
 519:lvgl/src/draw/lv_draw_rect.c **** 
 5299              		.loc 1 519 1 view .LVU2007
 5300 00f0 1FB0     		add	sp, sp, #124
 5301              	.LCFI19:
 5302              		.cfi_remember_state
 5303              		.cfi_def_cfa_offset 36
 5304              		@ sp needed
 5305 00f2 BDE8F08F 		pop	{r4, r5, r6, r7, r8, r9, r10, fp, pc}
 5306              	.LVL484:
 5307              	.L224:
 5308              	.LCFI20:
 5309              		.cfi_restore_state
 420:lvgl/src/draw/lv_draw_rect.c ****     area_inner.x2 -= ((dsc->border_side & LV_BORDER_SIDE_RIGHT) ? dsc->border_width : - (dsc->borde
 5310              		.loc 1 420 107 discriminator 2 view .LVU2008
 5311 00f6 1AFA83F2 		uxtah	r2, r10, r3
 5312 00fa 92B2     		uxth	r2, r2
ARM GAS  /var/folders/k2/cd9bl_j17z77g23y6ffqb_400000gn/T//cc0jKSMI.s 			page 152


 420:lvgl/src/draw/lv_draw_rect.c ****     area_inner.x2 -= ((dsc->border_side & LV_BORDER_SIDE_RIGHT) ? dsc->border_width : - (dsc->borde
 5313              		.loc 1 420 19 discriminator 2 view .LVU2009
 5314 00fc 5242     		rsbs	r2, r2, #0
 5315 00fe 92B2     		uxth	r2, r2
 5316 0100 CDE7     		b	.L225
 5317              	.LVL485:
 5318              	.L226:
 421:lvgl/src/draw/lv_draw_rect.c ****     area_inner.y1 += ((dsc->border_side & LV_BORDER_SIDE_TOP) ? dsc->border_width : - (dsc->border_
 5319              		.loc 1 421 108 discriminator 2 view .LVU2010
 5320 0102 1AFA83F2 		uxtah	r2, r10, r3
 5321 0106 92B2     		uxth	r2, r2
 421:lvgl/src/draw/lv_draw_rect.c ****     area_inner.y1 += ((dsc->border_side & LV_BORDER_SIDE_TOP) ? dsc->border_width : - (dsc->border_
 5322              		.loc 1 421 19 discriminator 2 view .LVU2011
 5323 0108 5242     		rsbs	r2, r2, #0
 5324 010a 92B2     		uxth	r2, r2
 5325 010c CEE7     		b	.L227
 5326              	.LVL486:
 5327              	.L228:
 422:lvgl/src/draw/lv_draw_rect.c ****     area_inner.y2 -= ((dsc->border_side & LV_BORDER_SIDE_BOTTOM) ? dsc->border_width : - (dsc->bord
 5328              		.loc 1 422 106 discriminator 2 view .LVU2012
 5329 010e 1AFA83F2 		uxtah	r2, r10, r3
 5330 0112 92B2     		uxth	r2, r2
 422:lvgl/src/draw/lv_draw_rect.c ****     area_inner.y2 -= ((dsc->border_side & LV_BORDER_SIDE_BOTTOM) ? dsc->border_width : - (dsc->bord
 5331              		.loc 1 422 19 discriminator 2 view .LVU2013
 5332 0114 5242     		rsbs	r2, r2, #0
 5333 0116 92B2     		uxth	r2, r2
 5334 0118 CFE7     		b	.L229
 5335              	.LVL487:
 5336              	.L230:
 423:lvgl/src/draw/lv_draw_rect.c **** 
 5337              		.loc 1 423 109 discriminator 2 view .LVU2014
 5338 011a 1AFA83F3 		uxtah	r3, r10, r3
 5339 011e 9BB2     		uxth	r3, r3
 423:lvgl/src/draw/lv_draw_rect.c **** 
 5340              		.loc 1 423 19 discriminator 2 view .LVU2015
 5341 0120 5B42     		rsbs	r3, r3, #0
 5342 0122 9BB2     		uxth	r3, r3
 5343 0124 D0E7     		b	.L231
 5344              	.L254:
 427:lvgl/src/draw/lv_draw_rect.c ****                          dsc->blend_mode);
 5345              		.loc 1 427 9 is_stmt 1 view .LVU2016
 5346 0126 A378     		ldrb	r3, [r4, #2]	@ zero_extendqisi2
 5347 0128 0393     		str	r3, [sp, #12]
 5348 012a 0296     		str	r6, [sp, #8]
 5349 012c 236A     		ldr	r3, [r4, #32]
 5350 012e 0193     		str	r3, [sp, #4]
 5351 0130 0023     		movs	r3, #0
 5352 0132 0093     		str	r3, [sp]
 5353 0134 B4F90030 		ldrsh	r3, [r4]
 5354 0138 049A     		ldr	r2, [sp, #16]
 5355 013a 2946     		mov	r1, r5
 5356 013c 1CA8     		add	r0, sp, #112
 5357 013e FFF7FEFF 		bl	draw_full_border
 5358              	.LVL488:
 5359 0142 D5E7     		b	.L221
 5360              	.LVL489:
 5361              	.L255:
ARM GAS  /var/folders/k2/cd9bl_j17z77g23y6ffqb_400000gn/T//cc0jKSMI.s 			page 153


 5362              	.LBB333:
 444:lvgl/src/draw/lv_draw_rect.c **** 
 5363              		.loc 1 444 9 view .LVU2017
 448:lvgl/src/draw/lv_draw_rect.c ****         draw_area.y1 -= disp_area->y1;
 5364              		.loc 1 448 9 view .LVU2018
 448:lvgl/src/draw/lv_draw_rect.c ****         draw_area.y1 -= disp_area->y1;
 5365              		.loc 1 448 34 is_stmt 0 view .LVU2019
 5366 0144 B8F81020 		ldrh	r2, [r8, #16]
 448:lvgl/src/draw/lv_draw_rect.c ****         draw_area.y1 -= disp_area->y1;
 5367              		.loc 1 448 22 view .LVU2020
 5368 0148 BDF82870 		ldrh	r7, [sp, #40]
 5369 014c BF1A     		subs	r7, r7, r2
 5370 014e BFB2     		uxth	r7, r7
 5371 0150 ADF82870 		strh	r7, [sp, #40]	@ movhi
 449:lvgl/src/draw/lv_draw_rect.c ****         draw_area.x2 -= disp_area->x1;
 5372              		.loc 1 449 9 is_stmt 1 view .LVU2021
 449:lvgl/src/draw/lv_draw_rect.c ****         draw_area.x2 -= disp_area->x1;
 5373              		.loc 1 449 34 is_stmt 0 view .LVU2022
 5374 0154 B8F81200 		ldrh	r0, [r8, #18]
 5375              	.LVL490:
 449:lvgl/src/draw/lv_draw_rect.c ****         draw_area.x2 -= disp_area->x1;
 5376              		.loc 1 449 22 view .LVU2023
 5377 0158 BDF82A10 		ldrh	r1, [sp, #42]
 5378 015c 091A     		subs	r1, r1, r0
 5379 015e ADF82A10 		strh	r1, [sp, #42]	@ movhi
 450:lvgl/src/draw/lv_draw_rect.c ****         draw_area.y2 -= disp_area->y1;
 5380              		.loc 1 450 9 is_stmt 1 view .LVU2024
 450:lvgl/src/draw/lv_draw_rect.c ****         draw_area.y2 -= disp_area->y1;
 5381              		.loc 1 450 22 is_stmt 0 view .LVU2025
 5382 0162 BDF82C30 		ldrh	r3, [sp, #44]
 5383 0166 9B1A     		subs	r3, r3, r2
 5384 0168 9BB2     		uxth	r3, r3
 5385 016a ADF82C30 		strh	r3, [sp, #44]	@ movhi
 451:lvgl/src/draw/lv_draw_rect.c **** 
 5386              		.loc 1 451 9 is_stmt 1 view .LVU2026
 451:lvgl/src/draw/lv_draw_rect.c **** 
 5387              		.loc 1 451 22 is_stmt 0 view .LVU2027
 5388 016e BDF82E20 		ldrh	r2, [sp, #46]
 5389 0172 121A     		subs	r2, r2, r0
 5390 0174 ADF82E20 		strh	r2, [sp, #46]	@ movhi
 453:lvgl/src/draw/lv_draw_rect.c **** 
 5391              		.loc 1 453 9 is_stmt 1 view .LVU2028
 5392              	.LVL491:
 5393              	.LBB331:
 5394              	.LBI331:
 133:lvgl/src/draw/../misc/lv_area.h **** {
 5395              		.loc 2 133 26 view .LVU2029
 5396              	.LBB332:
 135:lvgl/src/draw/../misc/lv_area.h **** }
 5397              		.loc 2 135 5 view .LVU2030
 135:lvgl/src/draw/../misc/lv_area.h **** }
 5398              		.loc 2 135 36 is_stmt 0 view .LVU2031
 5399 0178 DF1B     		subs	r7, r3, r7
 5400 017a BFB2     		uxth	r7, r7
 135:lvgl/src/draw/../misc/lv_area.h **** }
 5401              		.loc 2 135 49 view .LVU2032
 5402 017c 0137     		adds	r7, r7, #1
ARM GAS  /var/folders/k2/cd9bl_j17z77g23y6ffqb_400000gn/T//cc0jKSMI.s 			page 154


 135:lvgl/src/draw/../misc/lv_area.h **** }
 5403              		.loc 2 135 12 view .LVU2033
 5404 017e 3FB2     		sxth	r7, r7
 5405              	.LVL492:
 135:lvgl/src/draw/../misc/lv_area.h **** }
 5406              		.loc 2 135 12 view .LVU2034
 5407              	.LBE332:
 5408              	.LBE331:
 456:lvgl/src/draw/lv_draw_rect.c **** 
 5409              		.loc 1 456 9 is_stmt 1 view .LVU2035
 456:lvgl/src/draw/lv_draw_rect.c **** 
 5410              		.loc 1 456 31 is_stmt 0 view .LVU2036
 5411 0180 3846     		mov	r0, r7
 5412 0182 FFF7FEFF 		bl	lv_mem_buf_get
 5413              	.LVL493:
 5414 0186 8146     		mov	r9, r0
 5415              	.LVL494:
 459:lvgl/src/draw/lv_draw_rect.c ****         lv_draw_mask_radius_param_t mask_rout_param;
 5416              		.loc 1 459 9 is_stmt 1 view .LVU2037
 460:lvgl/src/draw/lv_draw_rect.c ****         if(rout > 0) {
 5417              		.loc 1 460 9 view .LVU2038
 461:lvgl/src/draw/lv_draw_rect.c ****             lv_draw_mask_radius_init(&mask_rout_param, coords, rout, false);
 5418              		.loc 1 461 9 view .LVU2039
 461:lvgl/src/draw/lv_draw_rect.c ****             lv_draw_mask_radius_init(&mask_rout_param, coords, rout, false);
 5419              		.loc 1 461 11 is_stmt 0 view .LVU2040
 5420 0188 BAF1000F 		cmp	r10, #0
 5421 018c 48DC     		bgt	.L256
 459:lvgl/src/draw/lv_draw_rect.c ****         lv_draw_mask_radius_param_t mask_rout_param;
 5422              		.loc 1 459 17 view .LVU2041
 5423 018e 4FF0FF33 		mov	r3, #-1
 5424 0192 0793     		str	r3, [sp, #28]
 5425              	.LVL495:
 5426              	.L236:
 467:lvgl/src/draw/lv_draw_rect.c ****         if(rin < 0) rin = 0;
 5427              		.loc 1 467 9 is_stmt 1 view .LVU2042
 467:lvgl/src/draw/lv_draw_rect.c ****         if(rin < 0) rin = 0;
 5428              		.loc 1 467 33 is_stmt 0 view .LVU2043
 5429 0194 B4F92420 		ldrsh	r2, [r4, #36]
 5430              	.LVL496:
 468:lvgl/src/draw/lv_draw_rect.c ****         lv_draw_mask_radius_param_t mask_rin_param;
 5431              		.loc 1 468 9 is_stmt 1 view .LVU2044
 469:lvgl/src/draw/lv_draw_rect.c ****         lv_draw_mask_radius_init(&mask_rin_param, &area_inner, rout - dsc->border_width, true);
 5432              		.loc 1 469 9 view .LVU2045
 470:lvgl/src/draw/lv_draw_rect.c ****         int16_t mask_rin_id = lv_draw_mask_add(&mask_rin_param, NULL);
 5433              		.loc 1 470 9 view .LVU2046
 470:lvgl/src/draw/lv_draw_rect.c ****         int16_t mask_rin_id = lv_draw_mask_add(&mask_rin_param, NULL);
 5434              		.loc 1 470 74 is_stmt 0 view .LVU2047
 5435 0198 92B2     		uxth	r2, r2
 470:lvgl/src/draw/lv_draw_rect.c ****         int16_t mask_rin_id = lv_draw_mask_add(&mask_rin_param, NULL);
 5436              		.loc 1 470 69 view .LVU2048
 5437 019a AAEB0202 		sub	r2, r10, r2
 470:lvgl/src/draw/lv_draw_rect.c ****         int16_t mask_rin_id = lv_draw_mask_add(&mask_rin_param, NULL);
 5438              		.loc 1 470 9 view .LVU2049
 5439 019e 0123     		movs	r3, #1
 5440 01a0 12B2     		sxth	r2, r2
 5441 01a2 1CA9     		add	r1, sp, #112
 5442 01a4 15A8     		add	r0, sp, #84
ARM GAS  /var/folders/k2/cd9bl_j17z77g23y6ffqb_400000gn/T//cc0jKSMI.s 			page 155


 5443 01a6 FFF7FEFF 		bl	lv_draw_mask_radius_init
 5444              	.LVL497:
 471:lvgl/src/draw/lv_draw_rect.c **** 
 5445              		.loc 1 471 9 is_stmt 1 view .LVU2050
 471:lvgl/src/draw/lv_draw_rect.c **** 
 5446              		.loc 1 471 31 is_stmt 0 view .LVU2051
 5447 01aa 0021     		movs	r1, #0
 5448 01ac 15A8     		add	r0, sp, #84
 5449 01ae FFF7FEFF 		bl	lv_draw_mask_add
 5450              	.LVL498:
 5451 01b2 0690     		str	r0, [sp, #24]
 5452              	.LVL499:
 473:lvgl/src/draw/lv_draw_rect.c **** 
 5453              		.loc 1 473 9 is_stmt 1 view .LVU2052
 473:lvgl/src/draw/lv_draw_rect.c **** 
 5454              		.loc 1 473 31 is_stmt 0 view .LVU2053
 5455 01b4 B4F92430 		ldrsh	r3, [r4, #36]
 5456 01b8 5345     		cmp	r3, r10
 5457 01ba 01DD     		ble	.L237
 473:lvgl/src/draw/lv_draw_rect.c **** 
 5458              		.loc 1 473 31 discriminator 1 view .LVU2054
 5459 01bc 03F1FF3A 		add	r10, r3, #-1
 5460              	.LVL500:
 5461              	.L237:
 475:lvgl/src/draw/lv_draw_rect.c ****         lv_draw_mask_res_t mask_res;
 5462              		.loc 1 475 9 is_stmt 1 discriminator 4 view .LVU2055
 476:lvgl/src/draw/lv_draw_rect.c ****         lv_area_t fill_area;
 5463              		.loc 1 476 9 discriminator 4 view .LVU2056
 477:lvgl/src/draw/lv_draw_rect.c **** 
 5464              		.loc 1 477 9 discriminator 4 view .LVU2057
 479:lvgl/src/draw/lv_draw_rect.c ****         lv_blend_mode_t blend_mode = dsc->blend_mode;
 5465              		.loc 1 479 9 discriminator 4 view .LVU2058
 479:lvgl/src/draw/lv_draw_rect.c ****         lv_blend_mode_t blend_mode = dsc->blend_mode;
 5466              		.loc 1 479 20 is_stmt 0 discriminator 4 view .LVU2059
 5467 01c0 236A     		ldr	r3, [r4, #32]
 5468              	.LVL501:
 479:lvgl/src/draw/lv_draw_rect.c ****         lv_blend_mode_t blend_mode = dsc->blend_mode;
 5469              		.loc 1 479 20 discriminator 4 view .LVU2060
 5470 01c2 0593     		str	r3, [sp, #20]
 480:lvgl/src/draw/lv_draw_rect.c **** 
 5471              		.loc 1 480 9 is_stmt 1 discriminator 4 view .LVU2061
 480:lvgl/src/draw/lv_draw_rect.c **** 
 5472              		.loc 1 480 25 is_stmt 0 discriminator 4 view .LVU2062
 5473 01c4 94F802B0 		ldrb	fp, [r4, #2]	@ zero_extendqisi2
 5474              	.LVL502:
 482:lvgl/src/draw/lv_draw_rect.c ****         fill_area.x2 = coords->x2;
 5475              		.loc 1 482 9 is_stmt 1 discriminator 4 view .LVU2063
 482:lvgl/src/draw/lv_draw_rect.c ****         fill_area.x2 = coords->x2;
 5476              		.loc 1 482 30 is_stmt 0 discriminator 4 view .LVU2064
 5477 01c8 B5F90030 		ldrsh	r3, [r5]
 5478              	.LVL503:
 482:lvgl/src/draw/lv_draw_rect.c ****         fill_area.x2 = coords->x2;
 5479              		.loc 1 482 22 discriminator 4 view .LVU2065
 5480 01cc ADF83030 		strh	r3, [sp, #48]	@ movhi
 483:lvgl/src/draw/lv_draw_rect.c ****         fill_area.y1 = disp_area->y1 + draw_area.y1;
 5481              		.loc 1 483 9 is_stmt 1 discriminator 4 view .LVU2066
 483:lvgl/src/draw/lv_draw_rect.c ****         fill_area.y1 = disp_area->y1 + draw_area.y1;
ARM GAS  /var/folders/k2/cd9bl_j17z77g23y6ffqb_400000gn/T//cc0jKSMI.s 			page 156


 5482              		.loc 1 483 30 is_stmt 0 discriminator 4 view .LVU2067
 5483 01d0 B5F90430 		ldrsh	r3, [r5, #4]
 483:lvgl/src/draw/lv_draw_rect.c ****         fill_area.y1 = disp_area->y1 + draw_area.y1;
 5484              		.loc 1 483 22 discriminator 4 view .LVU2068
 5485 01d4 ADF83430 		strh	r3, [sp, #52]	@ movhi
 484:lvgl/src/draw/lv_draw_rect.c ****         fill_area.y2 = fill_area.y1;
 5486              		.loc 1 484 9 is_stmt 1 discriminator 4 view .LVU2069
 484:lvgl/src/draw/lv_draw_rect.c ****         fill_area.y2 = fill_area.y1;
 5487              		.loc 1 484 33 is_stmt 0 discriminator 4 view .LVU2070
 5488 01d8 B8F81230 		ldrh	r3, [r8, #18]
 484:lvgl/src/draw/lv_draw_rect.c ****         fill_area.y2 = fill_area.y1;
 5489              		.loc 1 484 49 discriminator 4 view .LVU2071
 5490 01dc BDF92A20 		ldrsh	r2, [sp, #42]
 484:lvgl/src/draw/lv_draw_rect.c ****         fill_area.y2 = fill_area.y1;
 5491              		.loc 1 484 38 discriminator 4 view .LVU2072
 5492 01e0 13FA82F3 		uxtah	r3, r3, r2
 5493 01e4 1BB2     		sxth	r3, r3
 484:lvgl/src/draw/lv_draw_rect.c ****         fill_area.y2 = fill_area.y1;
 5494              		.loc 1 484 22 discriminator 4 view .LVU2073
 5495 01e6 ADF83230 		strh	r3, [sp, #50]	@ movhi
 485:lvgl/src/draw/lv_draw_rect.c **** 
 5496              		.loc 1 485 9 is_stmt 1 discriminator 4 view .LVU2074
 485:lvgl/src/draw/lv_draw_rect.c **** 
 5497              		.loc 1 485 22 is_stmt 0 discriminator 4 view .LVU2075
 5498 01ea ADF83630 		strh	r3, [sp, #54]	@ movhi
 487:lvgl/src/draw/lv_draw_rect.c **** 
 5499              		.loc 1 487 9 is_stmt 1 discriminator 4 view .LVU2076
 487:lvgl/src/draw/lv_draw_rect.c **** 
 5500              		.loc 1 487 29 is_stmt 0 discriminator 4 view .LVU2077
 5501 01ee 94F82730 		ldrb	r3, [r4, #39]	@ zero_extendqisi2
 5502 01f2 03F03E03 		and	r3, r3, #62
 487:lvgl/src/draw/lv_draw_rect.c **** 
 5503              		.loc 1 487 11 discriminator 4 view .LVU2078
 5504 01f6 082B     		cmp	r3, #8
 5505 01f8 1FD0     		beq	.L257
 5506              	.L238:
 489:lvgl/src/draw/lv_draw_rect.c ****         volatile bool bottom_only = false;
 5507              		.loc 1 489 9 is_stmt 1 view .LVU2079
 489:lvgl/src/draw/lv_draw_rect.c ****         volatile bool bottom_only = false;
 5508              		.loc 1 489 23 is_stmt 0 view .LVU2080
 5509 01fa 0021     		movs	r1, #0
 5510 01fc 8DF82510 		strb	r1, [sp, #37]
 490:lvgl/src/draw/lv_draw_rect.c ****         if(dsc->border_side == LV_BORDER_SIDE_TOP) top_only = true;
 5511              		.loc 1 490 9 is_stmt 1 view .LVU2081
 490:lvgl/src/draw/lv_draw_rect.c ****         if(dsc->border_side == LV_BORDER_SIDE_TOP) top_only = true;
 5512              		.loc 1 490 23 is_stmt 0 view .LVU2082
 5513 0200 8DF82610 		strb	r1, [sp, #38]
 491:lvgl/src/draw/lv_draw_rect.c ****         if(dsc->border_side == LV_BORDER_SIDE_BOTTOM) bottom_only = true;
 5514              		.loc 1 491 9 is_stmt 1 view .LVU2083
 491:lvgl/src/draw/lv_draw_rect.c ****         if(dsc->border_side == LV_BORDER_SIDE_BOTTOM) bottom_only = true;
 5515              		.loc 1 491 11 is_stmt 0 view .LVU2084
 5516 0204 042B     		cmp	r3, #4
 5517 0206 1DD0     		beq	.L258
 5518              	.L239:
 492:lvgl/src/draw/lv_draw_rect.c ****         if(dsc->border_side == (LV_BORDER_SIDE_TOP | LV_BORDER_SIDE_BOTTOM)) {
 5519              		.loc 1 492 9 is_stmt 1 view .LVU2085
 492:lvgl/src/draw/lv_draw_rect.c ****         if(dsc->border_side == (LV_BORDER_SIDE_TOP | LV_BORDER_SIDE_BOTTOM)) {
ARM GAS  /var/folders/k2/cd9bl_j17z77g23y6ffqb_400000gn/T//cc0jKSMI.s 			page 157


 5520              		.loc 1 492 11 is_stmt 0 view .LVU2086
 5521 0208 022B     		cmp	r3, #2
 5522 020a 1FD0     		beq	.L259
 5523              	.L240:
 493:lvgl/src/draw/lv_draw_rect.c ****             top_only = true;
 5524              		.loc 1 493 9 is_stmt 1 view .LVU2087
 493:lvgl/src/draw/lv_draw_rect.c ****             top_only = true;
 5525              		.loc 1 493 11 is_stmt 0 view .LVU2088
 5526 020c 062B     		cmp	r3, #6
 5527 020e 21D0     		beq	.L260
 5528              	.L241:
 498:lvgl/src/draw/lv_draw_rect.c **** 
 5529              		.loc 1 498 9 is_stmt 1 view .LVU2089
 498:lvgl/src/draw/lv_draw_rect.c **** 
 5530              		.loc 1 498 32 is_stmt 0 view .LVU2090
 5531 0210 9DF82530 		ldrb	r3, [sp, #37]	@ zero_extendqisi2
 498:lvgl/src/draw/lv_draw_rect.c **** 
 5532              		.loc 1 498 65 view .LVU2091
 5533 0214 23BB     		cbnz	r3, .L251
 498:lvgl/src/draw/lv_draw_rect.c **** 
 5534              		.loc 1 498 45 discriminator 1 view .LVU2092
 5535 0216 9DF82630 		ldrb	r3, [sp, #38]	@ zero_extendqisi2
 498:lvgl/src/draw/lv_draw_rect.c **** 
 5536              		.loc 1 498 65 discriminator 1 view .LVU2093
 5537 021a 4BB3     		cbz	r3, .L252
 498:lvgl/src/draw/lv_draw_rect.c **** 
 5538              		.loc 1 498 65 view .LVU2094
 5539 021c 0023     		movs	r3, #0
 5540 021e 20E0     		b	.L242
 5541              	.LVL504:
 5542              	.L256:
 462:lvgl/src/draw/lv_draw_rect.c ****             mask_rout_id = lv_draw_mask_add(&mask_rout_param, NULL);
 5543              		.loc 1 462 13 is_stmt 1 view .LVU2095
 5544 0220 0023     		movs	r3, #0
 5545 0222 0FFA8AF2 		sxth	r2, r10
 5546 0226 2946     		mov	r1, r5
 5547 0228 0EA8     		add	r0, sp, #56
 5548              	.LVL505:
 462:lvgl/src/draw/lv_draw_rect.c ****             mask_rout_id = lv_draw_mask_add(&mask_rout_param, NULL);
 5549              		.loc 1 462 13 is_stmt 0 view .LVU2096
 5550 022a FFF7FEFF 		bl	lv_draw_mask_radius_init
 5551              	.LVL506:
 463:lvgl/src/draw/lv_draw_rect.c ****         }
 5552              		.loc 1 463 13 is_stmt 1 view .LVU2097
 463:lvgl/src/draw/lv_draw_rect.c ****         }
 5553              		.loc 1 463 28 is_stmt 0 view .LVU2098
 5554 022e 0021     		movs	r1, #0
 5555 0230 0EA8     		add	r0, sp, #56
 5556 0232 FFF7FEFF 		bl	lv_draw_mask_add
 5557              	.LVL507:
 5558 0236 0790     		str	r0, [sp, #28]
 5559              	.LVL508:
 463:lvgl/src/draw/lv_draw_rect.c ****         }
 5560              		.loc 1 463 28 view .LVU2099
 5561 0238 ACE7     		b	.L236
 5562              	.LVL509:
 5563              	.L257:
ARM GAS  /var/folders/k2/cd9bl_j17z77g23y6ffqb_400000gn/T//cc0jKSMI.s 			page 158


 487:lvgl/src/draw/lv_draw_rect.c **** 
 5564              		.loc 1 487 53 is_stmt 1 discriminator 1 view .LVU2100
 487:lvgl/src/draw/lv_draw_rect.c **** 
 5565              		.loc 1 487 74 is_stmt 0 discriminator 1 view .LVU2101
 5566 023a 2988     		ldrh	r1, [r5]
 487:lvgl/src/draw/lv_draw_rect.c **** 
 5567              		.loc 1 487 79 discriminator 1 view .LVU2102
 5568 023c 5144     		add	r1, r1, r10
 487:lvgl/src/draw/lv_draw_rect.c **** 
 5569              		.loc 1 487 66 discriminator 1 view .LVU2103
 5570 023e ADF83410 		strh	r1, [sp, #52]	@ movhi
 5571 0242 DAE7     		b	.L238
 5572              	.L258:
 491:lvgl/src/draw/lv_draw_rect.c ****         if(dsc->border_side == LV_BORDER_SIDE_BOTTOM) bottom_only = true;
 5573              		.loc 1 491 52 is_stmt 1 discriminator 1 view .LVU2104
 491:lvgl/src/draw/lv_draw_rect.c ****         if(dsc->border_side == LV_BORDER_SIDE_BOTTOM) bottom_only = true;
 5574              		.loc 1 491 61 is_stmt 0 discriminator 1 view .LVU2105
 5575 0244 0121     		movs	r1, #1
 5576 0246 8DF82510 		strb	r1, [sp, #37]
 5577 024a DDE7     		b	.L239
 5578              	.L259:
 492:lvgl/src/draw/lv_draw_rect.c ****         if(dsc->border_side == (LV_BORDER_SIDE_TOP | LV_BORDER_SIDE_BOTTOM)) {
 5579              		.loc 1 492 55 is_stmt 1 discriminator 1 view .LVU2106
 492:lvgl/src/draw/lv_draw_rect.c ****         if(dsc->border_side == (LV_BORDER_SIDE_TOP | LV_BORDER_SIDE_BOTTOM)) {
 5580              		.loc 1 492 67 is_stmt 0 discriminator 1 view .LVU2107
 5581 024c 0121     		movs	r1, #1
 5582 024e 8DF82610 		strb	r1, [sp, #38]
 5583 0252 DBE7     		b	.L240
 5584              	.L260:
 494:lvgl/src/draw/lv_draw_rect.c ****             bottom_only = true;
 5585              		.loc 1 494 13 is_stmt 1 view .LVU2108
 494:lvgl/src/draw/lv_draw_rect.c ****             bottom_only = true;
 5586              		.loc 1 494 22 is_stmt 0 view .LVU2109
 5587 0254 0123     		movs	r3, #1
 5588 0256 8DF82530 		strb	r3, [sp, #37]
 495:lvgl/src/draw/lv_draw_rect.c ****         }
 5589              		.loc 1 495 13 is_stmt 1 view .LVU2110
 495:lvgl/src/draw/lv_draw_rect.c ****         }
 5590              		.loc 1 495 25 is_stmt 0 view .LVU2111
 5591 025a 8DF82630 		strb	r3, [sp, #38]
 5592 025e D7E7     		b	.L241
 5593              	.L251:
 498:lvgl/src/draw/lv_draw_rect.c **** 
 5594              		.loc 1 498 65 view .LVU2112
 5595 0260 0023     		movs	r3, #0
 5596              	.L242:
 498:lvgl/src/draw/lv_draw_rect.c **** 
 5597              		.loc 1 498 23 discriminator 6 view .LVU2113
 5598 0262 8DF82730 		strb	r3, [sp, #39]
 500:lvgl/src/draw/lv_draw_rect.c ****             if(normal ||
 5599              		.loc 1 500 9 is_stmt 1 discriminator 6 view .LVU2114
 500:lvgl/src/draw/lv_draw_rect.c ****             if(normal ||
 5600              		.loc 1 500 15 is_stmt 0 discriminator 6 view .LVU2115
 5601 0266 1446     		mov	r4, r2
 5602              	.LVL510:
 500:lvgl/src/draw/lv_draw_rect.c ****             if(normal ||
 5603              		.loc 1 500 15 discriminator 6 view .LVU2116
ARM GAS  /var/folders/k2/cd9bl_j17z77g23y6ffqb_400000gn/T//cc0jKSMI.s 			page 159


 5604 0268 2B46     		mov	r3, r5
 5605 026a 5D46     		mov	r5, fp
 5606              	.LVL511:
 500:lvgl/src/draw/lv_draw_rect.c ****             if(normal ||
 5607              		.loc 1 500 15 discriminator 6 view .LVU2117
 5608 026c 9B46     		mov	fp, r3
 5609              	.LVL512:
 500:lvgl/src/draw/lv_draw_rect.c ****             if(normal ||
 5610              		.loc 1 500 9 discriminator 6 view .LVU2118
 5611 026e 27E0     		b	.L243
 5612              	.LVL513:
 5613              	.L252:
 498:lvgl/src/draw/lv_draw_rect.c **** 
 5614              		.loc 1 498 65 view .LVU2119
 5615 0270 0123     		movs	r3, #1
 5616 0272 F6E7     		b	.L242
 5617              	.LVL514:
 5618              	.L244:
 504:lvgl/src/draw/lv_draw_rect.c ****                 mask_res = lv_draw_mask_apply(mask_buf, draw_buf->area.x1 + draw_area.x1, draw_buf-
 5619              		.loc 1 504 17 is_stmt 1 view .LVU2120
 5620 0274 3946     		mov	r1, r7
 5621 0276 4846     		mov	r0, r9
 5622 0278 FFF7FEFF 		bl	lv_memset_ff
 5623              	.LVL515:
 505:lvgl/src/draw/lv_draw_rect.c ****                 _lv_blend_fill(clip, &fill_area, color, mask_buf, mask_res, opa, blend_mode);
 5624              		.loc 1 505 17 view .LVU2121
 505:lvgl/src/draw/lv_draw_rect.c ****                 _lv_blend_fill(clip, &fill_area, color, mask_buf, mask_res, opa, blend_mode);
 5625              		.loc 1 505 71 is_stmt 0 view .LVU2122
 5626 027c B8F81010 		ldrh	r1, [r8, #16]
 505:lvgl/src/draw/lv_draw_rect.c ****                 _lv_blend_fill(clip, &fill_area, color, mask_buf, mask_res, opa, blend_mode);
 5627              		.loc 1 505 86 view .LVU2123
 5628 0280 BDF82830 		ldrh	r3, [sp, #40]
 505:lvgl/src/draw/lv_draw_rect.c ****                 _lv_blend_fill(clip, &fill_area, color, mask_buf, mask_res, opa, blend_mode);
 5629              		.loc 1 505 75 view .LVU2124
 5630 0284 1944     		add	r1, r1, r3
 505:lvgl/src/draw/lv_draw_rect.c ****                 _lv_blend_fill(clip, &fill_area, color, mask_buf, mask_res, opa, blend_mode);
 5631              		.loc 1 505 105 view .LVU2125
 5632 0286 B8F81220 		ldrh	r2, [r8, #18]
 505:lvgl/src/draw/lv_draw_rect.c ****                 _lv_blend_fill(clip, &fill_area, color, mask_buf, mask_res, opa, blend_mode);
 5633              		.loc 1 505 109 view .LVU2126
 5634 028a 2244     		add	r2, r2, r4
 505:lvgl/src/draw/lv_draw_rect.c ****                 _lv_blend_fill(clip, &fill_area, color, mask_buf, mask_res, opa, blend_mode);
 5635              		.loc 1 505 28 view .LVU2127
 5636 028c 3B46     		mov	r3, r7
 5637 028e 12B2     		sxth	r2, r2
 5638 0290 09B2     		sxth	r1, r1
 5639 0292 4846     		mov	r0, r9
 5640 0294 FFF7FEFF 		bl	lv_draw_mask_apply
 5641              	.LVL516:
 506:lvgl/src/draw/lv_draw_rect.c ****             }
 5642              		.loc 1 506 17 is_stmt 1 view .LVU2128
 5643 0298 0295     		str	r5, [sp, #8]
 5644 029a 0196     		str	r6, [sp, #4]
 5645 029c 0090     		str	r0, [sp]
 5646 029e 4B46     		mov	r3, r9
 5647 02a0 059A     		ldr	r2, [sp, #20]
 5648 02a2 0CA9     		add	r1, sp, #48
ARM GAS  /var/folders/k2/cd9bl_j17z77g23y6ffqb_400000gn/T//cc0jKSMI.s 			page 160


 5649 02a4 0498     		ldr	r0, [sp, #16]
 5650              	.LVL517:
 506:lvgl/src/draw/lv_draw_rect.c ****             }
 5651              		.loc 1 506 17 is_stmt 0 view .LVU2129
 5652 02a6 FFF7FEFF 		bl	_lv_blend_fill
 5653              	.LVL518:
 5654              	.L246:
 508:lvgl/src/draw/lv_draw_rect.c ****             fill_area.y2++;
 5655              		.loc 1 508 13 is_stmt 1 discriminator 2 view .LVU2130
 508:lvgl/src/draw/lv_draw_rect.c ****             fill_area.y2++;
 5656              		.loc 1 508 22 is_stmt 0 discriminator 2 view .LVU2131
 5657 02aa BDF93230 		ldrsh	r3, [sp, #50]
 508:lvgl/src/draw/lv_draw_rect.c ****             fill_area.y2++;
 5658              		.loc 1 508 25 discriminator 2 view .LVU2132
 5659 02ae 0133     		adds	r3, r3, #1
 5660 02b0 ADF83230 		strh	r3, [sp, #50]	@ movhi
 509:lvgl/src/draw/lv_draw_rect.c **** 
 5661              		.loc 1 509 13 is_stmt 1 discriminator 2 view .LVU2133
 509:lvgl/src/draw/lv_draw_rect.c **** 
 5662              		.loc 1 509 22 is_stmt 0 discriminator 2 view .LVU2134
 5663 02b4 BDF93630 		ldrsh	r3, [sp, #54]
 509:lvgl/src/draw/lv_draw_rect.c **** 
 5664              		.loc 1 509 25 discriminator 2 view .LVU2135
 5665 02b8 0133     		adds	r3, r3, #1
 5666 02ba ADF83630 		strh	r3, [sp, #54]	@ movhi
 500:lvgl/src/draw/lv_draw_rect.c ****             if(normal ||
 5667              		.loc 1 500 50 is_stmt 1 discriminator 2 view .LVU2136
 500:lvgl/src/draw/lv_draw_rect.c ****             if(normal ||
 5668              		.loc 1 500 51 is_stmt 0 discriminator 2 view .LVU2137
 5669 02be 0134     		adds	r4, r4, #1
 5670              	.LVL519:
 5671              	.L243:
 500:lvgl/src/draw/lv_draw_rect.c ****             if(normal ||
 5672              		.loc 1 500 31 is_stmt 1 discriminator 1 view .LVU2138
 500:lvgl/src/draw/lv_draw_rect.c ****             if(normal ||
 5673              		.loc 1 500 45 is_stmt 0 discriminator 1 view .LVU2139
 5674 02c0 BDF92E30 		ldrsh	r3, [sp, #46]
 500:lvgl/src/draw/lv_draw_rect.c ****             if(normal ||
 5675              		.loc 1 500 9 discriminator 1 view .LVU2140
 5676 02c4 A342     		cmp	r3, r4
 5677 02c6 1ADB     		blt	.L261
 501:lvgl/src/draw/lv_draw_rect.c ****                (top_only && fill_area.y1 <= coords->y1 + corner_size) ||
 5678              		.loc 1 501 13 is_stmt 1 view .LVU2141
 501:lvgl/src/draw/lv_draw_rect.c ****                (top_only && fill_area.y1 <= coords->y1 + corner_size) ||
 5679              		.loc 1 501 16 is_stmt 0 view .LVU2142
 5680 02c8 9DF82730 		ldrb	r3, [sp, #39]	@ zero_extendqisi2
 501:lvgl/src/draw/lv_draw_rect.c ****                (top_only && fill_area.y1 <= coords->y1 + corner_size) ||
 5681              		.loc 1 501 15 view .LVU2143
 5682 02cc 002B     		cmp	r3, #0
 5683 02ce D1D1     		bne	.L244
 502:lvgl/src/draw/lv_draw_rect.c ****                (bottom_only && fill_area.y1 >= coords->y2 - corner_size)) {
 5684              		.loc 1 502 17 discriminator 1 view .LVU2144
 5685 02d0 9DF82530 		ldrb	r3, [sp, #37]	@ zero_extendqisi2
 501:lvgl/src/draw/lv_draw_rect.c ****                (top_only && fill_area.y1 <= coords->y1 + corner_size) ||
 5686              		.loc 1 501 23 discriminator 1 view .LVU2145
 5687 02d4 33B1     		cbz	r3, .L245
 502:lvgl/src/draw/lv_draw_rect.c ****                (bottom_only && fill_area.y1 >= coords->y2 - corner_size)) {
ARM GAS  /var/folders/k2/cd9bl_j17z77g23y6ffqb_400000gn/T//cc0jKSMI.s 			page 161


 5688              		.loc 1 502 38 view .LVU2146
 5689 02d6 BDF93220 		ldrsh	r2, [sp, #50]
 502:lvgl/src/draw/lv_draw_rect.c ****                (bottom_only && fill_area.y1 >= coords->y2 - corner_size)) {
 5690              		.loc 1 502 51 view .LVU2147
 5691 02da BBF90230 		ldrsh	r3, [fp, #2]
 502:lvgl/src/draw/lv_draw_rect.c ****                (bottom_only && fill_area.y1 >= coords->y2 - corner_size)) {
 5692              		.loc 1 502 56 view .LVU2148
 5693 02de 5344     		add	r3, r3, r10
 502:lvgl/src/draw/lv_draw_rect.c ****                (bottom_only && fill_area.y1 >= coords->y2 - corner_size)) {
 5694              		.loc 1 502 26 view .LVU2149
 5695 02e0 9A42     		cmp	r2, r3
 5696 02e2 C7DD     		ble	.L244
 5697              	.L245:
 503:lvgl/src/draw/lv_draw_rect.c ****                 lv_memset_ff(mask_buf, draw_area_w);
 5698              		.loc 1 503 17 discriminator 1 view .LVU2150
 5699 02e4 9DF82630 		ldrb	r3, [sp, #38]	@ zero_extendqisi2
 502:lvgl/src/draw/lv_draw_rect.c ****                (bottom_only && fill_area.y1 >= coords->y2 - corner_size)) {
 5700              		.loc 1 502 71 discriminator 1 view .LVU2151
 5701 02e8 002B     		cmp	r3, #0
 5702 02ea DED0     		beq	.L246
 503:lvgl/src/draw/lv_draw_rect.c ****                 lv_memset_ff(mask_buf, draw_area_w);
 5703              		.loc 1 503 41 view .LVU2152
 5704 02ec BDF93220 		ldrsh	r2, [sp, #50]
 503:lvgl/src/draw/lv_draw_rect.c ****                 lv_memset_ff(mask_buf, draw_area_w);
 5705              		.loc 1 503 54 view .LVU2153
 5706 02f0 BBF90630 		ldrsh	r3, [fp, #6]
 503:lvgl/src/draw/lv_draw_rect.c ****                 lv_memset_ff(mask_buf, draw_area_w);
 5707              		.loc 1 503 59 view .LVU2154
 5708 02f4 A3EB0A03 		sub	r3, r3, r10
 503:lvgl/src/draw/lv_draw_rect.c ****                 lv_memset_ff(mask_buf, draw_area_w);
 5709              		.loc 1 503 29 view .LVU2155
 5710 02f8 9A42     		cmp	r2, r3
 5711 02fa D6DB     		blt	.L246
 5712 02fc BAE7     		b	.L244
 5713              	.L261:
 512:lvgl/src/draw/lv_draw_rect.c ****         lv_draw_mask_remove_id(mask_rout_id);
 5714              		.loc 1 512 9 is_stmt 1 view .LVU2156
 5715 02fe 0698     		ldr	r0, [sp, #24]
 5716 0300 FFF7FEFF 		bl	lv_draw_mask_remove_id
 5717              	.LVL520:
 513:lvgl/src/draw/lv_draw_rect.c ****         lv_mem_buf_release(mask_buf);
 5718              		.loc 1 513 9 view .LVU2157
 5719 0304 0798     		ldr	r0, [sp, #28]
 5720 0306 FFF7FEFF 		bl	lv_draw_mask_remove_id
 5721              	.LVL521:
 514:lvgl/src/draw/lv_draw_rect.c ****     }
 5722              		.loc 1 514 9 view .LVU2158
 5723 030a 4846     		mov	r0, r9
 5724 030c FFF7FEFF 		bl	lv_mem_buf_release
 5725              	.LVL522:
 5726 0310 EEE6     		b	.L221
 5727              	.LBE333:
 5728              		.cfi_endproc
 5729              	.LFE151:
 5731              		.section	.text.draw_bg_img,"ax",%progbits
 5732              		.align	1
 5733              		.syntax unified
ARM GAS  /var/folders/k2/cd9bl_j17z77g23y6ffqb_400000gn/T//cc0jKSMI.s 			page 162


 5734              		.thumb
 5735              		.thumb_func
 5736              		.fpu fpv4-sp-d16
 5738              	draw_bg_img:
 5739              	.LVL523:
 5740              	.LFB150:
 339:lvgl/src/draw/lv_draw_rect.c ****     if(dsc->bg_img_src == NULL) return;
 5741              		.loc 1 339 1 view -0
 5742              		.cfi_startproc
 5743              		@ args = 0, pretend = 0, frame = 48
 5744              		@ frame_needed = 0, uses_anonymous_args = 0
 339:lvgl/src/draw/lv_draw_rect.c ****     if(dsc->bg_img_src == NULL) return;
 5745              		.loc 1 339 1 is_stmt 0 view .LVU2160
 5746 0000 F0B5     		push	{r4, r5, r6, r7, lr}
 5747              	.LCFI21:
 5748              		.cfi_def_cfa_offset 20
 5749              		.cfi_offset 4, -20
 5750              		.cfi_offset 5, -16
 5751              		.cfi_offset 6, -12
 5752              		.cfi_offset 7, -8
 5753              		.cfi_offset 14, -4
 5754 0002 91B0     		sub	sp, sp, #68
 5755              	.LCFI22:
 5756              		.cfi_def_cfa_offset 88
 5757 0004 0546     		mov	r5, r0
 340:lvgl/src/draw/lv_draw_rect.c ****     if(dsc->bg_img_opa <= LV_OPA_MIN) return;
 5758              		.loc 1 340 5 is_stmt 1 view .LVU2161
 340:lvgl/src/draw/lv_draw_rect.c ****     if(dsc->bg_img_opa <= LV_OPA_MIN) return;
 5759              		.loc 1 340 11 is_stmt 0 view .LVU2162
 5760 0006 1069     		ldr	r0, [r2, #16]
 5761              	.LVL524:
 340:lvgl/src/draw/lv_draw_rect.c ****     if(dsc->bg_img_opa <= LV_OPA_MIN) return;
 5762              		.loc 1 340 7 view .LVU2163
 5763 0008 20B1     		cbz	r0, .L262
 5764 000a 0E46     		mov	r6, r1
 5765 000c 1446     		mov	r4, r2
 341:lvgl/src/draw/lv_draw_rect.c **** 
 5766              		.loc 1 341 5 is_stmt 1 view .LVU2164
 341:lvgl/src/draw/lv_draw_rect.c **** 
 5767              		.loc 1 341 11 is_stmt 0 view .LVU2165
 5768 000e 137F     		ldrb	r3, [r2, #28]	@ zero_extendqisi2
 341:lvgl/src/draw/lv_draw_rect.c **** 
 5769              		.loc 1 341 7 view .LVU2166
 5770 0010 022B     		cmp	r3, #2
 5771 0012 01D8     		bhi	.L273
 5772              	.LVL525:
 5773              	.L262:
 399:lvgl/src/draw/lv_draw_rect.c **** 
 5774              		.loc 1 399 1 view .LVU2167
 5775 0014 11B0     		add	sp, sp, #68
 5776              	.LCFI23:
 5777              		.cfi_remember_state
 5778              		.cfi_def_cfa_offset 20
 5779              		@ sp needed
 5780 0016 F0BD     		pop	{r4, r5, r6, r7, pc}
 5781              	.LVL526:
 5782              	.L273:
ARM GAS  /var/folders/k2/cd9bl_j17z77g23y6ffqb_400000gn/T//cc0jKSMI.s 			page 163


 5783              	.LCFI24:
 5784              		.cfi_restore_state
 343:lvgl/src/draw/lv_draw_rect.c ****     if(src_type == LV_IMG_SRC_SYMBOL) {
 5785              		.loc 1 343 5 is_stmt 1 view .LVU2168
 343:lvgl/src/draw/lv_draw_rect.c ****     if(src_type == LV_IMG_SRC_SYMBOL) {
 5786              		.loc 1 343 29 is_stmt 0 view .LVU2169
 5787 0018 FFF7FEFF 		bl	lv_img_src_get_type
 5788              	.LVL527:
 344:lvgl/src/draw/lv_draw_rect.c ****         lv_point_t size;
 5789              		.loc 1 344 5 is_stmt 1 view .LVU2170
 344:lvgl/src/draw/lv_draw_rect.c ****         lv_point_t size;
 5790              		.loc 1 344 7 is_stmt 0 view .LVU2171
 5791 001c 0228     		cmp	r0, #2
 5792 001e 29D0     		beq	.L274
 5793              	.LBB334:
 361:lvgl/src/draw/lv_draw_rect.c ****         lv_res_t res = lv_img_decoder_get_info(dsc->bg_img_src, &header);
 5794              		.loc 1 361 9 is_stmt 1 view .LVU2172
 362:lvgl/src/draw/lv_draw_rect.c ****         if(res != LV_RES_OK) {
 5795              		.loc 1 362 9 view .LVU2173
 362:lvgl/src/draw/lv_draw_rect.c ****         if(res != LV_RES_OK) {
 5796              		.loc 1 362 24 is_stmt 0 view .LVU2174
 5797 0020 04A9     		add	r1, sp, #16
 5798 0022 2069     		ldr	r0, [r4, #16]
 5799              	.LVL528:
 362:lvgl/src/draw/lv_draw_rect.c ****         if(res != LV_RES_OK) {
 5800              		.loc 1 362 24 view .LVU2175
 5801 0024 FFF7FEFF 		bl	lv_img_decoder_get_info
 5802              	.LVL529:
 363:lvgl/src/draw/lv_draw_rect.c ****             LV_LOG_WARN("Coudn't read the background image");
 5803              		.loc 1 363 9 is_stmt 1 view .LVU2176
 363:lvgl/src/draw/lv_draw_rect.c ****             LV_LOG_WARN("Coudn't read the background image");
 5804              		.loc 1 363 11 is_stmt 0 view .LVU2177
 5805 0028 0128     		cmp	r0, #1
 5806 002a F3D1     		bne	.L262
 368:lvgl/src/draw/lv_draw_rect.c ****         lv_draw_img_dsc_init(&img_dsc);
 5807              		.loc 1 368 9 is_stmt 1 view .LVU2178
 369:lvgl/src/draw/lv_draw_rect.c ****         img_dsc.blend_mode = dsc->blend_mode;
 5808              		.loc 1 369 9 view .LVU2179
 5809 002c 07A8     		add	r0, sp, #28
 5810              	.LVL530:
 369:lvgl/src/draw/lv_draw_rect.c ****         img_dsc.blend_mode = dsc->blend_mode;
 5811              		.loc 1 369 9 is_stmt 0 view .LVU2180
 5812 002e FFF7FEFF 		bl	lv_draw_img_dsc_init
 5813              	.LVL531:
 370:lvgl/src/draw/lv_draw_rect.c ****         img_dsc.recolor = dsc->bg_img_recolor;
 5814              		.loc 1 370 9 is_stmt 1 view .LVU2181
 370:lvgl/src/draw/lv_draw_rect.c ****         img_dsc.recolor = dsc->bg_img_recolor;
 5815              		.loc 1 370 33 is_stmt 0 view .LVU2182
 5816 0032 A278     		ldrb	r2, [r4, #2]	@ zero_extendqisi2
 370:lvgl/src/draw/lv_draw_rect.c ****         img_dsc.recolor = dsc->bg_img_recolor;
 5817              		.loc 1 370 28 view .LVU2183
 5818 0034 9DF82A30 		ldrb	r3, [sp, #42]	@ zero_extendqisi2
 5819 0038 62F30303 		bfi	r3, r2, #0, #4
 5820 003c 8DF82A30 		strb	r3, [sp, #42]
 371:lvgl/src/draw/lv_draw_rect.c ****         img_dsc.recolor_opa = dsc->bg_img_recolor_opa;
 5821              		.loc 1 371 9 is_stmt 1 view .LVU2184
 371:lvgl/src/draw/lv_draw_rect.c ****         img_dsc.recolor_opa = dsc->bg_img_recolor_opa;
ARM GAS  /var/folders/k2/cd9bl_j17z77g23y6ffqb_400000gn/T//cc0jKSMI.s 			page 164


 5822              		.loc 1 371 25 is_stmt 0 view .LVU2185
 5823 0040 A369     		ldr	r3, [r4, #24]
 5824 0042 0993     		str	r3, [sp, #36]
 372:lvgl/src/draw/lv_draw_rect.c ****         img_dsc.opa = dsc->bg_img_opa;
 5825              		.loc 1 372 9 is_stmt 1 view .LVU2186
 372:lvgl/src/draw/lv_draw_rect.c ****         img_dsc.opa = dsc->bg_img_opa;
 5826              		.loc 1 372 34 is_stmt 0 view .LVU2187
 5827 0044 637F     		ldrb	r3, [r4, #29]	@ zero_extendqisi2
 372:lvgl/src/draw/lv_draw_rect.c ****         img_dsc.opa = dsc->bg_img_opa;
 5828              		.loc 1 372 29 view .LVU2188
 5829 0046 8DF82830 		strb	r3, [sp, #40]
 373:lvgl/src/draw/lv_draw_rect.c **** 
 5830              		.loc 1 373 9 is_stmt 1 view .LVU2189
 373:lvgl/src/draw/lv_draw_rect.c **** 
 5831              		.loc 1 373 26 is_stmt 0 view .LVU2190
 5832 004a 237F     		ldrb	r3, [r4, #28]	@ zero_extendqisi2
 373:lvgl/src/draw/lv_draw_rect.c **** 
 5833              		.loc 1 373 21 view .LVU2191
 5834 004c 8DF82930 		strb	r3, [sp, #41]
 376:lvgl/src/draw/lv_draw_rect.c ****             lv_area_t area;
 5835              		.loc 1 376 9 is_stmt 1 view .LVU2192
 376:lvgl/src/draw/lv_draw_rect.c ****             lv_area_t area;
 5836              		.loc 1 376 15 is_stmt 0 view .LVU2193
 5837 0050 A37F     		ldrb	r3, [r4, #30]	@ zero_extendqisi2
 376:lvgl/src/draw/lv_draw_rect.c ****             lv_area_t area;
 5838              		.loc 1 376 11 view .LVU2194
 5839 0052 002B     		cmp	r3, #0
 5840 0054 62D0     		beq	.L275
 5841              	.LBB335:
 385:lvgl/src/draw/lv_draw_rect.c ****             area.y1 = coords->y1;
 5842              		.loc 1 385 13 is_stmt 1 view .LVU2195
 386:lvgl/src/draw/lv_draw_rect.c ****             area.y2 = area.y1 + header.h - 1;
 5843              		.loc 1 386 13 view .LVU2196
 386:lvgl/src/draw/lv_draw_rect.c ****             area.y2 = area.y1 + header.h - 1;
 5844              		.loc 1 386 29 is_stmt 0 view .LVU2197
 5845 0056 B5F90230 		ldrsh	r3, [r5, #2]
 386:lvgl/src/draw/lv_draw_rect.c ****             area.y2 = area.y1 + header.h - 1;
 5846              		.loc 1 386 21 view .LVU2198
 5847 005a ADF81630 		strh	r3, [sp, #22]	@ movhi
 387:lvgl/src/draw/lv_draw_rect.c **** 
 5848              		.loc 1 387 13 is_stmt 1 view .LVU2199
 387:lvgl/src/draw/lv_draw_rect.c **** 
 5849              		.loc 1 387 39 is_stmt 0 view .LVU2200
 5850 005e BDF81220 		ldrh	r2, [sp, #18]
 5851 0062 C2F34A12 		ubfx	r2, r2, #5, #11
 387:lvgl/src/draw/lv_draw_rect.c **** 
 5852              		.loc 1 387 31 view .LVU2201
 5853 0066 12FA83F3 		uxtah	r3, r2, r3
 5854 006a 9BB2     		uxth	r3, r3
 387:lvgl/src/draw/lv_draw_rect.c **** 
 5855              		.loc 1 387 42 view .LVU2202
 5856 006c 013B     		subs	r3, r3, #1
 387:lvgl/src/draw/lv_draw_rect.c **** 
 5857              		.loc 1 387 21 view .LVU2203
 5858 006e ADF81A30 		strh	r3, [sp, #26]	@ movhi
 389:lvgl/src/draw/lv_draw_rect.c **** 
 5859              		.loc 1 389 13 is_stmt 1 view .LVU2204
ARM GAS  /var/folders/k2/cd9bl_j17z77g23y6ffqb_400000gn/T//cc0jKSMI.s 			page 165


 5860 0072 B8E0     		b	.L268
 5861              	.LVL532:
 5862              	.L274:
 389:lvgl/src/draw/lv_draw_rect.c **** 
 5863              		.loc 1 389 13 is_stmt 0 view .LVU2205
 5864              	.LBE335:
 5865              	.LBE334:
 5866              	.LBB342:
 345:lvgl/src/draw/lv_draw_rect.c ****         lv_txt_get_size(&size, dsc->bg_img_src, dsc->bg_img_symbol_font, 0, 0, LV_COORD_MAX, LV_TEX
 5867              		.loc 1 345 9 is_stmt 1 view .LVU2206
 346:lvgl/src/draw/lv_draw_rect.c ****         lv_area_t a;
 5868              		.loc 1 346 9 view .LVU2207
 5869 0074 0027     		movs	r7, #0
 5870 0076 0297     		str	r7, [sp, #8]
 5871 0078 4FF4C043 		mov	r3, #24576
 5872 007c 0193     		str	r3, [sp, #4]
 5873 007e 0097     		str	r7, [sp]
 5874 0080 3B46     		mov	r3, r7
 5875 0082 6269     		ldr	r2, [r4, #20]
 5876 0084 2169     		ldr	r1, [r4, #16]
 5877 0086 04A8     		add	r0, sp, #16
 5878              	.LVL533:
 346:lvgl/src/draw/lv_draw_rect.c ****         lv_area_t a;
 5879              		.loc 1 346 9 is_stmt 0 view .LVU2208
 5880 0088 FFF7FEFF 		bl	lv_txt_get_size
 5881              	.LVL534:
 347:lvgl/src/draw/lv_draw_rect.c ****         a.x1 = coords->x1 + lv_area_get_width(coords) / 2 - size.x / 2;
 5882              		.loc 1 347 9 is_stmt 1 view .LVU2209
 348:lvgl/src/draw/lv_draw_rect.c ****         a.x2 = a.x1 + size.x - 1;
 5883              		.loc 1 348 9 view .LVU2210
 348:lvgl/src/draw/lv_draw_rect.c ****         a.x2 = a.x1 + size.x - 1;
 5884              		.loc 1 348 22 is_stmt 0 view .LVU2211
 5885 008c 2B88     		ldrh	r3, [r5]
 5886              	.LVL535:
 5887              	.LBB343:
 5888              	.LBI343:
 133:lvgl/src/draw/../misc/lv_area.h **** {
 5889              		.loc 2 133 26 is_stmt 1 view .LVU2212
 5890              	.LBB344:
 135:lvgl/src/draw/../misc/lv_area.h **** }
 5891              		.loc 2 135 5 view .LVU2213
 135:lvgl/src/draw/../misc/lv_area.h **** }
 5892              		.loc 2 135 31 is_stmt 0 view .LVU2214
 5893 008e AA88     		ldrh	r2, [r5, #4]
 135:lvgl/src/draw/../misc/lv_area.h **** }
 5894              		.loc 2 135 36 view .LVU2215
 5895 0090 D21A     		subs	r2, r2, r3
 5896 0092 92B2     		uxth	r2, r2
 135:lvgl/src/draw/../misc/lv_area.h **** }
 5897              		.loc 2 135 49 view .LVU2216
 5898 0094 0132     		adds	r2, r2, #1
 5899              	.LVL536:
 135:lvgl/src/draw/../misc/lv_area.h **** }
 5900              		.loc 2 135 49 view .LVU2217
 5901              	.LBE344:
 5902              	.LBE343:
 348:lvgl/src/draw/lv_draw_rect.c ****         a.x2 = a.x1 + size.x - 1;
ARM GAS  /var/folders/k2/cd9bl_j17z77g23y6ffqb_400000gn/T//cc0jKSMI.s 			page 166


 5903              		.loc 1 348 27 view .LVU2218
 5904 0096 C2F3C031 		ubfx	r1, r2, #15, #1
 5905 009a 01FA82F2 		sxtah	r2, r1, r2
 5906 009e 03EB6203 		add	r3, r3, r2, asr #1
 5907 00a2 9BB2     		uxth	r3, r3
 348:lvgl/src/draw/lv_draw_rect.c ****         a.x2 = a.x1 + size.x - 1;
 5908              		.loc 1 348 65 view .LVU2219
 5909 00a4 BDF91020 		ldrsh	r2, [sp, #16]
 348:lvgl/src/draw/lv_draw_rect.c ****         a.x2 = a.x1 + size.x - 1;
 5910              		.loc 1 348 59 view .LVU2220
 5911 00a8 02EBD271 		add	r1, r2, r2, lsr #31
 5912 00ac A3EB6103 		sub	r3, r3, r1, asr #1
 348:lvgl/src/draw/lv_draw_rect.c ****         a.x2 = a.x1 + size.x - 1;
 5913              		.loc 1 348 14 view .LVU2221
 5914 00b0 ADF81430 		strh	r3, [sp, #20]	@ movhi
 349:lvgl/src/draw/lv_draw_rect.c ****         a.y1 = coords->y1 + lv_area_get_height(coords) / 2 - size.y / 2;
 5915              		.loc 1 349 9 is_stmt 1 view .LVU2222
 349:lvgl/src/draw/lv_draw_rect.c ****         a.y1 = coords->y1 + lv_area_get_height(coords) / 2 - size.y / 2;
 5916              		.loc 1 349 27 is_stmt 0 view .LVU2223
 5917 00b4 92B2     		uxth	r2, r2
 349:lvgl/src/draw/lv_draw_rect.c ****         a.y1 = coords->y1 + lv_area_get_height(coords) / 2 - size.y / 2;
 5918              		.loc 1 349 21 view .LVU2224
 5919 00b6 12FA83F3 		uxtah	r3, r2, r3
 5920 00ba 9BB2     		uxth	r3, r3
 349:lvgl/src/draw/lv_draw_rect.c ****         a.y1 = coords->y1 + lv_area_get_height(coords) / 2 - size.y / 2;
 5921              		.loc 1 349 30 view .LVU2225
 5922 00bc 013B     		subs	r3, r3, #1
 349:lvgl/src/draw/lv_draw_rect.c ****         a.y1 = coords->y1 + lv_area_get_height(coords) / 2 - size.y / 2;
 5923              		.loc 1 349 14 view .LVU2226
 5924 00be ADF81830 		strh	r3, [sp, #24]	@ movhi
 350:lvgl/src/draw/lv_draw_rect.c ****         a.y2 = a.y1 + size.y - 1;
 5925              		.loc 1 350 9 is_stmt 1 view .LVU2227
 350:lvgl/src/draw/lv_draw_rect.c ****         a.y2 = a.y1 + size.y - 1;
 5926              		.loc 1 350 22 is_stmt 0 view .LVU2228
 5927 00c2 6B88     		ldrh	r3, [r5, #2]
 5928              	.LVL537:
 5929              	.LBB345:
 5930              	.LBI345:
 143:lvgl/src/draw/../misc/lv_area.h **** {
 5931              		.loc 2 143 26 is_stmt 1 view .LVU2229
 5932              	.LBB346:
 5933              		.loc 2 145 5 view .LVU2230
 5934              		.loc 2 145 31 is_stmt 0 view .LVU2231
 5935 00c4 EA88     		ldrh	r2, [r5, #6]
 5936              		.loc 2 145 36 view .LVU2232
 5937 00c6 D21A     		subs	r2, r2, r3
 5938 00c8 92B2     		uxth	r2, r2
 5939              		.loc 2 145 49 view .LVU2233
 5940 00ca 0132     		adds	r2, r2, #1
 5941              	.LVL538:
 5942              		.loc 2 145 49 view .LVU2234
 5943              	.LBE346:
 5944              	.LBE345:
 350:lvgl/src/draw/lv_draw_rect.c ****         a.y2 = a.y1 + size.y - 1;
 5945              		.loc 1 350 27 view .LVU2235
 5946 00cc C2F3C031 		ubfx	r1, r2, #15, #1
 5947 00d0 01FA82F2 		sxtah	r2, r1, r2
ARM GAS  /var/folders/k2/cd9bl_j17z77g23y6ffqb_400000gn/T//cc0jKSMI.s 			page 167


 5948 00d4 03EB6203 		add	r3, r3, r2, asr #1
 5949 00d8 9BB2     		uxth	r3, r3
 350:lvgl/src/draw/lv_draw_rect.c ****         a.y2 = a.y1 + size.y - 1;
 5950              		.loc 1 350 66 view .LVU2236
 5951 00da BDF91220 		ldrsh	r2, [sp, #18]
 350:lvgl/src/draw/lv_draw_rect.c ****         a.y2 = a.y1 + size.y - 1;
 5952              		.loc 1 350 60 view .LVU2237
 5953 00de 02EBD271 		add	r1, r2, r2, lsr #31
 5954 00e2 A3EB6103 		sub	r3, r3, r1, asr #1
 350:lvgl/src/draw/lv_draw_rect.c ****         a.y2 = a.y1 + size.y - 1;
 5955              		.loc 1 350 14 view .LVU2238
 5956 00e6 ADF81630 		strh	r3, [sp, #22]	@ movhi
 351:lvgl/src/draw/lv_draw_rect.c **** 
 5957              		.loc 1 351 9 is_stmt 1 view .LVU2239
 351:lvgl/src/draw/lv_draw_rect.c **** 
 5958              		.loc 1 351 27 is_stmt 0 view .LVU2240
 5959 00ea 92B2     		uxth	r2, r2
 351:lvgl/src/draw/lv_draw_rect.c **** 
 5960              		.loc 1 351 21 view .LVU2241
 5961 00ec 12FA83F3 		uxtah	r3, r2, r3
 5962 00f0 9BB2     		uxth	r3, r3
 351:lvgl/src/draw/lv_draw_rect.c **** 
 5963              		.loc 1 351 30 view .LVU2242
 5964 00f2 013B     		subs	r3, r3, #1
 351:lvgl/src/draw/lv_draw_rect.c **** 
 5965              		.loc 1 351 14 view .LVU2243
 5966 00f4 ADF81A30 		strh	r3, [sp, #26]	@ movhi
 353:lvgl/src/draw/lv_draw_rect.c ****         lv_draw_label_dsc_init(&label_draw_dsc);
 5967              		.loc 1 353 9 is_stmt 1 view .LVU2244
 354:lvgl/src/draw/lv_draw_rect.c ****         label_draw_dsc.font = dsc->bg_img_symbol_font;
 5968              		.loc 1 354 9 view .LVU2245
 5969 00f8 07A8     		add	r0, sp, #28
 5970 00fa FFF7FEFF 		bl	lv_draw_label_dsc_init
 5971              	.LVL539:
 355:lvgl/src/draw/lv_draw_rect.c ****         label_draw_dsc.color = dsc->bg_img_recolor;
 5972              		.loc 1 355 9 view .LVU2246
 355:lvgl/src/draw/lv_draw_rect.c ****         label_draw_dsc.color = dsc->bg_img_recolor;
 5973              		.loc 1 355 34 is_stmt 0 view .LVU2247
 5974 00fe 6369     		ldr	r3, [r4, #20]
 355:lvgl/src/draw/lv_draw_rect.c ****         label_draw_dsc.color = dsc->bg_img_recolor;
 5975              		.loc 1 355 29 view .LVU2248
 5976 0100 0793     		str	r3, [sp, #28]
 356:lvgl/src/draw/lv_draw_rect.c ****         label_draw_dsc.opa = dsc->bg_img_opa;
 5977              		.loc 1 356 9 is_stmt 1 view .LVU2249
 356:lvgl/src/draw/lv_draw_rect.c ****         label_draw_dsc.opa = dsc->bg_img_opa;
 5978              		.loc 1 356 30 is_stmt 0 view .LVU2250
 5979 0102 A369     		ldr	r3, [r4, #24]
 5980 0104 0A93     		str	r3, [sp, #40]
 357:lvgl/src/draw/lv_draw_rect.c ****         lv_draw_label(&a, clip, &label_draw_dsc, dsc->bg_img_src, NULL);
 5981              		.loc 1 357 9 is_stmt 1 view .LVU2251
 357:lvgl/src/draw/lv_draw_rect.c ****         lv_draw_label(&a, clip, &label_draw_dsc, dsc->bg_img_src, NULL);
 5982              		.loc 1 357 33 is_stmt 0 view .LVU2252
 5983 0106 237F     		ldrb	r3, [r4, #28]	@ zero_extendqisi2
 357:lvgl/src/draw/lv_draw_rect.c ****         lv_draw_label(&a, clip, &label_draw_dsc, dsc->bg_img_src, NULL);
 5984              		.loc 1 357 28 view .LVU2253
 5985 0108 8DF83C30 		strb	r3, [sp, #60]
 358:lvgl/src/draw/lv_draw_rect.c ****     }
ARM GAS  /var/folders/k2/cd9bl_j17z77g23y6ffqb_400000gn/T//cc0jKSMI.s 			page 168


 5986              		.loc 1 358 9 is_stmt 1 view .LVU2254
 5987 010c 0097     		str	r7, [sp]
 5988 010e 2369     		ldr	r3, [r4, #16]
 5989 0110 07AA     		add	r2, sp, #28
 5990 0112 3146     		mov	r1, r6
 5991 0114 05A8     		add	r0, sp, #20
 5992 0116 FFF7FEFF 		bl	lv_draw_label
 5993              	.LVL540:
 5994              	.LBE342:
 5995 011a 7BE7     		b	.L262
 5996              	.L275:
 5997              	.LBB347:
 5998              	.LBB336:
 377:lvgl/src/draw/lv_draw_rect.c ****             area.x1 = coords->x1 + lv_area_get_width(coords) / 2 - header.w / 2;
 5999              		.loc 1 377 13 view .LVU2255
 378:lvgl/src/draw/lv_draw_rect.c ****             area.y1 = coords->y1 + lv_area_get_height(coords) / 2 - header.h / 2;
 6000              		.loc 1 378 13 view .LVU2256
 378:lvgl/src/draw/lv_draw_rect.c ****             area.y1 = coords->y1 + lv_area_get_height(coords) / 2 - header.h / 2;
 6001              		.loc 1 378 29 is_stmt 0 view .LVU2257
 6002 011c 2A88     		ldrh	r2, [r5]
 6003              	.LVL541:
 6004              	.LBB337:
 6005              	.LBI337:
 133:lvgl/src/draw/../misc/lv_area.h **** {
 6006              		.loc 2 133 26 is_stmt 1 view .LVU2258
 6007              	.LBB338:
 135:lvgl/src/draw/../misc/lv_area.h **** }
 6008              		.loc 2 135 5 view .LVU2259
 135:lvgl/src/draw/../misc/lv_area.h **** }
 6009              		.loc 2 135 31 is_stmt 0 view .LVU2260
 6010 011e AB88     		ldrh	r3, [r5, #4]
 135:lvgl/src/draw/../misc/lv_area.h **** }
 6011              		.loc 2 135 36 view .LVU2261
 6012 0120 9B1A     		subs	r3, r3, r2
 6013 0122 9BB2     		uxth	r3, r3
 135:lvgl/src/draw/../misc/lv_area.h **** }
 6014              		.loc 2 135 49 view .LVU2262
 6015 0124 0133     		adds	r3, r3, #1
 6016              	.LVL542:
 135:lvgl/src/draw/../misc/lv_area.h **** }
 6017              		.loc 2 135 49 view .LVU2263
 6018              	.LBE338:
 6019              	.LBE337:
 378:lvgl/src/draw/lv_draw_rect.c ****             area.y1 = coords->y1 + lv_area_get_height(coords) / 2 - header.h / 2;
 6020              		.loc 1 378 34 view .LVU2264
 6021 0126 C3F3C031 		ubfx	r1, r3, #15, #1
 6022 012a 01FA83F3 		sxtah	r3, r1, r3
 6023 012e 02EB6302 		add	r2, r2, r3, asr #1
 378:lvgl/src/draw/lv_draw_rect.c ****             area.y1 = coords->y1 + lv_area_get_height(coords) / 2 - header.h / 2;
 6024              		.loc 1 378 74 view .LVU2265
 6025 0132 049B     		ldr	r3, [sp, #16]
 6026 0134 C3F38A20 		ubfx	r0, r3, #10, #11
 378:lvgl/src/draw/lv_draw_rect.c ****             area.y1 = coords->y1 + lv_area_get_height(coords) / 2 - header.h / 2;
 6027              		.loc 1 378 77 view .LVU2266
 6028 0138 C3F3C923 		ubfx	r3, r3, #11, #10
 6029 013c 5B42     		rsbs	r3, r3, #0
 378:lvgl/src/draw/lv_draw_rect.c ****             area.y1 = coords->y1 + lv_area_get_height(coords) / 2 - header.h / 2;
ARM GAS  /var/folders/k2/cd9bl_j17z77g23y6ffqb_400000gn/T//cc0jKSMI.s 			page 169


 6030              		.loc 1 378 66 view .LVU2267
 6031 013e 13FA82F2 		uxtah	r2, r3, r2
 378:lvgl/src/draw/lv_draw_rect.c ****             area.y1 = coords->y1 + lv_area_get_height(coords) / 2 - header.h / 2;
 6032              		.loc 1 378 21 view .LVU2268
 6033 0142 ADF81420 		strh	r2, [sp, #20]	@ movhi
 379:lvgl/src/draw/lv_draw_rect.c ****             area.x2 = area.x1 + header.w - 1;
 6034              		.loc 1 379 13 is_stmt 1 view .LVU2269
 379:lvgl/src/draw/lv_draw_rect.c ****             area.x2 = area.x1 + header.w - 1;
 6035              		.loc 1 379 29 is_stmt 0 view .LVU2270
 6036 0146 6B88     		ldrh	r3, [r5, #2]
 6037              	.LVL543:
 6038              	.LBB339:
 6039              	.LBI339:
 143:lvgl/src/draw/../misc/lv_area.h **** {
 6040              		.loc 2 143 26 is_stmt 1 view .LVU2271
 6041              	.LBB340:
 6042              		.loc 2 145 5 view .LVU2272
 6043              		.loc 2 145 31 is_stmt 0 view .LVU2273
 6044 0148 E988     		ldrh	r1, [r5, #6]
 6045              		.loc 2 145 36 view .LVU2274
 6046 014a C91A     		subs	r1, r1, r3
 6047 014c 89B2     		uxth	r1, r1
 6048              		.loc 2 145 49 view .LVU2275
 6049 014e 0131     		adds	r1, r1, #1
 6050              	.LVL544:
 6051              		.loc 2 145 49 view .LVU2276
 6052              	.LBE340:
 6053              	.LBE339:
 379:lvgl/src/draw/lv_draw_rect.c ****             area.x2 = area.x1 + header.w - 1;
 6054              		.loc 1 379 34 view .LVU2277
 6055 0150 C1F3C035 		ubfx	r5, r1, #15, #1
 6056              	.LVL545:
 379:lvgl/src/draw/lv_draw_rect.c ****             area.x2 = area.x1 + header.w - 1;
 6057              		.loc 1 379 34 view .LVU2278
 6058 0154 05FA81F1 		sxtah	r1, r5, r1
 6059 0158 03EB6103 		add	r3, r3, r1, asr #1
 379:lvgl/src/draw/lv_draw_rect.c ****             area.x2 = area.x1 + header.w - 1;
 6060              		.loc 1 379 75 view .LVU2279
 6061 015c BDF81210 		ldrh	r1, [sp, #18]
 6062 0160 C1F34A15 		ubfx	r5, r1, #5, #11
 379:lvgl/src/draw/lv_draw_rect.c ****             area.x2 = area.x1 + header.w - 1;
 6063              		.loc 1 379 78 view .LVU2280
 6064 0164 C1F38911 		ubfx	r1, r1, #6, #10
 6065 0168 4942     		rsbs	r1, r1, #0
 379:lvgl/src/draw/lv_draw_rect.c ****             area.x2 = area.x1 + header.w - 1;
 6066              		.loc 1 379 67 view .LVU2281
 6067 016a 11FA83F3 		uxtah	r3, r1, r3
 379:lvgl/src/draw/lv_draw_rect.c ****             area.x2 = area.x1 + header.w - 1;
 6068              		.loc 1 379 21 view .LVU2282
 6069 016e ADF81630 		strh	r3, [sp, #22]	@ movhi
 380:lvgl/src/draw/lv_draw_rect.c ****             area.y2 = area.y1 + header.h - 1;
 6070              		.loc 1 380 13 is_stmt 1 view .LVU2283
 380:lvgl/src/draw/lv_draw_rect.c ****             area.y2 = area.y1 + header.h - 1;
 6071              		.loc 1 380 31 is_stmt 0 view .LVU2284
 6072 0172 10FA82F2 		uxtah	r2, r0, r2
 6073 0176 92B2     		uxth	r2, r2
 380:lvgl/src/draw/lv_draw_rect.c ****             area.y2 = area.y1 + header.h - 1;
ARM GAS  /var/folders/k2/cd9bl_j17z77g23y6ffqb_400000gn/T//cc0jKSMI.s 			page 170


 6074              		.loc 1 380 42 view .LVU2285
 6075 0178 013A     		subs	r2, r2, #1
 380:lvgl/src/draw/lv_draw_rect.c ****             area.y2 = area.y1 + header.h - 1;
 6076              		.loc 1 380 21 view .LVU2286
 6077 017a ADF81820 		strh	r2, [sp, #24]	@ movhi
 381:lvgl/src/draw/lv_draw_rect.c **** 
 6078              		.loc 1 381 13 is_stmt 1 view .LVU2287
 381:lvgl/src/draw/lv_draw_rect.c **** 
 6079              		.loc 1 381 31 is_stmt 0 view .LVU2288
 6080 017e 15FA83F3 		uxtah	r3, r5, r3
 6081 0182 9BB2     		uxth	r3, r3
 381:lvgl/src/draw/lv_draw_rect.c **** 
 6082              		.loc 1 381 42 view .LVU2289
 6083 0184 013B     		subs	r3, r3, #1
 381:lvgl/src/draw/lv_draw_rect.c **** 
 6084              		.loc 1 381 21 view .LVU2290
 6085 0186 ADF81A30 		strh	r3, [sp, #26]	@ movhi
 383:lvgl/src/draw/lv_draw_rect.c ****         } else {
 6086              		.loc 1 383 13 is_stmt 1 view .LVU2291
 6087 018a 07AB     		add	r3, sp, #28
 6088 018c 2269     		ldr	r2, [r4, #16]
 6089 018e 3146     		mov	r1, r6
 6090 0190 05A8     		add	r0, sp, #20
 6091 0192 FFF7FEFF 		bl	lv_draw_img
 6092              	.LVL546:
 6093              	.LBE336:
 6094 0196 3DE7     		b	.L262
 6095              	.LVL547:
 6096              	.L270:
 6097              	.LBB341:
 394:lvgl/src/draw/lv_draw_rect.c ****                 }
 6098              		.loc 1 394 21 discriminator 2 view .LVU2292
 6099 0198 07AB     		add	r3, sp, #28
 6100 019a 2269     		ldr	r2, [r4, #16]
 6101 019c 3146     		mov	r1, r6
 6102 019e 05A8     		add	r0, sp, #20
 6103 01a0 FFF7FEFF 		bl	lv_draw_img
 6104              	.LVL548:
 393:lvgl/src/draw/lv_draw_rect.c ****                     lv_draw_img(&area, clip, dsc->bg_img_src, &img_dsc);
 6105              		.loc 1 393 46 discriminator 2 view .LVU2293
 393:lvgl/src/draw/lv_draw_rect.c ****                     lv_draw_img(&area, clip, dsc->bg_img_src, &img_dsc);
 6106              		.loc 1 393 63 is_stmt 0 discriminator 2 view .LVU2294
 6107 01a4 049B     		ldr	r3, [sp, #16]
 6108 01a6 C3F38A23 		ubfx	r3, r3, #10, #11
 393:lvgl/src/draw/lv_draw_rect.c ****                     lv_draw_img(&area, clip, dsc->bg_img_src, &img_dsc);
 6109              		.loc 1 393 54 discriminator 2 view .LVU2295
 6110 01aa BDF814C0 		ldrh	ip, [sp, #20]
 6111 01ae 9C44     		add	ip, ip, r3
 6112 01b0 ADF814C0 		strh	ip, [sp, #20]	@ movhi
 393:lvgl/src/draw/lv_draw_rect.c ****                     lv_draw_img(&area, clip, dsc->bg_img_src, &img_dsc);
 6113              		.loc 1 393 75 discriminator 2 view .LVU2296
 6114 01b4 BDF81820 		ldrh	r2, [sp, #24]
 6115 01b8 1344     		add	r3, r3, r2
 6116 01ba ADF81830 		strh	r3, [sp, #24]	@ movhi
 6117              	.L269:
 393:lvgl/src/draw/lv_draw_rect.c ****                     lv_draw_img(&area, clip, dsc->bg_img_src, &img_dsc);
 6118              		.loc 1 393 23 is_stmt 1 discriminator 1 view .LVU2297
ARM GAS  /var/folders/k2/cd9bl_j17z77g23y6ffqb_400000gn/T//cc0jKSMI.s 			page 171


 393:lvgl/src/draw/lv_draw_rect.c ****                     lv_draw_img(&area, clip, dsc->bg_img_src, &img_dsc);
 6119              		.loc 1 393 27 is_stmt 0 discriminator 1 view .LVU2298
 6120 01be BDF91420 		ldrsh	r2, [sp, #20]
 393:lvgl/src/draw/lv_draw_rect.c ****                     lv_draw_img(&area, clip, dsc->bg_img_src, &img_dsc);
 6121              		.loc 1 393 40 discriminator 1 view .LVU2299
 6122 01c2 B5F90430 		ldrsh	r3, [r5, #4]
 393:lvgl/src/draw/lv_draw_rect.c ****                     lv_draw_img(&area, clip, dsc->bg_img_src, &img_dsc);
 6123              		.loc 1 393 17 discriminator 1 view .LVU2300
 6124 01c6 9A42     		cmp	r2, r3
 6125 01c8 E6DD     		ble	.L270
 389:lvgl/src/draw/lv_draw_rect.c **** 
 6126              		.loc 1 389 42 is_stmt 1 view .LVU2301
 389:lvgl/src/draw/lv_draw_rect.c **** 
 6127              		.loc 1 389 59 is_stmt 0 view .LVU2302
 6128 01ca BDF81230 		ldrh	r3, [sp, #18]
 6129 01ce C3F34A13 		ubfx	r3, r3, #5, #11
 389:lvgl/src/draw/lv_draw_rect.c **** 
 6130              		.loc 1 389 50 view .LVU2303
 6131 01d2 BDF81620 		ldrh	r2, [sp, #22]
 6132 01d6 1A44     		add	r2, r2, r3
 6133 01d8 ADF81620 		strh	r2, [sp, #22]	@ movhi
 389:lvgl/src/draw/lv_draw_rect.c **** 
 6134              		.loc 1 389 71 view .LVU2304
 6135 01dc BDF81A20 		ldrh	r2, [sp, #26]
 6136 01e0 1344     		add	r3, r3, r2
 6137 01e2 ADF81A30 		strh	r3, [sp, #26]	@ movhi
 6138              	.L268:
 389:lvgl/src/draw/lv_draw_rect.c **** 
 6139              		.loc 1 389 19 is_stmt 1 discriminator 1 view .LVU2305
 389:lvgl/src/draw/lv_draw_rect.c **** 
 6140              		.loc 1 389 23 is_stmt 0 discriminator 1 view .LVU2306
 6141 01e6 BDF91620 		ldrsh	r2, [sp, #22]
 389:lvgl/src/draw/lv_draw_rect.c **** 
 6142              		.loc 1 389 36 discriminator 1 view .LVU2307
 6143 01ea B5F90630 		ldrsh	r3, [r5, #6]
 389:lvgl/src/draw/lv_draw_rect.c **** 
 6144              		.loc 1 389 13 discriminator 1 view .LVU2308
 6145 01ee 9A42     		cmp	r2, r3
 6146 01f0 3FF710AF 		bgt	.L262
 391:lvgl/src/draw/lv_draw_rect.c ****                 area.x2 = area.x1 + header.w - 1;
 6147              		.loc 1 391 17 is_stmt 1 view .LVU2309
 391:lvgl/src/draw/lv_draw_rect.c ****                 area.x2 = area.x1 + header.w - 1;
 6148              		.loc 1 391 33 is_stmt 0 view .LVU2310
 6149 01f4 B5F90030 		ldrsh	r3, [r5]
 391:lvgl/src/draw/lv_draw_rect.c ****                 area.x2 = area.x1 + header.w - 1;
 6150              		.loc 1 391 25 view .LVU2311
 6151 01f8 ADF81430 		strh	r3, [sp, #20]	@ movhi
 392:lvgl/src/draw/lv_draw_rect.c ****                 for(; area.x1 <= coords->x2; area.x1 += header.w, area.x2 += header.w) {
 6152              		.loc 1 392 17 is_stmt 1 view .LVU2312
 392:lvgl/src/draw/lv_draw_rect.c ****                 for(; area.x1 <= coords->x2; area.x1 += header.w, area.x2 += header.w) {
 6153              		.loc 1 392 43 is_stmt 0 view .LVU2313
 6154 01fc 049A     		ldr	r2, [sp, #16]
 6155 01fe C2F38A22 		ubfx	r2, r2, #10, #11
 392:lvgl/src/draw/lv_draw_rect.c ****                 for(; area.x1 <= coords->x2; area.x1 += header.w, area.x2 += header.w) {
 6156              		.loc 1 392 35 view .LVU2314
 6157 0202 12FA83F3 		uxtah	r3, r2, r3
 6158 0206 9BB2     		uxth	r3, r3
ARM GAS  /var/folders/k2/cd9bl_j17z77g23y6ffqb_400000gn/T//cc0jKSMI.s 			page 172


 392:lvgl/src/draw/lv_draw_rect.c ****                 for(; area.x1 <= coords->x2; area.x1 += header.w, area.x2 += header.w) {
 6159              		.loc 1 392 46 view .LVU2315
 6160 0208 013B     		subs	r3, r3, #1
 392:lvgl/src/draw/lv_draw_rect.c ****                 for(; area.x1 <= coords->x2; area.x1 += header.w, area.x2 += header.w) {
 6161              		.loc 1 392 25 view .LVU2316
 6162 020a ADF81830 		strh	r3, [sp, #24]	@ movhi
 393:lvgl/src/draw/lv_draw_rect.c ****                     lv_draw_img(&area, clip, dsc->bg_img_src, &img_dsc);
 6163              		.loc 1 393 17 is_stmt 1 view .LVU2317
 6164 020e D6E7     		b	.L269
 6165              	.LBE341:
 6166              	.LBE347:
 6167              		.cfi_endproc
 6168              	.LFE150:
 6170              		.section	.text.draw_bg,"ax",%progbits
 6171              		.align	1
 6172              		.syntax unified
 6173              		.thumb
 6174              		.thumb_func
 6175              		.fpu fpv4-sp-d16
 6177              	draw_bg:
 6178              	.LVL549:
 6179              	.LFB149:
 121:lvgl/src/draw/lv_draw_rect.c ****     if(dsc->bg_opa <= LV_OPA_MIN) return;
 6180              		.loc 1 121 1 view -0
 6181              		.cfi_startproc
 6182              		@ args = 0, pretend = 0, frame = 112
 6183              		@ frame_needed = 0, uses_anonymous_args = 0
 121:lvgl/src/draw/lv_draw_rect.c ****     if(dsc->bg_opa <= LV_OPA_MIN) return;
 6184              		.loc 1 121 1 is_stmt 0 view .LVU2319
 6185 0000 2DE9F04F 		push	{r4, r5, r6, r7, r8, r9, r10, fp, lr}
 6186              	.LCFI25:
 6187              		.cfi_def_cfa_offset 36
 6188              		.cfi_offset 4, -36
 6189              		.cfi_offset 5, -32
 6190              		.cfi_offset 6, -28
 6191              		.cfi_offset 7, -24
 6192              		.cfi_offset 8, -20
 6193              		.cfi_offset 9, -16
 6194              		.cfi_offset 10, -12
 6195              		.cfi_offset 11, -8
 6196              		.cfi_offset 14, -4
 6197 0004 A1B0     		sub	sp, sp, #132
 6198              	.LCFI26:
 6199              		.cfi_def_cfa_offset 168
 6200 0006 0791     		str	r1, [sp, #28]
 122:lvgl/src/draw/lv_draw_rect.c **** 
 6201              		.loc 1 122 5 is_stmt 1 view .LVU2320
 122:lvgl/src/draw/lv_draw_rect.c **** 
 6202              		.loc 1 122 11 is_stmt 0 view .LVU2321
 6203 0008 937B     		ldrb	r3, [r2, #14]	@ zero_extendqisi2
 6204 000a 0493     		str	r3, [sp, #16]
 122:lvgl/src/draw/lv_draw_rect.c **** 
 6205              		.loc 1 122 7 view .LVU2322
 6206 000c 022B     		cmp	r3, #2
 6207 000e 40F2D582 		bls	.L276
 6208 0012 1646     		mov	r6, r2
 124:lvgl/src/draw/lv_draw_rect.c ****     lv_area_copy(&coords_bg, coords);
ARM GAS  /var/folders/k2/cd9bl_j17z77g23y6ffqb_400000gn/T//cc0jKSMI.s 			page 173


 6209              		.loc 1 124 5 is_stmt 1 view .LVU2323
 125:lvgl/src/draw/lv_draw_rect.c **** 
 6210              		.loc 1 125 5 view .LVU2324
 6211              	.LVL550:
 6212              	.LBB372:
 6213              	.LBI372:
 120:lvgl/src/draw/../misc/lv_area.h **** {
 6214              		.loc 2 120 20 view .LVU2325
 6215              	.LBB373:
 122:lvgl/src/draw/../misc/lv_area.h ****     dest->y1 = src->y1;
 6216              		.loc 2 122 5 view .LVU2326
 122:lvgl/src/draw/../misc/lv_area.h ****     dest->y1 = src->y1;
 6217              		.loc 2 122 19 is_stmt 0 view .LVU2327
 6218 0014 B0F90040 		ldrsh	r4, [r0]
 122:lvgl/src/draw/../misc/lv_area.h ****     dest->y1 = src->y1;
 6219              		.loc 2 122 14 view .LVU2328
 6220 0018 ADF87840 		strh	r4, [sp, #120]	@ movhi
 123:lvgl/src/draw/../misc/lv_area.h ****     dest->x2 = src->x2;
 6221              		.loc 2 123 5 is_stmt 1 view .LVU2329
 123:lvgl/src/draw/../misc/lv_area.h ****     dest->x2 = src->x2;
 6222              		.loc 2 123 19 is_stmt 0 view .LVU2330
 6223 001c B0F90210 		ldrsh	r1, [r0, #2]
 6224              	.LVL551:
 123:lvgl/src/draw/../misc/lv_area.h ****     dest->x2 = src->x2;
 6225              		.loc 2 123 14 view .LVU2331
 6226 0020 ADF87A10 		strh	r1, [sp, #122]	@ movhi
 124:lvgl/src/draw/../misc/lv_area.h ****     dest->y2 = src->y2;
 6227              		.loc 2 124 5 is_stmt 1 view .LVU2332
 124:lvgl/src/draw/../misc/lv_area.h ****     dest->y2 = src->y2;
 6228              		.loc 2 124 19 is_stmt 0 view .LVU2333
 6229 0024 B0F90420 		ldrsh	r2, [r0, #4]
 6230              	.LVL552:
 124:lvgl/src/draw/../misc/lv_area.h ****     dest->y2 = src->y2;
 6231              		.loc 2 124 14 view .LVU2334
 6232 0028 ADF87C20 		strh	r2, [sp, #124]	@ movhi
 125:lvgl/src/draw/../misc/lv_area.h **** }
 6233              		.loc 2 125 5 is_stmt 1 view .LVU2335
 125:lvgl/src/draw/../misc/lv_area.h **** }
 6234              		.loc 2 125 19 is_stmt 0 view .LVU2336
 6235 002c B0F90630 		ldrsh	r3, [r0, #6]
 125:lvgl/src/draw/../misc/lv_area.h **** }
 6236              		.loc 2 125 14 view .LVU2337
 6237 0030 ADF87E30 		strh	r3, [sp, #126]	@ movhi
 6238              	.LVL553:
 125:lvgl/src/draw/../misc/lv_area.h **** }
 6239              		.loc 2 125 14 view .LVU2338
 6240              	.LBE373:
 6241              	.LBE372:
 128:lvgl/src/draw/lv_draw_rect.c ****         coords_bg.x1 += (dsc->border_side & LV_BORDER_SIDE_LEFT) ? 1 : 0;
 6242              		.loc 1 128 5 is_stmt 1 view .LVU2339
 128:lvgl/src/draw/lv_draw_rect.c ****         coords_bg.x1 += (dsc->border_side & LV_BORDER_SIDE_LEFT) ? 1 : 0;
 6243              		.loc 1 128 11 is_stmt 0 view .LVU2340
 6244 0034 B6F92400 		ldrsh	r0, [r6, #36]
 6245              	.LVL554:
 128:lvgl/src/draw/lv_draw_rect.c ****         coords_bg.x1 += (dsc->border_side & LV_BORDER_SIDE_LEFT) ? 1 : 0;
 6246              		.loc 1 128 7 view .LVU2341
 6247 0038 0128     		cmp	r0, #1
ARM GAS  /var/folders/k2/cd9bl_j17z77g23y6ffqb_400000gn/T//cc0jKSMI.s 			page 174


 6248 003a 1CDD     		ble	.L278
 128:lvgl/src/draw/lv_draw_rect.c ****         coords_bg.x1 += (dsc->border_side & LV_BORDER_SIDE_LEFT) ? 1 : 0;
 6249              		.loc 1 128 36 discriminator 1 view .LVU2342
 6250 003c 96F82600 		ldrb	r0, [r6, #38]	@ zero_extendqisi2
 128:lvgl/src/draw/lv_draw_rect.c ****         coords_bg.x1 += (dsc->border_side & LV_BORDER_SIDE_LEFT) ? 1 : 0;
 6251              		.loc 1 128 30 discriminator 1 view .LVU2343
 6252 0040 FC28     		cmp	r0, #252
 6253 0042 18D9     		bls	.L278
 128:lvgl/src/draw/lv_draw_rect.c ****         coords_bg.x1 += (dsc->border_side & LV_BORDER_SIDE_LEFT) ? 1 : 0;
 6254              		.loc 1 128 69 discriminator 2 view .LVU2344
 6255 0044 B6F90000 		ldrsh	r0, [r6]
 128:lvgl/src/draw/lv_draw_rect.c ****         coords_bg.x1 += (dsc->border_side & LV_BORDER_SIDE_LEFT) ? 1 : 0;
 6256              		.loc 1 128 63 discriminator 2 view .LVU2345
 6257 0048 A8B1     		cbz	r0, .L278
 129:lvgl/src/draw/lv_draw_rect.c ****         coords_bg.y1 += (dsc->border_side & LV_BORDER_SIDE_TOP) ? 1 : 0;
 6258              		.loc 1 129 9 is_stmt 1 view .LVU2346
 129:lvgl/src/draw/lv_draw_rect.c ****         coords_bg.y1 += (dsc->border_side & LV_BORDER_SIDE_TOP) ? 1 : 0;
 6259              		.loc 1 129 29 is_stmt 0 view .LVU2347
 6260 004a 96F82700 		ldrb	r0, [r6, #39]	@ zero_extendqisi2
 129:lvgl/src/draw/lv_draw_rect.c ****         coords_bg.y1 += (dsc->border_side & LV_BORDER_SIDE_TOP) ? 1 : 0;
 6261              		.loc 1 129 70 view .LVU2348
 6262 004e C0F3C007 		ubfx	r7, r0, #3, #1
 129:lvgl/src/draw/lv_draw_rect.c ****         coords_bg.y1 += (dsc->border_side & LV_BORDER_SIDE_TOP) ? 1 : 0;
 6263              		.loc 1 129 22 view .LVU2349
 6264 0052 3C44     		add	r4, r4, r7
 6265 0054 ADF87840 		strh	r4, [sp, #120]	@ movhi
 130:lvgl/src/draw/lv_draw_rect.c ****         coords_bg.x2 -= (dsc->border_side & LV_BORDER_SIDE_RIGHT) ? 1 : 0;
 6266              		.loc 1 130 9 is_stmt 1 view .LVU2350
 130:lvgl/src/draw/lv_draw_rect.c ****         coords_bg.x2 -= (dsc->border_side & LV_BORDER_SIDE_RIGHT) ? 1 : 0;
 6267              		.loc 1 130 69 is_stmt 0 view .LVU2351
 6268 0058 C0F38004 		ubfx	r4, r0, #2, #1
 130:lvgl/src/draw/lv_draw_rect.c ****         coords_bg.x2 -= (dsc->border_side & LV_BORDER_SIDE_RIGHT) ? 1 : 0;
 6269              		.loc 1 130 22 view .LVU2352
 6270 005c 2144     		add	r1, r1, r4
 6271 005e ADF87A10 		strh	r1, [sp, #122]	@ movhi
 131:lvgl/src/draw/lv_draw_rect.c ****         coords_bg.y2 -= (dsc->border_side & LV_BORDER_SIDE_BOTTOM) ? 1 : 0;
 6272              		.loc 1 131 9 is_stmt 1 view .LVU2353
 131:lvgl/src/draw/lv_draw_rect.c ****         coords_bg.y2 -= (dsc->border_side & LV_BORDER_SIDE_BOTTOM) ? 1 : 0;
 6273              		.loc 1 131 71 is_stmt 0 view .LVU2354
 6274 0062 C0F30011 		ubfx	r1, r0, #4, #1
 131:lvgl/src/draw/lv_draw_rect.c ****         coords_bg.y2 -= (dsc->border_side & LV_BORDER_SIDE_BOTTOM) ? 1 : 0;
 6275              		.loc 1 131 22 view .LVU2355
 6276 0066 521A     		subs	r2, r2, r1
 6277 0068 ADF87C20 		strh	r2, [sp, #124]	@ movhi
 132:lvgl/src/draw/lv_draw_rect.c ****     }
 6278              		.loc 1 132 9 is_stmt 1 view .LVU2356
 132:lvgl/src/draw/lv_draw_rect.c ****     }
 6279              		.loc 1 132 72 is_stmt 0 view .LVU2357
 6280 006c C0F34000 		ubfx	r0, r0, #1, #1
 132:lvgl/src/draw/lv_draw_rect.c ****     }
 6281              		.loc 1 132 22 view .LVU2358
 6282 0070 1B1A     		subs	r3, r3, r0
 6283 0072 ADF87E30 		strh	r3, [sp, #126]	@ movhi
 6284              	.L278:
 135:lvgl/src/draw/lv_draw_rect.c **** 
 6285              		.loc 1 135 5 is_stmt 1 view .LVU2359
 6286              	.LVL555:
ARM GAS  /var/folders/k2/cd9bl_j17z77g23y6ffqb_400000gn/T//cc0jKSMI.s 			page 175


 137:lvgl/src/draw/lv_draw_rect.c **** 
 6287              		.loc 1 137 5 view .LVU2360
 137:lvgl/src/draw/lv_draw_rect.c **** 
 6288              		.loc 1 137 7 is_stmt 0 view .LVU2361
 6289 0076 049B     		ldr	r3, [sp, #16]
 6290 0078 FD2B     		cmp	r3, #253
 6291 007a 01D9     		bls	.L279
 137:lvgl/src/draw/lv_draw_rect.c **** 
 6292              		.loc 1 137 30 view .LVU2362
 6293 007c FF23     		movs	r3, #255
 6294 007e 0493     		str	r3, [sp, #16]
 6295              	.LVL556:
 6296              	.L279:
 139:lvgl/src/draw/lv_draw_rect.c ****     lv_disp_draw_buf_t * draw_buf = lv_disp_get_draw_buf(disp);
 6297              		.loc 1 139 5 is_stmt 1 view .LVU2363
 139:lvgl/src/draw/lv_draw_rect.c ****     lv_disp_draw_buf_t * draw_buf = lv_disp_get_draw_buf(disp);
 6298              		.loc 1 139 24 is_stmt 0 view .LVU2364
 6299 0080 FFF7FEFF 		bl	_lv_refr_get_disp_refreshing
 6300              	.LVL557:
 140:lvgl/src/draw/lv_draw_rect.c **** 
 6301              		.loc 1 140 5 is_stmt 1 view .LVU2365
 140:lvgl/src/draw/lv_draw_rect.c **** 
 6302              		.loc 1 140 37 is_stmt 0 view .LVU2366
 6303 0084 FFF7FEFF 		bl	lv_disp_get_draw_buf
 6304              	.LVL558:
 140:lvgl/src/draw/lv_draw_rect.c **** 
 6305              		.loc 1 140 37 view .LVU2367
 6306 0088 8046     		mov	r8, r0
 6307              	.LVL559:
 144:lvgl/src/draw/lv_draw_rect.c ****     bool is_common;
 6308              		.loc 1 144 5 is_stmt 1 view .LVU2368
 145:lvgl/src/draw/lv_draw_rect.c ****     is_common = _lv_area_intersect(&draw_area, &coords_bg, clip);
 6309              		.loc 1 145 5 view .LVU2369
 146:lvgl/src/draw/lv_draw_rect.c ****     if(is_common == false) return;
 6310              		.loc 1 146 5 view .LVU2370
 146:lvgl/src/draw/lv_draw_rect.c ****     if(is_common == false) return;
 6311              		.loc 1 146 17 is_stmt 0 view .LVU2371
 6312 008a 079A     		ldr	r2, [sp, #28]
 6313 008c 1EA9     		add	r1, sp, #120
 6314 008e 1CA8     		add	r0, sp, #112
 6315              	.LVL560:
 146:lvgl/src/draw/lv_draw_rect.c ****     if(is_common == false) return;
 6316              		.loc 1 146 17 view .LVU2372
 6317 0090 FFF7FEFF 		bl	_lv_area_intersect
 6318              	.LVL561:
 147:lvgl/src/draw/lv_draw_rect.c **** 
 6319              		.loc 1 147 5 is_stmt 1 view .LVU2373
 147:lvgl/src/draw/lv_draw_rect.c **** 
 6320              		.loc 1 147 7 is_stmt 0 view .LVU2374
 6321 0094 0990     		str	r0, [sp, #36]
 6322 0096 0028     		cmp	r0, #0
 6323 0098 00F09082 		beq	.L276
 149:lvgl/src/draw/lv_draw_rect.c **** 
 6324              		.loc 1 149 5 is_stmt 1 view .LVU2375
 6325              	.LVL562:
 153:lvgl/src/draw/lv_draw_rect.c ****     draw_area.y1 -= disp_area->y1;
 6326              		.loc 1 153 5 view .LVU2376
ARM GAS  /var/folders/k2/cd9bl_j17z77g23y6ffqb_400000gn/T//cc0jKSMI.s 			page 176


 153:lvgl/src/draw/lv_draw_rect.c ****     draw_area.y1 -= disp_area->y1;
 6327              		.loc 1 153 30 is_stmt 0 view .LVU2377
 6328 009c B8F81040 		ldrh	r4, [r8, #16]
 153:lvgl/src/draw/lv_draw_rect.c ****     draw_area.y1 -= disp_area->y1;
 6329              		.loc 1 153 18 view .LVU2378
 6330 00a0 BDF87030 		ldrh	r3, [sp, #112]
 6331 00a4 1B1B     		subs	r3, r3, r4
 6332 00a6 ADF87030 		strh	r3, [sp, #112]	@ movhi
 154:lvgl/src/draw/lv_draw_rect.c ****     draw_area.x2 -= disp_area->x1;
 6333              		.loc 1 154 5 is_stmt 1 view .LVU2379
 154:lvgl/src/draw/lv_draw_rect.c ****     draw_area.x2 -= disp_area->x1;
 6334              		.loc 1 154 30 is_stmt 0 view .LVU2380
 6335 00aa B8F81200 		ldrh	r0, [r8, #18]
 6336              	.LVL563:
 154:lvgl/src/draw/lv_draw_rect.c ****     draw_area.x2 -= disp_area->x1;
 6337              		.loc 1 154 18 view .LVU2381
 6338 00ae BDF87210 		ldrh	r1, [sp, #114]
 6339 00b2 091A     		subs	r1, r1, r0
 6340 00b4 ADF87210 		strh	r1, [sp, #114]	@ movhi
 155:lvgl/src/draw/lv_draw_rect.c ****     draw_area.y2 -= disp_area->y1;
 6341              		.loc 1 155 5 is_stmt 1 view .LVU2382
 155:lvgl/src/draw/lv_draw_rect.c ****     draw_area.y2 -= disp_area->y1;
 6342              		.loc 1 155 18 is_stmt 0 view .LVU2383
 6343 00b8 BDF87420 		ldrh	r2, [sp, #116]
 6344 00bc 121B     		subs	r2, r2, r4
 6345 00be ADF87420 		strh	r2, [sp, #116]	@ movhi
 156:lvgl/src/draw/lv_draw_rect.c **** 
 6346              		.loc 1 156 5 is_stmt 1 view .LVU2384
 156:lvgl/src/draw/lv_draw_rect.c **** 
 6347              		.loc 1 156 18 is_stmt 0 view .LVU2385
 6348 00c2 BDF87630 		ldrh	r3, [sp, #118]
 6349 00c6 1B1A     		subs	r3, r3, r0
 6350 00c8 ADF87630 		strh	r3, [sp, #118]	@ movhi
 159:lvgl/src/draw/lv_draw_rect.c ****     if(dsc->bg_color.full == dsc->bg_grad_color.full) grad_dir = LV_GRAD_DIR_NONE;
 6351              		.loc 1 159 5 is_stmt 1 view .LVU2386
 159:lvgl/src/draw/lv_draw_rect.c ****     if(dsc->bg_color.full == dsc->bg_grad_color.full) grad_dir = LV_GRAD_DIR_NONE;
 6352              		.loc 1 159 33 is_stmt 0 view .LVU2387
 6353 00cc 96F80F90 		ldrb	r9, [r6, #15]	@ zero_extendqisi2
 6354 00d0 09F00709 		and	r9, r9, #7
 6355              	.LVL564:
 160:lvgl/src/draw/lv_draw_rect.c **** 
 6356              		.loc 1 160 5 is_stmt 1 view .LVU2388
 160:lvgl/src/draw/lv_draw_rect.c **** 
 6357              		.loc 1 160 21 is_stmt 0 view .LVU2389
 6358 00d4 7268     		ldr	r2, [r6, #4]
 160:lvgl/src/draw/lv_draw_rect.c **** 
 6359              		.loc 1 160 48 view .LVU2390
 6360 00d6 B368     		ldr	r3, [r6, #8]
 160:lvgl/src/draw/lv_draw_rect.c **** 
 6361              		.loc 1 160 7 view .LVU2391
 6362 00d8 9A42     		cmp	r2, r3
 6363 00da 0AD0     		beq	.L325
 6364              	.L280:
 6365              	.LVL565:
 162:lvgl/src/draw/lv_draw_rect.c ****     bool simple_mode = true;
 6366              		.loc 1 162 5 is_stmt 1 view .LVU2392
 162:lvgl/src/draw/lv_draw_rect.c ****     bool simple_mode = true;
ARM GAS  /var/folders/k2/cd9bl_j17z77g23y6ffqb_400000gn/T//cc0jKSMI.s 			page 177


 6367              		.loc 1 162 31 is_stmt 0 view .LVU2393
 6368 00dc FFF7FEFF 		bl	lv_draw_mask_get_cnt
 6369              	.LVL566:
 162:lvgl/src/draw/lv_draw_rect.c ****     bool simple_mode = true;
 6370              		.loc 1 162 14 view .LVU2394
 6371 00e0 83B2     		uxth	r3, r0
 6372 00e2 0B93     		str	r3, [sp, #44]
 6373              	.LVL567:
 163:lvgl/src/draw/lv_draw_rect.c ****     if(other_mask_cnt) simple_mode = false;
 6374              		.loc 1 163 5 is_stmt 1 view .LVU2395
 164:lvgl/src/draw/lv_draw_rect.c ****     else if(grad_dir == LV_GRAD_DIR_HOR) simple_mode = false;
 6375              		.loc 1 164 5 view .LVU2396
 164:lvgl/src/draw/lv_draw_rect.c ****     else if(grad_dir == LV_GRAD_DIR_HOR) simple_mode = false;
 6376              		.loc 1 164 7 is_stmt 0 view .LVU2397
 6377 00e4 43B9     		cbnz	r3, .L317
 165:lvgl/src/draw/lv_draw_rect.c **** 
 6378              		.loc 1 165 10 is_stmt 1 view .LVU2398
 165:lvgl/src/draw/lv_draw_rect.c **** 
 6379              		.loc 1 165 12 is_stmt 0 view .LVU2399
 6380 00e6 B9F1020F 		cmp	r9, #2
 6381 00ea 64D0     		beq	.L318
 163:lvgl/src/draw/lv_draw_rect.c ****     if(other_mask_cnt) simple_mode = false;
 6382              		.loc 1 163 10 view .LVU2400
 6383 00ec 099B     		ldr	r3, [sp, #36]
 6384              	.LVL568:
 163:lvgl/src/draw/lv_draw_rect.c ****     if(other_mask_cnt) simple_mode = false;
 6385              		.loc 1 163 10 view .LVU2401
 6386 00ee 0693     		str	r3, [sp, #24]
 6387 00f0 04E0     		b	.L281
 6388              	.LVL569:
 6389              	.L325:
 160:lvgl/src/draw/lv_draw_rect.c **** 
 6390              		.loc 1 160 64 view .LVU2402
 6391 00f2 4FF00009 		mov	r9, #0
 6392 00f6 F1E7     		b	.L280
 6393              	.LVL570:
 6394              	.L317:
 164:lvgl/src/draw/lv_draw_rect.c ****     else if(grad_dir == LV_GRAD_DIR_HOR) simple_mode = false;
 6395              		.loc 1 164 36 view .LVU2403
 6396 00f8 0023     		movs	r3, #0
 6397              	.LVL571:
 164:lvgl/src/draw/lv_draw_rect.c ****     else if(grad_dir == LV_GRAD_DIR_HOR) simple_mode = false;
 6398              		.loc 1 164 36 view .LVU2404
 6399 00fa 0693     		str	r3, [sp, #24]
 6400              	.L281:
 6401              	.LVL572:
 168:lvgl/src/draw/lv_draw_rect.c ****     int32_t coords_h = lv_area_get_height(&coords_bg);
 6402              		.loc 1 168 5 is_stmt 1 view .LVU2405
 6403              	.LBB374:
 6404              	.LBI374:
 133:lvgl/src/draw/../misc/lv_area.h **** {
 6405              		.loc 2 133 26 view .LVU2406
 6406              	.LBB375:
 135:lvgl/src/draw/../misc/lv_area.h **** }
 6407              		.loc 2 135 5 view .LVU2407
 135:lvgl/src/draw/../misc/lv_area.h **** }
 6408              		.loc 2 135 31 is_stmt 0 view .LVU2408
ARM GAS  /var/folders/k2/cd9bl_j17z77g23y6ffqb_400000gn/T//cc0jKSMI.s 			page 178


 6409 00fc BDF87C40 		ldrh	r4, [sp, #124]
 135:lvgl/src/draw/../misc/lv_area.h **** }
 6410              		.loc 2 135 44 view .LVU2409
 6411 0100 BDF87830 		ldrh	r3, [sp, #120]
 135:lvgl/src/draw/../misc/lv_area.h **** }
 6412              		.loc 2 135 36 view .LVU2410
 6413 0104 E41A     		subs	r4, r4, r3
 6414 0106 A4B2     		uxth	r4, r4
 135:lvgl/src/draw/../misc/lv_area.h **** }
 6415              		.loc 2 135 49 view .LVU2411
 6416 0108 0134     		adds	r4, r4, #1
 135:lvgl/src/draw/../misc/lv_area.h **** }
 6417              		.loc 2 135 12 view .LVU2412
 6418 010a 24B2     		sxth	r4, r4
 6419              	.LVL573:
 135:lvgl/src/draw/../misc/lv_area.h **** }
 6420              		.loc 2 135 12 view .LVU2413
 6421              	.LBE375:
 6422              	.LBE374:
 169:lvgl/src/draw/lv_draw_rect.c **** 
 6423              		.loc 1 169 5 is_stmt 1 view .LVU2414
 6424              	.LBB376:
 6425              	.LBI376:
 143:lvgl/src/draw/../misc/lv_area.h **** {
 6426              		.loc 2 143 26 view .LVU2415
 6427              	.LBB377:
 6428              		.loc 2 145 5 view .LVU2416
 6429              		.loc 2 145 31 is_stmt 0 view .LVU2417
 6430 010c BDF87E30 		ldrh	r3, [sp, #126]
 6431              		.loc 2 145 44 view .LVU2418
 6432 0110 BDF87A20 		ldrh	r2, [sp, #122]
 6433              		.loc 2 145 36 view .LVU2419
 6434 0114 9B1A     		subs	r3, r3, r2
 6435 0116 9BB2     		uxth	r3, r3
 6436              		.loc 2 145 49 view .LVU2420
 6437 0118 0133     		adds	r3, r3, #1
 6438              		.loc 2 145 12 view .LVU2421
 6439 011a 1BB2     		sxth	r3, r3
 6440              	.LVL574:
 6441              		.loc 2 145 12 view .LVU2422
 6442              	.LBE377:
 6443              	.LBE376:
 172:lvgl/src/draw/lv_draw_rect.c ****     int32_t short_side = LV_MIN(coords_w, coords_h);
 6444              		.loc 1 172 5 is_stmt 1 view .LVU2423
 172:lvgl/src/draw/lv_draw_rect.c ****     int32_t short_side = LV_MIN(coords_w, coords_h);
 6445              		.loc 1 172 23 is_stmt 0 view .LVU2424
 6446 011c B6F90020 		ldrsh	r2, [r6]
 6447              	.LVL575:
 173:lvgl/src/draw/lv_draw_rect.c ****     if(rout > short_side >> 1) rout = short_side >> 1;
 6448              		.loc 1 173 5 is_stmt 1 view .LVU2425
 173:lvgl/src/draw/lv_draw_rect.c ****     if(rout > short_side >> 1) rout = short_side >> 1;
 6449              		.loc 1 173 13 is_stmt 0 view .LVU2426
 6450 0120 A342     		cmp	r3, r4
 6451 0122 A8BF     		it	ge
 6452 0124 2346     		movge	r3, r4
 6453              	.LVL576:
 174:lvgl/src/draw/lv_draw_rect.c **** 
ARM GAS  /var/folders/k2/cd9bl_j17z77g23y6ffqb_400000gn/T//cc0jKSMI.s 			page 179


 6454              		.loc 1 174 5 is_stmt 1 view .LVU2427
 174:lvgl/src/draw/lv_draw_rect.c **** 
 6455              		.loc 1 174 26 is_stmt 0 view .LVU2428
 6456 0126 4FEA630A 		asr	r10, r3, #1
 174:lvgl/src/draw/lv_draw_rect.c **** 
 6457              		.loc 1 174 7 view .LVU2429
 6458 012a B2EB630F 		cmp	r2, r3, asr #1
 6459 012e 00DC     		bgt	.L282
 172:lvgl/src/draw/lv_draw_rect.c ****     int32_t short_side = LV_MIN(coords_w, coords_h);
 6460              		.loc 1 172 13 view .LVU2430
 6461 0130 9246     		mov	r10, r2
 6462              	.L282:
 6463              	.LVL577:
 177:lvgl/src/draw/lv_draw_rect.c ****         _lv_blend_fill(clip, &coords_bg,
 6464              		.loc 1 177 5 is_stmt 1 view .LVU2431
 177:lvgl/src/draw/lv_draw_rect.c ****         _lv_blend_fill(clip, &coords_bg,
 6465              		.loc 1 177 7 is_stmt 0 view .LVU2432
 6466 0132 069B     		ldr	r3, [sp, #24]
 6467              	.LVL578:
 177:lvgl/src/draw/lv_draw_rect.c ****         _lv_blend_fill(clip, &coords_bg,
 6468              		.loc 1 177 7 view .LVU2433
 6469 0134 2BB1     		cbz	r3, .L283
 177:lvgl/src/draw/lv_draw_rect.c ****         _lv_blend_fill(clip, &coords_bg,
 6470              		.loc 1 177 20 discriminator 1 view .LVU2434
 6471 0136 BAF1000F 		cmp	r10, #0
 6472 013a 02D1     		bne	.L283
 177:lvgl/src/draw/lv_draw_rect.c ****         _lv_blend_fill(clip, &coords_bg,
 6473              		.loc 1 177 33 discriminator 2 view .LVU2435
 6474 013c B9F1000F 		cmp	r9, #0
 6475 0140 3CD0     		beq	.L326
 6476              	.L283:
 6477              	.LBB378:
 186:lvgl/src/draw/lv_draw_rect.c ****         int16_t mask_rout_id = LV_MASK_ID_INV;
 6478              		.loc 1 186 9 is_stmt 1 view .LVU2436
 6479              	.LVL579:
 6480              	.LBB379:
 6481              	.LBI379:
 133:lvgl/src/draw/../misc/lv_area.h **** {
 6482              		.loc 2 133 26 view .LVU2437
 6483              	.LBB380:
 135:lvgl/src/draw/../misc/lv_area.h **** }
 6484              		.loc 2 135 5 view .LVU2438
 135:lvgl/src/draw/../misc/lv_area.h **** }
 6485              		.loc 2 135 31 is_stmt 0 view .LVU2439
 6486 0142 BDF87430 		ldrh	r3, [sp, #116]
 135:lvgl/src/draw/../misc/lv_area.h **** }
 6487              		.loc 2 135 44 view .LVU2440
 6488 0146 BDF87020 		ldrh	r2, [sp, #112]
 135:lvgl/src/draw/../misc/lv_area.h **** }
 6489              		.loc 2 135 36 view .LVU2441
 6490 014a 9B1A     		subs	r3, r3, r2
 6491 014c 9BB2     		uxth	r3, r3
 135:lvgl/src/draw/../misc/lv_area.h **** }
 6492              		.loc 2 135 49 view .LVU2442
 6493 014e 0133     		adds	r3, r3, #1
 135:lvgl/src/draw/../misc/lv_area.h **** }
 6494              		.loc 2 135 12 view .LVU2443
ARM GAS  /var/folders/k2/cd9bl_j17z77g23y6ffqb_400000gn/T//cc0jKSMI.s 			page 180


 6495 0150 1BB2     		sxth	r3, r3
 6496 0152 0A93     		str	r3, [sp, #40]
 6497              	.LVL580:
 135:lvgl/src/draw/../misc/lv_area.h **** }
 6498              		.loc 2 135 12 view .LVU2444
 6499              	.LBE380:
 6500              	.LBE379:
 187:lvgl/src/draw/lv_draw_rect.c ****         lv_opa_t * mask_buf = lv_mem_buf_get(draw_area_w);
 6501              		.loc 1 187 9 is_stmt 1 view .LVU2445
 188:lvgl/src/draw/lv_draw_rect.c ****         lv_draw_mask_radius_param_t mask_rout_param;
 6502              		.loc 1 188 9 view .LVU2446
 188:lvgl/src/draw/lv_draw_rect.c ****         lv_draw_mask_radius_param_t mask_rout_param;
 6503              		.loc 1 188 31 is_stmt 0 view .LVU2447
 6504 0154 1846     		mov	r0, r3
 6505 0156 FFF7FEFF 		bl	lv_mem_buf_get
 6506              	.LVL581:
 188:lvgl/src/draw/lv_draw_rect.c ****         lv_draw_mask_radius_param_t mask_rout_param;
 6507              		.loc 1 188 31 view .LVU2448
 6508 015a 8346     		mov	fp, r0
 6509              	.LVL582:
 189:lvgl/src/draw/lv_draw_rect.c ****         if(rout > 0) {
 6510              		.loc 1 189 9 is_stmt 1 view .LVU2449
 190:lvgl/src/draw/lv_draw_rect.c ****             lv_draw_mask_radius_init(&mask_rout_param, &coords_bg, rout, false);
 6511              		.loc 1 190 9 view .LVU2450
 190:lvgl/src/draw/lv_draw_rect.c ****             lv_draw_mask_radius_init(&mask_rout_param, &coords_bg, rout, false);
 6512              		.loc 1 190 11 is_stmt 0 view .LVU2451
 6513 015c BAF1000F 		cmp	r10, #0
 6514 0160 39DC     		bgt	.L327
 187:lvgl/src/draw/lv_draw_rect.c ****         lv_opa_t * mask_buf = lv_mem_buf_get(draw_area_w);
 6515              		.loc 1 187 17 view .LVU2452
 6516 0162 4FF0FF33 		mov	r3, #-1
 6517 0166 0E93     		str	r3, [sp, #56]
 6518              	.LVL583:
 6519              	.L285:
 196:lvgl/src/draw/lv_draw_rect.c ****         lv_draw_mask_res_t mask_res = LV_DRAW_MASK_RES_FULL_COVER;
 6520              		.loc 1 196 9 is_stmt 1 view .LVU2453
 197:lvgl/src/draw/lv_draw_rect.c ****         lv_color_t grad_color = dsc->bg_color;
 6521              		.loc 1 197 9 view .LVU2454
 198:lvgl/src/draw/lv_draw_rect.c **** 
 6522              		.loc 1 198 9 view .LVU2455
 198:lvgl/src/draw/lv_draw_rect.c **** 
 6523              		.loc 1 198 20 is_stmt 0 view .LVU2456
 6524 0168 7368     		ldr	r3, [r6, #4]
 6525              	.LVL584:
 198:lvgl/src/draw/lv_draw_rect.c **** 
 6526              		.loc 1 198 20 view .LVU2457
 6527 016a 0893     		str	r3, [sp, #32]
 201:lvgl/src/draw/lv_draw_rect.c ****         if(grad_dir == LV_GRAD_DIR_HOR) {
 6528              		.loc 1 201 9 is_stmt 1 view .LVU2458
 6529              	.LVL585:
 202:lvgl/src/draw/lv_draw_rect.c ****             grad_map = lv_mem_buf_get(coords_w * sizeof(lv_color_t));
 6530              		.loc 1 202 9 view .LVU2459
 202:lvgl/src/draw/lv_draw_rect.c ****             grad_map = lv_mem_buf_get(coords_w * sizeof(lv_color_t));
 6531              		.loc 1 202 11 is_stmt 0 view .LVU2460
 6532 016c B9F1020F 		cmp	r9, #2
 6533 0170 3DD0     		beq	.L328
 201:lvgl/src/draw/lv_draw_rect.c ****         if(grad_dir == LV_GRAD_DIR_HOR) {
ARM GAS  /var/folders/k2/cd9bl_j17z77g23y6ffqb_400000gn/T//cc0jKSMI.s 			page 181


 6534              		.loc 1 201 22 view .LVU2461
 6535 0172 0023     		movs	r3, #0
 6536              	.LVL586:
 201:lvgl/src/draw/lv_draw_rect.c ****         if(grad_dir == LV_GRAD_DIR_HOR) {
 6537              		.loc 1 201 22 view .LVU2462
 6538 0174 0C93     		str	r3, [sp, #48]
 6539              	.LVL587:
 6540              	.L286:
 211:lvgl/src/draw/lv_draw_rect.c ****         if(lv_area_get_width(&coords_bg) - 2 * rout > SPLIT_LIMIT) split = true;
 6541              		.loc 1 211 9 is_stmt 1 view .LVU2463
 212:lvgl/src/draw/lv_draw_rect.c **** 
 6542              		.loc 1 212 9 view .LVU2464
 6543              	.LBB381:
 6544              	.LBI381:
 133:lvgl/src/draw/../misc/lv_area.h **** {
 6545              		.loc 2 133 26 view .LVU2465
 6546              	.LBB382:
 135:lvgl/src/draw/../misc/lv_area.h **** }
 6547              		.loc 2 135 5 view .LVU2466
 135:lvgl/src/draw/../misc/lv_area.h **** }
 6548              		.loc 2 135 31 is_stmt 0 view .LVU2467
 6549 0176 BDF97C20 		ldrsh	r2, [sp, #124]
 6550 017a 93B2     		uxth	r3, r2
 135:lvgl/src/draw/../misc/lv_area.h **** }
 6551              		.loc 2 135 44 view .LVU2468
 6552 017c BDF97810 		ldrsh	r1, [sp, #120]
 6553 0180 88B2     		uxth	r0, r1
 135:lvgl/src/draw/../misc/lv_area.h **** }
 6554              		.loc 2 135 36 view .LVU2469
 6555 0182 1B1A     		subs	r3, r3, r0
 6556 0184 9BB2     		uxth	r3, r3
 135:lvgl/src/draw/../misc/lv_area.h **** }
 6557              		.loc 2 135 49 view .LVU2470
 6558 0186 0133     		adds	r3, r3, #1
 135:lvgl/src/draw/../misc/lv_area.h **** }
 6559              		.loc 2 135 12 view .LVU2471
 6560 0188 1BB2     		sxth	r3, r3
 6561              	.LVL588:
 135:lvgl/src/draw/../misc/lv_area.h **** }
 6562              		.loc 2 135 12 view .LVU2472
 6563              	.LBE382:
 6564              	.LBE381:
 212:lvgl/src/draw/lv_draw_rect.c **** 
 6565              		.loc 1 212 42 view .LVU2473
 6566 018a A3EB4A03 		sub	r3, r3, r10, lsl #1
 212:lvgl/src/draw/lv_draw_rect.c **** 
 6567              		.loc 1 212 11 view .LVU2474
 6568 018e 322B     		cmp	r3, #50
 6569 0190 01DC     		bgt	.L292
 211:lvgl/src/draw/lv_draw_rect.c ****         if(lv_area_get_width(&coords_bg) - 2 * rout > SPLIT_LIMIT) split = true;
 6570              		.loc 1 211 14 view .LVU2475
 6571 0192 0023     		movs	r3, #0
 6572 0194 0993     		str	r3, [sp, #36]
 6573              	.L292:
 6574              	.LVL589:
 214:lvgl/src/draw/lv_draw_rect.c **** 
 6575              		.loc 1 214 9 is_stmt 1 view .LVU2476
ARM GAS  /var/folders/k2/cd9bl_j17z77g23y6ffqb_400000gn/T//cc0jKSMI.s 			page 182


 216:lvgl/src/draw/lv_draw_rect.c ****         fill_area.x1 = coords_bg.x1;
 6576              		.loc 1 216 9 view .LVU2477
 217:lvgl/src/draw/lv_draw_rect.c ****         fill_area.x2 = coords_bg.x2;
 6577              		.loc 1 217 9 view .LVU2478
 217:lvgl/src/draw/lv_draw_rect.c ****         fill_area.x2 = coords_bg.x2;
 6578              		.loc 1 217 22 is_stmt 0 view .LVU2479
 6579 0196 ADF84410 		strh	r1, [sp, #68]	@ movhi
 218:lvgl/src/draw/lv_draw_rect.c ****         fill_area.y1 = disp_area->y1 + draw_area.y1;
 6580              		.loc 1 218 9 is_stmt 1 view .LVU2480
 218:lvgl/src/draw/lv_draw_rect.c ****         fill_area.y1 = disp_area->y1 + draw_area.y1;
 6581              		.loc 1 218 22 is_stmt 0 view .LVU2481
 6582 019a ADF84820 		strh	r2, [sp, #72]	@ movhi
 219:lvgl/src/draw/lv_draw_rect.c ****         fill_area.y2 = fill_area.y1;
 6583              		.loc 1 219 9 is_stmt 1 view .LVU2482
 219:lvgl/src/draw/lv_draw_rect.c ****         fill_area.y2 = fill_area.y1;
 6584              		.loc 1 219 33 is_stmt 0 view .LVU2483
 6585 019e B8F81230 		ldrh	r3, [r8, #18]
 219:lvgl/src/draw/lv_draw_rect.c ****         fill_area.y2 = fill_area.y1;
 6586              		.loc 1 219 49 view .LVU2484
 6587 01a2 BDF97250 		ldrsh	r5, [sp, #114]
 6588              	.LVL590:
 219:lvgl/src/draw/lv_draw_rect.c ****         fill_area.y2 = fill_area.y1;
 6589              		.loc 1 219 38 view .LVU2485
 6590 01a6 13FA85F3 		uxtah	r3, r3, r5
 6591 01aa 1BB2     		sxth	r3, r3
 219:lvgl/src/draw/lv_draw_rect.c ****         fill_area.y2 = fill_area.y1;
 6592              		.loc 1 219 22 view .LVU2486
 6593 01ac ADF84630 		strh	r3, [sp, #70]	@ movhi
 220:lvgl/src/draw/lv_draw_rect.c ****         for(h = draw_area.y1; h <= draw_area.y2; h++) {
 6594              		.loc 1 220 9 is_stmt 1 view .LVU2487
 220:lvgl/src/draw/lv_draw_rect.c ****         for(h = draw_area.y1; h <= draw_area.y2; h++) {
 6595              		.loc 1 220 22 is_stmt 0 view .LVU2488
 6596 01b0 ADF84A30 		strh	r3, [sp, #74]	@ movhi
 221:lvgl/src/draw/lv_draw_rect.c ****             int32_t y = h + draw_buf->area.y1;
 6597              		.loc 1 221 9 is_stmt 1 view .LVU2489
 6598              	.LVL591:
 221:lvgl/src/draw/lv_draw_rect.c ****             int32_t y = h + draw_buf->area.y1;
 6599              		.loc 1 221 9 is_stmt 0 view .LVU2490
 6600 01b4 B7E1     		b	.L293
 6601              	.LVL592:
 6602              	.L318:
 221:lvgl/src/draw/lv_draw_rect.c ****             int32_t y = h + draw_buf->area.y1;
 6603              		.loc 1 221 9 view .LVU2491
 6604              	.LBE378:
 165:lvgl/src/draw/lv_draw_rect.c **** 
 6605              		.loc 1 165 54 view .LVU2492
 6606 01b6 0023     		movs	r3, #0
 6607              	.LVL593:
 165:lvgl/src/draw/lv_draw_rect.c **** 
 6608              		.loc 1 165 54 view .LVU2493
 6609 01b8 0693     		str	r3, [sp, #24]
 6610 01ba 9FE7     		b	.L281
 6611              	.LVL594:
 6612              	.L326:
 178:lvgl/src/draw/lv_draw_rect.c ****                        dsc->bg_color, NULL, LV_DRAW_MASK_RES_FULL_COVER, opa,
 6613              		.loc 1 178 9 is_stmt 1 view .LVU2494
 6614 01bc B378     		ldrb	r3, [r6, #2]	@ zero_extendqisi2
ARM GAS  /var/folders/k2/cd9bl_j17z77g23y6ffqb_400000gn/T//cc0jKSMI.s 			page 183


 6615 01be 0293     		str	r3, [sp, #8]
 6616 01c0 049B     		ldr	r3, [sp, #16]
 6617 01c2 0193     		str	r3, [sp, #4]
 6618 01c4 0123     		movs	r3, #1
 6619 01c6 0093     		str	r3, [sp]
 6620 01c8 0023     		movs	r3, #0
 6621 01ca 7268     		ldr	r2, [r6, #4]
 6622 01cc 1EA9     		add	r1, sp, #120
 6623 01ce 0798     		ldr	r0, [sp, #28]
 6624 01d0 FFF7FEFF 		bl	_lv_blend_fill
 6625              	.LVL595:
 178:lvgl/src/draw/lv_draw_rect.c ****                        dsc->bg_color, NULL, LV_DRAW_MASK_RES_FULL_COVER, opa,
 6626              		.loc 1 178 9 is_stmt 0 view .LVU2495
 6627 01d4 F2E1     		b	.L276
 6628              	.LVL596:
 6629              	.L327:
 6630              	.LBB400:
 191:lvgl/src/draw/lv_draw_rect.c ****             mask_rout_id = lv_draw_mask_add(&mask_rout_param, NULL);
 6631              		.loc 1 191 13 is_stmt 1 view .LVU2496
 6632 01d6 0023     		movs	r3, #0
 6633 01d8 5246     		mov	r2, r10
 6634 01da 1EA9     		add	r1, sp, #120
 6635 01dc 15A8     		add	r0, sp, #84
 6636              	.LVL597:
 191:lvgl/src/draw/lv_draw_rect.c ****             mask_rout_id = lv_draw_mask_add(&mask_rout_param, NULL);
 6637              		.loc 1 191 13 is_stmt 0 view .LVU2497
 6638 01de FFF7FEFF 		bl	lv_draw_mask_radius_init
 6639              	.LVL598:
 192:lvgl/src/draw/lv_draw_rect.c ****         }
 6640              		.loc 1 192 13 is_stmt 1 view .LVU2498
 192:lvgl/src/draw/lv_draw_rect.c ****         }
 6641              		.loc 1 192 28 is_stmt 0 view .LVU2499
 6642 01e2 0021     		movs	r1, #0
 6643 01e4 15A8     		add	r0, sp, #84
 6644 01e6 FFF7FEFF 		bl	lv_draw_mask_add
 6645              	.LVL599:
 6646 01ea 0E90     		str	r0, [sp, #56]
 6647              	.LVL600:
 192:lvgl/src/draw/lv_draw_rect.c ****         }
 6648              		.loc 1 192 28 view .LVU2500
 6649 01ec BCE7     		b	.L285
 6650              	.LVL601:
 6651              	.L328:
 6652              	.LBB383:
 203:lvgl/src/draw/lv_draw_rect.c **** 
 6653              		.loc 1 203 13 is_stmt 1 view .LVU2501
 203:lvgl/src/draw/lv_draw_rect.c **** 
 6654              		.loc 1 203 24 is_stmt 0 view .LVU2502
 6655 01ee A000     		lsls	r0, r4, #2
 6656 01f0 FFF7FEFF 		bl	lv_mem_buf_get
 6657              	.LVL602:
 203:lvgl/src/draw/lv_draw_rect.c **** 
 6658              		.loc 1 203 24 view .LVU2503
 6659 01f4 0C90     		str	r0, [sp, #48]
 6660              	.LVL603:
 205:lvgl/src/draw/lv_draw_rect.c ****             for(i = 0; i < coords_w; i++) {
 6661              		.loc 1 205 13 is_stmt 1 view .LVU2504
ARM GAS  /var/folders/k2/cd9bl_j17z77g23y6ffqb_400000gn/T//cc0jKSMI.s 			page 184


 206:lvgl/src/draw/lv_draw_rect.c ****                 grad_map[i] = grad_get(dsc, coords_w, i);
 6662              		.loc 1 206 13 view .LVU2505
 206:lvgl/src/draw/lv_draw_rect.c ****                 grad_map[i] = grad_get(dsc, coords_w, i);
 6663              		.loc 1 206 19 is_stmt 0 view .LVU2506
 6664 01f6 0021     		movs	r1, #0
 6665 01f8 CDF814A0 		str	r10, [sp, #20]
 6666 01fc CDF83C90 		str	r9, [sp, #60]
 6667 0200 8146     		mov	r9, r0
 6668              	.LVL604:
 206:lvgl/src/draw/lv_draw_rect.c ****                 grad_map[i] = grad_get(dsc, coords_w, i);
 6669              		.loc 1 206 13 view .LVU2507
 6670 0202 03E0     		b	.L287
 6671              	.LVL605:
 6672              	.L330:
 6673              	.LBB384:
 6674              	.LBB385:
 525:lvgl/src/draw/lv_draw_rect.c **** 
 6675              		.loc 1 525 18 is_stmt 1 view .LVU2508
 525:lvgl/src/draw/lv_draw_rect.c **** 
 6676              		.loc 1 525 28 is_stmt 0 view .LVU2509
 6677 0204 7368     		ldr	r3, [r6, #4]
 6678              	.LVL606:
 6679              	.L289:
 525:lvgl/src/draw/lv_draw_rect.c **** 
 6680              		.loc 1 525 28 view .LVU2510
 6681              	.LBE385:
 6682              	.LBE384:
 207:lvgl/src/draw/lv_draw_rect.c ****             }
 6683              		.loc 1 207 31 view .LVU2511
 6684 0206 CEF80030 		str	r3, [lr]
 206:lvgl/src/draw/lv_draw_rect.c ****                 grad_map[i] = grad_get(dsc, coords_w, i);
 6685              		.loc 1 206 38 is_stmt 1 view .LVU2512
 206:lvgl/src/draw/lv_draw_rect.c ****                 grad_map[i] = grad_get(dsc, coords_w, i);
 6686              		.loc 1 206 39 is_stmt 0 view .LVU2513
 6687 020a 0131     		adds	r1, r1, #1
 6688              	.LVL607:
 6689              	.L287:
 206:lvgl/src/draw/lv_draw_rect.c ****                 grad_map[i] = grad_get(dsc, coords_w, i);
 6690              		.loc 1 206 24 is_stmt 1 discriminator 1 view .LVU2514
 206:lvgl/src/draw/lv_draw_rect.c ****                 grad_map[i] = grad_get(dsc, coords_w, i);
 6691              		.loc 1 206 13 is_stmt 0 discriminator 1 view .LVU2515
 6692 020c A142     		cmp	r1, r4
 6693 020e 54DA     		bge	.L329
 207:lvgl/src/draw/lv_draw_rect.c ****             }
 6694              		.loc 1 207 17 is_stmt 1 discriminator 3 view .LVU2516
 207:lvgl/src/draw/lv_draw_rect.c ****             }
 6695              		.loc 1 207 31 is_stmt 0 discriminator 3 view .LVU2517
 6696 0210 0AB2     		sxth	r2, r1
 207:lvgl/src/draw/lv_draw_rect.c ****             }
 6697              		.loc 1 207 25 discriminator 3 view .LVU2518
 6698 0212 09EB810E 		add	lr, r9, r1, lsl #2
 6699              	.LVL608:
 6700              	.LBB389:
 6701              	.LBI384:
 522:lvgl/src/draw/lv_draw_rect.c **** {
 6702              		.loc 1 522 48 is_stmt 1 discriminator 3 view .LVU2519
 6703              	.LBB388:
ARM GAS  /var/folders/k2/cd9bl_j17z77g23y6ffqb_400000gn/T//cc0jKSMI.s 			page 185


 524:lvgl/src/draw/lv_draw_rect.c ****     if(i <= min) return dsc->bg_color;
 6704              		.loc 1 524 5 discriminator 3 view .LVU2520
 524:lvgl/src/draw/lv_draw_rect.c ****     if(i <= min) return dsc->bg_color;
 6705              		.loc 1 524 23 is_stmt 0 discriminator 3 view .LVU2521
 6706 0216 307B     		ldrb	r0, [r6, #12]	@ zero_extendqisi2
 524:lvgl/src/draw/lv_draw_rect.c ****     if(i <= min) return dsc->bg_color;
 6707              		.loc 1 524 44 discriminator 3 view .LVU2522
 6708 0218 04FB00F3 		mul	r3, r4, r0
 524:lvgl/src/draw/lv_draw_rect.c ****     if(i <= min) return dsc->bg_color;
 6709              		.loc 1 524 13 discriminator 3 view .LVU2523
 6710 021c 1F12     		asrs	r7, r3, #8
 6711              	.LVL609:
 525:lvgl/src/draw/lv_draw_rect.c **** 
 6712              		.loc 1 525 5 is_stmt 1 discriminator 3 view .LVU2524
 525:lvgl/src/draw/lv_draw_rect.c **** 
 6713              		.loc 1 525 7 is_stmt 0 discriminator 3 view .LVU2525
 6714 021e B2EB232F 		cmp	r2, r3, asr #8
 6715 0222 EFDD     		ble	.L330
 527:lvgl/src/draw/lv_draw_rect.c ****     if(i >= max) return dsc->bg_grad_color;
 6716              		.loc 1 527 5 is_stmt 1 view .LVU2526
 527:lvgl/src/draw/lv_draw_rect.c ****     if(i >= max) return dsc->bg_grad_color;
 6717              		.loc 1 527 23 is_stmt 0 view .LVU2527
 6718 0224 737B     		ldrb	r3, [r6, #13]	@ zero_extendqisi2
 527:lvgl/src/draw/lv_draw_rect.c ****     if(i >= max) return dsc->bg_grad_color;
 6719              		.loc 1 527 44 view .LVU2528
 6720 0226 03FB04FC 		mul	ip, r3, r4
 6721              	.LVL610:
 528:lvgl/src/draw/lv_draw_rect.c **** 
 6722              		.loc 1 528 5 is_stmt 1 view .LVU2529
 528:lvgl/src/draw/lv_draw_rect.c **** 
 6723              		.loc 1 528 7 is_stmt 0 view .LVU2530
 6724 022a B2EB2C2F 		cmp	r2, ip, asr #8
 6725 022e 42DA     		bge	.L331
 530:lvgl/src/draw/lv_draw_rect.c ****     d = (s * d) >> 8;
 6726              		.loc 1 530 5 is_stmt 1 view .LVU2531
 530:lvgl/src/draw/lv_draw_rect.c ****     d = (s * d) >> 8;
 6727              		.loc 1 530 13 is_stmt 0 view .LVU2532
 6728 0230 1B1A     		subs	r3, r3, r0
 6729              	.LVL611:
 531:lvgl/src/draw/lv_draw_rect.c ****     i -= min;
 6730              		.loc 1 531 5 is_stmt 1 view .LVU2533
 531:lvgl/src/draw/lv_draw_rect.c ****     i -= min;
 6731              		.loc 1 531 12 is_stmt 0 view .LVU2534
 6732 0232 04FB03F3 		mul	r3, r4, r3
 6733              	.LVL612:
 531:lvgl/src/draw/lv_draw_rect.c ****     i -= min;
 6734              		.loc 1 531 7 view .LVU2535
 6735 0236 1812     		asrs	r0, r3, #8
 6736              	.LVL613:
 532:lvgl/src/draw/lv_draw_rect.c ****     lv_opa_t mix = (i * 255) / d;
 6737              		.loc 1 532 5 is_stmt 1 view .LVU2536
 532:lvgl/src/draw/lv_draw_rect.c ****     lv_opa_t mix = (i * 255) / d;
 6738              		.loc 1 532 7 is_stmt 0 view .LVU2537
 6739 0238 D21B     		subs	r2, r2, r7
 6740              	.LVL614:
 532:lvgl/src/draw/lv_draw_rect.c ****     lv_opa_t mix = (i * 255) / d;
 6741              		.loc 1 532 7 view .LVU2538
ARM GAS  /var/folders/k2/cd9bl_j17z77g23y6ffqb_400000gn/T//cc0jKSMI.s 			page 186


 6742 023a 12B2     		sxth	r2, r2
 6743              	.LVL615:
 533:lvgl/src/draw/lv_draw_rect.c ****     return lv_color_mix(dsc->bg_grad_color, dsc->bg_color, mix);
 6744              		.loc 1 533 5 is_stmt 1 view .LVU2539
 533:lvgl/src/draw/lv_draw_rect.c ****     return lv_color_mix(dsc->bg_grad_color, dsc->bg_color, mix);
 6745              		.loc 1 533 23 is_stmt 0 view .LVU2540
 6746 023c C2EB0222 		rsb	r2, r2, r2, lsl #8
 6747              	.LVL616:
 533:lvgl/src/draw/lv_draw_rect.c ****     return lv_color_mix(dsc->bg_grad_color, dsc->bg_color, mix);
 6748              		.loc 1 533 30 view .LVU2541
 6749 0240 92FBF0F3 		sdiv	r3, r2, r0
 533:lvgl/src/draw/lv_draw_rect.c ****     return lv_color_mix(dsc->bg_grad_color, dsc->bg_color, mix);
 6750              		.loc 1 533 14 view .LVU2542
 6751 0244 DBB2     		uxtb	r3, r3
 6752              	.LVL617:
 534:lvgl/src/draw/lv_draw_rect.c **** }
 6753              		.loc 1 534 5 is_stmt 1 view .LVU2543
 6754 0246 B768     		ldr	r7, [r6, #8]
 6755              	.LVL618:
 534:lvgl/src/draw/lv_draw_rect.c **** }
 6756              		.loc 1 534 5 is_stmt 0 view .LVU2544
 6757 0248 D6F804C0 		ldr	ip, [r6, #4]
 6758              	.LVL619:
 6759              	.LBB386:
 6760              	.LBI386:
 6761              		.file 3 "lvgl/src/draw/../misc/lv_color.h"
   1:lvgl/src/draw/../misc/lv_color.h **** /**
   2:lvgl/src/draw/../misc/lv_color.h ****  * @file lv_color.h
   3:lvgl/src/draw/../misc/lv_color.h ****  *
   4:lvgl/src/draw/../misc/lv_color.h ****  */
   5:lvgl/src/draw/../misc/lv_color.h **** 
   6:lvgl/src/draw/../misc/lv_color.h **** #ifndef LV_COLOR_H
   7:lvgl/src/draw/../misc/lv_color.h **** #define LV_COLOR_H
   8:lvgl/src/draw/../misc/lv_color.h **** 
   9:lvgl/src/draw/../misc/lv_color.h **** #ifdef __cplusplus
  10:lvgl/src/draw/../misc/lv_color.h **** extern "C" {
  11:lvgl/src/draw/../misc/lv_color.h **** #endif
  12:lvgl/src/draw/../misc/lv_color.h **** 
  13:lvgl/src/draw/../misc/lv_color.h **** /*********************
  14:lvgl/src/draw/../misc/lv_color.h ****  *      INCLUDES
  15:lvgl/src/draw/../misc/lv_color.h ****  *********************/
  16:lvgl/src/draw/../misc/lv_color.h **** #include "../lv_conf_internal.h"
  17:lvgl/src/draw/../misc/lv_color.h **** #include "lv_math.h"
  18:lvgl/src/draw/../misc/lv_color.h **** #include "lv_types.h"
  19:lvgl/src/draw/../misc/lv_color.h **** 
  20:lvgl/src/draw/../misc/lv_color.h **** /*Error checking*/
  21:lvgl/src/draw/../misc/lv_color.h **** #if LV_COLOR_DEPTH == 24
  22:lvgl/src/draw/../misc/lv_color.h **** #error "LV_COLOR_DEPTH 24 is deprecated. Use LV_COLOR_DEPTH 32 instead (lv_conf.h)"
  23:lvgl/src/draw/../misc/lv_color.h **** #endif
  24:lvgl/src/draw/../misc/lv_color.h **** 
  25:lvgl/src/draw/../misc/lv_color.h **** #if LV_COLOR_DEPTH != 32 && LV_COLOR_SCREEN_TRANSP != 0
  26:lvgl/src/draw/../misc/lv_color.h **** #error "LV_COLOR_SCREEN_TRANSP requires LV_COLOR_DEPTH == 32. Set it in lv_conf.h"
  27:lvgl/src/draw/../misc/lv_color.h **** #endif
  28:lvgl/src/draw/../misc/lv_color.h **** 
  29:lvgl/src/draw/../misc/lv_color.h **** #if LV_COLOR_DEPTH != 16 && LV_COLOR_16_SWAP != 0
  30:lvgl/src/draw/../misc/lv_color.h **** #error "LV_COLOR_16_SWAP requires LV_COLOR_DEPTH == 16. Set it in lv_conf.h"
  31:lvgl/src/draw/../misc/lv_color.h **** #endif
ARM GAS  /var/folders/k2/cd9bl_j17z77g23y6ffqb_400000gn/T//cc0jKSMI.s 			page 187


  32:lvgl/src/draw/../misc/lv_color.h **** 
  33:lvgl/src/draw/../misc/lv_color.h **** #include <stdint.h>
  34:lvgl/src/draw/../misc/lv_color.h **** 
  35:lvgl/src/draw/../misc/lv_color.h **** /*********************
  36:lvgl/src/draw/../misc/lv_color.h ****  *      DEFINES
  37:lvgl/src/draw/../misc/lv_color.h ****  *********************/
  38:lvgl/src/draw/../misc/lv_color.h **** 
  39:lvgl/src/draw/../misc/lv_color.h **** /**
  40:lvgl/src/draw/../misc/lv_color.h ****  * Opacity percentages.
  41:lvgl/src/draw/../misc/lv_color.h ****  */
  42:lvgl/src/draw/../misc/lv_color.h **** enum {
  43:lvgl/src/draw/../misc/lv_color.h ****     LV_OPA_TRANSP = 0,
  44:lvgl/src/draw/../misc/lv_color.h ****     LV_OPA_0      = 0,
  45:lvgl/src/draw/../misc/lv_color.h ****     LV_OPA_10     = 25,
  46:lvgl/src/draw/../misc/lv_color.h ****     LV_OPA_20     = 51,
  47:lvgl/src/draw/../misc/lv_color.h ****     LV_OPA_30     = 76,
  48:lvgl/src/draw/../misc/lv_color.h ****     LV_OPA_40     = 102,
  49:lvgl/src/draw/../misc/lv_color.h ****     LV_OPA_50     = 127,
  50:lvgl/src/draw/../misc/lv_color.h ****     LV_OPA_60     = 153,
  51:lvgl/src/draw/../misc/lv_color.h ****     LV_OPA_70     = 178,
  52:lvgl/src/draw/../misc/lv_color.h ****     LV_OPA_80     = 204,
  53:lvgl/src/draw/../misc/lv_color.h ****     LV_OPA_90     = 229,
  54:lvgl/src/draw/../misc/lv_color.h ****     LV_OPA_100    = 255,
  55:lvgl/src/draw/../misc/lv_color.h ****     LV_OPA_COVER  = 255,
  56:lvgl/src/draw/../misc/lv_color.h **** };
  57:lvgl/src/draw/../misc/lv_color.h **** 
  58:lvgl/src/draw/../misc/lv_color.h **** #define LV_OPA_MIN 2    /*Opacities below this will be transparent*/
  59:lvgl/src/draw/../misc/lv_color.h **** #define LV_OPA_MAX 253  /*Opacities above this will fully cover*/
  60:lvgl/src/draw/../misc/lv_color.h **** 
  61:lvgl/src/draw/../misc/lv_color.h **** #if LV_COLOR_DEPTH == 1
  62:lvgl/src/draw/../misc/lv_color.h **** #define LV_COLOR_SIZE 8
  63:lvgl/src/draw/../misc/lv_color.h **** #elif LV_COLOR_DEPTH == 8
  64:lvgl/src/draw/../misc/lv_color.h **** #define LV_COLOR_SIZE 8
  65:lvgl/src/draw/../misc/lv_color.h **** #elif LV_COLOR_DEPTH == 16
  66:lvgl/src/draw/../misc/lv_color.h **** #define LV_COLOR_SIZE 16
  67:lvgl/src/draw/../misc/lv_color.h **** #elif LV_COLOR_DEPTH == 32
  68:lvgl/src/draw/../misc/lv_color.h **** #define LV_COLOR_SIZE 32
  69:lvgl/src/draw/../misc/lv_color.h **** #else
  70:lvgl/src/draw/../misc/lv_color.h **** #error "Invalid LV_COLOR_DEPTH in lv_conf.h! Set it to 1, 8, 16 or 32!"
  71:lvgl/src/draw/../misc/lv_color.h **** #endif
  72:lvgl/src/draw/../misc/lv_color.h **** 
  73:lvgl/src/draw/../misc/lv_color.h **** /**
  74:lvgl/src/draw/../misc/lv_color.h ****  * Adjust color mix functions rounding.
  75:lvgl/src/draw/../misc/lv_color.h ****  * GPUs might calculate color mix (blending) differently.
  76:lvgl/src/draw/../misc/lv_color.h ****  * Should be in range of 0..254
  77:lvgl/src/draw/../misc/lv_color.h ****  * 0: no adjustment, get the integer part of the result (round down)
  78:lvgl/src/draw/../misc/lv_color.h ****  * 64: round up from x.75
  79:lvgl/src/draw/../misc/lv_color.h ****  * 128: round up from half
  80:lvgl/src/draw/../misc/lv_color.h ****  * 192: round up from x.25
  81:lvgl/src/draw/../misc/lv_color.h ****  * 254: round up*/
  82:lvgl/src/draw/../misc/lv_color.h **** #ifndef LV_COLOR_MIX_ROUND_OFS
  83:lvgl/src/draw/../misc/lv_color.h **** #if LV_COLOR_DEPTH == 32
  84:lvgl/src/draw/../misc/lv_color.h **** #define LV_COLOR_MIX_ROUND_OFS 0
  85:lvgl/src/draw/../misc/lv_color.h **** #else
  86:lvgl/src/draw/../misc/lv_color.h **** #define LV_COLOR_MIX_ROUND_OFS 128
  87:lvgl/src/draw/../misc/lv_color.h **** #endif
  88:lvgl/src/draw/../misc/lv_color.h **** #endif
ARM GAS  /var/folders/k2/cd9bl_j17z77g23y6ffqb_400000gn/T//cc0jKSMI.s 			page 188


  89:lvgl/src/draw/../misc/lv_color.h **** 
  90:lvgl/src/draw/../misc/lv_color.h **** #if defined(__cplusplus) && !defined(_LV_COLOR_HAS_MODERN_CPP)
  91:lvgl/src/draw/../misc/lv_color.h **** /**
  92:lvgl/src/draw/../misc/lv_color.h **** * MSVC compiler's definition of the __cplusplus indicating 199711L regardless to C++ standard versi
  93:lvgl/src/draw/../misc/lv_color.h **** * see https://devblogs.microsoft.com/cppblog/msvc-now-correctly-reports-cplusplus
  94:lvgl/src/draw/../misc/lv_color.h **** * so we use _MSC_VER macro instead of __cplusplus
  95:lvgl/src/draw/../misc/lv_color.h **** */
  96:lvgl/src/draw/../misc/lv_color.h **** #ifdef _MSC_VER
  97:lvgl/src/draw/../misc/lv_color.h **** #if _MSC_VER >= 1900 /*Visual Studio 2015*/
  98:lvgl/src/draw/../misc/lv_color.h **** #define _LV_COLOR_HAS_MODERN_CPP 1
  99:lvgl/src/draw/../misc/lv_color.h **** #endif
 100:lvgl/src/draw/../misc/lv_color.h **** #else
 101:lvgl/src/draw/../misc/lv_color.h **** #if __cplusplus >= 201103L
 102:lvgl/src/draw/../misc/lv_color.h **** #define _LV_COLOR_HAS_MODERN_CPP 1
 103:lvgl/src/draw/../misc/lv_color.h **** #endif
 104:lvgl/src/draw/../misc/lv_color.h **** #endif
 105:lvgl/src/draw/../misc/lv_color.h **** #endif /*__cplusplus*/
 106:lvgl/src/draw/../misc/lv_color.h **** 
 107:lvgl/src/draw/../misc/lv_color.h **** #ifndef _LV_COLOR_HAS_MODERN_CPP
 108:lvgl/src/draw/../misc/lv_color.h **** #define _LV_COLOR_HAS_MODERN_CPP 0
 109:lvgl/src/draw/../misc/lv_color.h **** #endif
 110:lvgl/src/draw/../misc/lv_color.h **** 
 111:lvgl/src/draw/../misc/lv_color.h **** #if _LV_COLOR_HAS_MODERN_CPP
 112:lvgl/src/draw/../misc/lv_color.h **** /*Fix msvc compiler error C4576 inside C++ code*/
 113:lvgl/src/draw/../misc/lv_color.h **** #define _LV_COLOR_MAKE_TYPE_HELPER lv_color_t
 114:lvgl/src/draw/../misc/lv_color.h **** #else
 115:lvgl/src/draw/../misc/lv_color.h **** #define _LV_COLOR_MAKE_TYPE_HELPER (lv_color_t)
 116:lvgl/src/draw/../misc/lv_color.h **** #endif
 117:lvgl/src/draw/../misc/lv_color.h **** 
 118:lvgl/src/draw/../misc/lv_color.h **** /*---------------------------------------
 119:lvgl/src/draw/../misc/lv_color.h ****  * Macros for all existing color depths
 120:lvgl/src/draw/../misc/lv_color.h ****  * to set/get values of the color channels
 121:lvgl/src/draw/../misc/lv_color.h ****  *------------------------------------------*/
 122:lvgl/src/draw/../misc/lv_color.h **** # define LV_COLOR_SET_R1(c, v) (c).ch.red = (uint8_t)((v) & 0x1)
 123:lvgl/src/draw/../misc/lv_color.h **** # define LV_COLOR_SET_G1(c, v) (c).ch.green = (uint8_t)((v) & 0x1)
 124:lvgl/src/draw/../misc/lv_color.h **** # define LV_COLOR_SET_B1(c, v) (c).ch.blue = (uint8_t)((v) & 0x1)
 125:lvgl/src/draw/../misc/lv_color.h **** # define LV_COLOR_SET_A1(c, v) do {} while(0)
 126:lvgl/src/draw/../misc/lv_color.h **** 
 127:lvgl/src/draw/../misc/lv_color.h **** # define LV_COLOR_GET_R1(c) (c).ch.red
 128:lvgl/src/draw/../misc/lv_color.h **** # define LV_COLOR_GET_G1(c) (c).ch.green
 129:lvgl/src/draw/../misc/lv_color.h **** # define LV_COLOR_GET_B1(c) (c).ch.blue
 130:lvgl/src/draw/../misc/lv_color.h **** # define LV_COLOR_GET_A1(c) 0xFF
 131:lvgl/src/draw/../misc/lv_color.h **** 
 132:lvgl/src/draw/../misc/lv_color.h **** # define _LV_COLOR_ZERO_INITIALIZER1 {0x00}
 133:lvgl/src/draw/../misc/lv_color.h **** # define LV_COLOR_MAKE1(r8, g8, b8)  {(uint8_t)((b8 >> 7) | (g8 >> 7) | (r8 >> 7))}
 134:lvgl/src/draw/../misc/lv_color.h **** 
 135:lvgl/src/draw/../misc/lv_color.h **** # define LV_COLOR_SET_R8(c, v) (c).ch.red = (uint8_t)((v) & 0x7U)
 136:lvgl/src/draw/../misc/lv_color.h **** # define LV_COLOR_SET_G8(c, v) (c).ch.green = (uint8_t)((v) & 0x7U)
 137:lvgl/src/draw/../misc/lv_color.h **** # define LV_COLOR_SET_B8(c, v) (c).ch.blue = (uint8_t)((v) & 0x3U)
 138:lvgl/src/draw/../misc/lv_color.h **** # define LV_COLOR_SET_A8(c, v) do {} while(0)
 139:lvgl/src/draw/../misc/lv_color.h **** 
 140:lvgl/src/draw/../misc/lv_color.h **** # define LV_COLOR_GET_R8(c) (c).ch.red
 141:lvgl/src/draw/../misc/lv_color.h **** # define LV_COLOR_GET_G8(c) (c).ch.green
 142:lvgl/src/draw/../misc/lv_color.h **** # define LV_COLOR_GET_B8(c) (c).ch.blue
 143:lvgl/src/draw/../misc/lv_color.h **** # define LV_COLOR_GET_A8(c) 0xFF
 144:lvgl/src/draw/../misc/lv_color.h **** 
 145:lvgl/src/draw/../misc/lv_color.h **** # define _LV_COLOR_ZERO_INITIALIZER8 {{0x00, 0x00, 0x00}}
ARM GAS  /var/folders/k2/cd9bl_j17z77g23y6ffqb_400000gn/T//cc0jKSMI.s 			page 189


 146:lvgl/src/draw/../misc/lv_color.h **** # define LV_COLOR_MAKE8(r8, g8, b8) {{(uint8_t)((b8 >> 6) & 0x3U), (uint8_t)((g8 >> 5) & 0x7U), (ui
 147:lvgl/src/draw/../misc/lv_color.h **** 
 148:lvgl/src/draw/../misc/lv_color.h **** # define LV_COLOR_SET_R16(c, v) (c).ch.red = (uint8_t)((v) & 0x1FU)
 149:lvgl/src/draw/../misc/lv_color.h **** #if LV_COLOR_16_SWAP == 0
 150:lvgl/src/draw/../misc/lv_color.h **** # define LV_COLOR_SET_G16(c, v) (c).ch.green = (uint8_t)((v) & 0x3FU)
 151:lvgl/src/draw/../misc/lv_color.h **** #else
 152:lvgl/src/draw/../misc/lv_color.h **** # define LV_COLOR_SET_G16(c, v) {(c).ch.green_h = (uint8_t)(((v) >> 3) & 0x7); (c).ch.green_l = (ui
 153:lvgl/src/draw/../misc/lv_color.h **** #endif
 154:lvgl/src/draw/../misc/lv_color.h **** # define LV_COLOR_SET_B16(c, v) (c).ch.blue = (uint8_t)((v) & 0x1FU)
 155:lvgl/src/draw/../misc/lv_color.h **** # define LV_COLOR_SET_A16(c, v) do {} while(0)
 156:lvgl/src/draw/../misc/lv_color.h **** 
 157:lvgl/src/draw/../misc/lv_color.h **** # define LV_COLOR_GET_R16(c) (c).ch.red
 158:lvgl/src/draw/../misc/lv_color.h **** #if LV_COLOR_16_SWAP == 0
 159:lvgl/src/draw/../misc/lv_color.h **** # define LV_COLOR_GET_G16(c) (c).ch.green
 160:lvgl/src/draw/../misc/lv_color.h **** #else
 161:lvgl/src/draw/../misc/lv_color.h **** # define LV_COLOR_GET_G16(c) (((c).ch.green_h << 3) + (c).ch.green_l)
 162:lvgl/src/draw/../misc/lv_color.h **** #endif
 163:lvgl/src/draw/../misc/lv_color.h **** # define LV_COLOR_GET_B16(c) (c).ch.blue
 164:lvgl/src/draw/../misc/lv_color.h **** # define LV_COLOR_GET_A16(c) 0xFF
 165:lvgl/src/draw/../misc/lv_color.h **** 
 166:lvgl/src/draw/../misc/lv_color.h **** #if LV_COLOR_16_SWAP == 0
 167:lvgl/src/draw/../misc/lv_color.h **** # define _LV_COLOR_ZERO_INITIALIZER16  {{0x00, 0x00, 0x00}}
 168:lvgl/src/draw/../misc/lv_color.h **** # define LV_COLOR_MAKE16(r8, g8, b8) {{(uint8_t)((b8 >> 3) & 0x1FU), (uint8_t)((g8 >> 2) & 0x3FU), 
 169:lvgl/src/draw/../misc/lv_color.h **** #else
 170:lvgl/src/draw/../misc/lv_color.h **** # define _LV_COLOR_ZERO_INITIALIZER16 {{0x00, 0x00, 0x00, 0x00}}
 171:lvgl/src/draw/../misc/lv_color.h **** # define LV_COLOR_MAKE16(r8, g8, b8) {{(uint8_t)((g8 >> 5) & 0x7U), (uint8_t)((r8 >> 3) & 0x1FU), (
 172:lvgl/src/draw/../misc/lv_color.h **** #endif
 173:lvgl/src/draw/../misc/lv_color.h **** 
 174:lvgl/src/draw/../misc/lv_color.h **** # define LV_COLOR_SET_R32(c, v) (c).ch.red = (uint8_t)((v) & 0xFF)
 175:lvgl/src/draw/../misc/lv_color.h **** # define LV_COLOR_SET_G32(c, v) (c).ch.green = (uint8_t)((v) & 0xFF)
 176:lvgl/src/draw/../misc/lv_color.h **** # define LV_COLOR_SET_B32(c, v) (c).ch.blue = (uint8_t)((v) & 0xFF)
 177:lvgl/src/draw/../misc/lv_color.h **** # define LV_COLOR_SET_A32(c, v) (c).ch.alpha = (uint8_t)((v) & 0xFF)
 178:lvgl/src/draw/../misc/lv_color.h **** 
 179:lvgl/src/draw/../misc/lv_color.h **** # define LV_COLOR_GET_R32(c) (c).ch.red
 180:lvgl/src/draw/../misc/lv_color.h **** # define LV_COLOR_GET_G32(c) (c).ch.green
 181:lvgl/src/draw/../misc/lv_color.h **** # define LV_COLOR_GET_B32(c) (c).ch.blue
 182:lvgl/src/draw/../misc/lv_color.h **** # define LV_COLOR_GET_A32(c) (c).ch.alpha
 183:lvgl/src/draw/../misc/lv_color.h **** 
 184:lvgl/src/draw/../misc/lv_color.h **** # define _LV_COLOR_ZERO_INITIALIZER32  {{0x00, 0x00, 0x00, 0x00}}
 185:lvgl/src/draw/../misc/lv_color.h **** # define LV_COLOR_MAKE32(r8, g8, b8) {{b8, g8, r8, 0xff}} /*Fix 0xff alpha*/
 186:lvgl/src/draw/../misc/lv_color.h **** 
 187:lvgl/src/draw/../misc/lv_color.h **** /*---------------------------------------
 188:lvgl/src/draw/../misc/lv_color.h ****  * Macros for the current color depth
 189:lvgl/src/draw/../misc/lv_color.h ****  * to set/get values of the color channels
 190:lvgl/src/draw/../misc/lv_color.h ****  *------------------------------------------*/
 191:lvgl/src/draw/../misc/lv_color.h **** #define LV_COLOR_SET_R(c, v) LV_CONCAT(LV_COLOR_SET_R, LV_COLOR_DEPTH)(c, v)
 192:lvgl/src/draw/../misc/lv_color.h **** #define LV_COLOR_SET_G(c, v) LV_CONCAT(LV_COLOR_SET_G, LV_COLOR_DEPTH)(c, v)
 193:lvgl/src/draw/../misc/lv_color.h **** #define LV_COLOR_SET_B(c, v) LV_CONCAT(LV_COLOR_SET_B, LV_COLOR_DEPTH)(c, v)
 194:lvgl/src/draw/../misc/lv_color.h **** #define LV_COLOR_SET_A(c, v) LV_CONCAT(LV_COLOR_SET_A, LV_COLOR_DEPTH)(c, v)
 195:lvgl/src/draw/../misc/lv_color.h **** 
 196:lvgl/src/draw/../misc/lv_color.h **** #define LV_COLOR_GET_R(c) LV_CONCAT(LV_COLOR_GET_R, LV_COLOR_DEPTH)(c)
 197:lvgl/src/draw/../misc/lv_color.h **** #define LV_COLOR_GET_G(c) LV_CONCAT(LV_COLOR_GET_G, LV_COLOR_DEPTH)(c)
 198:lvgl/src/draw/../misc/lv_color.h **** #define LV_COLOR_GET_B(c) LV_CONCAT(LV_COLOR_GET_B, LV_COLOR_DEPTH)(c)
 199:lvgl/src/draw/../misc/lv_color.h **** #define LV_COLOR_GET_A(c) LV_CONCAT(LV_COLOR_GET_A, LV_COLOR_DEPTH)(c)
 200:lvgl/src/draw/../misc/lv_color.h **** 
 201:lvgl/src/draw/../misc/lv_color.h **** #define _LV_COLOR_ZERO_INITIALIZER LV_CONCAT(_LV_COLOR_ZERO_INITIALIZER, LV_COLOR_DEPTH)
 202:lvgl/src/draw/../misc/lv_color.h **** #define LV_COLOR_MAKE(r8, g8, b8) LV_CONCAT(LV_COLOR_MAKE, LV_COLOR_DEPTH)(r8, g8, b8)
ARM GAS  /var/folders/k2/cd9bl_j17z77g23y6ffqb_400000gn/T//cc0jKSMI.s 			page 190


 203:lvgl/src/draw/../misc/lv_color.h **** 
 204:lvgl/src/draw/../misc/lv_color.h **** #define LV_UDIV255(x) ((uint32_t)((uint32_t) (x) * 0x8081) >> 0x17)
 205:lvgl/src/draw/../misc/lv_color.h **** 
 206:lvgl/src/draw/../misc/lv_color.h **** /**********************
 207:lvgl/src/draw/../misc/lv_color.h ****  *      TYPEDEFS
 208:lvgl/src/draw/../misc/lv_color.h ****  **********************/
 209:lvgl/src/draw/../misc/lv_color.h **** 
 210:lvgl/src/draw/../misc/lv_color.h **** typedef union {
 211:lvgl/src/draw/../misc/lv_color.h ****     uint8_t full; /*must be declared first to set all bits of byte via initializer list*/
 212:lvgl/src/draw/../misc/lv_color.h ****     union {
 213:lvgl/src/draw/../misc/lv_color.h ****         uint8_t blue : 1;
 214:lvgl/src/draw/../misc/lv_color.h ****         uint8_t green : 1;
 215:lvgl/src/draw/../misc/lv_color.h ****         uint8_t red : 1;
 216:lvgl/src/draw/../misc/lv_color.h ****     } ch;
 217:lvgl/src/draw/../misc/lv_color.h **** } lv_color1_t;
 218:lvgl/src/draw/../misc/lv_color.h **** 
 219:lvgl/src/draw/../misc/lv_color.h **** typedef union {
 220:lvgl/src/draw/../misc/lv_color.h ****     struct {
 221:lvgl/src/draw/../misc/lv_color.h ****         uint8_t blue : 2;
 222:lvgl/src/draw/../misc/lv_color.h ****         uint8_t green : 3;
 223:lvgl/src/draw/../misc/lv_color.h ****         uint8_t red : 3;
 224:lvgl/src/draw/../misc/lv_color.h ****     } ch;
 225:lvgl/src/draw/../misc/lv_color.h ****     uint8_t full;
 226:lvgl/src/draw/../misc/lv_color.h **** } lv_color8_t;
 227:lvgl/src/draw/../misc/lv_color.h **** 
 228:lvgl/src/draw/../misc/lv_color.h **** typedef union {
 229:lvgl/src/draw/../misc/lv_color.h ****     struct {
 230:lvgl/src/draw/../misc/lv_color.h **** #if LV_COLOR_16_SWAP == 0
 231:lvgl/src/draw/../misc/lv_color.h ****         uint16_t blue : 5;
 232:lvgl/src/draw/../misc/lv_color.h ****         uint16_t green : 6;
 233:lvgl/src/draw/../misc/lv_color.h ****         uint16_t red : 5;
 234:lvgl/src/draw/../misc/lv_color.h **** #else
 235:lvgl/src/draw/../misc/lv_color.h ****         uint16_t green_h : 3;
 236:lvgl/src/draw/../misc/lv_color.h ****         uint16_t red : 5;
 237:lvgl/src/draw/../misc/lv_color.h ****         uint16_t blue : 5;
 238:lvgl/src/draw/../misc/lv_color.h ****         uint16_t green_l : 3;
 239:lvgl/src/draw/../misc/lv_color.h **** #endif
 240:lvgl/src/draw/../misc/lv_color.h ****     } ch;
 241:lvgl/src/draw/../misc/lv_color.h ****     uint16_t full;
 242:lvgl/src/draw/../misc/lv_color.h **** } lv_color16_t;
 243:lvgl/src/draw/../misc/lv_color.h **** 
 244:lvgl/src/draw/../misc/lv_color.h **** typedef union {
 245:lvgl/src/draw/../misc/lv_color.h ****     struct {
 246:lvgl/src/draw/../misc/lv_color.h ****         uint8_t blue;
 247:lvgl/src/draw/../misc/lv_color.h ****         uint8_t green;
 248:lvgl/src/draw/../misc/lv_color.h ****         uint8_t red;
 249:lvgl/src/draw/../misc/lv_color.h ****         uint8_t alpha;
 250:lvgl/src/draw/../misc/lv_color.h ****     } ch;
 251:lvgl/src/draw/../misc/lv_color.h ****     uint32_t full;
 252:lvgl/src/draw/../misc/lv_color.h **** } lv_color32_t;
 253:lvgl/src/draw/../misc/lv_color.h **** 
 254:lvgl/src/draw/../misc/lv_color.h **** typedef LV_CONCAT3(uint, LV_COLOR_SIZE, _t) lv_color_int_t;
 255:lvgl/src/draw/../misc/lv_color.h **** typedef LV_CONCAT3(lv_color, LV_COLOR_DEPTH, _t) lv_color_t;
 256:lvgl/src/draw/../misc/lv_color.h **** 
 257:lvgl/src/draw/../misc/lv_color.h **** typedef struct {
 258:lvgl/src/draw/../misc/lv_color.h ****     uint16_t h;
 259:lvgl/src/draw/../misc/lv_color.h ****     uint8_t s;
ARM GAS  /var/folders/k2/cd9bl_j17z77g23y6ffqb_400000gn/T//cc0jKSMI.s 			page 191


 260:lvgl/src/draw/../misc/lv_color.h ****     uint8_t v;
 261:lvgl/src/draw/../misc/lv_color.h **** } lv_color_hsv_t;
 262:lvgl/src/draw/../misc/lv_color.h **** 
 263:lvgl/src/draw/../misc/lv_color.h **** //! @cond Doxygen_Suppress
 264:lvgl/src/draw/../misc/lv_color.h **** /*No idea where the guard is required but else throws warnings in the docs*/
 265:lvgl/src/draw/../misc/lv_color.h **** typedef uint8_t lv_opa_t;
 266:lvgl/src/draw/../misc/lv_color.h **** //! @endcond
 267:lvgl/src/draw/../misc/lv_color.h **** 
 268:lvgl/src/draw/../misc/lv_color.h **** struct _lv_color_filter_dsc_t;
 269:lvgl/src/draw/../misc/lv_color.h **** 
 270:lvgl/src/draw/../misc/lv_color.h **** typedef lv_color_t (*lv_color_filter_cb_t)(const struct _lv_color_filter_dsc_t *, lv_color_t, lv_op
 271:lvgl/src/draw/../misc/lv_color.h **** 
 272:lvgl/src/draw/../misc/lv_color.h **** typedef struct _lv_color_filter_dsc_t {
 273:lvgl/src/draw/../misc/lv_color.h ****     lv_color_filter_cb_t filter_cb;
 274:lvgl/src/draw/../misc/lv_color.h ****     void * user_data;
 275:lvgl/src/draw/../misc/lv_color.h **** }lv_color_filter_dsc_t;
 276:lvgl/src/draw/../misc/lv_color.h **** 
 277:lvgl/src/draw/../misc/lv_color.h **** 
 278:lvgl/src/draw/../misc/lv_color.h **** typedef enum {
 279:lvgl/src/draw/../misc/lv_color.h ****     LV_PALETTE_RED,
 280:lvgl/src/draw/../misc/lv_color.h ****     LV_PALETTE_PINK,
 281:lvgl/src/draw/../misc/lv_color.h ****     LV_PALETTE_PURPLE,
 282:lvgl/src/draw/../misc/lv_color.h ****     LV_PALETTE_DEEP_PURPLE,
 283:lvgl/src/draw/../misc/lv_color.h ****     LV_PALETTE_INDIGO,
 284:lvgl/src/draw/../misc/lv_color.h ****     LV_PALETTE_BLUE,
 285:lvgl/src/draw/../misc/lv_color.h ****     LV_PALETTE_LIGHT_BLUE,
 286:lvgl/src/draw/../misc/lv_color.h ****     LV_PALETTE_CYAN,
 287:lvgl/src/draw/../misc/lv_color.h ****     LV_PALETTE_TEAL,
 288:lvgl/src/draw/../misc/lv_color.h ****     LV_PALETTE_GREEN,
 289:lvgl/src/draw/../misc/lv_color.h ****     LV_PALETTE_LIGHT_GREEN,
 290:lvgl/src/draw/../misc/lv_color.h ****     LV_PALETTE_LIME,
 291:lvgl/src/draw/../misc/lv_color.h ****     LV_PALETTE_YELLOW,
 292:lvgl/src/draw/../misc/lv_color.h ****     LV_PALETTE_AMBER,
 293:lvgl/src/draw/../misc/lv_color.h ****     LV_PALETTE_ORANGE,
 294:lvgl/src/draw/../misc/lv_color.h ****     LV_PALETTE_DEEP_ORANGE,
 295:lvgl/src/draw/../misc/lv_color.h ****     LV_PALETTE_BROWN,
 296:lvgl/src/draw/../misc/lv_color.h ****     LV_PALETTE_BLUE_GREY,
 297:lvgl/src/draw/../misc/lv_color.h ****     LV_PALETTE_GREY,
 298:lvgl/src/draw/../misc/lv_color.h ****     _LV_PALETTE_LAST,
 299:lvgl/src/draw/../misc/lv_color.h ****     LV_PALETTE_NONE = 0xff,
 300:lvgl/src/draw/../misc/lv_color.h **** }lv_palette_t;
 301:lvgl/src/draw/../misc/lv_color.h **** 
 302:lvgl/src/draw/../misc/lv_color.h **** /**********************
 303:lvgl/src/draw/../misc/lv_color.h ****  * GLOBAL PROTOTYPES
 304:lvgl/src/draw/../misc/lv_color.h ****  **********************/
 305:lvgl/src/draw/../misc/lv_color.h **** 
 306:lvgl/src/draw/../misc/lv_color.h **** /*In color conversations:
 307:lvgl/src/draw/../misc/lv_color.h ****  * - When converting to bigger color type the LSB weight of 1 LSB is calculated
 308:lvgl/src/draw/../misc/lv_color.h ****  *   E.g. 16 bit Red has 5 bits
 309:lvgl/src/draw/../misc/lv_color.h ****  *         8 bit Red has 3 bits
 310:lvgl/src/draw/../misc/lv_color.h ****  *        ----------------------
 311:lvgl/src/draw/../misc/lv_color.h ****  *        8 bit red LSB = (2^5 - 1) / (2^3 - 1) = 31 / 7 = 4
 312:lvgl/src/draw/../misc/lv_color.h ****  *
 313:lvgl/src/draw/../misc/lv_color.h ****  * - When calculating to smaller color type simply shift out the LSBs
 314:lvgl/src/draw/../misc/lv_color.h ****  *   E.g.  8 bit Red has 3 bits
 315:lvgl/src/draw/../misc/lv_color.h ****  *        16 bit Red has 5 bits
 316:lvgl/src/draw/../misc/lv_color.h ****  *        ----------------------
ARM GAS  /var/folders/k2/cd9bl_j17z77g23y6ffqb_400000gn/T//cc0jKSMI.s 			page 192


 317:lvgl/src/draw/../misc/lv_color.h ****  *         Shift right with 5 - 3 = 2
 318:lvgl/src/draw/../misc/lv_color.h ****  */
 319:lvgl/src/draw/../misc/lv_color.h **** static inline uint8_t lv_color_to1(lv_color_t color)
 320:lvgl/src/draw/../misc/lv_color.h **** {
 321:lvgl/src/draw/../misc/lv_color.h **** #if LV_COLOR_DEPTH == 1
 322:lvgl/src/draw/../misc/lv_color.h ****     return color.full;
 323:lvgl/src/draw/../misc/lv_color.h **** #elif LV_COLOR_DEPTH == 8
 324:lvgl/src/draw/../misc/lv_color.h ****     if((LV_COLOR_GET_R(color) & 0x4) || (LV_COLOR_GET_G(color) & 0x4) || (LV_COLOR_GET_B(color) & 0
 325:lvgl/src/draw/../misc/lv_color.h ****         return 1;
 326:lvgl/src/draw/../misc/lv_color.h ****     }
 327:lvgl/src/draw/../misc/lv_color.h ****     else {
 328:lvgl/src/draw/../misc/lv_color.h ****         return 0;
 329:lvgl/src/draw/../misc/lv_color.h ****     }
 330:lvgl/src/draw/../misc/lv_color.h **** #elif LV_COLOR_DEPTH == 16
 331:lvgl/src/draw/../misc/lv_color.h ****     if((LV_COLOR_GET_R(color) & 0x10) || (LV_COLOR_GET_G(color) & 0x20) || (LV_COLOR_GET_B(color) &
 332:lvgl/src/draw/../misc/lv_color.h ****         return 1;
 333:lvgl/src/draw/../misc/lv_color.h ****     }
 334:lvgl/src/draw/../misc/lv_color.h ****     else {
 335:lvgl/src/draw/../misc/lv_color.h ****         return 0;
 336:lvgl/src/draw/../misc/lv_color.h ****     }
 337:lvgl/src/draw/../misc/lv_color.h **** #elif LV_COLOR_DEPTH == 32
 338:lvgl/src/draw/../misc/lv_color.h ****     if((LV_COLOR_GET_R(color) & 0x80) || (LV_COLOR_GET_G(color) & 0x80) || (LV_COLOR_GET_B(color) &
 339:lvgl/src/draw/../misc/lv_color.h ****         return 1;
 340:lvgl/src/draw/../misc/lv_color.h ****     }
 341:lvgl/src/draw/../misc/lv_color.h ****     else {
 342:lvgl/src/draw/../misc/lv_color.h ****         return 0;
 343:lvgl/src/draw/../misc/lv_color.h ****     }
 344:lvgl/src/draw/../misc/lv_color.h **** #endif
 345:lvgl/src/draw/../misc/lv_color.h **** }
 346:lvgl/src/draw/../misc/lv_color.h **** 
 347:lvgl/src/draw/../misc/lv_color.h **** static inline uint8_t lv_color_to8(lv_color_t color)
 348:lvgl/src/draw/../misc/lv_color.h **** {
 349:lvgl/src/draw/../misc/lv_color.h **** #if LV_COLOR_DEPTH == 1
 350:lvgl/src/draw/../misc/lv_color.h ****     if(color.full == 0)
 351:lvgl/src/draw/../misc/lv_color.h ****         return 0;
 352:lvgl/src/draw/../misc/lv_color.h ****     else
 353:lvgl/src/draw/../misc/lv_color.h ****         return 0xFF;
 354:lvgl/src/draw/../misc/lv_color.h **** #elif LV_COLOR_DEPTH == 8
 355:lvgl/src/draw/../misc/lv_color.h ****     return color.full;
 356:lvgl/src/draw/../misc/lv_color.h **** #elif LV_COLOR_DEPTH == 16
 357:lvgl/src/draw/../misc/lv_color.h ****     lv_color8_t ret;
 358:lvgl/src/draw/../misc/lv_color.h ****     LV_COLOR_SET_R8(ret, LV_COLOR_GET_R(color) >> 2); /*5 - 3  = 2*/
 359:lvgl/src/draw/../misc/lv_color.h ****     LV_COLOR_SET_G8(ret, LV_COLOR_GET_G(color) >> 3); /*6 - 3  = 3*/
 360:lvgl/src/draw/../misc/lv_color.h ****     LV_COLOR_SET_B8(ret, LV_COLOR_GET_B(color) >> 3); /*5 - 2  = 3*/
 361:lvgl/src/draw/../misc/lv_color.h ****     return ret.full;
 362:lvgl/src/draw/../misc/lv_color.h **** #elif LV_COLOR_DEPTH == 32
 363:lvgl/src/draw/../misc/lv_color.h ****     lv_color8_t ret;
 364:lvgl/src/draw/../misc/lv_color.h ****     LV_COLOR_SET_R8(ret, LV_COLOR_GET_R(color) >> 5); /*8 - 3  = 5*/
 365:lvgl/src/draw/../misc/lv_color.h ****     LV_COLOR_SET_G8(ret, LV_COLOR_GET_G(color) >> 5); /*8 - 3  = 5*/
 366:lvgl/src/draw/../misc/lv_color.h ****     LV_COLOR_SET_B8(ret, LV_COLOR_GET_B(color) >> 6); /*8 - 2  = 6*/
 367:lvgl/src/draw/../misc/lv_color.h ****     return ret.full;
 368:lvgl/src/draw/../misc/lv_color.h **** #endif
 369:lvgl/src/draw/../misc/lv_color.h **** }
 370:lvgl/src/draw/../misc/lv_color.h **** 
 371:lvgl/src/draw/../misc/lv_color.h **** static inline uint16_t lv_color_to16(lv_color_t color)
 372:lvgl/src/draw/../misc/lv_color.h **** {
 373:lvgl/src/draw/../misc/lv_color.h **** #if LV_COLOR_DEPTH == 1
ARM GAS  /var/folders/k2/cd9bl_j17z77g23y6ffqb_400000gn/T//cc0jKSMI.s 			page 193


 374:lvgl/src/draw/../misc/lv_color.h ****     if(color.full == 0)
 375:lvgl/src/draw/../misc/lv_color.h ****         return 0;
 376:lvgl/src/draw/../misc/lv_color.h ****     else
 377:lvgl/src/draw/../misc/lv_color.h ****         return 0xFFFF;
 378:lvgl/src/draw/../misc/lv_color.h **** #elif LV_COLOR_DEPTH == 8
 379:lvgl/src/draw/../misc/lv_color.h ****     lv_color16_t ret;
 380:lvgl/src/draw/../misc/lv_color.h ****     LV_COLOR_SET_R16(ret, LV_COLOR_GET_R(color) * 4);  /*(2^5 - 1)/(2^3 - 1) = 31/7 = 4*/
 381:lvgl/src/draw/../misc/lv_color.h ****     LV_COLOR_SET_G16(ret, LV_COLOR_GET_G(color) * 9);  /*(2^6 - 1)/(2^3 - 1) = 63/7 = 9*/
 382:lvgl/src/draw/../misc/lv_color.h ****     LV_COLOR_SET_B16(ret, LV_COLOR_GET_B(color) * 10); /*(2^5 - 1)/(2^2 - 1) = 31/3 = 10*/
 383:lvgl/src/draw/../misc/lv_color.h ****     return ret.full;
 384:lvgl/src/draw/../misc/lv_color.h **** #elif LV_COLOR_DEPTH == 16
 385:lvgl/src/draw/../misc/lv_color.h ****     return color.full;
 386:lvgl/src/draw/../misc/lv_color.h **** #elif LV_COLOR_DEPTH == 32
 387:lvgl/src/draw/../misc/lv_color.h ****     lv_color16_t ret;
 388:lvgl/src/draw/../misc/lv_color.h ****     LV_COLOR_SET_R16(ret, LV_COLOR_GET_R(color) >> 3); /*8 - 5  = 3*/
 389:lvgl/src/draw/../misc/lv_color.h ****     LV_COLOR_SET_G16(ret, LV_COLOR_GET_G(color) >> 2); /*8 - 6  = 2*/
 390:lvgl/src/draw/../misc/lv_color.h ****     LV_COLOR_SET_B16(ret, LV_COLOR_GET_B(color) >> 3); /*8 - 5  = 3*/
 391:lvgl/src/draw/../misc/lv_color.h ****     return ret.full;
 392:lvgl/src/draw/../misc/lv_color.h **** #endif
 393:lvgl/src/draw/../misc/lv_color.h **** }
 394:lvgl/src/draw/../misc/lv_color.h **** 
 395:lvgl/src/draw/../misc/lv_color.h **** static inline uint32_t lv_color_to32(lv_color_t color)
 396:lvgl/src/draw/../misc/lv_color.h **** {
 397:lvgl/src/draw/../misc/lv_color.h **** #if LV_COLOR_DEPTH == 1
 398:lvgl/src/draw/../misc/lv_color.h ****     if(color.full == 0)
 399:lvgl/src/draw/../misc/lv_color.h ****         return 0xFF000000;
 400:lvgl/src/draw/../misc/lv_color.h ****     else
 401:lvgl/src/draw/../misc/lv_color.h ****         return 0xFFFFFFFF;
 402:lvgl/src/draw/../misc/lv_color.h **** #elif LV_COLOR_DEPTH == 8
 403:lvgl/src/draw/../misc/lv_color.h ****     lv_color32_t ret;
 404:lvgl/src/draw/../misc/lv_color.h ****     LV_COLOR_SET_R32(ret, LV_COLOR_GET_R(color) * 36); /*(2^8 - 1)/(2^3 - 1) = 255/7 = 36*/
 405:lvgl/src/draw/../misc/lv_color.h ****     LV_COLOR_SET_G32(ret, LV_COLOR_GET_G(color) * 36); /*(2^8 - 1)/(2^3 - 1) = 255/7 = 36*/
 406:lvgl/src/draw/../misc/lv_color.h ****     LV_COLOR_SET_B32(ret, LV_COLOR_GET_B(color) * 85); /*(2^8 - 1)/(2^2 - 1) = 255/3 = 85*/
 407:lvgl/src/draw/../misc/lv_color.h ****     LV_COLOR_SET_A32(ret, 0xFF);
 408:lvgl/src/draw/../misc/lv_color.h ****     return ret.full;
 409:lvgl/src/draw/../misc/lv_color.h **** #elif LV_COLOR_DEPTH == 16
 410:lvgl/src/draw/../misc/lv_color.h ****     /**
 411:lvgl/src/draw/../misc/lv_color.h ****      * The floating point math for conversion is:
 412:lvgl/src/draw/../misc/lv_color.h ****      *  valueto = valuefrom * ( (2^bitsto - 1) / (float)(2^bitsfrom - 1) )
 413:lvgl/src/draw/../misc/lv_color.h ****      * The faster integer math for conversion is:
 414:lvgl/src/draw/../misc/lv_color.h ****      *  valueto = ( valuefrom * multiplier + adder ) >> divisor
 415:lvgl/src/draw/../misc/lv_color.h ****      *   multiplier = FLOOR( ( (2^bitsto - 1) << divisor ) / (float)(2^bitsfrom - 1) )
 416:lvgl/src/draw/../misc/lv_color.h ****      *
 417:lvgl/src/draw/../misc/lv_color.h ****      * Find the first divisor where ( adder >> divisor ) <= 0
 418:lvgl/src/draw/../misc/lv_color.h ****      *
 419:lvgl/src/draw/../misc/lv_color.h ****      * 5-bit to 8-bit: ( 31 * multiplier + adder ) >> divisor = 255
 420:lvgl/src/draw/../misc/lv_color.h ****      * divisor  multiplier  adder  min (0)  max (31)
 421:lvgl/src/draw/../misc/lv_color.h ****      *       0           8      7        7       255
 422:lvgl/src/draw/../misc/lv_color.h ****      *       1          16     14        7       255
 423:lvgl/src/draw/../misc/lv_color.h ****      *       2          32     28        7       255
 424:lvgl/src/draw/../misc/lv_color.h ****      *       3          65     25        3       255
 425:lvgl/src/draw/../misc/lv_color.h ****      *       4         131     19        1       255
 426:lvgl/src/draw/../misc/lv_color.h ****      *       5         263      7        0       255
 427:lvgl/src/draw/../misc/lv_color.h ****      *
 428:lvgl/src/draw/../misc/lv_color.h ****      * 6-bit to 8-bit: 255 = ( 63 * multiplier + adder ) >> divisor
 429:lvgl/src/draw/../misc/lv_color.h ****      * divisor  multiplier  adder  min (0)  max (63)
 430:lvgl/src/draw/../misc/lv_color.h ****      *       0           4      3        3       255
ARM GAS  /var/folders/k2/cd9bl_j17z77g23y6ffqb_400000gn/T//cc0jKSMI.s 			page 194


 431:lvgl/src/draw/../misc/lv_color.h ****      *       1           8      6        3       255
 432:lvgl/src/draw/../misc/lv_color.h ****      *       2          16     12        3       255
 433:lvgl/src/draw/../misc/lv_color.h ****      *       3          32     24        3       255
 434:lvgl/src/draw/../misc/lv_color.h ****      *       4          64     48        3       255
 435:lvgl/src/draw/../misc/lv_color.h ****      *       5         129     33        1       255
 436:lvgl/src/draw/../misc/lv_color.h ****      *       6         259      3        0       255
 437:lvgl/src/draw/../misc/lv_color.h ****      */
 438:lvgl/src/draw/../misc/lv_color.h **** 
 439:lvgl/src/draw/../misc/lv_color.h ****     lv_color32_t ret;
 440:lvgl/src/draw/../misc/lv_color.h ****     LV_COLOR_SET_R32(ret, (LV_COLOR_GET_R(color) * 263 + 7) >> 5);
 441:lvgl/src/draw/../misc/lv_color.h ****     LV_COLOR_SET_G32(ret, (LV_COLOR_GET_G(color) * 259 + 3) >> 6);
 442:lvgl/src/draw/../misc/lv_color.h ****     LV_COLOR_SET_B32(ret, (LV_COLOR_GET_B(color) * 263 + 7) >> 5);
 443:lvgl/src/draw/../misc/lv_color.h ****     LV_COLOR_SET_A32(ret, 0xFF);
 444:lvgl/src/draw/../misc/lv_color.h ****     return ret.full;
 445:lvgl/src/draw/../misc/lv_color.h **** #elif LV_COLOR_DEPTH == 32
 446:lvgl/src/draw/../misc/lv_color.h ****     return color.full;
 447:lvgl/src/draw/../misc/lv_color.h **** #endif
 448:lvgl/src/draw/../misc/lv_color.h **** }
 449:lvgl/src/draw/../misc/lv_color.h **** 
 450:lvgl/src/draw/../misc/lv_color.h **** //! @cond Doxygen_Suppress
 451:lvgl/src/draw/../misc/lv_color.h **** 
 452:lvgl/src/draw/../misc/lv_color.h **** /**
 453:lvgl/src/draw/../misc/lv_color.h ****  * Mix two colors with a given ratio.
 454:lvgl/src/draw/../misc/lv_color.h ****  * @param c1 the first color to mix (usually the foreground)
 455:lvgl/src/draw/../misc/lv_color.h ****  * @param c2 the second color to mix (usually the background)
 456:lvgl/src/draw/../misc/lv_color.h ****  * @param mix The ratio of the colors. 0: full `c2`, 255: full `c1`, 127: half `c1` and half`c2`
 457:lvgl/src/draw/../misc/lv_color.h ****  * @return the mixed color
 458:lvgl/src/draw/../misc/lv_color.h ****  */
 459:lvgl/src/draw/../misc/lv_color.h **** LV_ATTRIBUTE_FAST_MEM static inline lv_color_t lv_color_mix(lv_color_t c1, lv_color_t c2, uint8_t m
 6762              		.loc 3 459 48 is_stmt 1 view .LVU2545
 6763              	.LBB387:
 460:lvgl/src/draw/../misc/lv_color.h **** {
 461:lvgl/src/draw/../misc/lv_color.h ****     lv_color_t ret;
 6764              		.loc 3 461 5 view .LVU2546
 462:lvgl/src/draw/../misc/lv_color.h **** #if LV_COLOR_DEPTH != 1
 463:lvgl/src/draw/../misc/lv_color.h ****     /*LV_COLOR_DEPTH == 8, 16 or 32*/
 464:lvgl/src/draw/../misc/lv_color.h ****     LV_COLOR_SET_R(ret, LV_UDIV255((uint16_t) LV_COLOR_GET_R(c1) * mix + LV_COLOR_GET_R(c2) *
 6765              		.loc 3 464 5 view .LVU2547
 6766              		.loc 3 464 5 is_stmt 0 view .LVU2548
 6767 024c C7F3074A 		ubfx	r10, r7, #16, #8
 6768              	.LVL620:
 6769              		.loc 3 464 5 view .LVU2549
 6770 0250 CCF30740 		ubfx	r0, ip, #16, #8
 6771              	.LVL621:
 6772              		.loc 3 464 5 view .LVU2550
 6773 0254 C3F1FF02 		rsb	r2, r3, #255
 6774 0258 02FB00F0 		mul	r0, r2, r0
 6775 025c 03FB0A00 		mla	r0, r3, r10, r0
 6776 0260 00EB002A 		add	r10, r0, r0, lsl #8
 6777 0264 00EBCA10 		add	r0, r0, r10, lsl #7
 6778 0268 C0F3C750 		ubfx	r0, r0, #23, #8
 6779 026c 60F31745 		bfi	r5, r0, #16, #8
 465:lvgl/src/draw/../misc/lv_color.h ****                                         (255 - mix) + LV_COLOR_MIX_ROUND_OFS));
 466:lvgl/src/draw/../misc/lv_color.h ****     LV_COLOR_SET_G(ret, LV_UDIV255((uint16_t) LV_COLOR_GET_G(c1) * mix + LV_COLOR_GET_G(c2) *
 6780              		.loc 3 466 5 is_stmt 1 view .LVU2551
 6781 0270 C7F3072A 		ubfx	r10, r7, #8, #8
 6782 0274 CCF30720 		ubfx	r0, ip, #8, #8
ARM GAS  /var/folders/k2/cd9bl_j17z77g23y6ffqb_400000gn/T//cc0jKSMI.s 			page 195


 6783 0278 02FB00F0 		mul	r0, r2, r0
 6784 027c 0AFB0300 		mla	r0, r10, r3, r0
 6785 0280 00EB002A 		add	r10, r0, r0, lsl #8
 6786 0284 00EBCA10 		add	r0, r0, r10, lsl #7
 6787 0288 C0F3C750 		ubfx	r0, r0, #23, #8
 6788 028c 60F30F25 		bfi	r5, r0, #8, #8
 467:lvgl/src/draw/../misc/lv_color.h ****                                         (255 - mix) + LV_COLOR_MIX_ROUND_OFS));
 468:lvgl/src/draw/../misc/lv_color.h ****     LV_COLOR_SET_B(ret, LV_UDIV255((uint16_t) LV_COLOR_GET_B(c1) * mix + LV_COLOR_GET_B(c2) *
 6789              		.loc 3 468 5 view .LVU2552
 6790 0290 FFB2     		uxtb	r7, r7
 6791              	.LVL622:
 6792              		.loc 3 468 5 is_stmt 0 view .LVU2553
 6793 0292 5FFA8CFC 		uxtb	ip, ip
 6794              	.LVL623:
 6795              		.loc 3 468 5 view .LVU2554
 6796 0296 0CFB02F2 		mul	r2, ip, r2
 6797 029a 07FB0323 		mla	r3, r7, r3, r2
 6798              	.LVL624:
 6799              		.loc 3 468 5 view .LVU2555
 6800 029e 03EB0322 		add	r2, r3, r3, lsl #8
 6801 02a2 03EBC213 		add	r3, r3, r2, lsl #7
 6802 02a6 C3F3C753 		ubfx	r3, r3, #23, #8
 6803 02aa 63F30705 		bfi	r5, r3, #0, #8
 469:lvgl/src/draw/../misc/lv_color.h ****                                         (255 - mix) + LV_COLOR_MIX_ROUND_OFS));
 470:lvgl/src/draw/../misc/lv_color.h ****     LV_COLOR_SET_A(ret, 0xFF);
 6804              		.loc 3 470 5 is_stmt 1 view .LVU2556
 6805 02ae 45F07F45 		orr	r5, r5, #-16777216
 6806              	.LVL625:
 471:lvgl/src/draw/../misc/lv_color.h **** #else
 472:lvgl/src/draw/../misc/lv_color.h ****     /*LV_COLOR_DEPTH == 1*/
 473:lvgl/src/draw/../misc/lv_color.h ****     ret.full = mix > LV_OPA_50 ? c1.full : c2.full;
 474:lvgl/src/draw/../misc/lv_color.h **** #endif
 475:lvgl/src/draw/../misc/lv_color.h **** 
 476:lvgl/src/draw/../misc/lv_color.h ****     return ret;
 6807              		.loc 3 476 5 view .LVU2557
 6808              		.loc 3 476 5 is_stmt 0 view .LVU2558
 6809 02b2 2B46     		mov	r3, r5
 6810              	.LVL626:
 6811              		.loc 3 476 5 view .LVU2559
 6812              	.LBE387:
 6813              	.LBE386:
 534:lvgl/src/draw/lv_draw_rect.c **** }
 6814              		.loc 1 534 12 view .LVU2560
 6815 02b4 A7E7     		b	.L289
 6816              	.LVL627:
 6817              	.L331:
 528:lvgl/src/draw/lv_draw_rect.c **** 
 6818              		.loc 1 528 18 is_stmt 1 view .LVU2561
 528:lvgl/src/draw/lv_draw_rect.c **** 
 6819              		.loc 1 528 28 is_stmt 0 view .LVU2562
 6820 02b6 B368     		ldr	r3, [r6, #8]
 6821 02b8 A5E7     		b	.L289
 6822              	.LVL628:
 6823              	.L329:
 528:lvgl/src/draw/lv_draw_rect.c **** 
 6824              		.loc 1 528 28 view .LVU2563
 6825 02ba DDF814A0 		ldr	r10, [sp, #20]
ARM GAS  /var/folders/k2/cd9bl_j17z77g23y6ffqb_400000gn/T//cc0jKSMI.s 			page 196


 6826 02be DDF83C90 		ldr	r9, [sp, #60]
 6827              	.LVL629:
 528:lvgl/src/draw/lv_draw_rect.c **** 
 6828              		.loc 1 528 28 view .LVU2564
 6829 02c2 58E7     		b	.L286
 6830              	.LVL630:
 6831              	.L340:
 528:lvgl/src/draw/lv_draw_rect.c **** 
 6832              		.loc 1 528 28 view .LVU2565
 6833              	.LBE388:
 6834              	.LBE389:
 6835              	.LBE383:
 6836              	.LBB390:
 231:lvgl/src/draw/lv_draw_rect.c ****                     mask_res = lv_draw_mask_apply(mask_buf, draw_buf->area.x1 + draw_area.x1, draw_
 6837              		.loc 1 231 21 is_stmt 1 view .LVU2566
 6838 02c4 0A9F     		ldr	r7, [sp, #40]
 6839 02c6 3A46     		mov	r2, r7
 6840 02c8 0499     		ldr	r1, [sp, #16]
 6841 02ca 5846     		mov	r0, fp
 6842 02cc FFF7FEFF 		bl	lv_memset
 6843              	.LVL631:
 232:lvgl/src/draw/lv_draw_rect.c ****                 }
 6844              		.loc 1 232 21 view .LVU2567
 232:lvgl/src/draw/lv_draw_rect.c ****                 }
 6845              		.loc 1 232 75 is_stmt 0 view .LVU2568
 6846 02d0 B8F81010 		ldrh	r1, [r8, #16]
 232:lvgl/src/draw/lv_draw_rect.c ****                 }
 6847              		.loc 1 232 90 view .LVU2569
 6848 02d4 BDF87030 		ldrh	r3, [sp, #112]
 232:lvgl/src/draw/lv_draw_rect.c ****                 }
 6849              		.loc 1 232 79 view .LVU2570
 6850 02d8 1944     		add	r1, r1, r3
 232:lvgl/src/draw/lv_draw_rect.c ****                 }
 6851              		.loc 1 232 109 view .LVU2571
 6852 02da B8F81220 		ldrh	r2, [r8, #18]
 232:lvgl/src/draw/lv_draw_rect.c ****                 }
 6853              		.loc 1 232 113 view .LVU2572
 6854 02de 2A44     		add	r2, r2, r5
 232:lvgl/src/draw/lv_draw_rect.c ****                 }
 6855              		.loc 1 232 32 view .LVU2573
 6856 02e0 3B46     		mov	r3, r7
 6857 02e2 12B2     		sxth	r2, r2
 6858 02e4 09B2     		sxth	r1, r1
 6859 02e6 5846     		mov	r0, fp
 6860 02e8 FFF7FEFF 		bl	lv_draw_mask_apply
 6861              	.LVL632:
 6862 02ec 0746     		mov	r7, r0
 6863              	.LVL633:
 232:lvgl/src/draw/lv_draw_rect.c ****                 }
 6864              		.loc 1 232 32 view .LVU2574
 6865 02ee 14E0     		b	.L296
 6866              	.LVL634:
 6867              	.L294:
 237:lvgl/src/draw/lv_draw_rect.c ****                 mask_res = lv_draw_mask_apply(mask_buf, draw_buf->area.x1 + draw_area.x1, draw_buf-
 6868              		.loc 1 237 17 is_stmt 1 view .LVU2575
 6869 02f0 0A9F     		ldr	r7, [sp, #40]
 6870 02f2 3A46     		mov	r2, r7
ARM GAS  /var/folders/k2/cd9bl_j17z77g23y6ffqb_400000gn/T//cc0jKSMI.s 			page 197


 6871 02f4 0499     		ldr	r1, [sp, #16]
 6872 02f6 5846     		mov	r0, fp
 6873 02f8 FFF7FEFF 		bl	lv_memset
 6874              	.LVL635:
 238:lvgl/src/draw/lv_draw_rect.c ****             }
 6875              		.loc 1 238 17 view .LVU2576
 238:lvgl/src/draw/lv_draw_rect.c ****             }
 6876              		.loc 1 238 71 is_stmt 0 view .LVU2577
 6877 02fc B8F81010 		ldrh	r1, [r8, #16]
 238:lvgl/src/draw/lv_draw_rect.c ****             }
 6878              		.loc 1 238 86 view .LVU2578
 6879 0300 BDF87030 		ldrh	r3, [sp, #112]
 238:lvgl/src/draw/lv_draw_rect.c ****             }
 6880              		.loc 1 238 75 view .LVU2579
 6881 0304 1944     		add	r1, r1, r3
 238:lvgl/src/draw/lv_draw_rect.c ****             }
 6882              		.loc 1 238 105 view .LVU2580
 6883 0306 B8F81220 		ldrh	r2, [r8, #18]
 238:lvgl/src/draw/lv_draw_rect.c ****             }
 6884              		.loc 1 238 109 view .LVU2581
 6885 030a 2A44     		add	r2, r2, r5
 238:lvgl/src/draw/lv_draw_rect.c ****             }
 6886              		.loc 1 238 28 view .LVU2582
 6887 030c 3B46     		mov	r3, r7
 6888 030e 12B2     		sxth	r2, r2
 6889 0310 09B2     		sxth	r1, r1
 6890 0312 5846     		mov	r0, fp
 6891 0314 FFF7FEFF 		bl	lv_draw_mask_apply
 6892              	.LVL636:
 6893 0318 0746     		mov	r7, r0
 6894              	.LVL637:
 6895              	.L296:
 242:lvgl/src/draw/lv_draw_rect.c ****                 opa2 = LV_OPA_COVER;
 6896              		.loc 1 242 13 is_stmt 1 view .LVU2583
 242:lvgl/src/draw/lv_draw_rect.c ****                 opa2 = LV_OPA_COVER;
 6897              		.loc 1 242 15 is_stmt 0 view .LVU2584
 6898 031a 022F     		cmp	r7, #2
 6899 031c 5CD0     		beq	.L322
 224:lvgl/src/draw/lv_draw_rect.c **** 
 6900              		.loc 1 224 18 view .LVU2585
 6901 031e 049B     		ldr	r3, [sp, #16]
 6902 0320 0593     		str	r3, [sp, #20]
 6903              	.LVL638:
 6904              	.L295:
 247:lvgl/src/draw/lv_draw_rect.c ****                 grad_color = grad_get(dsc, lv_area_get_height(&coords_bg), y - coords_bg.y1);
 6905              		.loc 1 247 13 is_stmt 1 view .LVU2586
 247:lvgl/src/draw/lv_draw_rect.c ****                 grad_color = grad_get(dsc, lv_area_get_height(&coords_bg), y - coords_bg.y1);
 6906              		.loc 1 247 15 is_stmt 0 view .LVU2587
 6907 0322 B9F1010F 		cmp	r9, #1
 6908 0326 5AD0     		beq	.L332
 6909              	.LVL639:
 6910              	.L297:
 253:lvgl/src/draw/lv_draw_rect.c ****                (y < coords_bg.y1 + rout + 1 ||
 6911              		.loc 1 253 13 is_stmt 1 view .LVU2588
 253:lvgl/src/draw/lv_draw_rect.c ****                (y < coords_bg.y1 + rout + 1 ||
 6912              		.loc 1 253 15 is_stmt 0 view .LVU2589
 6913 0328 069B     		ldr	r3, [sp, #24]
ARM GAS  /var/folders/k2/cd9bl_j17z77g23y6ffqb_400000gn/T//cc0jKSMI.s 			page 198


 6914              	.LVL640:
 253:lvgl/src/draw/lv_draw_rect.c ****                (y < coords_bg.y1 + rout + 1 ||
 6915              		.loc 1 253 15 view .LVU2590
 6916 032a 002B     		cmp	r3, #0
 6917 032c 00F0DB80 		beq	.L301
 253:lvgl/src/draw/lv_draw_rect.c ****                (y < coords_bg.y1 + rout + 1 ||
 6918              		.loc 1 253 28 discriminator 1 view .LVU2591
 6919 0330 099B     		ldr	r3, [sp, #36]
 6920 0332 002B     		cmp	r3, #0
 6921 0334 00F0D780 		beq	.L301
 254:lvgl/src/draw/lv_draw_rect.c ****                 y > coords_bg.y2 - rout - 1)) {
 6922              		.loc 1 254 30 discriminator 2 view .LVU2592
 6923 0338 BDF97A30 		ldrsh	r3, [sp, #122]
 254:lvgl/src/draw/lv_draw_rect.c ****                 y > coords_bg.y2 - rout - 1)) {
 6924              		.loc 1 254 34 discriminator 2 view .LVU2593
 6925 033c 5344     		add	r3, r3, r10
 253:lvgl/src/draw/lv_draw_rect.c ****                (y < coords_bg.y1 + rout + 1 ||
 6926              		.loc 1 253 37 discriminator 2 view .LVU2594
 6927 033e A342     		cmp	r3, r4
 6928 0340 06DA     		bge	.L302
 255:lvgl/src/draw/lv_draw_rect.c **** 
 6929              		.loc 1 255 30 view .LVU2595
 6930 0342 BDF97E30 		ldrsh	r3, [sp, #126]
 255:lvgl/src/draw/lv_draw_rect.c **** 
 6931              		.loc 1 255 34 view .LVU2596
 6932 0346 A3EB0A03 		sub	r3, r3, r10
 254:lvgl/src/draw/lv_draw_rect.c ****                 y > coords_bg.y2 - rout - 1)) {
 6933              		.loc 1 254 45 view .LVU2597
 6934 034a A342     		cmp	r3, r4
 6935 034c 00F3CB80 		bgt	.L301
 6936              	.L302:
 6937              	.LBB391:
 258:lvgl/src/draw/lv_draw_rect.c ****                 fill_area2.x1 = coords_bg.x1;
 6938              		.loc 1 258 17 is_stmt 1 view .LVU2598
 259:lvgl/src/draw/lv_draw_rect.c ****                 fill_area2.x2 = coords_bg.x1 + rout - 1;
 6939              		.loc 1 259 17 view .LVU2599
 259:lvgl/src/draw/lv_draw_rect.c ****                 fill_area2.x2 = coords_bg.x1 + rout - 1;
 6940              		.loc 1 259 42 is_stmt 0 view .LVU2600
 6941 0350 BDF97830 		ldrsh	r3, [sp, #120]
 259:lvgl/src/draw/lv_draw_rect.c ****                 fill_area2.x2 = coords_bg.x1 + rout - 1;
 6942              		.loc 1 259 31 view .LVU2601
 6943 0354 ADF84C30 		strh	r3, [sp, #76]	@ movhi
 260:lvgl/src/draw/lv_draw_rect.c ****                 fill_area2.y1 = fill_area.y1;
 6944              		.loc 1 260 17 is_stmt 1 view .LVU2602
 260:lvgl/src/draw/lv_draw_rect.c ****                 fill_area2.y1 = fill_area.y1;
 6945              		.loc 1 260 46 is_stmt 0 view .LVU2603
 6946 0358 1FFA8AF4 		uxth	r4, r10
 6947              	.LVL641:
 260:lvgl/src/draw/lv_draw_rect.c ****                 fill_area2.y1 = fill_area.y1;
 6948              		.loc 1 260 46 view .LVU2604
 6949 035c 14FA83F3 		uxtah	r3, r4, r3
 6950 0360 9BB2     		uxth	r3, r3
 260:lvgl/src/draw/lv_draw_rect.c ****                 fill_area2.y1 = fill_area.y1;
 6951              		.loc 1 260 53 view .LVU2605
 6952 0362 013B     		subs	r3, r3, #1
 260:lvgl/src/draw/lv_draw_rect.c ****                 fill_area2.y1 = fill_area.y1;
 6953              		.loc 1 260 31 view .LVU2606
ARM GAS  /var/folders/k2/cd9bl_j17z77g23y6ffqb_400000gn/T//cc0jKSMI.s 			page 199


 6954 0364 ADF85030 		strh	r3, [sp, #80]	@ movhi
 261:lvgl/src/draw/lv_draw_rect.c ****                 fill_area2.y2 = fill_area.y2;
 6955              		.loc 1 261 17 is_stmt 1 view .LVU2607
 261:lvgl/src/draw/lv_draw_rect.c ****                 fill_area2.y2 = fill_area.y2;
 6956              		.loc 1 261 42 is_stmt 0 view .LVU2608
 6957 0368 BDF94630 		ldrsh	r3, [sp, #70]
 261:lvgl/src/draw/lv_draw_rect.c ****                 fill_area2.y2 = fill_area.y2;
 6958              		.loc 1 261 31 view .LVU2609
 6959 036c ADF84E30 		strh	r3, [sp, #78]	@ movhi
 262:lvgl/src/draw/lv_draw_rect.c **** 
 6960              		.loc 1 262 17 is_stmt 1 view .LVU2610
 262:lvgl/src/draw/lv_draw_rect.c **** 
 6961              		.loc 1 262 42 is_stmt 0 view .LVU2611
 6962 0370 BDF94A30 		ldrsh	r3, [sp, #74]
 262:lvgl/src/draw/lv_draw_rect.c **** 
 6963              		.loc 1 262 31 view .LVU2612
 6964 0374 ADF85230 		strh	r3, [sp, #82]	@ movhi
 264:lvgl/src/draw/lv_draw_rect.c ****                                grad_color, mask_buf, mask_res, opa2, dsc->blend_mode);
 6965              		.loc 1 264 17 is_stmt 1 view .LVU2613
 6966 0378 B378     		ldrb	r3, [r6, #2]	@ zero_extendqisi2
 6967 037a 0293     		str	r3, [sp, #8]
 6968 037c 059B     		ldr	r3, [sp, #20]
 6969 037e 0193     		str	r3, [sp, #4]
 6970 0380 0097     		str	r7, [sp]
 6971 0382 5B46     		mov	r3, fp
 6972 0384 089A     		ldr	r2, [sp, #32]
 6973 0386 13A9     		add	r1, sp, #76
 6974 0388 0798     		ldr	r0, [sp, #28]
 6975 038a FFF7FEFF 		bl	_lv_blend_fill
 6976              	.LVL642:
 268:lvgl/src/draw/lv_draw_rect.c ****                     fill_area2.x1 = coords_bg.x1 + rout;
 6977              		.loc 1 268 17 view .LVU2614
 268:lvgl/src/draw/lv_draw_rect.c ****                     fill_area2.x1 = coords_bg.x1 + rout;
 6978              		.loc 1 268 19 is_stmt 0 view .LVU2615
 6979 038e B9F1010F 		cmp	r9, #1
 6980 0392 00F08F80 		beq	.L333
 6981              	.L303:
 276:lvgl/src/draw/lv_draw_rect.c ****                 fill_area2.x2 = coords_bg.x2;
 6982              		.loc 1 276 17 is_stmt 1 view .LVU2616
 276:lvgl/src/draw/lv_draw_rect.c ****                 fill_area2.x2 = coords_bg.x2;
 6983              		.loc 1 276 42 is_stmt 0 view .LVU2617
 6984 0396 BDF97C30 		ldrsh	r3, [sp, #124]
 6985 039a 9AB2     		uxth	r2, r3
 276:lvgl/src/draw/lv_draw_rect.c ****                 fill_area2.x2 = coords_bg.x2;
 6986              		.loc 1 276 46 view .LVU2618
 6987 039c 141B     		subs	r4, r2, r4
 6988 039e A4B2     		uxth	r4, r4
 276:lvgl/src/draw/lv_draw_rect.c ****                 fill_area2.x2 = coords_bg.x2;
 6989              		.loc 1 276 53 view .LVU2619
 6990 03a0 0134     		adds	r4, r4, #1
 276:lvgl/src/draw/lv_draw_rect.c ****                 fill_area2.x2 = coords_bg.x2;
 6991              		.loc 1 276 31 view .LVU2620
 6992 03a2 ADF84C40 		strh	r4, [sp, #76]	@ movhi
 277:lvgl/src/draw/lv_draw_rect.c **** 
 6993              		.loc 1 277 17 is_stmt 1 view .LVU2621
 277:lvgl/src/draw/lv_draw_rect.c **** 
 6994              		.loc 1 277 31 is_stmt 0 view .LVU2622
ARM GAS  /var/folders/k2/cd9bl_j17z77g23y6ffqb_400000gn/T//cc0jKSMI.s 			page 200


 6995 03a6 ADF85030 		strh	r3, [sp, #80]	@ movhi
 279:lvgl/src/draw/lv_draw_rect.c ****                 if(mask_ofs < 0) mask_ofs = 0;
 6996              		.loc 1 279 17 is_stmt 1 view .LVU2623
 279:lvgl/src/draw/lv_draw_rect.c ****                 if(mask_ofs < 0) mask_ofs = 0;
 6997              		.loc 1 279 50 is_stmt 0 view .LVU2624
 6998 03aa A3EB0A03 		sub	r3, r3, r10
 279:lvgl/src/draw/lv_draw_rect.c ****                 if(mask_ofs < 0) mask_ofs = 0;
 6999              		.loc 1 279 57 view .LVU2625
 7000 03ae 0133     		adds	r3, r3, #1
 279:lvgl/src/draw/lv_draw_rect.c ****                 if(mask_ofs < 0) mask_ofs = 0;
 7001              		.loc 1 279 79 view .LVU2626
 7002 03b0 B8F91020 		ldrsh	r2, [r8, #16]
 279:lvgl/src/draw/lv_draw_rect.c ****                 if(mask_ofs < 0) mask_ofs = 0;
 7003              		.loc 1 279 94 view .LVU2627
 7004 03b4 BDF97010 		ldrsh	r1, [sp, #112]
 279:lvgl/src/draw/lv_draw_rect.c ****                 if(mask_ofs < 0) mask_ofs = 0;
 7005              		.loc 1 279 83 view .LVU2628
 7006 03b8 0A44     		add	r2, r2, r1
 7007              	.LVL643:
 280:lvgl/src/draw/lv_draw_rect.c ****                 _lv_blend_fill(clip, &fill_area2,
 7008              		.loc 1 280 17 is_stmt 1 view .LVU2629
 280:lvgl/src/draw/lv_draw_rect.c ****                 _lv_blend_fill(clip, &fill_area2,
 7009              		.loc 1 280 19 is_stmt 0 view .LVU2630
 7010 03ba 9B1A     		subs	r3, r3, r2
 7011              	.LVL644:
 280:lvgl/src/draw/lv_draw_rect.c ****                 _lv_blend_fill(clip, &fill_area2,
 7012              		.loc 1 280 19 view .LVU2631
 7013 03bc 00F19180 		bmi	.L334
 7014              	.LVL645:
 7015              	.L304:
 281:lvgl/src/draw/lv_draw_rect.c ****                                grad_color, mask_buf + mask_ofs, mask_res, opa2, dsc->blend_mode);
 7016              		.loc 1 281 17 is_stmt 1 view .LVU2632
 7017 03c0 B278     		ldrb	r2, [r6, #2]	@ zero_extendqisi2
 7018 03c2 0292     		str	r2, [sp, #8]
 7019 03c4 059A     		ldr	r2, [sp, #20]
 7020 03c6 0192     		str	r2, [sp, #4]
 7021 03c8 0097     		str	r7, [sp]
 7022 03ca 5B44     		add	r3, r3, fp
 7023              	.LVL646:
 281:lvgl/src/draw/lv_draw_rect.c ****                                grad_color, mask_buf + mask_ofs, mask_res, opa2, dsc->blend_mode);
 7024              		.loc 1 281 17 is_stmt 0 view .LVU2633
 7025 03cc 089A     		ldr	r2, [sp, #32]
 7026 03ce 13A9     		add	r1, sp, #76
 7027 03d0 0798     		ldr	r0, [sp, #28]
 7028 03d2 FFF7FEFF 		bl	_lv_blend_fill
 7029              	.LVL647:
 7030              	.LBE391:
 255:lvgl/src/draw/lv_draw_rect.c **** 
 7031              		.loc 1 255 47 view .LVU2634
 7032 03d6 9BE0     		b	.L305
 7033              	.LVL648:
 7034              	.L322:
 243:lvgl/src/draw/lv_draw_rect.c ****             }
 7035              		.loc 1 243 22 view .LVU2635
 7036 03d8 FF23     		movs	r3, #255
 7037 03da 0593     		str	r3, [sp, #20]
 7038 03dc A1E7     		b	.L295
ARM GAS  /var/folders/k2/cd9bl_j17z77g23y6ffqb_400000gn/T//cc0jKSMI.s 			page 201


 7039              	.LVL649:
 7040              	.L332:
 248:lvgl/src/draw/lv_draw_rect.c ****             }
 7041              		.loc 1 248 17 is_stmt 1 view .LVU2636
 7042              	.LBB392:
 7043              	.LBI392:
 143:lvgl/src/draw/../misc/lv_area.h **** {
 7044              		.loc 2 143 26 view .LVU2637
 7045              	.LBB393:
 7046              		.loc 2 145 5 view .LVU2638
 7047              		.loc 2 145 31 is_stmt 0 view .LVU2639
 7048 03de BDF87E30 		ldrh	r3, [sp, #126]
 7049              		.loc 2 145 44 view .LVU2640
 7050 03e2 BDF87A20 		ldrh	r2, [sp, #122]
 7051              		.loc 2 145 36 view .LVU2641
 7052 03e6 9B1A     		subs	r3, r3, r2
 7053 03e8 9BB2     		uxth	r3, r3
 7054              		.loc 2 145 49 view .LVU2642
 7055 03ea 0133     		adds	r3, r3, #1
 7056              		.loc 2 145 12 view .LVU2643
 7057 03ec 1BB2     		sxth	r3, r3
 7058              	.LVL650:
 7059              		.loc 2 145 12 view .LVU2644
 7060              	.LBE393:
 7061              	.LBE392:
 248:lvgl/src/draw/lv_draw_rect.c ****             }
 7062              		.loc 1 248 78 view .LVU2645
 7063 03ee A21A     		subs	r2, r4, r2
 7064 03f0 91B2     		uxth	r1, r2
 7065 03f2 0891     		str	r1, [sp, #32]
 248:lvgl/src/draw/lv_draw_rect.c ****             }
 7066              		.loc 1 248 30 view .LVU2646
 7067 03f4 12B2     		sxth	r2, r2
 7068              	.LVL651:
 7069              	.LBB394:
 7070              	.LBI394:
 522:lvgl/src/draw/lv_draw_rect.c **** {
 7071              		.loc 1 522 48 is_stmt 1 view .LVU2647
 7072              	.LBB395:
 524:lvgl/src/draw/lv_draw_rect.c ****     if(i <= min) return dsc->bg_color;
 7073              		.loc 1 524 5 view .LVU2648
 524:lvgl/src/draw/lv_draw_rect.c ****     if(i <= min) return dsc->bg_color;
 7074              		.loc 1 524 23 is_stmt 0 view .LVU2649
 7075 03f6 96F80CC0 		ldrb	ip, [r6, #12]	@ zero_extendqisi2
 524:lvgl/src/draw/lv_draw_rect.c ****     if(i <= min) return dsc->bg_color;
 7076              		.loc 1 524 44 view .LVU2650
 7077 03fa 03FB0CF0 		mul	r0, r3, ip
 524:lvgl/src/draw/lv_draw_rect.c ****     if(i <= min) return dsc->bg_color;
 7078              		.loc 1 524 13 view .LVU2651
 7079 03fe 4FEA202E 		asr	lr, r0, #8
 7080              	.LVL652:
 525:lvgl/src/draw/lv_draw_rect.c **** 
 7081              		.loc 1 525 5 is_stmt 1 view .LVU2652
 525:lvgl/src/draw/lv_draw_rect.c **** 
 7082              		.loc 1 525 7 is_stmt 0 view .LVU2653
 7083 0402 B2EB202F 		cmp	r2, r0, asr #8
 7084 0406 51DD     		ble	.L335
ARM GAS  /var/folders/k2/cd9bl_j17z77g23y6ffqb_400000gn/T//cc0jKSMI.s 			page 202


 527:lvgl/src/draw/lv_draw_rect.c ****     if(i >= max) return dsc->bg_grad_color;
 7085              		.loc 1 527 5 is_stmt 1 view .LVU2654
 527:lvgl/src/draw/lv_draw_rect.c ****     if(i >= max) return dsc->bg_grad_color;
 7086              		.loc 1 527 23 is_stmt 0 view .LVU2655
 7087 0408 707B     		ldrb	r0, [r6, #13]	@ zero_extendqisi2
 527:lvgl/src/draw/lv_draw_rect.c ****     if(i >= max) return dsc->bg_grad_color;
 7088              		.loc 1 527 44 view .LVU2656
 7089 040a 00FB03F1 		mul	r1, r0, r3
 7090              	.LVL653:
 528:lvgl/src/draw/lv_draw_rect.c **** 
 7091              		.loc 1 528 5 is_stmt 1 view .LVU2657
 528:lvgl/src/draw/lv_draw_rect.c **** 
 7092              		.loc 1 528 7 is_stmt 0 view .LVU2658
 7093 040e B2EB212F 		cmp	r2, r1, asr #8
 7094 0412 4DDA     		bge	.L336
 530:lvgl/src/draw/lv_draw_rect.c ****     d = (s * d) >> 8;
 7095              		.loc 1 530 5 is_stmt 1 view .LVU2659
 530:lvgl/src/draw/lv_draw_rect.c ****     d = (s * d) >> 8;
 7096              		.loc 1 530 13 is_stmt 0 view .LVU2660
 7097 0414 A0EB0C00 		sub	r0, r0, ip
 7098              	.LVL654:
 531:lvgl/src/draw/lv_draw_rect.c ****     i -= min;
 7099              		.loc 1 531 5 is_stmt 1 view .LVU2661
 531:lvgl/src/draw/lv_draw_rect.c ****     i -= min;
 7100              		.loc 1 531 12 is_stmt 0 view .LVU2662
 7101 0418 00FB03F3 		mul	r3, r0, r3
 7102              	.LVL655:
 531:lvgl/src/draw/lv_draw_rect.c ****     i -= min;
 7103              		.loc 1 531 7 view .LVU2663
 7104 041c 1B12     		asrs	r3, r3, #8
 7105              	.LVL656:
 532:lvgl/src/draw/lv_draw_rect.c ****     lv_opa_t mix = (i * 255) / d;
 7106              		.loc 1 532 5 is_stmt 1 view .LVU2664
 532:lvgl/src/draw/lv_draw_rect.c ****     lv_opa_t mix = (i * 255) / d;
 7107              		.loc 1 532 7 is_stmt 0 view .LVU2665
 7108 041e 089A     		ldr	r2, [sp, #32]
 532:lvgl/src/draw/lv_draw_rect.c ****     lv_opa_t mix = (i * 255) / d;
 7109              		.loc 1 532 7 view .LVU2666
 7110 0420 A2EB0E01 		sub	r1, r2, lr
 7111              	.LVL657:
 532:lvgl/src/draw/lv_draw_rect.c ****     lv_opa_t mix = (i * 255) / d;
 7112              		.loc 1 532 7 view .LVU2667
 7113 0424 09B2     		sxth	r1, r1
 7114              	.LVL658:
 533:lvgl/src/draw/lv_draw_rect.c ****     return lv_color_mix(dsc->bg_grad_color, dsc->bg_color, mix);
 7115              		.loc 1 533 5 is_stmt 1 view .LVU2668
 533:lvgl/src/draw/lv_draw_rect.c ****     return lv_color_mix(dsc->bg_grad_color, dsc->bg_color, mix);
 7116              		.loc 1 533 23 is_stmt 0 view .LVU2669
 7117 0426 C1EB0121 		rsb	r1, r1, r1, lsl #8
 7118              	.LVL659:
 533:lvgl/src/draw/lv_draw_rect.c ****     return lv_color_mix(dsc->bg_grad_color, dsc->bg_color, mix);
 7119              		.loc 1 533 30 view .LVU2670
 7120 042a 91FBF3F3 		sdiv	r3, r1, r3
 7121              	.LVL660:
 533:lvgl/src/draw/lv_draw_rect.c ****     return lv_color_mix(dsc->bg_grad_color, dsc->bg_color, mix);
 7122              		.loc 1 533 14 view .LVU2671
 7123 042e DBB2     		uxtb	r3, r3
ARM GAS  /var/folders/k2/cd9bl_j17z77g23y6ffqb_400000gn/T//cc0jKSMI.s 			page 203


 7124              	.LVL661:
 534:lvgl/src/draw/lv_draw_rect.c **** }
 7125              		.loc 1 534 5 is_stmt 1 view .LVU2672
 7126 0430 B268     		ldr	r2, [r6, #8]
 7127              	.LVL662:
 534:lvgl/src/draw/lv_draw_rect.c **** }
 7128              		.loc 1 534 5 is_stmt 0 view .LVU2673
 7129 0432 D6F804C0 		ldr	ip, [r6, #4]
 7130              	.LVL663:
 7131              	.LBB396:
 7132              	.LBI396:
 459:lvgl/src/draw/../misc/lv_color.h **** {
 7133              		.loc 3 459 48 is_stmt 1 view .LVU2674
 7134              	.LBB397:
 461:lvgl/src/draw/../misc/lv_color.h **** #if LV_COLOR_DEPTH != 1
 7135              		.loc 3 461 5 view .LVU2675
 464:lvgl/src/draw/../misc/lv_color.h ****                                         (255 - mix) + LV_COLOR_MIX_ROUND_OFS));
 7136              		.loc 3 464 5 view .LVU2676
 464:lvgl/src/draw/../misc/lv_color.h ****                                         (255 - mix) + LV_COLOR_MIX_ROUND_OFS));
 7137              		.loc 3 464 5 is_stmt 0 view .LVU2677
 7138 0436 0892     		str	r2, [sp, #32]
 7139              	.LVL664:
 464:lvgl/src/draw/../misc/lv_color.h ****                                         (255 - mix) + LV_COLOR_MIX_ROUND_OFS));
 7140              		.loc 3 464 5 view .LVU2678
 7141 0438 C2F3074E 		ubfx	lr, r2, #16, #8
 7142              	.LVL665:
 464:lvgl/src/draw/../misc/lv_color.h ****                                         (255 - mix) + LV_COLOR_MIX_ROUND_OFS));
 7143              		.loc 3 464 5 view .LVU2679
 7144 043c CCF30741 		ubfx	r1, ip, #16, #8
 7145 0440 C3F1FF02 		rsb	r2, r3, #255
 7146              	.LVL666:
 464:lvgl/src/draw/../misc/lv_color.h ****                                         (255 - mix) + LV_COLOR_MIX_ROUND_OFS));
 7147              		.loc 3 464 5 view .LVU2680
 7148 0444 02FB01F1 		mul	r1, r2, r1
 7149 0448 03FB0E11 		mla	r1, r3, lr, r1
 7150 044c 01EB012E 		add	lr, r1, r1, lsl #8
 7151 0450 01EBCE11 		add	r1, r1, lr, lsl #7
 7152 0454 C1F3C751 		ubfx	r1, r1, #23, #8
 7153 0458 0D98     		ldr	r0, [sp, #52]
 7154              	.LVL667:
 464:lvgl/src/draw/../misc/lv_color.h ****                                         (255 - mix) + LV_COLOR_MIX_ROUND_OFS));
 7155              		.loc 3 464 5 view .LVU2681
 7156 045a 61F31740 		bfi	r0, r1, #16, #8
 7157              	.LVL668:
 466:lvgl/src/draw/../misc/lv_color.h ****                                         (255 - mix) + LV_COLOR_MIX_ROUND_OFS));
 7158              		.loc 3 466 5 is_stmt 1 view .LVU2682
 7159 045e 0899     		ldr	r1, [sp, #32]
 7160              	.LVL669:
 466:lvgl/src/draw/../misc/lv_color.h ****                                         (255 - mix) + LV_COLOR_MIX_ROUND_OFS));
 7161              		.loc 3 466 5 is_stmt 0 view .LVU2683
 7162 0460 C1F3072E 		ubfx	lr, r1, #8, #8
 7163 0464 CCF30721 		ubfx	r1, ip, #8, #8
 7164              	.LVL670:
 466:lvgl/src/draw/../misc/lv_color.h ****                                         (255 - mix) + LV_COLOR_MIX_ROUND_OFS));
 7165              		.loc 3 466 5 view .LVU2684
 7166 0468 02FB01F1 		mul	r1, r2, r1
 7167 046c 0EFB0311 		mla	r1, lr, r3, r1
ARM GAS  /var/folders/k2/cd9bl_j17z77g23y6ffqb_400000gn/T//cc0jKSMI.s 			page 204


 7168 0470 01EB012E 		add	lr, r1, r1, lsl #8
 7169 0474 01EBCE11 		add	r1, r1, lr, lsl #7
 7170 0478 C1F3C751 		ubfx	r1, r1, #23, #8
 7171 047c 61F30F20 		bfi	r0, r1, #8, #8
 466:lvgl/src/draw/../misc/lv_color.h ****                                         (255 - mix) + LV_COLOR_MIX_ROUND_OFS));
 7172              		.loc 3 466 5 view .LVU2685
 7173 0480 0146     		mov	r1, r0
 468:lvgl/src/draw/../misc/lv_color.h ****                                         (255 - mix) + LV_COLOR_MIX_ROUND_OFS));
 7174              		.loc 3 468 5 is_stmt 1 view .LVU2686
 7175 0482 9DF82000 		ldrb	r0, [sp, #32]	@ zero_extendqisi2
 7176              	.LVL671:
 468:lvgl/src/draw/../misc/lv_color.h ****                                         (255 - mix) + LV_COLOR_MIX_ROUND_OFS));
 7177              		.loc 3 468 5 is_stmt 0 view .LVU2687
 7178 0486 5FFA8CFC 		uxtb	ip, ip
 7179              	.LVL672:
 468:lvgl/src/draw/../misc/lv_color.h ****                                         (255 - mix) + LV_COLOR_MIX_ROUND_OFS));
 7180              		.loc 3 468 5 view .LVU2688
 7181 048a 0CFB02F2 		mul	r2, ip, r2
 7182 048e 00FB0323 		mla	r3, r0, r3, r2
 7183              	.LVL673:
 468:lvgl/src/draw/../misc/lv_color.h ****                                         (255 - mix) + LV_COLOR_MIX_ROUND_OFS));
 7184              		.loc 3 468 5 view .LVU2689
 7185 0492 03EB0322 		add	r2, r3, r3, lsl #8
 7186 0496 03EBC213 		add	r3, r3, r2, lsl #7
 7187 049a C3F3C753 		ubfx	r3, r3, #23, #8
 7188 049e 63F30701 		bfi	r1, r3, #0, #8
 7189              	.LVL674:
 470:lvgl/src/draw/../misc/lv_color.h **** #else
 7190              		.loc 3 470 5 is_stmt 1 view .LVU2690
 7191 04a2 41F07F43 		orr	r3, r1, #-16777216
 7192              	.LVL675:
 470:lvgl/src/draw/../misc/lv_color.h **** #else
 7193              		.loc 3 470 5 is_stmt 0 view .LVU2691
 7194 04a6 0D93     		str	r3, [sp, #52]
 7195              		.loc 3 476 5 is_stmt 1 view .LVU2692
 7196              	.LVL676:
 7197              	.L299:
 7198              		.loc 3 476 5 is_stmt 0 view .LVU2693
 7199 04a8 0893     		str	r3, [sp, #32]
 7200 04aa 3DE7     		b	.L297
 7201              	.LVL677:
 7202              	.L335:
 7203              		.loc 3 476 5 view .LVU2694
 7204              	.LBE397:
 7205              	.LBE396:
 525:lvgl/src/draw/lv_draw_rect.c **** 
 7206              		.loc 1 525 18 is_stmt 1 view .LVU2695
 525:lvgl/src/draw/lv_draw_rect.c **** 
 7207              		.loc 1 525 28 is_stmt 0 view .LVU2696
 7208 04ac 7368     		ldr	r3, [r6, #4]
 7209              	.LVL678:
 525:lvgl/src/draw/lv_draw_rect.c **** 
 7210              		.loc 1 525 28 view .LVU2697
 7211 04ae FBE7     		b	.L299
 7212              	.LVL679:
 7213              	.L336:
 528:lvgl/src/draw/lv_draw_rect.c **** 
ARM GAS  /var/folders/k2/cd9bl_j17z77g23y6ffqb_400000gn/T//cc0jKSMI.s 			page 205


 7214              		.loc 1 528 18 is_stmt 1 view .LVU2698
 528:lvgl/src/draw/lv_draw_rect.c **** 
 7215              		.loc 1 528 28 is_stmt 0 view .LVU2699
 7216 04b0 B368     		ldr	r3, [r6, #8]
 7217              	.LVL680:
 528:lvgl/src/draw/lv_draw_rect.c **** 
 7218              		.loc 1 528 28 view .LVU2700
 7219 04b2 F9E7     		b	.L299
 7220              	.LVL681:
 7221              	.L333:
 528:lvgl/src/draw/lv_draw_rect.c **** 
 7222              		.loc 1 528 28 view .LVU2701
 7223              	.LBE395:
 7224              	.LBE394:
 7225              	.LBB398:
 269:lvgl/src/draw/lv_draw_rect.c ****                     fill_area2.x2 = coords_bg.x2 - rout;
 7226              		.loc 1 269 21 is_stmt 1 view .LVU2702
 269:lvgl/src/draw/lv_draw_rect.c ****                     fill_area2.x2 = coords_bg.x2 - rout;
 7227              		.loc 1 269 46 is_stmt 0 view .LVU2703
 7228 04b4 BDF87830 		ldrh	r3, [sp, #120]
 269:lvgl/src/draw/lv_draw_rect.c ****                     fill_area2.x2 = coords_bg.x2 - rout;
 7229              		.loc 1 269 50 view .LVU2704
 7230 04b8 2344     		add	r3, r3, r4
 269:lvgl/src/draw/lv_draw_rect.c ****                     fill_area2.x2 = coords_bg.x2 - rout;
 7231              		.loc 1 269 35 view .LVU2705
 7232 04ba ADF84C30 		strh	r3, [sp, #76]	@ movhi
 270:lvgl/src/draw/lv_draw_rect.c ****                     _lv_blend_fill(clip, &fill_area2,
 7233              		.loc 1 270 21 is_stmt 1 view .LVU2706
 270:lvgl/src/draw/lv_draw_rect.c ****                     _lv_blend_fill(clip, &fill_area2,
 7234              		.loc 1 270 46 is_stmt 0 view .LVU2707
 7235 04be BDF87C30 		ldrh	r3, [sp, #124]
 270:lvgl/src/draw/lv_draw_rect.c ****                     _lv_blend_fill(clip, &fill_area2,
 7236              		.loc 1 270 50 view .LVU2708
 7237 04c2 1B1B     		subs	r3, r3, r4
 270:lvgl/src/draw/lv_draw_rect.c ****                     _lv_blend_fill(clip, &fill_area2,
 7238              		.loc 1 270 35 view .LVU2709
 7239 04c4 ADF85030 		strh	r3, [sp, #80]	@ movhi
 271:lvgl/src/draw/lv_draw_rect.c ****                                    grad_color, NULL, LV_DRAW_MASK_RES_FULL_COVER, opa, dsc->blend_m
 7240              		.loc 1 271 21 is_stmt 1 view .LVU2710
 7241 04c8 B378     		ldrb	r3, [r6, #2]	@ zero_extendqisi2
 7242 04ca 0293     		str	r3, [sp, #8]
 7243 04cc 049B     		ldr	r3, [sp, #16]
 7244 04ce 0193     		str	r3, [sp, #4]
 7245 04d0 0123     		movs	r3, #1
 7246 04d2 0093     		str	r3, [sp]
 7247 04d4 0023     		movs	r3, #0
 7248 04d6 089A     		ldr	r2, [sp, #32]
 7249 04d8 13A9     		add	r1, sp, #76
 7250 04da 0798     		ldr	r0, [sp, #28]
 7251 04dc FFF7FEFF 		bl	_lv_blend_fill
 7252              	.LVL682:
 7253 04e0 59E7     		b	.L303
 7254              	.LVL683:
 7255              	.L334:
 280:lvgl/src/draw/lv_draw_rect.c ****                 _lv_blend_fill(clip, &fill_area2,
 7256              		.loc 1 280 43 is_stmt 0 view .LVU2711
 7257 04e2 0023     		movs	r3, #0
ARM GAS  /var/folders/k2/cd9bl_j17z77g23y6ffqb_400000gn/T//cc0jKSMI.s 			page 206


 7258              	.LVL684:
 280:lvgl/src/draw/lv_draw_rect.c ****                 _lv_blend_fill(clip, &fill_area2,
 7259              		.loc 1 280 43 view .LVU2712
 7260 04e4 6CE7     		b	.L304
 7261              	.LVL685:
 7262              	.L301:
 280:lvgl/src/draw/lv_draw_rect.c ****                 _lv_blend_fill(clip, &fill_area2,
 7263              		.loc 1 280 43 view .LVU2713
 7264              	.LBE398:
 286:lvgl/src/draw/lv_draw_rect.c ****                     _lv_blend_map(clip, &fill_area, grad_map, mask_buf, mask_res, opa2, dsc->blend_
 7265              		.loc 1 286 17 is_stmt 1 view .LVU2714
 286:lvgl/src/draw/lv_draw_rect.c ****                     _lv_blend_map(clip, &fill_area, grad_map, mask_buf, mask_res, opa2, dsc->blend_
 7266              		.loc 1 286 19 is_stmt 0 view .LVU2715
 7267 04e6 B9F1020F 		cmp	r9, #2
 7268 04ea 3AD0     		beq	.L337
 289:lvgl/src/draw/lv_draw_rect.c ****                     _lv_blend_fill(clip, &fill_area,
 7269              		.loc 1 289 22 is_stmt 1 view .LVU2716
 289:lvgl/src/draw/lv_draw_rect.c ****                     _lv_blend_fill(clip, &fill_area,
 7270              		.loc 1 289 24 is_stmt 0 view .LVU2717
 7271 04ec B9F1010F 		cmp	r9, #1
 7272 04f0 43D0     		beq	.L338
 293:lvgl/src/draw/lv_draw_rect.c ****                     _lv_blend_fill(clip, &fill_area,
 7273              		.loc 1 293 22 is_stmt 1 view .LVU2718
 293:lvgl/src/draw/lv_draw_rect.c ****                     _lv_blend_fill(clip, &fill_area,
 7274              		.loc 1 293 24 is_stmt 0 view .LVU2719
 7275 04f2 0B9B     		ldr	r3, [sp, #44]
 7276 04f4 0BB9     		cbnz	r3, .L308
 293:lvgl/src/draw/lv_draw_rect.c ****                     _lv_blend_fill(clip, &fill_area,
 7277              		.loc 1 293 45 discriminator 1 view .LVU2720
 7278 04f6 099B     		ldr	r3, [sp, #36]
 7279 04f8 53B9     		cbnz	r3, .L305
 7280              	.L308:
 294:lvgl/src/draw/lv_draw_rect.c ****                                    grad_color, mask_buf, mask_res, opa2, dsc->blend_mode);
 7281              		.loc 1 294 21 is_stmt 1 view .LVU2721
 7282 04fa B378     		ldrb	r3, [r6, #2]	@ zero_extendqisi2
 7283 04fc 0293     		str	r3, [sp, #8]
 7284 04fe 059B     		ldr	r3, [sp, #20]
 7285 0500 0193     		str	r3, [sp, #4]
 7286 0502 0097     		str	r7, [sp]
 7287 0504 5B46     		mov	r3, fp
 7288 0506 089A     		ldr	r2, [sp, #32]
 7289 0508 11A9     		add	r1, sp, #68
 7290 050a 0798     		ldr	r0, [sp, #28]
 7291 050c FFF7FEFF 		bl	_lv_blend_fill
 7292              	.LVL686:
 7293              	.L305:
 298:lvgl/src/draw/lv_draw_rect.c ****             fill_area.y2++;
 7294              		.loc 1 298 13 discriminator 2 view .LVU2722
 298:lvgl/src/draw/lv_draw_rect.c ****             fill_area.y2++;
 7295              		.loc 1 298 22 is_stmt 0 discriminator 2 view .LVU2723
 7296 0510 BDF94630 		ldrsh	r3, [sp, #70]
 298:lvgl/src/draw/lv_draw_rect.c ****             fill_area.y2++;
 7297              		.loc 1 298 25 discriminator 2 view .LVU2724
 7298 0514 0133     		adds	r3, r3, #1
 7299 0516 ADF84630 		strh	r3, [sp, #70]	@ movhi
 299:lvgl/src/draw/lv_draw_rect.c ****         }
 7300              		.loc 1 299 13 is_stmt 1 discriminator 2 view .LVU2725
ARM GAS  /var/folders/k2/cd9bl_j17z77g23y6ffqb_400000gn/T//cc0jKSMI.s 			page 207


 299:lvgl/src/draw/lv_draw_rect.c ****         }
 7301              		.loc 1 299 22 is_stmt 0 discriminator 2 view .LVU2726
 7302 051a BDF94A30 		ldrsh	r3, [sp, #74]
 299:lvgl/src/draw/lv_draw_rect.c ****         }
 7303              		.loc 1 299 25 discriminator 2 view .LVU2727
 7304 051e 0133     		adds	r3, r3, #1
 7305 0520 ADF84A30 		strh	r3, [sp, #74]	@ movhi
 7306              	.LBE390:
 221:lvgl/src/draw/lv_draw_rect.c ****             int32_t y = h + draw_buf->area.y1;
 7307              		.loc 1 221 50 is_stmt 1 discriminator 2 view .LVU2728
 221:lvgl/src/draw/lv_draw_rect.c ****             int32_t y = h + draw_buf->area.y1;
 7308              		.loc 1 221 51 is_stmt 0 discriminator 2 view .LVU2729
 7309 0524 0135     		adds	r5, r5, #1
 7310              	.LVL687:
 7311              	.L293:
 221:lvgl/src/draw/lv_draw_rect.c ****             int32_t y = h + draw_buf->area.y1;
 7312              		.loc 1 221 31 is_stmt 1 discriminator 1 view .LVU2730
 221:lvgl/src/draw/lv_draw_rect.c ****             int32_t y = h + draw_buf->area.y1;
 7313              		.loc 1 221 45 is_stmt 0 discriminator 1 view .LVU2731
 7314 0526 BDF97630 		ldrsh	r3, [sp, #118]
 221:lvgl/src/draw/lv_draw_rect.c ****             int32_t y = h + draw_buf->area.y1;
 7315              		.loc 1 221 9 discriminator 1 view .LVU2732
 7316 052a AB42     		cmp	r3, r5
 7317 052c 31DB     		blt	.L339
 7318              	.LBB399:
 222:lvgl/src/draw/lv_draw_rect.c **** 
 7319              		.loc 1 222 13 is_stmt 1 view .LVU2733
 222:lvgl/src/draw/lv_draw_rect.c **** 
 7320              		.loc 1 222 43 is_stmt 0 view .LVU2734
 7321 052e B8F91240 		ldrsh	r4, [r8, #18]
 222:lvgl/src/draw/lv_draw_rect.c **** 
 7322              		.loc 1 222 21 view .LVU2735
 7323 0532 2C44     		add	r4, r4, r5
 7324              	.LVL688:
 224:lvgl/src/draw/lv_draw_rect.c **** 
 7325              		.loc 1 224 13 is_stmt 1 view .LVU2736
 227:lvgl/src/draw/lv_draw_rect.c ****                y < coords_bg.y2 - rout - 1) {
 7326              		.loc 1 227 13 view .LVU2737
 227:lvgl/src/draw/lv_draw_rect.c ****                y < coords_bg.y2 - rout - 1) {
 7327              		.loc 1 227 29 is_stmt 0 view .LVU2738
 7328 0534 BDF97A30 		ldrsh	r3, [sp, #122]
 227:lvgl/src/draw/lv_draw_rect.c ****                y < coords_bg.y2 - rout - 1) {
 7329              		.loc 1 227 33 view .LVU2739
 7330 0538 5344     		add	r3, r3, r10
 227:lvgl/src/draw/lv_draw_rect.c ****                y < coords_bg.y2 - rout - 1) {
 7331              		.loc 1 227 40 view .LVU2740
 7332 053a 0133     		adds	r3, r3, #1
 227:lvgl/src/draw/lv_draw_rect.c ****                y < coords_bg.y2 - rout - 1) {
 7333              		.loc 1 227 15 view .LVU2741
 7334 053c A342     		cmp	r3, r4
 7335 053e BFF6D7AE 		bge	.L294
 228:lvgl/src/draw/lv_draw_rect.c ****                 mask_res = LV_DRAW_MASK_RES_FULL_COVER;
 7336              		.loc 1 228 29 discriminator 1 view .LVU2742
 7337 0542 BDF97E30 		ldrsh	r3, [sp, #126]
 228:lvgl/src/draw/lv_draw_rect.c ****                 mask_res = LV_DRAW_MASK_RES_FULL_COVER;
 7338              		.loc 1 228 33 discriminator 1 view .LVU2743
 7339 0546 A3EB0A03 		sub	r3, r3, r10
ARM GAS  /var/folders/k2/cd9bl_j17z77g23y6ffqb_400000gn/T//cc0jKSMI.s 			page 208


 228:lvgl/src/draw/lv_draw_rect.c ****                 mask_res = LV_DRAW_MASK_RES_FULL_COVER;
 7340              		.loc 1 228 40 discriminator 1 view .LVU2744
 7341 054a 013B     		subs	r3, r3, #1
 227:lvgl/src/draw/lv_draw_rect.c ****                y < coords_bg.y2 - rout - 1) {
 7342              		.loc 1 227 44 discriminator 1 view .LVU2745
 7343 054c A342     		cmp	r3, r4
 7344 054e 7FF7CFAE 		ble	.L294
 229:lvgl/src/draw/lv_draw_rect.c ****                 if(simple_mode == false) {
 7345              		.loc 1 229 17 is_stmt 1 view .LVU2746
 7346              	.LVL689:
 230:lvgl/src/draw/lv_draw_rect.c ****                     lv_memset(mask_buf, opa, draw_area_w);
 7347              		.loc 1 230 17 view .LVU2747
 230:lvgl/src/draw/lv_draw_rect.c ****                     lv_memset(mask_buf, opa, draw_area_w);
 7348              		.loc 1 230 19 is_stmt 0 view .LVU2748
 7349 0552 069B     		ldr	r3, [sp, #24]
 7350 0554 002B     		cmp	r3, #0
 7351 0556 3FF4B5AE 		beq	.L340
 224:lvgl/src/draw/lv_draw_rect.c **** 
 7352              		.loc 1 224 18 view .LVU2749
 7353 055a 049B     		ldr	r3, [sp, #16]
 7354 055c 0593     		str	r3, [sp, #20]
 229:lvgl/src/draw/lv_draw_rect.c ****                 if(simple_mode == false) {
 7355              		.loc 1 229 26 view .LVU2750
 7356 055e 0127     		movs	r7, #1
 7357 0560 DFE6     		b	.L295
 7358              	.LVL690:
 7359              	.L337:
 287:lvgl/src/draw/lv_draw_rect.c ****                 }
 7360              		.loc 1 287 21 is_stmt 1 view .LVU2751
 7361 0562 B378     		ldrb	r3, [r6, #2]	@ zero_extendqisi2
 7362 0564 0293     		str	r3, [sp, #8]
 7363 0566 059B     		ldr	r3, [sp, #20]
 7364 0568 0193     		str	r3, [sp, #4]
 7365 056a 0097     		str	r7, [sp]
 7366 056c 5B46     		mov	r3, fp
 7367 056e 0C9A     		ldr	r2, [sp, #48]
 7368 0570 11A9     		add	r1, sp, #68
 7369 0572 0798     		ldr	r0, [sp, #28]
 7370 0574 FFF7FEFF 		bl	_lv_blend_map
 7371              	.LVL691:
 7372 0578 CAE7     		b	.L305
 7373              	.L338:
 290:lvgl/src/draw/lv_draw_rect.c ****                                    grad_color, mask_buf, mask_res, opa2, dsc->blend_mode);
 7374              		.loc 1 290 21 view .LVU2752
 7375 057a B378     		ldrb	r3, [r6, #2]	@ zero_extendqisi2
 7376 057c 0293     		str	r3, [sp, #8]
 7377 057e 059B     		ldr	r3, [sp, #20]
 7378 0580 0193     		str	r3, [sp, #4]
 7379 0582 0097     		str	r7, [sp]
 7380 0584 5B46     		mov	r3, fp
 7381 0586 089A     		ldr	r2, [sp, #32]
 7382 0588 11A9     		add	r1, sp, #68
 7383 058a 0798     		ldr	r0, [sp, #28]
 7384 058c FFF7FEFF 		bl	_lv_blend_fill
 7385              	.LVL692:
 7386 0590 BEE7     		b	.L305
 7387              	.LVL693:
ARM GAS  /var/folders/k2/cd9bl_j17z77g23y6ffqb_400000gn/T//cc0jKSMI.s 			page 209


 7388              	.L339:
 290:lvgl/src/draw/lv_draw_rect.c ****                                    grad_color, mask_buf, mask_res, opa2, dsc->blend_mode);
 7389              		.loc 1 290 21 is_stmt 0 view .LVU2753
 7390              	.LBE399:
 302:lvgl/src/draw/lv_draw_rect.c ****             /*Central part*/
 7391              		.loc 1 302 9 is_stmt 1 view .LVU2754
 302:lvgl/src/draw/lv_draw_rect.c ****             /*Central part*/
 7392              		.loc 1 302 11 is_stmt 0 view .LVU2755
 7393 0592 B9F1000F 		cmp	r9, #0
 7394 0596 03D1     		bne	.L310
 302:lvgl/src/draw/lv_draw_rect.c ****             /*Central part*/
 7395              		.loc 1 302 41 discriminator 1 view .LVU2756
 7396 0598 0B9B     		ldr	r3, [sp, #44]
 7397 059a 0BB9     		cbnz	r3, .L310
 302:lvgl/src/draw/lv_draw_rect.c ****             /*Central part*/
 7398              		.loc 1 302 64 discriminator 2 view .LVU2757
 7399 059c 099B     		ldr	r3, [sp, #36]
 7400 059e 83B9     		cbnz	r3, .L341
 7401              	.LVL694:
 7402              	.L310:
 329:lvgl/src/draw/lv_draw_rect.c ****         if(mask_buf) lv_mem_buf_release(mask_buf);
 7403              		.loc 1 329 9 is_stmt 1 view .LVU2758
 329:lvgl/src/draw/lv_draw_rect.c ****         if(mask_buf) lv_mem_buf_release(mask_buf);
 7404              		.loc 1 329 11 is_stmt 0 view .LVU2759
 7405 05a0 0C9B     		ldr	r3, [sp, #48]
 7406 05a2 13B1     		cbz	r3, .L312
 329:lvgl/src/draw/lv_draw_rect.c ****         if(mask_buf) lv_mem_buf_release(mask_buf);
 7407              		.loc 1 329 22 is_stmt 1 discriminator 1 view .LVU2760
 7408 05a4 1846     		mov	r0, r3
 7409 05a6 FFF7FEFF 		bl	lv_mem_buf_release
 7410              	.LVL695:
 7411              	.L312:
 330:lvgl/src/draw/lv_draw_rect.c ****         lv_draw_mask_remove_id(mask_rout_id);
 7412              		.loc 1 330 9 view .LVU2761
 330:lvgl/src/draw/lv_draw_rect.c ****         lv_draw_mask_remove_id(mask_rout_id);
 7413              		.loc 1 330 11 is_stmt 0 view .LVU2762
 7414 05aa BBF1000F 		cmp	fp, #0
 7415 05ae 02D0     		beq	.L313
 330:lvgl/src/draw/lv_draw_rect.c ****         lv_draw_mask_remove_id(mask_rout_id);
 7416              		.loc 1 330 22 is_stmt 1 discriminator 1 view .LVU2763
 7417 05b0 5846     		mov	r0, fp
 7418 05b2 FFF7FEFF 		bl	lv_mem_buf_release
 7419              	.LVL696:
 7420              	.L313:
 331:lvgl/src/draw/lv_draw_rect.c ****     }
 7421              		.loc 1 331 9 view .LVU2764
 7422 05b6 0E98     		ldr	r0, [sp, #56]
 7423 05b8 FFF7FEFF 		bl	lv_draw_mask_remove_id
 7424              	.LVL697:
 7425              	.L276:
 331:lvgl/src/draw/lv_draw_rect.c ****     }
 7426              		.loc 1 331 9 is_stmt 0 view .LVU2765
 7427              	.LBE400:
 335:lvgl/src/draw/lv_draw_rect.c **** 
 7428              		.loc 1 335 1 view .LVU2766
 7429 05bc 21B0     		add	sp, sp, #132
 7430              	.LCFI27:
ARM GAS  /var/folders/k2/cd9bl_j17z77g23y6ffqb_400000gn/T//cc0jKSMI.s 			page 210


 7431              		.cfi_remember_state
 7432              		.cfi_def_cfa_offset 36
 7433              		@ sp needed
 7434 05be BDE8F08F 		pop	{r4, r5, r6, r7, r8, r9, r10, fp, pc}
 7435              	.LVL698:
 7436              	.L341:
 7437              	.LCFI28:
 7438              		.cfi_restore_state
 7439              	.LBB401:
 304:lvgl/src/draw/lv_draw_rect.c ****             fill_area.x2 = coords_bg.x2 - rout;
 7440              		.loc 1 304 13 is_stmt 1 view .LVU2767
 304:lvgl/src/draw/lv_draw_rect.c ****             fill_area.x2 = coords_bg.x2 - rout;
 7441              		.loc 1 304 37 is_stmt 0 view .LVU2768
 7442 05c2 BDF87830 		ldrh	r3, [sp, #120]
 304:lvgl/src/draw/lv_draw_rect.c ****             fill_area.x2 = coords_bg.x2 - rout;
 7443              		.loc 1 304 41 view .LVU2769
 7444 05c6 1FFA8AF5 		uxth	r5, r10
 7445              	.LVL699:
 304:lvgl/src/draw/lv_draw_rect.c ****             fill_area.x2 = coords_bg.x2 - rout;
 7446              		.loc 1 304 41 view .LVU2770
 7447 05ca 2B44     		add	r3, r3, r5
 304:lvgl/src/draw/lv_draw_rect.c ****             fill_area.x2 = coords_bg.x2 - rout;
 7448              		.loc 1 304 26 view .LVU2771
 7449 05cc ADF84430 		strh	r3, [sp, #68]	@ movhi
 305:lvgl/src/draw/lv_draw_rect.c ****             fill_area.y1 = coords_bg.y1;
 7450              		.loc 1 305 13 is_stmt 1 view .LVU2772
 305:lvgl/src/draw/lv_draw_rect.c ****             fill_area.y1 = coords_bg.y1;
 7451              		.loc 1 305 37 is_stmt 0 view .LVU2773
 7452 05d0 BDF87C30 		ldrh	r3, [sp, #124]
 305:lvgl/src/draw/lv_draw_rect.c ****             fill_area.y1 = coords_bg.y1;
 7453              		.loc 1 305 41 view .LVU2774
 7454 05d4 5B1B     		subs	r3, r3, r5
 305:lvgl/src/draw/lv_draw_rect.c ****             fill_area.y1 = coords_bg.y1;
 7455              		.loc 1 305 26 view .LVU2775
 7456 05d6 ADF84830 		strh	r3, [sp, #72]	@ movhi
 306:lvgl/src/draw/lv_draw_rect.c ****             fill_area.y2 = coords_bg.y1 + rout;
 7457              		.loc 1 306 13 is_stmt 1 view .LVU2776
 306:lvgl/src/draw/lv_draw_rect.c ****             fill_area.y2 = coords_bg.y1 + rout;
 7458              		.loc 1 306 37 is_stmt 0 view .LVU2777
 7459 05da BDF97A30 		ldrsh	r3, [sp, #122]
 306:lvgl/src/draw/lv_draw_rect.c ****             fill_area.y2 = coords_bg.y1 + rout;
 7460              		.loc 1 306 26 view .LVU2778
 7461 05de ADF84630 		strh	r3, [sp, #70]	@ movhi
 307:lvgl/src/draw/lv_draw_rect.c **** 
 7462              		.loc 1 307 13 is_stmt 1 view .LVU2779
 307:lvgl/src/draw/lv_draw_rect.c **** 
 7463              		.loc 1 307 41 is_stmt 0 view .LVU2780
 7464 05e2 15FA83F3 		uxtah	r3, r5, r3
 307:lvgl/src/draw/lv_draw_rect.c **** 
 7465              		.loc 1 307 26 view .LVU2781
 7466 05e6 ADF84A30 		strh	r3, [sp, #74]	@ movhi
 309:lvgl/src/draw/lv_draw_rect.c ****                            dsc->bg_color, NULL, LV_DRAW_MASK_RES_FULL_COVER, opa, dsc->blend_mode);
 7467              		.loc 1 309 13 is_stmt 1 view .LVU2782
 7468 05ea B378     		ldrb	r3, [r6, #2]	@ zero_extendqisi2
 7469 05ec 0293     		str	r3, [sp, #8]
 7470 05ee 049B     		ldr	r3, [sp, #16]
 7471 05f0 0193     		str	r3, [sp, #4]
ARM GAS  /var/folders/k2/cd9bl_j17z77g23y6ffqb_400000gn/T//cc0jKSMI.s 			page 211


 7472 05f2 0123     		movs	r3, #1
 7473 05f4 0093     		str	r3, [sp]
 7474 05f6 0023     		movs	r3, #0
 7475 05f8 7268     		ldr	r2, [r6, #4]
 7476 05fa 11A9     		add	r1, sp, #68
 7477 05fc 0798     		ldr	r0, [sp, #28]
 7478 05fe FFF7FEFF 		bl	_lv_blend_fill
 7479              	.LVL700:
 312:lvgl/src/draw/lv_draw_rect.c ****             if(fill_area.y1 <= fill_area.y2) fill_area.y1 = fill_area.y2 + 1;    /*Avoid overdrawin
 7480              		.loc 1 312 13 view .LVU2783
 312:lvgl/src/draw/lv_draw_rect.c ****             if(fill_area.y1 <= fill_area.y2) fill_area.y1 = fill_area.y2 + 1;    /*Avoid overdrawin
 7481              		.loc 1 312 37 is_stmt 0 view .LVU2784
 7482 0602 BDF97E10 		ldrsh	r1, [sp, #126]
 7483 0606 8BB2     		uxth	r3, r1
 312:lvgl/src/draw/lv_draw_rect.c ****             if(fill_area.y1 <= fill_area.y2) fill_area.y1 = fill_area.y2 + 1;    /*Avoid overdrawin
 7484              		.loc 1 312 41 view .LVU2785
 7485 0608 5B1B     		subs	r3, r3, r5
 7486 060a 1BB2     		sxth	r3, r3
 312:lvgl/src/draw/lv_draw_rect.c ****             if(fill_area.y1 <= fill_area.y2) fill_area.y1 = fill_area.y2 + 1;    /*Avoid overdrawin
 7487              		.loc 1 312 26 view .LVU2786
 7488 060c ADF84630 		strh	r3, [sp, #70]	@ movhi
 313:lvgl/src/draw/lv_draw_rect.c ****             fill_area.y2 = coords_bg.y2;
 7489              		.loc 1 313 13 is_stmt 1 view .LVU2787
 313:lvgl/src/draw/lv_draw_rect.c ****             fill_area.y2 = coords_bg.y2;
 7490              		.loc 1 313 41 is_stmt 0 view .LVU2788
 7491 0610 BDF94A20 		ldrsh	r2, [sp, #74]
 313:lvgl/src/draw/lv_draw_rect.c ****             fill_area.y2 = coords_bg.y2;
 7492              		.loc 1 313 15 view .LVU2789
 7493 0614 9342     		cmp	r3, r2
 7494 0616 03DC     		bgt	.L311
 313:lvgl/src/draw/lv_draw_rect.c ****             fill_area.y2 = coords_bg.y2;
 7495              		.loc 1 313 46 is_stmt 1 discriminator 1 view .LVU2790
 313:lvgl/src/draw/lv_draw_rect.c ****             fill_area.y2 = coords_bg.y2;
 7496              		.loc 1 313 70 is_stmt 0 discriminator 1 view .LVU2791
 7497 0618 93B2     		uxth	r3, r2
 313:lvgl/src/draw/lv_draw_rect.c ****             fill_area.y2 = coords_bg.y2;
 7498              		.loc 1 313 74 discriminator 1 view .LVU2792
 7499 061a 0133     		adds	r3, r3, #1
 313:lvgl/src/draw/lv_draw_rect.c ****             fill_area.y2 = coords_bg.y2;
 7500              		.loc 1 313 59 discriminator 1 view .LVU2793
 7501 061c ADF84630 		strh	r3, [sp, #70]	@ movhi
 7502              	.L311:
 314:lvgl/src/draw/lv_draw_rect.c **** 
 7503              		.loc 1 314 13 is_stmt 1 view .LVU2794
 314:lvgl/src/draw/lv_draw_rect.c **** 
 7504              		.loc 1 314 26 is_stmt 0 view .LVU2795
 7505 0620 ADF84A10 		strh	r1, [sp, #74]	@ movhi
 316:lvgl/src/draw/lv_draw_rect.c ****                            dsc->bg_color, NULL, LV_DRAW_MASK_RES_FULL_COVER, opa, dsc->blend_mode);
 7506              		.loc 1 316 13 is_stmt 1 view .LVU2796
 7507 0624 B378     		ldrb	r3, [r6, #2]	@ zero_extendqisi2
 7508 0626 0293     		str	r3, [sp, #8]
 7509 0628 049F     		ldr	r7, [sp, #16]
 7510 062a 0197     		str	r7, [sp, #4]
 7511 062c 0124     		movs	r4, #1
 7512 062e 0094     		str	r4, [sp]
 7513 0630 0023     		movs	r3, #0
 7514 0632 7268     		ldr	r2, [r6, #4]
ARM GAS  /var/folders/k2/cd9bl_j17z77g23y6ffqb_400000gn/T//cc0jKSMI.s 			page 212


 7515 0634 11A9     		add	r1, sp, #68
 7516 0636 DDF81C80 		ldr	r8, [sp, #28]
 7517              	.LVL701:
 316:lvgl/src/draw/lv_draw_rect.c ****                            dsc->bg_color, NULL, LV_DRAW_MASK_RES_FULL_COVER, opa, dsc->blend_mode);
 7518              		.loc 1 316 13 is_stmt 0 view .LVU2797
 7519 063a 4046     		mov	r0, r8
 7520 063c FFF7FEFF 		bl	_lv_blend_fill
 7521              	.LVL702:
 319:lvgl/src/draw/lv_draw_rect.c ****             fill_area.x2 = coords_bg.x2;
 7522              		.loc 1 319 13 is_stmt 1 view .LVU2798
 319:lvgl/src/draw/lv_draw_rect.c ****             fill_area.x2 = coords_bg.x2;
 7523              		.loc 1 319 37 is_stmt 0 view .LVU2799
 7524 0640 BDF97830 		ldrsh	r3, [sp, #120]
 319:lvgl/src/draw/lv_draw_rect.c ****             fill_area.x2 = coords_bg.x2;
 7525              		.loc 1 319 26 view .LVU2800
 7526 0644 ADF84430 		strh	r3, [sp, #68]	@ movhi
 320:lvgl/src/draw/lv_draw_rect.c ****             fill_area.y1 = coords_bg.y1 + rout + 1;
 7527              		.loc 1 320 13 is_stmt 1 view .LVU2801
 320:lvgl/src/draw/lv_draw_rect.c ****             fill_area.y1 = coords_bg.y1 + rout + 1;
 7528              		.loc 1 320 37 is_stmt 0 view .LVU2802
 7529 0648 BDF97C30 		ldrsh	r3, [sp, #124]
 320:lvgl/src/draw/lv_draw_rect.c ****             fill_area.y1 = coords_bg.y1 + rout + 1;
 7530              		.loc 1 320 26 view .LVU2803
 7531 064c ADF84830 		strh	r3, [sp, #72]	@ movhi
 321:lvgl/src/draw/lv_draw_rect.c ****             fill_area.y2 = coords_bg.y2 - rout - 1;
 7532              		.loc 1 321 13 is_stmt 1 view .LVU2804
 321:lvgl/src/draw/lv_draw_rect.c ****             fill_area.y2 = coords_bg.y2 - rout - 1;
 7533              		.loc 1 321 37 is_stmt 0 view .LVU2805
 7534 0650 BDF87A30 		ldrh	r3, [sp, #122]
 321:lvgl/src/draw/lv_draw_rect.c ****             fill_area.y2 = coords_bg.y2 - rout - 1;
 7535              		.loc 1 321 41 view .LVU2806
 7536 0654 2B44     		add	r3, r3, r5
 7537 0656 9BB2     		uxth	r3, r3
 321:lvgl/src/draw/lv_draw_rect.c ****             fill_area.y2 = coords_bg.y2 - rout - 1;
 7538              		.loc 1 321 48 view .LVU2807
 7539 0658 2344     		add	r3, r3, r4
 321:lvgl/src/draw/lv_draw_rect.c ****             fill_area.y2 = coords_bg.y2 - rout - 1;
 7540              		.loc 1 321 26 view .LVU2808
 7541 065a ADF84630 		strh	r3, [sp, #70]	@ movhi
 322:lvgl/src/draw/lv_draw_rect.c **** 
 7542              		.loc 1 322 13 is_stmt 1 view .LVU2809
 322:lvgl/src/draw/lv_draw_rect.c **** 
 7543              		.loc 1 322 37 is_stmt 0 view .LVU2810
 7544 065e BDF87E30 		ldrh	r3, [sp, #126]
 322:lvgl/src/draw/lv_draw_rect.c **** 
 7545              		.loc 1 322 41 view .LVU2811
 7546 0662 5B1B     		subs	r3, r3, r5
 7547 0664 9BB2     		uxth	r3, r3
 322:lvgl/src/draw/lv_draw_rect.c **** 
 7548              		.loc 1 322 48 view .LVU2812
 7549 0666 013B     		subs	r3, r3, #1
 322:lvgl/src/draw/lv_draw_rect.c **** 
 7550              		.loc 1 322 26 view .LVU2813
 7551 0668 ADF84A30 		strh	r3, [sp, #74]	@ movhi
 324:lvgl/src/draw/lv_draw_rect.c ****                            dsc->bg_color, NULL, LV_DRAW_MASK_RES_FULL_COVER, opa, dsc->blend_mode);
 7552              		.loc 1 324 13 is_stmt 1 view .LVU2814
 7553 066c B378     		ldrb	r3, [r6, #2]	@ zero_extendqisi2
ARM GAS  /var/folders/k2/cd9bl_j17z77g23y6ffqb_400000gn/T//cc0jKSMI.s 			page 213


 7554 066e 0293     		str	r3, [sp, #8]
 7555 0670 0197     		str	r7, [sp, #4]
 7556 0672 0094     		str	r4, [sp]
 7557 0674 0023     		movs	r3, #0
 7558 0676 7268     		ldr	r2, [r6, #4]
 7559 0678 11A9     		add	r1, sp, #68
 7560 067a 4046     		mov	r0, r8
 7561 067c FFF7FEFF 		bl	_lv_blend_fill
 7562              	.LVL703:
 7563 0680 8EE7     		b	.L310
 7564              	.LBE401:
 7565              		.cfi_endproc
 7566              	.LFE149:
 7568              		.section	.text.lv_draw_rect_dsc_init,"ax",%progbits
 7569              		.align	1
 7570              		.global	lv_draw_rect_dsc_init
 7571              		.syntax unified
 7572              		.thumb
 7573              		.thumb_func
 7574              		.fpu fpv4-sp-d16
 7576              	lv_draw_rect_dsc_init:
 7577              	.LVL704:
 7578              	.LFB147:
  76:lvgl/src/draw/lv_draw_rect.c ****     lv_memset_00(dsc, sizeof(lv_draw_rect_dsc_t));
 7579              		.loc 1 76 1 view -0
 7580              		.cfi_startproc
 7581              		@ args = 0, pretend = 0, frame = 0
 7582              		@ frame_needed = 0, uses_anonymous_args = 0
  76:lvgl/src/draw/lv_draw_rect.c ****     lv_memset_00(dsc, sizeof(lv_draw_rect_dsc_t));
 7583              		.loc 1 76 1 is_stmt 0 view .LVU2816
 7584 0000 10B5     		push	{r4, lr}
 7585              	.LCFI29:
 7586              		.cfi_def_cfa_offset 8
 7587              		.cfi_offset 4, -8
 7588              		.cfi_offset 14, -4
 7589 0002 0446     		mov	r4, r0
  77:lvgl/src/draw/lv_draw_rect.c ****     dsc->bg_color = lv_color_white();
 7590              		.loc 1 77 5 is_stmt 1 view .LVU2817
 7591 0004 4421     		movs	r1, #68
 7592 0006 FFF7FEFF 		bl	lv_memset_00
 7593              	.LVL705:
  78:lvgl/src/draw/lv_draw_rect.c ****     dsc->bg_grad_color = lv_color_black();
 7594              		.loc 1 78 5 view .LVU2818
 7595              	.LBB402:
 7596              	.LBI402:
 477:lvgl/src/draw/../misc/lv_color.h **** }
 478:lvgl/src/draw/../misc/lv_color.h **** 
 479:lvgl/src/draw/../misc/lv_color.h **** LV_ATTRIBUTE_FAST_MEM static inline void lv_color_premult(lv_color_t c, uint8_t mix, uint16_t * out
 480:lvgl/src/draw/../misc/lv_color.h **** {
 481:lvgl/src/draw/../misc/lv_color.h **** #if LV_COLOR_DEPTH != 1
 482:lvgl/src/draw/../misc/lv_color.h ****     out[0] = (uint16_t) LV_COLOR_GET_R(c) * mix;
 483:lvgl/src/draw/../misc/lv_color.h ****     out[1] = (uint16_t) LV_COLOR_GET_G(c) * mix;
 484:lvgl/src/draw/../misc/lv_color.h ****     out[2] = (uint16_t) LV_COLOR_GET_B(c) * mix;
 485:lvgl/src/draw/../misc/lv_color.h **** #else
 486:lvgl/src/draw/../misc/lv_color.h ****     (void) mix;
 487:lvgl/src/draw/../misc/lv_color.h ****     /*Pre-multiplication can't be used with 1 bpp*/
 488:lvgl/src/draw/../misc/lv_color.h ****     out[0] = LV_COLOR_GET_R(c);
ARM GAS  /var/folders/k2/cd9bl_j17z77g23y6ffqb_400000gn/T//cc0jKSMI.s 			page 214


 489:lvgl/src/draw/../misc/lv_color.h ****     out[1] = LV_COLOR_GET_G(c);
 490:lvgl/src/draw/../misc/lv_color.h ****     out[2] = LV_COLOR_GET_B(c);
 491:lvgl/src/draw/../misc/lv_color.h **** #endif
 492:lvgl/src/draw/../misc/lv_color.h **** 
 493:lvgl/src/draw/../misc/lv_color.h **** }
 494:lvgl/src/draw/../misc/lv_color.h **** 
 495:lvgl/src/draw/../misc/lv_color.h **** /**
 496:lvgl/src/draw/../misc/lv_color.h ****  * Mix two colors with a given ratio. It runs faster then `lv_color_mix` but requires some pre comp
 497:lvgl/src/draw/../misc/lv_color.h ****  * @param premult_c1 The first color. Should be preprocessed with `lv_color_premult(c1)`
 498:lvgl/src/draw/../misc/lv_color.h ****  * @param c2 The second color. As it is no pre computation required on it
 499:lvgl/src/draw/../misc/lv_color.h ****  * @param mix The ratio of the colors. 0: full `c1`, 255: full `c2`, 127: half `c1` and half `c2`.
 500:lvgl/src/draw/../misc/lv_color.h ****  *            Should be modified like mix = `255 - mix`
 501:lvgl/src/draw/../misc/lv_color.h ****  * @return the mixed color
 502:lvgl/src/draw/../misc/lv_color.h ****  * @note 255 won't give clearly `c1`.
 503:lvgl/src/draw/../misc/lv_color.h ****  */
 504:lvgl/src/draw/../misc/lv_color.h **** LV_ATTRIBUTE_FAST_MEM static inline lv_color_t lv_color_mix_premult(uint16_t * premult_c1, lv_color
 505:lvgl/src/draw/../misc/lv_color.h **** {
 506:lvgl/src/draw/../misc/lv_color.h ****     lv_color_t ret;
 507:lvgl/src/draw/../misc/lv_color.h **** #if LV_COLOR_DEPTH != 1
 508:lvgl/src/draw/../misc/lv_color.h ****     /*LV_COLOR_DEPTH == 8, 16 or 32*/
 509:lvgl/src/draw/../misc/lv_color.h ****     LV_COLOR_SET_R(ret, LV_UDIV255(premult_c1[0] + LV_COLOR_GET_R(c2) * mix + LV_COLOR_MIX_ROUND_OF
 510:lvgl/src/draw/../misc/lv_color.h ****     LV_COLOR_SET_G(ret, LV_UDIV255(premult_c1[1] + LV_COLOR_GET_G(c2) * mix + LV_COLOR_MIX_ROUND_OF
 511:lvgl/src/draw/../misc/lv_color.h ****     LV_COLOR_SET_B(ret, LV_UDIV255(premult_c1[2] + LV_COLOR_GET_B(c2) * mix + LV_COLOR_MIX_ROUND_OF
 512:lvgl/src/draw/../misc/lv_color.h ****     LV_COLOR_SET_A(ret, 0xFF);
 513:lvgl/src/draw/../misc/lv_color.h **** #else
 514:lvgl/src/draw/../misc/lv_color.h ****     /*LV_COLOR_DEPTH == 1*/
 515:lvgl/src/draw/../misc/lv_color.h ****     /*Restore color1*/
 516:lvgl/src/draw/../misc/lv_color.h ****     lv_color_t c1;
 517:lvgl/src/draw/../misc/lv_color.h ****     LV_COLOR_SET_R(c1, premult_c1[0]);
 518:lvgl/src/draw/../misc/lv_color.h ****     LV_COLOR_SET_G(c1, premult_c1[1]);
 519:lvgl/src/draw/../misc/lv_color.h ****     LV_COLOR_SET_B(c1, premult_c1[2]);
 520:lvgl/src/draw/../misc/lv_color.h ****     ret.full = mix > LV_OPA_50 ? c2.full : c1.full;
 521:lvgl/src/draw/../misc/lv_color.h **** #endif
 522:lvgl/src/draw/../misc/lv_color.h **** 
 523:lvgl/src/draw/../misc/lv_color.h ****     return ret;
 524:lvgl/src/draw/../misc/lv_color.h **** }
 525:lvgl/src/draw/../misc/lv_color.h **** 
 526:lvgl/src/draw/../misc/lv_color.h **** /**
 527:lvgl/src/draw/../misc/lv_color.h ****  * Mix two colors. Both color can have alpha value.
 528:lvgl/src/draw/../misc/lv_color.h ****  * @param bg_color background color
 529:lvgl/src/draw/../misc/lv_color.h ****  * @param bg_opa alpha of the background color
 530:lvgl/src/draw/../misc/lv_color.h ****  * @param fg_color foreground color
 531:lvgl/src/draw/../misc/lv_color.h ****  * @param fg_opa alpha of the foreground color
 532:lvgl/src/draw/../misc/lv_color.h ****  * @param res_color the result color
 533:lvgl/src/draw/../misc/lv_color.h ****  * @param res_opa the result opacity
 534:lvgl/src/draw/../misc/lv_color.h ****  */
 535:lvgl/src/draw/../misc/lv_color.h **** LV_ATTRIBUTE_FAST_MEM static inline void lv_color_mix_with_alpha(lv_color_t bg_color, lv_opa_t bg_o
 536:lvgl/src/draw/../misc/lv_color.h ****                                                                  lv_color_t fg_color, lv_opa_t fg_o
 537:lvgl/src/draw/../misc/lv_color.h ****                                                                  lv_color_t * res_color, lv_opa_t *
 538:lvgl/src/draw/../misc/lv_color.h **** {
 539:lvgl/src/draw/../misc/lv_color.h ****     /*Pick the foreground if it's fully opaque or the Background is fully transparent*/
 540:lvgl/src/draw/../misc/lv_color.h ****     if(fg_opa >= LV_OPA_MAX || bg_opa <= LV_OPA_MIN) {
 541:lvgl/src/draw/../misc/lv_color.h ****         res_color->full = fg_color.full;
 542:lvgl/src/draw/../misc/lv_color.h ****         *res_opa = fg_opa;
 543:lvgl/src/draw/../misc/lv_color.h ****     }
 544:lvgl/src/draw/../misc/lv_color.h ****     /*Transparent foreground: use the Background*/
 545:lvgl/src/draw/../misc/lv_color.h ****     else if(fg_opa <= LV_OPA_MIN) {
ARM GAS  /var/folders/k2/cd9bl_j17z77g23y6ffqb_400000gn/T//cc0jKSMI.s 			page 215


 546:lvgl/src/draw/../misc/lv_color.h ****         res_color->full = bg_color.full;
 547:lvgl/src/draw/../misc/lv_color.h ****         *res_opa = bg_opa;
 548:lvgl/src/draw/../misc/lv_color.h ****     }
 549:lvgl/src/draw/../misc/lv_color.h ****     /*Opaque background: use simple mix*/
 550:lvgl/src/draw/../misc/lv_color.h ****     else if(bg_opa >= LV_OPA_MAX) {
 551:lvgl/src/draw/../misc/lv_color.h ****         *res_color = lv_color_mix(fg_color, bg_color, fg_opa);
 552:lvgl/src/draw/../misc/lv_color.h ****         *res_opa = LV_OPA_COVER;
 553:lvgl/src/draw/../misc/lv_color.h ****     }
 554:lvgl/src/draw/../misc/lv_color.h ****     /*Both colors have alpha. Expensive calculation need to be applied*/
 555:lvgl/src/draw/../misc/lv_color.h ****     else {
 556:lvgl/src/draw/../misc/lv_color.h ****         /*Save the parameters and the result. If they will be asked again don't compute again*/
 557:lvgl/src/draw/../misc/lv_color.h ****         static lv_opa_t fg_opa_save     = 0;
 558:lvgl/src/draw/../misc/lv_color.h ****         static lv_opa_t bg_opa_save     = 0;
 559:lvgl/src/draw/../misc/lv_color.h ****         static lv_color_t fg_color_save = _LV_COLOR_ZERO_INITIALIZER;
 560:lvgl/src/draw/../misc/lv_color.h ****         static lv_color_t bg_color_save = _LV_COLOR_ZERO_INITIALIZER;
 561:lvgl/src/draw/../misc/lv_color.h ****         static lv_color_t res_color_saved = _LV_COLOR_ZERO_INITIALIZER;
 562:lvgl/src/draw/../misc/lv_color.h ****         static lv_opa_t res_opa_saved = 0;
 563:lvgl/src/draw/../misc/lv_color.h **** 
 564:lvgl/src/draw/../misc/lv_color.h ****         if(fg_opa != fg_opa_save || bg_opa != bg_opa_save || fg_color.full != fg_color_save.full ||
 565:lvgl/src/draw/../misc/lv_color.h ****            bg_color.full != bg_color_save.full) {
 566:lvgl/src/draw/../misc/lv_color.h ****             fg_opa_save        = fg_opa;
 567:lvgl/src/draw/../misc/lv_color.h ****             bg_opa_save        = bg_opa;
 568:lvgl/src/draw/../misc/lv_color.h ****             fg_color_save.full = fg_color.full;
 569:lvgl/src/draw/../misc/lv_color.h ****             bg_color_save.full = bg_color.full;
 570:lvgl/src/draw/../misc/lv_color.h ****             /*Info:
 571:lvgl/src/draw/../misc/lv_color.h ****              * https://en.wikipedia.org/wiki/Alpha_compositing#Analytical_derivation_of_the_over_op
 572:lvgl/src/draw/../misc/lv_color.h ****             res_opa_saved = 255 - ((uint16_t)((uint16_t)(255 - fg_opa) * (255 - bg_opa)) >> 8);
 573:lvgl/src/draw/../misc/lv_color.h ****             if(res_opa_saved == 0) {
 574:lvgl/src/draw/../misc/lv_color.h ****                 while(1)
 575:lvgl/src/draw/../misc/lv_color.h ****                     ;
 576:lvgl/src/draw/../misc/lv_color.h ****             }
 577:lvgl/src/draw/../misc/lv_color.h ****             lv_opa_t ratio = (uint16_t)((uint16_t)fg_opa * 255) / res_opa_saved;
 578:lvgl/src/draw/../misc/lv_color.h ****             res_color_saved = lv_color_mix(fg_color, bg_color, ratio);
 579:lvgl/src/draw/../misc/lv_color.h **** 
 580:lvgl/src/draw/../misc/lv_color.h ****         }
 581:lvgl/src/draw/../misc/lv_color.h **** 
 582:lvgl/src/draw/../misc/lv_color.h ****         res_color->full = res_color_saved.full;
 583:lvgl/src/draw/../misc/lv_color.h ****         *res_opa = res_opa_saved;
 584:lvgl/src/draw/../misc/lv_color.h ****     }
 585:lvgl/src/draw/../misc/lv_color.h **** }
 586:lvgl/src/draw/../misc/lv_color.h **** 
 587:lvgl/src/draw/../misc/lv_color.h **** //! @endcond
 588:lvgl/src/draw/../misc/lv_color.h **** 
 589:lvgl/src/draw/../misc/lv_color.h **** /**
 590:lvgl/src/draw/../misc/lv_color.h ****  * Get the brightness of a color
 591:lvgl/src/draw/../misc/lv_color.h ****  * @param color a color
 592:lvgl/src/draw/../misc/lv_color.h ****  * @return the brightness [0..255]
 593:lvgl/src/draw/../misc/lv_color.h ****  */
 594:lvgl/src/draw/../misc/lv_color.h **** static inline uint8_t lv_color_brightness(lv_color_t color)
 595:lvgl/src/draw/../misc/lv_color.h **** {
 596:lvgl/src/draw/../misc/lv_color.h ****     lv_color32_t c32;
 597:lvgl/src/draw/../misc/lv_color.h ****     c32.full        = lv_color_to32(color);
 598:lvgl/src/draw/../misc/lv_color.h ****     uint16_t bright = (uint16_t)(3u * LV_COLOR_GET_R32(c32) + LV_COLOR_GET_B32(c32) + 4u * LV_COLOR
 599:lvgl/src/draw/../misc/lv_color.h ****     return (uint8_t)(bright >> 3);
 600:lvgl/src/draw/../misc/lv_color.h **** }
 601:lvgl/src/draw/../misc/lv_color.h **** 
 602:lvgl/src/draw/../misc/lv_color.h **** static inline lv_color_t lv_color_make(uint8_t r, uint8_t g, uint8_t b)
ARM GAS  /var/folders/k2/cd9bl_j17z77g23y6ffqb_400000gn/T//cc0jKSMI.s 			page 216


 603:lvgl/src/draw/../misc/lv_color.h **** {
 604:lvgl/src/draw/../misc/lv_color.h ****     return _LV_COLOR_MAKE_TYPE_HELPER LV_COLOR_MAKE(r, g, b);
 605:lvgl/src/draw/../misc/lv_color.h **** }
 606:lvgl/src/draw/../misc/lv_color.h **** 
 607:lvgl/src/draw/../misc/lv_color.h **** static inline lv_color_t lv_color_hex(uint32_t c)
 608:lvgl/src/draw/../misc/lv_color.h **** {
 609:lvgl/src/draw/../misc/lv_color.h ****     return lv_color_make((uint8_t)((c >> 16) & 0xFF), (uint8_t)((c >> 8) & 0xFF), (uint8_t)(c & 0xF
 610:lvgl/src/draw/../misc/lv_color.h **** }
 611:lvgl/src/draw/../misc/lv_color.h **** 
 612:lvgl/src/draw/../misc/lv_color.h **** static inline lv_color_t lv_color_hex3(uint32_t c)
 613:lvgl/src/draw/../misc/lv_color.h **** {
 614:lvgl/src/draw/../misc/lv_color.h ****     return lv_color_make((uint8_t)(((c >> 4) & 0xF0) | ((c >> 8) & 0xF)), (uint8_t)((c & 0xF0) | ((
 615:lvgl/src/draw/../misc/lv_color.h ****                          (uint8_t)((c & 0xF) | ((c & 0xF) << 4)));
 616:lvgl/src/draw/../misc/lv_color.h **** }
 617:lvgl/src/draw/../misc/lv_color.h **** 
 618:lvgl/src/draw/../misc/lv_color.h **** static inline void lv_color_filter_dsc_init(lv_color_filter_dsc_t * dsc, lv_color_filter_cb_t cb)
 619:lvgl/src/draw/../misc/lv_color.h **** {
 620:lvgl/src/draw/../misc/lv_color.h ****     dsc->filter_cb = cb;
 621:lvgl/src/draw/../misc/lv_color.h **** }
 622:lvgl/src/draw/../misc/lv_color.h **** 
 623:lvgl/src/draw/../misc/lv_color.h **** //! @cond Doxygen_Suppress
 624:lvgl/src/draw/../misc/lv_color.h **** //!
 625:lvgl/src/draw/../misc/lv_color.h **** LV_ATTRIBUTE_FAST_MEM void lv_color_fill(lv_color_t * buf, lv_color_t color, uint32_t px_num);
 626:lvgl/src/draw/../misc/lv_color.h **** 
 627:lvgl/src/draw/../misc/lv_color.h **** //! @endcond
 628:lvgl/src/draw/../misc/lv_color.h **** lv_color_t lv_color_lighten(lv_color_t c, lv_opa_t lvl);
 629:lvgl/src/draw/../misc/lv_color.h **** 
 630:lvgl/src/draw/../misc/lv_color.h **** lv_color_t lv_color_darken(lv_color_t c, lv_opa_t lvl);
 631:lvgl/src/draw/../misc/lv_color.h **** 
 632:lvgl/src/draw/../misc/lv_color.h **** lv_color_t lv_color_change_lightness(lv_color_t c, lv_opa_t lvl);
 633:lvgl/src/draw/../misc/lv_color.h **** 
 634:lvgl/src/draw/../misc/lv_color.h **** /**
 635:lvgl/src/draw/../misc/lv_color.h ****  * Convert a HSV color to RGB
 636:lvgl/src/draw/../misc/lv_color.h ****  * @param h hue [0..359]
 637:lvgl/src/draw/../misc/lv_color.h ****  * @param s saturation [0..100]
 638:lvgl/src/draw/../misc/lv_color.h ****  * @param v value [0..100]
 639:lvgl/src/draw/../misc/lv_color.h ****  * @return the given RGB color in RGB (with LV_COLOR_DEPTH depth)
 640:lvgl/src/draw/../misc/lv_color.h ****  */
 641:lvgl/src/draw/../misc/lv_color.h **** lv_color_t lv_color_hsv_to_rgb(uint16_t h, uint8_t s, uint8_t v);
 642:lvgl/src/draw/../misc/lv_color.h **** 
 643:lvgl/src/draw/../misc/lv_color.h **** /**
 644:lvgl/src/draw/../misc/lv_color.h ****  * Convert a 32-bit RGB color to HSV
 645:lvgl/src/draw/../misc/lv_color.h ****  * @param r8 8-bit red
 646:lvgl/src/draw/../misc/lv_color.h ****  * @param g8 8-bit green
 647:lvgl/src/draw/../misc/lv_color.h ****  * @param b8 8-bit blue
 648:lvgl/src/draw/../misc/lv_color.h ****  * @return the given RGB color in HSV
 649:lvgl/src/draw/../misc/lv_color.h ****  */
 650:lvgl/src/draw/../misc/lv_color.h **** lv_color_hsv_t lv_color_rgb_to_hsv(uint8_t r8, uint8_t g8, uint8_t b8);
 651:lvgl/src/draw/../misc/lv_color.h **** 
 652:lvgl/src/draw/../misc/lv_color.h **** /**
 653:lvgl/src/draw/../misc/lv_color.h ****  * Convert a color to HSV
 654:lvgl/src/draw/../misc/lv_color.h ****  * @param color color
 655:lvgl/src/draw/../misc/lv_color.h ****  * @return the given color in HSV
 656:lvgl/src/draw/../misc/lv_color.h ****  */
 657:lvgl/src/draw/../misc/lv_color.h **** lv_color_hsv_t lv_color_to_hsv(lv_color_t color);
 658:lvgl/src/draw/../misc/lv_color.h **** 
 659:lvgl/src/draw/../misc/lv_color.h **** /**
ARM GAS  /var/folders/k2/cd9bl_j17z77g23y6ffqb_400000gn/T//cc0jKSMI.s 			page 217


 660:lvgl/src/draw/../misc/lv_color.h ****  * Just a wrapper around LV_COLOR_CHROMA_KEY because it might be more convenient to use a function 
 661:lvgl/src/draw/../misc/lv_color.h ****  * @return LV_COLOR_CHROMA_KEY
 662:lvgl/src/draw/../misc/lv_color.h ****  */
 663:lvgl/src/draw/../misc/lv_color.h **** static inline lv_color_t lv_color_chroma_key(void)
 664:lvgl/src/draw/../misc/lv_color.h **** {
 665:lvgl/src/draw/../misc/lv_color.h ****     return LV_COLOR_CHROMA_KEY;
 666:lvgl/src/draw/../misc/lv_color.h **** }
 667:lvgl/src/draw/../misc/lv_color.h **** 
 668:lvgl/src/draw/../misc/lv_color.h **** /**********************
 669:lvgl/src/draw/../misc/lv_color.h ****  *  PREDEFINED COLORS
 670:lvgl/src/draw/../misc/lv_color.h ****  **********************/
 671:lvgl/src/draw/../misc/lv_color.h **** /*Source: https://vuetifyjs.com/en/styles/colors/#material-colors*/
 672:lvgl/src/draw/../misc/lv_color.h **** 
 673:lvgl/src/draw/../misc/lv_color.h **** lv_color_t lv_palette_main(lv_palette_t p);
 674:lvgl/src/draw/../misc/lv_color.h **** static inline lv_color_t lv_color_white(void) { return lv_color_make(0xff, 0xff, 0xff);}
 7597              		.loc 3 674 26 view .LVU2819
 7598              	.LBE402:
 7599              		.loc 3 674 49 view .LVU2820
 7600              	.LBB405:
 7601              	.LBB403:
 7602              	.LBI403:
 602:lvgl/src/draw/../misc/lv_color.h **** {
 7603              		.loc 3 602 26 view .LVU2821
 7604              	.LBB404:
 604:lvgl/src/draw/../misc/lv_color.h **** }
 7605              		.loc 3 604 5 view .LVU2822
 604:lvgl/src/draw/../misc/lv_color.h **** }
 7606              		.loc 3 604 12 is_stmt 0 view .LVU2823
 7607 000a 4FF0FF33 		mov	r3, #-1
 7608              	.LVL706:
 604:lvgl/src/draw/../misc/lv_color.h **** }
 7609              		.loc 3 604 12 view .LVU2824
 7610              	.LBE404:
 7611              	.LBE403:
 7612              	.LBE405:
  78:lvgl/src/draw/lv_draw_rect.c ****     dsc->bg_grad_color = lv_color_black();
 7613              		.loc 1 78 21 view .LVU2825
 7614 000e 6360     		str	r3, [r4, #4]
  79:lvgl/src/draw/lv_draw_rect.c ****     dsc->border_color = lv_color_black();
 7615              		.loc 1 79 5 is_stmt 1 view .LVU2826
 7616              	.LBB406:
 7617              	.LBI406:
 675:lvgl/src/draw/../misc/lv_color.h **** static inline lv_color_t lv_color_black(void) { return lv_color_make(0x00, 0x0, 0x00);}
 7618              		.loc 3 675 26 view .LVU2827
 7619              	.LBE406:
 7620              		.loc 3 675 49 view .LVU2828
 7621              	.LVL707:
 7622              	.LBB409:
 7623              	.LBB407:
 7624              	.LBI407:
 602:lvgl/src/draw/../misc/lv_color.h **** {
 7625              		.loc 3 602 26 view .LVU2829
 7626              	.LBB408:
 604:lvgl/src/draw/../misc/lv_color.h **** }
 7627              		.loc 3 604 5 view .LVU2830
 604:lvgl/src/draw/../misc/lv_color.h **** }
 7628              		.loc 3 604 12 is_stmt 0 view .LVU2831
ARM GAS  /var/folders/k2/cd9bl_j17z77g23y6ffqb_400000gn/T//cc0jKSMI.s 			page 218


 7629 0010 0023     		movs	r3, #0
 7630 0012 6FF30703 		bfc	r3, #0, #8
 7631 0016 6FF30F23 		bfc	r3, #8, #8
 7632 001a 6FF31743 		bfc	r3, #16, #8
 7633 001e 43F07F43 		orr	r3, r3, #-16777216
 7634              	.LVL708:
 604:lvgl/src/draw/../misc/lv_color.h **** }
 7635              		.loc 3 604 12 view .LVU2832
 7636              	.LBE408:
 7637              	.LBE407:
 7638              	.LBE409:
  79:lvgl/src/draw/lv_draw_rect.c ****     dsc->border_color = lv_color_black();
 7639              		.loc 1 79 26 view .LVU2833
 7640 0022 A360     		str	r3, [r4, #8]
  80:lvgl/src/draw/lv_draw_rect.c ****     dsc->shadow_color = lv_color_black();
 7641              		.loc 1 80 5 is_stmt 1 view .LVU2834
 7642              	.LBB410:
 7643              	.LBI410:
 7644              		.loc 3 675 26 view .LVU2835
 7645              	.LBE410:
 7646              		.loc 3 675 49 view .LVU2836
 7647              	.LVL709:
 7648              	.LBB413:
 7649              	.LBB411:
 7650              	.LBI411:
 602:lvgl/src/draw/../misc/lv_color.h **** {
 7651              		.loc 3 602 26 view .LVU2837
 7652              	.LBB412:
 604:lvgl/src/draw/../misc/lv_color.h **** }
 7653              		.loc 3 604 5 view .LVU2838
 604:lvgl/src/draw/../misc/lv_color.h **** }
 7654              		.loc 3 604 12 is_stmt 0 view .LVU2839
 7655 0024 0023     		movs	r3, #0
 7656 0026 6FF30703 		bfc	r3, #0, #8
 7657 002a 6FF30F23 		bfc	r3, #8, #8
 7658 002e 6FF31743 		bfc	r3, #16, #8
 7659 0032 43F07F43 		orr	r3, r3, #-16777216
 7660              	.LVL710:
 604:lvgl/src/draw/../misc/lv_color.h **** }
 7661              		.loc 3 604 12 view .LVU2840
 7662              	.LBE412:
 7663              	.LBE411:
 7664              	.LBE413:
  80:lvgl/src/draw/lv_draw_rect.c ****     dsc->shadow_color = lv_color_black();
 7665              		.loc 1 80 25 view .LVU2841
 7666 0036 2362     		str	r3, [r4, #32]
  81:lvgl/src/draw/lv_draw_rect.c ****     dsc->bg_grad_color_stop = 0xFF;
 7667              		.loc 1 81 5 is_stmt 1 view .LVU2842
 7668              	.LBB414:
 7669              	.LBI414:
 7670              		.loc 3 675 26 view .LVU2843
 7671              	.LBE414:
 7672              		.loc 3 675 49 view .LVU2844
 7673              	.LVL711:
 7674              	.LBB417:
 7675              	.LBB415:
 7676              	.LBI415:
ARM GAS  /var/folders/k2/cd9bl_j17z77g23y6ffqb_400000gn/T//cc0jKSMI.s 			page 219


 602:lvgl/src/draw/../misc/lv_color.h **** {
 7677              		.loc 3 602 26 view .LVU2845
 7678              	.LBB416:
 604:lvgl/src/draw/../misc/lv_color.h **** }
 7679              		.loc 3 604 5 view .LVU2846
 604:lvgl/src/draw/../misc/lv_color.h **** }
 7680              		.loc 3 604 12 is_stmt 0 view .LVU2847
 7681 0038 0023     		movs	r3, #0
 7682 003a 6FF30703 		bfc	r3, #0, #8
 7683 003e 6FF30F23 		bfc	r3, #8, #8
 7684 0042 6FF31743 		bfc	r3, #16, #8
 7685 0046 43F07F43 		orr	r3, r3, #-16777216
 7686              	.LVL712:
 604:lvgl/src/draw/../misc/lv_color.h **** }
 7687              		.loc 3 604 12 view .LVU2848
 7688              	.LBE416:
 7689              	.LBE415:
 7690              	.LBE417:
  81:lvgl/src/draw/lv_draw_rect.c ****     dsc->bg_grad_color_stop = 0xFF;
 7691              		.loc 1 81 25 view .LVU2849
 7692 004a 6363     		str	r3, [r4, #52]
  82:lvgl/src/draw/lv_draw_rect.c ****     dsc->bg_img_symbol_font = LV_FONT_DEFAULT;
 7693              		.loc 1 82 5 is_stmt 1 view .LVU2850
  82:lvgl/src/draw/lv_draw_rect.c ****     dsc->bg_img_symbol_font = LV_FONT_DEFAULT;
 7694              		.loc 1 82 29 is_stmt 0 view .LVU2851
 7695 004c FF23     		movs	r3, #255
 7696 004e 6373     		strb	r3, [r4, #13]
  83:lvgl/src/draw/lv_draw_rect.c ****     dsc->bg_opa = LV_OPA_COVER;
 7697              		.loc 1 83 5 is_stmt 1 view .LVU2852
  83:lvgl/src/draw/lv_draw_rect.c ****     dsc->bg_opa = LV_OPA_COVER;
 7698              		.loc 1 83 29 is_stmt 0 view .LVU2853
 7699 0050 084A     		ldr	r2, .L344
 7700 0052 6261     		str	r2, [r4, #20]
  84:lvgl/src/draw/lv_draw_rect.c ****     dsc->bg_img_opa = LV_OPA_COVER;
 7701              		.loc 1 84 5 is_stmt 1 view .LVU2854
  84:lvgl/src/draw/lv_draw_rect.c ****     dsc->bg_img_opa = LV_OPA_COVER;
 7702              		.loc 1 84 17 is_stmt 0 view .LVU2855
 7703 0054 A373     		strb	r3, [r4, #14]
  85:lvgl/src/draw/lv_draw_rect.c ****     dsc->outline_opa = LV_OPA_COVER;
 7704              		.loc 1 85 5 is_stmt 1 view .LVU2856
  85:lvgl/src/draw/lv_draw_rect.c ****     dsc->outline_opa = LV_OPA_COVER;
 7705              		.loc 1 85 21 is_stmt 0 view .LVU2857
 7706 0056 2377     		strb	r3, [r4, #28]
  86:lvgl/src/draw/lv_draw_rect.c ****     dsc->border_opa = LV_OPA_COVER;
 7707              		.loc 1 86 5 is_stmt 1 view .LVU2858
  86:lvgl/src/draw/lv_draw_rect.c ****     dsc->border_opa = LV_OPA_COVER;
 7708              		.loc 1 86 22 is_stmt 0 view .LVU2859
 7709 0058 84F83030 		strb	r3, [r4, #48]
  87:lvgl/src/draw/lv_draw_rect.c ****     dsc->shadow_opa = LV_OPA_COVER;
 7710              		.loc 1 87 5 is_stmt 1 view .LVU2860
  87:lvgl/src/draw/lv_draw_rect.c ****     dsc->shadow_opa = LV_OPA_COVER;
 7711              		.loc 1 87 21 is_stmt 0 view .LVU2861
 7712 005c 84F82630 		strb	r3, [r4, #38]
  88:lvgl/src/draw/lv_draw_rect.c ****     dsc->border_side = LV_BORDER_SIDE_FULL;
 7713              		.loc 1 88 5 is_stmt 1 view .LVU2862
  88:lvgl/src/draw/lv_draw_rect.c ****     dsc->border_side = LV_BORDER_SIDE_FULL;
 7714              		.loc 1 88 21 is_stmt 0 view .LVU2863
ARM GAS  /var/folders/k2/cd9bl_j17z77g23y6ffqb_400000gn/T//cc0jKSMI.s 			page 220


 7715 0060 84F84030 		strb	r3, [r4, #64]
  89:lvgl/src/draw/lv_draw_rect.c **** }
 7716              		.loc 1 89 5 is_stmt 1 view .LVU2864
  89:lvgl/src/draw/lv_draw_rect.c **** }
 7717              		.loc 1 89 22 is_stmt 0 view .LVU2865
 7718 0064 94F82730 		ldrb	r3, [r4, #39]	@ zero_extendqisi2
 7719 0068 0F22     		movs	r2, #15
 7720 006a 62F34503 		bfi	r3, r2, #1, #5
 7721 006e 84F82730 		strb	r3, [r4, #39]
  90:lvgl/src/draw/lv_draw_rect.c **** 
 7722              		.loc 1 90 1 view .LVU2866
 7723 0072 10BD     		pop	{r4, pc}
 7724              	.LVL713:
 7725              	.L345:
  90:lvgl/src/draw/lv_draw_rect.c **** 
 7726              		.loc 1 90 1 view .LVU2867
 7727              		.align	2
 7728              	.L344:
 7729 0074 00000000 		.word	lv_font_montserrat_14
 7730              		.cfi_endproc
 7731              	.LFE147:
 7733              		.section	.text.lv_draw_rect,"ax",%progbits
 7734              		.align	1
 7735              		.global	lv_draw_rect
 7736              		.syntax unified
 7737              		.thumb
 7738              		.thumb_func
 7739              		.fpu fpv4-sp-d16
 7741              	lv_draw_rect:
 7742              	.LVL714:
 7743              	.LFB148:
  99:lvgl/src/draw/lv_draw_rect.c ****     if(lv_area_get_height(coords) < 1 || lv_area_get_width(coords) < 1) return;
 7744              		.loc 1 99 1 is_stmt 1 view -0
 7745              		.cfi_startproc
 7746              		@ args = 0, pretend = 0, frame = 0
 7747              		@ frame_needed = 0, uses_anonymous_args = 0
  99:lvgl/src/draw/lv_draw_rect.c ****     if(lv_area_get_height(coords) < 1 || lv_area_get_width(coords) < 1) return;
 7748              		.loc 1 99 1 is_stmt 0 view .LVU2869
 7749 0000 70B5     		push	{r4, r5, r6, lr}
 7750              	.LCFI30:
 7751              		.cfi_def_cfa_offset 16
 7752              		.cfi_offset 4, -16
 7753              		.cfi_offset 5, -12
 7754              		.cfi_offset 6, -8
 7755              		.cfi_offset 14, -4
 7756 0002 1646     		mov	r6, r2
 100:lvgl/src/draw/lv_draw_rect.c **** #if LV_DRAW_COMPLEX
 7757              		.loc 1 100 5 is_stmt 1 view .LVU2870
 7758              	.LVL715:
 7759              	.LBB418:
 7760              	.LBI418:
 143:lvgl/src/draw/../misc/lv_area.h **** {
 7761              		.loc 2 143 26 view .LVU2871
 7762              	.LBB419:
 7763              		.loc 2 145 5 view .LVU2872
 7764              		.loc 2 145 31 is_stmt 0 view .LVU2873
 7765 0004 C388     		ldrh	r3, [r0, #6]
ARM GAS  /var/folders/k2/cd9bl_j17z77g23y6ffqb_400000gn/T//cc0jKSMI.s 			page 221


 7766              		.loc 2 145 44 view .LVU2874
 7767 0006 4288     		ldrh	r2, [r0, #2]
 7768              	.LVL716:
 7769              		.loc 2 145 36 view .LVU2875
 7770 0008 9B1A     		subs	r3, r3, r2
 7771 000a 9BB2     		uxth	r3, r3
 7772              		.loc 2 145 49 view .LVU2876
 7773 000c 0133     		adds	r3, r3, #1
 7774              		.loc 2 145 12 view .LVU2877
 7775 000e 1BB2     		sxth	r3, r3
 7776              	.LVL717:
 7777              		.loc 2 145 12 view .LVU2878
 7778              	.LBE419:
 7779              	.LBE418:
 100:lvgl/src/draw/lv_draw_rect.c **** #if LV_DRAW_COMPLEX
 7780              		.loc 1 100 7 view .LVU2879
 7781 0010 002B     		cmp	r3, #0
 7782 0012 20DD     		ble	.L346
 7783 0014 0446     		mov	r4, r0
 7784 0016 0D46     		mov	r5, r1
 7785              	.LVL718:
 7786              	.LBB420:
 7787              	.LBI420:
 133:lvgl/src/draw/../misc/lv_area.h **** {
 7788              		.loc 2 133 26 is_stmt 1 view .LVU2880
 7789              	.LBB421:
 135:lvgl/src/draw/../misc/lv_area.h **** }
 7790              		.loc 2 135 5 view .LVU2881
 135:lvgl/src/draw/../misc/lv_area.h **** }
 7791              		.loc 2 135 31 is_stmt 0 view .LVU2882
 7792 0018 8388     		ldrh	r3, [r0, #4]
 135:lvgl/src/draw/../misc/lv_area.h **** }
 7793              		.loc 2 135 44 view .LVU2883
 7794 001a 0288     		ldrh	r2, [r0]
 135:lvgl/src/draw/../misc/lv_area.h **** }
 7795              		.loc 2 135 36 view .LVU2884
 7796 001c 9B1A     		subs	r3, r3, r2
 7797 001e 9BB2     		uxth	r3, r3
 135:lvgl/src/draw/../misc/lv_area.h **** }
 7798              		.loc 2 135 49 view .LVU2885
 7799 0020 0133     		adds	r3, r3, #1
 135:lvgl/src/draw/../misc/lv_area.h **** }
 7800              		.loc 2 135 12 view .LVU2886
 7801 0022 1BB2     		sxth	r3, r3
 7802              	.LVL719:
 135:lvgl/src/draw/../misc/lv_area.h **** }
 7803              		.loc 2 135 12 view .LVU2887
 7804              	.LBE421:
 7805              	.LBE420:
 100:lvgl/src/draw/lv_draw_rect.c **** #if LV_DRAW_COMPLEX
 7806              		.loc 1 100 39 view .LVU2888
 7807 0024 002B     		cmp	r3, #0
 7808 0026 16DD     		ble	.L346
 102:lvgl/src/draw/lv_draw_rect.c **** #endif
 7809              		.loc 1 102 5 is_stmt 1 view .LVU2889
 7810 0028 3246     		mov	r2, r6
 7811 002a FFF7FEFF 		bl	draw_shadow
ARM GAS  /var/folders/k2/cd9bl_j17z77g23y6ffqb_400000gn/T//cc0jKSMI.s 			page 222


 7812              	.LVL720:
 105:lvgl/src/draw/lv_draw_rect.c ****     draw_bg_img(coords, clip, dsc);
 7813              		.loc 1 105 5 view .LVU2890
 7814 002e 3246     		mov	r2, r6
 7815 0030 2946     		mov	r1, r5
 7816 0032 2046     		mov	r0, r4
 7817 0034 FFF7FEFF 		bl	draw_bg
 7818              	.LVL721:
 106:lvgl/src/draw/lv_draw_rect.c **** 
 7819              		.loc 1 106 5 view .LVU2891
 7820 0038 3246     		mov	r2, r6
 7821 003a 2946     		mov	r1, r5
 7822 003c 2046     		mov	r0, r4
 7823 003e FFF7FEFF 		bl	draw_bg_img
 7824              	.LVL722:
 108:lvgl/src/draw/lv_draw_rect.c **** 
 7825              		.loc 1 108 5 view .LVU2892
 7826 0042 3246     		mov	r2, r6
 7827 0044 2946     		mov	r1, r5
 7828 0046 2046     		mov	r0, r4
 7829 0048 FFF7FEFF 		bl	draw_border
 7830              	.LVL723:
 110:lvgl/src/draw/lv_draw_rect.c **** 
 7831              		.loc 1 110 5 view .LVU2893
 7832 004c 3246     		mov	r2, r6
 7833 004e 2946     		mov	r1, r5
 7834 0050 2046     		mov	r0, r4
 7835 0052 FFF7FEFF 		bl	draw_outline
 7836              	.LVL724:
 112:lvgl/src/draw/lv_draw_rect.c **** }
 7837              		.loc 1 112 30 view .LVU2894
 7838              	.L346:
 113:lvgl/src/draw/lv_draw_rect.c **** 
 7839              		.loc 1 113 1 is_stmt 0 view .LVU2895
 7840 0056 70BD     		pop	{r4, r5, r6, pc}
 113:lvgl/src/draw/lv_draw_rect.c **** 
 7841              		.loc 1 113 1 view .LVU2896
 7842              		.cfi_endproc
 7843              	.LFE148:
 7845              		.text
 7846              	.Letext0:
 7847              		.file 4 "/Users/nhantt/tools/stm32/gcc-arm-none-eabi-10-2020-q4-major/arm-none-eabi/include/machin
 7848              		.file 5 "/Users/nhantt/tools/stm32/gcc-arm-none-eabi-10-2020-q4-major/arm-none-eabi/include/sys/_s
 7849              		.file 6 "lvgl/src/draw/../misc/lv_math.h"
 7850              		.file 7 "lvgl/src/draw/../misc/lv_types.h"
 7851              		.file 8 "lvgl/src/draw/../misc/../font/lv_font.h"
 7852              		.file 9 "lvgl/src/draw/../misc/lv_txt.h"
 7853              		.file 10 "lvgl/src/draw/../misc/lv_bidi.h"
 7854              		.file 11 "lvgl/src/draw/../misc/lv_style.h"
 7855              		.file 12 "lvgl/src/draw/lv_draw_mask.h"
 7856              		.file 13 "lvgl/src/draw/lv_draw_rect.h"
 7857              		.file 14 "lvgl/src/draw/../misc/../draw/lv_img_buf.h"
 7858              		.file 15 "lvgl/src/draw/../misc/../draw/lv_img_decoder.h"
 7859              		.file 16 "lvgl/src/draw/../misc/../draw/lv_draw_label.h"
 7860              		.file 17 "lvgl/src/draw/../misc/../draw/lv_draw_img.h"
 7861              		.file 18 "lvgl/src/draw/../core/../hal/../misc/lv_ll.h"
 7862              		.file 19 "lvgl/src/draw/../core/../hal/../misc/lv_timer.h"
ARM GAS  /var/folders/k2/cd9bl_j17z77g23y6ffqb_400000gn/T//cc0jKSMI.s 			page 223


 7863              		.file 20 "lvgl/src/draw/../core/../hal/lv_hal_disp.h"
 7864              		.file 21 "lvgl/src/draw/../core/lv_obj.h"
 7865              		.file 22 "lvgl/src/draw/../core/lv_group.h"
 7866              		.file 23 "lvgl/src/draw/../core/lv_obj_scroll.h"
 7867              		.file 24 "lvgl/src/draw/../core/lv_obj_style.h"
 7868              		.file 25 "lvgl/src/draw/../core/lv_obj_class.h"
 7869              		.file 26 "lvgl/src/draw/../core/lv_event.h"
 7870              		.file 27 "lvgl/src/draw/lv_draw_blend.h"
 7871              		.file 28 "lvgl/src/draw/../core/../hal/../misc/lv_mem.h"
 7872              		.file 29 "lvgl/src/draw/../core/lv_refr.h"
ARM GAS  /var/folders/k2/cd9bl_j17z77g23y6ffqb_400000gn/T//cc0jKSMI.s 			page 224


DEFINED SYMBOLS
                            *ABS*:0000000000000000 lv_draw_rect.c
/var/folders/k2/cd9bl_j17z77g23y6ffqb_400000gn/T//cc0jKSMI.s:18     .text.shadow_blur_corner:0000000000000000 $t
/var/folders/k2/cd9bl_j17z77g23y6ffqb_400000gn/T//cc0jKSMI.s:25     .text.shadow_blur_corner:0000000000000000 shadow_blur_corner
/var/folders/k2/cd9bl_j17z77g23y6ffqb_400000gn/T//cc0jKSMI.s:428    .text.shadow_draw_corner_buf:0000000000000000 $t
/var/folders/k2/cd9bl_j17z77g23y6ffqb_400000gn/T//cc0jKSMI.s:434    .text.shadow_draw_corner_buf:0000000000000000 shadow_draw_corner_buf
/var/folders/k2/cd9bl_j17z77g23y6ffqb_400000gn/T//cc0jKSMI.s:873    .text.draw_shadow:0000000000000000 $t
/var/folders/k2/cd9bl_j17z77g23y6ffqb_400000gn/T//cc0jKSMI.s:879    .text.draw_shadow:0000000000000000 draw_shadow
/var/folders/k2/cd9bl_j17z77g23y6ffqb_400000gn/T//cc0jKSMI.s:3840   .text.draw_full_border:0000000000000000 $t
/var/folders/k2/cd9bl_j17z77g23y6ffqb_400000gn/T//cc0jKSMI.s:3846   .text.draw_full_border:0000000000000000 draw_full_border
/var/folders/k2/cd9bl_j17z77g23y6ffqb_400000gn/T//cc0jKSMI.s:4870   .text.draw_outline:0000000000000000 $t
/var/folders/k2/cd9bl_j17z77g23y6ffqb_400000gn/T//cc0jKSMI.s:4876   .text.draw_outline:0000000000000000 draw_outline
/var/folders/k2/cd9bl_j17z77g23y6ffqb_400000gn/T//cc0jKSMI.s:5052   .text.draw_border:0000000000000000 $t
/var/folders/k2/cd9bl_j17z77g23y6ffqb_400000gn/T//cc0jKSMI.s:5058   .text.draw_border:0000000000000000 draw_border
/var/folders/k2/cd9bl_j17z77g23y6ffqb_400000gn/T//cc0jKSMI.s:5732   .text.draw_bg_img:0000000000000000 $t
/var/folders/k2/cd9bl_j17z77g23y6ffqb_400000gn/T//cc0jKSMI.s:5738   .text.draw_bg_img:0000000000000000 draw_bg_img
/var/folders/k2/cd9bl_j17z77g23y6ffqb_400000gn/T//cc0jKSMI.s:6171   .text.draw_bg:0000000000000000 $t
/var/folders/k2/cd9bl_j17z77g23y6ffqb_400000gn/T//cc0jKSMI.s:6177   .text.draw_bg:0000000000000000 draw_bg
/var/folders/k2/cd9bl_j17z77g23y6ffqb_400000gn/T//cc0jKSMI.s:7569   .text.lv_draw_rect_dsc_init:0000000000000000 $t
/var/folders/k2/cd9bl_j17z77g23y6ffqb_400000gn/T//cc0jKSMI.s:7576   .text.lv_draw_rect_dsc_init:0000000000000000 lv_draw_rect_dsc_init
/var/folders/k2/cd9bl_j17z77g23y6ffqb_400000gn/T//cc0jKSMI.s:7729   .text.lv_draw_rect_dsc_init:0000000000000074 $d
/var/folders/k2/cd9bl_j17z77g23y6ffqb_400000gn/T//cc0jKSMI.s:7734   .text.lv_draw_rect:0000000000000000 $t
/var/folders/k2/cd9bl_j17z77g23y6ffqb_400000gn/T//cc0jKSMI.s:7741   .text.lv_draw_rect:0000000000000000 lv_draw_rect

UNDEFINED SYMBOLS
lv_mem_buf_get
lv_memcpy
lv_mem_buf_release
lv_draw_mask_radius_init
lv_memset_ff
lv_memset_00
_lv_refr_get_disp_refreshing
lv_disp_get_draw_buf
_lv_area_intersect
lv_draw_mask_get_cnt
lv_draw_mask_add
_lv_area_is_in
_lv_blend_fill
lv_draw_mask_apply
lv_draw_mask_remove_id
lv_memset
lv_img_src_get_type
lv_img_decoder_get_info
lv_draw_img_dsc_init
lv_txt_get_size
lv_draw_label_dsc_init
lv_draw_label
lv_draw_img
_lv_blend_map
lv_font_montserrat_14
