ARM GAS  C:\Users\BLACK_~1\AppData\Local\Temp\ccXqf4MH.s 			page 1


   1              		.cpu cortex-m4
   2              		.arch armv7e-m
   3              		.fpu fpv4-sp-d16
   4              		.eabi_attribute 27, 1
   5              		.eabi_attribute 28, 1
   6              		.eabi_attribute 20, 1
   7              		.eabi_attribute 21, 1
   8              		.eabi_attribute 23, 3
   9              		.eabi_attribute 24, 1
  10              		.eabi_attribute 25, 1
  11              		.eabi_attribute 26, 1
  12              		.eabi_attribute 30, 1
  13              		.eabi_attribute 34, 1
  14              		.eabi_attribute 18, 4
  15              		.file	"lv_draw_blend.c"
  16              		.text
  17              	.Ltext0:
  18              		.cfi_sections	.debug_frame
  19              		.section	.text.map_blended,"ax",%progbits
  20              		.align	1
  21              		.syntax unified
  22              		.thumb
  23              		.thumb_func
  25              	map_blended:
  26              	.LVL0:
  27              	.LFB154:
  28              		.file 1 "lvgl/src/draw/lv_draw_blend.c"
   1:lvgl/src/draw/lv_draw_blend.c **** /**
   2:lvgl/src/draw/lv_draw_blend.c ****  * @file lv_draw_blend.c
   3:lvgl/src/draw/lv_draw_blend.c ****  *
   4:lvgl/src/draw/lv_draw_blend.c ****  */
   5:lvgl/src/draw/lv_draw_blend.c **** 
   6:lvgl/src/draw/lv_draw_blend.c **** /*********************
   7:lvgl/src/draw/lv_draw_blend.c ****  *      INCLUDES
   8:lvgl/src/draw/lv_draw_blend.c ****  *********************/
   9:lvgl/src/draw/lv_draw_blend.c **** #include "lv_draw_blend.h"
  10:lvgl/src/draw/lv_draw_blend.c **** #include "lv_img_decoder.h"
  11:lvgl/src/draw/lv_draw_blend.c **** #include "../misc/lv_math.h"
  12:lvgl/src/draw/lv_draw_blend.c **** #include "../hal/lv_hal_disp.h"
  13:lvgl/src/draw/lv_draw_blend.c **** #include "../core/lv_refr.h"
  14:lvgl/src/draw/lv_draw_blend.c **** 
  15:lvgl/src/draw/lv_draw_blend.c **** #if LV_USE_GPU_NXP_PXP
  16:lvgl/src/draw/lv_draw_blend.c ****     #include "../gpu/lv_gpu_nxp_pxp.h"
  17:lvgl/src/draw/lv_draw_blend.c **** #elif LV_USE_GPU_NXP_VG_LITE
  18:lvgl/src/draw/lv_draw_blend.c ****     #include "../gpu/lv_gpu_nxp_vglite.h"
  19:lvgl/src/draw/lv_draw_blend.c **** #elif LV_USE_GPU_STM32_DMA2D
  20:lvgl/src/draw/lv_draw_blend.c ****     #include "../gpu/lv_gpu_stm32_dma2d.h"
  21:lvgl/src/draw/lv_draw_blend.c **** #endif
  22:lvgl/src/draw/lv_draw_blend.c **** 
  23:lvgl/src/draw/lv_draw_blend.c **** /*********************
  24:lvgl/src/draw/lv_draw_blend.c ****  *      DEFINES
  25:lvgl/src/draw/lv_draw_blend.c ****  *********************/
  26:lvgl/src/draw/lv_draw_blend.c **** #define GPU_SIZE_LIMIT      240
  27:lvgl/src/draw/lv_draw_blend.c **** 
  28:lvgl/src/draw/lv_draw_blend.c **** /**********************
  29:lvgl/src/draw/lv_draw_blend.c ****  *      TYPEDEFS
  30:lvgl/src/draw/lv_draw_blend.c ****  **********************/
ARM GAS  C:\Users\BLACK_~1\AppData\Local\Temp\ccXqf4MH.s 			page 2


  31:lvgl/src/draw/lv_draw_blend.c **** 
  32:lvgl/src/draw/lv_draw_blend.c **** /**********************
  33:lvgl/src/draw/lv_draw_blend.c ****  *  STATIC PROTOTYPES
  34:lvgl/src/draw/lv_draw_blend.c ****  **********************/
  35:lvgl/src/draw/lv_draw_blend.c **** 
  36:lvgl/src/draw/lv_draw_blend.c **** static void fill_set_px(const lv_area_t * disp_area, lv_color_t * disp_buf,  const lv_area_t * draw
  37:lvgl/src/draw/lv_draw_blend.c ****                         lv_color_t color, lv_opa_t opa,
  38:lvgl/src/draw/lv_draw_blend.c ****                         const lv_opa_t * mask, lv_draw_mask_res_t mask_res);
  39:lvgl/src/draw/lv_draw_blend.c **** 
  40:lvgl/src/draw/lv_draw_blend.c **** LV_ATTRIBUTE_FAST_MEM static void fill_normal(const lv_area_t * disp_area, lv_color_t * disp_buf,
  41:lvgl/src/draw/lv_draw_blend.c ****                                               const lv_area_t * draw_area,
  42:lvgl/src/draw/lv_draw_blend.c ****                                               lv_color_t color, lv_opa_t opa,
  43:lvgl/src/draw/lv_draw_blend.c ****                                               const lv_opa_t * mask, lv_draw_mask_res_t mask_res);
  44:lvgl/src/draw/lv_draw_blend.c **** 
  45:lvgl/src/draw/lv_draw_blend.c **** #if LV_DRAW_COMPLEX
  46:lvgl/src/draw/lv_draw_blend.c **** static void fill_blended(const lv_area_t * disp_area, lv_color_t * disp_buf,  const lv_area_t * dra
  47:lvgl/src/draw/lv_draw_blend.c ****                          lv_color_t color, lv_opa_t opa,
  48:lvgl/src/draw/lv_draw_blend.c ****                          const lv_opa_t * mask, lv_draw_mask_res_t mask_res, lv_blend_mode_t mode);
  49:lvgl/src/draw/lv_draw_blend.c **** #endif
  50:lvgl/src/draw/lv_draw_blend.c **** 
  51:lvgl/src/draw/lv_draw_blend.c **** static void map_set_px(const lv_area_t * disp_area, lv_color_t * disp_buf,  const lv_area_t * draw_
  52:lvgl/src/draw/lv_draw_blend.c ****                        const lv_area_t * map_area, const lv_color_t * map_buf, lv_opa_t opa,
  53:lvgl/src/draw/lv_draw_blend.c ****                        const lv_opa_t * mask, lv_draw_mask_res_t mask_res);
  54:lvgl/src/draw/lv_draw_blend.c **** 
  55:lvgl/src/draw/lv_draw_blend.c **** LV_ATTRIBUTE_FAST_MEM static void map_normal(const lv_area_t * disp_area, lv_color_t * disp_buf,
  56:lvgl/src/draw/lv_draw_blend.c ****                                              const lv_area_t * draw_area,
  57:lvgl/src/draw/lv_draw_blend.c ****                                              const lv_area_t * map_area, const lv_color_t * map_buf
  58:lvgl/src/draw/lv_draw_blend.c ****                                              const lv_opa_t * mask, lv_draw_mask_res_t mask_res);
  59:lvgl/src/draw/lv_draw_blend.c **** 
  60:lvgl/src/draw/lv_draw_blend.c **** #if LV_DRAW_COMPLEX
  61:lvgl/src/draw/lv_draw_blend.c **** static void map_blended(const lv_area_t * disp_area, lv_color_t * disp_buf,  const lv_area_t * draw
  62:lvgl/src/draw/lv_draw_blend.c ****                         const lv_area_t * map_area, const lv_color_t * map_buf, lv_opa_t opa,
  63:lvgl/src/draw/lv_draw_blend.c ****                         const lv_opa_t * mask, lv_draw_mask_res_t mask_res, lv_blend_mode_t mode);
  64:lvgl/src/draw/lv_draw_blend.c **** 
  65:lvgl/src/draw/lv_draw_blend.c **** static inline lv_color_t color_blend_true_color_additive(lv_color_t fg, lv_color_t bg, lv_opa_t opa
  66:lvgl/src/draw/lv_draw_blend.c **** static inline lv_color_t color_blend_true_color_subtractive(lv_color_t fg, lv_color_t bg, lv_opa_t 
  67:lvgl/src/draw/lv_draw_blend.c **** #endif
  68:lvgl/src/draw/lv_draw_blend.c **** 
  69:lvgl/src/draw/lv_draw_blend.c **** /**********************
  70:lvgl/src/draw/lv_draw_blend.c ****  *  STATIC VARIABLES
  71:lvgl/src/draw/lv_draw_blend.c ****  **********************/
  72:lvgl/src/draw/lv_draw_blend.c **** 
  73:lvgl/src/draw/lv_draw_blend.c **** /**********************
  74:lvgl/src/draw/lv_draw_blend.c ****  *      MACROS
  75:lvgl/src/draw/lv_draw_blend.c ****  **********************/
  76:lvgl/src/draw/lv_draw_blend.c **** 
  77:lvgl/src/draw/lv_draw_blend.c **** #define FILL_NORMAL_MASK_PX(out_x,  color)                                                         
  78:lvgl/src/draw/lv_draw_blend.c ****     if(*mask_tmp_x) {          \
  79:lvgl/src/draw/lv_draw_blend.c ****         if(*mask_tmp_x == LV_OPA_COVER) disp_buf_first[out_x] = color;                             
  80:lvgl/src/draw/lv_draw_blend.c ****         else disp_buf_first[out_x] = lv_color_mix(color, disp_buf_first[out_x], *mask_tmp_x);      
  81:lvgl/src/draw/lv_draw_blend.c ****     }                                                                                              
  82:lvgl/src/draw/lv_draw_blend.c ****     mask_tmp_x++;
  83:lvgl/src/draw/lv_draw_blend.c **** 
  84:lvgl/src/draw/lv_draw_blend.c **** #define FILL_NORMAL_MASK_PX_SCR_TRANSP(out_x,  color)                                              
  85:lvgl/src/draw/lv_draw_blend.c ****     if(*mask_tmp_x) {          \
  86:lvgl/src/draw/lv_draw_blend.c ****         if(*mask_tmp_x == LV_OPA_COVER) disp_buf_first[out_x] = color;                             
  87:lvgl/src/draw/lv_draw_blend.c ****         else if(disp->driver->screen_transp) lv_color_mix_with_alpha(disp_buf_first[out_x], disp_bu
ARM GAS  C:\Users\BLACK_~1\AppData\Local\Temp\ccXqf4MH.s 			page 3


  88:lvgl/src/draw/lv_draw_blend.c ****                                                                         color, *mask_tmp_x, &disp_b
  89:lvgl/src/draw/lv_draw_blend.c ****         else disp_buf_first[out_x] = lv_color_mix(color, disp_buf_first[out_x], *mask_tmp_x);      
  90:lvgl/src/draw/lv_draw_blend.c ****     }                                                                                              
  91:lvgl/src/draw/lv_draw_blend.c ****     mask_tmp_x++;
  92:lvgl/src/draw/lv_draw_blend.c **** 
  93:lvgl/src/draw/lv_draw_blend.c **** #define MAP_NORMAL_MASK_PX(x)                                                          \
  94:lvgl/src/draw/lv_draw_blend.c ****     if(*mask_tmp_x) {          \
  95:lvgl/src/draw/lv_draw_blend.c ****         if(*mask_tmp_x == LV_OPA_COVER) disp_buf_first[x] = map_buf_first[x];                      
  96:lvgl/src/draw/lv_draw_blend.c ****         else disp_buf_first[x] = lv_color_mix(map_buf_first[x], disp_buf_first[x], *mask_tmp_x);   
  97:lvgl/src/draw/lv_draw_blend.c ****     }                                                                                              
  98:lvgl/src/draw/lv_draw_blend.c ****     mask_tmp_x++;
  99:lvgl/src/draw/lv_draw_blend.c **** 
 100:lvgl/src/draw/lv_draw_blend.c **** #define MAP_NORMAL_MASK_PX_SCR_TRANSP(x)                        \
 101:lvgl/src/draw/lv_draw_blend.c ****     if(*mask_tmp_x) {          \
 102:lvgl/src/draw/lv_draw_blend.c ****         if(*mask_tmp_x == LV_OPA_COVER) disp_buf_first[x] = map_buf_first[x];                      
 103:lvgl/src/draw/lv_draw_blend.c ****         else if(disp->driver->screen_transp) lv_color_mix_with_alpha(disp_buf_first[x], disp_buf_fi
 104:lvgl/src/draw/lv_draw_blend.c ****                                                                         map_buf_first[x], *mask_tmp
 105:lvgl/src/draw/lv_draw_blend.c ****         else disp_buf_first[x] = lv_color_mix(map_buf_first[x], disp_buf_first[x], *mask_tmp_x);   
 106:lvgl/src/draw/lv_draw_blend.c ****     }                                                                                              
 107:lvgl/src/draw/lv_draw_blend.c ****     mask_tmp_x++;
 108:lvgl/src/draw/lv_draw_blend.c **** 
 109:lvgl/src/draw/lv_draw_blend.c **** /**********************
 110:lvgl/src/draw/lv_draw_blend.c ****  *   GLOBAL FUNCTIONS
 111:lvgl/src/draw/lv_draw_blend.c ****  **********************/
 112:lvgl/src/draw/lv_draw_blend.c **** 
 113:lvgl/src/draw/lv_draw_blend.c **** /**
 114:lvgl/src/draw/lv_draw_blend.c ****  * Fill and area in the display buffer.
 115:lvgl/src/draw/lv_draw_blend.c ****  * @param clip_area clip the fill to this area  (absolute coordinates)
 116:lvgl/src/draw/lv_draw_blend.c ****  * @param fill_area fill this area  (absolute coordinates) (should be clipped)
 117:lvgl/src/draw/lv_draw_blend.c ****  * @param color fill color
 118:lvgl/src/draw/lv_draw_blend.c ****  * @param mask a mask to apply on the fill (uint8_t array with 0x00..0xff values).
 119:lvgl/src/draw/lv_draw_blend.c ****  *             Relative to fill area but its width is truncated to clip area.
 120:lvgl/src/draw/lv_draw_blend.c ****  * @param mask_res LV_MASK_RES_COVER: the mask has only 0xff values (no mask),
 121:lvgl/src/draw/lv_draw_blend.c ****  *                 LV_MASK_RES_TRANSP: the mask has only 0x00 values (full transparent),
 122:lvgl/src/draw/lv_draw_blend.c ****  *                 LV_MASK_RES_CHANGED: the mask has mixed values
 123:lvgl/src/draw/lv_draw_blend.c ****  * @param opa overall opacity in 0x00..0xff range
 124:lvgl/src/draw/lv_draw_blend.c ****  * @param mode blend mode from `lv_blend_mode_t`
 125:lvgl/src/draw/lv_draw_blend.c ****  */
 126:lvgl/src/draw/lv_draw_blend.c **** LV_ATTRIBUTE_FAST_MEM void _lv_blend_fill(const lv_area_t * clip_area, const lv_area_t * fill_area,
 127:lvgl/src/draw/lv_draw_blend.c ****                                           lv_color_t color, lv_opa_t * mask, lv_draw_mask_res_t mas
 128:lvgl/src/draw/lv_draw_blend.c ****                                           lv_blend_mode_t mode)
 129:lvgl/src/draw/lv_draw_blend.c **** {
 130:lvgl/src/draw/lv_draw_blend.c ****     /*Do not draw transparent things*/
 131:lvgl/src/draw/lv_draw_blend.c ****     if(opa < LV_OPA_MIN) return;
 132:lvgl/src/draw/lv_draw_blend.c ****     if(mask_res == LV_DRAW_MASK_RES_TRANSP) return;
 133:lvgl/src/draw/lv_draw_blend.c **** 
 134:lvgl/src/draw/lv_draw_blend.c ****     lv_disp_t * disp = _lv_refr_get_disp_refreshing();
 135:lvgl/src/draw/lv_draw_blend.c ****     lv_disp_draw_buf_t * draw_buf = lv_disp_get_draw_buf(disp);
 136:lvgl/src/draw/lv_draw_blend.c ****     const lv_area_t * disp_area = &draw_buf->area;
 137:lvgl/src/draw/lv_draw_blend.c ****     lv_color_t * disp_buf = draw_buf->buf_act;
 138:lvgl/src/draw/lv_draw_blend.c **** 
 139:lvgl/src/draw/lv_draw_blend.c ****     if(disp->driver->gpu_wait_cb) disp->driver->gpu_wait_cb(disp->driver);
 140:lvgl/src/draw/lv_draw_blend.c **** 
 141:lvgl/src/draw/lv_draw_blend.c ****     /*Get clipped fill area which is the real draw area.
 142:lvgl/src/draw/lv_draw_blend.c ****      *It is always the same or inside `fill_area`*/
 143:lvgl/src/draw/lv_draw_blend.c ****     lv_area_t draw_area;
 144:lvgl/src/draw/lv_draw_blend.c ****     bool is_common;
ARM GAS  C:\Users\BLACK_~1\AppData\Local\Temp\ccXqf4MH.s 			page 4


 145:lvgl/src/draw/lv_draw_blend.c ****     is_common = _lv_area_intersect(&draw_area, clip_area, fill_area);
 146:lvgl/src/draw/lv_draw_blend.c ****     if(!is_common) return;
 147:lvgl/src/draw/lv_draw_blend.c **** 
 148:lvgl/src/draw/lv_draw_blend.c ****     /*Now `draw_area` has absolute coordinates.
 149:lvgl/src/draw/lv_draw_blend.c ****      *Make it relative to `disp_area` to simplify draw to `disp_buf`*/
 150:lvgl/src/draw/lv_draw_blend.c ****     draw_area.x1 -= disp_area->x1;
 151:lvgl/src/draw/lv_draw_blend.c ****     draw_area.y1 -= disp_area->y1;
 152:lvgl/src/draw/lv_draw_blend.c ****     draw_area.x2 -= disp_area->x1;
 153:lvgl/src/draw/lv_draw_blend.c ****     draw_area.y2 -= disp_area->y1;
 154:lvgl/src/draw/lv_draw_blend.c **** 
 155:lvgl/src/draw/lv_draw_blend.c ****     /*Round the values in the mask if anti-aliasing is disabled*/
 156:lvgl/src/draw/lv_draw_blend.c ****     if(mask && disp->driver->antialiasing == 0 && mask) {
 157:lvgl/src/draw/lv_draw_blend.c ****         int32_t mask_w = lv_area_get_width(&draw_area);
 158:lvgl/src/draw/lv_draw_blend.c ****         int32_t i;
 159:lvgl/src/draw/lv_draw_blend.c ****         for(i = 0; i < mask_w; i++)  mask[i] = mask[i] > 128 ? LV_OPA_COVER : LV_OPA_TRANSP;
 160:lvgl/src/draw/lv_draw_blend.c ****     }
 161:lvgl/src/draw/lv_draw_blend.c **** 
 162:lvgl/src/draw/lv_draw_blend.c ****     if(disp->driver->set_px_cb) {
 163:lvgl/src/draw/lv_draw_blend.c ****         fill_set_px(disp_area, disp_buf, &draw_area, color, opa, mask, mask_res);
 164:lvgl/src/draw/lv_draw_blend.c ****     }
 165:lvgl/src/draw/lv_draw_blend.c ****     else if(mode == LV_BLEND_MODE_NORMAL) {
 166:lvgl/src/draw/lv_draw_blend.c ****         fill_normal(disp_area, disp_buf, &draw_area, color, opa, mask, mask_res);
 167:lvgl/src/draw/lv_draw_blend.c ****     }
 168:lvgl/src/draw/lv_draw_blend.c **** #if LV_DRAW_COMPLEX
 169:lvgl/src/draw/lv_draw_blend.c ****     else {
 170:lvgl/src/draw/lv_draw_blend.c ****         fill_blended(disp_area, disp_buf, &draw_area, color, opa, mask, mask_res, mode);
 171:lvgl/src/draw/lv_draw_blend.c ****     }
 172:lvgl/src/draw/lv_draw_blend.c **** #endif
 173:lvgl/src/draw/lv_draw_blend.c **** }
 174:lvgl/src/draw/lv_draw_blend.c **** 
 175:lvgl/src/draw/lv_draw_blend.c **** /**
 176:lvgl/src/draw/lv_draw_blend.c ****  * Copy a map (image) to a display buffer.
 177:lvgl/src/draw/lv_draw_blend.c ****  * @param clip_area clip the map to this area (absolute coordinates)
 178:lvgl/src/draw/lv_draw_blend.c ****  * @param map_area area of the image  (absolute coordinates)
 179:lvgl/src/draw/lv_draw_blend.c ****  * @param map_buf a pixels of the map (image)
 180:lvgl/src/draw/lv_draw_blend.c ****  * @param mask a mask to apply on every pixel (uint8_t array with 0x00..0xff values).
 181:lvgl/src/draw/lv_draw_blend.c ****  *                Relative to map area but its width is truncated to clip area.
 182:lvgl/src/draw/lv_draw_blend.c ****  * @param mask_res LV_MASK_RES_COVER: the mask has only 0xff values (no mask),
 183:lvgl/src/draw/lv_draw_blend.c ****  *                 LV_MASK_RES_TRANSP: the mask has only 0x00 values (full transparent),
 184:lvgl/src/draw/lv_draw_blend.c ****  *                 LV_MASK_RES_CHANGED: the mask has mixed values
 185:lvgl/src/draw/lv_draw_blend.c ****  * @param opa  overall opacity in 0x00..0xff range
 186:lvgl/src/draw/lv_draw_blend.c ****  * @param mode blend mode from `lv_blend_mode_t`
 187:lvgl/src/draw/lv_draw_blend.c ****  */
 188:lvgl/src/draw/lv_draw_blend.c **** LV_ATTRIBUTE_FAST_MEM void _lv_blend_map(const lv_area_t * clip_area, const lv_area_t * map_area,
 189:lvgl/src/draw/lv_draw_blend.c ****                                          const lv_color_t * map_buf,
 190:lvgl/src/draw/lv_draw_blend.c ****                                          lv_opa_t * mask, lv_draw_mask_res_t mask_res,
 191:lvgl/src/draw/lv_draw_blend.c ****                                          lv_opa_t opa, lv_blend_mode_t mode)
 192:lvgl/src/draw/lv_draw_blend.c **** {
 193:lvgl/src/draw/lv_draw_blend.c ****     /*Do not draw transparent things*/
 194:lvgl/src/draw/lv_draw_blend.c ****     if(opa < LV_OPA_MIN) return;
 195:lvgl/src/draw/lv_draw_blend.c ****     if(mask_res == LV_DRAW_MASK_RES_TRANSP) return;
 196:lvgl/src/draw/lv_draw_blend.c **** 
 197:lvgl/src/draw/lv_draw_blend.c ****     /*Get clipped fill area which is the real draw area.
 198:lvgl/src/draw/lv_draw_blend.c ****      *It is always the same or inside `fill_area`*/
 199:lvgl/src/draw/lv_draw_blend.c ****     lv_area_t draw_area;
 200:lvgl/src/draw/lv_draw_blend.c ****     bool is_common;
 201:lvgl/src/draw/lv_draw_blend.c ****     is_common = _lv_area_intersect(&draw_area, clip_area, map_area);
ARM GAS  C:\Users\BLACK_~1\AppData\Local\Temp\ccXqf4MH.s 			page 5


 202:lvgl/src/draw/lv_draw_blend.c ****     if(!is_common) return;
 203:lvgl/src/draw/lv_draw_blend.c **** 
 204:lvgl/src/draw/lv_draw_blend.c ****     lv_disp_t * disp = _lv_refr_get_disp_refreshing();
 205:lvgl/src/draw/lv_draw_blend.c ****     lv_disp_draw_buf_t * draw_buf = lv_disp_get_draw_buf(disp);
 206:lvgl/src/draw/lv_draw_blend.c ****     const lv_area_t * disp_area = &draw_buf->area;
 207:lvgl/src/draw/lv_draw_blend.c ****     lv_color_t * disp_buf = draw_buf->buf_act;
 208:lvgl/src/draw/lv_draw_blend.c **** 
 209:lvgl/src/draw/lv_draw_blend.c ****     if(disp->driver->gpu_wait_cb) disp->driver->gpu_wait_cb(disp->driver);
 210:lvgl/src/draw/lv_draw_blend.c **** 
 211:lvgl/src/draw/lv_draw_blend.c ****     /*Now `draw_area` has absolute coordinates.
 212:lvgl/src/draw/lv_draw_blend.c ****      *Make it relative to `disp_area` to simplify draw to `disp_buf`*/
 213:lvgl/src/draw/lv_draw_blend.c ****     draw_area.x1 -= disp_area->x1;
 214:lvgl/src/draw/lv_draw_blend.c ****     draw_area.y1 -= disp_area->y1;
 215:lvgl/src/draw/lv_draw_blend.c ****     draw_area.x2 -= disp_area->x1;
 216:lvgl/src/draw/lv_draw_blend.c ****     draw_area.y2 -= disp_area->y1;
 217:lvgl/src/draw/lv_draw_blend.c **** 
 218:lvgl/src/draw/lv_draw_blend.c ****     /*Round the values in the mask if anti-aliasing is disabled*/
 219:lvgl/src/draw/lv_draw_blend.c ****     if(mask && disp->driver->antialiasing == 0)
 220:lvgl/src/draw/lv_draw_blend.c ****     {
 221:lvgl/src/draw/lv_draw_blend.c ****         int32_t mask_w = lv_area_get_width(&draw_area);
 222:lvgl/src/draw/lv_draw_blend.c ****         int32_t i;
 223:lvgl/src/draw/lv_draw_blend.c ****         for(i = 0; i < mask_w; i++)  mask[i] = mask[i] > 128 ? LV_OPA_COVER : LV_OPA_TRANSP;
 224:lvgl/src/draw/lv_draw_blend.c ****     }
 225:lvgl/src/draw/lv_draw_blend.c ****     if(disp->driver->set_px_cb) {
 226:lvgl/src/draw/lv_draw_blend.c ****         map_set_px(disp_area, disp_buf, &draw_area, map_area, map_buf, opa, mask, mask_res);
 227:lvgl/src/draw/lv_draw_blend.c ****     }
 228:lvgl/src/draw/lv_draw_blend.c ****     else if(mode == LV_BLEND_MODE_NORMAL) {
 229:lvgl/src/draw/lv_draw_blend.c ****         map_normal(disp_area, disp_buf, &draw_area, map_area, map_buf, opa, mask, mask_res);
 230:lvgl/src/draw/lv_draw_blend.c ****     }
 231:lvgl/src/draw/lv_draw_blend.c **** #if LV_DRAW_COMPLEX
 232:lvgl/src/draw/lv_draw_blend.c ****     else {
 233:lvgl/src/draw/lv_draw_blend.c ****         map_blended(disp_area, disp_buf, &draw_area, map_area, map_buf, opa, mask, mask_res, mode);
 234:lvgl/src/draw/lv_draw_blend.c ****     }
 235:lvgl/src/draw/lv_draw_blend.c **** #endif
 236:lvgl/src/draw/lv_draw_blend.c **** }
 237:lvgl/src/draw/lv_draw_blend.c **** 
 238:lvgl/src/draw/lv_draw_blend.c **** /**********************
 239:lvgl/src/draw/lv_draw_blend.c ****  *   STATIC FUNCTIONS
 240:lvgl/src/draw/lv_draw_blend.c ****  **********************/
 241:lvgl/src/draw/lv_draw_blend.c **** 
 242:lvgl/src/draw/lv_draw_blend.c **** static void fill_set_px(const lv_area_t * disp_area, lv_color_t * disp_buf,  const lv_area_t * draw
 243:lvgl/src/draw/lv_draw_blend.c ****                         lv_color_t color, lv_opa_t opa,
 244:lvgl/src/draw/lv_draw_blend.c ****                         const lv_opa_t * mask, lv_draw_mask_res_t mask_res)
 245:lvgl/src/draw/lv_draw_blend.c **** {
 246:lvgl/src/draw/lv_draw_blend.c **** 
 247:lvgl/src/draw/lv_draw_blend.c ****     lv_disp_t * disp = _lv_refr_get_disp_refreshing();
 248:lvgl/src/draw/lv_draw_blend.c **** 
 249:lvgl/src/draw/lv_draw_blend.c ****     /*Get the width of the `disp_area` it will be used to go to the next line*/
 250:lvgl/src/draw/lv_draw_blend.c ****     int32_t disp_w = lv_area_get_width(disp_area);
 251:lvgl/src/draw/lv_draw_blend.c **** 
 252:lvgl/src/draw/lv_draw_blend.c ****     int32_t x;
 253:lvgl/src/draw/lv_draw_blend.c ****     int32_t y;
 254:lvgl/src/draw/lv_draw_blend.c **** 
 255:lvgl/src/draw/lv_draw_blend.c ****     if(mask_res == LV_DRAW_MASK_RES_FULL_COVER) {
 256:lvgl/src/draw/lv_draw_blend.c ****         for(y = draw_area->y1; y <= draw_area->y2; y++) {
 257:lvgl/src/draw/lv_draw_blend.c ****             for(x = draw_area->x1; x <= draw_area->x2; x++) {
 258:lvgl/src/draw/lv_draw_blend.c ****                 disp->driver->set_px_cb(disp->driver, (void *)disp_buf, disp_w, x, y, color, opa);
ARM GAS  C:\Users\BLACK_~1\AppData\Local\Temp\ccXqf4MH.s 			page 6


 259:lvgl/src/draw/lv_draw_blend.c ****             }
 260:lvgl/src/draw/lv_draw_blend.c ****         }
 261:lvgl/src/draw/lv_draw_blend.c ****     }
 262:lvgl/src/draw/lv_draw_blend.c ****     else {
 263:lvgl/src/draw/lv_draw_blend.c ****         /*The mask is relative to the clipped area.
 264:lvgl/src/draw/lv_draw_blend.c ****          *In the cycles below mask will be indexed from `draw_area.x1`
 265:lvgl/src/draw/lv_draw_blend.c ****          *but it corresponds to zero index. So prepare `mask_tmp` accordingly.*/
 266:lvgl/src/draw/lv_draw_blend.c ****         const lv_opa_t * mask_tmp = mask - draw_area->x1;
 267:lvgl/src/draw/lv_draw_blend.c **** 
 268:lvgl/src/draw/lv_draw_blend.c ****         /*Get the width of the `draw_area` it will be used to go to the next line of the mask*/
 269:lvgl/src/draw/lv_draw_blend.c ****         int32_t draw_area_w = lv_area_get_width(draw_area);
 270:lvgl/src/draw/lv_draw_blend.c **** 
 271:lvgl/src/draw/lv_draw_blend.c ****         for(y = draw_area->y1; y <= draw_area->y2; y++) {
 272:lvgl/src/draw/lv_draw_blend.c ****             for(x = draw_area->x1; x <= draw_area->x2; x++) {
 273:lvgl/src/draw/lv_draw_blend.c ****                 if(mask_tmp[x]) {
 274:lvgl/src/draw/lv_draw_blend.c ****                     disp->driver->set_px_cb(disp->driver, (void *)disp_buf, disp_w, x, y, color,
 275:lvgl/src/draw/lv_draw_blend.c ****                                            (uint32_t)((uint32_t)opa * mask_tmp[x]) >> 8);
 276:lvgl/src/draw/lv_draw_blend.c ****                 }
 277:lvgl/src/draw/lv_draw_blend.c ****             }
 278:lvgl/src/draw/lv_draw_blend.c ****             mask_tmp += draw_area_w;
 279:lvgl/src/draw/lv_draw_blend.c ****         }
 280:lvgl/src/draw/lv_draw_blend.c ****     }
 281:lvgl/src/draw/lv_draw_blend.c **** }
 282:lvgl/src/draw/lv_draw_blend.c **** 
 283:lvgl/src/draw/lv_draw_blend.c **** /**
 284:lvgl/src/draw/lv_draw_blend.c ****  * Fill an area with a color
 285:lvgl/src/draw/lv_draw_blend.c ****  * @param disp_area the current display area (destination area)
 286:lvgl/src/draw/lv_draw_blend.c ****  * @param disp_buf destination buffer
 287:lvgl/src/draw/lv_draw_blend.c ****  * @param draw_area fill this area (relative to `disp_area`)
 288:lvgl/src/draw/lv_draw_blend.c ****  * @param color fill color
 289:lvgl/src/draw/lv_draw_blend.c ****  * @param opa overall opacity in 0x00..0xff range
 290:lvgl/src/draw/lv_draw_blend.c ****  * @param mask a mask to apply on every pixel (uint8_t array with 0x00..0xff values).
 291:lvgl/src/draw/lv_draw_blend.c ****  *                It fits into draw_area.
 292:lvgl/src/draw/lv_draw_blend.c ****  * @param mask_res LV_MASK_RES_COVER: the mask has only 0xff values (no mask),
 293:lvgl/src/draw/lv_draw_blend.c ****  *                 LV_MASK_RES_TRANSP: the mask has only 0x00 values (full transparent),
 294:lvgl/src/draw/lv_draw_blend.c ****  *                 LV_MASK_RES_CHANGED: the mask has mixed values
 295:lvgl/src/draw/lv_draw_blend.c ****  */
 296:lvgl/src/draw/lv_draw_blend.c **** LV_ATTRIBUTE_FAST_MEM static void fill_normal(const lv_area_t * disp_area, lv_color_t * disp_buf,
 297:lvgl/src/draw/lv_draw_blend.c ****                                               const lv_area_t * draw_area,
 298:lvgl/src/draw/lv_draw_blend.c ****                                               lv_color_t color, lv_opa_t opa,
 299:lvgl/src/draw/lv_draw_blend.c ****                                               const lv_opa_t * mask, lv_draw_mask_res_t mask_res)
 300:lvgl/src/draw/lv_draw_blend.c **** {
 301:lvgl/src/draw/lv_draw_blend.c **** 
 302:lvgl/src/draw/lv_draw_blend.c ****     lv_disp_t * disp = _lv_refr_get_disp_refreshing();
 303:lvgl/src/draw/lv_draw_blend.c **** 
 304:lvgl/src/draw/lv_draw_blend.c ****     /*Get the width of the `disp_area` it will be used to go to the next line*/
 305:lvgl/src/draw/lv_draw_blend.c ****     int32_t disp_w = lv_area_get_width(disp_area);
 306:lvgl/src/draw/lv_draw_blend.c **** 
 307:lvgl/src/draw/lv_draw_blend.c ****     int32_t draw_area_w = lv_area_get_width(draw_area);
 308:lvgl/src/draw/lv_draw_blend.c ****     int32_t draw_area_h = lv_area_get_height(draw_area);
 309:lvgl/src/draw/lv_draw_blend.c **** 
 310:lvgl/src/draw/lv_draw_blend.c ****     /*Create a temp. disp_buf which always point to the first pixel of the destination area*/
 311:lvgl/src/draw/lv_draw_blend.c ****     lv_color_t * disp_buf_first = disp_buf + disp_w * draw_area->y1 + draw_area->x1;
 312:lvgl/src/draw/lv_draw_blend.c **** 
 313:lvgl/src/draw/lv_draw_blend.c ****     int32_t x;
 314:lvgl/src/draw/lv_draw_blend.c ****     int32_t y;
 315:lvgl/src/draw/lv_draw_blend.c **** 
ARM GAS  C:\Users\BLACK_~1\AppData\Local\Temp\ccXqf4MH.s 			page 7


 316:lvgl/src/draw/lv_draw_blend.c ****     /*Simple fill (maybe with opacity), no masking*/
 317:lvgl/src/draw/lv_draw_blend.c ****     if(mask_res == LV_DRAW_MASK_RES_FULL_COVER) {
 318:lvgl/src/draw/lv_draw_blend.c ****         if(opa > LV_OPA_MAX) {
 319:lvgl/src/draw/lv_draw_blend.c **** #if LV_USE_GPU_NXP_PXP
 320:lvgl/src/draw/lv_draw_blend.c ****             if(lv_area_get_size(draw_area) >= LV_GPU_NXP_PXP_FILL_SIZE_LIMIT) {
 321:lvgl/src/draw/lv_draw_blend.c ****                 lv_gpu_nxp_pxp_fill(disp_buf, disp_w, draw_area, color, opa);
 322:lvgl/src/draw/lv_draw_blend.c ****                 return;
 323:lvgl/src/draw/lv_draw_blend.c ****             }
 324:lvgl/src/draw/lv_draw_blend.c **** #elif LV_USE_GPU_NXP_VG_LITE
 325:lvgl/src/draw/lv_draw_blend.c ****             if(lv_area_get_size(draw_area) >= LV_GPU_NXP_VG_LITE_FILL_SIZE_LIMIT) {
 326:lvgl/src/draw/lv_draw_blend.c ****                 if(lv_gpu_nxp_vglite_fill(disp_buf, disp_w, lv_area_get_height(disp_area), draw_are
 327:lvgl/src/draw/lv_draw_blend.c ****                     return;
 328:lvgl/src/draw/lv_draw_blend.c ****                 }
 329:lvgl/src/draw/lv_draw_blend.c ****                 /*Fall down to SW render in case of error*/
 330:lvgl/src/draw/lv_draw_blend.c ****             }
 331:lvgl/src/draw/lv_draw_blend.c **** #elif LV_USE_GPU_STM32_DMA2D
 332:lvgl/src/draw/lv_draw_blend.c ****             if(lv_area_get_size(draw_area) >= 240) {
 333:lvgl/src/draw/lv_draw_blend.c ****                 lv_gpu_stm32_dma2d_fill(disp_buf_first, disp_w, color, draw_area_w, draw_area_h);
 334:lvgl/src/draw/lv_draw_blend.c ****                 return;
 335:lvgl/src/draw/lv_draw_blend.c ****             }
 336:lvgl/src/draw/lv_draw_blend.c **** #endif
 337:lvgl/src/draw/lv_draw_blend.c **** 
 338:lvgl/src/draw/lv_draw_blend.c ****             if(disp->driver->gpu_fill_cb && lv_area_get_size(draw_area) > GPU_SIZE_LIMIT) {
 339:lvgl/src/draw/lv_draw_blend.c ****                 disp->driver->gpu_fill_cb(disp->driver, disp_buf, disp_w, draw_area, color);
 340:lvgl/src/draw/lv_draw_blend.c ****                 return;
 341:lvgl/src/draw/lv_draw_blend.c ****             }
 342:lvgl/src/draw/lv_draw_blend.c **** 
 343:lvgl/src/draw/lv_draw_blend.c ****             /*Software rendering*/
 344:lvgl/src/draw/lv_draw_blend.c ****             for(y = 0; y < draw_area_h; y++) {
 345:lvgl/src/draw/lv_draw_blend.c ****                 lv_color_fill(disp_buf_first, color, draw_area_w);
 346:lvgl/src/draw/lv_draw_blend.c ****                 disp_buf_first += disp_w;
 347:lvgl/src/draw/lv_draw_blend.c ****             }
 348:lvgl/src/draw/lv_draw_blend.c ****         }
 349:lvgl/src/draw/lv_draw_blend.c ****         /*No mask with opacity*/
 350:lvgl/src/draw/lv_draw_blend.c ****         else {
 351:lvgl/src/draw/lv_draw_blend.c **** #if LV_USE_GPU_NXP_PXP
 352:lvgl/src/draw/lv_draw_blend.c ****             if(lv_area_get_size(draw_area) >= LV_GPU_NXP_PXP_FILL_OPA_SIZE_LIMIT) {
 353:lvgl/src/draw/lv_draw_blend.c ****                 lv_gpu_nxp_pxp_fill(disp_buf, disp_w, draw_area, color, opa);
 354:lvgl/src/draw/lv_draw_blend.c ****                 return;
 355:lvgl/src/draw/lv_draw_blend.c ****             }
 356:lvgl/src/draw/lv_draw_blend.c **** #elif LV_USE_GPU_NXP_VG_LITE
 357:lvgl/src/draw/lv_draw_blend.c ****             if(lv_area_get_size(draw_area) >= LV_GPU_NXP_VG_LITE_FILL_OPA_SIZE_LIMIT) {
 358:lvgl/src/draw/lv_draw_blend.c ****                 if(lv_gpu_nxp_vglite_fill(disp_buf, disp_w, lv_area_get_height(disp_area), draw_are
 359:lvgl/src/draw/lv_draw_blend.c ****                     return;
 360:lvgl/src/draw/lv_draw_blend.c ****                 }
 361:lvgl/src/draw/lv_draw_blend.c ****                 /*Fall down to SW render in case of error*/
 362:lvgl/src/draw/lv_draw_blend.c ****             }
 363:lvgl/src/draw/lv_draw_blend.c **** #endif
 364:lvgl/src/draw/lv_draw_blend.c ****             lv_color_t last_dest_color = lv_color_black();
 365:lvgl/src/draw/lv_draw_blend.c ****             lv_color_t last_res_color = lv_color_mix(color, last_dest_color, opa);
 366:lvgl/src/draw/lv_draw_blend.c **** 
 367:lvgl/src/draw/lv_draw_blend.c ****             uint16_t color_premult[3];
 368:lvgl/src/draw/lv_draw_blend.c ****             lv_color_premult(color, opa, color_premult);
 369:lvgl/src/draw/lv_draw_blend.c ****             lv_opa_t opa_inv = 255 - opa;
 370:lvgl/src/draw/lv_draw_blend.c **** 
 371:lvgl/src/draw/lv_draw_blend.c ****             for(y = 0; y < draw_area_h; y++) {
 372:lvgl/src/draw/lv_draw_blend.c ****                 for(x = 0; x < draw_area_w; x++) {
ARM GAS  C:\Users\BLACK_~1\AppData\Local\Temp\ccXqf4MH.s 			page 8


 373:lvgl/src/draw/lv_draw_blend.c ****                     if(last_dest_color.full != disp_buf_first[x].full) {
 374:lvgl/src/draw/lv_draw_blend.c ****                         last_dest_color = disp_buf_first[x];
 375:lvgl/src/draw/lv_draw_blend.c **** 
 376:lvgl/src/draw/lv_draw_blend.c **** #if LV_COLOR_SCREEN_TRANSP
 377:lvgl/src/draw/lv_draw_blend.c ****                         if(disp->driver->screen_transp) {
 378:lvgl/src/draw/lv_draw_blend.c ****                             lv_color_mix_with_alpha(disp_buf_first[x], disp_buf_first[x].ch.alpha, 
 379:lvgl/src/draw/lv_draw_blend.c ****                                                     &last_res_color.ch.alpha);
 380:lvgl/src/draw/lv_draw_blend.c ****                         }
 381:lvgl/src/draw/lv_draw_blend.c ****                         else
 382:lvgl/src/draw/lv_draw_blend.c **** #endif
 383:lvgl/src/draw/lv_draw_blend.c ****                         {
 384:lvgl/src/draw/lv_draw_blend.c ****                             last_res_color = lv_color_mix_premult(color_premult, disp_buf_first[x],
 385:lvgl/src/draw/lv_draw_blend.c ****                         }
 386:lvgl/src/draw/lv_draw_blend.c ****                     }
 387:lvgl/src/draw/lv_draw_blend.c ****                     disp_buf_first[x] = last_res_color;
 388:lvgl/src/draw/lv_draw_blend.c ****                 }
 389:lvgl/src/draw/lv_draw_blend.c ****                 disp_buf_first += disp_w;
 390:lvgl/src/draw/lv_draw_blend.c ****             }
 391:lvgl/src/draw/lv_draw_blend.c ****         }
 392:lvgl/src/draw/lv_draw_blend.c ****     }
 393:lvgl/src/draw/lv_draw_blend.c ****     /*Masked*/
 394:lvgl/src/draw/lv_draw_blend.c ****     else {
 395:lvgl/src/draw/lv_draw_blend.c ****         /*Buffer the result color to avoid recalculating the same color*/
 396:lvgl/src/draw/lv_draw_blend.c ****         lv_color_t last_dest_color;
 397:lvgl/src/draw/lv_draw_blend.c ****         lv_color_t last_res_color;
 398:lvgl/src/draw/lv_draw_blend.c ****         lv_opa_t last_mask = LV_OPA_TRANSP;
 399:lvgl/src/draw/lv_draw_blend.c ****         last_dest_color.full = disp_buf_first[0].full;
 400:lvgl/src/draw/lv_draw_blend.c ****         last_res_color.full = disp_buf_first[0].full;
 401:lvgl/src/draw/lv_draw_blend.c **** 
 402:lvgl/src/draw/lv_draw_blend.c ****         int32_t x_end4 = draw_area_w - 4;
 403:lvgl/src/draw/lv_draw_blend.c **** 
 404:lvgl/src/draw/lv_draw_blend.c ****         /*Only the mask matters*/
 405:lvgl/src/draw/lv_draw_blend.c ****         if(opa > LV_OPA_MAX) {
 406:lvgl/src/draw/lv_draw_blend.c ****             for(y = 0; y < draw_area_h; y++) {
 407:lvgl/src/draw/lv_draw_blend.c ****                 const lv_opa_t * mask_tmp_x = mask;
 408:lvgl/src/draw/lv_draw_blend.c **** #if 0
 409:lvgl/src/draw/lv_draw_blend.c ****                 for(x = 0; x < draw_area_w; x++) {
 410:lvgl/src/draw/lv_draw_blend.c **** #if LV_COLOR_SCREEN_TRANSP
 411:lvgl/src/draw/lv_draw_blend.c ****                     FILL_NORMAL_MASK_PX_SCR_TRANSP(x, color)
 412:lvgl/src/draw/lv_draw_blend.c **** #else
 413:lvgl/src/draw/lv_draw_blend.c ****                     FILL_NORMAL_MASK_PX(x, color)
 414:lvgl/src/draw/lv_draw_blend.c **** #endif
 415:lvgl/src/draw/lv_draw_blend.c ****                 }
 416:lvgl/src/draw/lv_draw_blend.c **** #else
 417:lvgl/src/draw/lv_draw_blend.c ****                 for(x = 0; x < draw_area_w && ((lv_uintptr_t)mask_tmp_x & 0x3); x++) {
 418:lvgl/src/draw/lv_draw_blend.c **** #if LV_COLOR_SCREEN_TRANSP
 419:lvgl/src/draw/lv_draw_blend.c ****                     FILL_NORMAL_MASK_PX_SCR_TRANSP(x, color)
 420:lvgl/src/draw/lv_draw_blend.c **** #else
 421:lvgl/src/draw/lv_draw_blend.c ****                     FILL_NORMAL_MASK_PX(x, color)
 422:lvgl/src/draw/lv_draw_blend.c **** #endif
 423:lvgl/src/draw/lv_draw_blend.c ****                 }
 424:lvgl/src/draw/lv_draw_blend.c **** 
 425:lvgl/src/draw/lv_draw_blend.c ****                 uint32_t * mask32 = (uint32_t *)mask_tmp_x;
 426:lvgl/src/draw/lv_draw_blend.c ****                 for(; x <= x_end4; x += 4) {
 427:lvgl/src/draw/lv_draw_blend.c ****                     if(*mask32) {
 428:lvgl/src/draw/lv_draw_blend.c ****                         if((*mask32) == 0xFFFFFFFF) {
 429:lvgl/src/draw/lv_draw_blend.c ****                             disp_buf_first[x] = color;
ARM GAS  C:\Users\BLACK_~1\AppData\Local\Temp\ccXqf4MH.s 			page 9


 430:lvgl/src/draw/lv_draw_blend.c ****                             disp_buf_first[x + 1] = color;
 431:lvgl/src/draw/lv_draw_blend.c ****                             disp_buf_first[x + 2] = color;
 432:lvgl/src/draw/lv_draw_blend.c ****                             disp_buf_first[x + 3] = color;
 433:lvgl/src/draw/lv_draw_blend.c ****                         }
 434:lvgl/src/draw/lv_draw_blend.c ****                         else {
 435:lvgl/src/draw/lv_draw_blend.c ****                             mask_tmp_x = (const lv_opa_t *)mask32;
 436:lvgl/src/draw/lv_draw_blend.c **** #if LV_COLOR_SCREEN_TRANSP
 437:lvgl/src/draw/lv_draw_blend.c ****                             FILL_NORMAL_MASK_PX_SCR_TRANSP(x, color)
 438:lvgl/src/draw/lv_draw_blend.c ****                             FILL_NORMAL_MASK_PX_SCR_TRANSP(x + 1, color)
 439:lvgl/src/draw/lv_draw_blend.c ****                             FILL_NORMAL_MASK_PX_SCR_TRANSP(x + 2, color)
 440:lvgl/src/draw/lv_draw_blend.c ****                             FILL_NORMAL_MASK_PX_SCR_TRANSP(x + 3, color)
 441:lvgl/src/draw/lv_draw_blend.c **** #else
 442:lvgl/src/draw/lv_draw_blend.c ****                             FILL_NORMAL_MASK_PX(x, color)
 443:lvgl/src/draw/lv_draw_blend.c ****                             FILL_NORMAL_MASK_PX(x + 1, color)
 444:lvgl/src/draw/lv_draw_blend.c ****                             FILL_NORMAL_MASK_PX(x + 2, color)
 445:lvgl/src/draw/lv_draw_blend.c ****                             FILL_NORMAL_MASK_PX(x + 3, color)
 446:lvgl/src/draw/lv_draw_blend.c **** #endif
 447:lvgl/src/draw/lv_draw_blend.c ****                         }
 448:lvgl/src/draw/lv_draw_blend.c ****                     }
 449:lvgl/src/draw/lv_draw_blend.c ****                     mask32++;
 450:lvgl/src/draw/lv_draw_blend.c ****                 }
 451:lvgl/src/draw/lv_draw_blend.c **** 
 452:lvgl/src/draw/lv_draw_blend.c ****                 mask_tmp_x = (const lv_opa_t *)mask32;
 453:lvgl/src/draw/lv_draw_blend.c ****                 for(; x < draw_area_w ; x++) {
 454:lvgl/src/draw/lv_draw_blend.c **** #if LV_COLOR_SCREEN_TRANSP
 455:lvgl/src/draw/lv_draw_blend.c ****                     FILL_NORMAL_MASK_PX_SCR_TRANSP(x, color)
 456:lvgl/src/draw/lv_draw_blend.c **** #else
 457:lvgl/src/draw/lv_draw_blend.c ****                     FILL_NORMAL_MASK_PX(x, color)
 458:lvgl/src/draw/lv_draw_blend.c **** #endif
 459:lvgl/src/draw/lv_draw_blend.c ****                 }
 460:lvgl/src/draw/lv_draw_blend.c **** #endif
 461:lvgl/src/draw/lv_draw_blend.c ****                 disp_buf_first += disp_w;
 462:lvgl/src/draw/lv_draw_blend.c ****                 mask += draw_area_w;
 463:lvgl/src/draw/lv_draw_blend.c ****             }
 464:lvgl/src/draw/lv_draw_blend.c ****         }
 465:lvgl/src/draw/lv_draw_blend.c ****         /*Handle opa and mask values too*/
 466:lvgl/src/draw/lv_draw_blend.c ****         else {
 467:lvgl/src/draw/lv_draw_blend.c ****             lv_opa_t opa_tmp = LV_OPA_TRANSP;
 468:lvgl/src/draw/lv_draw_blend.c ****             for(y = draw_area->y1; y <= draw_area->y2; y++) {
 469:lvgl/src/draw/lv_draw_blend.c ****                 const lv_opa_t * mask_tmp_x = mask;
 470:lvgl/src/draw/lv_draw_blend.c ****                 for(x = 0; x < draw_area_w; x++) {
 471:lvgl/src/draw/lv_draw_blend.c ****                     if(*mask_tmp_x) {
 472:lvgl/src/draw/lv_draw_blend.c ****                         if(*mask_tmp_x != last_mask) opa_tmp = *mask_tmp_x == LV_OPA_COVER ? opa :
 473:lvgl/src/draw/lv_draw_blend.c ****                                                                    (uint32_t)((uint32_t)(*mask_tmp_
 474:lvgl/src/draw/lv_draw_blend.c ****                         if(*mask_tmp_x != last_mask || last_dest_color.full != disp_buf_first[x].fu
 475:lvgl/src/draw/lv_draw_blend.c **** #if LV_COLOR_SCREEN_TRANSP
 476:lvgl/src/draw/lv_draw_blend.c ****                             if(disp->driver->screen_transp) {
 477:lvgl/src/draw/lv_draw_blend.c ****                                 lv_color_mix_with_alpha(disp_buf_first[x], disp_buf_first[x].ch.alp
 478:lvgl/src/draw/lv_draw_blend.c ****                                                         &last_res_color.ch.alpha);
 479:lvgl/src/draw/lv_draw_blend.c ****                             }
 480:lvgl/src/draw/lv_draw_blend.c ****                             else
 481:lvgl/src/draw/lv_draw_blend.c **** #endif
 482:lvgl/src/draw/lv_draw_blend.c ****                             {
 483:lvgl/src/draw/lv_draw_blend.c ****                                 if(opa_tmp == LV_OPA_COVER) last_res_color = color;
 484:lvgl/src/draw/lv_draw_blend.c ****                                 else last_res_color = lv_color_mix(color, disp_buf_first[x], opa_tm
 485:lvgl/src/draw/lv_draw_blend.c ****                             }
 486:lvgl/src/draw/lv_draw_blend.c ****                             last_mask = *mask_tmp_x;
ARM GAS  C:\Users\BLACK_~1\AppData\Local\Temp\ccXqf4MH.s 			page 10


 487:lvgl/src/draw/lv_draw_blend.c ****                             last_dest_color.full = disp_buf_first[x].full;
 488:lvgl/src/draw/lv_draw_blend.c ****                         }
 489:lvgl/src/draw/lv_draw_blend.c ****                         disp_buf_first[x] = last_res_color;
 490:lvgl/src/draw/lv_draw_blend.c ****                     }
 491:lvgl/src/draw/lv_draw_blend.c ****                     mask_tmp_x++;
 492:lvgl/src/draw/lv_draw_blend.c ****                 }
 493:lvgl/src/draw/lv_draw_blend.c ****                 disp_buf_first += disp_w;
 494:lvgl/src/draw/lv_draw_blend.c ****                 mask += draw_area_w;
 495:lvgl/src/draw/lv_draw_blend.c ****             }
 496:lvgl/src/draw/lv_draw_blend.c ****         }
 497:lvgl/src/draw/lv_draw_blend.c ****     }
 498:lvgl/src/draw/lv_draw_blend.c **** }
 499:lvgl/src/draw/lv_draw_blend.c **** 
 500:lvgl/src/draw/lv_draw_blend.c **** #if LV_DRAW_COMPLEX
 501:lvgl/src/draw/lv_draw_blend.c **** /**
 502:lvgl/src/draw/lv_draw_blend.c ****  * Fill an area with a color but apply blending algorithms
 503:lvgl/src/draw/lv_draw_blend.c ****  * @param disp_area the current display area (destination area)
 504:lvgl/src/draw/lv_draw_blend.c ****  * @param disp_buf destination buffer
 505:lvgl/src/draw/lv_draw_blend.c ****  * @param draw_area fill this area (relative to `disp_area`)
 506:lvgl/src/draw/lv_draw_blend.c ****  * @param color fill color
 507:lvgl/src/draw/lv_draw_blend.c ****  * @param opa overall opacity in 0x00..0xff range
 508:lvgl/src/draw/lv_draw_blend.c ****  * @param mask a mask to apply on every pixel (uint8_t array with 0x00..0xff values).
 509:lvgl/src/draw/lv_draw_blend.c ****  *                It fits into draw_area.
 510:lvgl/src/draw/lv_draw_blend.c ****  * @param mask_res LV_MASK_RES_COVER: the mask has only 0xff values (no mask),
 511:lvgl/src/draw/lv_draw_blend.c ****  *                 LV_MASK_RES_TRANSP: the mask has only 0x00 values (full transparent),
 512:lvgl/src/draw/lv_draw_blend.c ****  *                 LV_MASK_RES_CHANGED: the mask has mixed values
 513:lvgl/src/draw/lv_draw_blend.c ****  * @param mode blend mode from `lv_blend_mode_t`
 514:lvgl/src/draw/lv_draw_blend.c ****  */
 515:lvgl/src/draw/lv_draw_blend.c **** static void fill_blended(const lv_area_t * disp_area, lv_color_t * disp_buf,  const lv_area_t * dra
 516:lvgl/src/draw/lv_draw_blend.c ****                          lv_color_t color, lv_opa_t opa,
 517:lvgl/src/draw/lv_draw_blend.c ****                          const lv_opa_t * mask, lv_draw_mask_res_t mask_res, lv_blend_mode_t mode)
 518:lvgl/src/draw/lv_draw_blend.c **** {
 519:lvgl/src/draw/lv_draw_blend.c ****     /*Get the width of the `disp_area` it will be used to go to the next line*/
 520:lvgl/src/draw/lv_draw_blend.c ****     int32_t disp_w = lv_area_get_width(disp_area);
 521:lvgl/src/draw/lv_draw_blend.c **** 
 522:lvgl/src/draw/lv_draw_blend.c ****     /*Create a temp. disp_buf which always point to current line to draw*/
 523:lvgl/src/draw/lv_draw_blend.c ****     lv_color_t * disp_buf_tmp = disp_buf + disp_w * draw_area->y1;
 524:lvgl/src/draw/lv_draw_blend.c **** 
 525:lvgl/src/draw/lv_draw_blend.c ****     lv_color_t (*blend_fp)(lv_color_t, lv_color_t, lv_opa_t);
 526:lvgl/src/draw/lv_draw_blend.c ****     switch(mode) {
 527:lvgl/src/draw/lv_draw_blend.c ****         case LV_BLEND_MODE_ADDITIVE:
 528:lvgl/src/draw/lv_draw_blend.c ****             blend_fp = color_blend_true_color_additive;
 529:lvgl/src/draw/lv_draw_blend.c ****             break;
 530:lvgl/src/draw/lv_draw_blend.c ****         case LV_BLEND_MODE_SUBTRACTIVE:
 531:lvgl/src/draw/lv_draw_blend.c ****             blend_fp = color_blend_true_color_subtractive;
 532:lvgl/src/draw/lv_draw_blend.c ****             break;
 533:lvgl/src/draw/lv_draw_blend.c ****         default:
 534:lvgl/src/draw/lv_draw_blend.c ****             LV_LOG_WARN("fill_blended: unsupported blend mode");
 535:lvgl/src/draw/lv_draw_blend.c ****             return;
 536:lvgl/src/draw/lv_draw_blend.c ****     }
 537:lvgl/src/draw/lv_draw_blend.c **** 
 538:lvgl/src/draw/lv_draw_blend.c ****     int32_t x;
 539:lvgl/src/draw/lv_draw_blend.c ****     int32_t y;
 540:lvgl/src/draw/lv_draw_blend.c **** 
 541:lvgl/src/draw/lv_draw_blend.c ****     /*Simple fill (maybe with opacity), no masking*/
 542:lvgl/src/draw/lv_draw_blend.c ****     if(mask_res == LV_DRAW_MASK_RES_FULL_COVER) {
 543:lvgl/src/draw/lv_draw_blend.c ****         lv_color_t last_dest_color = lv_color_black();
ARM GAS  C:\Users\BLACK_~1\AppData\Local\Temp\ccXqf4MH.s 			page 11


 544:lvgl/src/draw/lv_draw_blend.c ****         lv_color_t last_res_color = lv_color_mix(color, last_dest_color, opa);
 545:lvgl/src/draw/lv_draw_blend.c ****         for(y = draw_area->y1; y <= draw_area->y2; y++) {
 546:lvgl/src/draw/lv_draw_blend.c ****             for(x = draw_area->x1; x <= draw_area->x2; x++) {
 547:lvgl/src/draw/lv_draw_blend.c ****                 if(last_dest_color.full != disp_buf_tmp[x].full) {
 548:lvgl/src/draw/lv_draw_blend.c ****                     last_dest_color = disp_buf_tmp[x];
 549:lvgl/src/draw/lv_draw_blend.c ****                     last_res_color = blend_fp(color, disp_buf_tmp[x], opa);
 550:lvgl/src/draw/lv_draw_blend.c ****                 }
 551:lvgl/src/draw/lv_draw_blend.c ****                 disp_buf_tmp[x] = last_res_color;
 552:lvgl/src/draw/lv_draw_blend.c ****             }
 553:lvgl/src/draw/lv_draw_blend.c ****             disp_buf_tmp += disp_w;
 554:lvgl/src/draw/lv_draw_blend.c ****         }
 555:lvgl/src/draw/lv_draw_blend.c ****     }
 556:lvgl/src/draw/lv_draw_blend.c ****     /*Masked*/
 557:lvgl/src/draw/lv_draw_blend.c ****     else {
 558:lvgl/src/draw/lv_draw_blend.c ****         /*Get the width of the `draw_area` it will be used to go to the next line of the mask*/
 559:lvgl/src/draw/lv_draw_blend.c ****         int32_t draw_area_w = lv_area_get_width(draw_area);
 560:lvgl/src/draw/lv_draw_blend.c **** 
 561:lvgl/src/draw/lv_draw_blend.c ****         /*The mask is relative to the clipped area.
 562:lvgl/src/draw/lv_draw_blend.c ****          *In the cycles below mask will be indexed from `draw_area.x1`
 563:lvgl/src/draw/lv_draw_blend.c ****          *but it corresponds to zero index. So prepare `mask_tmp` accordingly.*/
 564:lvgl/src/draw/lv_draw_blend.c ****         const lv_opa_t * mask_tmp = mask - draw_area->x1;
 565:lvgl/src/draw/lv_draw_blend.c **** 
 566:lvgl/src/draw/lv_draw_blend.c ****         /*Buffer the result color to avoid recalculating the same color*/
 567:lvgl/src/draw/lv_draw_blend.c ****         lv_color_t last_dest_color;
 568:lvgl/src/draw/lv_draw_blend.c ****         lv_color_t last_res_color;
 569:lvgl/src/draw/lv_draw_blend.c ****         lv_opa_t last_mask = LV_OPA_TRANSP;
 570:lvgl/src/draw/lv_draw_blend.c ****         last_dest_color.full = disp_buf_tmp[0].full;
 571:lvgl/src/draw/lv_draw_blend.c ****         last_res_color.full = disp_buf_tmp[0].full;
 572:lvgl/src/draw/lv_draw_blend.c **** 
 573:lvgl/src/draw/lv_draw_blend.c ****         for(y = draw_area->y1; y <= draw_area->y2; y++) {
 574:lvgl/src/draw/lv_draw_blend.c ****             for(x = draw_area->x1; x <= draw_area->x2; x++) {
 575:lvgl/src/draw/lv_draw_blend.c ****                 if(mask_tmp[x] == 0) continue;
 576:lvgl/src/draw/lv_draw_blend.c ****                 if(mask_tmp[x] != last_mask || last_dest_color.full != disp_buf_tmp[x].full) {
 577:lvgl/src/draw/lv_draw_blend.c ****                     lv_opa_t opa_tmp = mask_tmp[x] >= LV_OPA_MAX ? opa : (uint32_t)((uint32_t)mask_
 578:lvgl/src/draw/lv_draw_blend.c **** 
 579:lvgl/src/draw/lv_draw_blend.c ****                     last_res_color = blend_fp(color, disp_buf_tmp[x], opa_tmp);
 580:lvgl/src/draw/lv_draw_blend.c ****                     last_mask = mask_tmp[x];
 581:lvgl/src/draw/lv_draw_blend.c ****                     last_dest_color.full = disp_buf_tmp[x].full;
 582:lvgl/src/draw/lv_draw_blend.c ****                 }
 583:lvgl/src/draw/lv_draw_blend.c ****                 disp_buf_tmp[x] = last_res_color;
 584:lvgl/src/draw/lv_draw_blend.c ****             }
 585:lvgl/src/draw/lv_draw_blend.c ****             disp_buf_tmp += disp_w;
 586:lvgl/src/draw/lv_draw_blend.c ****             mask_tmp += draw_area_w;
 587:lvgl/src/draw/lv_draw_blend.c ****         }
 588:lvgl/src/draw/lv_draw_blend.c ****     }
 589:lvgl/src/draw/lv_draw_blend.c **** }
 590:lvgl/src/draw/lv_draw_blend.c **** #endif
 591:lvgl/src/draw/lv_draw_blend.c **** 
 592:lvgl/src/draw/lv_draw_blend.c **** static void map_set_px(const lv_area_t * disp_area, lv_color_t * disp_buf,  const lv_area_t * draw_
 593:lvgl/src/draw/lv_draw_blend.c ****                        const lv_area_t * map_area, const lv_color_t * map_buf, lv_opa_t opa,
 594:lvgl/src/draw/lv_draw_blend.c ****                        const lv_opa_t * mask, lv_draw_mask_res_t mask_res)
 595:lvgl/src/draw/lv_draw_blend.c **** 
 596:lvgl/src/draw/lv_draw_blend.c **** {
 597:lvgl/src/draw/lv_draw_blend.c ****     lv_disp_t * disp = _lv_refr_get_disp_refreshing();
 598:lvgl/src/draw/lv_draw_blend.c **** 
 599:lvgl/src/draw/lv_draw_blend.c ****     /*Get the width of the `disp_area` it will be used to go to the next line*/
 600:lvgl/src/draw/lv_draw_blend.c ****     int32_t disp_w = lv_area_get_width(disp_area);
ARM GAS  C:\Users\BLACK_~1\AppData\Local\Temp\ccXqf4MH.s 			page 12


 601:lvgl/src/draw/lv_draw_blend.c **** 
 602:lvgl/src/draw/lv_draw_blend.c ****     /*Get the width of the `draw_area` it will be used to go to the next line of the mask*/
 603:lvgl/src/draw/lv_draw_blend.c ****     int32_t draw_area_w = lv_area_get_width(draw_area);
 604:lvgl/src/draw/lv_draw_blend.c **** 
 605:lvgl/src/draw/lv_draw_blend.c ****     /*Get the width of the `mask_area` it will be used to go to the next line*/
 606:lvgl/src/draw/lv_draw_blend.c ****     int32_t map_w = lv_area_get_width(map_area);
 607:lvgl/src/draw/lv_draw_blend.c **** 
 608:lvgl/src/draw/lv_draw_blend.c ****     /*Create a temp. map_buf which always point to current line to draw*/
 609:lvgl/src/draw/lv_draw_blend.c ****     const lv_color_t * map_buf_tmp = map_buf + map_w * (draw_area->y1 - (map_area->y1 - disp_area->
 610:lvgl/src/draw/lv_draw_blend.c **** 
 611:lvgl/src/draw/lv_draw_blend.c ****     map_buf_tmp += (draw_area->x1 - (map_area->x1 - disp_area->x1));
 612:lvgl/src/draw/lv_draw_blend.c ****     map_buf_tmp -= draw_area->x1;
 613:lvgl/src/draw/lv_draw_blend.c ****     int32_t x;
 614:lvgl/src/draw/lv_draw_blend.c ****     int32_t y;
 615:lvgl/src/draw/lv_draw_blend.c **** 
 616:lvgl/src/draw/lv_draw_blend.c ****     if(mask_res == LV_DRAW_MASK_RES_FULL_COVER) {
 617:lvgl/src/draw/lv_draw_blend.c ****         for(y = draw_area->y1; y <= draw_area->y2; y++) {
 618:lvgl/src/draw/lv_draw_blend.c ****             for(x = draw_area->x1; x <= draw_area->x2; x++) {
 619:lvgl/src/draw/lv_draw_blend.c ****                 disp->driver->set_px_cb(disp->driver, (void *)disp_buf, disp_w, x, y, map_buf_tmp[x
 620:lvgl/src/draw/lv_draw_blend.c ****             }
 621:lvgl/src/draw/lv_draw_blend.c ****             map_buf_tmp += map_w;
 622:lvgl/src/draw/lv_draw_blend.c ****         }
 623:lvgl/src/draw/lv_draw_blend.c ****     }
 624:lvgl/src/draw/lv_draw_blend.c ****     else {
 625:lvgl/src/draw/lv_draw_blend.c ****         /*The mask is relative to the clipped area.
 626:lvgl/src/draw/lv_draw_blend.c ****          *In the cycles below mask will be indexed from `draw_area.x1`
 627:lvgl/src/draw/lv_draw_blend.c ****          *but it corresponds to zero index. So prepare `mask_tmp` accordingly.*/
 628:lvgl/src/draw/lv_draw_blend.c ****         const lv_opa_t * mask_tmp = mask - draw_area->x1;
 629:lvgl/src/draw/lv_draw_blend.c **** 
 630:lvgl/src/draw/lv_draw_blend.c ****         for(y = draw_area->y1; y <= draw_area->y2; y++) {
 631:lvgl/src/draw/lv_draw_blend.c ****             for(x = draw_area->x1; x <= draw_area->x2; x++) {
 632:lvgl/src/draw/lv_draw_blend.c ****                 if(mask_tmp[x]) {
 633:lvgl/src/draw/lv_draw_blend.c ****                     disp->driver->set_px_cb(disp->driver, (void *)disp_buf, disp_w, x, y, map_buf_t
 634:lvgl/src/draw/lv_draw_blend.c ****                                            (uint32_t)((uint32_t)opa * mask_tmp[x]) >> 8);
 635:lvgl/src/draw/lv_draw_blend.c ****                 }
 636:lvgl/src/draw/lv_draw_blend.c ****             }
 637:lvgl/src/draw/lv_draw_blend.c ****             mask_tmp += draw_area_w;
 638:lvgl/src/draw/lv_draw_blend.c ****             map_buf_tmp += map_w;
 639:lvgl/src/draw/lv_draw_blend.c ****         }
 640:lvgl/src/draw/lv_draw_blend.c ****     }
 641:lvgl/src/draw/lv_draw_blend.c **** }
 642:lvgl/src/draw/lv_draw_blend.c **** 
 643:lvgl/src/draw/lv_draw_blend.c **** /**
 644:lvgl/src/draw/lv_draw_blend.c ****  * Copy an image to an area
 645:lvgl/src/draw/lv_draw_blend.c ****  * @param disp_area the current display area (destination area)
 646:lvgl/src/draw/lv_draw_blend.c ****  * @param disp_buf destination buffer
 647:lvgl/src/draw/lv_draw_blend.c ****  * @param map_area coordinates of the map (image) to copy. (absolute coordinates)
 648:lvgl/src/draw/lv_draw_blend.c ****  * @param map_buf the pixel of the image
 649:lvgl/src/draw/lv_draw_blend.c ****  * @param opa overall opacity in 0x00..0xff range
 650:lvgl/src/draw/lv_draw_blend.c ****  * @param mask a mask to apply on every pixel (uint8_t array with 0x00..0xff values).
 651:lvgl/src/draw/lv_draw_blend.c ****  *                It fits into draw_area.
 652:lvgl/src/draw/lv_draw_blend.c ****  * @param mask_res LV_MASK_RES_COVER: the mask has only 0xff values (no mask),
 653:lvgl/src/draw/lv_draw_blend.c ****  *                 LV_MASK_RES_TRANSP: the mask has only 0x00 values (full transparent),
 654:lvgl/src/draw/lv_draw_blend.c ****  *                 LV_MASK_RES_CHANGED: the mask has mixed values
 655:lvgl/src/draw/lv_draw_blend.c ****  */
 656:lvgl/src/draw/lv_draw_blend.c **** LV_ATTRIBUTE_FAST_MEM static void map_normal(const lv_area_t * disp_area, lv_color_t * disp_buf,
 657:lvgl/src/draw/lv_draw_blend.c ****                                              const lv_area_t * draw_area,
ARM GAS  C:\Users\BLACK_~1\AppData\Local\Temp\ccXqf4MH.s 			page 13


 658:lvgl/src/draw/lv_draw_blend.c ****                                              const lv_area_t * map_area, const lv_color_t * map_buf
 659:lvgl/src/draw/lv_draw_blend.c ****                                              const lv_opa_t * mask, lv_draw_mask_res_t mask_res)
 660:lvgl/src/draw/lv_draw_blend.c **** {
 661:lvgl/src/draw/lv_draw_blend.c **** 
 662:lvgl/src/draw/lv_draw_blend.c ****     /*Get the width of the `disp_area` it will be used to go to the next line*/
 663:lvgl/src/draw/lv_draw_blend.c ****     int32_t disp_w = lv_area_get_width(disp_area);
 664:lvgl/src/draw/lv_draw_blend.c **** 
 665:lvgl/src/draw/lv_draw_blend.c ****     int32_t draw_area_w = lv_area_get_width(draw_area);
 666:lvgl/src/draw/lv_draw_blend.c ****     int32_t draw_area_h = lv_area_get_height(draw_area);
 667:lvgl/src/draw/lv_draw_blend.c **** 
 668:lvgl/src/draw/lv_draw_blend.c ****     /*Get the width of the `mask_area` it will be used to go to the next line*/
 669:lvgl/src/draw/lv_draw_blend.c ****     int32_t map_w = lv_area_get_width(map_area);
 670:lvgl/src/draw/lv_draw_blend.c **** 
 671:lvgl/src/draw/lv_draw_blend.c ****     /*Create a temp. disp_buf which always point to first pixel to draw*/
 672:lvgl/src/draw/lv_draw_blend.c ****     lv_color_t * disp_buf_first = disp_buf + disp_w * draw_area->y1 + draw_area->x1;
 673:lvgl/src/draw/lv_draw_blend.c **** 
 674:lvgl/src/draw/lv_draw_blend.c ****     /*Create a temp. map_buf which always point to first pixel to draw from the map*/
 675:lvgl/src/draw/lv_draw_blend.c ****     const lv_color_t * map_buf_first = map_buf + map_w * (draw_area->y1 - (map_area->y1 - disp_area
 676:lvgl/src/draw/lv_draw_blend.c ****     map_buf_first += (draw_area->x1 - (map_area->x1 - disp_area->x1));
 677:lvgl/src/draw/lv_draw_blend.c **** 
 678:lvgl/src/draw/lv_draw_blend.c **** #if LV_COLOR_SCREEN_TRANSP
 679:lvgl/src/draw/lv_draw_blend.c ****     lv_disp_t * disp = _lv_refr_get_disp_refreshing();
 680:lvgl/src/draw/lv_draw_blend.c **** #endif
 681:lvgl/src/draw/lv_draw_blend.c **** 
 682:lvgl/src/draw/lv_draw_blend.c ****     int32_t x;
 683:lvgl/src/draw/lv_draw_blend.c ****     int32_t y;
 684:lvgl/src/draw/lv_draw_blend.c **** 
 685:lvgl/src/draw/lv_draw_blend.c ****     /*Simple fill (maybe with opacity), no masking*/
 686:lvgl/src/draw/lv_draw_blend.c ****     if(mask_res == LV_DRAW_MASK_RES_FULL_COVER) {
 687:lvgl/src/draw/lv_draw_blend.c ****         if(opa > LV_OPA_MAX) {
 688:lvgl/src/draw/lv_draw_blend.c **** #if LV_USE_GPU_NXP_PXP
 689:lvgl/src/draw/lv_draw_blend.c ****             if(lv_area_get_size(draw_area) >= LV_GPU_NXP_PXP_BLIT_SIZE_LIMIT) {
 690:lvgl/src/draw/lv_draw_blend.c ****                 lv_gpu_nxp_pxp_blit(disp_buf_first, disp_w, map_buf_first, map_w, draw_area_w, draw
 691:lvgl/src/draw/lv_draw_blend.c ****                 return;
 692:lvgl/src/draw/lv_draw_blend.c ****             }
 693:lvgl/src/draw/lv_draw_blend.c **** #elif (LV_USE_GPU_NXP_VG_LITE)
 694:lvgl/src/draw/lv_draw_blend.c ****             if(lv_area_get_size(draw_area) >= LV_GPU_NXP_VG_LITE_BLIT_SIZE_LIMIT) {
 695:lvgl/src/draw/lv_draw_blend.c **** 
 696:lvgl/src/draw/lv_draw_blend.c ****                 lv_gpu_nxp_vglite_blit_info_t blit;
 697:lvgl/src/draw/lv_draw_blend.c **** 
 698:lvgl/src/draw/lv_draw_blend.c ****                 blit.src = map_buf;
 699:lvgl/src/draw/lv_draw_blend.c ****                 blit.src_width = draw_area_w;
 700:lvgl/src/draw/lv_draw_blend.c ****                 blit.src_height = draw_area_h;
 701:lvgl/src/draw/lv_draw_blend.c ****                 blit.src_stride = lv_area_get_width(map_area) * sizeof(lv_color_t);
 702:lvgl/src/draw/lv_draw_blend.c ****                 blit.src_area.x1 = (draw_area->x1 - (map_area->x1 - disp_area->x1));
 703:lvgl/src/draw/lv_draw_blend.c ****                 blit.src_area.y1 = (draw_area->y1 - (map_area->y1 - disp_area->y1));
 704:lvgl/src/draw/lv_draw_blend.c ****                 blit.src_area.x2 = blit.src_area.x1 + draw_area_w - 1;
 705:lvgl/src/draw/lv_draw_blend.c ****                 blit.src_area.y2 = blit.src_area.y1 + draw_area_h - 1;
 706:lvgl/src/draw/lv_draw_blend.c **** 
 707:lvgl/src/draw/lv_draw_blend.c ****                 blit.dst = disp_buf;
 708:lvgl/src/draw/lv_draw_blend.c ****                 blit.dst_width = lv_area_get_width(disp_area);
 709:lvgl/src/draw/lv_draw_blend.c ****                 blit.dst_height = lv_area_get_height(disp_area);
 710:lvgl/src/draw/lv_draw_blend.c ****                 blit.dst_stride = lv_area_get_width(disp_area) * sizeof(lv_color_t);
 711:lvgl/src/draw/lv_draw_blend.c ****                 blit.dst_area.x1 = draw_area->x1;
 712:lvgl/src/draw/lv_draw_blend.c ****                 blit.dst_area.y1 = draw_area->y1;
 713:lvgl/src/draw/lv_draw_blend.c ****                 blit.dst_area.x2 = blit.dst_area.x1 + draw_area_w - 1;
 714:lvgl/src/draw/lv_draw_blend.c ****                 blit.dst_area.y2 = blit.dst_area.y1 + draw_area_h - 1;
ARM GAS  C:\Users\BLACK_~1\AppData\Local\Temp\ccXqf4MH.s 			page 14


 715:lvgl/src/draw/lv_draw_blend.c **** 
 716:lvgl/src/draw/lv_draw_blend.c ****                 blit.opa = opa;
 717:lvgl/src/draw/lv_draw_blend.c **** 
 718:lvgl/src/draw/lv_draw_blend.c ****                 if(lv_gpu_nxp_vglite_blit(&blit) == LV_RES_OK) {
 719:lvgl/src/draw/lv_draw_blend.c ****                     return;
 720:lvgl/src/draw/lv_draw_blend.c ****                 }
 721:lvgl/src/draw/lv_draw_blend.c ****                 /*Fall down to SW render in case of error*/
 722:lvgl/src/draw/lv_draw_blend.c ****             }
 723:lvgl/src/draw/lv_draw_blend.c **** #elif LV_USE_GPU_STM32_DMA2D
 724:lvgl/src/draw/lv_draw_blend.c ****             if(lv_area_get_size(draw_area) >= 240) {
 725:lvgl/src/draw/lv_draw_blend.c ****                 lv_gpu_stm32_dma2d_copy(disp_buf_first, disp_w, map_buf_first, map_w, draw_area_w, 
 726:lvgl/src/draw/lv_draw_blend.c ****                 return;
 727:lvgl/src/draw/lv_draw_blend.c ****             }
 728:lvgl/src/draw/lv_draw_blend.c **** #endif
 729:lvgl/src/draw/lv_draw_blend.c **** 
 730:lvgl/src/draw/lv_draw_blend.c ****             /*Software rendering*/
 731:lvgl/src/draw/lv_draw_blend.c ****             for(y = 0; y < draw_area_h; y++) {
 732:lvgl/src/draw/lv_draw_blend.c ****                 lv_memcpy(disp_buf_first, map_buf_first, draw_area_w * sizeof(lv_color_t));
 733:lvgl/src/draw/lv_draw_blend.c ****                 disp_buf_first += disp_w;
 734:lvgl/src/draw/lv_draw_blend.c ****                 map_buf_first += map_w;
 735:lvgl/src/draw/lv_draw_blend.c ****             }
 736:lvgl/src/draw/lv_draw_blend.c ****         }
 737:lvgl/src/draw/lv_draw_blend.c ****         else {
 738:lvgl/src/draw/lv_draw_blend.c **** #if LV_USE_GPU_NXP_PXP
 739:lvgl/src/draw/lv_draw_blend.c ****             if(lv_area_get_size(draw_area) >= LV_GPU_NXP_PXP_BLIT_OPA_SIZE_LIMIT) {
 740:lvgl/src/draw/lv_draw_blend.c ****                 lv_gpu_nxp_pxp_blit(disp_buf_first, disp_w, map_buf_first, map_w, draw_area_w, draw
 741:lvgl/src/draw/lv_draw_blend.c ****                 return;
 742:lvgl/src/draw/lv_draw_blend.c ****             }
 743:lvgl/src/draw/lv_draw_blend.c **** #elif (LV_USE_GPU_NXP_VG_LITE)
 744:lvgl/src/draw/lv_draw_blend.c ****             if(lv_area_get_size(draw_area) >= LV_GPU_NXP_VG_LITE_BLIT_OPA_SIZE_LIMIT) {
 745:lvgl/src/draw/lv_draw_blend.c **** 
 746:lvgl/src/draw/lv_draw_blend.c ****                 lv_gpu_nxp_vglite_blit_info_t blit;
 747:lvgl/src/draw/lv_draw_blend.c **** 
 748:lvgl/src/draw/lv_draw_blend.c ****                 blit.src = map_buf;
 749:lvgl/src/draw/lv_draw_blend.c ****                 blit.src_width = lv_area_get_width(map_area);
 750:lvgl/src/draw/lv_draw_blend.c ****                 blit.src_height = lv_area_get_height(map_area);
 751:lvgl/src/draw/lv_draw_blend.c ****                 blit.src_stride = lv_area_get_width(map_area) * sizeof(lv_color_t);
 752:lvgl/src/draw/lv_draw_blend.c ****                 blit.src_area.x1 = (draw_area->x1 - (map_area->x1 - disp_area->x1));
 753:lvgl/src/draw/lv_draw_blend.c ****                 blit.src_area.y1 = (draw_area->y1 - (map_area->y1 - disp_area->y1));
 754:lvgl/src/draw/lv_draw_blend.c ****                 blit.src_area.x2 = blit.src_area.x1 + draw_area_w - 1;
 755:lvgl/src/draw/lv_draw_blend.c ****                 blit.src_area.y2 = blit.src_area.y1 + draw_area_h - 1;
 756:lvgl/src/draw/lv_draw_blend.c **** 
 757:lvgl/src/draw/lv_draw_blend.c ****                 blit.dst = disp_buf;
 758:lvgl/src/draw/lv_draw_blend.c ****                 blit.dst_width = lv_area_get_width(disp_area);
 759:lvgl/src/draw/lv_draw_blend.c ****                 blit.dst_height = lv_area_get_height(disp_area);
 760:lvgl/src/draw/lv_draw_blend.c ****                 blit.dst_stride = lv_area_get_width(disp_area) * sizeof(lv_color_t);
 761:lvgl/src/draw/lv_draw_blend.c ****                 blit.dst_area.x1 = draw_area->x1;
 762:lvgl/src/draw/lv_draw_blend.c ****                 blit.dst_area.y1 = draw_area->y1;
 763:lvgl/src/draw/lv_draw_blend.c ****                 blit.dst_area.x2 = blit.dst_area.x1 + draw_area_w - 1;
 764:lvgl/src/draw/lv_draw_blend.c ****                 blit.dst_area.y2 = blit.dst_area.y1 + draw_area_h - 1;
 765:lvgl/src/draw/lv_draw_blend.c **** 
 766:lvgl/src/draw/lv_draw_blend.c ****                 blit.opa = opa;
 767:lvgl/src/draw/lv_draw_blend.c **** 
 768:lvgl/src/draw/lv_draw_blend.c ****                 if(lv_gpu_nxp_vglite_blit(&blit) == LV_RES_OK) {
 769:lvgl/src/draw/lv_draw_blend.c ****                     return;
 770:lvgl/src/draw/lv_draw_blend.c ****                 }
 771:lvgl/src/draw/lv_draw_blend.c ****                 /*Fall down to SW render in case of error*/
ARM GAS  C:\Users\BLACK_~1\AppData\Local\Temp\ccXqf4MH.s 			page 15


 772:lvgl/src/draw/lv_draw_blend.c ****             }
 773:lvgl/src/draw/lv_draw_blend.c **** #elif LV_USE_GPU_STM32_DMA2D
 774:lvgl/src/draw/lv_draw_blend.c ****             if(lv_area_get_size(draw_area) >= 240) {
 775:lvgl/src/draw/lv_draw_blend.c ****                 lv_gpu_stm32_dma2d_blend(disp_buf_first, disp_w, map_buf_first, opa, map_w, draw_ar
 776:lvgl/src/draw/lv_draw_blend.c ****                 return;
 777:lvgl/src/draw/lv_draw_blend.c ****             }
 778:lvgl/src/draw/lv_draw_blend.c **** #endif
 779:lvgl/src/draw/lv_draw_blend.c **** 
 780:lvgl/src/draw/lv_draw_blend.c ****             /*Software rendering*/
 781:lvgl/src/draw/lv_draw_blend.c **** 
 782:lvgl/src/draw/lv_draw_blend.c ****             for(y = 0; y < draw_area_h; y++) {
 783:lvgl/src/draw/lv_draw_blend.c ****                 for(x = 0; x < draw_area_w; x++) {
 784:lvgl/src/draw/lv_draw_blend.c **** #if LV_COLOR_SCREEN_TRANSP
 785:lvgl/src/draw/lv_draw_blend.c ****                     if(disp->driver->screen_transp) {
 786:lvgl/src/draw/lv_draw_blend.c ****                         lv_color_mix_with_alpha(disp_buf_first[x], disp_buf_first[x].ch.alpha, map_
 787:lvgl/src/draw/lv_draw_blend.c ****                                                 &disp_buf_first[x].ch.alpha);
 788:lvgl/src/draw/lv_draw_blend.c ****                     }
 789:lvgl/src/draw/lv_draw_blend.c ****                     else
 790:lvgl/src/draw/lv_draw_blend.c **** #endif
 791:lvgl/src/draw/lv_draw_blend.c ****                     {
 792:lvgl/src/draw/lv_draw_blend.c ****                         disp_buf_first[x] = lv_color_mix(map_buf_first[x], disp_buf_first[x], opa);
 793:lvgl/src/draw/lv_draw_blend.c ****                     }
 794:lvgl/src/draw/lv_draw_blend.c ****                 }
 795:lvgl/src/draw/lv_draw_blend.c ****                 disp_buf_first += disp_w;
 796:lvgl/src/draw/lv_draw_blend.c ****                 map_buf_first += map_w;
 797:lvgl/src/draw/lv_draw_blend.c ****             }
 798:lvgl/src/draw/lv_draw_blend.c ****         }
 799:lvgl/src/draw/lv_draw_blend.c ****     }
 800:lvgl/src/draw/lv_draw_blend.c ****     /*Masked*/
 801:lvgl/src/draw/lv_draw_blend.c ****     else {
 802:lvgl/src/draw/lv_draw_blend.c ****         /*Only the mask matters*/
 803:lvgl/src/draw/lv_draw_blend.c ****         if(opa > LV_OPA_MAX) {
 804:lvgl/src/draw/lv_draw_blend.c ****             /*Go to the first pixel of the row*/
 805:lvgl/src/draw/lv_draw_blend.c **** 
 806:lvgl/src/draw/lv_draw_blend.c ****             int32_t x_end4 = draw_area_w - 4;
 807:lvgl/src/draw/lv_draw_blend.c **** 
 808:lvgl/src/draw/lv_draw_blend.c ****             for(y = 0; y < draw_area_h; y++) {
 809:lvgl/src/draw/lv_draw_blend.c ****                 const lv_opa_t * mask_tmp_x = mask;
 810:lvgl/src/draw/lv_draw_blend.c **** #if 0
 811:lvgl/src/draw/lv_draw_blend.c ****                 for(x = 0; x < draw_area_w; x++) {
 812:lvgl/src/draw/lv_draw_blend.c ****                     MAP_NORMAL_MASK_PX(x);
 813:lvgl/src/draw/lv_draw_blend.c ****                 }
 814:lvgl/src/draw/lv_draw_blend.c **** #else
 815:lvgl/src/draw/lv_draw_blend.c ****                 for(x = 0; x < draw_area_w && ((lv_uintptr_t)mask_tmp_x & 0x3); x++) {
 816:lvgl/src/draw/lv_draw_blend.c **** #if LV_COLOR_SCREEN_TRANSP
 817:lvgl/src/draw/lv_draw_blend.c ****                     MAP_NORMAL_MASK_PX_SCR_TRANSP(x)
 818:lvgl/src/draw/lv_draw_blend.c **** #else
 819:lvgl/src/draw/lv_draw_blend.c ****                     MAP_NORMAL_MASK_PX(x)
 820:lvgl/src/draw/lv_draw_blend.c **** #endif
 821:lvgl/src/draw/lv_draw_blend.c ****                 }
 822:lvgl/src/draw/lv_draw_blend.c **** 
 823:lvgl/src/draw/lv_draw_blend.c ****                 uint32_t * mask32 = (uint32_t *)mask_tmp_x;
 824:lvgl/src/draw/lv_draw_blend.c ****                 for(; x < x_end4; x += 4) {
 825:lvgl/src/draw/lv_draw_blend.c ****                     if(*mask32) {
 826:lvgl/src/draw/lv_draw_blend.c ****                         if((*mask32) == 0xFFFFFFFF) {
 827:lvgl/src/draw/lv_draw_blend.c ****                             disp_buf_first[x] = map_buf_first[x];
 828:lvgl/src/draw/lv_draw_blend.c ****                             disp_buf_first[x + 1] = map_buf_first[x + 1];
ARM GAS  C:\Users\BLACK_~1\AppData\Local\Temp\ccXqf4MH.s 			page 16


 829:lvgl/src/draw/lv_draw_blend.c ****                             disp_buf_first[x + 2] = map_buf_first[x + 2];
 830:lvgl/src/draw/lv_draw_blend.c ****                             disp_buf_first[x + 3] = map_buf_first[x + 3];
 831:lvgl/src/draw/lv_draw_blend.c ****                         }
 832:lvgl/src/draw/lv_draw_blend.c ****                         else {
 833:lvgl/src/draw/lv_draw_blend.c ****                             mask_tmp_x = (const lv_opa_t *)mask32;
 834:lvgl/src/draw/lv_draw_blend.c **** #if LV_COLOR_SCREEN_TRANSP
 835:lvgl/src/draw/lv_draw_blend.c ****                             MAP_NORMAL_MASK_PX_SCR_TRANSP(x)
 836:lvgl/src/draw/lv_draw_blend.c ****                             MAP_NORMAL_MASK_PX_SCR_TRANSP(x + 1)
 837:lvgl/src/draw/lv_draw_blend.c ****                             MAP_NORMAL_MASK_PX_SCR_TRANSP(x + 2)
 838:lvgl/src/draw/lv_draw_blend.c ****                             MAP_NORMAL_MASK_PX_SCR_TRANSP(x + 3)
 839:lvgl/src/draw/lv_draw_blend.c **** #else
 840:lvgl/src/draw/lv_draw_blend.c ****                             MAP_NORMAL_MASK_PX(x)
 841:lvgl/src/draw/lv_draw_blend.c ****                             MAP_NORMAL_MASK_PX(x + 1)
 842:lvgl/src/draw/lv_draw_blend.c ****                             MAP_NORMAL_MASK_PX(x + 2)
 843:lvgl/src/draw/lv_draw_blend.c ****                             MAP_NORMAL_MASK_PX(x + 3)
 844:lvgl/src/draw/lv_draw_blend.c **** #endif
 845:lvgl/src/draw/lv_draw_blend.c ****                         }
 846:lvgl/src/draw/lv_draw_blend.c ****                     }
 847:lvgl/src/draw/lv_draw_blend.c ****                     mask32++;
 848:lvgl/src/draw/lv_draw_blend.c ****                 }
 849:lvgl/src/draw/lv_draw_blend.c **** 
 850:lvgl/src/draw/lv_draw_blend.c ****                 mask_tmp_x = (const lv_opa_t *)mask32;
 851:lvgl/src/draw/lv_draw_blend.c ****                 for(; x < draw_area_w ; x++) {
 852:lvgl/src/draw/lv_draw_blend.c **** #if LV_COLOR_SCREEN_TRANSP
 853:lvgl/src/draw/lv_draw_blend.c ****                     MAP_NORMAL_MASK_PX_SCR_TRANSP(x)
 854:lvgl/src/draw/lv_draw_blend.c **** #else
 855:lvgl/src/draw/lv_draw_blend.c ****                     MAP_NORMAL_MASK_PX(x)
 856:lvgl/src/draw/lv_draw_blend.c **** #endif
 857:lvgl/src/draw/lv_draw_blend.c ****                 }
 858:lvgl/src/draw/lv_draw_blend.c **** #endif
 859:lvgl/src/draw/lv_draw_blend.c ****                 disp_buf_first += disp_w;
 860:lvgl/src/draw/lv_draw_blend.c ****                 mask += draw_area_w;
 861:lvgl/src/draw/lv_draw_blend.c ****                 map_buf_first += map_w;
 862:lvgl/src/draw/lv_draw_blend.c ****             }
 863:lvgl/src/draw/lv_draw_blend.c ****         }
 864:lvgl/src/draw/lv_draw_blend.c ****         /*Handle opa and mask values too*/
 865:lvgl/src/draw/lv_draw_blend.c ****         else {
 866:lvgl/src/draw/lv_draw_blend.c ****             for(y = 0; y < draw_area_h; y++) {
 867:lvgl/src/draw/lv_draw_blend.c ****                 for(x = 0; x < draw_area_w; x++) {
 868:lvgl/src/draw/lv_draw_blend.c ****                     if(mask[x]) {
 869:lvgl/src/draw/lv_draw_blend.c ****                         lv_opa_t opa_tmp = mask[x] >= LV_OPA_MAX ? opa : ((opa * mask[x]) >> 8);
 870:lvgl/src/draw/lv_draw_blend.c **** #if LV_COLOR_SCREEN_TRANSP
 871:lvgl/src/draw/lv_draw_blend.c ****                         if(disp->driver->screen_transp) {
 872:lvgl/src/draw/lv_draw_blend.c ****                             lv_color_mix_with_alpha(disp_buf_first[x], disp_buf_first[x].ch.alpha, 
 873:lvgl/src/draw/lv_draw_blend.c ****                                                     &disp_buf_first[x].ch.alpha);
 874:lvgl/src/draw/lv_draw_blend.c ****                         }
 875:lvgl/src/draw/lv_draw_blend.c ****                         else
 876:lvgl/src/draw/lv_draw_blend.c **** #endif
 877:lvgl/src/draw/lv_draw_blend.c ****                         {
 878:lvgl/src/draw/lv_draw_blend.c ****                             disp_buf_first[x] = lv_color_mix(map_buf_first[x], disp_buf_first[x], o
 879:lvgl/src/draw/lv_draw_blend.c ****                         }
 880:lvgl/src/draw/lv_draw_blend.c ****                     }
 881:lvgl/src/draw/lv_draw_blend.c ****                 }
 882:lvgl/src/draw/lv_draw_blend.c ****                 disp_buf_first += disp_w;
 883:lvgl/src/draw/lv_draw_blend.c ****                 mask += draw_area_w;
 884:lvgl/src/draw/lv_draw_blend.c ****                 map_buf_first += map_w;
 885:lvgl/src/draw/lv_draw_blend.c ****             }
ARM GAS  C:\Users\BLACK_~1\AppData\Local\Temp\ccXqf4MH.s 			page 17


 886:lvgl/src/draw/lv_draw_blend.c ****         }
 887:lvgl/src/draw/lv_draw_blend.c ****     }
 888:lvgl/src/draw/lv_draw_blend.c **** }
 889:lvgl/src/draw/lv_draw_blend.c **** #if LV_DRAW_COMPLEX
 890:lvgl/src/draw/lv_draw_blend.c **** static void map_blended(const lv_area_t * disp_area, lv_color_t * disp_buf,  const lv_area_t * draw
 891:lvgl/src/draw/lv_draw_blend.c ****                         const lv_area_t * map_area, const lv_color_t * map_buf, lv_opa_t opa,
 892:lvgl/src/draw/lv_draw_blend.c ****                         const lv_opa_t * mask, lv_draw_mask_res_t mask_res, lv_blend_mode_t mode)
 893:lvgl/src/draw/lv_draw_blend.c **** {
  29              		.loc 1 893 1 view -0
  30              		.cfi_startproc
  31              		@ args = 20, pretend = 0, frame = 16
  32              		@ frame_needed = 0, uses_anonymous_args = 0
  33              		.loc 1 893 1 is_stmt 0 view .LVU1
  34 0000 2DE9F04F 		push	{r4, r5, r6, r7, r8, r9, r10, fp, lr}
  35              	.LCFI0:
  36              		.cfi_def_cfa_offset 36
  37              		.cfi_offset 4, -36
  38              		.cfi_offset 5, -32
  39              		.cfi_offset 6, -28
  40              		.cfi_offset 7, -24
  41              		.cfi_offset 8, -20
  42              		.cfi_offset 9, -16
  43              		.cfi_offset 10, -12
  44              		.cfi_offset 11, -8
  45              		.cfi_offset 14, -4
  46 0004 85B0     		sub	sp, sp, #20
  47              	.LCFI1:
  48              		.cfi_def_cfa_offset 56
  49 0006 1746     		mov	r7, r2
  50 0008 9DF83CA0 		ldrb	r10, [sp, #60]	@ zero_extendqisi2
  51 000c 9DF848E0 		ldrb	lr, [sp, #72]	@ zero_extendqisi2
 894:lvgl/src/draw/lv_draw_blend.c **** 
 895:lvgl/src/draw/lv_draw_blend.c ****     /*Get the width of the `disp_area` it will be used to go to the next line*/
 896:lvgl/src/draw/lv_draw_blend.c ****     int32_t disp_w = lv_area_get_width(disp_area);
  52              		.loc 1 896 5 is_stmt 1 view .LVU2
  53              	.LVL1:
  54              	.LBB69:
  55              	.LBI69:
  56              		.file 2 "lvgl/src/draw/../misc/lv_area.h"
   1:lvgl/src/draw/../misc/lv_area.h **** /**
   2:lvgl/src/draw/../misc/lv_area.h ****  * @file lv_area.h
   3:lvgl/src/draw/../misc/lv_area.h ****  *
   4:lvgl/src/draw/../misc/lv_area.h ****  */
   5:lvgl/src/draw/../misc/lv_area.h **** 
   6:lvgl/src/draw/../misc/lv_area.h **** #ifndef LV_AREA_H
   7:lvgl/src/draw/../misc/lv_area.h **** #define LV_AREA_H
   8:lvgl/src/draw/../misc/lv_area.h **** 
   9:lvgl/src/draw/../misc/lv_area.h **** #ifdef __cplusplus
  10:lvgl/src/draw/../misc/lv_area.h **** extern "C" {
  11:lvgl/src/draw/../misc/lv_area.h **** #endif
  12:lvgl/src/draw/../misc/lv_area.h **** 
  13:lvgl/src/draw/../misc/lv_area.h **** /*********************
  14:lvgl/src/draw/../misc/lv_area.h ****  *      INCLUDES
  15:lvgl/src/draw/../misc/lv_area.h ****  *********************/
  16:lvgl/src/draw/../misc/lv_area.h **** #include "../lv_conf_internal.h"
  17:lvgl/src/draw/../misc/lv_area.h **** #include <string.h>
  18:lvgl/src/draw/../misc/lv_area.h **** #include <stdbool.h>
ARM GAS  C:\Users\BLACK_~1\AppData\Local\Temp\ccXqf4MH.s 			page 18


  19:lvgl/src/draw/../misc/lv_area.h **** #include <stdint.h>
  20:lvgl/src/draw/../misc/lv_area.h **** 
  21:lvgl/src/draw/../misc/lv_area.h **** /*********************
  22:lvgl/src/draw/../misc/lv_area.h ****  *      DEFINES
  23:lvgl/src/draw/../misc/lv_area.h ****  *********************/
  24:lvgl/src/draw/../misc/lv_area.h **** 
  25:lvgl/src/draw/../misc/lv_area.h **** #define _LV_COORD_MAX_REDUCE    8192
  26:lvgl/src/draw/../misc/lv_area.h **** 
  27:lvgl/src/draw/../misc/lv_area.h **** #if LV_USE_LARGE_COORD
  28:lvgl/src/draw/../misc/lv_area.h **** typedef int32_t lv_coord_t;
  29:lvgl/src/draw/../misc/lv_area.h **** #else
  30:lvgl/src/draw/../misc/lv_area.h **** typedef int16_t lv_coord_t;
  31:lvgl/src/draw/../misc/lv_area.h **** #endif
  32:lvgl/src/draw/../misc/lv_area.h **** 
  33:lvgl/src/draw/../misc/lv_area.h **** /*To allow some special values in the end reduce the max value*/
  34:lvgl/src/draw/../misc/lv_area.h **** #define LV_COORD_MAX ((lv_coord_t)((uint32_t)((uint32_t)1 << (8 * sizeof(lv_coord_t) - 1)) - _LV_CO
  35:lvgl/src/draw/../misc/lv_area.h **** #define LV_COORD_MIN (-LV_COORD_MAX)
  36:lvgl/src/draw/../misc/lv_area.h **** 
  37:lvgl/src/draw/../misc/lv_area.h **** LV_EXPORT_CONST_INT(LV_COORD_MAX);
  38:lvgl/src/draw/../misc/lv_area.h **** LV_EXPORT_CONST_INT(LV_COORD_MIN);
  39:lvgl/src/draw/../misc/lv_area.h **** 
  40:lvgl/src/draw/../misc/lv_area.h **** /**********************
  41:lvgl/src/draw/../misc/lv_area.h ****  *      TYPEDEFS
  42:lvgl/src/draw/../misc/lv_area.h ****  **********************/
  43:lvgl/src/draw/../misc/lv_area.h **** 
  44:lvgl/src/draw/../misc/lv_area.h **** /**
  45:lvgl/src/draw/../misc/lv_area.h ****  * Represents a point on the screen.
  46:lvgl/src/draw/../misc/lv_area.h ****  */
  47:lvgl/src/draw/../misc/lv_area.h **** typedef struct {
  48:lvgl/src/draw/../misc/lv_area.h ****     lv_coord_t x;
  49:lvgl/src/draw/../misc/lv_area.h ****     lv_coord_t y;
  50:lvgl/src/draw/../misc/lv_area.h **** } lv_point_t;
  51:lvgl/src/draw/../misc/lv_area.h **** 
  52:lvgl/src/draw/../misc/lv_area.h **** /** Represents an area of the screen.*/
  53:lvgl/src/draw/../misc/lv_area.h **** typedef struct {
  54:lvgl/src/draw/../misc/lv_area.h ****     lv_coord_t x1;
  55:lvgl/src/draw/../misc/lv_area.h ****     lv_coord_t y1;
  56:lvgl/src/draw/../misc/lv_area.h ****     lv_coord_t x2;
  57:lvgl/src/draw/../misc/lv_area.h ****     lv_coord_t y2;
  58:lvgl/src/draw/../misc/lv_area.h **** } lv_area_t;
  59:lvgl/src/draw/../misc/lv_area.h **** 
  60:lvgl/src/draw/../misc/lv_area.h **** /** Alignments*/
  61:lvgl/src/draw/../misc/lv_area.h **** enum {
  62:lvgl/src/draw/../misc/lv_area.h ****     LV_ALIGN_DEFAULT = 0,
  63:lvgl/src/draw/../misc/lv_area.h ****     LV_ALIGN_TOP_LEFT,
  64:lvgl/src/draw/../misc/lv_area.h ****     LV_ALIGN_TOP_MID,
  65:lvgl/src/draw/../misc/lv_area.h ****     LV_ALIGN_TOP_RIGHT,
  66:lvgl/src/draw/../misc/lv_area.h ****     LV_ALIGN_BOTTOM_LEFT,
  67:lvgl/src/draw/../misc/lv_area.h ****     LV_ALIGN_BOTTOM_MID,
  68:lvgl/src/draw/../misc/lv_area.h ****     LV_ALIGN_BOTTOM_RIGHT,
  69:lvgl/src/draw/../misc/lv_area.h ****     LV_ALIGN_LEFT_MID,
  70:lvgl/src/draw/../misc/lv_area.h ****     LV_ALIGN_RIGHT_MID,
  71:lvgl/src/draw/../misc/lv_area.h ****     LV_ALIGN_CENTER,
  72:lvgl/src/draw/../misc/lv_area.h **** 
  73:lvgl/src/draw/../misc/lv_area.h ****     LV_ALIGN_OUT_TOP_LEFT,
  74:lvgl/src/draw/../misc/lv_area.h ****     LV_ALIGN_OUT_TOP_MID,
  75:lvgl/src/draw/../misc/lv_area.h ****     LV_ALIGN_OUT_TOP_RIGHT,
ARM GAS  C:\Users\BLACK_~1\AppData\Local\Temp\ccXqf4MH.s 			page 19


  76:lvgl/src/draw/../misc/lv_area.h ****     LV_ALIGN_OUT_BOTTOM_LEFT,
  77:lvgl/src/draw/../misc/lv_area.h ****     LV_ALIGN_OUT_BOTTOM_MID,
  78:lvgl/src/draw/../misc/lv_area.h ****     LV_ALIGN_OUT_BOTTOM_RIGHT,
  79:lvgl/src/draw/../misc/lv_area.h ****     LV_ALIGN_OUT_LEFT_TOP,
  80:lvgl/src/draw/../misc/lv_area.h ****     LV_ALIGN_OUT_LEFT_MID,
  81:lvgl/src/draw/../misc/lv_area.h ****     LV_ALIGN_OUT_LEFT_BOTTOM,
  82:lvgl/src/draw/../misc/lv_area.h ****     LV_ALIGN_OUT_RIGHT_TOP,
  83:lvgl/src/draw/../misc/lv_area.h ****     LV_ALIGN_OUT_RIGHT_MID,
  84:lvgl/src/draw/../misc/lv_area.h ****     LV_ALIGN_OUT_RIGHT_BOTTOM,
  85:lvgl/src/draw/../misc/lv_area.h **** };
  86:lvgl/src/draw/../misc/lv_area.h **** typedef uint8_t lv_align_t;
  87:lvgl/src/draw/../misc/lv_area.h **** 
  88:lvgl/src/draw/../misc/lv_area.h **** enum {
  89:lvgl/src/draw/../misc/lv_area.h ****     LV_DIR_NONE     = 0x00,
  90:lvgl/src/draw/../misc/lv_area.h ****     LV_DIR_LEFT     = (1 << 0),
  91:lvgl/src/draw/../misc/lv_area.h ****     LV_DIR_RIGHT    = (1 << 1),
  92:lvgl/src/draw/../misc/lv_area.h ****     LV_DIR_TOP      = (1 << 2),
  93:lvgl/src/draw/../misc/lv_area.h ****     LV_DIR_BOTTOM   = (1 << 3),
  94:lvgl/src/draw/../misc/lv_area.h ****     LV_DIR_HOR      = LV_DIR_LEFT | LV_DIR_RIGHT,
  95:lvgl/src/draw/../misc/lv_area.h ****     LV_DIR_VER      = LV_DIR_TOP | LV_DIR_BOTTOM,
  96:lvgl/src/draw/../misc/lv_area.h ****     LV_DIR_ALL      = LV_DIR_HOR | LV_DIR_VER,
  97:lvgl/src/draw/../misc/lv_area.h **** };
  98:lvgl/src/draw/../misc/lv_area.h **** 
  99:lvgl/src/draw/../misc/lv_area.h **** typedef uint8_t lv_dir_t;
 100:lvgl/src/draw/../misc/lv_area.h **** 
 101:lvgl/src/draw/../misc/lv_area.h **** /**********************
 102:lvgl/src/draw/../misc/lv_area.h ****  * GLOBAL PROTOTYPES
 103:lvgl/src/draw/../misc/lv_area.h ****  **********************/
 104:lvgl/src/draw/../misc/lv_area.h **** 
 105:lvgl/src/draw/../misc/lv_area.h **** /**
 106:lvgl/src/draw/../misc/lv_area.h ****  * Initialize an area
 107:lvgl/src/draw/../misc/lv_area.h ****  * @param area_p pointer to an area
 108:lvgl/src/draw/../misc/lv_area.h ****  * @param x1 left coordinate of the area
 109:lvgl/src/draw/../misc/lv_area.h ****  * @param y1 top coordinate of the area
 110:lvgl/src/draw/../misc/lv_area.h ****  * @param x2 right coordinate of the area
 111:lvgl/src/draw/../misc/lv_area.h ****  * @param y2 bottom coordinate of the area
 112:lvgl/src/draw/../misc/lv_area.h ****  */
 113:lvgl/src/draw/../misc/lv_area.h **** void lv_area_set(lv_area_t * area_p, lv_coord_t x1, lv_coord_t y1, lv_coord_t x2, lv_coord_t y2);
 114:lvgl/src/draw/../misc/lv_area.h **** 
 115:lvgl/src/draw/../misc/lv_area.h **** /**
 116:lvgl/src/draw/../misc/lv_area.h ****  * Copy an area
 117:lvgl/src/draw/../misc/lv_area.h ****  * @param dest pointer to the destination area
 118:lvgl/src/draw/../misc/lv_area.h ****  * @param src pointer to the source area
 119:lvgl/src/draw/../misc/lv_area.h ****  */
 120:lvgl/src/draw/../misc/lv_area.h **** inline static void lv_area_copy(lv_area_t * dest, const lv_area_t * src)
 121:lvgl/src/draw/../misc/lv_area.h **** {
 122:lvgl/src/draw/../misc/lv_area.h ****     dest->x1 = src->x1;
 123:lvgl/src/draw/../misc/lv_area.h ****     dest->y1 = src->y1;
 124:lvgl/src/draw/../misc/lv_area.h ****     dest->x2 = src->x2;
 125:lvgl/src/draw/../misc/lv_area.h ****     dest->y2 = src->y2;
 126:lvgl/src/draw/../misc/lv_area.h **** }
 127:lvgl/src/draw/../misc/lv_area.h **** 
 128:lvgl/src/draw/../misc/lv_area.h **** /**
 129:lvgl/src/draw/../misc/lv_area.h ****  * Get the width of an area
 130:lvgl/src/draw/../misc/lv_area.h ****  * @param area_p pointer to an area
 131:lvgl/src/draw/../misc/lv_area.h ****  * @return the width of the area (if x1 == x2 -> width = 1)
 132:lvgl/src/draw/../misc/lv_area.h ****  */
ARM GAS  C:\Users\BLACK_~1\AppData\Local\Temp\ccXqf4MH.s 			page 20


 133:lvgl/src/draw/../misc/lv_area.h **** static inline lv_coord_t lv_area_get_width(const lv_area_t * area_p)
  57              		.loc 2 133 26 view .LVU3
  58              	.LBB70:
 134:lvgl/src/draw/../misc/lv_area.h **** {
 135:lvgl/src/draw/../misc/lv_area.h ****     return (lv_coord_t)(area_p->x2 - area_p->x1 + 1);
  59              		.loc 2 135 5 view .LVU4
  60              		.loc 2 135 31 is_stmt 0 view .LVU5
  61 0010 8288     		ldrh	r2, [r0, #4]
  62              	.LVL2:
  63              		.loc 2 135 44 view .LVU6
  64 0012 B0F90040 		ldrsh	r4, [r0]
  65 0016 A5B2     		uxth	r5, r4
  66              		.loc 2 135 36 view .LVU7
  67 0018 521B     		subs	r2, r2, r5
  68 001a 92B2     		uxth	r2, r2
  69              		.loc 2 135 49 view .LVU8
  70 001c 0132     		adds	r2, r2, #1
  71              		.loc 2 135 12 view .LVU9
  72 001e 12B2     		sxth	r2, r2
  73 0020 0292     		str	r2, [sp, #8]
  74              	.LVL3:
  75              		.loc 2 135 12 view .LVU10
  76              	.LBE70:
  77              	.LBE69:
 897:lvgl/src/draw/lv_draw_blend.c **** 
 898:lvgl/src/draw/lv_draw_blend.c ****     /*Get the width of the `draw_area` it will be used to go to the next line of the mask*/
 899:lvgl/src/draw/lv_draw_blend.c ****     int32_t draw_area_w = lv_area_get_width(draw_area);
  78              		.loc 1 899 5 is_stmt 1 view .LVU11
  79              	.LBB71:
  80              	.LBI71:
 133:lvgl/src/draw/../misc/lv_area.h **** {
  81              		.loc 2 133 26 view .LVU12
  82              	.LBB72:
  83              		.loc 2 135 5 view .LVU13
  84              		.loc 2 135 31 is_stmt 0 view .LVU14
  85 0022 BD88     		ldrh	r5, [r7, #4]
  86              		.loc 2 135 44 view .LVU15
  87 0024 B7F90020 		ldrsh	r2, [r7]
  88              	.LVL4:
  89              		.loc 2 135 44 view .LVU16
  90 0028 96B2     		uxth	r6, r2
  91              		.loc 2 135 36 view .LVU17
  92 002a AD1B     		subs	r5, r5, r6
  93 002c ADB2     		uxth	r5, r5
  94              		.loc 2 135 49 view .LVU18
  95 002e 0135     		adds	r5, r5, #1
  96              		.loc 2 135 12 view .LVU19
  97 0030 2DB2     		sxth	r5, r5
  98 0032 0395     		str	r5, [sp, #12]
  99              	.LVL5:
 100              		.loc 2 135 12 view .LVU20
 101              	.LBE72:
 102              	.LBE71:
 900:lvgl/src/draw/lv_draw_blend.c **** 
 901:lvgl/src/draw/lv_draw_blend.c ****     /*Get the width of the `mask_area` it will be used to go to the next line*/
 902:lvgl/src/draw/lv_draw_blend.c ****     int32_t map_w = lv_area_get_width(map_area);
 103              		.loc 1 902 5 is_stmt 1 view .LVU21
ARM GAS  C:\Users\BLACK_~1\AppData\Local\Temp\ccXqf4MH.s 			page 21


 104              	.LBB73:
 105              	.LBI73:
 133:lvgl/src/draw/../misc/lv_area.h **** {
 106              		.loc 2 133 26 view .LVU22
 107              	.LBB74:
 108              		.loc 2 135 5 view .LVU23
 109              		.loc 2 135 31 is_stmt 0 view .LVU24
 110 0034 9D88     		ldrh	r5, [r3, #4]
 111              		.loc 2 135 44 view .LVU25
 112 0036 B3F900C0 		ldrsh	ip, [r3]
 113 003a 1FFA8CF6 		uxth	r6, ip
 114              		.loc 2 135 36 view .LVU26
 115 003e AD1B     		subs	r5, r5, r6
 116 0040 ADB2     		uxth	r5, r5
 117              		.loc 2 135 49 view .LVU27
 118 0042 0135     		adds	r5, r5, #1
 119              		.loc 2 135 12 view .LVU28
 120 0044 2DB2     		sxth	r5, r5
 121 0046 0195     		str	r5, [sp, #4]
 122              	.LVL6:
 123              		.loc 2 135 12 view .LVU29
 124              	.LBE74:
 125              	.LBE73:
 903:lvgl/src/draw/lv_draw_blend.c **** 
 904:lvgl/src/draw/lv_draw_blend.c ****     /*Create a temp. disp_buf which always point to current line to draw*/
 905:lvgl/src/draw/lv_draw_blend.c ****     lv_color_t * disp_buf_tmp = disp_buf + disp_w * draw_area->y1;
 126              		.loc 1 905 5 is_stmt 1 view .LVU30
 127              		.loc 1 905 62 is_stmt 0 view .LVU31
 128 0048 B7F90250 		ldrsh	r5, [r7, #2]
 129              	.LVL7:
 130              		.loc 1 905 51 view .LVU32
 131 004c 0095     		str	r5, [sp]
 132 004e 029E     		ldr	r6, [sp, #8]
 133 0050 06FB05F6 		mul	r6, r6, r5
 134              		.loc 1 905 18 view .LVU33
 135 0054 01EB4606 		add	r6, r1, r6, lsl #1
 136              	.LVL8:
 906:lvgl/src/draw/lv_draw_blend.c **** 
 907:lvgl/src/draw/lv_draw_blend.c ****     /*Create a temp. map_buf which always point to current line to draw*/
 908:lvgl/src/draw/lv_draw_blend.c ****     const lv_color_t * map_buf_tmp = map_buf + map_w * (draw_area->y1 - (map_area->y1 - disp_area->
 137              		.loc 1 908 5 is_stmt 1 view .LVU34
 138              		.loc 1 908 82 is_stmt 0 view .LVU35
 139 0058 B3F90250 		ldrsh	r5, [r3, #2]
 140              		.loc 1 908 98 view .LVU36
 141 005c B0F90230 		ldrsh	r3, [r0, #2]
 142              	.LVL9:
 143              		.loc 1 908 87 view .LVU37
 144 0060 ED1A     		subs	r5, r5, r3
 145              		.loc 1 908 71 view .LVU38
 146 0062 009B     		ldr	r3, [sp]
 147 0064 5D1B     		subs	r5, r3, r5
 148              		.loc 1 908 54 view .LVU39
 149 0066 019B     		ldr	r3, [sp, #4]
 150 0068 03FB05F5 		mul	r5, r3, r5
 151              		.loc 1 908 24 view .LVU40
 152 006c 0E9B     		ldr	r3, [sp, #56]
 153 006e 03EB4505 		add	r5, r3, r5, lsl #1
ARM GAS  C:\Users\BLACK_~1\AppData\Local\Temp\ccXqf4MH.s 			page 22


 154              	.LVL10:
 909:lvgl/src/draw/lv_draw_blend.c **** 
 910:lvgl/src/draw/lv_draw_blend.c ****     lv_color_t (*blend_fp)(lv_color_t, lv_color_t, lv_opa_t);
 155              		.loc 1 910 5 is_stmt 1 view .LVU41
 911:lvgl/src/draw/lv_draw_blend.c ****     switch(mode) {
 156              		.loc 1 911 5 view .LVU42
 157 0072 BEF1010F 		cmp	lr, #1
 158 0076 0ED0     		beq	.L15
 159 0078 BEF1020F 		cmp	lr, #2
 160 007c 5DD1     		bne	.L1
 912:lvgl/src/draw/lv_draw_blend.c ****         case LV_BLEND_MODE_ADDITIVE:
 913:lvgl/src/draw/lv_draw_blend.c ****             blend_fp = color_blend_true_color_additive;
 914:lvgl/src/draw/lv_draw_blend.c ****             break;
 915:lvgl/src/draw/lv_draw_blend.c ****         case LV_BLEND_MODE_SUBTRACTIVE:
 916:lvgl/src/draw/lv_draw_blend.c ****             blend_fp = color_blend_true_color_subtractive;
 161              		.loc 1 916 22 is_stmt 0 view .LVU43
 162 007e DFF8C0B0 		ldr	fp, .L21
 163              	.L2:
 164              	.LVL11:
 917:lvgl/src/draw/lv_draw_blend.c ****             break;
 918:lvgl/src/draw/lv_draw_blend.c ****         default:
 919:lvgl/src/draw/lv_draw_blend.c ****             LV_LOG_WARN("fill_blended: unsupported blend mode");
 920:lvgl/src/draw/lv_draw_blend.c ****             return;
 921:lvgl/src/draw/lv_draw_blend.c ****     }
 922:lvgl/src/draw/lv_draw_blend.c **** 
 923:lvgl/src/draw/lv_draw_blend.c ****     int32_t x;
 165              		.loc 1 923 5 is_stmt 1 view .LVU44
 924:lvgl/src/draw/lv_draw_blend.c ****     int32_t y;
 166              		.loc 1 924 5 view .LVU45
 925:lvgl/src/draw/lv_draw_blend.c **** 
 926:lvgl/src/draw/lv_draw_blend.c ****     /*Simple fill (maybe with opacity), no masking*/
 927:lvgl/src/draw/lv_draw_blend.c ****     if(mask_res == LV_DRAW_MASK_RES_FULL_COVER) {
 167              		.loc 1 927 5 view .LVU46
 168              		.loc 1 927 7 is_stmt 0 view .LVU47
 169 0082 9DF84430 		ldrb	r3, [sp, #68]	@ zero_extendqisi2
 170 0086 012B     		cmp	r3, #1
 171 0088 08D0     		beq	.L18
 172              	.LBB75:
 928:lvgl/src/draw/lv_draw_blend.c ****         /*Go to the first px of the row*/
 929:lvgl/src/draw/lv_draw_blend.c ****         map_buf_tmp += (draw_area->x1 - (map_area->x1 - disp_area->x1));
 930:lvgl/src/draw/lv_draw_blend.c **** 
 931:lvgl/src/draw/lv_draw_blend.c ****         /*The map will be indexed from `draw_area->x1` so compensate it.*/
 932:lvgl/src/draw/lv_draw_blend.c ****         map_buf_tmp -= draw_area->x1;
 933:lvgl/src/draw/lv_draw_blend.c **** 
 934:lvgl/src/draw/lv_draw_blend.c ****         for(y = draw_area->y1; y <= draw_area->y2; y++) {
 935:lvgl/src/draw/lv_draw_blend.c ****             for(x = draw_area->x1; x <= draw_area->x2; x++) {
 936:lvgl/src/draw/lv_draw_blend.c ****                 disp_buf_tmp[x] = blend_fp(map_buf_tmp[x], disp_buf_tmp[x], opa);
 937:lvgl/src/draw/lv_draw_blend.c ****             }
 938:lvgl/src/draw/lv_draw_blend.c ****             disp_buf_tmp += disp_w;
 939:lvgl/src/draw/lv_draw_blend.c ****             map_buf_tmp += map_w;
 940:lvgl/src/draw/lv_draw_blend.c ****         }
 941:lvgl/src/draw/lv_draw_blend.c ****     }
 942:lvgl/src/draw/lv_draw_blend.c ****     /*Masked*/
 943:lvgl/src/draw/lv_draw_blend.c ****     else {
 944:lvgl/src/draw/lv_draw_blend.c ****         /*The mask is relative to the clipped area.
 945:lvgl/src/draw/lv_draw_blend.c ****          *In the cycles below mask will be indexed from `draw_area.x1`
 946:lvgl/src/draw/lv_draw_blend.c ****          *but it corresponds to zero index. So prepare `mask_tmp` accordingly.*/
ARM GAS  C:\Users\BLACK_~1\AppData\Local\Temp\ccXqf4MH.s 			page 23


 947:lvgl/src/draw/lv_draw_blend.c ****         const lv_opa_t * mask_tmp = mask - draw_area->x1;
 173              		.loc 1 947 9 is_stmt 1 view .LVU48
 174              		.loc 1 947 26 is_stmt 0 view .LVU49
 175 008a 109B     		ldr	r3, [sp, #64]
 176 008c A3EB0209 		sub	r9, r3, r2
 177              	.LVL12:
 948:lvgl/src/draw/lv_draw_blend.c **** 
 949:lvgl/src/draw/lv_draw_blend.c ****         map_buf_tmp -= draw_area->x1;
 178              		.loc 1 949 9 is_stmt 1 view .LVU50
 179              		.loc 1 949 21 is_stmt 0 view .LVU51
 180 0090 A5EB4208 		sub	r8, r5, r2, lsl #1
 181              	.LVL13:
 950:lvgl/src/draw/lv_draw_blend.c ****         for(y = draw_area->y1; y <= draw_area->y2; y++) {
 182              		.loc 1 950 9 is_stmt 1 view .LVU52
 183              		.loc 1 950 9 is_stmt 0 view .LVU53
 184 0094 49E0     		b	.L9
 185              	.LVL14:
 186              	.L15:
 187              		.loc 1 950 9 view .LVU54
 188              	.LBE75:
 911:lvgl/src/draw/lv_draw_blend.c ****         case LV_BLEND_MODE_ADDITIVE:
 189              		.loc 1 911 5 view .LVU55
 190 0096 DFF8ACB0 		ldr	fp, .L21+4
 191 009a F2E7     		b	.L2
 192              	.LVL15:
 193              	.L18:
 929:lvgl/src/draw/lv_draw_blend.c **** 
 194              		.loc 1 929 9 is_stmt 1 view .LVU56
 932:lvgl/src/draw/lv_draw_blend.c **** 
 195              		.loc 1 932 9 view .LVU57
 932:lvgl/src/draw/lv_draw_blend.c **** 
 196              		.loc 1 932 21 is_stmt 0 view .LVU58
 197 009c A4EB0C04 		sub	r4, r4, ip
 198 00a0 05EB4405 		add	r5, r5, r4, lsl #1
 199              	.LVL16:
 934:lvgl/src/draw/lv_draw_blend.c ****             for(x = draw_area->x1; x <= draw_area->x2; x++) {
 200              		.loc 1 934 9 is_stmt 1 view .LVU59
 934:lvgl/src/draw/lv_draw_blend.c ****             for(x = draw_area->x1; x <= draw_area->x2; x++) {
 201              		.loc 1 934 9 is_stmt 0 view .LVU60
 202 00a4 DDF80080 		ldr	r8, [sp]
 203 00a8 DDF80890 		ldr	r9, [sp, #8]
 204 00ac 06E0     		b	.L5
 205              	.LVL17:
 206              	.L19:
 938:lvgl/src/draw/lv_draw_blend.c ****             map_buf_tmp += map_w;
 207              		.loc 1 938 13 is_stmt 1 discriminator 2 view .LVU61
 938:lvgl/src/draw/lv_draw_blend.c ****             map_buf_tmp += map_w;
 208              		.loc 1 938 26 is_stmt 0 discriminator 2 view .LVU62
 209 00ae 06EB4906 		add	r6, r6, r9, lsl #1
 210              	.LVL18:
 939:lvgl/src/draw/lv_draw_blend.c ****         }
 211              		.loc 1 939 13 is_stmt 1 discriminator 2 view .LVU63
 939:lvgl/src/draw/lv_draw_blend.c ****         }
 212              		.loc 1 939 25 is_stmt 0 discriminator 2 view .LVU64
 213 00b2 019B     		ldr	r3, [sp, #4]
 214 00b4 05EB4305 		add	r5, r5, r3, lsl #1
 215              	.LVL19:
ARM GAS  C:\Users\BLACK_~1\AppData\Local\Temp\ccXqf4MH.s 			page 24


 934:lvgl/src/draw/lv_draw_blend.c ****             for(x = draw_area->x1; x <= draw_area->x2; x++) {
 216              		.loc 1 934 52 is_stmt 1 discriminator 2 view .LVU65
 934:lvgl/src/draw/lv_draw_blend.c ****             for(x = draw_area->x1; x <= draw_area->x2; x++) {
 217              		.loc 1 934 53 is_stmt 0 discriminator 2 view .LVU66
 218 00b8 08F10108 		add	r8, r8, #1
 219              	.LVL20:
 220              	.L5:
 934:lvgl/src/draw/lv_draw_blend.c ****             for(x = draw_area->x1; x <= draw_area->x2; x++) {
 221              		.loc 1 934 32 is_stmt 1 discriminator 1 view .LVU67
 934:lvgl/src/draw/lv_draw_blend.c ****             for(x = draw_area->x1; x <= draw_area->x2; x++) {
 222              		.loc 1 934 46 is_stmt 0 discriminator 1 view .LVU68
 223 00bc B7F90630 		ldrsh	r3, [r7, #6]
 934:lvgl/src/draw/lv_draw_blend.c ****             for(x = draw_area->x1; x <= draw_area->x2; x++) {
 224              		.loc 1 934 9 discriminator 1 view .LVU69
 225 00c0 4345     		cmp	r3, r8
 226 00c2 3ADB     		blt	.L1
 935:lvgl/src/draw/lv_draw_blend.c ****                 disp_buf_tmp[x] = blend_fp(map_buf_tmp[x], disp_buf_tmp[x], opa);
 227              		.loc 1 935 13 is_stmt 1 view .LVU70
 935:lvgl/src/draw/lv_draw_blend.c ****                 disp_buf_tmp[x] = blend_fp(map_buf_tmp[x], disp_buf_tmp[x], opa);
 228              		.loc 1 935 30 is_stmt 0 view .LVU71
 229 00c4 B7F90040 		ldrsh	r4, [r7]
 230              	.LVL21:
 231              	.L6:
 935:lvgl/src/draw/lv_draw_blend.c ****                 disp_buf_tmp[x] = blend_fp(map_buf_tmp[x], disp_buf_tmp[x], opa);
 232              		.loc 1 935 36 is_stmt 1 discriminator 1 view .LVU72
 935:lvgl/src/draw/lv_draw_blend.c ****                 disp_buf_tmp[x] = blend_fp(map_buf_tmp[x], disp_buf_tmp[x], opa);
 233              		.loc 1 935 50 is_stmt 0 discriminator 1 view .LVU73
 234 00c8 B7F90430 		ldrsh	r3, [r7, #4]
 935:lvgl/src/draw/lv_draw_blend.c ****                 disp_buf_tmp[x] = blend_fp(map_buf_tmp[x], disp_buf_tmp[x], opa);
 235              		.loc 1 935 13 discriminator 1 view .LVU74
 236 00cc A342     		cmp	r3, r4
 237 00ce EEDB     		blt	.L19
 936:lvgl/src/draw/lv_draw_blend.c ****             }
 238              		.loc 1 936 17 is_stmt 1 discriminator 3 view .LVU75
 936:lvgl/src/draw/lv_draw_blend.c ****             }
 239              		.loc 1 936 35 is_stmt 0 discriminator 3 view .LVU76
 240 00d0 5246     		mov	r2, r10
 241 00d2 36F81410 		ldrh	r1, [r6, r4, lsl #1]
 242 00d6 35F81400 		ldrh	r0, [r5, r4, lsl #1]
 243 00da D847     		blx	fp
 244              	.LVL22:
 245 00dc 26F81400 		strh	r0, [r6, r4, lsl #1]	@ movhi
 935:lvgl/src/draw/lv_draw_blend.c ****                 disp_buf_tmp[x] = blend_fp(map_buf_tmp[x], disp_buf_tmp[x], opa);
 246              		.loc 1 935 56 is_stmt 1 discriminator 3 view .LVU77
 935:lvgl/src/draw/lv_draw_blend.c ****                 disp_buf_tmp[x] = blend_fp(map_buf_tmp[x], disp_buf_tmp[x], opa);
 247              		.loc 1 935 57 is_stmt 0 discriminator 3 view .LVU78
 248 00e0 0134     		adds	r4, r4, #1
 249              	.LVL23:
 935:lvgl/src/draw/lv_draw_blend.c ****                 disp_buf_tmp[x] = blend_fp(map_buf_tmp[x], disp_buf_tmp[x], opa);
 250              		.loc 1 935 57 discriminator 3 view .LVU79
 251 00e2 F1E7     		b	.L6
 252              	.LVL24:
 253              	.L16:
 254              	.LBB78:
 255              	.LBB76:
 951:lvgl/src/draw/lv_draw_blend.c ****             for(x = draw_area->x1; x <= draw_area->x2; x++) {
 952:lvgl/src/draw/lv_draw_blend.c ****                 if(mask_tmp[x] == 0) continue;
ARM GAS  C:\Users\BLACK_~1\AppData\Local\Temp\ccXqf4MH.s 			page 25


 953:lvgl/src/draw/lv_draw_blend.c ****                 lv_opa_t opa_tmp = mask_tmp[x] >= LV_OPA_MAX ? opa : ((opa * mask_tmp[x]) >> 8);
 256              		.loc 1 953 26 view .LVU80
 257 00e4 5246     		mov	r2, r10
 258              	.L12:
 259              	.LVL25:
 954:lvgl/src/draw/lv_draw_blend.c ****                 disp_buf_tmp[x] = blend_fp(map_buf_tmp[x], disp_buf_tmp[x], opa_tmp);
 260              		.loc 1 954 17 is_stmt 1 discriminator 4 view .LVU81
 261              		.loc 1 954 35 is_stmt 0 discriminator 4 view .LVU82
 262 00e6 36F81510 		ldrh	r1, [r6, r5, lsl #1]
 263 00ea 38F81500 		ldrh	r0, [r8, r5, lsl #1]
 264 00ee D847     		blx	fp
 265              	.LVL26:
 266              		.loc 1 954 35 discriminator 4 view .LVU83
 267 00f0 26F81500 		strh	r0, [r6, r5, lsl #1]	@ movhi
 268              	.L11:
 269              		.loc 1 954 35 discriminator 4 view .LVU84
 270              	.LBE76:
 951:lvgl/src/draw/lv_draw_blend.c ****             for(x = draw_area->x1; x <= draw_area->x2; x++) {
 271              		.loc 1 951 56 is_stmt 1 discriminator 2 view .LVU85
 951:lvgl/src/draw/lv_draw_blend.c ****             for(x = draw_area->x1; x <= draw_area->x2; x++) {
 272              		.loc 1 951 57 is_stmt 0 discriminator 2 view .LVU86
 273 00f4 0134     		adds	r4, r4, #1
 274              	.LVL27:
 275              	.L10:
 951:lvgl/src/draw/lv_draw_blend.c ****             for(x = draw_area->x1; x <= draw_area->x2; x++) {
 276              		.loc 1 951 36 is_stmt 1 discriminator 1 view .LVU87
 951:lvgl/src/draw/lv_draw_blend.c ****             for(x = draw_area->x1; x <= draw_area->x2; x++) {
 277              		.loc 1 951 50 is_stmt 0 discriminator 1 view .LVU88
 278 00f6 B7F90430 		ldrsh	r3, [r7, #4]
 951:lvgl/src/draw/lv_draw_blend.c ****             for(x = draw_area->x1; x <= draw_area->x2; x++) {
 279              		.loc 1 951 13 discriminator 1 view .LVU89
 280 00fa A342     		cmp	r3, r4
 281 00fc 0ADB     		blt	.L20
 282              	.LBB77:
 952:lvgl/src/draw/lv_draw_blend.c ****                 lv_opa_t opa_tmp = mask_tmp[x] >= LV_OPA_MAX ? opa : ((opa * mask_tmp[x]) >> 8);
 283              		.loc 1 952 17 is_stmt 1 view .LVU90
 952:lvgl/src/draw/lv_draw_blend.c ****                 lv_opa_t opa_tmp = mask_tmp[x] >= LV_OPA_MAX ? opa : ((opa * mask_tmp[x]) >> 8);
 284              		.loc 1 952 28 is_stmt 0 view .LVU91
 285 00fe 2546     		mov	r5, r4
 286 0100 19F80420 		ldrb	r2, [r9, r4]	@ zero_extendqisi2
 952:lvgl/src/draw/lv_draw_blend.c ****                 lv_opa_t opa_tmp = mask_tmp[x] >= LV_OPA_MAX ? opa : ((opa * mask_tmp[x]) >> 8);
 287              		.loc 1 952 19 view .LVU92
 288 0104 002A     		cmp	r2, #0
 289 0106 F5D0     		beq	.L11
 953:lvgl/src/draw/lv_draw_blend.c ****                 disp_buf_tmp[x] = blend_fp(map_buf_tmp[x], disp_buf_tmp[x], opa_tmp);
 290              		.loc 1 953 17 is_stmt 1 view .LVU93
 953:lvgl/src/draw/lv_draw_blend.c ****                 disp_buf_tmp[x] = blend_fp(map_buf_tmp[x], disp_buf_tmp[x], opa_tmp);
 291              		.loc 1 953 26 is_stmt 0 view .LVU94
 292 0108 FC2A     		cmp	r2, #252
 293 010a EBD8     		bhi	.L16
 953:lvgl/src/draw/lv_draw_blend.c ****                 disp_buf_tmp[x] = blend_fp(map_buf_tmp[x], disp_buf_tmp[x], opa_tmp);
 294              		.loc 1 953 76 discriminator 1 view .LVU95
 295 010c 02FB0AF2 		mul	r2, r2, r10
 953:lvgl/src/draw/lv_draw_blend.c ****                 disp_buf_tmp[x] = blend_fp(map_buf_tmp[x], disp_buf_tmp[x], opa_tmp);
 296              		.loc 1 953 26 discriminator 1 view .LVU96
 297 0110 120A     		lsrs	r2, r2, #8
 298 0112 E8E7     		b	.L12
ARM GAS  C:\Users\BLACK_~1\AppData\Local\Temp\ccXqf4MH.s 			page 26


 299              	.L20:
 953:lvgl/src/draw/lv_draw_blend.c ****                 disp_buf_tmp[x] = blend_fp(map_buf_tmp[x], disp_buf_tmp[x], opa_tmp);
 300              		.loc 1 953 26 discriminator 1 view .LVU97
 301              	.LBE77:
 955:lvgl/src/draw/lv_draw_blend.c ****             }
 956:lvgl/src/draw/lv_draw_blend.c ****             disp_buf_tmp += disp_w;
 302              		.loc 1 956 13 is_stmt 1 discriminator 2 view .LVU98
 303              		.loc 1 956 26 is_stmt 0 discriminator 2 view .LVU99
 304 0114 029B     		ldr	r3, [sp, #8]
 305 0116 06EB4306 		add	r6, r6, r3, lsl #1
 306              	.LVL28:
 957:lvgl/src/draw/lv_draw_blend.c ****             mask_tmp += draw_area_w;
 307              		.loc 1 957 13 is_stmt 1 discriminator 2 view .LVU100
 308              		.loc 1 957 22 is_stmt 0 discriminator 2 view .LVU101
 309 011a 039B     		ldr	r3, [sp, #12]
 310 011c 9944     		add	r9, r9, r3
 311              	.LVL29:
 958:lvgl/src/draw/lv_draw_blend.c ****             map_buf_tmp += map_w;
 312              		.loc 1 958 13 is_stmt 1 discriminator 2 view .LVU102
 313              		.loc 1 958 25 is_stmt 0 discriminator 2 view .LVU103
 314 011e 019B     		ldr	r3, [sp, #4]
 315 0120 08EB4308 		add	r8, r8, r3, lsl #1
 316              	.LVL30:
 950:lvgl/src/draw/lv_draw_blend.c ****             for(x = draw_area->x1; x <= draw_area->x2; x++) {
 317              		.loc 1 950 52 is_stmt 1 discriminator 2 view .LVU104
 950:lvgl/src/draw/lv_draw_blend.c ****             for(x = draw_area->x1; x <= draw_area->x2; x++) {
 318              		.loc 1 950 53 is_stmt 0 discriminator 2 view .LVU105
 319 0124 009B     		ldr	r3, [sp]
 320 0126 0133     		adds	r3, r3, #1
 321 0128 0093     		str	r3, [sp]
 322              	.LVL31:
 323              	.L9:
 950:lvgl/src/draw/lv_draw_blend.c ****             for(x = draw_area->x1; x <= draw_area->x2; x++) {
 324              		.loc 1 950 32 is_stmt 1 discriminator 1 view .LVU106
 950:lvgl/src/draw/lv_draw_blend.c ****             for(x = draw_area->x1; x <= draw_area->x2; x++) {
 325              		.loc 1 950 46 is_stmt 0 discriminator 1 view .LVU107
 326 012a B7F90630 		ldrsh	r3, [r7, #6]
 950:lvgl/src/draw/lv_draw_blend.c ****             for(x = draw_area->x1; x <= draw_area->x2; x++) {
 327              		.loc 1 950 9 discriminator 1 view .LVU108
 328 012e 009A     		ldr	r2, [sp]
 329 0130 9342     		cmp	r3, r2
 330 0132 02DB     		blt	.L1
 951:lvgl/src/draw/lv_draw_blend.c ****                 if(mask_tmp[x] == 0) continue;
 331              		.loc 1 951 13 is_stmt 1 view .LVU109
 951:lvgl/src/draw/lv_draw_blend.c ****                 if(mask_tmp[x] == 0) continue;
 332              		.loc 1 951 30 is_stmt 0 view .LVU110
 333 0134 B7F90040 		ldrsh	r4, [r7]
 334              	.LVL32:
 951:lvgl/src/draw/lv_draw_blend.c ****                 if(mask_tmp[x] == 0) continue;
 335              		.loc 1 951 13 view .LVU111
 336 0138 DDE7     		b	.L10
 337              	.LVL33:
 338              	.L1:
 951:lvgl/src/draw/lv_draw_blend.c ****                 if(mask_tmp[x] == 0) continue;
 339              		.loc 1 951 13 view .LVU112
 340              	.LBE78:
 959:lvgl/src/draw/lv_draw_blend.c ****         }
ARM GAS  C:\Users\BLACK_~1\AppData\Local\Temp\ccXqf4MH.s 			page 27


 960:lvgl/src/draw/lv_draw_blend.c ****     }
 961:lvgl/src/draw/lv_draw_blend.c **** }
 341              		.loc 1 961 1 view .LVU113
 342 013a 05B0     		add	sp, sp, #20
 343              	.LCFI2:
 344              		.cfi_def_cfa_offset 36
 345              		@ sp needed
 346 013c BDE8F08F 		pop	{r4, r5, r6, r7, r8, r9, r10, fp, pc}
 347              	.LVL34:
 348              	.L22:
 349              		.loc 1 961 1 view .LVU114
 350              		.align	2
 351              	.L21:
 352 0140 00000000 		.word	color_blend_true_color_subtractive
 353 0144 00000000 		.word	color_blend_true_color_additive
 354              		.cfi_endproc
 355              	.LFE154:
 357              		.section	.text.fill_set_px,"ax",%progbits
 358              		.align	1
 359              		.syntax unified
 360              		.thumb
 361              		.thumb_func
 363              	fill_set_px:
 364              	.LVL35:
 365              	.LFB149:
 245:lvgl/src/draw/lv_draw_blend.c **** 
 366              		.loc 1 245 1 is_stmt 1 view -0
 367              		.cfi_startproc
 368              		@ args = 12, pretend = 0, frame = 16
 369              		@ frame_needed = 0, uses_anonymous_args = 0
 245:lvgl/src/draw/lv_draw_blend.c **** 
 370              		.loc 1 245 1 is_stmt 0 view .LVU116
 371 0000 2DE9F04F 		push	{r4, r5, r6, r7, r8, r9, r10, fp, lr}
 372              	.LCFI3:
 373              		.cfi_def_cfa_offset 36
 374              		.cfi_offset 4, -36
 375              		.cfi_offset 5, -32
 376              		.cfi_offset 6, -28
 377              		.cfi_offset 7, -24
 378              		.cfi_offset 8, -20
 379              		.cfi_offset 9, -16
 380              		.cfi_offset 10, -12
 381              		.cfi_offset 11, -8
 382              		.cfi_offset 14, -4
 383 0004 89B0     		sub	sp, sp, #36
 384              	.LCFI4:
 385              		.cfi_def_cfa_offset 72
 386 0006 0446     		mov	r4, r0
 387 0008 0691     		str	r1, [sp, #24]
 388 000a 1546     		mov	r5, r2
 389 000c 9946     		mov	r9, r3	@ movhi
 390              	.LVL36:
 245:lvgl/src/draw/lv_draw_blend.c **** 
 391              		.loc 1 245 1 view .LVU117
 392 000e 9DF848A0 		ldrb	r10, [sp, #72]	@ zero_extendqisi2
 247:lvgl/src/draw/lv_draw_blend.c **** 
 393              		.loc 1 247 5 is_stmt 1 view .LVU118
ARM GAS  C:\Users\BLACK_~1\AppData\Local\Temp\ccXqf4MH.s 			page 28


 247:lvgl/src/draw/lv_draw_blend.c **** 
 394              		.loc 1 247 24 is_stmt 0 view .LVU119
 395 0012 FFF7FEFF 		bl	_lv_refr_get_disp_refreshing
 396              	.LVL37:
 247:lvgl/src/draw/lv_draw_blend.c **** 
 397              		.loc 1 247 24 view .LVU120
 398 0016 8046     		mov	r8, r0
 399              	.LVL38:
 250:lvgl/src/draw/lv_draw_blend.c **** 
 400              		.loc 1 250 5 is_stmt 1 view .LVU121
 401              	.LBB79:
 402              	.LBI79:
 133:lvgl/src/draw/../misc/lv_area.h **** {
 403              		.loc 2 133 26 view .LVU122
 404              	.LBB80:
 405              		.loc 2 135 5 view .LVU123
 406              		.loc 2 135 31 is_stmt 0 view .LVU124
 407 0018 A788     		ldrh	r7, [r4, #4]
 408              		.loc 2 135 44 view .LVU125
 409 001a 2388     		ldrh	r3, [r4]
 410              		.loc 2 135 36 view .LVU126
 411 001c FF1A     		subs	r7, r7, r3
 412 001e BFB2     		uxth	r7, r7
 413              		.loc 2 135 49 view .LVU127
 414 0020 0137     		adds	r7, r7, #1
 415              		.loc 2 135 12 view .LVU128
 416 0022 3FB2     		sxth	r7, r7
 417              	.LVL39:
 418              		.loc 2 135 12 view .LVU129
 419              	.LBE80:
 420              	.LBE79:
 252:lvgl/src/draw/lv_draw_blend.c ****     int32_t y;
 421              		.loc 1 252 5 is_stmt 1 view .LVU130
 253:lvgl/src/draw/lv_draw_blend.c **** 
 422              		.loc 1 253 5 view .LVU131
 255:lvgl/src/draw/lv_draw_blend.c ****         for(y = draw_area->y1; y <= draw_area->y2; y++) {
 423              		.loc 1 255 5 view .LVU132
 255:lvgl/src/draw/lv_draw_blend.c ****         for(y = draw_area->y1; y <= draw_area->y2; y++) {
 424              		.loc 1 255 7 is_stmt 0 view .LVU133
 425 0024 9DF85030 		ldrb	r3, [sp, #80]	@ zero_extendqisi2
 426 0028 012B     		cmp	r3, #1
 427 002a 0FD0     		beq	.L36
 428              	.LBB81:
 266:lvgl/src/draw/lv_draw_blend.c **** 
 429              		.loc 1 266 9 is_stmt 1 view .LVU134
 266:lvgl/src/draw/lv_draw_blend.c **** 
 430              		.loc 1 266 53 is_stmt 0 view .LVU135
 431 002c B5F90020 		ldrsh	r2, [r5]
 266:lvgl/src/draw/lv_draw_blend.c **** 
 432              		.loc 1 266 26 view .LVU136
 433 0030 139E     		ldr	r6, [sp, #76]
 434 0032 B61A     		subs	r6, r6, r2
 435              	.LVL40:
 269:lvgl/src/draw/lv_draw_blend.c **** 
 436              		.loc 1 269 9 is_stmt 1 view .LVU137
 437              	.LBB82:
 438              	.LBI82:
ARM GAS  C:\Users\BLACK_~1\AppData\Local\Temp\ccXqf4MH.s 			page 29


 133:lvgl/src/draw/../misc/lv_area.h **** {
 439              		.loc 2 133 26 view .LVU138
 440              	.LBB83:
 441              		.loc 2 135 5 view .LVU139
 442              		.loc 2 135 31 is_stmt 0 view .LVU140
 443 0034 AB88     		ldrh	r3, [r5, #4]
 444              		.loc 2 135 44 view .LVU141
 445 0036 92B2     		uxth	r2, r2
 446              		.loc 2 135 36 view .LVU142
 447 0038 9B1A     		subs	r3, r3, r2
 448 003a 9BB2     		uxth	r3, r3
 449              		.loc 2 135 49 view .LVU143
 450 003c 0133     		adds	r3, r3, #1
 451              		.loc 2 135 12 view .LVU144
 452 003e 1BB2     		sxth	r3, r3
 453 0040 0793     		str	r3, [sp, #28]
 454              	.LVL41:
 455              		.loc 2 135 12 view .LVU145
 456              	.LBE83:
 457              	.LBE82:
 271:lvgl/src/draw/lv_draw_blend.c ****             for(x = draw_area->x1; x <= draw_area->x2; x++) {
 458              		.loc 1 271 9 is_stmt 1 view .LVU146
 271:lvgl/src/draw/lv_draw_blend.c ****             for(x = draw_area->x1; x <= draw_area->x2; x++) {
 459              		.loc 1 271 26 is_stmt 0 view .LVU147
 460 0042 B5F90230 		ldrsh	r3, [r5, #2]
 461              	.LVL42:
 271:lvgl/src/draw/lv_draw_blend.c ****             for(x = draw_area->x1; x <= draw_area->x2; x++) {
 462              		.loc 1 271 26 view .LVU148
 463 0046 9B46     		mov	fp, r3
 464 0048 0597     		str	r7, [sp, #20]
 271:lvgl/src/draw/lv_draw_blend.c ****             for(x = draw_area->x1; x <= draw_area->x2; x++) {
 465              		.loc 1 271 9 view .LVU149
 466 004a 41E0     		b	.L30
 467              	.LVL43:
 468              	.L36:
 271:lvgl/src/draw/lv_draw_blend.c ****             for(x = draw_area->x1; x <= draw_area->x2; x++) {
 469              		.loc 1 271 9 view .LVU150
 470              	.LBE81:
 256:lvgl/src/draw/lv_draw_blend.c ****             for(x = draw_area->x1; x <= draw_area->x2; x++) {
 471              		.loc 1 256 9 is_stmt 1 view .LVU151
 256:lvgl/src/draw/lv_draw_blend.c ****             for(x = draw_area->x1; x <= draw_area->x2; x++) {
 472              		.loc 1 256 26 is_stmt 0 view .LVU152
 473 004c B5F902B0 		ldrsh	fp, [r5, #2]
 474              	.LVL44:
 256:lvgl/src/draw/lv_draw_blend.c ****             for(x = draw_area->x1; x <= draw_area->x2; x++) {
 475              		.loc 1 256 26 view .LVU153
 476 0050 CDF814B0 		str	fp, [sp, #20]
 477 0054 DDF818B0 		ldr	fp, [sp, #24]
 478              	.LVL45:
 256:lvgl/src/draw/lv_draw_blend.c ****             for(x = draw_area->x1; x <= draw_area->x2; x++) {
 479              		.loc 1 256 9 view .LVU154
 480 0058 15E0     		b	.L25
 481              	.LVL46:
 482              	.L27:
 258:lvgl/src/draw/lv_draw_blend.c ****             }
 483              		.loc 1 258 17 is_stmt 1 discriminator 3 view .LVU155
 258:lvgl/src/draw/lv_draw_blend.c ****             }
ARM GAS  C:\Users\BLACK_~1\AppData\Local\Temp\ccXqf4MH.s 			page 30


 484              		.loc 1 258 21 is_stmt 0 discriminator 3 view .LVU156
 485 005a D8F80000 		ldr	r0, [r8]
 258:lvgl/src/draw/lv_draw_blend.c ****             }
 486              		.loc 1 258 29 discriminator 3 view .LVU157
 487 005e 4669     		ldr	r6, [r0, #20]
 258:lvgl/src/draw/lv_draw_blend.c ****             }
 488              		.loc 1 258 17 discriminator 3 view .LVU158
 489 0060 CDF808A0 		str	r10, [sp, #8]
 490 0064 ADF80490 		strh	r9, [sp, #4]	@ movhi
 491 0068 BDF91430 		ldrsh	r3, [sp, #20]
 492 006c 0093     		str	r3, [sp]
 493 006e 23B2     		sxth	r3, r4
 494 0070 3A46     		mov	r2, r7
 495 0072 5946     		mov	r1, fp
 496 0074 B047     		blx	r6
 497              	.LVL47:
 257:lvgl/src/draw/lv_draw_blend.c ****                 disp->driver->set_px_cb(disp->driver, (void *)disp_buf, disp_w, x, y, color, opa);
 498              		.loc 1 257 56 is_stmt 1 discriminator 3 view .LVU159
 257:lvgl/src/draw/lv_draw_blend.c ****                 disp->driver->set_px_cb(disp->driver, (void *)disp_buf, disp_w, x, y, color, opa);
 499              		.loc 1 257 57 is_stmt 0 discriminator 3 view .LVU160
 500 0076 0134     		adds	r4, r4, #1
 501              	.LVL48:
 502              	.L26:
 257:lvgl/src/draw/lv_draw_blend.c ****                 disp->driver->set_px_cb(disp->driver, (void *)disp_buf, disp_w, x, y, color, opa);
 503              		.loc 1 257 36 is_stmt 1 discriminator 1 view .LVU161
 257:lvgl/src/draw/lv_draw_blend.c ****                 disp->driver->set_px_cb(disp->driver, (void *)disp_buf, disp_w, x, y, color, opa);
 504              		.loc 1 257 50 is_stmt 0 discriminator 1 view .LVU162
 505 0078 B5F90430 		ldrsh	r3, [r5, #4]
 257:lvgl/src/draw/lv_draw_blend.c ****                 disp->driver->set_px_cb(disp->driver, (void *)disp_buf, disp_w, x, y, color, opa);
 506              		.loc 1 257 13 discriminator 1 view .LVU163
 507 007c A342     		cmp	r3, r4
 508 007e ECDA     		bge	.L27
 256:lvgl/src/draw/lv_draw_blend.c ****             for(x = draw_area->x1; x <= draw_area->x2; x++) {
 509              		.loc 1 256 52 is_stmt 1 discriminator 2 view .LVU164
 256:lvgl/src/draw/lv_draw_blend.c ****             for(x = draw_area->x1; x <= draw_area->x2; x++) {
 510              		.loc 1 256 53 is_stmt 0 discriminator 2 view .LVU165
 511 0080 059B     		ldr	r3, [sp, #20]
 512 0082 0133     		adds	r3, r3, #1
 513 0084 0593     		str	r3, [sp, #20]
 514              	.LVL49:
 515              	.L25:
 256:lvgl/src/draw/lv_draw_blend.c ****             for(x = draw_area->x1; x <= draw_area->x2; x++) {
 516              		.loc 1 256 32 is_stmt 1 discriminator 1 view .LVU166
 256:lvgl/src/draw/lv_draw_blend.c ****             for(x = draw_area->x1; x <= draw_area->x2; x++) {
 517              		.loc 1 256 46 is_stmt 0 discriminator 1 view .LVU167
 518 0086 B5F90630 		ldrsh	r3, [r5, #6]
 256:lvgl/src/draw/lv_draw_blend.c ****             for(x = draw_area->x1; x <= draw_area->x2; x++) {
 519              		.loc 1 256 9 discriminator 1 view .LVU168
 520 008a 059A     		ldr	r2, [sp, #20]
 521 008c 9342     		cmp	r3, r2
 522 008e 26DB     		blt	.L23
 257:lvgl/src/draw/lv_draw_blend.c ****                 disp->driver->set_px_cb(disp->driver, (void *)disp_buf, disp_w, x, y, color, opa);
 523              		.loc 1 257 13 is_stmt 1 view .LVU169
 257:lvgl/src/draw/lv_draw_blend.c ****                 disp->driver->set_px_cb(disp->driver, (void *)disp_buf, disp_w, x, y, color, opa);
 524              		.loc 1 257 30 is_stmt 0 view .LVU170
 525 0090 B5F90040 		ldrsh	r4, [r5]
 526              	.LVL50:
ARM GAS  C:\Users\BLACK_~1\AppData\Local\Temp\ccXqf4MH.s 			page 31


 257:lvgl/src/draw/lv_draw_blend.c ****                 disp->driver->set_px_cb(disp->driver, (void *)disp_buf, disp_w, x, y, color, opa);
 527              		.loc 1 257 13 view .LVU171
 528 0094 F0E7     		b	.L26
 529              	.LVL51:
 530              	.L32:
 531              	.LBB84:
 272:lvgl/src/draw/lv_draw_blend.c ****                 if(mask_tmp[x]) {
 532              		.loc 1 272 56 is_stmt 1 discriminator 2 view .LVU172
 272:lvgl/src/draw/lv_draw_blend.c ****                 if(mask_tmp[x]) {
 533              		.loc 1 272 57 is_stmt 0 discriminator 2 view .LVU173
 534 0096 0134     		adds	r4, r4, #1
 535              	.LVL52:
 536              	.L31:
 272:lvgl/src/draw/lv_draw_blend.c ****                 if(mask_tmp[x]) {
 537              		.loc 1 272 36 is_stmt 1 discriminator 1 view .LVU174
 272:lvgl/src/draw/lv_draw_blend.c ****                 if(mask_tmp[x]) {
 538              		.loc 1 272 50 is_stmt 0 discriminator 1 view .LVU175
 539 0098 B5F90430 		ldrsh	r3, [r5, #4]
 272:lvgl/src/draw/lv_draw_blend.c ****                 if(mask_tmp[x]) {
 540              		.loc 1 272 13 discriminator 1 view .LVU176
 541 009c A342     		cmp	r3, r4
 542 009e 13DB     		blt	.L37
 273:lvgl/src/draw/lv_draw_blend.c ****                     disp->driver->set_px_cb(disp->driver, (void *)disp_buf, disp_w, x, y, color,
 543              		.loc 1 273 17 is_stmt 1 view .LVU177
 273:lvgl/src/draw/lv_draw_blend.c ****                     disp->driver->set_px_cb(disp->driver, (void *)disp_buf, disp_w, x, y, color,
 544              		.loc 1 273 28 is_stmt 0 view .LVU178
 545 00a0 335D     		ldrb	r3, [r6, r4]	@ zero_extendqisi2
 273:lvgl/src/draw/lv_draw_blend.c ****                     disp->driver->set_px_cb(disp->driver, (void *)disp_buf, disp_w, x, y, color,
 546              		.loc 1 273 19 view .LVU179
 547 00a2 002B     		cmp	r3, #0
 548 00a4 F7D0     		beq	.L32
 274:lvgl/src/draw/lv_draw_blend.c ****                                            (uint32_t)((uint32_t)opa * mask_tmp[x]) >> 8);
 549              		.loc 1 274 21 is_stmt 1 view .LVU180
 274:lvgl/src/draw/lv_draw_blend.c ****                                            (uint32_t)((uint32_t)opa * mask_tmp[x]) >> 8);
 550              		.loc 1 274 25 is_stmt 0 view .LVU181
 551 00a6 D8F80000 		ldr	r0, [r8]
 274:lvgl/src/draw/lv_draw_blend.c ****                                            (uint32_t)((uint32_t)opa * mask_tmp[x]) >> 8);
 552              		.loc 1 274 33 view .LVU182
 553 00aa 4769     		ldr	r7, [r0, #20]
 275:lvgl/src/draw/lv_draw_blend.c ****                 }
 554              		.loc 1 275 44 view .LVU183
 555 00ac 03FB0AF3 		mul	r3, r3, r10
 274:lvgl/src/draw/lv_draw_blend.c ****                                            (uint32_t)((uint32_t)opa * mask_tmp[x]) >> 8);
 556              		.loc 1 274 21 view .LVU184
 557 00b0 1B0A     		lsrs	r3, r3, #8
 558 00b2 0293     		str	r3, [sp, #8]
 559 00b4 ADF80490 		strh	r9, [sp, #4]	@ movhi
 560 00b8 0FFA8BF3 		sxth	r3, fp
 561 00bc 0093     		str	r3, [sp]
 562 00be 23B2     		sxth	r3, r4
 563 00c0 059A     		ldr	r2, [sp, #20]
 564 00c2 0699     		ldr	r1, [sp, #24]
 565 00c4 B847     		blx	r7
 566              	.LVL53:
 567 00c6 E6E7     		b	.L32
 568              	.L37:
 278:lvgl/src/draw/lv_draw_blend.c ****         }
ARM GAS  C:\Users\BLACK_~1\AppData\Local\Temp\ccXqf4MH.s 			page 32


 569              		.loc 1 278 13 is_stmt 1 discriminator 2 view .LVU185
 278:lvgl/src/draw/lv_draw_blend.c ****         }
 570              		.loc 1 278 22 is_stmt 0 discriminator 2 view .LVU186
 571 00c8 079B     		ldr	r3, [sp, #28]
 572 00ca 1E44     		add	r6, r6, r3
 573              	.LVL54:
 271:lvgl/src/draw/lv_draw_blend.c ****             for(x = draw_area->x1; x <= draw_area->x2; x++) {
 574              		.loc 1 271 52 is_stmt 1 discriminator 2 view .LVU187
 271:lvgl/src/draw/lv_draw_blend.c ****             for(x = draw_area->x1; x <= draw_area->x2; x++) {
 575              		.loc 1 271 53 is_stmt 0 discriminator 2 view .LVU188
 576 00cc 0BF1010B 		add	fp, fp, #1
 577              	.LVL55:
 578              	.L30:
 271:lvgl/src/draw/lv_draw_blend.c ****             for(x = draw_area->x1; x <= draw_area->x2; x++) {
 579              		.loc 1 271 32 is_stmt 1 discriminator 1 view .LVU189
 271:lvgl/src/draw/lv_draw_blend.c ****             for(x = draw_area->x1; x <= draw_area->x2; x++) {
 580              		.loc 1 271 46 is_stmt 0 discriminator 1 view .LVU190
 581 00d0 B5F90630 		ldrsh	r3, [r5, #6]
 271:lvgl/src/draw/lv_draw_blend.c ****             for(x = draw_area->x1; x <= draw_area->x2; x++) {
 582              		.loc 1 271 9 discriminator 1 view .LVU191
 583 00d4 5B45     		cmp	r3, fp
 584 00d6 02DB     		blt	.L23
 272:lvgl/src/draw/lv_draw_blend.c ****                 if(mask_tmp[x]) {
 585              		.loc 1 272 13 is_stmt 1 view .LVU192
 272:lvgl/src/draw/lv_draw_blend.c ****                 if(mask_tmp[x]) {
 586              		.loc 1 272 30 is_stmt 0 view .LVU193
 587 00d8 B5F90040 		ldrsh	r4, [r5]
 588              	.LVL56:
 272:lvgl/src/draw/lv_draw_blend.c ****                 if(mask_tmp[x]) {
 589              		.loc 1 272 13 view .LVU194
 590 00dc DCE7     		b	.L31
 591              	.LVL57:
 592              	.L23:
 272:lvgl/src/draw/lv_draw_blend.c ****                 if(mask_tmp[x]) {
 593              		.loc 1 272 13 view .LVU195
 594              	.LBE84:
 281:lvgl/src/draw/lv_draw_blend.c **** 
 595              		.loc 1 281 1 view .LVU196
 596 00de 09B0     		add	sp, sp, #36
 597              	.LCFI5:
 598              		.cfi_def_cfa_offset 36
 599              		@ sp needed
 600 00e0 BDE8F08F 		pop	{r4, r5, r6, r7, r8, r9, r10, fp, pc}
 281:lvgl/src/draw/lv_draw_blend.c **** 
 601              		.loc 1 281 1 view .LVU197
 602              		.cfi_endproc
 603              	.LFE149:
 605              		.section	.text.map_set_px,"ax",%progbits
 606              		.align	1
 607              		.syntax unified
 608              		.thumb
 609              		.thumb_func
 611              	map_set_px:
 612              	.LVL58:
 613              	.LFB152:
 596:lvgl/src/draw/lv_draw_blend.c ****     lv_disp_t * disp = _lv_refr_get_disp_refreshing();
 614              		.loc 1 596 1 is_stmt 1 view -0
ARM GAS  C:\Users\BLACK_~1\AppData\Local\Temp\ccXqf4MH.s 			page 33


 615              		.cfi_startproc
 616              		@ args = 16, pretend = 0, frame = 24
 617              		@ frame_needed = 0, uses_anonymous_args = 0
 596:lvgl/src/draw/lv_draw_blend.c ****     lv_disp_t * disp = _lv_refr_get_disp_refreshing();
 618              		.loc 1 596 1 is_stmt 0 view .LVU199
 619 0000 2DE9F04F 		push	{r4, r5, r6, r7, r8, r9, r10, fp, lr}
 620              	.LCFI6:
 621              		.cfi_def_cfa_offset 36
 622              		.cfi_offset 4, -36
 623              		.cfi_offset 5, -32
 624              		.cfi_offset 6, -28
 625              		.cfi_offset 7, -24
 626              		.cfi_offset 8, -20
 627              		.cfi_offset 9, -16
 628              		.cfi_offset 10, -12
 629              		.cfi_offset 11, -8
 630              		.cfi_offset 14, -4
 631 0004 8BB0     		sub	sp, sp, #44
 632              	.LCFI7:
 633              		.cfi_def_cfa_offset 80
 634 0006 0446     		mov	r4, r0
 635 0008 0691     		str	r1, [sp, #24]
 636 000a 1546     		mov	r5, r2
 637 000c 1E46     		mov	r6, r3
 638 000e 9DF854A0 		ldrb	r10, [sp, #84]	@ zero_extendqisi2
 597:lvgl/src/draw/lv_draw_blend.c **** 
 639              		.loc 1 597 5 is_stmt 1 view .LVU200
 597:lvgl/src/draw/lv_draw_blend.c **** 
 640              		.loc 1 597 24 is_stmt 0 view .LVU201
 641 0012 FFF7FEFF 		bl	_lv_refr_get_disp_refreshing
 642              	.LVL59:
 597:lvgl/src/draw/lv_draw_blend.c **** 
 643              		.loc 1 597 24 view .LVU202
 644 0016 8146     		mov	r9, r0
 645              	.LVL60:
 600:lvgl/src/draw/lv_draw_blend.c **** 
 646              		.loc 1 600 5 is_stmt 1 view .LVU203
 647              	.LBB85:
 648              	.LBI85:
 133:lvgl/src/draw/../misc/lv_area.h **** {
 649              		.loc 2 133 26 view .LVU204
 650              	.LBB86:
 651              		.loc 2 135 5 view .LVU205
 652              		.loc 2 135 31 is_stmt 0 view .LVU206
 653 0018 B4F80480 		ldrh	r8, [r4, #4]
 654              		.loc 2 135 44 view .LVU207
 655 001c B4F90000 		ldrsh	r0, [r4]
 656              	.LVL61:
 657              		.loc 2 135 44 view .LVU208
 658 0020 83B2     		uxth	r3, r0
 659              		.loc 2 135 36 view .LVU209
 660 0022 A8EB0308 		sub	r8, r8, r3
 661 0026 1FFA88F8 		uxth	r8, r8
 662              		.loc 2 135 49 view .LVU210
 663 002a 08F10108 		add	r8, r8, #1
 664              		.loc 2 135 12 view .LVU211
 665 002e 0FFA88F8 		sxth	r8, r8
ARM GAS  C:\Users\BLACK_~1\AppData\Local\Temp\ccXqf4MH.s 			page 34


 666              	.LVL62:
 667              		.loc 2 135 12 view .LVU212
 668              	.LBE86:
 669              	.LBE85:
 603:lvgl/src/draw/lv_draw_blend.c **** 
 670              		.loc 1 603 5 is_stmt 1 view .LVU213
 671              	.LBB87:
 672              	.LBI87:
 133:lvgl/src/draw/../misc/lv_area.h **** {
 673              		.loc 2 133 26 view .LVU214
 674              	.LBB88:
 675              		.loc 2 135 5 view .LVU215
 676              		.loc 2 135 31 is_stmt 0 view .LVU216
 677 0032 AB88     		ldrh	r3, [r5, #4]
 678              		.loc 2 135 44 view .LVU217
 679 0034 B5F90020 		ldrsh	r2, [r5]
 680 0038 91B2     		uxth	r1, r2
 681              		.loc 2 135 36 view .LVU218
 682 003a 5B1A     		subs	r3, r3, r1
 683 003c 9BB2     		uxth	r3, r3
 684              		.loc 2 135 49 view .LVU219
 685 003e 0133     		adds	r3, r3, #1
 686              		.loc 2 135 12 view .LVU220
 687 0040 1BB2     		sxth	r3, r3
 688 0042 0993     		str	r3, [sp, #36]
 689              	.LVL63:
 690              		.loc 2 135 12 view .LVU221
 691              	.LBE88:
 692              	.LBE87:
 606:lvgl/src/draw/lv_draw_blend.c **** 
 693              		.loc 1 606 5 is_stmt 1 view .LVU222
 694              	.LBB89:
 695              	.LBI89:
 133:lvgl/src/draw/../misc/lv_area.h **** {
 696              		.loc 2 133 26 view .LVU223
 697              	.LBB90:
 698              		.loc 2 135 5 view .LVU224
 699              		.loc 2 135 31 is_stmt 0 view .LVU225
 700 0044 B188     		ldrh	r1, [r6, #4]
 701              		.loc 2 135 44 view .LVU226
 702 0046 B6F90030 		ldrsh	r3, [r6]
 703 004a 9FB2     		uxth	r7, r3
 704              		.loc 2 135 36 view .LVU227
 705 004c C91B     		subs	r1, r1, r7
 706 004e 89B2     		uxth	r1, r1
 707              		.loc 2 135 49 view .LVU228
 708 0050 0131     		adds	r1, r1, #1
 709              		.loc 2 135 12 view .LVU229
 710 0052 0FB2     		sxth	r7, r1
 711 0054 0897     		str	r7, [sp, #32]
 712              	.LVL64:
 713              		.loc 2 135 12 view .LVU230
 714              	.LBE90:
 715              	.LBE89:
 609:lvgl/src/draw/lv_draw_blend.c **** 
 716              		.loc 1 609 5 is_stmt 1 view .LVU231
 609:lvgl/src/draw/lv_draw_blend.c **** 
ARM GAS  C:\Users\BLACK_~1\AppData\Local\Temp\ccXqf4MH.s 			page 35


 717              		.loc 1 609 66 is_stmt 0 view .LVU232
 718 0056 B5F90210 		ldrsh	r1, [r5, #2]
 719 005a 0591     		str	r1, [sp, #20]
 609:lvgl/src/draw/lv_draw_blend.c **** 
 720              		.loc 1 609 82 view .LVU233
 721 005c B6F90260 		ldrsh	r6, [r6, #2]
 722              	.LVL65:
 609:lvgl/src/draw/lv_draw_blend.c **** 
 723              		.loc 1 609 98 view .LVU234
 724 0060 B4F90210 		ldrsh	r1, [r4, #2]
 609:lvgl/src/draw/lv_draw_blend.c **** 
 725              		.loc 1 609 87 view .LVU235
 726 0064 761A     		subs	r6, r6, r1
 609:lvgl/src/draw/lv_draw_blend.c **** 
 727              		.loc 1 609 71 view .LVU236
 728 0066 0599     		ldr	r1, [sp, #20]
 729 0068 8E1B     		subs	r6, r1, r6
 730              	.LVL66:
 611:lvgl/src/draw/lv_draw_blend.c ****     map_buf_tmp -= draw_area->x1;
 731              		.loc 1 611 5 is_stmt 1 view .LVU237
 611:lvgl/src/draw/lv_draw_blend.c ****     map_buf_tmp -= draw_area->x1;
 732              		.loc 1 611 51 is_stmt 0 view .LVU238
 733 006a 1B1A     		subs	r3, r3, r0
 611:lvgl/src/draw/lv_draw_blend.c ****     map_buf_tmp -= draw_area->x1;
 734              		.loc 1 611 35 view .LVU239
 735 006c D31A     		subs	r3, r2, r3
 736              	.LVL67:
 612:lvgl/src/draw/lv_draw_blend.c ****     int32_t x;
 737              		.loc 1 612 5 is_stmt 1 view .LVU240
 612:lvgl/src/draw/lv_draw_blend.c ****     int32_t x;
 738              		.loc 1 612 17 is_stmt 0 view .LVU241
 739 006e 07FB0636 		mla	r6, r7, r6, r3
 740              	.LVL68:
 612:lvgl/src/draw/lv_draw_blend.c ****     int32_t x;
 741              		.loc 1 612 17 view .LVU242
 742 0072 B31A     		subs	r3, r6, r2
 743              	.LVL69:
 612:lvgl/src/draw/lv_draw_blend.c ****     int32_t x;
 744              		.loc 1 612 17 view .LVU243
 745 0074 149E     		ldr	r6, [sp, #80]
 746 0076 06EB4306 		add	r6, r6, r3, lsl #1
 747              	.LVL70:
 613:lvgl/src/draw/lv_draw_blend.c ****     int32_t y;
 748              		.loc 1 613 5 is_stmt 1 view .LVU244
 614:lvgl/src/draw/lv_draw_blend.c **** 
 749              		.loc 1 614 5 view .LVU245
 616:lvgl/src/draw/lv_draw_blend.c ****         for(y = draw_area->y1; y <= draw_area->y2; y++) {
 750              		.loc 1 616 5 view .LVU246
 616:lvgl/src/draw/lv_draw_blend.c ****         for(y = draw_area->y1; y <= draw_area->y2; y++) {
 751              		.loc 1 616 7 is_stmt 0 view .LVU247
 752 007a 9DF85C30 		ldrb	r3, [sp, #92]	@ zero_extendqisi2
 753 007e 012B     		cmp	r3, #1
 754 0080 07D0     		beq	.L52
 755              	.LBB91:
 628:lvgl/src/draw/lv_draw_blend.c **** 
 756              		.loc 1 628 9 is_stmt 1 view .LVU248
 628:lvgl/src/draw/lv_draw_blend.c **** 
ARM GAS  C:\Users\BLACK_~1\AppData\Local\Temp\ccXqf4MH.s 			page 36


 757              		.loc 1 628 26 is_stmt 0 view .LVU249
 758 0082 169F     		ldr	r7, [sp, #88]
 759              	.LVL71:
 628:lvgl/src/draw/lv_draw_blend.c **** 
 760              		.loc 1 628 26 view .LVU250
 761 0084 BF1A     		subs	r7, r7, r2
 762              	.LVL72:
 630:lvgl/src/draw/lv_draw_blend.c ****             for(x = draw_area->x1; x <= draw_area->x2; x++) {
 763              		.loc 1 630 9 is_stmt 1 view .LVU251
 630:lvgl/src/draw/lv_draw_blend.c ****             for(x = draw_area->x1; x <= draw_area->x2; x++) {
 764              		.loc 1 630 9 is_stmt 0 view .LVU252
 765 0086 B346     		mov	fp, r6
 766 0088 CDF81C80 		str	r8, [sp, #28]
 767 008c DDF81480 		ldr	r8, [sp, #20]
 768              	.LVL73:
 630:lvgl/src/draw/lv_draw_blend.c ****             for(x = draw_area->x1; x <= draw_area->x2; x++) {
 769              		.loc 1 630 9 view .LVU253
 770 0090 47E0     		b	.L45
 771              	.LVL74:
 772              	.L52:
 630:lvgl/src/draw/lv_draw_blend.c ****             for(x = draw_area->x1; x <= draw_area->x2; x++) {
 773              		.loc 1 630 9 view .LVU254
 774 0092 DDF818B0 		ldr	fp, [sp, #24]
 775              	.LBE91:
 776 0096 1AE0     		b	.L39
 777              	.LVL75:
 778              	.L42:
 619:lvgl/src/draw/lv_draw_blend.c ****             }
 779              		.loc 1 619 17 is_stmt 1 discriminator 3 view .LVU255
 619:lvgl/src/draw/lv_draw_blend.c ****             }
 780              		.loc 1 619 21 is_stmt 0 discriminator 3 view .LVU256
 781 0098 D9F80000 		ldr	r0, [r9]
 619:lvgl/src/draw/lv_draw_blend.c ****             }
 782              		.loc 1 619 29 discriminator 3 view .LVU257
 783 009c 4769     		ldr	r7, [r0, #20]
 619:lvgl/src/draw/lv_draw_blend.c ****             }
 784              		.loc 1 619 17 discriminator 3 view .LVU258
 785 009e CDF808A0 		str	r10, [sp, #8]
 786 00a2 36F81430 		ldrh	r3, [r6, r4, lsl #1]
 787 00a6 ADF80430 		strh	r3, [sp, #4]	@ movhi
 788 00aa BDF91430 		ldrsh	r3, [sp, #20]
 789 00ae 0093     		str	r3, [sp]
 790 00b0 23B2     		sxth	r3, r4
 791 00b2 4246     		mov	r2, r8
 792 00b4 5946     		mov	r1, fp
 793 00b6 B847     		blx	r7
 794              	.LVL76:
 618:lvgl/src/draw/lv_draw_blend.c ****                 disp->driver->set_px_cb(disp->driver, (void *)disp_buf, disp_w, x, y, map_buf_tmp[x
 795              		.loc 1 618 56 is_stmt 1 discriminator 3 view .LVU259
 618:lvgl/src/draw/lv_draw_blend.c ****                 disp->driver->set_px_cb(disp->driver, (void *)disp_buf, disp_w, x, y, map_buf_tmp[x
 796              		.loc 1 618 57 is_stmt 0 discriminator 3 view .LVU260
 797 00b8 0134     		adds	r4, r4, #1
 798              	.LVL77:
 799              	.L41:
 618:lvgl/src/draw/lv_draw_blend.c ****                 disp->driver->set_px_cb(disp->driver, (void *)disp_buf, disp_w, x, y, map_buf_tmp[x
 800              		.loc 1 618 36 is_stmt 1 discriminator 1 view .LVU261
 618:lvgl/src/draw/lv_draw_blend.c ****                 disp->driver->set_px_cb(disp->driver, (void *)disp_buf, disp_w, x, y, map_buf_tmp[x
ARM GAS  C:\Users\BLACK_~1\AppData\Local\Temp\ccXqf4MH.s 			page 37


 801              		.loc 1 618 50 is_stmt 0 discriminator 1 view .LVU262
 802 00ba B5F90430 		ldrsh	r3, [r5, #4]
 618:lvgl/src/draw/lv_draw_blend.c ****                 disp->driver->set_px_cb(disp->driver, (void *)disp_buf, disp_w, x, y, map_buf_tmp[x
 803              		.loc 1 618 13 discriminator 1 view .LVU263
 804 00be A342     		cmp	r3, r4
 805 00c0 EADA     		bge	.L42
 621:lvgl/src/draw/lv_draw_blend.c ****         }
 806              		.loc 1 621 13 is_stmt 1 discriminator 2 view .LVU264
 621:lvgl/src/draw/lv_draw_blend.c ****         }
 807              		.loc 1 621 25 is_stmt 0 discriminator 2 view .LVU265
 808 00c2 089B     		ldr	r3, [sp, #32]
 809 00c4 06EB4306 		add	r6, r6, r3, lsl #1
 810              	.LVL78:
 617:lvgl/src/draw/lv_draw_blend.c ****             for(x = draw_area->x1; x <= draw_area->x2; x++) {
 811              		.loc 1 617 52 is_stmt 1 discriminator 2 view .LVU266
 617:lvgl/src/draw/lv_draw_blend.c ****             for(x = draw_area->x1; x <= draw_area->x2; x++) {
 812              		.loc 1 617 53 is_stmt 0 discriminator 2 view .LVU267
 813 00c8 059B     		ldr	r3, [sp, #20]
 814 00ca 0133     		adds	r3, r3, #1
 815 00cc 0593     		str	r3, [sp, #20]
 816              	.LVL79:
 817              	.L39:
 617:lvgl/src/draw/lv_draw_blend.c ****             for(x = draw_area->x1; x <= draw_area->x2; x++) {
 818              		.loc 1 617 32 is_stmt 1 discriminator 1 view .LVU268
 617:lvgl/src/draw/lv_draw_blend.c ****             for(x = draw_area->x1; x <= draw_area->x2; x++) {
 819              		.loc 1 617 46 is_stmt 0 discriminator 1 view .LVU269
 820 00ce B5F90630 		ldrsh	r3, [r5, #6]
 617:lvgl/src/draw/lv_draw_blend.c ****             for(x = draw_area->x1; x <= draw_area->x2; x++) {
 821              		.loc 1 617 9 discriminator 1 view .LVU270
 822 00d2 059A     		ldr	r2, [sp, #20]
 823 00d4 9342     		cmp	r3, r2
 824 00d6 2BDB     		blt	.L38
 618:lvgl/src/draw/lv_draw_blend.c ****                 disp->driver->set_px_cb(disp->driver, (void *)disp_buf, disp_w, x, y, map_buf_tmp[x
 825              		.loc 1 618 13 is_stmt 1 view .LVU271
 618:lvgl/src/draw/lv_draw_blend.c ****                 disp->driver->set_px_cb(disp->driver, (void *)disp_buf, disp_w, x, y, map_buf_tmp[x
 826              		.loc 1 618 30 is_stmt 0 view .LVU272
 827 00d8 B5F90040 		ldrsh	r4, [r5]
 828              	.LVL80:
 618:lvgl/src/draw/lv_draw_blend.c ****                 disp->driver->set_px_cb(disp->driver, (void *)disp_buf, disp_w, x, y, map_buf_tmp[x
 829              		.loc 1 618 13 view .LVU273
 830 00dc EDE7     		b	.L41
 831              	.LVL81:
 832              	.L47:
 833              	.LBB92:
 631:lvgl/src/draw/lv_draw_blend.c ****                 if(mask_tmp[x]) {
 834              		.loc 1 631 56 is_stmt 1 discriminator 2 view .LVU274
 631:lvgl/src/draw/lv_draw_blend.c ****                 if(mask_tmp[x]) {
 835              		.loc 1 631 57 is_stmt 0 discriminator 2 view .LVU275
 836 00de 0134     		adds	r4, r4, #1
 837              	.LVL82:
 838              	.L46:
 631:lvgl/src/draw/lv_draw_blend.c ****                 if(mask_tmp[x]) {
 839              		.loc 1 631 36 is_stmt 1 discriminator 1 view .LVU276
 631:lvgl/src/draw/lv_draw_blend.c ****                 if(mask_tmp[x]) {
 840              		.loc 1 631 50 is_stmt 0 discriminator 1 view .LVU277
 841 00e0 B5F90430 		ldrsh	r3, [r5, #4]
 631:lvgl/src/draw/lv_draw_blend.c ****                 if(mask_tmp[x]) {
ARM GAS  C:\Users\BLACK_~1\AppData\Local\Temp\ccXqf4MH.s 			page 38


 842              		.loc 1 631 13 discriminator 1 view .LVU278
 843 00e4 A342     		cmp	r3, r4
 844 00e6 15DB     		blt	.L53
 632:lvgl/src/draw/lv_draw_blend.c ****                     disp->driver->set_px_cb(disp->driver, (void *)disp_buf, disp_w, x, y, map_buf_t
 845              		.loc 1 632 17 is_stmt 1 view .LVU279
 632:lvgl/src/draw/lv_draw_blend.c ****                     disp->driver->set_px_cb(disp->driver, (void *)disp_buf, disp_w, x, y, map_buf_t
 846              		.loc 1 632 28 is_stmt 0 view .LVU280
 847 00e8 3B5D     		ldrb	r3, [r7, r4]	@ zero_extendqisi2
 632:lvgl/src/draw/lv_draw_blend.c ****                     disp->driver->set_px_cb(disp->driver, (void *)disp_buf, disp_w, x, y, map_buf_t
 848              		.loc 1 632 19 view .LVU281
 849 00ea 002B     		cmp	r3, #0
 850 00ec F7D0     		beq	.L47
 633:lvgl/src/draw/lv_draw_blend.c ****                                            (uint32_t)((uint32_t)opa * mask_tmp[x]) >> 8);
 851              		.loc 1 633 21 is_stmt 1 view .LVU282
 633:lvgl/src/draw/lv_draw_blend.c ****                                            (uint32_t)((uint32_t)opa * mask_tmp[x]) >> 8);
 852              		.loc 1 633 25 is_stmt 0 view .LVU283
 853 00ee D9F80000 		ldr	r0, [r9]
 633:lvgl/src/draw/lv_draw_blend.c ****                                            (uint32_t)((uint32_t)opa * mask_tmp[x]) >> 8);
 854              		.loc 1 633 33 view .LVU284
 855 00f2 4669     		ldr	r6, [r0, #20]
 634:lvgl/src/draw/lv_draw_blend.c ****                 }
 856              		.loc 1 634 44 view .LVU285
 857 00f4 03FB0AF3 		mul	r3, r3, r10
 633:lvgl/src/draw/lv_draw_blend.c ****                                            (uint32_t)((uint32_t)opa * mask_tmp[x]) >> 8);
 858              		.loc 1 633 21 view .LVU286
 859 00f8 1B0A     		lsrs	r3, r3, #8
 860 00fa 0293     		str	r3, [sp, #8]
 861 00fc 3BF81430 		ldrh	r3, [fp, r4, lsl #1]
 862 0100 ADF80430 		strh	r3, [sp, #4]	@ movhi
 863 0104 0FFA88F3 		sxth	r3, r8
 864 0108 0093     		str	r3, [sp]
 865 010a 23B2     		sxth	r3, r4
 866 010c 079A     		ldr	r2, [sp, #28]
 867 010e 0699     		ldr	r1, [sp, #24]
 868 0110 B047     		blx	r6
 869              	.LVL83:
 870 0112 E4E7     		b	.L47
 871              	.L53:
 637:lvgl/src/draw/lv_draw_blend.c ****             map_buf_tmp += map_w;
 872              		.loc 1 637 13 is_stmt 1 discriminator 2 view .LVU287
 637:lvgl/src/draw/lv_draw_blend.c ****             map_buf_tmp += map_w;
 873              		.loc 1 637 22 is_stmt 0 discriminator 2 view .LVU288
 874 0114 099B     		ldr	r3, [sp, #36]
 875 0116 1F44     		add	r7, r7, r3
 876              	.LVL84:
 638:lvgl/src/draw/lv_draw_blend.c ****         }
 877              		.loc 1 638 13 is_stmt 1 discriminator 2 view .LVU289
 638:lvgl/src/draw/lv_draw_blend.c ****         }
 878              		.loc 1 638 25 is_stmt 0 discriminator 2 view .LVU290
 879 0118 089B     		ldr	r3, [sp, #32]
 880 011a 0BEB430B 		add	fp, fp, r3, lsl #1
 881              	.LVL85:
 630:lvgl/src/draw/lv_draw_blend.c ****             for(x = draw_area->x1; x <= draw_area->x2; x++) {
 882              		.loc 1 630 52 is_stmt 1 discriminator 2 view .LVU291
 630:lvgl/src/draw/lv_draw_blend.c ****             for(x = draw_area->x1; x <= draw_area->x2; x++) {
 883              		.loc 1 630 53 is_stmt 0 discriminator 2 view .LVU292
 884 011e 08F10108 		add	r8, r8, #1
ARM GAS  C:\Users\BLACK_~1\AppData\Local\Temp\ccXqf4MH.s 			page 39


 885              	.LVL86:
 886              	.L45:
 630:lvgl/src/draw/lv_draw_blend.c ****             for(x = draw_area->x1; x <= draw_area->x2; x++) {
 887              		.loc 1 630 32 is_stmt 1 discriminator 1 view .LVU293
 630:lvgl/src/draw/lv_draw_blend.c ****             for(x = draw_area->x1; x <= draw_area->x2; x++) {
 888              		.loc 1 630 46 is_stmt 0 discriminator 1 view .LVU294
 889 0122 B5F90630 		ldrsh	r3, [r5, #6]
 630:lvgl/src/draw/lv_draw_blend.c ****             for(x = draw_area->x1; x <= draw_area->x2; x++) {
 890              		.loc 1 630 9 discriminator 1 view .LVU295
 891 0126 4345     		cmp	r3, r8
 892 0128 02DB     		blt	.L38
 631:lvgl/src/draw/lv_draw_blend.c ****                 if(mask_tmp[x]) {
 893              		.loc 1 631 13 is_stmt 1 view .LVU296
 631:lvgl/src/draw/lv_draw_blend.c ****                 if(mask_tmp[x]) {
 894              		.loc 1 631 30 is_stmt 0 view .LVU297
 895 012a B5F90040 		ldrsh	r4, [r5]
 896              	.LVL87:
 631:lvgl/src/draw/lv_draw_blend.c ****                 if(mask_tmp[x]) {
 897              		.loc 1 631 13 view .LVU298
 898 012e D7E7     		b	.L46
 899              	.LVL88:
 900              	.L38:
 631:lvgl/src/draw/lv_draw_blend.c ****                 if(mask_tmp[x]) {
 901              		.loc 1 631 13 view .LVU299
 902              	.LBE92:
 641:lvgl/src/draw/lv_draw_blend.c **** 
 903              		.loc 1 641 1 view .LVU300
 904 0130 0BB0     		add	sp, sp, #44
 905              	.LCFI8:
 906              		.cfi_def_cfa_offset 36
 907              		@ sp needed
 908 0132 BDE8F08F 		pop	{r4, r5, r6, r7, r8, r9, r10, fp, pc}
 641:lvgl/src/draw/lv_draw_blend.c **** 
 909              		.loc 1 641 1 view .LVU301
 910              		.cfi_endproc
 911              	.LFE152:
 913              		.section	.text.color_blend_true_color_additive,"ax",%progbits
 914              		.align	1
 915              		.syntax unified
 916              		.thumb
 917              		.thumb_func
 919              	color_blend_true_color_additive:
 920              	.LVL89:
 921              	.LFB155:
 962:lvgl/src/draw/lv_draw_blend.c **** 
 963:lvgl/src/draw/lv_draw_blend.c **** static inline lv_color_t color_blend_true_color_additive(lv_color_t fg, lv_color_t bg, lv_opa_t opa
 964:lvgl/src/draw/lv_draw_blend.c **** {
 922              		.loc 1 964 1 is_stmt 1 view -0
 923              		.cfi_startproc
 924              		@ args = 0, pretend = 0, frame = 0
 925              		@ frame_needed = 0, uses_anonymous_args = 0
 965:lvgl/src/draw/lv_draw_blend.c **** 
 966:lvgl/src/draw/lv_draw_blend.c ****     if(opa <= LV_OPA_MIN) return bg;
 926              		.loc 1 966 5 view .LVU303
 927              		.loc 1 966 7 is_stmt 0 view .LVU304
 928 0000 022A     		cmp	r2, #2
 929 0002 5BD9     		bls	.L62
ARM GAS  C:\Users\BLACK_~1\AppData\Local\Temp\ccXqf4MH.s 			page 40


 967:lvgl/src/draw/lv_draw_blend.c **** 
 968:lvgl/src/draw/lv_draw_blend.c ****     uint32_t tmp;
 930              		.loc 1 968 5 is_stmt 1 view .LVU305
 969:lvgl/src/draw/lv_draw_blend.c **** #if LV_COLOR_DEPTH == 1
 970:lvgl/src/draw/lv_draw_blend.c ****     tmp = bg.full + fg.full;
 971:lvgl/src/draw/lv_draw_blend.c ****     fg.full = LV_MIN(tmp, 1);
 972:lvgl/src/draw/lv_draw_blend.c **** #else
 973:lvgl/src/draw/lv_draw_blend.c ****     tmp = bg.ch.red + fg.ch.red;
 931              		.loc 1 973 5 view .LVU306
 932              		.loc 1 973 16 is_stmt 0 view .LVU307
 933 0004 C1F3C423 		ubfx	r3, r1, #11, #5
 934              		.loc 1 973 28 view .LVU308
 935 0008 C0F3C42C 		ubfx	ip, r0, #11, #5
 936              		.loc 1 973 21 view .LVU309
 937 000c 6344     		add	r3, r3, ip
 938              	.LVL90:
 974:lvgl/src/draw/lv_draw_blend.c **** #if LV_COLOR_DEPTH == 8
 975:lvgl/src/draw/lv_draw_blend.c ****     fg.ch.red = LV_MIN(tmp, 7);
 976:lvgl/src/draw/lv_draw_blend.c **** #elif LV_COLOR_DEPTH == 16
 977:lvgl/src/draw/lv_draw_blend.c ****     fg.ch.red = LV_MIN(tmp, 31);
 939              		.loc 1 977 5 is_stmt 1 view .LVU310
 940              		.loc 1 977 17 is_stmt 0 view .LVU311
 941 000e 1F2B     		cmp	r3, #31
 942 0010 28BF     		it	cs
 943 0012 1F23     		movcs	r3, #31
 944              	.LVL91:
 945              		.loc 1 977 15 view .LVU312
 946 0014 63F3CF20 		bfi	r0, r3, #11, #5
 978:lvgl/src/draw/lv_draw_blend.c **** #elif LV_COLOR_DEPTH == 32
 979:lvgl/src/draw/lv_draw_blend.c ****     fg.ch.red = LV_MIN(tmp, 255);
 980:lvgl/src/draw/lv_draw_blend.c **** #endif
 981:lvgl/src/draw/lv_draw_blend.c **** 
 982:lvgl/src/draw/lv_draw_blend.c **** #if LV_COLOR_DEPTH == 8
 983:lvgl/src/draw/lv_draw_blend.c ****     tmp = bg.ch.green + fg.ch.green;
 984:lvgl/src/draw/lv_draw_blend.c ****     fg.ch.green = LV_MIN(tmp, 7);
 985:lvgl/src/draw/lv_draw_blend.c **** #elif LV_COLOR_DEPTH == 16
 986:lvgl/src/draw/lv_draw_blend.c **** #if LV_COLOR_16_SWAP == 0
 987:lvgl/src/draw/lv_draw_blend.c ****     tmp = bg.ch.green + fg.ch.green;
 947              		.loc 1 987 5 is_stmt 1 view .LVU313
 948              		.loc 1 987 16 is_stmt 0 view .LVU314
 949 0018 C1F34513 		ubfx	r3, r1, #5, #6
 950              		.loc 1 987 30 view .LVU315
 951 001c C0F3451C 		ubfx	ip, r0, #5, #6
 952              	.LVL92:
 953              		.loc 1 987 23 view .LVU316
 954 0020 6344     		add	r3, r3, ip
 955              	.LVL93:
 988:lvgl/src/draw/lv_draw_blend.c ****     fg.ch.green = LV_MIN(tmp, 63);
 956              		.loc 1 988 5 is_stmt 1 view .LVU317
 957              		.loc 1 988 19 is_stmt 0 view .LVU318
 958 0022 3F2B     		cmp	r3, #63
 959 0024 28BF     		it	cs
 960 0026 3F23     		movcs	r3, #63
 961              	.LVL94:
 962              		.loc 1 988 17 view .LVU319
 963 0028 63F34A10 		bfi	r0, r3, #5, #6
 989:lvgl/src/draw/lv_draw_blend.c **** #else
ARM GAS  C:\Users\BLACK_~1\AppData\Local\Temp\ccXqf4MH.s 			page 41


 990:lvgl/src/draw/lv_draw_blend.c ****     tmp = (bg.ch.green_h << 3) + bg.ch.green_l + (fg.ch.green_h << 3) + fg.ch.green_l;
 991:lvgl/src/draw/lv_draw_blend.c ****     tmp = LV_MIN(tmp, 63);
 992:lvgl/src/draw/lv_draw_blend.c ****     fg.ch.green_h = tmp >> 3;
 993:lvgl/src/draw/lv_draw_blend.c ****     fg.ch.green_l = tmp & 0x7;
 994:lvgl/src/draw/lv_draw_blend.c **** #endif
 995:lvgl/src/draw/lv_draw_blend.c **** 
 996:lvgl/src/draw/lv_draw_blend.c **** #elif LV_COLOR_DEPTH == 32
 997:lvgl/src/draw/lv_draw_blend.c ****     tmp = bg.ch.green + fg.ch.green;
 998:lvgl/src/draw/lv_draw_blend.c ****     fg.ch.green = LV_MIN(tmp, 255);
 999:lvgl/src/draw/lv_draw_blend.c **** #endif
1000:lvgl/src/draw/lv_draw_blend.c **** 
1001:lvgl/src/draw/lv_draw_blend.c ****     tmp = bg.ch.blue + fg.ch.blue;
 964              		.loc 1 1001 5 is_stmt 1 view .LVU320
 965              		.loc 1 1001 16 is_stmt 0 view .LVU321
 966 002c 01F01F03 		and	r3, r1, #31
 967              		.loc 1 1001 29 view .LVU322
 968 0030 00F01F0C 		and	ip, r0, #31
 969              	.LVL95:
 970              		.loc 1 1001 22 view .LVU323
 971 0034 6344     		add	r3, r3, ip
 972              	.LVL96:
1002:lvgl/src/draw/lv_draw_blend.c **** #if LV_COLOR_DEPTH == 8
1003:lvgl/src/draw/lv_draw_blend.c ****     fg.ch.blue = LV_MIN(tmp, 4);
1004:lvgl/src/draw/lv_draw_blend.c **** #elif LV_COLOR_DEPTH == 16
1005:lvgl/src/draw/lv_draw_blend.c ****     fg.ch.blue = LV_MIN(tmp, 31);
 973              		.loc 1 1005 5 is_stmt 1 view .LVU324
 974              		.loc 1 1005 18 is_stmt 0 view .LVU325
 975 0036 1F2B     		cmp	r3, #31
 976 0038 28BF     		it	cs
 977 003a 1F23     		movcs	r3, #31
 978              	.LVL97:
 979              		.loc 1 1005 16 view .LVU326
 980 003c 63F30400 		bfi	r0, r3, #0, #5
1006:lvgl/src/draw/lv_draw_blend.c **** #elif LV_COLOR_DEPTH == 32
1007:lvgl/src/draw/lv_draw_blend.c ****     fg.ch.blue = LV_MIN(tmp, 255);
1008:lvgl/src/draw/lv_draw_blend.c **** #endif
1009:lvgl/src/draw/lv_draw_blend.c **** #endif
1010:lvgl/src/draw/lv_draw_blend.c **** 
1011:lvgl/src/draw/lv_draw_blend.c ****     if(opa == LV_OPA_COVER) return fg;
 981              		.loc 1 1011 5 is_stmt 1 view .LVU327
 982              		.loc 1 1011 7 is_stmt 0 view .LVU328
 983 0040 FF2A     		cmp	r2, #255
 984 0042 3DD0     		beq	.L59
 964:lvgl/src/draw/lv_draw_blend.c **** 
 985              		.loc 1 964 1 view .LVU329
 986 0044 10B5     		push	{r4, lr}
 987              	.LCFI9:
 988              		.cfi_def_cfa_offset 8
 989              		.cfi_offset 4, -8
 990              		.cfi_offset 14, -4
1012:lvgl/src/draw/lv_draw_blend.c **** 
1013:lvgl/src/draw/lv_draw_blend.c ****     return lv_color_mix(fg, bg, opa);
 991              		.loc 1 1013 5 is_stmt 1 view .LVU330
 992              	.LVL98:
 993              	.LBB95:
 994              	.LBI95:
 995              		.file 3 "lvgl/src/draw/../misc/lv_color.h"
ARM GAS  C:\Users\BLACK_~1\AppData\Local\Temp\ccXqf4MH.s 			page 42


   1:lvgl/src/draw/../misc/lv_color.h **** /**
   2:lvgl/src/draw/../misc/lv_color.h ****  * @file lv_color.h
   3:lvgl/src/draw/../misc/lv_color.h ****  *
   4:lvgl/src/draw/../misc/lv_color.h ****  */
   5:lvgl/src/draw/../misc/lv_color.h **** 
   6:lvgl/src/draw/../misc/lv_color.h **** #ifndef LV_COLOR_H
   7:lvgl/src/draw/../misc/lv_color.h **** #define LV_COLOR_H
   8:lvgl/src/draw/../misc/lv_color.h **** 
   9:lvgl/src/draw/../misc/lv_color.h **** #ifdef __cplusplus
  10:lvgl/src/draw/../misc/lv_color.h **** extern "C" {
  11:lvgl/src/draw/../misc/lv_color.h **** #endif
  12:lvgl/src/draw/../misc/lv_color.h **** 
  13:lvgl/src/draw/../misc/lv_color.h **** /*********************
  14:lvgl/src/draw/../misc/lv_color.h ****  *      INCLUDES
  15:lvgl/src/draw/../misc/lv_color.h ****  *********************/
  16:lvgl/src/draw/../misc/lv_color.h **** #include "../lv_conf_internal.h"
  17:lvgl/src/draw/../misc/lv_color.h **** #include "lv_math.h"
  18:lvgl/src/draw/../misc/lv_color.h **** #include "lv_types.h"
  19:lvgl/src/draw/../misc/lv_color.h **** 
  20:lvgl/src/draw/../misc/lv_color.h **** /*Error checking*/
  21:lvgl/src/draw/../misc/lv_color.h **** #if LV_COLOR_DEPTH == 24
  22:lvgl/src/draw/../misc/lv_color.h **** #error "LV_COLOR_DEPTH 24 is deprecated. Use LV_COLOR_DEPTH 32 instead (lv_conf.h)"
  23:lvgl/src/draw/../misc/lv_color.h **** #endif
  24:lvgl/src/draw/../misc/lv_color.h **** 
  25:lvgl/src/draw/../misc/lv_color.h **** #if LV_COLOR_DEPTH != 32 && LV_COLOR_SCREEN_TRANSP != 0
  26:lvgl/src/draw/../misc/lv_color.h **** #error "LV_COLOR_SCREEN_TRANSP requires LV_COLOR_DEPTH == 32. Set it in lv_conf.h"
  27:lvgl/src/draw/../misc/lv_color.h **** #endif
  28:lvgl/src/draw/../misc/lv_color.h **** 
  29:lvgl/src/draw/../misc/lv_color.h **** #if LV_COLOR_DEPTH != 16 && LV_COLOR_16_SWAP != 0
  30:lvgl/src/draw/../misc/lv_color.h **** #error "LV_COLOR_16_SWAP requires LV_COLOR_DEPTH == 16. Set it in lv_conf.h"
  31:lvgl/src/draw/../misc/lv_color.h **** #endif
  32:lvgl/src/draw/../misc/lv_color.h **** 
  33:lvgl/src/draw/../misc/lv_color.h **** #include <stdint.h>
  34:lvgl/src/draw/../misc/lv_color.h **** 
  35:lvgl/src/draw/../misc/lv_color.h **** /*********************
  36:lvgl/src/draw/../misc/lv_color.h ****  *      DEFINES
  37:lvgl/src/draw/../misc/lv_color.h ****  *********************/
  38:lvgl/src/draw/../misc/lv_color.h **** 
  39:lvgl/src/draw/../misc/lv_color.h **** /**
  40:lvgl/src/draw/../misc/lv_color.h ****  * Opacity percentages.
  41:lvgl/src/draw/../misc/lv_color.h ****  */
  42:lvgl/src/draw/../misc/lv_color.h **** enum {
  43:lvgl/src/draw/../misc/lv_color.h ****     LV_OPA_TRANSP = 0,
  44:lvgl/src/draw/../misc/lv_color.h ****     LV_OPA_0      = 0,
  45:lvgl/src/draw/../misc/lv_color.h ****     LV_OPA_10     = 25,
  46:lvgl/src/draw/../misc/lv_color.h ****     LV_OPA_20     = 51,
  47:lvgl/src/draw/../misc/lv_color.h ****     LV_OPA_30     = 76,
  48:lvgl/src/draw/../misc/lv_color.h ****     LV_OPA_40     = 102,
  49:lvgl/src/draw/../misc/lv_color.h ****     LV_OPA_50     = 127,
  50:lvgl/src/draw/../misc/lv_color.h ****     LV_OPA_60     = 153,
  51:lvgl/src/draw/../misc/lv_color.h ****     LV_OPA_70     = 178,
  52:lvgl/src/draw/../misc/lv_color.h ****     LV_OPA_80     = 204,
  53:lvgl/src/draw/../misc/lv_color.h ****     LV_OPA_90     = 229,
  54:lvgl/src/draw/../misc/lv_color.h ****     LV_OPA_100    = 255,
  55:lvgl/src/draw/../misc/lv_color.h ****     LV_OPA_COVER  = 255,
  56:lvgl/src/draw/../misc/lv_color.h **** };
  57:lvgl/src/draw/../misc/lv_color.h **** 
ARM GAS  C:\Users\BLACK_~1\AppData\Local\Temp\ccXqf4MH.s 			page 43


  58:lvgl/src/draw/../misc/lv_color.h **** #define LV_OPA_MIN 2    /*Opacities below this will be transparent*/
  59:lvgl/src/draw/../misc/lv_color.h **** #define LV_OPA_MAX 253  /*Opacities above this will fully cover*/
  60:lvgl/src/draw/../misc/lv_color.h **** 
  61:lvgl/src/draw/../misc/lv_color.h **** #if LV_COLOR_DEPTH == 1
  62:lvgl/src/draw/../misc/lv_color.h **** #define LV_COLOR_SIZE 8
  63:lvgl/src/draw/../misc/lv_color.h **** #elif LV_COLOR_DEPTH == 8
  64:lvgl/src/draw/../misc/lv_color.h **** #define LV_COLOR_SIZE 8
  65:lvgl/src/draw/../misc/lv_color.h **** #elif LV_COLOR_DEPTH == 16
  66:lvgl/src/draw/../misc/lv_color.h **** #define LV_COLOR_SIZE 16
  67:lvgl/src/draw/../misc/lv_color.h **** #elif LV_COLOR_DEPTH == 32
  68:lvgl/src/draw/../misc/lv_color.h **** #define LV_COLOR_SIZE 32
  69:lvgl/src/draw/../misc/lv_color.h **** #else
  70:lvgl/src/draw/../misc/lv_color.h **** #error "Invalid LV_COLOR_DEPTH in lv_conf.h! Set it to 1, 8, 16 or 32!"
  71:lvgl/src/draw/../misc/lv_color.h **** #endif
  72:lvgl/src/draw/../misc/lv_color.h **** 
  73:lvgl/src/draw/../misc/lv_color.h **** /**
  74:lvgl/src/draw/../misc/lv_color.h ****  * Adjust color mix functions rounding.
  75:lvgl/src/draw/../misc/lv_color.h ****  * GPUs might calculate color mix (blending) differently.
  76:lvgl/src/draw/../misc/lv_color.h ****  * Should be in range of 0..254
  77:lvgl/src/draw/../misc/lv_color.h ****  * 0: no adjustment, get the integer part of the result (round down)
  78:lvgl/src/draw/../misc/lv_color.h ****  * 64: round up from x.75
  79:lvgl/src/draw/../misc/lv_color.h ****  * 128: round up from half
  80:lvgl/src/draw/../misc/lv_color.h ****  * 192: round up from x.25
  81:lvgl/src/draw/../misc/lv_color.h ****  * 254: round up*/
  82:lvgl/src/draw/../misc/lv_color.h **** #ifndef LV_COLOR_MIX_ROUND_OFS
  83:lvgl/src/draw/../misc/lv_color.h **** #if LV_COLOR_DEPTH == 32
  84:lvgl/src/draw/../misc/lv_color.h **** #define LV_COLOR_MIX_ROUND_OFS 0
  85:lvgl/src/draw/../misc/lv_color.h **** #else
  86:lvgl/src/draw/../misc/lv_color.h **** #define LV_COLOR_MIX_ROUND_OFS 128
  87:lvgl/src/draw/../misc/lv_color.h **** #endif
  88:lvgl/src/draw/../misc/lv_color.h **** #endif
  89:lvgl/src/draw/../misc/lv_color.h **** 
  90:lvgl/src/draw/../misc/lv_color.h **** #if defined(__cplusplus) && !defined(_LV_COLOR_HAS_MODERN_CPP)
  91:lvgl/src/draw/../misc/lv_color.h **** /**
  92:lvgl/src/draw/../misc/lv_color.h **** * MSVC compiler's definition of the __cplusplus indicating 199711L regardless to C++ standard versi
  93:lvgl/src/draw/../misc/lv_color.h **** * see https://devblogs.microsoft.com/cppblog/msvc-now-correctly-reports-cplusplus
  94:lvgl/src/draw/../misc/lv_color.h **** * so we use _MSC_VER macro instead of __cplusplus
  95:lvgl/src/draw/../misc/lv_color.h **** */
  96:lvgl/src/draw/../misc/lv_color.h **** #ifdef _MSC_VER
  97:lvgl/src/draw/../misc/lv_color.h **** #if _MSC_VER >= 1900 /*Visual Studio 2015*/
  98:lvgl/src/draw/../misc/lv_color.h **** #define _LV_COLOR_HAS_MODERN_CPP 1
  99:lvgl/src/draw/../misc/lv_color.h **** #endif
 100:lvgl/src/draw/../misc/lv_color.h **** #else
 101:lvgl/src/draw/../misc/lv_color.h **** #if __cplusplus >= 201103L
 102:lvgl/src/draw/../misc/lv_color.h **** #define _LV_COLOR_HAS_MODERN_CPP 1
 103:lvgl/src/draw/../misc/lv_color.h **** #endif
 104:lvgl/src/draw/../misc/lv_color.h **** #endif
 105:lvgl/src/draw/../misc/lv_color.h **** #endif /*__cplusplus*/
 106:lvgl/src/draw/../misc/lv_color.h **** 
 107:lvgl/src/draw/../misc/lv_color.h **** #ifndef _LV_COLOR_HAS_MODERN_CPP
 108:lvgl/src/draw/../misc/lv_color.h **** #define _LV_COLOR_HAS_MODERN_CPP 0
 109:lvgl/src/draw/../misc/lv_color.h **** #endif
 110:lvgl/src/draw/../misc/lv_color.h **** 
 111:lvgl/src/draw/../misc/lv_color.h **** #if _LV_COLOR_HAS_MODERN_CPP
 112:lvgl/src/draw/../misc/lv_color.h **** /*Fix msvc compiler error C4576 inside C++ code*/
 113:lvgl/src/draw/../misc/lv_color.h **** #define _LV_COLOR_MAKE_TYPE_HELPER lv_color_t
 114:lvgl/src/draw/../misc/lv_color.h **** #else
ARM GAS  C:\Users\BLACK_~1\AppData\Local\Temp\ccXqf4MH.s 			page 44


 115:lvgl/src/draw/../misc/lv_color.h **** #define _LV_COLOR_MAKE_TYPE_HELPER (lv_color_t)
 116:lvgl/src/draw/../misc/lv_color.h **** #endif
 117:lvgl/src/draw/../misc/lv_color.h **** 
 118:lvgl/src/draw/../misc/lv_color.h **** /*---------------------------------------
 119:lvgl/src/draw/../misc/lv_color.h ****  * Macros for all existing color depths
 120:lvgl/src/draw/../misc/lv_color.h ****  * to set/get values of the color channels
 121:lvgl/src/draw/../misc/lv_color.h ****  *------------------------------------------*/
 122:lvgl/src/draw/../misc/lv_color.h **** # define LV_COLOR_SET_R1(c, v) (c).ch.red = (uint8_t)((v) & 0x1)
 123:lvgl/src/draw/../misc/lv_color.h **** # define LV_COLOR_SET_G1(c, v) (c).ch.green = (uint8_t)((v) & 0x1)
 124:lvgl/src/draw/../misc/lv_color.h **** # define LV_COLOR_SET_B1(c, v) (c).ch.blue = (uint8_t)((v) & 0x1)
 125:lvgl/src/draw/../misc/lv_color.h **** # define LV_COLOR_SET_A1(c, v) do {} while(0)
 126:lvgl/src/draw/../misc/lv_color.h **** 
 127:lvgl/src/draw/../misc/lv_color.h **** # define LV_COLOR_GET_R1(c) (c).ch.red
 128:lvgl/src/draw/../misc/lv_color.h **** # define LV_COLOR_GET_G1(c) (c).ch.green
 129:lvgl/src/draw/../misc/lv_color.h **** # define LV_COLOR_GET_B1(c) (c).ch.blue
 130:lvgl/src/draw/../misc/lv_color.h **** # define LV_COLOR_GET_A1(c) 0xFF
 131:lvgl/src/draw/../misc/lv_color.h **** 
 132:lvgl/src/draw/../misc/lv_color.h **** # define _LV_COLOR_ZERO_INITIALIZER1 {0x00}
 133:lvgl/src/draw/../misc/lv_color.h **** # define LV_COLOR_MAKE1(r8, g8, b8)  {(uint8_t)((b8 >> 7) | (g8 >> 7) | (r8 >> 7))}
 134:lvgl/src/draw/../misc/lv_color.h **** 
 135:lvgl/src/draw/../misc/lv_color.h **** # define LV_COLOR_SET_R8(c, v) (c).ch.red = (uint8_t)((v) & 0x7U)
 136:lvgl/src/draw/../misc/lv_color.h **** # define LV_COLOR_SET_G8(c, v) (c).ch.green = (uint8_t)((v) & 0x7U)
 137:lvgl/src/draw/../misc/lv_color.h **** # define LV_COLOR_SET_B8(c, v) (c).ch.blue = (uint8_t)((v) & 0x3U)
 138:lvgl/src/draw/../misc/lv_color.h **** # define LV_COLOR_SET_A8(c, v) do {} while(0)
 139:lvgl/src/draw/../misc/lv_color.h **** 
 140:lvgl/src/draw/../misc/lv_color.h **** # define LV_COLOR_GET_R8(c) (c).ch.red
 141:lvgl/src/draw/../misc/lv_color.h **** # define LV_COLOR_GET_G8(c) (c).ch.green
 142:lvgl/src/draw/../misc/lv_color.h **** # define LV_COLOR_GET_B8(c) (c).ch.blue
 143:lvgl/src/draw/../misc/lv_color.h **** # define LV_COLOR_GET_A8(c) 0xFF
 144:lvgl/src/draw/../misc/lv_color.h **** 
 145:lvgl/src/draw/../misc/lv_color.h **** # define _LV_COLOR_ZERO_INITIALIZER8 {{0x00, 0x00, 0x00}}
 146:lvgl/src/draw/../misc/lv_color.h **** # define LV_COLOR_MAKE8(r8, g8, b8) {{(uint8_t)((b8 >> 6) & 0x3U), (uint8_t)((g8 >> 5) & 0x7U), (ui
 147:lvgl/src/draw/../misc/lv_color.h **** 
 148:lvgl/src/draw/../misc/lv_color.h **** # define LV_COLOR_SET_R16(c, v) (c).ch.red = (uint8_t)((v) & 0x1FU)
 149:lvgl/src/draw/../misc/lv_color.h **** #if LV_COLOR_16_SWAP == 0
 150:lvgl/src/draw/../misc/lv_color.h **** # define LV_COLOR_SET_G16(c, v) (c).ch.green = (uint8_t)((v) & 0x3FU)
 151:lvgl/src/draw/../misc/lv_color.h **** #else
 152:lvgl/src/draw/../misc/lv_color.h **** # define LV_COLOR_SET_G16(c, v) {(c).ch.green_h = (uint8_t)(((v) >> 3) & 0x7); (c).ch.green_l = (ui
 153:lvgl/src/draw/../misc/lv_color.h **** #endif
 154:lvgl/src/draw/../misc/lv_color.h **** # define LV_COLOR_SET_B16(c, v) (c).ch.blue = (uint8_t)((v) & 0x1FU)
 155:lvgl/src/draw/../misc/lv_color.h **** # define LV_COLOR_SET_A16(c, v) do {} while(0)
 156:lvgl/src/draw/../misc/lv_color.h **** 
 157:lvgl/src/draw/../misc/lv_color.h **** # define LV_COLOR_GET_R16(c) (c).ch.red
 158:lvgl/src/draw/../misc/lv_color.h **** #if LV_COLOR_16_SWAP == 0
 159:lvgl/src/draw/../misc/lv_color.h **** # define LV_COLOR_GET_G16(c) (c).ch.green
 160:lvgl/src/draw/../misc/lv_color.h **** #else
 161:lvgl/src/draw/../misc/lv_color.h **** # define LV_COLOR_GET_G16(c) (((c).ch.green_h << 3) + (c).ch.green_l)
 162:lvgl/src/draw/../misc/lv_color.h **** #endif
 163:lvgl/src/draw/../misc/lv_color.h **** # define LV_COLOR_GET_B16(c) (c).ch.blue
 164:lvgl/src/draw/../misc/lv_color.h **** # define LV_COLOR_GET_A16(c) 0xFF
 165:lvgl/src/draw/../misc/lv_color.h **** 
 166:lvgl/src/draw/../misc/lv_color.h **** #if LV_COLOR_16_SWAP == 0
 167:lvgl/src/draw/../misc/lv_color.h **** # define _LV_COLOR_ZERO_INITIALIZER16  {{0x00, 0x00, 0x00}}
 168:lvgl/src/draw/../misc/lv_color.h **** # define LV_COLOR_MAKE16(r8, g8, b8) {{(uint8_t)((b8 >> 3) & 0x1FU), (uint8_t)((g8 >> 2) & 0x3FU), 
 169:lvgl/src/draw/../misc/lv_color.h **** #else
 170:lvgl/src/draw/../misc/lv_color.h **** # define _LV_COLOR_ZERO_INITIALIZER16 {{0x00, 0x00, 0x00, 0x00}}
 171:lvgl/src/draw/../misc/lv_color.h **** # define LV_COLOR_MAKE16(r8, g8, b8) {{(uint8_t)((g8 >> 5) & 0x7U), (uint8_t)((r8 >> 3) & 0x1FU), (
ARM GAS  C:\Users\BLACK_~1\AppData\Local\Temp\ccXqf4MH.s 			page 45


 172:lvgl/src/draw/../misc/lv_color.h **** #endif
 173:lvgl/src/draw/../misc/lv_color.h **** 
 174:lvgl/src/draw/../misc/lv_color.h **** # define LV_COLOR_SET_R32(c, v) (c).ch.red = (uint8_t)((v) & 0xFF)
 175:lvgl/src/draw/../misc/lv_color.h **** # define LV_COLOR_SET_G32(c, v) (c).ch.green = (uint8_t)((v) & 0xFF)
 176:lvgl/src/draw/../misc/lv_color.h **** # define LV_COLOR_SET_B32(c, v) (c).ch.blue = (uint8_t)((v) & 0xFF)
 177:lvgl/src/draw/../misc/lv_color.h **** # define LV_COLOR_SET_A32(c, v) (c).ch.alpha = (uint8_t)((v) & 0xFF)
 178:lvgl/src/draw/../misc/lv_color.h **** 
 179:lvgl/src/draw/../misc/lv_color.h **** # define LV_COLOR_GET_R32(c) (c).ch.red
 180:lvgl/src/draw/../misc/lv_color.h **** # define LV_COLOR_GET_G32(c) (c).ch.green
 181:lvgl/src/draw/../misc/lv_color.h **** # define LV_COLOR_GET_B32(c) (c).ch.blue
 182:lvgl/src/draw/../misc/lv_color.h **** # define LV_COLOR_GET_A32(c) (c).ch.alpha
 183:lvgl/src/draw/../misc/lv_color.h **** 
 184:lvgl/src/draw/../misc/lv_color.h **** # define _LV_COLOR_ZERO_INITIALIZER32  {{0x00, 0x00, 0x00, 0x00}}
 185:lvgl/src/draw/../misc/lv_color.h **** # define LV_COLOR_MAKE32(r8, g8, b8) {{b8, g8, r8, 0xff}} /*Fix 0xff alpha*/
 186:lvgl/src/draw/../misc/lv_color.h **** 
 187:lvgl/src/draw/../misc/lv_color.h **** /*---------------------------------------
 188:lvgl/src/draw/../misc/lv_color.h ****  * Macros for the current color depth
 189:lvgl/src/draw/../misc/lv_color.h ****  * to set/get values of the color channels
 190:lvgl/src/draw/../misc/lv_color.h ****  *------------------------------------------*/
 191:lvgl/src/draw/../misc/lv_color.h **** #define LV_COLOR_SET_R(c, v) LV_CONCAT(LV_COLOR_SET_R, LV_COLOR_DEPTH)(c, v)
 192:lvgl/src/draw/../misc/lv_color.h **** #define LV_COLOR_SET_G(c, v) LV_CONCAT(LV_COLOR_SET_G, LV_COLOR_DEPTH)(c, v)
 193:lvgl/src/draw/../misc/lv_color.h **** #define LV_COLOR_SET_B(c, v) LV_CONCAT(LV_COLOR_SET_B, LV_COLOR_DEPTH)(c, v)
 194:lvgl/src/draw/../misc/lv_color.h **** #define LV_COLOR_SET_A(c, v) LV_CONCAT(LV_COLOR_SET_A, LV_COLOR_DEPTH)(c, v)
 195:lvgl/src/draw/../misc/lv_color.h **** 
 196:lvgl/src/draw/../misc/lv_color.h **** #define LV_COLOR_GET_R(c) LV_CONCAT(LV_COLOR_GET_R, LV_COLOR_DEPTH)(c)
 197:lvgl/src/draw/../misc/lv_color.h **** #define LV_COLOR_GET_G(c) LV_CONCAT(LV_COLOR_GET_G, LV_COLOR_DEPTH)(c)
 198:lvgl/src/draw/../misc/lv_color.h **** #define LV_COLOR_GET_B(c) LV_CONCAT(LV_COLOR_GET_B, LV_COLOR_DEPTH)(c)
 199:lvgl/src/draw/../misc/lv_color.h **** #define LV_COLOR_GET_A(c) LV_CONCAT(LV_COLOR_GET_A, LV_COLOR_DEPTH)(c)
 200:lvgl/src/draw/../misc/lv_color.h **** 
 201:lvgl/src/draw/../misc/lv_color.h **** #define _LV_COLOR_ZERO_INITIALIZER LV_CONCAT(_LV_COLOR_ZERO_INITIALIZER, LV_COLOR_DEPTH)
 202:lvgl/src/draw/../misc/lv_color.h **** #define LV_COLOR_MAKE(r8, g8, b8) LV_CONCAT(LV_COLOR_MAKE, LV_COLOR_DEPTH)(r8, g8, b8)
 203:lvgl/src/draw/../misc/lv_color.h **** 
 204:lvgl/src/draw/../misc/lv_color.h **** #define LV_UDIV255(x) ((uint32_t)((uint32_t) (x) * 0x8081) >> 0x17)
 205:lvgl/src/draw/../misc/lv_color.h **** 
 206:lvgl/src/draw/../misc/lv_color.h **** /**********************
 207:lvgl/src/draw/../misc/lv_color.h ****  *      TYPEDEFS
 208:lvgl/src/draw/../misc/lv_color.h ****  **********************/
 209:lvgl/src/draw/../misc/lv_color.h **** 
 210:lvgl/src/draw/../misc/lv_color.h **** typedef union {
 211:lvgl/src/draw/../misc/lv_color.h ****     uint8_t full; /*must be declared first to set all bits of byte via initializer list*/
 212:lvgl/src/draw/../misc/lv_color.h ****     union {
 213:lvgl/src/draw/../misc/lv_color.h ****         uint8_t blue : 1;
 214:lvgl/src/draw/../misc/lv_color.h ****         uint8_t green : 1;
 215:lvgl/src/draw/../misc/lv_color.h ****         uint8_t red : 1;
 216:lvgl/src/draw/../misc/lv_color.h ****     } ch;
 217:lvgl/src/draw/../misc/lv_color.h **** } lv_color1_t;
 218:lvgl/src/draw/../misc/lv_color.h **** 
 219:lvgl/src/draw/../misc/lv_color.h **** typedef union {
 220:lvgl/src/draw/../misc/lv_color.h ****     struct {
 221:lvgl/src/draw/../misc/lv_color.h ****         uint8_t blue : 2;
 222:lvgl/src/draw/../misc/lv_color.h ****         uint8_t green : 3;
 223:lvgl/src/draw/../misc/lv_color.h ****         uint8_t red : 3;
 224:lvgl/src/draw/../misc/lv_color.h ****     } ch;
 225:lvgl/src/draw/../misc/lv_color.h ****     uint8_t full;
 226:lvgl/src/draw/../misc/lv_color.h **** } lv_color8_t;
 227:lvgl/src/draw/../misc/lv_color.h **** 
 228:lvgl/src/draw/../misc/lv_color.h **** typedef union {
ARM GAS  C:\Users\BLACK_~1\AppData\Local\Temp\ccXqf4MH.s 			page 46


 229:lvgl/src/draw/../misc/lv_color.h ****     struct {
 230:lvgl/src/draw/../misc/lv_color.h **** #if LV_COLOR_16_SWAP == 0
 231:lvgl/src/draw/../misc/lv_color.h ****         uint16_t blue : 5;
 232:lvgl/src/draw/../misc/lv_color.h ****         uint16_t green : 6;
 233:lvgl/src/draw/../misc/lv_color.h ****         uint16_t red : 5;
 234:lvgl/src/draw/../misc/lv_color.h **** #else
 235:lvgl/src/draw/../misc/lv_color.h ****         uint16_t green_h : 3;
 236:lvgl/src/draw/../misc/lv_color.h ****         uint16_t red : 5;
 237:lvgl/src/draw/../misc/lv_color.h ****         uint16_t blue : 5;
 238:lvgl/src/draw/../misc/lv_color.h ****         uint16_t green_l : 3;
 239:lvgl/src/draw/../misc/lv_color.h **** #endif
 240:lvgl/src/draw/../misc/lv_color.h ****     } ch;
 241:lvgl/src/draw/../misc/lv_color.h ****     uint16_t full;
 242:lvgl/src/draw/../misc/lv_color.h **** } lv_color16_t;
 243:lvgl/src/draw/../misc/lv_color.h **** 
 244:lvgl/src/draw/../misc/lv_color.h **** typedef union {
 245:lvgl/src/draw/../misc/lv_color.h ****     struct {
 246:lvgl/src/draw/../misc/lv_color.h ****         uint8_t blue;
 247:lvgl/src/draw/../misc/lv_color.h ****         uint8_t green;
 248:lvgl/src/draw/../misc/lv_color.h ****         uint8_t red;
 249:lvgl/src/draw/../misc/lv_color.h ****         uint8_t alpha;
 250:lvgl/src/draw/../misc/lv_color.h ****     } ch;
 251:lvgl/src/draw/../misc/lv_color.h ****     uint32_t full;
 252:lvgl/src/draw/../misc/lv_color.h **** } lv_color32_t;
 253:lvgl/src/draw/../misc/lv_color.h **** 
 254:lvgl/src/draw/../misc/lv_color.h **** typedef LV_CONCAT3(uint, LV_COLOR_SIZE, _t) lv_color_int_t;
 255:lvgl/src/draw/../misc/lv_color.h **** typedef LV_CONCAT3(lv_color, LV_COLOR_DEPTH, _t) lv_color_t;
 256:lvgl/src/draw/../misc/lv_color.h **** 
 257:lvgl/src/draw/../misc/lv_color.h **** typedef struct {
 258:lvgl/src/draw/../misc/lv_color.h ****     uint16_t h;
 259:lvgl/src/draw/../misc/lv_color.h ****     uint8_t s;
 260:lvgl/src/draw/../misc/lv_color.h ****     uint8_t v;
 261:lvgl/src/draw/../misc/lv_color.h **** } lv_color_hsv_t;
 262:lvgl/src/draw/../misc/lv_color.h **** 
 263:lvgl/src/draw/../misc/lv_color.h **** //! @cond Doxygen_Suppress
 264:lvgl/src/draw/../misc/lv_color.h **** /*No idea where the guard is required but else throws warnings in the docs*/
 265:lvgl/src/draw/../misc/lv_color.h **** typedef uint8_t lv_opa_t;
 266:lvgl/src/draw/../misc/lv_color.h **** //! @endcond
 267:lvgl/src/draw/../misc/lv_color.h **** 
 268:lvgl/src/draw/../misc/lv_color.h **** struct _lv_color_filter_dsc_t;
 269:lvgl/src/draw/../misc/lv_color.h **** 
 270:lvgl/src/draw/../misc/lv_color.h **** typedef lv_color_t (*lv_color_filter_cb_t)(const struct _lv_color_filter_dsc_t *, lv_color_t, lv_op
 271:lvgl/src/draw/../misc/lv_color.h **** 
 272:lvgl/src/draw/../misc/lv_color.h **** typedef struct _lv_color_filter_dsc_t {
 273:lvgl/src/draw/../misc/lv_color.h ****     lv_color_filter_cb_t filter_cb;
 274:lvgl/src/draw/../misc/lv_color.h ****     void * user_data;
 275:lvgl/src/draw/../misc/lv_color.h **** }lv_color_filter_dsc_t;
 276:lvgl/src/draw/../misc/lv_color.h **** 
 277:lvgl/src/draw/../misc/lv_color.h **** 
 278:lvgl/src/draw/../misc/lv_color.h **** typedef enum {
 279:lvgl/src/draw/../misc/lv_color.h ****     LV_PALETTE_RED,
 280:lvgl/src/draw/../misc/lv_color.h ****     LV_PALETTE_PINK,
 281:lvgl/src/draw/../misc/lv_color.h ****     LV_PALETTE_PURPLE,
 282:lvgl/src/draw/../misc/lv_color.h ****     LV_PALETTE_DEEP_PURPLE,
 283:lvgl/src/draw/../misc/lv_color.h ****     LV_PALETTE_INDIGO,
 284:lvgl/src/draw/../misc/lv_color.h ****     LV_PALETTE_BLUE,
 285:lvgl/src/draw/../misc/lv_color.h ****     LV_PALETTE_LIGHT_BLUE,
ARM GAS  C:\Users\BLACK_~1\AppData\Local\Temp\ccXqf4MH.s 			page 47


 286:lvgl/src/draw/../misc/lv_color.h ****     LV_PALETTE_CYAN,
 287:lvgl/src/draw/../misc/lv_color.h ****     LV_PALETTE_TEAL,
 288:lvgl/src/draw/../misc/lv_color.h ****     LV_PALETTE_GREEN,
 289:lvgl/src/draw/../misc/lv_color.h ****     LV_PALETTE_LIGHT_GREEN,
 290:lvgl/src/draw/../misc/lv_color.h ****     LV_PALETTE_LIME,
 291:lvgl/src/draw/../misc/lv_color.h ****     LV_PALETTE_YELLOW,
 292:lvgl/src/draw/../misc/lv_color.h ****     LV_PALETTE_AMBER,
 293:lvgl/src/draw/../misc/lv_color.h ****     LV_PALETTE_ORANGE,
 294:lvgl/src/draw/../misc/lv_color.h ****     LV_PALETTE_DEEP_ORANGE,
 295:lvgl/src/draw/../misc/lv_color.h ****     LV_PALETTE_BROWN,
 296:lvgl/src/draw/../misc/lv_color.h ****     LV_PALETTE_BLUE_GREY,
 297:lvgl/src/draw/../misc/lv_color.h ****     LV_PALETTE_GREY,
 298:lvgl/src/draw/../misc/lv_color.h ****     _LV_PALETTE_LAST,
 299:lvgl/src/draw/../misc/lv_color.h ****     LV_PALETTE_NONE = 0xff,
 300:lvgl/src/draw/../misc/lv_color.h **** }lv_palette_t;
 301:lvgl/src/draw/../misc/lv_color.h **** 
 302:lvgl/src/draw/../misc/lv_color.h **** /**********************
 303:lvgl/src/draw/../misc/lv_color.h ****  * GLOBAL PROTOTYPES
 304:lvgl/src/draw/../misc/lv_color.h ****  **********************/
 305:lvgl/src/draw/../misc/lv_color.h **** 
 306:lvgl/src/draw/../misc/lv_color.h **** /*In color conversations:
 307:lvgl/src/draw/../misc/lv_color.h ****  * - When converting to bigger color type the LSB weight of 1 LSB is calculated
 308:lvgl/src/draw/../misc/lv_color.h ****  *   E.g. 16 bit Red has 5 bits
 309:lvgl/src/draw/../misc/lv_color.h ****  *         8 bit Red has 3 bits
 310:lvgl/src/draw/../misc/lv_color.h ****  *        ----------------------
 311:lvgl/src/draw/../misc/lv_color.h ****  *        8 bit red LSB = (2^5 - 1) / (2^3 - 1) = 31 / 7 = 4
 312:lvgl/src/draw/../misc/lv_color.h ****  *
 313:lvgl/src/draw/../misc/lv_color.h ****  * - When calculating to smaller color type simply shift out the LSBs
 314:lvgl/src/draw/../misc/lv_color.h ****  *   E.g.  8 bit Red has 3 bits
 315:lvgl/src/draw/../misc/lv_color.h ****  *        16 bit Red has 5 bits
 316:lvgl/src/draw/../misc/lv_color.h ****  *        ----------------------
 317:lvgl/src/draw/../misc/lv_color.h ****  *         Shift right with 5 - 3 = 2
 318:lvgl/src/draw/../misc/lv_color.h ****  */
 319:lvgl/src/draw/../misc/lv_color.h **** static inline uint8_t lv_color_to1(lv_color_t color)
 320:lvgl/src/draw/../misc/lv_color.h **** {
 321:lvgl/src/draw/../misc/lv_color.h **** #if LV_COLOR_DEPTH == 1
 322:lvgl/src/draw/../misc/lv_color.h ****     return color.full;
 323:lvgl/src/draw/../misc/lv_color.h **** #elif LV_COLOR_DEPTH == 8
 324:lvgl/src/draw/../misc/lv_color.h ****     if((LV_COLOR_GET_R(color) & 0x4) || (LV_COLOR_GET_G(color) & 0x4) || (LV_COLOR_GET_B(color) & 0
 325:lvgl/src/draw/../misc/lv_color.h ****         return 1;
 326:lvgl/src/draw/../misc/lv_color.h ****     }
 327:lvgl/src/draw/../misc/lv_color.h ****     else {
 328:lvgl/src/draw/../misc/lv_color.h ****         return 0;
 329:lvgl/src/draw/../misc/lv_color.h ****     }
 330:lvgl/src/draw/../misc/lv_color.h **** #elif LV_COLOR_DEPTH == 16
 331:lvgl/src/draw/../misc/lv_color.h ****     if((LV_COLOR_GET_R(color) & 0x10) || (LV_COLOR_GET_G(color) & 0x20) || (LV_COLOR_GET_B(color) &
 332:lvgl/src/draw/../misc/lv_color.h ****         return 1;
 333:lvgl/src/draw/../misc/lv_color.h ****     }
 334:lvgl/src/draw/../misc/lv_color.h ****     else {
 335:lvgl/src/draw/../misc/lv_color.h ****         return 0;
 336:lvgl/src/draw/../misc/lv_color.h ****     }
 337:lvgl/src/draw/../misc/lv_color.h **** #elif LV_COLOR_DEPTH == 32
 338:lvgl/src/draw/../misc/lv_color.h ****     if((LV_COLOR_GET_R(color) & 0x80) || (LV_COLOR_GET_G(color) & 0x80) || (LV_COLOR_GET_B(color) &
 339:lvgl/src/draw/../misc/lv_color.h ****         return 1;
 340:lvgl/src/draw/../misc/lv_color.h ****     }
 341:lvgl/src/draw/../misc/lv_color.h ****     else {
 342:lvgl/src/draw/../misc/lv_color.h ****         return 0;
ARM GAS  C:\Users\BLACK_~1\AppData\Local\Temp\ccXqf4MH.s 			page 48


 343:lvgl/src/draw/../misc/lv_color.h ****     }
 344:lvgl/src/draw/../misc/lv_color.h **** #endif
 345:lvgl/src/draw/../misc/lv_color.h **** }
 346:lvgl/src/draw/../misc/lv_color.h **** 
 347:lvgl/src/draw/../misc/lv_color.h **** static inline uint8_t lv_color_to8(lv_color_t color)
 348:lvgl/src/draw/../misc/lv_color.h **** {
 349:lvgl/src/draw/../misc/lv_color.h **** #if LV_COLOR_DEPTH == 1
 350:lvgl/src/draw/../misc/lv_color.h ****     if(color.full == 0)
 351:lvgl/src/draw/../misc/lv_color.h ****         return 0;
 352:lvgl/src/draw/../misc/lv_color.h ****     else
 353:lvgl/src/draw/../misc/lv_color.h ****         return 0xFF;
 354:lvgl/src/draw/../misc/lv_color.h **** #elif LV_COLOR_DEPTH == 8
 355:lvgl/src/draw/../misc/lv_color.h ****     return color.full;
 356:lvgl/src/draw/../misc/lv_color.h **** #elif LV_COLOR_DEPTH == 16
 357:lvgl/src/draw/../misc/lv_color.h ****     lv_color8_t ret;
 358:lvgl/src/draw/../misc/lv_color.h ****     LV_COLOR_SET_R8(ret, LV_COLOR_GET_R(color) >> 2); /*5 - 3  = 2*/
 359:lvgl/src/draw/../misc/lv_color.h ****     LV_COLOR_SET_G8(ret, LV_COLOR_GET_G(color) >> 3); /*6 - 3  = 3*/
 360:lvgl/src/draw/../misc/lv_color.h ****     LV_COLOR_SET_B8(ret, LV_COLOR_GET_B(color) >> 3); /*5 - 2  = 3*/
 361:lvgl/src/draw/../misc/lv_color.h ****     return ret.full;
 362:lvgl/src/draw/../misc/lv_color.h **** #elif LV_COLOR_DEPTH == 32
 363:lvgl/src/draw/../misc/lv_color.h ****     lv_color8_t ret;
 364:lvgl/src/draw/../misc/lv_color.h ****     LV_COLOR_SET_R8(ret, LV_COLOR_GET_R(color) >> 5); /*8 - 3  = 5*/
 365:lvgl/src/draw/../misc/lv_color.h ****     LV_COLOR_SET_G8(ret, LV_COLOR_GET_G(color) >> 5); /*8 - 3  = 5*/
 366:lvgl/src/draw/../misc/lv_color.h ****     LV_COLOR_SET_B8(ret, LV_COLOR_GET_B(color) >> 6); /*8 - 2  = 6*/
 367:lvgl/src/draw/../misc/lv_color.h ****     return ret.full;
 368:lvgl/src/draw/../misc/lv_color.h **** #endif
 369:lvgl/src/draw/../misc/lv_color.h **** }
 370:lvgl/src/draw/../misc/lv_color.h **** 
 371:lvgl/src/draw/../misc/lv_color.h **** static inline uint16_t lv_color_to16(lv_color_t color)
 372:lvgl/src/draw/../misc/lv_color.h **** {
 373:lvgl/src/draw/../misc/lv_color.h **** #if LV_COLOR_DEPTH == 1
 374:lvgl/src/draw/../misc/lv_color.h ****     if(color.full == 0)
 375:lvgl/src/draw/../misc/lv_color.h ****         return 0;
 376:lvgl/src/draw/../misc/lv_color.h ****     else
 377:lvgl/src/draw/../misc/lv_color.h ****         return 0xFFFF;
 378:lvgl/src/draw/../misc/lv_color.h **** #elif LV_COLOR_DEPTH == 8
 379:lvgl/src/draw/../misc/lv_color.h ****     lv_color16_t ret;
 380:lvgl/src/draw/../misc/lv_color.h ****     LV_COLOR_SET_R16(ret, LV_COLOR_GET_R(color) * 4);  /*(2^5 - 1)/(2^3 - 1) = 31/7 = 4*/
 381:lvgl/src/draw/../misc/lv_color.h ****     LV_COLOR_SET_G16(ret, LV_COLOR_GET_G(color) * 9);  /*(2^6 - 1)/(2^3 - 1) = 63/7 = 9*/
 382:lvgl/src/draw/../misc/lv_color.h ****     LV_COLOR_SET_B16(ret, LV_COLOR_GET_B(color) * 10); /*(2^5 - 1)/(2^2 - 1) = 31/3 = 10*/
 383:lvgl/src/draw/../misc/lv_color.h ****     return ret.full;
 384:lvgl/src/draw/../misc/lv_color.h **** #elif LV_COLOR_DEPTH == 16
 385:lvgl/src/draw/../misc/lv_color.h ****     return color.full;
 386:lvgl/src/draw/../misc/lv_color.h **** #elif LV_COLOR_DEPTH == 32
 387:lvgl/src/draw/../misc/lv_color.h ****     lv_color16_t ret;
 388:lvgl/src/draw/../misc/lv_color.h ****     LV_COLOR_SET_R16(ret, LV_COLOR_GET_R(color) >> 3); /*8 - 5  = 3*/
 389:lvgl/src/draw/../misc/lv_color.h ****     LV_COLOR_SET_G16(ret, LV_COLOR_GET_G(color) >> 2); /*8 - 6  = 2*/
 390:lvgl/src/draw/../misc/lv_color.h ****     LV_COLOR_SET_B16(ret, LV_COLOR_GET_B(color) >> 3); /*8 - 5  = 3*/
 391:lvgl/src/draw/../misc/lv_color.h ****     return ret.full;
 392:lvgl/src/draw/../misc/lv_color.h **** #endif
 393:lvgl/src/draw/../misc/lv_color.h **** }
 394:lvgl/src/draw/../misc/lv_color.h **** 
 395:lvgl/src/draw/../misc/lv_color.h **** static inline uint32_t lv_color_to32(lv_color_t color)
 396:lvgl/src/draw/../misc/lv_color.h **** {
 397:lvgl/src/draw/../misc/lv_color.h **** #if LV_COLOR_DEPTH == 1
 398:lvgl/src/draw/../misc/lv_color.h ****     if(color.full == 0)
 399:lvgl/src/draw/../misc/lv_color.h ****         return 0xFF000000;
ARM GAS  C:\Users\BLACK_~1\AppData\Local\Temp\ccXqf4MH.s 			page 49


 400:lvgl/src/draw/../misc/lv_color.h ****     else
 401:lvgl/src/draw/../misc/lv_color.h ****         return 0xFFFFFFFF;
 402:lvgl/src/draw/../misc/lv_color.h **** #elif LV_COLOR_DEPTH == 8
 403:lvgl/src/draw/../misc/lv_color.h ****     lv_color32_t ret;
 404:lvgl/src/draw/../misc/lv_color.h ****     LV_COLOR_SET_R32(ret, LV_COLOR_GET_R(color) * 36); /*(2^8 - 1)/(2^3 - 1) = 255/7 = 36*/
 405:lvgl/src/draw/../misc/lv_color.h ****     LV_COLOR_SET_G32(ret, LV_COLOR_GET_G(color) * 36); /*(2^8 - 1)/(2^3 - 1) = 255/7 = 36*/
 406:lvgl/src/draw/../misc/lv_color.h ****     LV_COLOR_SET_B32(ret, LV_COLOR_GET_B(color) * 85); /*(2^8 - 1)/(2^2 - 1) = 255/3 = 85*/
 407:lvgl/src/draw/../misc/lv_color.h ****     LV_COLOR_SET_A32(ret, 0xFF);
 408:lvgl/src/draw/../misc/lv_color.h ****     return ret.full;
 409:lvgl/src/draw/../misc/lv_color.h **** #elif LV_COLOR_DEPTH == 16
 410:lvgl/src/draw/../misc/lv_color.h ****     /**
 411:lvgl/src/draw/../misc/lv_color.h ****      * The floating point math for conversion is:
 412:lvgl/src/draw/../misc/lv_color.h ****      *  valueto = valuefrom * ( (2^bitsto - 1) / (float)(2^bitsfrom - 1) )
 413:lvgl/src/draw/../misc/lv_color.h ****      * The faster integer math for conversion is:
 414:lvgl/src/draw/../misc/lv_color.h ****      *  valueto = ( valuefrom * multiplier + adder ) >> divisor
 415:lvgl/src/draw/../misc/lv_color.h ****      *   multiplier = FLOOR( ( (2^bitsto - 1) << divisor ) / (float)(2^bitsfrom - 1) )
 416:lvgl/src/draw/../misc/lv_color.h ****      *
 417:lvgl/src/draw/../misc/lv_color.h ****      * Find the first divisor where ( adder >> divisor ) <= 0
 418:lvgl/src/draw/../misc/lv_color.h ****      *
 419:lvgl/src/draw/../misc/lv_color.h ****      * 5-bit to 8-bit: ( 31 * multiplier + adder ) >> divisor = 255
 420:lvgl/src/draw/../misc/lv_color.h ****      * divisor  multiplier  adder  min (0)  max (31)
 421:lvgl/src/draw/../misc/lv_color.h ****      *       0           8      7        7       255
 422:lvgl/src/draw/../misc/lv_color.h ****      *       1          16     14        7       255
 423:lvgl/src/draw/../misc/lv_color.h ****      *       2          32     28        7       255
 424:lvgl/src/draw/../misc/lv_color.h ****      *       3          65     25        3       255
 425:lvgl/src/draw/../misc/lv_color.h ****      *       4         131     19        1       255
 426:lvgl/src/draw/../misc/lv_color.h ****      *       5         263      7        0       255
 427:lvgl/src/draw/../misc/lv_color.h ****      *
 428:lvgl/src/draw/../misc/lv_color.h ****      * 6-bit to 8-bit: 255 = ( 63 * multiplier + adder ) >> divisor
 429:lvgl/src/draw/../misc/lv_color.h ****      * divisor  multiplier  adder  min (0)  max (63)
 430:lvgl/src/draw/../misc/lv_color.h ****      *       0           4      3        3       255
 431:lvgl/src/draw/../misc/lv_color.h ****      *       1           8      6        3       255
 432:lvgl/src/draw/../misc/lv_color.h ****      *       2          16     12        3       255
 433:lvgl/src/draw/../misc/lv_color.h ****      *       3          32     24        3       255
 434:lvgl/src/draw/../misc/lv_color.h ****      *       4          64     48        3       255
 435:lvgl/src/draw/../misc/lv_color.h ****      *       5         129     33        1       255
 436:lvgl/src/draw/../misc/lv_color.h ****      *       6         259      3        0       255
 437:lvgl/src/draw/../misc/lv_color.h ****      */
 438:lvgl/src/draw/../misc/lv_color.h **** 
 439:lvgl/src/draw/../misc/lv_color.h ****     lv_color32_t ret;
 440:lvgl/src/draw/../misc/lv_color.h ****     LV_COLOR_SET_R32(ret, (LV_COLOR_GET_R(color) * 263 + 7) >> 5);
 441:lvgl/src/draw/../misc/lv_color.h ****     LV_COLOR_SET_G32(ret, (LV_COLOR_GET_G(color) * 259 + 3) >> 6);
 442:lvgl/src/draw/../misc/lv_color.h ****     LV_COLOR_SET_B32(ret, (LV_COLOR_GET_B(color) * 263 + 7) >> 5);
 443:lvgl/src/draw/../misc/lv_color.h ****     LV_COLOR_SET_A32(ret, 0xFF);
 444:lvgl/src/draw/../misc/lv_color.h ****     return ret.full;
 445:lvgl/src/draw/../misc/lv_color.h **** #elif LV_COLOR_DEPTH == 32
 446:lvgl/src/draw/../misc/lv_color.h ****     return color.full;
 447:lvgl/src/draw/../misc/lv_color.h **** #endif
 448:lvgl/src/draw/../misc/lv_color.h **** }
 449:lvgl/src/draw/../misc/lv_color.h **** 
 450:lvgl/src/draw/../misc/lv_color.h **** //! @cond Doxygen_Suppress
 451:lvgl/src/draw/../misc/lv_color.h **** 
 452:lvgl/src/draw/../misc/lv_color.h **** /**
 453:lvgl/src/draw/../misc/lv_color.h ****  * Mix two colors with a given ratio.
 454:lvgl/src/draw/../misc/lv_color.h ****  * @param c1 the first color to mix (usually the foreground)
 455:lvgl/src/draw/../misc/lv_color.h ****  * @param c2 the second color to mix (usually the background)
 456:lvgl/src/draw/../misc/lv_color.h ****  * @param mix The ratio of the colors. 0: full `c2`, 255: full `c1`, 127: half `c1` and half`c2`
ARM GAS  C:\Users\BLACK_~1\AppData\Local\Temp\ccXqf4MH.s 			page 50


 457:lvgl/src/draw/../misc/lv_color.h ****  * @return the mixed color
 458:lvgl/src/draw/../misc/lv_color.h ****  */
 459:lvgl/src/draw/../misc/lv_color.h **** LV_ATTRIBUTE_FAST_MEM static inline lv_color_t lv_color_mix(lv_color_t c1, lv_color_t c2, uint8_t m
 996              		.loc 3 459 48 view .LVU331
 997              	.LBB96:
 460:lvgl/src/draw/../misc/lv_color.h **** {
 461:lvgl/src/draw/../misc/lv_color.h ****     lv_color_t ret;
 998              		.loc 3 461 5 view .LVU332
 462:lvgl/src/draw/../misc/lv_color.h **** #if LV_COLOR_DEPTH != 1
 463:lvgl/src/draw/../misc/lv_color.h ****     /*LV_COLOR_DEPTH == 8, 16 or 32*/
 464:lvgl/src/draw/../misc/lv_color.h ****     LV_COLOR_SET_R(ret, LV_UDIV255((uint16_t) LV_COLOR_GET_R(c1) * mix + LV_COLOR_GET_R(c2) *
 999              		.loc 3 464 5 view .LVU333
 1000 0046 C0F3C424 		ubfx	r4, r0, #11, #5
 1001 004a C1F3C42C 		ubfx	ip, r1, #11, #5
 1002              	.LVL99:
 1003              		.loc 3 464 5 is_stmt 0 view .LVU334
 1004 004e C2F1FF03 		rsb	r3, r2, #255
 1005 0052 03FB0CFC 		mul	ip, r3, ip
 1006 0056 02FB04CC 		mla	ip, r2, r4, ip
 1007 005a 0CF1800C 		add	ip, ip, #128
 1008 005e 0CEB0C24 		add	r4, ip, ip, lsl #8
 1009 0062 0CEBC41C 		add	ip, ip, r4, lsl #7
 1010 0066 CCF3C45C 		ubfx	ip, ip, #23, #5
 1011 006a 4FF0000E 		mov	lr, #0	@ movhi
 1012              	.LVL100:
 1013              		.loc 3 464 5 view .LVU335
 1014 006e 6CF3CF2E 		bfi	lr, ip, #11, #5
 1015              	.LVL101:
 465:lvgl/src/draw/../misc/lv_color.h ****                                         (255 - mix) + LV_COLOR_MIX_ROUND_OFS));
 466:lvgl/src/draw/../misc/lv_color.h ****     LV_COLOR_SET_G(ret, LV_UDIV255((uint16_t) LV_COLOR_GET_G(c1) * mix + LV_COLOR_GET_G(c2) *
 1016              		.loc 3 466 5 is_stmt 1 view .LVU336
 1017 0072 C0F34514 		ubfx	r4, r0, #5, #6
 1018 0076 C1F3451C 		ubfx	ip, r1, #5, #6
 1019 007a 0CFB03FC 		mul	ip, ip, r3
 1020 007e 04FB02CC 		mla	ip, r4, r2, ip
 1021 0082 0CF1800C 		add	ip, ip, #128
 1022 0086 0CEB0C24 		add	r4, ip, ip, lsl #8
 1023 008a 0CEBC41C 		add	ip, ip, r4, lsl #7
 1024 008e CCF3C55C 		ubfx	ip, ip, #23, #6
 1025 0092 6CF34A1E 		bfi	lr, ip, #5, #6
 467:lvgl/src/draw/../misc/lv_color.h ****                                         (255 - mix) + LV_COLOR_MIX_ROUND_OFS));
 468:lvgl/src/draw/../misc/lv_color.h ****     LV_COLOR_SET_B(ret, LV_UDIV255((uint16_t) LV_COLOR_GET_B(c1) * mix + LV_COLOR_GET_B(c2) *
 1026              		.loc 3 468 5 view .LVU337
 1027 0096 00F01F0C 		and	ip, r0, #31
 1028 009a 01F01F01 		and	r1, r1, #31
 1029              	.LVL102:
 1030              		.loc 3 468 5 is_stmt 0 view .LVU338
 1031 009e 01FB03F3 		mul	r3, r1, r3
 1032 00a2 0CFB0232 		mla	r2, ip, r2, r3
 1033              	.LVL103:
 1034              		.loc 3 468 5 view .LVU339
 1035 00a6 8032     		adds	r2, r2, #128
 1036 00a8 02EB0220 		add	r0, r2, r2, lsl #8
 1037              	.LVL104:
 1038              		.loc 3 468 5 view .LVU340
 1039 00ac 02EBC012 		add	r2, r2, r0, lsl #7
 1040 00b0 C2F3C452 		ubfx	r2, r2, #23, #5
ARM GAS  C:\Users\BLACK_~1\AppData\Local\Temp\ccXqf4MH.s 			page 51


 1041 00b4 62F3040E 		bfi	lr, r2, #0, #5
 469:lvgl/src/draw/../misc/lv_color.h ****                                         (255 - mix) + LV_COLOR_MIX_ROUND_OFS));
 470:lvgl/src/draw/../misc/lv_color.h ****     LV_COLOR_SET_A(ret, 0xFF);
 1042              		.loc 3 470 5 is_stmt 1 view .LVU341
 1043              		.loc 3 470 5 view .LVU342
 1044              		.loc 3 470 5 view .LVU343
 471:lvgl/src/draw/../misc/lv_color.h **** #else
 472:lvgl/src/draw/../misc/lv_color.h ****     /*LV_COLOR_DEPTH == 1*/
 473:lvgl/src/draw/../misc/lv_color.h ****     ret.full = mix > LV_OPA_50 ? c1.full : c2.full;
 474:lvgl/src/draw/../misc/lv_color.h **** #endif
 475:lvgl/src/draw/../misc/lv_color.h **** 
 476:lvgl/src/draw/../misc/lv_color.h ****     return ret;
 1045              		.loc 3 476 5 view .LVU344
 1046 00b8 7046     		mov	r0, lr	@ movhi
 1047              	.LVL105:
 1048              		.loc 3 476 5 is_stmt 0 view .LVU345
 1049              	.LBE96:
 1050              	.LBE95:
1014:lvgl/src/draw/lv_draw_blend.c **** }
 1051              		.loc 1 1014 1 view .LVU346
 1052 00ba 10BD     		pop	{r4, pc}
 1053              	.LVL106:
 1054              	.L62:
 1055              	.LCFI10:
 1056              		.cfi_def_cfa_offset 0
 1057              		.cfi_restore 4
 1058              		.cfi_restore 14
 966:lvgl/src/draw/lv_draw_blend.c **** 
 1059              		.loc 1 966 27 is_stmt 1 discriminator 1 view .LVU347
 966:lvgl/src/draw/lv_draw_blend.c **** 
 1060              		.loc 1 966 34 is_stmt 0 discriminator 1 view .LVU348
 1061 00bc 0846     		mov	r0, r1	@ movhi
 1062              	.LVL107:
 966:lvgl/src/draw/lv_draw_blend.c **** 
 1063              		.loc 1 966 34 discriminator 1 view .LVU349
 1064 00be 7047     		bx	lr
 1065              	.LVL108:
 1066              	.L59:
 1067              	.LVL109:
 1068              		.loc 1 1014 1 view .LVU350
 1069 00c0 7047     		bx	lr
 1070              		.cfi_endproc
 1071              	.LFE155:
 1073              		.section	.text.color_blend_true_color_subtractive,"ax",%progbits
 1074              		.align	1
 1075              		.syntax unified
 1076              		.thumb
 1077              		.thumb_func
 1079              	color_blend_true_color_subtractive:
 1080              	.LVL110:
 1081              	.LFB156:
1015:lvgl/src/draw/lv_draw_blend.c **** 
1016:lvgl/src/draw/lv_draw_blend.c **** static inline lv_color_t color_blend_true_color_subtractive(lv_color_t fg, lv_color_t bg, lv_opa_t 
1017:lvgl/src/draw/lv_draw_blend.c **** {
 1082              		.loc 1 1017 1 is_stmt 1 view -0
 1083              		.cfi_startproc
 1084              		@ args = 0, pretend = 0, frame = 0
ARM GAS  C:\Users\BLACK_~1\AppData\Local\Temp\ccXqf4MH.s 			page 52


 1085              		@ frame_needed = 0, uses_anonymous_args = 0
1018:lvgl/src/draw/lv_draw_blend.c **** 
1019:lvgl/src/draw/lv_draw_blend.c ****     if(opa <= LV_OPA_MIN) return bg;
 1086              		.loc 1 1019 5 view .LVU352
 1087              		.loc 1 1019 7 is_stmt 0 view .LVU353
 1088 0000 022A     		cmp	r2, #2
 1089 0002 5BD9     		bls	.L71
1020:lvgl/src/draw/lv_draw_blend.c **** 
1021:lvgl/src/draw/lv_draw_blend.c ****     int32_t tmp;
 1090              		.loc 1 1021 5 is_stmt 1 view .LVU354
1022:lvgl/src/draw/lv_draw_blend.c ****     tmp = bg.ch.red - fg.ch.red;
 1091              		.loc 1 1022 5 view .LVU355
 1092              		.loc 1 1022 16 is_stmt 0 view .LVU356
 1093 0004 C1F3C423 		ubfx	r3, r1, #11, #5
 1094              		.loc 1 1022 28 view .LVU357
 1095 0008 C0F3C42C 		ubfx	ip, r0, #11, #5
 1096              		.loc 1 1022 9 view .LVU358
 1097 000c A3EB0C03 		sub	r3, r3, ip
 1098              	.LVL111:
1023:lvgl/src/draw/lv_draw_blend.c ****     fg.ch.red = LV_MAX(tmp, 0);
 1099              		.loc 1 1023 5 is_stmt 1 view .LVU359
 1100              		.loc 1 1023 17 is_stmt 0 view .LVU360
 1101 0010 23EAE373 		bic	r3, r3, r3, asr #31
 1102              	.LVL112:
 1103              		.loc 1 1023 15 view .LVU361
 1104 0014 63F3CF20 		bfi	r0, r3, #11, #5
1024:lvgl/src/draw/lv_draw_blend.c **** 
1025:lvgl/src/draw/lv_draw_blend.c **** #if LV_COLOR_16_SWAP == 0
1026:lvgl/src/draw/lv_draw_blend.c ****     tmp = bg.ch.green - fg.ch.green;
 1105              		.loc 1 1026 5 is_stmt 1 view .LVU362
 1106              		.loc 1 1026 16 is_stmt 0 view .LVU363
 1107 0018 C1F34513 		ubfx	r3, r1, #5, #6
 1108              		.loc 1 1026 30 view .LVU364
 1109 001c C0F3451C 		ubfx	ip, r0, #5, #6
 1110              	.LVL113:
 1111              		.loc 1 1026 9 view .LVU365
 1112 0020 A3EB0C03 		sub	r3, r3, ip
 1113              	.LVL114:
1027:lvgl/src/draw/lv_draw_blend.c ****     fg.ch.green = LV_MAX(tmp, 0);
 1114              		.loc 1 1027 5 is_stmt 1 view .LVU366
 1115              		.loc 1 1027 19 is_stmt 0 view .LVU367
 1116 0024 23EAE373 		bic	r3, r3, r3, asr #31
 1117              	.LVL115:
 1118              		.loc 1 1027 17 view .LVU368
 1119 0028 63F34A10 		bfi	r0, r3, #5, #6
1028:lvgl/src/draw/lv_draw_blend.c **** #else
1029:lvgl/src/draw/lv_draw_blend.c ****     tmp = (bg.ch.green_h << 3) + bg.ch.green_l + (fg.ch.green_h << 3) + fg.ch.green_l;
1030:lvgl/src/draw/lv_draw_blend.c ****     tmp = LV_MAX(tmp, 0);
1031:lvgl/src/draw/lv_draw_blend.c ****     fg.ch.green_h = tmp >> 3;
1032:lvgl/src/draw/lv_draw_blend.c ****     fg.ch.green_l = tmp & 0x7;
1033:lvgl/src/draw/lv_draw_blend.c **** #endif
1034:lvgl/src/draw/lv_draw_blend.c **** 
1035:lvgl/src/draw/lv_draw_blend.c ****     tmp = bg.ch.blue - fg.ch.blue;
 1120              		.loc 1 1035 5 is_stmt 1 view .LVU369
 1121              		.loc 1 1035 16 is_stmt 0 view .LVU370
 1122 002c 01F01F03 		and	r3, r1, #31
 1123              		.loc 1 1035 29 view .LVU371
ARM GAS  C:\Users\BLACK_~1\AppData\Local\Temp\ccXqf4MH.s 			page 53


 1124 0030 00F01F0C 		and	ip, r0, #31
 1125              	.LVL116:
 1126              		.loc 1 1035 9 view .LVU372
 1127 0034 A3EB0C03 		sub	r3, r3, ip
 1128              	.LVL117:
1036:lvgl/src/draw/lv_draw_blend.c ****     fg.ch.blue = LV_MAX(tmp, 0);
 1129              		.loc 1 1036 5 is_stmt 1 view .LVU373
 1130              		.loc 1 1036 18 is_stmt 0 view .LVU374
 1131 0038 23EAE373 		bic	r3, r3, r3, asr #31
 1132              	.LVL118:
 1133              		.loc 1 1036 16 view .LVU375
 1134 003c 63F30400 		bfi	r0, r3, #0, #5
1037:lvgl/src/draw/lv_draw_blend.c **** 
1038:lvgl/src/draw/lv_draw_blend.c ****     if(opa == LV_OPA_COVER) return fg;
 1135              		.loc 1 1038 5 is_stmt 1 view .LVU376
 1136              		.loc 1 1038 7 is_stmt 0 view .LVU377
 1137 0040 FF2A     		cmp	r2, #255
 1138 0042 3DD0     		beq	.L68
1017:lvgl/src/draw/lv_draw_blend.c **** 
 1139              		.loc 1 1017 1 view .LVU378
 1140 0044 10B5     		push	{r4, lr}
 1141              	.LCFI11:
 1142              		.cfi_def_cfa_offset 8
 1143              		.cfi_offset 4, -8
 1144              		.cfi_offset 14, -4
1039:lvgl/src/draw/lv_draw_blend.c **** 
1040:lvgl/src/draw/lv_draw_blend.c ****     return lv_color_mix(fg, bg, opa);
 1145              		.loc 1 1040 5 is_stmt 1 view .LVU379
 1146              	.LVL119:
 1147              	.LBB99:
 1148              	.LBI99:
 459:lvgl/src/draw/../misc/lv_color.h **** {
 1149              		.loc 3 459 48 view .LVU380
 1150              	.LBB100:
 461:lvgl/src/draw/../misc/lv_color.h **** #if LV_COLOR_DEPTH != 1
 1151              		.loc 3 461 5 view .LVU381
 464:lvgl/src/draw/../misc/lv_color.h ****                                         (255 - mix) + LV_COLOR_MIX_ROUND_OFS));
 1152              		.loc 3 464 5 view .LVU382
 1153 0046 C0F3C424 		ubfx	r4, r0, #11, #5
 1154 004a C1F3C42C 		ubfx	ip, r1, #11, #5
 1155              	.LVL120:
 464:lvgl/src/draw/../misc/lv_color.h ****                                         (255 - mix) + LV_COLOR_MIX_ROUND_OFS));
 1156              		.loc 3 464 5 is_stmt 0 view .LVU383
 1157 004e C2F1FF03 		rsb	r3, r2, #255
 1158 0052 03FB0CFC 		mul	ip, r3, ip
 1159 0056 02FB04CC 		mla	ip, r2, r4, ip
 1160 005a 0CF1800C 		add	ip, ip, #128
 1161 005e 0CEB0C24 		add	r4, ip, ip, lsl #8
 1162 0062 0CEBC41C 		add	ip, ip, r4, lsl #7
 1163 0066 CCF3C45C 		ubfx	ip, ip, #23, #5
 1164 006a 4FF0000E 		mov	lr, #0	@ movhi
 1165              	.LVL121:
 464:lvgl/src/draw/../misc/lv_color.h ****                                         (255 - mix) + LV_COLOR_MIX_ROUND_OFS));
 1166              		.loc 3 464 5 view .LVU384
 1167 006e 6CF3CF2E 		bfi	lr, ip, #11, #5
 1168              	.LVL122:
 466:lvgl/src/draw/../misc/lv_color.h ****                                         (255 - mix) + LV_COLOR_MIX_ROUND_OFS));
ARM GAS  C:\Users\BLACK_~1\AppData\Local\Temp\ccXqf4MH.s 			page 54


 1169              		.loc 3 466 5 is_stmt 1 view .LVU385
 1170 0072 C0F34514 		ubfx	r4, r0, #5, #6
 1171 0076 C1F3451C 		ubfx	ip, r1, #5, #6
 1172 007a 0CFB03FC 		mul	ip, ip, r3
 1173 007e 04FB02CC 		mla	ip, r4, r2, ip
 1174 0082 0CF1800C 		add	ip, ip, #128
 1175 0086 0CEB0C24 		add	r4, ip, ip, lsl #8
 1176 008a 0CEBC41C 		add	ip, ip, r4, lsl #7
 1177 008e CCF3C55C 		ubfx	ip, ip, #23, #6
 1178 0092 6CF34A1E 		bfi	lr, ip, #5, #6
 468:lvgl/src/draw/../misc/lv_color.h ****                                         (255 - mix) + LV_COLOR_MIX_ROUND_OFS));
 1179              		.loc 3 468 5 view .LVU386
 1180 0096 00F01F0C 		and	ip, r0, #31
 1181 009a 01F01F01 		and	r1, r1, #31
 1182              	.LVL123:
 468:lvgl/src/draw/../misc/lv_color.h ****                                         (255 - mix) + LV_COLOR_MIX_ROUND_OFS));
 1183              		.loc 3 468 5 is_stmt 0 view .LVU387
 1184 009e 01FB03F3 		mul	r3, r1, r3
 1185 00a2 0CFB0232 		mla	r2, ip, r2, r3
 1186              	.LVL124:
 468:lvgl/src/draw/../misc/lv_color.h ****                                         (255 - mix) + LV_COLOR_MIX_ROUND_OFS));
 1187              		.loc 3 468 5 view .LVU388
 1188 00a6 8032     		adds	r2, r2, #128
 1189 00a8 02EB0220 		add	r0, r2, r2, lsl #8
 1190              	.LVL125:
 468:lvgl/src/draw/../misc/lv_color.h ****                                         (255 - mix) + LV_COLOR_MIX_ROUND_OFS));
 1191              		.loc 3 468 5 view .LVU389
 1192 00ac 02EBC012 		add	r2, r2, r0, lsl #7
 1193 00b0 C2F3C452 		ubfx	r2, r2, #23, #5
 1194 00b4 62F3040E 		bfi	lr, r2, #0, #5
 470:lvgl/src/draw/../misc/lv_color.h **** #else
 1195              		.loc 3 470 5 is_stmt 1 view .LVU390
 470:lvgl/src/draw/../misc/lv_color.h **** #else
 1196              		.loc 3 470 5 view .LVU391
 470:lvgl/src/draw/../misc/lv_color.h **** #else
 1197              		.loc 3 470 5 view .LVU392
 1198              		.loc 3 476 5 view .LVU393
 1199 00b8 7046     		mov	r0, lr	@ movhi
 1200              	.LVL126:
 1201              		.loc 3 476 5 is_stmt 0 view .LVU394
 1202              	.LBE100:
 1203              	.LBE99:
1041:lvgl/src/draw/lv_draw_blend.c **** }
 1204              		.loc 1 1041 1 view .LVU395
 1205 00ba 10BD     		pop	{r4, pc}
 1206              	.LVL127:
 1207              	.L71:
 1208              	.LCFI12:
 1209              		.cfi_def_cfa_offset 0
 1210              		.cfi_restore 4
 1211              		.cfi_restore 14
1019:lvgl/src/draw/lv_draw_blend.c **** 
 1212              		.loc 1 1019 27 is_stmt 1 discriminator 1 view .LVU396
1019:lvgl/src/draw/lv_draw_blend.c **** 
 1213              		.loc 1 1019 34 is_stmt 0 discriminator 1 view .LVU397
 1214 00bc 0846     		mov	r0, r1	@ movhi
 1215              	.LVL128:
ARM GAS  C:\Users\BLACK_~1\AppData\Local\Temp\ccXqf4MH.s 			page 55


1019:lvgl/src/draw/lv_draw_blend.c **** 
 1216              		.loc 1 1019 34 discriminator 1 view .LVU398
 1217 00be 7047     		bx	lr
 1218              	.LVL129:
 1219              	.L68:
 1220              	.LVL130:
 1221              		.loc 1 1041 1 view .LVU399
 1222 00c0 7047     		bx	lr
 1223              		.cfi_endproc
 1224              	.LFE156:
 1226              		.section	.text.map_normal,"ax",%progbits
 1227              		.align	1
 1228              		.syntax unified
 1229              		.thumb
 1230              		.thumb_func
 1232              	map_normal:
 1233              	.LVL131:
 1234              	.LFB153:
 660:lvgl/src/draw/lv_draw_blend.c **** 
 1235              		.loc 1 660 1 is_stmt 1 view -0
 1236              		.cfi_startproc
 1237              		@ args = 16, pretend = 0, frame = 48
 1238              		@ frame_needed = 0, uses_anonymous_args = 0
 660:lvgl/src/draw/lv_draw_blend.c **** 
 1239              		.loc 1 660 1 is_stmt 0 view .LVU401
 1240 0000 2DE9F04F 		push	{r4, r5, r6, r7, r8, r9, r10, fp, lr}
 1241              	.LCFI13:
 1242              		.cfi_def_cfa_offset 36
 1243              		.cfi_offset 4, -36
 1244              		.cfi_offset 5, -32
 1245              		.cfi_offset 6, -28
 1246              		.cfi_offset 7, -24
 1247              		.cfi_offset 8, -20
 1248              		.cfi_offset 9, -16
 1249              		.cfi_offset 10, -12
 1250              		.cfi_offset 11, -8
 1251              		.cfi_offset 14, -4
 1252 0004 8DB0     		sub	sp, sp, #52
 1253              	.LCFI14:
 1254              		.cfi_def_cfa_offset 88
 1255 0006 0391     		str	r1, [sp, #12]
 1256 0008 9DF85C80 		ldrb	r8, [sp, #92]	@ zero_extendqisi2
 663:lvgl/src/draw/lv_draw_blend.c **** 
 1257              		.loc 1 663 5 is_stmt 1 view .LVU402
 1258              	.LVL132:
 1259              	.LBB128:
 1260              	.LBI128:
 133:lvgl/src/draw/../misc/lv_area.h **** {
 1261              		.loc 2 133 26 view .LVU403
 1262              	.LBB129:
 1263              		.loc 2 135 5 view .LVU404
 1264              		.loc 2 135 31 is_stmt 0 view .LVU405
 1265 000c 8188     		ldrh	r1, [r0, #4]
 1266              	.LVL133:
 1267              		.loc 2 135 44 view .LVU406
 1268 000e B0F90040 		ldrsh	r4, [r0]
 1269 0012 0194     		str	r4, [sp, #4]
ARM GAS  C:\Users\BLACK_~1\AppData\Local\Temp\ccXqf4MH.s 			page 56


 1270 0014 BDF80440 		ldrh	r4, [sp, #4]
 1271              		.loc 2 135 36 view .LVU407
 1272 0018 091B     		subs	r1, r1, r4
 1273 001a 89B2     		uxth	r1, r1
 1274              		.loc 2 135 49 view .LVU408
 1275 001c 0131     		adds	r1, r1, #1
 1276              		.loc 2 135 12 view .LVU409
 1277 001e 0DB2     		sxth	r5, r1
 1278 0020 0595     		str	r5, [sp, #20]
 1279              	.LVL134:
 1280              		.loc 2 135 12 view .LVU410
 1281              	.LBE129:
 1282              	.LBE128:
 665:lvgl/src/draw/lv_draw_blend.c ****     int32_t draw_area_h = lv_area_get_height(draw_area);
 1283              		.loc 1 665 5 is_stmt 1 view .LVU411
 1284              	.LBB130:
 1285              	.LBI130:
 133:lvgl/src/draw/../misc/lv_area.h **** {
 1286              		.loc 2 133 26 view .LVU412
 1287              	.LBB131:
 1288              		.loc 2 135 5 view .LVU413
 1289              		.loc 2 135 31 is_stmt 0 view .LVU414
 1290 0022 9188     		ldrh	r1, [r2, #4]
 1291              		.loc 2 135 44 view .LVU415
 1292 0024 B2F90060 		ldrsh	r6, [r2]
 1293 0028 B4B2     		uxth	r4, r6
 1294              		.loc 2 135 36 view .LVU416
 1295 002a 0D1B     		subs	r5, r1, r4
 1296              	.LVL135:
 1297              		.loc 2 135 36 view .LVU417
 1298 002c ADB2     		uxth	r5, r5
 1299              		.loc 2 135 49 view .LVU418
 1300 002e 0135     		adds	r5, r5, #1
 1301              		.loc 2 135 12 view .LVU419
 1302 0030 2DB2     		sxth	r5, r5
 1303              	.LVL136:
 1304              		.loc 2 135 12 view .LVU420
 1305              	.LBE131:
 1306              	.LBE130:
 666:lvgl/src/draw/lv_draw_blend.c **** 
 1307              		.loc 1 666 5 is_stmt 1 view .LVU421
 1308              	.LBB132:
 1309              	.LBI132:
 136:lvgl/src/draw/../misc/lv_area.h **** }
 137:lvgl/src/draw/../misc/lv_area.h **** 
 138:lvgl/src/draw/../misc/lv_area.h **** /**
 139:lvgl/src/draw/../misc/lv_area.h ****  * Get the height of an area
 140:lvgl/src/draw/../misc/lv_area.h ****  * @param area_p pointer to an area
 141:lvgl/src/draw/../misc/lv_area.h ****  * @return the height of the area (if y1 == y2 -> height = 1)
 142:lvgl/src/draw/../misc/lv_area.h ****  */
 143:lvgl/src/draw/../misc/lv_area.h **** static inline lv_coord_t lv_area_get_height(const lv_area_t * area_p)
 1310              		.loc 2 143 26 view .LVU422
 1311              	.LBB133:
 144:lvgl/src/draw/../misc/lv_area.h **** {
 145:lvgl/src/draw/../misc/lv_area.h ****     return (lv_coord_t)(area_p->y2 - area_p->y1 + 1);
 1312              		.loc 2 145 5 view .LVU423
 1313              		.loc 2 145 31 is_stmt 0 view .LVU424
ARM GAS  C:\Users\BLACK_~1\AppData\Local\Temp\ccXqf4MH.s 			page 57


 1314 0032 D188     		ldrh	r1, [r2, #6]
 1315              		.loc 2 145 44 view .LVU425
 1316 0034 B2F902B0 		ldrsh	fp, [r2, #2]
 1317 0038 1FFA8BF2 		uxth	r2, fp
 1318              	.LVL137:
 1319              		.loc 2 145 36 view .LVU426
 1320 003c 8A1A     		subs	r2, r1, r2
 1321 003e 92B2     		uxth	r2, r2
 1322              		.loc 2 145 49 view .LVU427
 1323 0040 0132     		adds	r2, r2, #1
 1324              		.loc 2 145 12 view .LVU428
 1325 0042 0FFA82FA 		sxth	r10, r2
 1326 0046 CDF818A0 		str	r10, [sp, #24]
 1327              	.LVL138:
 1328              		.loc 2 145 12 view .LVU429
 1329              	.LBE133:
 1330              	.LBE132:
 669:lvgl/src/draw/lv_draw_blend.c **** 
 1331              		.loc 1 669 5 is_stmt 1 view .LVU430
 1332              	.LBB134:
 1333              	.LBI134:
 133:lvgl/src/draw/../misc/lv_area.h **** {
 1334              		.loc 2 133 26 view .LVU431
 1335              	.LBB135:
 135:lvgl/src/draw/../misc/lv_area.h **** }
 1336              		.loc 2 135 5 view .LVU432
 135:lvgl/src/draw/../misc/lv_area.h **** }
 1337              		.loc 2 135 31 is_stmt 0 view .LVU433
 1338 004a 9A88     		ldrh	r2, [r3, #4]
 135:lvgl/src/draw/../misc/lv_area.h **** }
 1339              		.loc 2 135 44 view .LVU434
 1340 004c B3F900A0 		ldrsh	r10, [r3]
 1341              	.LVL139:
 135:lvgl/src/draw/../misc/lv_area.h **** }
 1342              		.loc 2 135 44 view .LVU435
 1343 0050 1FFA8AF1 		uxth	r1, r10
 135:lvgl/src/draw/../misc/lv_area.h **** }
 1344              		.loc 2 135 36 view .LVU436
 1345 0054 521A     		subs	r2, r2, r1
 1346 0056 92B2     		uxth	r2, r2
 135:lvgl/src/draw/../misc/lv_area.h **** }
 1347              		.loc 2 135 49 view .LVU437
 1348 0058 0132     		adds	r2, r2, #1
 135:lvgl/src/draw/../misc/lv_area.h **** }
 1349              		.loc 2 135 12 view .LVU438
 1350 005a 11B2     		sxth	r1, r2
 1351 005c 0491     		str	r1, [sp, #16]
 1352              	.LVL140:
 135:lvgl/src/draw/../misc/lv_area.h **** }
 1353              		.loc 2 135 12 view .LVU439
 1354              	.LBE135:
 1355              	.LBE134:
 672:lvgl/src/draw/lv_draw_blend.c **** 
 1356              		.loc 1 672 5 is_stmt 1 view .LVU440
 672:lvgl/src/draw/lv_draw_blend.c **** 
 1357              		.loc 1 672 69 is_stmt 0 view .LVU441
 1358 005e 059C     		ldr	r4, [sp, #20]
ARM GAS  C:\Users\BLACK_~1\AppData\Local\Temp\ccXqf4MH.s 			page 58


 1359 0060 04FB0B64 		mla	r4, r4, fp, r6
 672:lvgl/src/draw/lv_draw_blend.c **** 
 1360              		.loc 1 672 18 view .LVU442
 1361 0064 039A     		ldr	r2, [sp, #12]
 1362 0066 02EB4404 		add	r4, r2, r4, lsl #1
 1363              	.LVL141:
 675:lvgl/src/draw/lv_draw_blend.c ****     map_buf_first += (draw_area->x1 - (map_area->x1 - disp_area->x1));
 1364              		.loc 1 675 5 is_stmt 1 view .LVU443
 675:lvgl/src/draw/lv_draw_blend.c ****     map_buf_first += (draw_area->x1 - (map_area->x1 - disp_area->x1));
 1365              		.loc 1 675 84 is_stmt 0 view .LVU444
 1366 006a B3F90230 		ldrsh	r3, [r3, #2]
 1367              	.LVL142:
 675:lvgl/src/draw/lv_draw_blend.c ****     map_buf_first += (draw_area->x1 - (map_area->x1 - disp_area->x1));
 1368              		.loc 1 675 100 view .LVU445
 1369 006e B0F90220 		ldrsh	r2, [r0, #2]
 675:lvgl/src/draw/lv_draw_blend.c ****     map_buf_first += (draw_area->x1 - (map_area->x1 - disp_area->x1));
 1370              		.loc 1 675 89 view .LVU446
 1371 0072 9B1A     		subs	r3, r3, r2
 675:lvgl/src/draw/lv_draw_blend.c ****     map_buf_first += (draw_area->x1 - (map_area->x1 - disp_area->x1));
 1372              		.loc 1 675 73 view .LVU447
 1373 0074 ABEB0303 		sub	r3, fp, r3
 1374              	.LVL143:
 676:lvgl/src/draw/lv_draw_blend.c **** 
 1375              		.loc 1 676 5 is_stmt 1 view .LVU448
 676:lvgl/src/draw/lv_draw_blend.c **** 
 1376              		.loc 1 676 53 is_stmt 0 view .LVU449
 1377 0078 019A     		ldr	r2, [sp, #4]
 1378 007a AAEB020A 		sub	r10, r10, r2
 676:lvgl/src/draw/lv_draw_blend.c **** 
 1379              		.loc 1 676 37 view .LVU450
 1380 007e A6EB0A06 		sub	r6, r6, r10
 676:lvgl/src/draw/lv_draw_blend.c **** 
 1381              		.loc 1 676 19 view .LVU451
 1382 0082 01FB0363 		mla	r3, r1, r3, r6
 1383              	.LVL144:
 676:lvgl/src/draw/lv_draw_blend.c **** 
 1384              		.loc 1 676 19 view .LVU452
 1385 0086 169E     		ldr	r6, [sp, #88]
 1386 0088 06EB4306 		add	r6, r6, r3, lsl #1
 1387              	.LVL145:
 682:lvgl/src/draw/lv_draw_blend.c ****     int32_t y;
 1388              		.loc 1 682 5 is_stmt 1 view .LVU453
 683:lvgl/src/draw/lv_draw_blend.c **** 
 1389              		.loc 1 683 5 view .LVU454
 686:lvgl/src/draw/lv_draw_blend.c ****         if(opa > LV_OPA_MAX) {
 1390              		.loc 1 686 5 view .LVU455
 686:lvgl/src/draw/lv_draw_blend.c ****         if(opa > LV_OPA_MAX) {
 1391              		.loc 1 686 7 is_stmt 0 view .LVU456
 1392 008c 9DF86430 		ldrb	r3, [sp, #100]	@ zero_extendqisi2
 1393 0090 012B     		cmp	r3, #1
 1394 0092 08D0     		beq	.L114
 803:lvgl/src/draw/lv_draw_blend.c ****             /*Go to the first pixel of the row*/
 1395              		.loc 1 803 9 is_stmt 1 view .LVU457
 803:lvgl/src/draw/lv_draw_blend.c ****             /*Go to the first pixel of the row*/
 1396              		.loc 1 803 11 is_stmt 0 view .LVU458
 1397 0094 B8F1FD0F 		cmp	r8, #253
 1398 0098 40F2F082 		bls	.L108
ARM GAS  C:\Users\BLACK_~1\AppData\Local\Temp\ccXqf4MH.s 			page 59


 1399              	.LBB136:
 806:lvgl/src/draw/lv_draw_blend.c **** 
 1400              		.loc 1 806 13 is_stmt 1 view .LVU459
 806:lvgl/src/draw/lv_draw_blend.c **** 
 1401              		.loc 1 806 21 is_stmt 0 view .LVU460
 1402 009c 2B1F     		subs	r3, r5, #4
 1403 009e 0193     		str	r3, [sp, #4]
 1404              	.LVL146:
 808:lvgl/src/draw/lv_draw_blend.c ****                 const lv_opa_t * mask_tmp_x = mask;
 1405              		.loc 1 808 13 is_stmt 1 view .LVU461
 808:lvgl/src/draw/lv_draw_blend.c ****                 const lv_opa_t * mask_tmp_x = mask;
 1406              		.loc 1 808 19 is_stmt 0 view .LVU462
 1407 00a0 0023     		movs	r3, #0
 1408              	.LVL147:
 808:lvgl/src/draw/lv_draw_blend.c ****                 const lv_opa_t * mask_tmp_x = mask;
 1409              		.loc 1 808 19 view .LVU463
 1410 00a2 0393     		str	r3, [sp, #12]
 1411              	.LVL148:
 808:lvgl/src/draw/lv_draw_blend.c ****                 const lv_opa_t * mask_tmp_x = mask;
 1412              		.loc 1 808 13 view .LVU464
 1413 00a4 88E2     		b	.L81
 1414              	.LVL149:
 1415              	.L114:
 808:lvgl/src/draw/lv_draw_blend.c ****                 const lv_opa_t * mask_tmp_x = mask;
 1416              		.loc 1 808 13 view .LVU465
 1417              	.LBE136:
 687:lvgl/src/draw/lv_draw_blend.c **** #if LV_USE_GPU_NXP_PXP
 1418              		.loc 1 687 9 is_stmt 1 view .LVU466
 687:lvgl/src/draw/lv_draw_blend.c **** #if LV_USE_GPU_NXP_PXP
 1419              		.loc 1 687 11 is_stmt 0 view .LVU467
 1420 00a6 B8F1FD0F 		cmp	r8, #253
 1421 00aa 15D8     		bhi	.L106
 782:lvgl/src/draw/lv_draw_blend.c ****                 for(x = 0; x < draw_area_w; x++) {
 1422              		.loc 1 782 19 view .LVU468
 1423 00ac 4FF0000C 		mov	ip, #0
 1424 00b0 DDF818E0 		ldr	lr, [sp, #24]
 1425 00b4 DDF814A0 		ldr	r10, [sp, #20]
 1426 00b8 5BE0     		b	.L75
 1427              	.LVL150:
 1428              	.L76:
 732:lvgl/src/draw/lv_draw_blend.c ****                 disp_buf_first += disp_w;
 1429              		.loc 1 732 17 is_stmt 1 discriminator 3 view .LVU469
 1430 00ba 6A00     		lsls	r2, r5, #1
 1431 00bc 3146     		mov	r1, r6
 1432 00be 2046     		mov	r0, r4
 1433 00c0 FFF7FEFF 		bl	lv_memcpy
 1434              	.LVL151:
 733:lvgl/src/draw/lv_draw_blend.c ****                 map_buf_first += map_w;
 1435              		.loc 1 733 17 discriminator 3 view .LVU470
 733:lvgl/src/draw/lv_draw_blend.c ****                 map_buf_first += map_w;
 1436              		.loc 1 733 32 is_stmt 0 discriminator 3 view .LVU471
 1437 00c4 04EB4A04 		add	r4, r4, r10, lsl #1
 1438              	.LVL152:
 734:lvgl/src/draw/lv_draw_blend.c ****             }
 1439              		.loc 1 734 17 is_stmt 1 discriminator 3 view .LVU472
 734:lvgl/src/draw/lv_draw_blend.c ****             }
 1440              		.loc 1 734 31 is_stmt 0 discriminator 3 view .LVU473
ARM GAS  C:\Users\BLACK_~1\AppData\Local\Temp\ccXqf4MH.s 			page 60


 1441 00c8 06EB4906 		add	r6, r6, r9, lsl #1
 1442              	.LVL153:
 731:lvgl/src/draw/lv_draw_blend.c ****                 lv_memcpy(disp_buf_first, map_buf_first, draw_area_w * sizeof(lv_color_t));
 1443              		.loc 1 731 41 is_stmt 1 discriminator 3 view .LVU474
 731:lvgl/src/draw/lv_draw_blend.c ****                 lv_memcpy(disp_buf_first, map_buf_first, draw_area_w * sizeof(lv_color_t));
 1444              		.loc 1 731 42 is_stmt 0 discriminator 3 view .LVU475
 1445 00cc 0137     		adds	r7, r7, #1
 1446              	.LVL154:
 1447              	.L74:
 731:lvgl/src/draw/lv_draw_blend.c ****                 lv_memcpy(disp_buf_first, map_buf_first, draw_area_w * sizeof(lv_color_t));
 1448              		.loc 1 731 24 is_stmt 1 discriminator 1 view .LVU476
 731:lvgl/src/draw/lv_draw_blend.c ****                 lv_memcpy(disp_buf_first, map_buf_first, draw_area_w * sizeof(lv_color_t));
 1449              		.loc 1 731 13 is_stmt 0 discriminator 1 view .LVU477
 1450 00ce 4745     		cmp	r7, r8
 1451 00d0 F3DB     		blt	.L76
 1452              	.LVL155:
 1453              	.L72:
 888:lvgl/src/draw/lv_draw_blend.c **** #if LV_DRAW_COMPLEX
 1454              		.loc 1 888 1 view .LVU478
 1455 00d2 0DB0     		add	sp, sp, #52
 1456              	.LCFI15:
 1457              		.cfi_remember_state
 1458              		.cfi_def_cfa_offset 36
 1459              		@ sp needed
 1460 00d4 BDE8F08F 		pop	{r4, r5, r6, r7, r8, r9, r10, fp, pc}
 1461              	.LVL156:
 1462              	.L106:
 1463              	.LCFI16:
 1464              		.cfi_restore_state
 731:lvgl/src/draw/lv_draw_blend.c ****                 lv_memcpy(disp_buf_first, map_buf_first, draw_area_w * sizeof(lv_color_t));
 1465              		.loc 1 731 19 view .LVU479
 1466 00d8 0027     		movs	r7, #0
 1467 00da DDF81880 		ldr	r8, [sp, #24]
 1468 00de DDF81090 		ldr	r9, [sp, #16]
 1469 00e2 DDF814A0 		ldr	r10, [sp, #20]
 1470 00e6 F2E7     		b	.L74
 1471              	.LVL157:
 1472              	.L78:
 792:lvgl/src/draw/lv_draw_blend.c ****                     }
 1473              		.loc 1 792 25 is_stmt 1 discriminator 3 view .LVU480
 1474 00e8 36F81170 		ldrh	r7, [r6, r1, lsl #1]
 1475 00ec 34F811B0 		ldrh	fp, [r4, r1, lsl #1]
 1476              	.LVL158:
 1477              	.LBB151:
 1478              	.LBI151:
 459:lvgl/src/draw/../misc/lv_color.h **** {
 1479              		.loc 3 459 48 discriminator 3 view .LVU481
 1480              	.LBB152:
 461:lvgl/src/draw/../misc/lv_color.h **** #if LV_COLOR_DEPTH != 1
 1481              		.loc 3 461 5 discriminator 3 view .LVU482
 464:lvgl/src/draw/../misc/lv_color.h ****                                         (255 - mix) + LV_COLOR_MIX_ROUND_OFS));
 1482              		.loc 3 464 5 discriminator 3 view .LVU483
 464:lvgl/src/draw/../misc/lv_color.h ****                                         (255 - mix) + LV_COLOR_MIX_ROUND_OFS));
 1483              		.loc 3 464 5 is_stmt 0 discriminator 3 view .LVU484
 1484 00f0 C7F3C420 		ubfx	r0, r7, #11, #5
 1485              	.LVL159:
 464:lvgl/src/draw/../misc/lv_color.h ****                                         (255 - mix) + LV_COLOR_MIX_ROUND_OFS));
ARM GAS  C:\Users\BLACK_~1\AppData\Local\Temp\ccXqf4MH.s 			page 61


 1486              		.loc 3 464 5 discriminator 3 view .LVU485
 1487 00f4 CBF3C423 		ubfx	r3, fp, #11, #5
 1488 00f8 C8F1FF02 		rsb	r2, r8, #255
 1489 00fc 02FB03F3 		mul	r3, r2, r3
 1490 0100 08FB0033 		mla	r3, r8, r0, r3
 1491 0104 8033     		adds	r3, r3, #128
 1492 0106 03EB0320 		add	r0, r3, r3, lsl #8
 1493 010a 03EBC013 		add	r3, r3, r0, lsl #7
 1494 010e C3F3C453 		ubfx	r3, r3, #23, #5
 1495 0112 63F3CF29 		bfi	r9, r3, #11, #5
 466:lvgl/src/draw/../misc/lv_color.h ****                                         (255 - mix) + LV_COLOR_MIX_ROUND_OFS));
 1496              		.loc 3 466 5 is_stmt 1 discriminator 3 view .LVU486
 1497 0116 C7F34513 		ubfx	r3, r7, #5, #6
 1498 011a CBF34510 		ubfx	r0, fp, #5, #6
 1499 011e 02FB00F0 		mul	r0, r2, r0
 1500 0122 03FB0800 		mla	r0, r3, r8, r0
 1501 0126 8030     		adds	r0, r0, #128
 1502 0128 00EB0023 		add	r3, r0, r0, lsl #8
 1503 012c 00EBC310 		add	r0, r0, r3, lsl #7
 1504 0130 C0F3C550 		ubfx	r0, r0, #23, #6
 1505 0134 60F34A19 		bfi	r9, r0, #5, #6
 468:lvgl/src/draw/../misc/lv_color.h ****                                         (255 - mix) + LV_COLOR_MIX_ROUND_OFS));
 1506              		.loc 3 468 5 discriminator 3 view .LVU487
 1507 0138 07F01F07 		and	r7, r7, #31
 1508              	.LVL160:
 468:lvgl/src/draw/../misc/lv_color.h ****                                         (255 - mix) + LV_COLOR_MIX_ROUND_OFS));
 1509              		.loc 3 468 5 is_stmt 0 discriminator 3 view .LVU488
 1510 013c 0BF01F03 		and	r3, fp, #31
 1511 0140 02FB03F3 		mul	r3, r2, r3
 1512 0144 07FB0833 		mla	r3, r7, r8, r3
 1513 0148 8033     		adds	r3, r3, #128
 1514 014a 03EB0322 		add	r2, r3, r3, lsl #8
 1515 014e 03EBC213 		add	r3, r3, r2, lsl #7
 1516 0152 C3F3C453 		ubfx	r3, r3, #23, #5
 1517 0156 63F30409 		bfi	r9, r3, #0, #5
 470:lvgl/src/draw/../misc/lv_color.h **** #else
 1518              		.loc 3 470 5 is_stmt 1 discriminator 3 view .LVU489
 470:lvgl/src/draw/../misc/lv_color.h **** #else
 1519              		.loc 3 470 5 discriminator 3 view .LVU490
 470:lvgl/src/draw/../misc/lv_color.h **** #else
 1520              		.loc 3 470 5 discriminator 3 view .LVU491
 1521              		.loc 3 476 5 discriminator 3 view .LVU492
 1522              	.LVL161:
 1523              		.loc 3 476 5 is_stmt 0 discriminator 3 view .LVU493
 1524              	.LBE152:
 1525              	.LBE151:
 792:lvgl/src/draw/lv_draw_blend.c ****                     }
 1526              		.loc 1 792 45 discriminator 3 view .LVU494
 1527 015a 24F81190 		strh	r9, [r4, r1, lsl #1]	@ movhi
 783:lvgl/src/draw/lv_draw_blend.c **** #if LV_COLOR_SCREEN_TRANSP
 1528              		.loc 1 783 45 is_stmt 1 discriminator 3 view .LVU495
 783:lvgl/src/draw/lv_draw_blend.c **** #if LV_COLOR_SCREEN_TRANSP
 1529              		.loc 1 783 46 is_stmt 0 discriminator 3 view .LVU496
 1530 015e 0131     		adds	r1, r1, #1
 1531              	.LVL162:
 1532              	.L79:
 783:lvgl/src/draw/lv_draw_blend.c **** #if LV_COLOR_SCREEN_TRANSP
ARM GAS  C:\Users\BLACK_~1\AppData\Local\Temp\ccXqf4MH.s 			page 62


 1533              		.loc 1 783 28 is_stmt 1 discriminator 1 view .LVU497
 783:lvgl/src/draw/lv_draw_blend.c **** #if LV_COLOR_SCREEN_TRANSP
 1534              		.loc 1 783 17 is_stmt 0 discriminator 1 view .LVU498
 1535 0160 A942     		cmp	r1, r5
 1536 0162 C1DB     		blt	.L78
 795:lvgl/src/draw/lv_draw_blend.c ****                 map_buf_first += map_w;
 1537              		.loc 1 795 17 is_stmt 1 discriminator 2 view .LVU499
 795:lvgl/src/draw/lv_draw_blend.c ****                 map_buf_first += map_w;
 1538              		.loc 1 795 32 is_stmt 0 discriminator 2 view .LVU500
 1539 0164 04EB4A04 		add	r4, r4, r10, lsl #1
 1540              	.LVL163:
 796:lvgl/src/draw/lv_draw_blend.c ****             }
 1541              		.loc 1 796 17 is_stmt 1 discriminator 2 view .LVU501
 796:lvgl/src/draw/lv_draw_blend.c ****             }
 1542              		.loc 1 796 31 is_stmt 0 discriminator 2 view .LVU502
 1543 0168 049B     		ldr	r3, [sp, #16]
 1544 016a 06EB4306 		add	r6, r6, r3, lsl #1
 1545              	.LVL164:
 782:lvgl/src/draw/lv_draw_blend.c ****                 for(x = 0; x < draw_area_w; x++) {
 1546              		.loc 1 782 41 is_stmt 1 discriminator 2 view .LVU503
 782:lvgl/src/draw/lv_draw_blend.c ****                 for(x = 0; x < draw_area_w; x++) {
 1547              		.loc 1 782 42 is_stmt 0 discriminator 2 view .LVU504
 1548 016e 0CF1010C 		add	ip, ip, #1
 1549              	.LVL165:
 1550              	.L75:
 782:lvgl/src/draw/lv_draw_blend.c ****                 for(x = 0; x < draw_area_w; x++) {
 1551              		.loc 1 782 24 is_stmt 1 discriminator 1 view .LVU505
 782:lvgl/src/draw/lv_draw_blend.c ****                 for(x = 0; x < draw_area_w; x++) {
 1552              		.loc 1 782 13 is_stmt 0 discriminator 1 view .LVU506
 1553 0172 F445     		cmp	ip, lr
 1554 0174 ADDA     		bge	.L72
 783:lvgl/src/draw/lv_draw_blend.c **** #if LV_COLOR_SCREEN_TRANSP
 1555              		.loc 1 783 23 view .LVU507
 1556 0176 0021     		movs	r1, #0
 1557 0178 F2E7     		b	.L79
 1558              	.LVL166:
 1559              	.L83:
 1560              	.LBB153:
 1561              	.LBB137:
 819:lvgl/src/draw/lv_draw_blend.c **** #endif
 1562              		.loc 1 819 21 is_stmt 1 discriminator 4 view .LVU508
 1563 017a 36F81390 		ldrh	r9, [r6, r3, lsl #1]
 1564 017e 34F813A0 		ldrh	r10, [r4, r3, lsl #1]
 1565              	.LVL167:
 1566              	.LBB138:
 1567              	.LBI138:
 459:lvgl/src/draw/../misc/lv_color.h **** {
 1568              		.loc 3 459 48 discriminator 4 view .LVU509
 1569              	.LBB139:
 461:lvgl/src/draw/../misc/lv_color.h **** #if LV_COLOR_DEPTH != 1
 1570              		.loc 3 461 5 discriminator 4 view .LVU510
 464:lvgl/src/draw/../misc/lv_color.h ****                                         (255 - mix) + LV_COLOR_MIX_ROUND_OFS));
 1571              		.loc 3 464 5 discriminator 4 view .LVU511
 464:lvgl/src/draw/../misc/lv_color.h ****                                         (255 - mix) + LV_COLOR_MIX_ROUND_OFS));
 1572              		.loc 3 464 5 is_stmt 0 discriminator 4 view .LVU512
 1573 0182 C9F3C42E 		ubfx	lr, r9, #11, #5
 1574              	.LVL168:
ARM GAS  C:\Users\BLACK_~1\AppData\Local\Temp\ccXqf4MH.s 			page 63


 464:lvgl/src/draw/../misc/lv_color.h ****                                         (255 - mix) + LV_COLOR_MIX_ROUND_OFS));
 1575              		.loc 3 464 5 discriminator 4 view .LVU513
 1576 0186 CAF3C421 		ubfx	r1, r10, #11, #5
 1577 018a C8F1FF00 		rsb	r0, r8, #255
 1578              	.LVL169:
 464:lvgl/src/draw/../misc/lv_color.h ****                                         (255 - mix) + LV_COLOR_MIX_ROUND_OFS));
 1579              		.loc 3 464 5 discriminator 4 view .LVU514
 1580 018e 00FB01F1 		mul	r1, r0, r1
 1581 0192 08FB0E11 		mla	r1, r8, lr, r1
 1582 0196 8031     		adds	r1, r1, #128
 1583 0198 01EB012E 		add	lr, r1, r1, lsl #8
 1584 019c 01EBCE11 		add	r1, r1, lr, lsl #7
 1585 01a0 C1F3C451 		ubfx	r1, r1, #23, #5
 1586 01a4 61F3CF27 		bfi	r7, r1, #11, #5
 466:lvgl/src/draw/../misc/lv_color.h ****                                         (255 - mix) + LV_COLOR_MIX_ROUND_OFS));
 1587              		.loc 3 466 5 is_stmt 1 discriminator 4 view .LVU515
 1588 01a8 C9F34511 		ubfx	r1, r9, #5, #6
 1589 01ac CAF3451E 		ubfx	lr, r10, #5, #6
 1590 01b0 0EFB00FE 		mul	lr, lr, r0
 1591 01b4 01FB08EE 		mla	lr, r1, r8, lr
 1592 01b8 0EF1800E 		add	lr, lr, #128
 1593 01bc 0EEB0E21 		add	r1, lr, lr, lsl #8
 1594 01c0 0EEBC11E 		add	lr, lr, r1, lsl #7
 1595 01c4 CEF3C55E 		ubfx	lr, lr, #23, #6
 1596 01c8 6EF34A17 		bfi	r7, lr, #5, #6
 468:lvgl/src/draw/../misc/lv_color.h ****                                         (255 - mix) + LV_COLOR_MIX_ROUND_OFS));
 1597              		.loc 3 468 5 discriminator 4 view .LVU516
 1598 01cc 09F01F09 		and	r9, r9, #31
 1599              	.LVL170:
 468:lvgl/src/draw/../misc/lv_color.h ****                                         (255 - mix) + LV_COLOR_MIX_ROUND_OFS));
 1600              		.loc 3 468 5 is_stmt 0 discriminator 4 view .LVU517
 1601 01d0 0AF01F01 		and	r1, r10, #31
 1602 01d4 00FB01F1 		mul	r1, r0, r1
 1603 01d8 09FB0811 		mla	r1, r9, r8, r1
 1604 01dc 8031     		adds	r1, r1, #128
 1605 01de 01EB0120 		add	r0, r1, r1, lsl #8
 1606 01e2 01EBC011 		add	r1, r1, r0, lsl #7
 1607 01e6 C1F3C451 		ubfx	r1, r1, #23, #5
 1608 01ea 61F30407 		bfi	r7, r1, #0, #5
 470:lvgl/src/draw/../misc/lv_color.h **** #else
 1609              		.loc 3 470 5 is_stmt 1 discriminator 4 view .LVU518
 470:lvgl/src/draw/../misc/lv_color.h **** #else
 1610              		.loc 3 470 5 discriminator 4 view .LVU519
 470:lvgl/src/draw/../misc/lv_color.h **** #else
 1611              		.loc 3 470 5 discriminator 4 view .LVU520
 1612              		.loc 3 476 5 discriminator 4 view .LVU521
 1613              	.LVL171:
 1614              		.loc 3 476 5 is_stmt 0 discriminator 4 view .LVU522
 1615              	.LBE139:
 1616              	.LBE138:
 819:lvgl/src/draw/lv_draw_blend.c **** #endif
 1617              		.loc 1 819 21 discriminator 4 view .LVU523
 1618 01ee 24F81370 		strh	r7, [r4, r3, lsl #1]	@ movhi
 1619              	.LVL172:
 1620              	.L82:
 819:lvgl/src/draw/lv_draw_blend.c **** #endif
 1621              		.loc 1 819 21 is_stmt 1 discriminator 6 view .LVU524
ARM GAS  C:\Users\BLACK_~1\AppData\Local\Temp\ccXqf4MH.s 			page 64


 1622 01f2 0132     		adds	r2, r2, #1
 1623              	.LVL173:
 815:lvgl/src/draw/lv_draw_blend.c **** #if LV_COLOR_SCREEN_TRANSP
 1624              		.loc 1 815 81 discriminator 6 view .LVU525
 815:lvgl/src/draw/lv_draw_blend.c **** #if LV_COLOR_SCREEN_TRANSP
 1625              		.loc 1 815 82 is_stmt 0 discriminator 6 view .LVU526
 1626 01f4 0133     		adds	r3, r3, #1
 1627              	.LVL174:
 1628              	.L101:
 815:lvgl/src/draw/lv_draw_blend.c **** #if LV_COLOR_SCREEN_TRANSP
 1629              		.loc 1 815 28 is_stmt 1 discriminator 2 view .LVU527
 815:lvgl/src/draw/lv_draw_blend.c **** #if LV_COLOR_SCREEN_TRANSP
 1630              		.loc 1 815 17 is_stmt 0 discriminator 2 view .LVU528
 1631 01f6 AB42     		cmp	r3, r5
 1632 01f8 80F26D81 		bge	.L112
 815:lvgl/src/draw/lv_draw_blend.c **** #if LV_COLOR_SCREEN_TRANSP
 1633              		.loc 1 815 44 discriminator 3 view .LVU529
 1634 01fc 12F0030F 		tst	r2, #3
 1635 0200 0CD0     		beq	.L115
 819:lvgl/src/draw/lv_draw_blend.c **** #endif
 1636              		.loc 1 819 21 is_stmt 1 view .LVU530
 1637 0202 92F80080 		ldrb	r8, [r2]	@ zero_extendqisi2
 1638              	.LVL175:
 819:lvgl/src/draw/lv_draw_blend.c **** #endif
 1639              		.loc 1 819 21 is_stmt 0 view .LVU531
 1640 0206 B8F1000F 		cmp	r8, #0
 1641 020a F2D0     		beq	.L82
 819:lvgl/src/draw/lv_draw_blend.c **** #endif
 1642              		.loc 1 819 21 is_stmt 1 discriminator 1 view .LVU532
 1643 020c B8F1FF0F 		cmp	r8, #255
 1644 0210 B3D1     		bne	.L83
 819:lvgl/src/draw/lv_draw_blend.c **** #endif
 1645              		.loc 1 819 21 discriminator 3 view .LVU533
 1646 0212 36F81310 		ldrh	r1, [r6, r3, lsl #1]
 1647 0216 24F81310 		strh	r1, [r4, r3, lsl #1]	@ movhi
 1648 021a EAE7     		b	.L82
 1649              	.LVL176:
 1650              	.L115:
 819:lvgl/src/draw/lv_draw_blend.c **** #endif
 1651              		.loc 1 819 21 is_stmt 0 discriminator 3 view .LVU534
 1652 021c 0995     		str	r5, [sp, #36]
 1653 021e ADF828C0 		strh	ip, [sp, #40]	@ movhi
 1654 0222 BDF808C0 		ldrh	ip, [sp, #8]
 1655              	.LVL177:
 819:lvgl/src/draw/lv_draw_blend.c **** #endif
 1656              		.loc 1 819 21 discriminator 3 view .LVU535
 1657 0226 BDF81CE0 		ldrh	lr, [sp, #28]
 1658              	.LVL178:
 819:lvgl/src/draw/lv_draw_blend.c **** #endif
 1659              		.loc 1 819 21 discriminator 3 view .LVU536
 1660 022a BDF82280 		ldrh	r8, [sp, #34]
 1661              	.LVL179:
 819:lvgl/src/draw/lv_draw_blend.c **** #endif
 1662              		.loc 1 819 21 discriminator 3 view .LVU537
 1663 022e ADF82A70 		strh	r7, [sp, #42]	@ movhi
 1664 0232 14E0     		b	.L95
 1665              	.LVL180:
ARM GAS  C:\Users\BLACK_~1\AppData\Local\Temp\ccXqf4MH.s 			page 65


 1666              	.L117:
 827:lvgl/src/draw/lv_draw_blend.c ****                             disp_buf_first[x + 1] = map_buf_first[x + 1];
 1667              		.loc 1 827 29 is_stmt 1 view .LVU538
 827:lvgl/src/draw/lv_draw_blend.c ****                             disp_buf_first[x + 1] = map_buf_first[x + 1];
 1668              		.loc 1 827 47 is_stmt 0 view .LVU539
 1669 0234 36F81310 		ldrh	r1, [r6, r3, lsl #1]
 1670 0238 24F81310 		strh	r1, [r4, r3, lsl #1]	@ movhi
 828:lvgl/src/draw/lv_draw_blend.c ****                             disp_buf_first[x + 2] = map_buf_first[x + 2];
 1671              		.loc 1 828 29 is_stmt 1 view .LVU540
 828:lvgl/src/draw/lv_draw_blend.c ****                             disp_buf_first[x + 2] = map_buf_first[x + 2];
 1672              		.loc 1 828 66 is_stmt 0 view .LVU541
 1673 023c 591C     		adds	r1, r3, #1
 828:lvgl/src/draw/lv_draw_blend.c ****                             disp_buf_first[x + 2] = map_buf_first[x + 2];
 1674              		.loc 1 828 51 view .LVU542
 1675 023e 36F81100 		ldrh	r0, [r6, r1, lsl #1]
 1676              	.LVL181:
 828:lvgl/src/draw/lv_draw_blend.c ****                             disp_buf_first[x + 2] = map_buf_first[x + 2];
 1677              		.loc 1 828 51 view .LVU543
 1678 0242 24F81100 		strh	r0, [r4, r1, lsl #1]	@ movhi
 829:lvgl/src/draw/lv_draw_blend.c ****                             disp_buf_first[x + 3] = map_buf_first[x + 3];
 1679              		.loc 1 829 29 is_stmt 1 view .LVU544
 829:lvgl/src/draw/lv_draw_blend.c ****                             disp_buf_first[x + 3] = map_buf_first[x + 3];
 1680              		.loc 1 829 66 is_stmt 0 view .LVU545
 1681 0246 991C     		adds	r1, r3, #2
 829:lvgl/src/draw/lv_draw_blend.c ****                             disp_buf_first[x + 3] = map_buf_first[x + 3];
 1682              		.loc 1 829 51 view .LVU546
 1683 0248 36F81100 		ldrh	r0, [r6, r1, lsl #1]
 1684 024c 24F81100 		strh	r0, [r4, r1, lsl #1]	@ movhi
 830:lvgl/src/draw/lv_draw_blend.c ****                         }
 1685              		.loc 1 830 29 is_stmt 1 view .LVU547
 830:lvgl/src/draw/lv_draw_blend.c ****                         }
 1686              		.loc 1 830 66 is_stmt 0 view .LVU548
 1687 0250 D91C     		adds	r1, r3, #3
 830:lvgl/src/draw/lv_draw_blend.c ****                         }
 1688              		.loc 1 830 51 view .LVU549
 1689 0252 36F81100 		ldrh	r0, [r6, r1, lsl #1]
 1690 0256 24F81100 		strh	r0, [r4, r1, lsl #1]	@ movhi
 1691              	.LVL182:
 1692              	.L86:
 847:lvgl/src/draw/lv_draw_blend.c ****                 }
 1693              		.loc 1 847 21 is_stmt 1 view .LVU550
 847:lvgl/src/draw/lv_draw_blend.c ****                 }
 1694              		.loc 1 847 27 is_stmt 0 view .LVU551
 1695 025a 0432     		adds	r2, r2, #4
 1696              	.LVL183:
 824:lvgl/src/draw/lv_draw_blend.c ****                     if(*mask32) {
 1697              		.loc 1 824 35 is_stmt 1 view .LVU552
 824:lvgl/src/draw/lv_draw_blend.c ****                     if(*mask32) {
 1698              		.loc 1 824 37 is_stmt 0 view .LVU553
 1699 025c 0433     		adds	r3, r3, #4
 1700              	.LVL184:
 1701              	.L95:
 824:lvgl/src/draw/lv_draw_blend.c ****                     if(*mask32) {
 1702              		.loc 1 824 23 is_stmt 1 discriminator 1 view .LVU554
 824:lvgl/src/draw/lv_draw_blend.c ****                     if(*mask32) {
 1703              		.loc 1 824 17 is_stmt 0 discriminator 1 view .LVU555
 1704 025e 0199     		ldr	r1, [sp, #4]
ARM GAS  C:\Users\BLACK_~1\AppData\Local\Temp\ccXqf4MH.s 			page 66


 1705 0260 8B42     		cmp	r3, r1
 1706 0262 80F24481 		bge	.L116
 825:lvgl/src/draw/lv_draw_blend.c ****                         if((*mask32) == 0xFFFFFFFF) {
 1707              		.loc 1 825 21 is_stmt 1 view .LVU556
 825:lvgl/src/draw/lv_draw_blend.c ****                         if((*mask32) == 0xFFFFFFFF) {
 1708              		.loc 1 825 24 is_stmt 0 view .LVU557
 1709 0266 1168     		ldr	r1, [r2]
 825:lvgl/src/draw/lv_draw_blend.c ****                         if((*mask32) == 0xFFFFFFFF) {
 1710              		.loc 1 825 23 view .LVU558
 1711 0268 0029     		cmp	r1, #0
 1712 026a F6D0     		beq	.L86
 826:lvgl/src/draw/lv_draw_blend.c ****                             disp_buf_first[x] = map_buf_first[x];
 1713              		.loc 1 826 25 is_stmt 1 view .LVU559
 826:lvgl/src/draw/lv_draw_blend.c ****                             disp_buf_first[x] = map_buf_first[x];
 1714              		.loc 1 826 27 is_stmt 0 view .LVU560
 1715 026c B1F1FF3F 		cmp	r1, #-1
 1716 0270 E0D0     		beq	.L117
 833:lvgl/src/draw/lv_draw_blend.c **** #if LV_COLOR_SCREEN_TRANSP
 1717              		.loc 1 833 29 is_stmt 1 view .LVU561
 1718              	.LVL185:
 840:lvgl/src/draw/lv_draw_blend.c ****                             MAP_NORMAL_MASK_PX(x + 1)
 1719              		.loc 1 840 29 view .LVU562
 1720 0272 1578     		ldrb	r5, [r2]	@ zero_extendqisi2
 1721 0274 F5B3     		cbz	r5, .L88
 840:lvgl/src/draw/lv_draw_blend.c ****                             MAP_NORMAL_MASK_PX(x + 1)
 1722              		.loc 1 840 29 discriminator 1 view .LVU563
 1723 0276 FF2D     		cmp	r5, #255
 1724 0278 00F01681 		beq	.L118
 840:lvgl/src/draw/lv_draw_blend.c ****                             MAP_NORMAL_MASK_PX(x + 1)
 1725              		.loc 1 840 29 discriminator 4 view .LVU564
 1726 027c 36F81370 		ldrh	r7, [r6, r3, lsl #1]
 1727              	.LVL186:
 840:lvgl/src/draw/lv_draw_blend.c ****                             MAP_NORMAL_MASK_PX(x + 1)
 1728              		.loc 1 840 29 is_stmt 0 discriminator 4 view .LVU565
 1729 0280 34F81390 		ldrh	r9, [r4, r3, lsl #1]
 1730              	.LVL187:
 1731              	.LBB140:
 1732              	.LBI140:
 459:lvgl/src/draw/../misc/lv_color.h **** {
 1733              		.loc 3 459 48 is_stmt 1 discriminator 4 view .LVU566
 1734              	.LBB141:
 461:lvgl/src/draw/../misc/lv_color.h **** #if LV_COLOR_DEPTH != 1
 1735              		.loc 3 461 5 discriminator 4 view .LVU567
 464:lvgl/src/draw/../misc/lv_color.h ****                                         (255 - mix) + LV_COLOR_MIX_ROUND_OFS));
 1736              		.loc 3 464 5 discriminator 4 view .LVU568
 464:lvgl/src/draw/../misc/lv_color.h ****                                         (255 - mix) + LV_COLOR_MIX_ROUND_OFS));
 1737              		.loc 3 464 5 is_stmt 0 discriminator 4 view .LVU569
 1738 0284 C7F3C42A 		ubfx	r10, r7, #11, #5
 1739              	.LVL188:
 464:lvgl/src/draw/../misc/lv_color.h ****                                         (255 - mix) + LV_COLOR_MIX_ROUND_OFS));
 1740              		.loc 3 464 5 discriminator 4 view .LVU570
 1741 0288 C9F3C420 		ubfx	r0, r9, #11, #5
 1742              	.LVL189:
 464:lvgl/src/draw/../misc/lv_color.h ****                                         (255 - mix) + LV_COLOR_MIX_ROUND_OFS));
 1743              		.loc 3 464 5 discriminator 4 view .LVU571
 1744 028c C5F1FF01 		rsb	r1, r5, #255
 1745 0290 01FB00F0 		mul	r0, r1, r0
ARM GAS  C:\Users\BLACK_~1\AppData\Local\Temp\ccXqf4MH.s 			page 67


 1746 0294 05FB0A00 		mla	r0, r5, r10, r0
 1747 0298 8030     		adds	r0, r0, #128
 1748 029a 00EB002A 		add	r10, r0, r0, lsl #8
 1749 029e 00EBCA10 		add	r0, r0, r10, lsl #7
 1750 02a2 C0F3C450 		ubfx	r0, r0, #23, #5
 1751 02a6 60F3CF28 		bfi	r8, r0, #11, #5
 466:lvgl/src/draw/../misc/lv_color.h ****                                         (255 - mix) + LV_COLOR_MIX_ROUND_OFS));
 1752              		.loc 3 466 5 is_stmt 1 discriminator 4 view .LVU572
 1753 02aa C7F3451A 		ubfx	r10, r7, #5, #6
 1754 02ae C9F34510 		ubfx	r0, r9, #5, #6
 1755 02b2 01FB00F0 		mul	r0, r1, r0
 1756 02b6 0AFB0500 		mla	r0, r10, r5, r0
 1757 02ba 8030     		adds	r0, r0, #128
 1758 02bc 00EB002A 		add	r10, r0, r0, lsl #8
 1759 02c0 00EBCA10 		add	r0, r0, r10, lsl #7
 1760 02c4 C0F3C550 		ubfx	r0, r0, #23, #6
 1761 02c8 60F34A18 		bfi	r8, r0, #5, #6
 468:lvgl/src/draw/../misc/lv_color.h ****                                         (255 - mix) + LV_COLOR_MIX_ROUND_OFS));
 1762              		.loc 3 468 5 discriminator 4 view .LVU573
 1763 02cc 07F01F07 		and	r7, r7, #31
 1764              	.LVL190:
 468:lvgl/src/draw/../misc/lv_color.h ****                                         (255 - mix) + LV_COLOR_MIX_ROUND_OFS));
 1765              		.loc 3 468 5 is_stmt 0 discriminator 4 view .LVU574
 1766 02d0 09F01F09 		and	r9, r9, #31
 1767              	.LVL191:
 468:lvgl/src/draw/../misc/lv_color.h ****                                         (255 - mix) + LV_COLOR_MIX_ROUND_OFS));
 1768              		.loc 3 468 5 discriminator 4 view .LVU575
 1769 02d4 09FB01F9 		mul	r9, r9, r1
 1770 02d8 07FB0599 		mla	r9, r7, r5, r9
 1771 02dc 09F18009 		add	r9, r9, #128
 1772 02e0 09EB0925 		add	r5, r9, r9, lsl #8
 1773              	.LVL192:
 468:lvgl/src/draw/../misc/lv_color.h ****                                         (255 - mix) + LV_COLOR_MIX_ROUND_OFS));
 1774              		.loc 3 468 5 discriminator 4 view .LVU576
 1775 02e4 09EBC519 		add	r9, r9, r5, lsl #7
 1776 02e8 C9F3C459 		ubfx	r9, r9, #23, #5
 1777 02ec 69F30408 		bfi	r8, r9, #0, #5
 470:lvgl/src/draw/../misc/lv_color.h **** #else
 1778              		.loc 3 470 5 is_stmt 1 discriminator 4 view .LVU577
 470:lvgl/src/draw/../misc/lv_color.h **** #else
 1779              		.loc 3 470 5 discriminator 4 view .LVU578
 470:lvgl/src/draw/../misc/lv_color.h **** #else
 1780              		.loc 3 470 5 discriminator 4 view .LVU579
 1781              		.loc 3 476 5 discriminator 4 view .LVU580
 1782              	.LVL193:
 1783              		.loc 3 476 5 is_stmt 0 discriminator 4 view .LVU581
 1784              	.LBE141:
 1785              	.LBE140:
 840:lvgl/src/draw/lv_draw_blend.c ****                             MAP_NORMAL_MASK_PX(x + 1)
 1786              		.loc 1 840 29 discriminator 4 view .LVU582
 1787 02f0 24F81380 		strh	r8, [r4, r3, lsl #1]	@ movhi
 1788              	.LVL194:
 1789              	.L88:
 840:lvgl/src/draw/lv_draw_blend.c ****                             MAP_NORMAL_MASK_PX(x + 1)
 1790              		.loc 1 840 29 is_stmt 1 discriminator 6 view .LVU583
 841:lvgl/src/draw/lv_draw_blend.c ****                             MAP_NORMAL_MASK_PX(x + 2)
 1791              		.loc 1 841 29 discriminator 6 view .LVU584
ARM GAS  C:\Users\BLACK_~1\AppData\Local\Temp\ccXqf4MH.s 			page 68


 1792 02f4 5578     		ldrb	r5, [r2, #1]	@ zero_extendqisi2
 1793 02f6 002D     		cmp	r5, #0
 1794 02f8 40D0     		beq	.L90
 841:lvgl/src/draw/lv_draw_blend.c ****                             MAP_NORMAL_MASK_PX(x + 2)
 1795              		.loc 1 841 29 discriminator 1 view .LVU585
 1796 02fa FF2D     		cmp	r5, #255
 1797 02fc 00F0D980 		beq	.L119
 841:lvgl/src/draw/lv_draw_blend.c ****                             MAP_NORMAL_MASK_PX(x + 2)
 1798              		.loc 1 841 29 discriminator 4 view .LVU586
 1799 0300 03F1010A 		add	r10, r3, #1
 1800              	.LVL195:
 841:lvgl/src/draw/lv_draw_blend.c ****                             MAP_NORMAL_MASK_PX(x + 2)
 1801              		.loc 1 841 29 is_stmt 0 discriminator 4 view .LVU587
 1802 0304 36F81A70 		ldrh	r7, [r6, r10, lsl #1]
 1803              	.LVL196:
 841:lvgl/src/draw/lv_draw_blend.c ****                             MAP_NORMAL_MASK_PX(x + 2)
 1804              		.loc 1 841 29 discriminator 4 view .LVU588
 1805 0308 34F81A90 		ldrh	r9, [r4, r10, lsl #1]
 1806              	.LVL197:
 1807              	.LBB142:
 1808              	.LBI142:
 459:lvgl/src/draw/../misc/lv_color.h **** {
 1809              		.loc 3 459 48 is_stmt 1 discriminator 4 view .LVU589
 1810              	.LBB143:
 461:lvgl/src/draw/../misc/lv_color.h **** #if LV_COLOR_DEPTH != 1
 1811              		.loc 3 461 5 discriminator 4 view .LVU590
 464:lvgl/src/draw/../misc/lv_color.h ****                                         (255 - mix) + LV_COLOR_MIX_ROUND_OFS));
 1812              		.loc 3 464 5 discriminator 4 view .LVU591
 464:lvgl/src/draw/../misc/lv_color.h ****                                         (255 - mix) + LV_COLOR_MIX_ROUND_OFS));
 1813              		.loc 3 464 5 is_stmt 0 discriminator 4 view .LVU592
 1814 030c C7F3C42B 		ubfx	fp, r7, #11, #5
 1815              	.LVL198:
 464:lvgl/src/draw/../misc/lv_color.h ****                                         (255 - mix) + LV_COLOR_MIX_ROUND_OFS));
 1816              		.loc 3 464 5 discriminator 4 view .LVU593
 1817 0310 C9F3C420 		ubfx	r0, r9, #11, #5
 1818              	.LVL199:
 464:lvgl/src/draw/../misc/lv_color.h ****                                         (255 - mix) + LV_COLOR_MIX_ROUND_OFS));
 1819              		.loc 3 464 5 discriminator 4 view .LVU594
 1820 0314 C5F1FF01 		rsb	r1, r5, #255
 1821 0318 01FB00F0 		mul	r0, r1, r0
 1822 031c 05FB0B00 		mla	r0, r5, fp, r0
 1823 0320 8030     		adds	r0, r0, #128
 1824 0322 00EB002B 		add	fp, r0, r0, lsl #8
 1825 0326 00EBCB10 		add	r0, r0, fp, lsl #7
 1826 032a C0F3C450 		ubfx	r0, r0, #23, #5
 1827 032e 60F3CF2E 		bfi	lr, r0, #11, #5
 466:lvgl/src/draw/../misc/lv_color.h ****                                         (255 - mix) + LV_COLOR_MIX_ROUND_OFS));
 1828              		.loc 3 466 5 is_stmt 1 discriminator 4 view .LVU595
 1829 0332 C7F3451B 		ubfx	fp, r7, #5, #6
 1830 0336 C9F34510 		ubfx	r0, r9, #5, #6
 1831 033a 01FB00F0 		mul	r0, r1, r0
 1832 033e 0BFB0500 		mla	r0, fp, r5, r0
 1833 0342 8030     		adds	r0, r0, #128
 1834 0344 00EB002B 		add	fp, r0, r0, lsl #8
 1835 0348 00EBCB10 		add	r0, r0, fp, lsl #7
 1836 034c C0F3C550 		ubfx	r0, r0, #23, #6
 1837 0350 60F34A1E 		bfi	lr, r0, #5, #6
ARM GAS  C:\Users\BLACK_~1\AppData\Local\Temp\ccXqf4MH.s 			page 69


 468:lvgl/src/draw/../misc/lv_color.h ****                                         (255 - mix) + LV_COLOR_MIX_ROUND_OFS));
 1838              		.loc 3 468 5 discriminator 4 view .LVU596
 1839 0354 07F01F07 		and	r7, r7, #31
 1840              	.LVL200:
 468:lvgl/src/draw/../misc/lv_color.h ****                                         (255 - mix) + LV_COLOR_MIX_ROUND_OFS));
 1841              		.loc 3 468 5 is_stmt 0 discriminator 4 view .LVU597
 1842 0358 09F01F09 		and	r9, r9, #31
 1843              	.LVL201:
 468:lvgl/src/draw/../misc/lv_color.h ****                                         (255 - mix) + LV_COLOR_MIX_ROUND_OFS));
 1844              		.loc 3 468 5 discriminator 4 view .LVU598
 1845 035c 09FB01F9 		mul	r9, r9, r1
 1846 0360 07FB0599 		mla	r9, r7, r5, r9
 1847 0364 09F18009 		add	r9, r9, #128
 1848 0368 09EB0921 		add	r1, r9, r9, lsl #8
 1849 036c 09EBC119 		add	r9, r9, r1, lsl #7
 1850 0370 C9F3C459 		ubfx	r9, r9, #23, #5
 1851 0374 69F3040E 		bfi	lr, r9, #0, #5
 470:lvgl/src/draw/../misc/lv_color.h **** #else
 1852              		.loc 3 470 5 is_stmt 1 discriminator 4 view .LVU599
 470:lvgl/src/draw/../misc/lv_color.h **** #else
 1853              		.loc 3 470 5 discriminator 4 view .LVU600
 470:lvgl/src/draw/../misc/lv_color.h **** #else
 1854              		.loc 3 470 5 discriminator 4 view .LVU601
 1855              		.loc 3 476 5 discriminator 4 view .LVU602
 1856              	.LVL202:
 1857              		.loc 3 476 5 is_stmt 0 discriminator 4 view .LVU603
 1858              	.LBE143:
 1859              	.LBE142:
 841:lvgl/src/draw/lv_draw_blend.c ****                             MAP_NORMAL_MASK_PX(x + 2)
 1860              		.loc 1 841 29 discriminator 4 view .LVU604
 1861 0378 24F81AE0 		strh	lr, [r4, r10, lsl #1]	@ movhi
 1862              	.LVL203:
 1863              	.L90:
 841:lvgl/src/draw/lv_draw_blend.c ****                             MAP_NORMAL_MASK_PX(x + 2)
 1864              		.loc 1 841 29 is_stmt 1 discriminator 6 view .LVU605
 842:lvgl/src/draw/lv_draw_blend.c ****                             MAP_NORMAL_MASK_PX(x + 3)
 1865              		.loc 1 842 29 discriminator 6 view .LVU606
 1866 037c 9578     		ldrb	r5, [r2, #2]	@ zero_extendqisi2
 1867 037e 002D     		cmp	r5, #0
 1868 0380 40D0     		beq	.L92
 842:lvgl/src/draw/lv_draw_blend.c ****                             MAP_NORMAL_MASK_PX(x + 3)
 1869              		.loc 1 842 29 discriminator 1 view .LVU607
 1870 0382 FF2D     		cmp	r5, #255
 1871 0384 00F09B80 		beq	.L120
 842:lvgl/src/draw/lv_draw_blend.c ****                             MAP_NORMAL_MASK_PX(x + 3)
 1872              		.loc 1 842 29 discriminator 4 view .LVU608
 1873 0388 03F1020A 		add	r10, r3, #2
 1874              	.LVL204:
 842:lvgl/src/draw/lv_draw_blend.c ****                             MAP_NORMAL_MASK_PX(x + 3)
 1875              		.loc 1 842 29 is_stmt 0 discriminator 4 view .LVU609
 1876 038c 36F81A70 		ldrh	r7, [r6, r10, lsl #1]
 1877              	.LVL205:
 842:lvgl/src/draw/lv_draw_blend.c ****                             MAP_NORMAL_MASK_PX(x + 3)
 1878              		.loc 1 842 29 discriminator 4 view .LVU610
 1879 0390 34F81A90 		ldrh	r9, [r4, r10, lsl #1]
 1880              	.LVL206:
 1881              	.LBB144:
ARM GAS  C:\Users\BLACK_~1\AppData\Local\Temp\ccXqf4MH.s 			page 70


 1882              	.LBI144:
 459:lvgl/src/draw/../misc/lv_color.h **** {
 1883              		.loc 3 459 48 is_stmt 1 discriminator 4 view .LVU611
 1884              	.LBB145:
 461:lvgl/src/draw/../misc/lv_color.h **** #if LV_COLOR_DEPTH != 1
 1885              		.loc 3 461 5 discriminator 4 view .LVU612
 464:lvgl/src/draw/../misc/lv_color.h ****                                         (255 - mix) + LV_COLOR_MIX_ROUND_OFS));
 1886              		.loc 3 464 5 discriminator 4 view .LVU613
 464:lvgl/src/draw/../misc/lv_color.h ****                                         (255 - mix) + LV_COLOR_MIX_ROUND_OFS));
 1887              		.loc 3 464 5 is_stmt 0 discriminator 4 view .LVU614
 1888 0394 C7F3C42B 		ubfx	fp, r7, #11, #5
 1889              	.LVL207:
 464:lvgl/src/draw/../misc/lv_color.h ****                                         (255 - mix) + LV_COLOR_MIX_ROUND_OFS));
 1890              		.loc 3 464 5 discriminator 4 view .LVU615
 1891 0398 C9F3C420 		ubfx	r0, r9, #11, #5
 1892              	.LVL208:
 464:lvgl/src/draw/../misc/lv_color.h ****                                         (255 - mix) + LV_COLOR_MIX_ROUND_OFS));
 1893              		.loc 3 464 5 discriminator 4 view .LVU616
 1894 039c C5F1FF01 		rsb	r1, r5, #255
 1895 03a0 01FB00F0 		mul	r0, r1, r0
 1896 03a4 05FB0B00 		mla	r0, r5, fp, r0
 1897 03a8 8030     		adds	r0, r0, #128
 1898 03aa 00EB002B 		add	fp, r0, r0, lsl #8
 1899 03ae 00EBCB10 		add	r0, r0, fp, lsl #7
 1900 03b2 C0F3C450 		ubfx	r0, r0, #23, #5
 1901 03b6 60F3CF2C 		bfi	ip, r0, #11, #5
 466:lvgl/src/draw/../misc/lv_color.h ****                                         (255 - mix) + LV_COLOR_MIX_ROUND_OFS));
 1902              		.loc 3 466 5 is_stmt 1 discriminator 4 view .LVU617
 1903 03ba C7F3451B 		ubfx	fp, r7, #5, #6
 1904 03be C9F34510 		ubfx	r0, r9, #5, #6
 1905 03c2 01FB00F0 		mul	r0, r1, r0
 1906 03c6 0BFB0500 		mla	r0, fp, r5, r0
 1907 03ca 8030     		adds	r0, r0, #128
 1908 03cc 00EB002B 		add	fp, r0, r0, lsl #8
 1909 03d0 00EBCB10 		add	r0, r0, fp, lsl #7
 1910 03d4 C0F3C550 		ubfx	r0, r0, #23, #6
 1911 03d8 60F34A1C 		bfi	ip, r0, #5, #6
 468:lvgl/src/draw/../misc/lv_color.h ****                                         (255 - mix) + LV_COLOR_MIX_ROUND_OFS));
 1912              		.loc 3 468 5 discriminator 4 view .LVU618
 1913 03dc 07F01F07 		and	r7, r7, #31
 1914              	.LVL209:
 468:lvgl/src/draw/../misc/lv_color.h ****                                         (255 - mix) + LV_COLOR_MIX_ROUND_OFS));
 1915              		.loc 3 468 5 is_stmt 0 discriminator 4 view .LVU619
 1916 03e0 09F01F09 		and	r9, r9, #31
 1917              	.LVL210:
 468:lvgl/src/draw/../misc/lv_color.h ****                                         (255 - mix) + LV_COLOR_MIX_ROUND_OFS));
 1918              		.loc 3 468 5 discriminator 4 view .LVU620
 1919 03e4 09FB01F9 		mul	r9, r9, r1
 1920 03e8 07FB0599 		mla	r9, r7, r5, r9
 1921 03ec 09F18009 		add	r9, r9, #128
 1922 03f0 09EB0921 		add	r1, r9, r9, lsl #8
 1923 03f4 09EBC119 		add	r9, r9, r1, lsl #7
 1924 03f8 C9F3C459 		ubfx	r9, r9, #23, #5
 1925 03fc 69F3040C 		bfi	ip, r9, #0, #5
 470:lvgl/src/draw/../misc/lv_color.h **** #else
 1926              		.loc 3 470 5 is_stmt 1 discriminator 4 view .LVU621
 470:lvgl/src/draw/../misc/lv_color.h **** #else
ARM GAS  C:\Users\BLACK_~1\AppData\Local\Temp\ccXqf4MH.s 			page 71


 1927              		.loc 3 470 5 discriminator 4 view .LVU622
