ARM GAS  C:\Users\BLACK_~1\AppData\Local\Temp\ccSDhoe1.s 			page 1


   1              		.cpu cortex-m4
   2              		.arch armv7e-m
   3              		.fpu fpv4-sp-d16
   4              		.eabi_attribute 27, 1
   5              		.eabi_attribute 28, 1
   6              		.eabi_attribute 20, 1
   7              		.eabi_attribute 21, 1
   8              		.eabi_attribute 23, 3
   9              		.eabi_attribute 24, 1
  10              		.eabi_attribute 25, 1
  11              		.eabi_attribute 26, 1
  12              		.eabi_attribute 30, 1
  13              		.eabi_attribute 34, 1
  14              		.eabi_attribute 18, 4
  15              		.file	"lv_hal_disp.c"
  16              		.text
  17              	.Ltext0:
  18              		.cfi_sections	.debug_frame
  19              		.section	.text.invalidate_layout_cb,"ax",%progbits
  20              		.align	1
  21              		.syntax unified
  22              		.thumb
  23              		.thumb_func
  25              	invalidate_layout_cb:
  26              	.LVL0:
  27              	.LFB164:
  28              		.file 1 "lvgl/src/hal/lv_hal_disp.c"
   1:lvgl/src/hal/lv_hal_disp.c **** /**
   2:lvgl/src/hal/lv_hal_disp.c ****  * @file lv_hal_disp.c
   3:lvgl/src/hal/lv_hal_disp.c ****  *
   4:lvgl/src/hal/lv_hal_disp.c ****  * @description HAL layer for display driver
   5:lvgl/src/hal/lv_hal_disp.c ****  *
   6:lvgl/src/hal/lv_hal_disp.c ****  */
   7:lvgl/src/hal/lv_hal_disp.c **** 
   8:lvgl/src/hal/lv_hal_disp.c **** /*********************
   9:lvgl/src/hal/lv_hal_disp.c ****  *      INCLUDES
  10:lvgl/src/hal/lv_hal_disp.c ****  *********************/
  11:lvgl/src/hal/lv_hal_disp.c **** #include <stdint.h>
  12:lvgl/src/hal/lv_hal_disp.c **** #include <stddef.h>
  13:lvgl/src/hal/lv_hal_disp.c **** #include "lv_hal.h"
  14:lvgl/src/hal/lv_hal_disp.c **** #include "../misc/lv_mem.h"
  15:lvgl/src/hal/lv_hal_disp.c **** #include "../misc/lv_gc.h"
  16:lvgl/src/hal/lv_hal_disp.c **** #include "../misc/lv_assert.h"
  17:lvgl/src/hal/lv_hal_disp.c **** #include "../core/lv_obj.h"
  18:lvgl/src/hal/lv_hal_disp.c **** #include "../core/lv_refr.h"
  19:lvgl/src/hal/lv_hal_disp.c **** #include "../core/lv_theme.h"
  20:lvgl/src/hal/lv_hal_disp.c **** #if LV_USE_THEME_DEFAULT
  21:lvgl/src/hal/lv_hal_disp.c **** #include "../extra/themes/default/lv_theme_default.h"
  22:lvgl/src/hal/lv_hal_disp.c **** #endif
  23:lvgl/src/hal/lv_hal_disp.c **** 
  24:lvgl/src/hal/lv_hal_disp.c **** /*********************
  25:lvgl/src/hal/lv_hal_disp.c ****  *      DEFINES
  26:lvgl/src/hal/lv_hal_disp.c ****  *********************/
  27:lvgl/src/hal/lv_hal_disp.c **** 
  28:lvgl/src/hal/lv_hal_disp.c **** /**********************
  29:lvgl/src/hal/lv_hal_disp.c ****  *      TYPEDEFS
  30:lvgl/src/hal/lv_hal_disp.c ****  **********************/
ARM GAS  C:\Users\BLACK_~1\AppData\Local\Temp\ccSDhoe1.s 			page 2


  31:lvgl/src/hal/lv_hal_disp.c **** 
  32:lvgl/src/hal/lv_hal_disp.c **** /**********************
  33:lvgl/src/hal/lv_hal_disp.c ****  *  STATIC PROTOTYPES
  34:lvgl/src/hal/lv_hal_disp.c ****  **********************/
  35:lvgl/src/hal/lv_hal_disp.c **** static lv_obj_tree_walk_res_t invalidate_layout_cb(lv_obj_t * obj, void * user_data);
  36:lvgl/src/hal/lv_hal_disp.c **** 
  37:lvgl/src/hal/lv_hal_disp.c **** /**********************
  38:lvgl/src/hal/lv_hal_disp.c ****  *  STATIC VARIABLES
  39:lvgl/src/hal/lv_hal_disp.c ****  **********************/
  40:lvgl/src/hal/lv_hal_disp.c **** static lv_disp_t * disp_def;
  41:lvgl/src/hal/lv_hal_disp.c **** 
  42:lvgl/src/hal/lv_hal_disp.c **** /**********************
  43:lvgl/src/hal/lv_hal_disp.c ****  *      MACROS
  44:lvgl/src/hal/lv_hal_disp.c ****  **********************/
  45:lvgl/src/hal/lv_hal_disp.c **** 
  46:lvgl/src/hal/lv_hal_disp.c **** /**********************
  47:lvgl/src/hal/lv_hal_disp.c ****  *   GLOBAL FUNCTIONS
  48:lvgl/src/hal/lv_hal_disp.c ****  **********************/
  49:lvgl/src/hal/lv_hal_disp.c **** 
  50:lvgl/src/hal/lv_hal_disp.c **** /**
  51:lvgl/src/hal/lv_hal_disp.c ****  * Initialize a display driver with default values.
  52:lvgl/src/hal/lv_hal_disp.c ****  * It is used to surly have known values in the fields ant not memory junk.
  53:lvgl/src/hal/lv_hal_disp.c ****  * After it you can set the fields.
  54:lvgl/src/hal/lv_hal_disp.c ****  * @param driver pointer to driver variable to initialize
  55:lvgl/src/hal/lv_hal_disp.c ****  */
  56:lvgl/src/hal/lv_hal_disp.c **** void lv_disp_drv_init(lv_disp_drv_t * driver)
  57:lvgl/src/hal/lv_hal_disp.c **** {
  58:lvgl/src/hal/lv_hal_disp.c ****     lv_memset_00(driver, sizeof(lv_disp_drv_t));
  59:lvgl/src/hal/lv_hal_disp.c **** 
  60:lvgl/src/hal/lv_hal_disp.c ****     driver->hor_res          = 320;
  61:lvgl/src/hal/lv_hal_disp.c ****     driver->ver_res          = 240;
  62:lvgl/src/hal/lv_hal_disp.c ****     driver->antialiasing     = LV_COLOR_DEPTH > 8 ? 1: 0;
  63:lvgl/src/hal/lv_hal_disp.c ****     driver->screen_transp    = LV_COLOR_SCREEN_TRANSP;
  64:lvgl/src/hal/lv_hal_disp.c ****     driver->dpi              = LV_DPI_DEF;
  65:lvgl/src/hal/lv_hal_disp.c ****     driver->color_chroma_key = LV_COLOR_CHROMA_KEY;
  66:lvgl/src/hal/lv_hal_disp.c **** }
  67:lvgl/src/hal/lv_hal_disp.c **** 
  68:lvgl/src/hal/lv_hal_disp.c **** /**
  69:lvgl/src/hal/lv_hal_disp.c ****  * Initialize a display buffer
  70:lvgl/src/hal/lv_hal_disp.c ****  * @param draw_buf pointer `lv_disp_draw_buf_t` variable to initialize
  71:lvgl/src/hal/lv_hal_disp.c ****  * @param buf1 A buffer to be used by LVGL to draw the image.
  72:lvgl/src/hal/lv_hal_disp.c ****  *             Always has to specified and can't be NULL.
  73:lvgl/src/hal/lv_hal_disp.c ****  *             Can be an array allocated by the user. E.g. `static lv_color_t disp_buf1[1024 * 10]`
  74:lvgl/src/hal/lv_hal_disp.c ****  *             Or a memory address e.g. in external SRAM
  75:lvgl/src/hal/lv_hal_disp.c ****  * @param buf2 Optionally specify a second buffer to make image rendering and image flushing
  76:lvgl/src/hal/lv_hal_disp.c ****  *             (sending to the display) parallel.
  77:lvgl/src/hal/lv_hal_disp.c ****  *             In the `disp_drv->flush` you should use DMA or similar hardware to send
  78:lvgl/src/hal/lv_hal_disp.c ****  *             the image to the display in the background.
  79:lvgl/src/hal/lv_hal_disp.c ****  *             It lets LVGL to render next frame into the other buffer while previous is being
  80:lvgl/src/hal/lv_hal_disp.c ****  * sent. Set to `NULL` if unused.
  81:lvgl/src/hal/lv_hal_disp.c ****  * @param size_in_px_cnt size of the `buf1` and `buf2` in pixel count.
  82:lvgl/src/hal/lv_hal_disp.c ****  */
  83:lvgl/src/hal/lv_hal_disp.c **** void lv_disp_draw_buf_init(lv_disp_draw_buf_t * draw_buf, void * buf1, void * buf2, uint32_t size_i
  84:lvgl/src/hal/lv_hal_disp.c **** {
  85:lvgl/src/hal/lv_hal_disp.c ****     lv_memset_00(draw_buf, sizeof(lv_disp_draw_buf_t));
  86:lvgl/src/hal/lv_hal_disp.c **** 
  87:lvgl/src/hal/lv_hal_disp.c ****     draw_buf->buf1    = buf1;
ARM GAS  C:\Users\BLACK_~1\AppData\Local\Temp\ccSDhoe1.s 			page 3


  88:lvgl/src/hal/lv_hal_disp.c ****     draw_buf->buf2    = buf2;
  89:lvgl/src/hal/lv_hal_disp.c ****     draw_buf->buf_act = draw_buf->buf1;
  90:lvgl/src/hal/lv_hal_disp.c ****     draw_buf->size    = size_in_px_cnt;
  91:lvgl/src/hal/lv_hal_disp.c **** }
  92:lvgl/src/hal/lv_hal_disp.c **** 
  93:lvgl/src/hal/lv_hal_disp.c **** /**
  94:lvgl/src/hal/lv_hal_disp.c ****  * Register an initialized display driver.
  95:lvgl/src/hal/lv_hal_disp.c ****  * Automatically set the first display as active.
  96:lvgl/src/hal/lv_hal_disp.c ****  * @param driver pointer to an initialized 'lv_disp_drv_t' variable. Only its pointer is saved!
  97:lvgl/src/hal/lv_hal_disp.c ****  * @return pointer to the new display or NULL on error
  98:lvgl/src/hal/lv_hal_disp.c ****  */
  99:lvgl/src/hal/lv_hal_disp.c **** lv_disp_t * lv_disp_drv_register(lv_disp_drv_t * driver)
 100:lvgl/src/hal/lv_hal_disp.c **** {
 101:lvgl/src/hal/lv_hal_disp.c ****     lv_disp_t * disp = _lv_ll_ins_head(&LV_GC_ROOT(_lv_disp_ll));
 102:lvgl/src/hal/lv_hal_disp.c ****     if(!disp) {
 103:lvgl/src/hal/lv_hal_disp.c ****         LV_ASSERT_MALLOC(disp);
 104:lvgl/src/hal/lv_hal_disp.c ****         return NULL;
 105:lvgl/src/hal/lv_hal_disp.c ****     }
 106:lvgl/src/hal/lv_hal_disp.c **** 
 107:lvgl/src/hal/lv_hal_disp.c ****     lv_memset_00(disp, sizeof(lv_disp_t));
 108:lvgl/src/hal/lv_hal_disp.c **** 
 109:lvgl/src/hal/lv_hal_disp.c ****     disp->driver = driver;
 110:lvgl/src/hal/lv_hal_disp.c **** 
 111:lvgl/src/hal/lv_hal_disp.c ****     lv_disp_t * disp_def_tmp = disp_def;
 112:lvgl/src/hal/lv_hal_disp.c ****     disp_def                 = disp; /*Temporarily change the default screen to create the default 
 113:lvgl/src/hal/lv_hal_disp.c ****                                         new display*/
 114:lvgl/src/hal/lv_hal_disp.c ****     /*Create a refresh timer*/
 115:lvgl/src/hal/lv_hal_disp.c ****     disp->refr_timer = lv_timer_create(_lv_disp_refr_timer, LV_DISP_DEF_REFR_PERIOD, disp);
 116:lvgl/src/hal/lv_hal_disp.c ****     LV_ASSERT_MALLOC(disp->refr_timer);
 117:lvgl/src/hal/lv_hal_disp.c ****     if(disp->refr_timer == NULL) {
 118:lvgl/src/hal/lv_hal_disp.c ****         lv_mem_free(disp);
 119:lvgl/src/hal/lv_hal_disp.c ****         return NULL;
 120:lvgl/src/hal/lv_hal_disp.c ****     }
 121:lvgl/src/hal/lv_hal_disp.c **** 
 122:lvgl/src/hal/lv_hal_disp.c ****     if(driver->full_refresh && driver->draw_buf->size < (uint32_t)driver->hor_res * driver->ver_res
 123:lvgl/src/hal/lv_hal_disp.c ****         driver->full_refresh = 0;
 124:lvgl/src/hal/lv_hal_disp.c ****         LV_LOG_WARN("full_refresh requires at least screen sized draw buffer(s)")
 125:lvgl/src/hal/lv_hal_disp.c ****     }
 126:lvgl/src/hal/lv_hal_disp.c **** 
 127:lvgl/src/hal/lv_hal_disp.c ****     disp->bg_color = lv_color_white();
 128:lvgl/src/hal/lv_hal_disp.c **** #if LV_COLOR_SCREEN_TRANSP
 129:lvgl/src/hal/lv_hal_disp.c ****     disp->bg_opa = LV_OPA_TRANSP;
 130:lvgl/src/hal/lv_hal_disp.c **** #else
 131:lvgl/src/hal/lv_hal_disp.c ****     disp->bg_opa = LV_OPA_COVER;
 132:lvgl/src/hal/lv_hal_disp.c **** #endif
 133:lvgl/src/hal/lv_hal_disp.c **** 
 134:lvgl/src/hal/lv_hal_disp.c **** #if LV_USE_THEME_DEFAULT
 135:lvgl/src/hal/lv_hal_disp.c ****     if(lv_theme_default_is_inited() == false) {
 136:lvgl/src/hal/lv_hal_disp.c ****         disp->theme = lv_theme_default_init(disp, lv_palette_main(LV_PALETTE_BLUE), lv_palette_main
 137:lvgl/src/hal/lv_hal_disp.c ****     }
 138:lvgl/src/hal/lv_hal_disp.c **** #endif
 139:lvgl/src/hal/lv_hal_disp.c **** 
 140:lvgl/src/hal/lv_hal_disp.c ****     disp->act_scr   = lv_obj_create(NULL); /*Create a default screen on the display*/
 141:lvgl/src/hal/lv_hal_disp.c ****     disp->top_layer = lv_obj_create(NULL); /*Create top layer on the display*/
 142:lvgl/src/hal/lv_hal_disp.c ****     disp->sys_layer = lv_obj_create(NULL); /*Create sys layer on the display*/
 143:lvgl/src/hal/lv_hal_disp.c ****     lv_obj_remove_style_all(disp->top_layer);
 144:lvgl/src/hal/lv_hal_disp.c ****     lv_obj_remove_style_all(disp->sys_layer);
ARM GAS  C:\Users\BLACK_~1\AppData\Local\Temp\ccSDhoe1.s 			page 4


 145:lvgl/src/hal/lv_hal_disp.c ****     lv_obj_clear_flag(disp->top_layer, LV_OBJ_FLAG_CLICKABLE);
 146:lvgl/src/hal/lv_hal_disp.c ****     lv_obj_clear_flag(disp->sys_layer, LV_OBJ_FLAG_CLICKABLE);
 147:lvgl/src/hal/lv_hal_disp.c **** 
 148:lvgl/src/hal/lv_hal_disp.c ****     lv_obj_set_scrollbar_mode(disp->top_layer, LV_SCROLLBAR_MODE_OFF);
 149:lvgl/src/hal/lv_hal_disp.c ****     lv_obj_set_scrollbar_mode(disp->sys_layer, LV_SCROLLBAR_MODE_OFF);
 150:lvgl/src/hal/lv_hal_disp.c **** 
 151:lvgl/src/hal/lv_hal_disp.c ****     lv_obj_invalidate(disp->act_scr);
 152:lvgl/src/hal/lv_hal_disp.c **** 
 153:lvgl/src/hal/lv_hal_disp.c ****     disp_def = disp_def_tmp; /*Revert the default display*/
 154:lvgl/src/hal/lv_hal_disp.c ****     if(disp_def == NULL) disp_def = disp; /*Initialize the default display*/
 155:lvgl/src/hal/lv_hal_disp.c **** 
 156:lvgl/src/hal/lv_hal_disp.c ****     lv_timer_ready(disp->refr_timer); /*Be sure the screen will be refreshed immediately on start u
 157:lvgl/src/hal/lv_hal_disp.c **** 
 158:lvgl/src/hal/lv_hal_disp.c ****     return disp;
 159:lvgl/src/hal/lv_hal_disp.c **** }
 160:lvgl/src/hal/lv_hal_disp.c **** 
 161:lvgl/src/hal/lv_hal_disp.c **** /**
 162:lvgl/src/hal/lv_hal_disp.c ****  * Update the driver in run time.
 163:lvgl/src/hal/lv_hal_disp.c ****  * @param disp pointer to a display. (return value of `lv_disp_drv_register`)
 164:lvgl/src/hal/lv_hal_disp.c ****  * @param new_drv pointer to the new driver
 165:lvgl/src/hal/lv_hal_disp.c ****  */
 166:lvgl/src/hal/lv_hal_disp.c **** void lv_disp_drv_update(lv_disp_t * disp, lv_disp_drv_t * new_drv)
 167:lvgl/src/hal/lv_hal_disp.c **** {
 168:lvgl/src/hal/lv_hal_disp.c ****     disp->driver = new_drv;
 169:lvgl/src/hal/lv_hal_disp.c **** 
 170:lvgl/src/hal/lv_hal_disp.c ****     if(disp->driver->full_refresh && disp->driver->draw_buf->size < (uint32_t)disp->driver->hor_res
 171:lvgl/src/hal/lv_hal_disp.c ****         disp->driver->full_refresh = 0;
 172:lvgl/src/hal/lv_hal_disp.c ****         LV_LOG_WARN("full_refresh requires at least screen sized draw buffer(s)")
 173:lvgl/src/hal/lv_hal_disp.c ****     }
 174:lvgl/src/hal/lv_hal_disp.c **** 
 175:lvgl/src/hal/lv_hal_disp.c ****     lv_coord_t w = lv_disp_get_hor_res(disp);
 176:lvgl/src/hal/lv_hal_disp.c ****     lv_coord_t h = lv_disp_get_ver_res(disp);
 177:lvgl/src/hal/lv_hal_disp.c ****     uint32_t i;
 178:lvgl/src/hal/lv_hal_disp.c ****     for(i = 0; i < disp->screen_cnt; i++) {
 179:lvgl/src/hal/lv_hal_disp.c ****         lv_area_t prev_coords;
 180:lvgl/src/hal/lv_hal_disp.c ****         lv_obj_get_coords(disp->screens[i], &prev_coords);
 181:lvgl/src/hal/lv_hal_disp.c ****         lv_area_set_width(&disp->screens[i]->coords, w);
 182:lvgl/src/hal/lv_hal_disp.c ****         lv_area_set_height(&disp->screens[i]->coords, h);
 183:lvgl/src/hal/lv_hal_disp.c ****         lv_event_send(disp->screens[i], LV_EVENT_SIZE_CHANGED, &prev_coords);
 184:lvgl/src/hal/lv_hal_disp.c ****     }
 185:lvgl/src/hal/lv_hal_disp.c **** 
 186:lvgl/src/hal/lv_hal_disp.c ****     /*
 187:lvgl/src/hal/lv_hal_disp.c ****      * This method is usually called upon orientation change, thus the screen is now a
 188:lvgl/src/hal/lv_hal_disp.c ****      * different size.
 189:lvgl/src/hal/lv_hal_disp.c ****      * The object invalidated its previous area. That area is now out of the screen area
 190:lvgl/src/hal/lv_hal_disp.c ****      * so we reset all invalidated areas and invalidate the active screen's new area only.
 191:lvgl/src/hal/lv_hal_disp.c ****      */
 192:lvgl/src/hal/lv_hal_disp.c ****     lv_memset_00(disp->inv_areas, sizeof(disp->inv_areas));
 193:lvgl/src/hal/lv_hal_disp.c ****     lv_memset_00(disp->inv_area_joined, sizeof(disp->inv_area_joined));
 194:lvgl/src/hal/lv_hal_disp.c ****     disp->inv_p = 0;
 195:lvgl/src/hal/lv_hal_disp.c ****     if(disp->act_scr != NULL) lv_obj_invalidate(disp->act_scr);
 196:lvgl/src/hal/lv_hal_disp.c **** 
 197:lvgl/src/hal/lv_hal_disp.c ****     lv_obj_tree_walk(NULL, invalidate_layout_cb, NULL);
 198:lvgl/src/hal/lv_hal_disp.c **** 
 199:lvgl/src/hal/lv_hal_disp.c ****     if(disp->driver->drv_update_cb) disp->driver->drv_update_cb(disp->driver);
 200:lvgl/src/hal/lv_hal_disp.c **** }
 201:lvgl/src/hal/lv_hal_disp.c **** 
ARM GAS  C:\Users\BLACK_~1\AppData\Local\Temp\ccSDhoe1.s 			page 5


 202:lvgl/src/hal/lv_hal_disp.c **** /**
 203:lvgl/src/hal/lv_hal_disp.c ****  * Remove a display
 204:lvgl/src/hal/lv_hal_disp.c ****  * @param disp pointer to display
 205:lvgl/src/hal/lv_hal_disp.c ****  */
 206:lvgl/src/hal/lv_hal_disp.c **** void lv_disp_remove(lv_disp_t * disp)
 207:lvgl/src/hal/lv_hal_disp.c **** {
 208:lvgl/src/hal/lv_hal_disp.c ****     bool was_default = false;
 209:lvgl/src/hal/lv_hal_disp.c ****     if(disp == lv_disp_get_default()) was_default = true;
 210:lvgl/src/hal/lv_hal_disp.c **** 
 211:lvgl/src/hal/lv_hal_disp.c ****     /*Detach the input devices*/
 212:lvgl/src/hal/lv_hal_disp.c ****     lv_indev_t * indev;
 213:lvgl/src/hal/lv_hal_disp.c ****     indev = lv_indev_get_next(NULL);
 214:lvgl/src/hal/lv_hal_disp.c ****     while(indev) {
 215:lvgl/src/hal/lv_hal_disp.c ****         if(indev->driver->disp == disp) {
 216:lvgl/src/hal/lv_hal_disp.c ****             indev->driver->disp = NULL;
 217:lvgl/src/hal/lv_hal_disp.c ****         }
 218:lvgl/src/hal/lv_hal_disp.c ****         indev = lv_indev_get_next(indev);
 219:lvgl/src/hal/lv_hal_disp.c ****     }
 220:lvgl/src/hal/lv_hal_disp.c **** 
 221:lvgl/src/hal/lv_hal_disp.c ****     _lv_ll_remove(&LV_GC_ROOT(_lv_disp_ll), disp);
 222:lvgl/src/hal/lv_hal_disp.c ****     lv_timer_del(disp->refr_timer);
 223:lvgl/src/hal/lv_hal_disp.c **** 
 224:lvgl/src/hal/lv_hal_disp.c ****     /** delete screen and other obj */
 225:lvgl/src/hal/lv_hal_disp.c ****     if (disp->sys_layer) {
 226:lvgl/src/hal/lv_hal_disp.c ****         lv_obj_del(disp->sys_layer);
 227:lvgl/src/hal/lv_hal_disp.c ****         disp->sys_layer = NULL;
 228:lvgl/src/hal/lv_hal_disp.c ****     }
 229:lvgl/src/hal/lv_hal_disp.c ****     if (disp->top_layer) {
 230:lvgl/src/hal/lv_hal_disp.c ****         lv_obj_del(disp->top_layer);
 231:lvgl/src/hal/lv_hal_disp.c ****         disp->top_layer = NULL;
 232:lvgl/src/hal/lv_hal_disp.c ****     }
 233:lvgl/src/hal/lv_hal_disp.c ****     while (disp->screen_cnt != 0) {
 234:lvgl/src/hal/lv_hal_disp.c ****         /*Delete the screenst*/
 235:lvgl/src/hal/lv_hal_disp.c ****         lv_obj_del(disp->screens[0]);
 236:lvgl/src/hal/lv_hal_disp.c ****     }
 237:lvgl/src/hal/lv_hal_disp.c ****     lv_mem_free(disp);
 238:lvgl/src/hal/lv_hal_disp.c **** 
 239:lvgl/src/hal/lv_hal_disp.c ****     if(was_default) lv_disp_set_default(_lv_ll_get_head(&LV_GC_ROOT(_lv_disp_ll)));
 240:lvgl/src/hal/lv_hal_disp.c **** }
 241:lvgl/src/hal/lv_hal_disp.c **** 
 242:lvgl/src/hal/lv_hal_disp.c **** /**
 243:lvgl/src/hal/lv_hal_disp.c ****  * Set a default display. The new screens will be created on it by default.
 244:lvgl/src/hal/lv_hal_disp.c ****  * @param disp pointer to a display
 245:lvgl/src/hal/lv_hal_disp.c ****  */
 246:lvgl/src/hal/lv_hal_disp.c **** void lv_disp_set_default(lv_disp_t * disp)
 247:lvgl/src/hal/lv_hal_disp.c **** {
 248:lvgl/src/hal/lv_hal_disp.c ****     disp_def = disp;
 249:lvgl/src/hal/lv_hal_disp.c **** }
 250:lvgl/src/hal/lv_hal_disp.c **** 
 251:lvgl/src/hal/lv_hal_disp.c **** /**
 252:lvgl/src/hal/lv_hal_disp.c ****  * Get the default display
 253:lvgl/src/hal/lv_hal_disp.c ****  * @return pointer to the default display
 254:lvgl/src/hal/lv_hal_disp.c ****  */
 255:lvgl/src/hal/lv_hal_disp.c **** lv_disp_t * lv_disp_get_default(void)
 256:lvgl/src/hal/lv_hal_disp.c **** {
 257:lvgl/src/hal/lv_hal_disp.c ****     return disp_def;
 258:lvgl/src/hal/lv_hal_disp.c **** }
ARM GAS  C:\Users\BLACK_~1\AppData\Local\Temp\ccSDhoe1.s 			page 6


 259:lvgl/src/hal/lv_hal_disp.c **** 
 260:lvgl/src/hal/lv_hal_disp.c **** /**
 261:lvgl/src/hal/lv_hal_disp.c ****  * Get the horizontal resolution of a display
 262:lvgl/src/hal/lv_hal_disp.c ****  * @param disp pointer to a display (NULL to use the default display)
 263:lvgl/src/hal/lv_hal_disp.c ****  * @return the horizontal resolution of the display
 264:lvgl/src/hal/lv_hal_disp.c ****  */
 265:lvgl/src/hal/lv_hal_disp.c **** lv_coord_t lv_disp_get_hor_res(lv_disp_t * disp)
 266:lvgl/src/hal/lv_hal_disp.c **** {
 267:lvgl/src/hal/lv_hal_disp.c ****     if(disp == NULL) disp = lv_disp_get_default();
 268:lvgl/src/hal/lv_hal_disp.c **** 
 269:lvgl/src/hal/lv_hal_disp.c ****     if(disp == NULL) {
 270:lvgl/src/hal/lv_hal_disp.c ****         return 0;
 271:lvgl/src/hal/lv_hal_disp.c ****     } else {
 272:lvgl/src/hal/lv_hal_disp.c ****         switch(disp->driver->rotated) {
 273:lvgl/src/hal/lv_hal_disp.c ****             case LV_DISP_ROT_90:
 274:lvgl/src/hal/lv_hal_disp.c ****             case LV_DISP_ROT_270:
 275:lvgl/src/hal/lv_hal_disp.c ****                 return disp->driver->ver_res;
 276:lvgl/src/hal/lv_hal_disp.c ****             default:
 277:lvgl/src/hal/lv_hal_disp.c ****                 return disp->driver->hor_res;
 278:lvgl/src/hal/lv_hal_disp.c ****         }
 279:lvgl/src/hal/lv_hal_disp.c ****     }
 280:lvgl/src/hal/lv_hal_disp.c **** }
 281:lvgl/src/hal/lv_hal_disp.c **** 
 282:lvgl/src/hal/lv_hal_disp.c **** /**
 283:lvgl/src/hal/lv_hal_disp.c ****  * Get the vertical resolution of a display
 284:lvgl/src/hal/lv_hal_disp.c ****  * @param disp pointer to a display (NULL to use the default display)
 285:lvgl/src/hal/lv_hal_disp.c ****  * @return the vertical resolution of the display
 286:lvgl/src/hal/lv_hal_disp.c ****  */
 287:lvgl/src/hal/lv_hal_disp.c **** lv_coord_t lv_disp_get_ver_res(lv_disp_t * disp)
 288:lvgl/src/hal/lv_hal_disp.c **** {
 289:lvgl/src/hal/lv_hal_disp.c ****     if(disp == NULL) disp = lv_disp_get_default();
 290:lvgl/src/hal/lv_hal_disp.c **** 
 291:lvgl/src/hal/lv_hal_disp.c ****     if(disp == NULL) {
 292:lvgl/src/hal/lv_hal_disp.c ****         return 0;
 293:lvgl/src/hal/lv_hal_disp.c ****     } else {
 294:lvgl/src/hal/lv_hal_disp.c ****         switch(disp->driver->rotated) {
 295:lvgl/src/hal/lv_hal_disp.c ****             case LV_DISP_ROT_90:
 296:lvgl/src/hal/lv_hal_disp.c ****             case LV_DISP_ROT_270:
 297:lvgl/src/hal/lv_hal_disp.c ****                 return disp->driver->hor_res;
 298:lvgl/src/hal/lv_hal_disp.c ****             default:
 299:lvgl/src/hal/lv_hal_disp.c ****                 return disp->driver->ver_res;
 300:lvgl/src/hal/lv_hal_disp.c ****         }
 301:lvgl/src/hal/lv_hal_disp.c ****     }
 302:lvgl/src/hal/lv_hal_disp.c **** }
 303:lvgl/src/hal/lv_hal_disp.c **** 
 304:lvgl/src/hal/lv_hal_disp.c **** /**
 305:lvgl/src/hal/lv_hal_disp.c ****  * Get if anti-aliasing is enabled for a display or not
 306:lvgl/src/hal/lv_hal_disp.c ****  * @param disp pointer to a display (NULL to use the default display)
 307:lvgl/src/hal/lv_hal_disp.c ****  * @return true: anti-aliasing is enabled; false: disabled
 308:lvgl/src/hal/lv_hal_disp.c ****  */
 309:lvgl/src/hal/lv_hal_disp.c **** bool lv_disp_get_antialiasing(lv_disp_t * disp)
 310:lvgl/src/hal/lv_hal_disp.c **** {
 311:lvgl/src/hal/lv_hal_disp.c ****     if(disp == NULL) disp = lv_disp_get_default();
 312:lvgl/src/hal/lv_hal_disp.c ****     if(disp == NULL) return false;
 313:lvgl/src/hal/lv_hal_disp.c **** 
 314:lvgl/src/hal/lv_hal_disp.c ****     return disp->driver->antialiasing ? true : false;
 315:lvgl/src/hal/lv_hal_disp.c **** }
ARM GAS  C:\Users\BLACK_~1\AppData\Local\Temp\ccSDhoe1.s 			page 7


 316:lvgl/src/hal/lv_hal_disp.c **** 
 317:lvgl/src/hal/lv_hal_disp.c **** /**
 318:lvgl/src/hal/lv_hal_disp.c ****  * Get the DPI of the display
 319:lvgl/src/hal/lv_hal_disp.c ****  * @param disp pointer to a display (NULL to use the default display)
 320:lvgl/src/hal/lv_hal_disp.c ****  * @return dpi of the display
 321:lvgl/src/hal/lv_hal_disp.c ****  */
 322:lvgl/src/hal/lv_hal_disp.c **** lv_coord_t lv_disp_get_dpi(const lv_disp_t * disp)
 323:lvgl/src/hal/lv_hal_disp.c **** {
 324:lvgl/src/hal/lv_hal_disp.c ****     if(disp == NULL) disp = lv_disp_get_default();
 325:lvgl/src/hal/lv_hal_disp.c ****     if(disp == NULL) return LV_DPI_DEF;  /*Do not return 0 because it might be a divider*/
 326:lvgl/src/hal/lv_hal_disp.c ****     return disp->driver->dpi;
 327:lvgl/src/hal/lv_hal_disp.c **** }
 328:lvgl/src/hal/lv_hal_disp.c **** 
 329:lvgl/src/hal/lv_hal_disp.c **** /**
 330:lvgl/src/hal/lv_hal_disp.c ****  * Call in the display driver's `flush_cb` function when the flushing is finished
 331:lvgl/src/hal/lv_hal_disp.c ****  * @param disp_drv pointer to display driver in `flush_cb` where this function is called
 332:lvgl/src/hal/lv_hal_disp.c ****  */
 333:lvgl/src/hal/lv_hal_disp.c **** LV_ATTRIBUTE_FLUSH_READY void lv_disp_flush_ready(lv_disp_drv_t * disp_drv)
 334:lvgl/src/hal/lv_hal_disp.c **** {
 335:lvgl/src/hal/lv_hal_disp.c ****     /*If the screen is transparent initialize it when the flushing is ready*/
 336:lvgl/src/hal/lv_hal_disp.c **** #if LV_COLOR_SCREEN_TRANSP
 337:lvgl/src/hal/lv_hal_disp.c ****     if(disp_drv->screen_transp) {
 338:lvgl/src/hal/lv_hal_disp.c ****         lv_memset_00(disp_drv->draw_buf->buf_act, disp_drv->draw_buf->size * sizeof(lv_color32_t));
 339:lvgl/src/hal/lv_hal_disp.c ****     }
 340:lvgl/src/hal/lv_hal_disp.c **** #endif
 341:lvgl/src/hal/lv_hal_disp.c **** 
 342:lvgl/src/hal/lv_hal_disp.c ****     disp_drv->draw_buf->flushing = 0;
 343:lvgl/src/hal/lv_hal_disp.c ****     disp_drv->draw_buf->flushing_last = 0;
 344:lvgl/src/hal/lv_hal_disp.c **** }
 345:lvgl/src/hal/lv_hal_disp.c **** 
 346:lvgl/src/hal/lv_hal_disp.c **** /**
 347:lvgl/src/hal/lv_hal_disp.c ****  * Tell if it's the last area of the refreshing process.
 348:lvgl/src/hal/lv_hal_disp.c ****  * Can be called from `flush_cb` to execute some special display refreshing if needed when all area
 349:lvgl/src/hal/lv_hal_disp.c ****  * @param disp_drv pointer to display driver
 350:lvgl/src/hal/lv_hal_disp.c ****  * @return true: it's the last area to flush; false: there are other areas too which will be refres
 351:lvgl/src/hal/lv_hal_disp.c ****  */
 352:lvgl/src/hal/lv_hal_disp.c **** LV_ATTRIBUTE_FLUSH_READY bool lv_disp_flush_is_last(lv_disp_drv_t * disp_drv)
 353:lvgl/src/hal/lv_hal_disp.c **** {
 354:lvgl/src/hal/lv_hal_disp.c ****     return disp_drv->draw_buf->flushing_last;
 355:lvgl/src/hal/lv_hal_disp.c **** }
 356:lvgl/src/hal/lv_hal_disp.c **** 
 357:lvgl/src/hal/lv_hal_disp.c **** /**
 358:lvgl/src/hal/lv_hal_disp.c ****  * Get the next display.
 359:lvgl/src/hal/lv_hal_disp.c ****  * @param disp pointer to the current display. NULL to initialize.
 360:lvgl/src/hal/lv_hal_disp.c ****  * @return the next display or NULL if no more. Give the first display when the parameter is NULL
 361:lvgl/src/hal/lv_hal_disp.c ****  */
 362:lvgl/src/hal/lv_hal_disp.c **** lv_disp_t * lv_disp_get_next(lv_disp_t * disp)
 363:lvgl/src/hal/lv_hal_disp.c **** {
 364:lvgl/src/hal/lv_hal_disp.c ****     if(disp == NULL)
 365:lvgl/src/hal/lv_hal_disp.c ****         return _lv_ll_get_head(&LV_GC_ROOT(_lv_disp_ll));
 366:lvgl/src/hal/lv_hal_disp.c ****     else
 367:lvgl/src/hal/lv_hal_disp.c ****         return _lv_ll_get_next(&LV_GC_ROOT(_lv_disp_ll), disp);
 368:lvgl/src/hal/lv_hal_disp.c **** }
 369:lvgl/src/hal/lv_hal_disp.c **** 
 370:lvgl/src/hal/lv_hal_disp.c **** /**
 371:lvgl/src/hal/lv_hal_disp.c ****  * Get the internal buffer of a display
 372:lvgl/src/hal/lv_hal_disp.c ****  * @param disp pointer to a display
ARM GAS  C:\Users\BLACK_~1\AppData\Local\Temp\ccSDhoe1.s 			page 8


 373:lvgl/src/hal/lv_hal_disp.c ****  * @return pointer to the internal buffers
 374:lvgl/src/hal/lv_hal_disp.c ****  */
 375:lvgl/src/hal/lv_hal_disp.c **** lv_disp_draw_buf_t * lv_disp_get_draw_buf(lv_disp_t * disp)
 376:lvgl/src/hal/lv_hal_disp.c **** {
 377:lvgl/src/hal/lv_hal_disp.c ****     return disp->driver->draw_buf;
 378:lvgl/src/hal/lv_hal_disp.c **** }
 379:lvgl/src/hal/lv_hal_disp.c **** 
 380:lvgl/src/hal/lv_hal_disp.c **** /**
 381:lvgl/src/hal/lv_hal_disp.c ****  * Set the rotation of this display.
 382:lvgl/src/hal/lv_hal_disp.c ****  * @param disp pointer to a display (NULL to use the default display)
 383:lvgl/src/hal/lv_hal_disp.c ****  * @param rotation rotation angle
 384:lvgl/src/hal/lv_hal_disp.c ****  */
 385:lvgl/src/hal/lv_hal_disp.c **** void lv_disp_set_rotation(lv_disp_t * disp, lv_disp_rot_t rotation)
 386:lvgl/src/hal/lv_hal_disp.c **** {
 387:lvgl/src/hal/lv_hal_disp.c ****     if(disp == NULL) disp = lv_disp_get_default();
 388:lvgl/src/hal/lv_hal_disp.c ****     if(disp == NULL) return;
 389:lvgl/src/hal/lv_hal_disp.c **** 
 390:lvgl/src/hal/lv_hal_disp.c ****     disp->driver->rotated = rotation;
 391:lvgl/src/hal/lv_hal_disp.c ****     lv_disp_drv_update(disp, disp->driver);
 392:lvgl/src/hal/lv_hal_disp.c **** }
 393:lvgl/src/hal/lv_hal_disp.c **** 
 394:lvgl/src/hal/lv_hal_disp.c **** /**
 395:lvgl/src/hal/lv_hal_disp.c ****  * Get the current rotation of this display.
 396:lvgl/src/hal/lv_hal_disp.c ****  * @param disp pointer to a display (NULL to use the default display)
 397:lvgl/src/hal/lv_hal_disp.c ****  * @return rotation angle
 398:lvgl/src/hal/lv_hal_disp.c ****  */
 399:lvgl/src/hal/lv_hal_disp.c **** lv_disp_rot_t lv_disp_get_rotation(lv_disp_t * disp)
 400:lvgl/src/hal/lv_hal_disp.c **** {
 401:lvgl/src/hal/lv_hal_disp.c ****     if(disp == NULL) disp = lv_disp_get_default();
 402:lvgl/src/hal/lv_hal_disp.c ****     if(disp == NULL) return LV_DISP_ROT_NONE;
 403:lvgl/src/hal/lv_hal_disp.c ****     return disp->driver->rotated;
 404:lvgl/src/hal/lv_hal_disp.c **** }
 405:lvgl/src/hal/lv_hal_disp.c **** 
 406:lvgl/src/hal/lv_hal_disp.c **** /**********************
 407:lvgl/src/hal/lv_hal_disp.c ****  *   STATIC FUNCTIONS
 408:lvgl/src/hal/lv_hal_disp.c ****  **********************/
 409:lvgl/src/hal/lv_hal_disp.c **** 
 410:lvgl/src/hal/lv_hal_disp.c **** static lv_obj_tree_walk_res_t invalidate_layout_cb(lv_obj_t * obj, void * user_data)
 411:lvgl/src/hal/lv_hal_disp.c **** {
  29              		.loc 1 411 1 view -0
  30              		.cfi_startproc
  31              		@ args = 0, pretend = 0, frame = 0
  32              		@ frame_needed = 0, uses_anonymous_args = 0
  33              		.loc 1 411 1 is_stmt 0 view .LVU1
  34 0000 08B5     		push	{r3, lr}
  35              	.LCFI0:
  36              		.cfi_def_cfa_offset 8
  37              		.cfi_offset 3, -8
  38              		.cfi_offset 14, -4
 412:lvgl/src/hal/lv_hal_disp.c ****     LV_UNUSED(user_data);
  39              		.loc 1 412 5 is_stmt 1 view .LVU2
 413:lvgl/src/hal/lv_hal_disp.c ****     lv_obj_mark_layout_as_dirty(obj);
  40              		.loc 1 413 5 view .LVU3
  41 0002 FFF7FEFF 		bl	lv_obj_mark_layout_as_dirty
  42              	.LVL1:
 414:lvgl/src/hal/lv_hal_disp.c ****     return LV_OBJ_TREE_WALK_NEXT;
  43              		.loc 1 414 5 view .LVU4
ARM GAS  C:\Users\BLACK_~1\AppData\Local\Temp\ccSDhoe1.s 			page 9


 415:lvgl/src/hal/lv_hal_disp.c **** }
  44              		.loc 1 415 1 is_stmt 0 view .LVU5
  45 0006 0020     		movs	r0, #0
  46 0008 08BD     		pop	{r3, pc}
  47              		.cfi_endproc
  48              	.LFE164:
  50              		.section	.text.lv_disp_drv_init,"ax",%progbits
  51              		.align	1
  52              		.global	lv_disp_drv_init
  53              		.syntax unified
  54              		.thumb
  55              		.thumb_func
  57              	lv_disp_drv_init:
  58              	.LVL2:
  59              	.LFB147:
  57:lvgl/src/hal/lv_hal_disp.c ****     lv_memset_00(driver, sizeof(lv_disp_drv_t));
  60              		.loc 1 57 1 is_stmt 1 view -0
  61              		.cfi_startproc
  62              		@ args = 0, pretend = 0, frame = 0
  63              		@ frame_needed = 0, uses_anonymous_args = 0
  57:lvgl/src/hal/lv_hal_disp.c ****     lv_memset_00(driver, sizeof(lv_disp_drv_t));
  64              		.loc 1 57 1 is_stmt 0 view .LVU7
  65 0000 10B5     		push	{r4, lr}
  66              	.LCFI1:
  67              		.cfi_def_cfa_offset 8
  68              		.cfi_offset 4, -8
  69              		.cfi_offset 14, -4
  70 0002 0446     		mov	r4, r0
  58:lvgl/src/hal/lv_hal_disp.c **** 
  71              		.loc 1 58 5 is_stmt 1 view .LVU8
  72 0004 3821     		movs	r1, #56
  73 0006 FFF7FEFF 		bl	lv_memset_00
  74              	.LVL3:
  60:lvgl/src/hal/lv_hal_disp.c ****     driver->ver_res          = 240;
  75              		.loc 1 60 5 view .LVU9
  60:lvgl/src/hal/lv_hal_disp.c ****     driver->ver_res          = 240;
  76              		.loc 1 60 30 is_stmt 0 view .LVU10
  77 000a 4FF4A073 		mov	r3, #320
  78 000e 2380     		strh	r3, [r4]	@ movhi
  61:lvgl/src/hal/lv_hal_disp.c ****     driver->antialiasing     = LV_COLOR_DEPTH > 8 ? 1: 0;
  79              		.loc 1 61 5 is_stmt 1 view .LVU11
  61:lvgl/src/hal/lv_hal_disp.c ****     driver->antialiasing     = LV_COLOR_DEPTH > 8 ? 1: 0;
  80              		.loc 1 61 30 is_stmt 0 view .LVU12
  81 0010 F023     		movs	r3, #240
  82 0012 6380     		strh	r3, [r4, #2]	@ movhi
  62:lvgl/src/hal/lv_hal_disp.c ****     driver->screen_transp    = LV_COLOR_SCREEN_TRANSP;
  83              		.loc 1 62 5 is_stmt 1 view .LVU13
  62:lvgl/src/hal/lv_hal_disp.c ****     driver->screen_transp    = LV_COLOR_SCREEN_TRANSP;
  84              		.loc 1 62 30 is_stmt 0 view .LVU14
  85 0014 237A     		ldrb	r3, [r4, #8]	@ zero_extendqisi2
  86 0016 43F00403 		orr	r3, r3, #4
  87 001a 2372     		strb	r3, [r4, #8]
  63:lvgl/src/hal/lv_hal_disp.c ****     driver->dpi              = LV_DPI_DEF;
  88              		.loc 1 63 5 is_stmt 1 view .LVU15
  63:lvgl/src/hal/lv_hal_disp.c ****     driver->dpi              = LV_DPI_DEF;
  89              		.loc 1 63 30 is_stmt 0 view .LVU16
  90 001c DBB2     		uxtb	r3, r3
ARM GAS  C:\Users\BLACK_~1\AppData\Local\Temp\ccSDhoe1.s 			page 10


  91 001e 6FF34513 		bfc	r3, #5, #1
  92 0022 2372     		strb	r3, [r4, #8]
  64:lvgl/src/hal/lv_hal_disp.c ****     driver->color_chroma_key = LV_COLOR_CHROMA_KEY;
  93              		.loc 1 64 5 is_stmt 1 view .LVU17
  64:lvgl/src/hal/lv_hal_disp.c ****     driver->color_chroma_key = LV_COLOR_CHROMA_KEY;
  94              		.loc 1 64 30 is_stmt 0 view .LVU18
  95 0024 2389     		ldrh	r3, [r4, #8]
  96 0026 8222     		movs	r2, #130
  97 0028 62F38F13 		bfi	r3, r2, #6, #10
  98 002c 2381     		strh	r3, [r4, #8]	@ movhi
  65:lvgl/src/hal/lv_hal_disp.c **** }
  99              		.loc 1 65 5 is_stmt 1 view .LVU19
 100              	.LVL4:
 101              	.LBB18:
 102              	.LBI18:
 103              		.file 2 "lvgl/src/hal/../misc/lv_color.h"
   1:lvgl/src/hal/../misc/lv_color.h **** /**
   2:lvgl/src/hal/../misc/lv_color.h ****  * @file lv_color.h
   3:lvgl/src/hal/../misc/lv_color.h ****  *
   4:lvgl/src/hal/../misc/lv_color.h ****  */
   5:lvgl/src/hal/../misc/lv_color.h **** 
   6:lvgl/src/hal/../misc/lv_color.h **** #ifndef LV_COLOR_H
   7:lvgl/src/hal/../misc/lv_color.h **** #define LV_COLOR_H
   8:lvgl/src/hal/../misc/lv_color.h **** 
   9:lvgl/src/hal/../misc/lv_color.h **** #ifdef __cplusplus
  10:lvgl/src/hal/../misc/lv_color.h **** extern "C" {
  11:lvgl/src/hal/../misc/lv_color.h **** #endif
  12:lvgl/src/hal/../misc/lv_color.h **** 
  13:lvgl/src/hal/../misc/lv_color.h **** /*********************
  14:lvgl/src/hal/../misc/lv_color.h ****  *      INCLUDES
  15:lvgl/src/hal/../misc/lv_color.h ****  *********************/
  16:lvgl/src/hal/../misc/lv_color.h **** #include "../lv_conf_internal.h"
  17:lvgl/src/hal/../misc/lv_color.h **** #include "lv_math.h"
  18:lvgl/src/hal/../misc/lv_color.h **** #include "lv_types.h"
  19:lvgl/src/hal/../misc/lv_color.h **** 
  20:lvgl/src/hal/../misc/lv_color.h **** /*Error checking*/
  21:lvgl/src/hal/../misc/lv_color.h **** #if LV_COLOR_DEPTH == 24
  22:lvgl/src/hal/../misc/lv_color.h **** #error "LV_COLOR_DEPTH 24 is deprecated. Use LV_COLOR_DEPTH 32 instead (lv_conf.h)"
  23:lvgl/src/hal/../misc/lv_color.h **** #endif
  24:lvgl/src/hal/../misc/lv_color.h **** 
  25:lvgl/src/hal/../misc/lv_color.h **** #if LV_COLOR_DEPTH != 32 && LV_COLOR_SCREEN_TRANSP != 0
  26:lvgl/src/hal/../misc/lv_color.h **** #error "LV_COLOR_SCREEN_TRANSP requires LV_COLOR_DEPTH == 32. Set it in lv_conf.h"
  27:lvgl/src/hal/../misc/lv_color.h **** #endif
  28:lvgl/src/hal/../misc/lv_color.h **** 
  29:lvgl/src/hal/../misc/lv_color.h **** #if LV_COLOR_DEPTH != 16 && LV_COLOR_16_SWAP != 0
  30:lvgl/src/hal/../misc/lv_color.h **** #error "LV_COLOR_16_SWAP requires LV_COLOR_DEPTH == 16. Set it in lv_conf.h"
  31:lvgl/src/hal/../misc/lv_color.h **** #endif
  32:lvgl/src/hal/../misc/lv_color.h **** 
  33:lvgl/src/hal/../misc/lv_color.h **** #include <stdint.h>
  34:lvgl/src/hal/../misc/lv_color.h **** 
  35:lvgl/src/hal/../misc/lv_color.h **** /*********************
  36:lvgl/src/hal/../misc/lv_color.h ****  *      DEFINES
  37:lvgl/src/hal/../misc/lv_color.h ****  *********************/
  38:lvgl/src/hal/../misc/lv_color.h **** 
  39:lvgl/src/hal/../misc/lv_color.h **** /**
  40:lvgl/src/hal/../misc/lv_color.h ****  * Opacity percentages.
  41:lvgl/src/hal/../misc/lv_color.h ****  */
ARM GAS  C:\Users\BLACK_~1\AppData\Local\Temp\ccSDhoe1.s 			page 11


  42:lvgl/src/hal/../misc/lv_color.h **** enum {
  43:lvgl/src/hal/../misc/lv_color.h ****     LV_OPA_TRANSP = 0,
  44:lvgl/src/hal/../misc/lv_color.h ****     LV_OPA_0      = 0,
  45:lvgl/src/hal/../misc/lv_color.h ****     LV_OPA_10     = 25,
  46:lvgl/src/hal/../misc/lv_color.h ****     LV_OPA_20     = 51,
  47:lvgl/src/hal/../misc/lv_color.h ****     LV_OPA_30     = 76,
  48:lvgl/src/hal/../misc/lv_color.h ****     LV_OPA_40     = 102,
  49:lvgl/src/hal/../misc/lv_color.h ****     LV_OPA_50     = 127,
  50:lvgl/src/hal/../misc/lv_color.h ****     LV_OPA_60     = 153,
  51:lvgl/src/hal/../misc/lv_color.h ****     LV_OPA_70     = 178,
  52:lvgl/src/hal/../misc/lv_color.h ****     LV_OPA_80     = 204,
  53:lvgl/src/hal/../misc/lv_color.h ****     LV_OPA_90     = 229,
  54:lvgl/src/hal/../misc/lv_color.h ****     LV_OPA_100    = 255,
  55:lvgl/src/hal/../misc/lv_color.h ****     LV_OPA_COVER  = 255,
  56:lvgl/src/hal/../misc/lv_color.h **** };
  57:lvgl/src/hal/../misc/lv_color.h **** 
  58:lvgl/src/hal/../misc/lv_color.h **** #define LV_OPA_MIN 2    /*Opacities below this will be transparent*/
  59:lvgl/src/hal/../misc/lv_color.h **** #define LV_OPA_MAX 253  /*Opacities above this will fully cover*/
  60:lvgl/src/hal/../misc/lv_color.h **** 
  61:lvgl/src/hal/../misc/lv_color.h **** #if LV_COLOR_DEPTH == 1
  62:lvgl/src/hal/../misc/lv_color.h **** #define LV_COLOR_SIZE 8
  63:lvgl/src/hal/../misc/lv_color.h **** #elif LV_COLOR_DEPTH == 8
  64:lvgl/src/hal/../misc/lv_color.h **** #define LV_COLOR_SIZE 8
  65:lvgl/src/hal/../misc/lv_color.h **** #elif LV_COLOR_DEPTH == 16
  66:lvgl/src/hal/../misc/lv_color.h **** #define LV_COLOR_SIZE 16
  67:lvgl/src/hal/../misc/lv_color.h **** #elif LV_COLOR_DEPTH == 32
  68:lvgl/src/hal/../misc/lv_color.h **** #define LV_COLOR_SIZE 32
  69:lvgl/src/hal/../misc/lv_color.h **** #else
  70:lvgl/src/hal/../misc/lv_color.h **** #error "Invalid LV_COLOR_DEPTH in lv_conf.h! Set it to 1, 8, 16 or 32!"
  71:lvgl/src/hal/../misc/lv_color.h **** #endif
  72:lvgl/src/hal/../misc/lv_color.h **** 
  73:lvgl/src/hal/../misc/lv_color.h **** /**
  74:lvgl/src/hal/../misc/lv_color.h ****  * Adjust color mix functions rounding.
  75:lvgl/src/hal/../misc/lv_color.h ****  * GPUs might calculate color mix (blending) differently.
  76:lvgl/src/hal/../misc/lv_color.h ****  * Should be in range of 0..254
  77:lvgl/src/hal/../misc/lv_color.h ****  * 0: no adjustment, get the integer part of the result (round down)
  78:lvgl/src/hal/../misc/lv_color.h ****  * 64: round up from x.75
  79:lvgl/src/hal/../misc/lv_color.h ****  * 128: round up from half
  80:lvgl/src/hal/../misc/lv_color.h ****  * 192: round up from x.25
  81:lvgl/src/hal/../misc/lv_color.h ****  * 254: round up*/
  82:lvgl/src/hal/../misc/lv_color.h **** #ifndef LV_COLOR_MIX_ROUND_OFS
  83:lvgl/src/hal/../misc/lv_color.h **** #if LV_COLOR_DEPTH == 32
  84:lvgl/src/hal/../misc/lv_color.h **** #define LV_COLOR_MIX_ROUND_OFS 0
  85:lvgl/src/hal/../misc/lv_color.h **** #else
  86:lvgl/src/hal/../misc/lv_color.h **** #define LV_COLOR_MIX_ROUND_OFS 128
  87:lvgl/src/hal/../misc/lv_color.h **** #endif
  88:lvgl/src/hal/../misc/lv_color.h **** #endif
  89:lvgl/src/hal/../misc/lv_color.h **** 
  90:lvgl/src/hal/../misc/lv_color.h **** #if defined(__cplusplus) && !defined(_LV_COLOR_HAS_MODERN_CPP)
  91:lvgl/src/hal/../misc/lv_color.h **** /**
  92:lvgl/src/hal/../misc/lv_color.h **** * MSVC compiler's definition of the __cplusplus indicating 199711L regardless to C++ standard versi
  93:lvgl/src/hal/../misc/lv_color.h **** * see https://devblogs.microsoft.com/cppblog/msvc-now-correctly-reports-cplusplus
  94:lvgl/src/hal/../misc/lv_color.h **** * so we use _MSC_VER macro instead of __cplusplus
  95:lvgl/src/hal/../misc/lv_color.h **** */
  96:lvgl/src/hal/../misc/lv_color.h **** #ifdef _MSC_VER
  97:lvgl/src/hal/../misc/lv_color.h **** #if _MSC_VER >= 1900 /*Visual Studio 2015*/
  98:lvgl/src/hal/../misc/lv_color.h **** #define _LV_COLOR_HAS_MODERN_CPP 1
ARM GAS  C:\Users\BLACK_~1\AppData\Local\Temp\ccSDhoe1.s 			page 12


  99:lvgl/src/hal/../misc/lv_color.h **** #endif
 100:lvgl/src/hal/../misc/lv_color.h **** #else
 101:lvgl/src/hal/../misc/lv_color.h **** #if __cplusplus >= 201103L
 102:lvgl/src/hal/../misc/lv_color.h **** #define _LV_COLOR_HAS_MODERN_CPP 1
 103:lvgl/src/hal/../misc/lv_color.h **** #endif
 104:lvgl/src/hal/../misc/lv_color.h **** #endif
 105:lvgl/src/hal/../misc/lv_color.h **** #endif /*__cplusplus*/
 106:lvgl/src/hal/../misc/lv_color.h **** 
 107:lvgl/src/hal/../misc/lv_color.h **** #ifndef _LV_COLOR_HAS_MODERN_CPP
 108:lvgl/src/hal/../misc/lv_color.h **** #define _LV_COLOR_HAS_MODERN_CPP 0
 109:lvgl/src/hal/../misc/lv_color.h **** #endif
 110:lvgl/src/hal/../misc/lv_color.h **** 
 111:lvgl/src/hal/../misc/lv_color.h **** #if _LV_COLOR_HAS_MODERN_CPP
 112:lvgl/src/hal/../misc/lv_color.h **** /*Fix msvc compiler error C4576 inside C++ code*/
 113:lvgl/src/hal/../misc/lv_color.h **** #define _LV_COLOR_MAKE_TYPE_HELPER lv_color_t
 114:lvgl/src/hal/../misc/lv_color.h **** #else
 115:lvgl/src/hal/../misc/lv_color.h **** #define _LV_COLOR_MAKE_TYPE_HELPER (lv_color_t)
 116:lvgl/src/hal/../misc/lv_color.h **** #endif
 117:lvgl/src/hal/../misc/lv_color.h **** 
 118:lvgl/src/hal/../misc/lv_color.h **** /*---------------------------------------
 119:lvgl/src/hal/../misc/lv_color.h ****  * Macros for all existing color depths
 120:lvgl/src/hal/../misc/lv_color.h ****  * to set/get values of the color channels
 121:lvgl/src/hal/../misc/lv_color.h ****  *------------------------------------------*/
 122:lvgl/src/hal/../misc/lv_color.h **** # define LV_COLOR_SET_R1(c, v) (c).ch.red = (uint8_t)((v) & 0x1)
 123:lvgl/src/hal/../misc/lv_color.h **** # define LV_COLOR_SET_G1(c, v) (c).ch.green = (uint8_t)((v) & 0x1)
 124:lvgl/src/hal/../misc/lv_color.h **** # define LV_COLOR_SET_B1(c, v) (c).ch.blue = (uint8_t)((v) & 0x1)
 125:lvgl/src/hal/../misc/lv_color.h **** # define LV_COLOR_SET_A1(c, v) do {} while(0)
 126:lvgl/src/hal/../misc/lv_color.h **** 
 127:lvgl/src/hal/../misc/lv_color.h **** # define LV_COLOR_GET_R1(c) (c).ch.red
 128:lvgl/src/hal/../misc/lv_color.h **** # define LV_COLOR_GET_G1(c) (c).ch.green
 129:lvgl/src/hal/../misc/lv_color.h **** # define LV_COLOR_GET_B1(c) (c).ch.blue
 130:lvgl/src/hal/../misc/lv_color.h **** # define LV_COLOR_GET_A1(c) 0xFF
 131:lvgl/src/hal/../misc/lv_color.h **** 
 132:lvgl/src/hal/../misc/lv_color.h **** # define _LV_COLOR_ZERO_INITIALIZER1 {0x00}
 133:lvgl/src/hal/../misc/lv_color.h **** # define LV_COLOR_MAKE1(r8, g8, b8)  {(uint8_t)((b8 >> 7) | (g8 >> 7) | (r8 >> 7))}
 134:lvgl/src/hal/../misc/lv_color.h **** 
 135:lvgl/src/hal/../misc/lv_color.h **** # define LV_COLOR_SET_R8(c, v) (c).ch.red = (uint8_t)((v) & 0x7U)
 136:lvgl/src/hal/../misc/lv_color.h **** # define LV_COLOR_SET_G8(c, v) (c).ch.green = (uint8_t)((v) & 0x7U)
 137:lvgl/src/hal/../misc/lv_color.h **** # define LV_COLOR_SET_B8(c, v) (c).ch.blue = (uint8_t)((v) & 0x3U)
 138:lvgl/src/hal/../misc/lv_color.h **** # define LV_COLOR_SET_A8(c, v) do {} while(0)
 139:lvgl/src/hal/../misc/lv_color.h **** 
 140:lvgl/src/hal/../misc/lv_color.h **** # define LV_COLOR_GET_R8(c) (c).ch.red
 141:lvgl/src/hal/../misc/lv_color.h **** # define LV_COLOR_GET_G8(c) (c).ch.green
 142:lvgl/src/hal/../misc/lv_color.h **** # define LV_COLOR_GET_B8(c) (c).ch.blue
 143:lvgl/src/hal/../misc/lv_color.h **** # define LV_COLOR_GET_A8(c) 0xFF
 144:lvgl/src/hal/../misc/lv_color.h **** 
 145:lvgl/src/hal/../misc/lv_color.h **** # define _LV_COLOR_ZERO_INITIALIZER8 {{0x00, 0x00, 0x00}}
 146:lvgl/src/hal/../misc/lv_color.h **** # define LV_COLOR_MAKE8(r8, g8, b8) {{(uint8_t)((b8 >> 6) & 0x3U), (uint8_t)((g8 >> 5) & 0x7U), (ui
 147:lvgl/src/hal/../misc/lv_color.h **** 
 148:lvgl/src/hal/../misc/lv_color.h **** # define LV_COLOR_SET_R16(c, v) (c).ch.red = (uint8_t)((v) & 0x1FU)
 149:lvgl/src/hal/../misc/lv_color.h **** #if LV_COLOR_16_SWAP == 0
 150:lvgl/src/hal/../misc/lv_color.h **** # define LV_COLOR_SET_G16(c, v) (c).ch.green = (uint8_t)((v) & 0x3FU)
 151:lvgl/src/hal/../misc/lv_color.h **** #else
 152:lvgl/src/hal/../misc/lv_color.h **** # define LV_COLOR_SET_G16(c, v) {(c).ch.green_h = (uint8_t)(((v) >> 3) & 0x7); (c).ch.green_l = (ui
 153:lvgl/src/hal/../misc/lv_color.h **** #endif
 154:lvgl/src/hal/../misc/lv_color.h **** # define LV_COLOR_SET_B16(c, v) (c).ch.blue = (uint8_t)((v) & 0x1FU)
 155:lvgl/src/hal/../misc/lv_color.h **** # define LV_COLOR_SET_A16(c, v) do {} while(0)
ARM GAS  C:\Users\BLACK_~1\AppData\Local\Temp\ccSDhoe1.s 			page 13


 156:lvgl/src/hal/../misc/lv_color.h **** 
 157:lvgl/src/hal/../misc/lv_color.h **** # define LV_COLOR_GET_R16(c) (c).ch.red
 158:lvgl/src/hal/../misc/lv_color.h **** #if LV_COLOR_16_SWAP == 0
 159:lvgl/src/hal/../misc/lv_color.h **** # define LV_COLOR_GET_G16(c) (c).ch.green
 160:lvgl/src/hal/../misc/lv_color.h **** #else
 161:lvgl/src/hal/../misc/lv_color.h **** # define LV_COLOR_GET_G16(c) (((c).ch.green_h << 3) + (c).ch.green_l)
 162:lvgl/src/hal/../misc/lv_color.h **** #endif
 163:lvgl/src/hal/../misc/lv_color.h **** # define LV_COLOR_GET_B16(c) (c).ch.blue
 164:lvgl/src/hal/../misc/lv_color.h **** # define LV_COLOR_GET_A16(c) 0xFF
 165:lvgl/src/hal/../misc/lv_color.h **** 
 166:lvgl/src/hal/../misc/lv_color.h **** #if LV_COLOR_16_SWAP == 0
 167:lvgl/src/hal/../misc/lv_color.h **** # define _LV_COLOR_ZERO_INITIALIZER16  {{0x00, 0x00, 0x00}}
 168:lvgl/src/hal/../misc/lv_color.h **** # define LV_COLOR_MAKE16(r8, g8, b8) {{(uint8_t)((b8 >> 3) & 0x1FU), (uint8_t)((g8 >> 2) & 0x3FU), 
 169:lvgl/src/hal/../misc/lv_color.h **** #else
 170:lvgl/src/hal/../misc/lv_color.h **** # define _LV_COLOR_ZERO_INITIALIZER16 {{0x00, 0x00, 0x00, 0x00}}
 171:lvgl/src/hal/../misc/lv_color.h **** # define LV_COLOR_MAKE16(r8, g8, b8) {{(uint8_t)((g8 >> 5) & 0x7U), (uint8_t)((r8 >> 3) & 0x1FU), (
 172:lvgl/src/hal/../misc/lv_color.h **** #endif
 173:lvgl/src/hal/../misc/lv_color.h **** 
 174:lvgl/src/hal/../misc/lv_color.h **** # define LV_COLOR_SET_R32(c, v) (c).ch.red = (uint8_t)((v) & 0xFF)
 175:lvgl/src/hal/../misc/lv_color.h **** # define LV_COLOR_SET_G32(c, v) (c).ch.green = (uint8_t)((v) & 0xFF)
 176:lvgl/src/hal/../misc/lv_color.h **** # define LV_COLOR_SET_B32(c, v) (c).ch.blue = (uint8_t)((v) & 0xFF)
 177:lvgl/src/hal/../misc/lv_color.h **** # define LV_COLOR_SET_A32(c, v) (c).ch.alpha = (uint8_t)((v) & 0xFF)
 178:lvgl/src/hal/../misc/lv_color.h **** 
 179:lvgl/src/hal/../misc/lv_color.h **** # define LV_COLOR_GET_R32(c) (c).ch.red
 180:lvgl/src/hal/../misc/lv_color.h **** # define LV_COLOR_GET_G32(c) (c).ch.green
 181:lvgl/src/hal/../misc/lv_color.h **** # define LV_COLOR_GET_B32(c) (c).ch.blue
 182:lvgl/src/hal/../misc/lv_color.h **** # define LV_COLOR_GET_A32(c) (c).ch.alpha
 183:lvgl/src/hal/../misc/lv_color.h **** 
 184:lvgl/src/hal/../misc/lv_color.h **** # define _LV_COLOR_ZERO_INITIALIZER32  {{0x00, 0x00, 0x00, 0x00}}
 185:lvgl/src/hal/../misc/lv_color.h **** # define LV_COLOR_MAKE32(r8, g8, b8) {{b8, g8, r8, 0xff}} /*Fix 0xff alpha*/
 186:lvgl/src/hal/../misc/lv_color.h **** 
 187:lvgl/src/hal/../misc/lv_color.h **** /*---------------------------------------
 188:lvgl/src/hal/../misc/lv_color.h ****  * Macros for the current color depth
 189:lvgl/src/hal/../misc/lv_color.h ****  * to set/get values of the color channels
 190:lvgl/src/hal/../misc/lv_color.h ****  *------------------------------------------*/
 191:lvgl/src/hal/../misc/lv_color.h **** #define LV_COLOR_SET_R(c, v) LV_CONCAT(LV_COLOR_SET_R, LV_COLOR_DEPTH)(c, v)
 192:lvgl/src/hal/../misc/lv_color.h **** #define LV_COLOR_SET_G(c, v) LV_CONCAT(LV_COLOR_SET_G, LV_COLOR_DEPTH)(c, v)
 193:lvgl/src/hal/../misc/lv_color.h **** #define LV_COLOR_SET_B(c, v) LV_CONCAT(LV_COLOR_SET_B, LV_COLOR_DEPTH)(c, v)
 194:lvgl/src/hal/../misc/lv_color.h **** #define LV_COLOR_SET_A(c, v) LV_CONCAT(LV_COLOR_SET_A, LV_COLOR_DEPTH)(c, v)
 195:lvgl/src/hal/../misc/lv_color.h **** 
 196:lvgl/src/hal/../misc/lv_color.h **** #define LV_COLOR_GET_R(c) LV_CONCAT(LV_COLOR_GET_R, LV_COLOR_DEPTH)(c)
 197:lvgl/src/hal/../misc/lv_color.h **** #define LV_COLOR_GET_G(c) LV_CONCAT(LV_COLOR_GET_G, LV_COLOR_DEPTH)(c)
 198:lvgl/src/hal/../misc/lv_color.h **** #define LV_COLOR_GET_B(c) LV_CONCAT(LV_COLOR_GET_B, LV_COLOR_DEPTH)(c)
 199:lvgl/src/hal/../misc/lv_color.h **** #define LV_COLOR_GET_A(c) LV_CONCAT(LV_COLOR_GET_A, LV_COLOR_DEPTH)(c)
 200:lvgl/src/hal/../misc/lv_color.h **** 
 201:lvgl/src/hal/../misc/lv_color.h **** #define _LV_COLOR_ZERO_INITIALIZER LV_CONCAT(_LV_COLOR_ZERO_INITIALIZER, LV_COLOR_DEPTH)
 202:lvgl/src/hal/../misc/lv_color.h **** #define LV_COLOR_MAKE(r8, g8, b8) LV_CONCAT(LV_COLOR_MAKE, LV_COLOR_DEPTH)(r8, g8, b8)
 203:lvgl/src/hal/../misc/lv_color.h **** 
 204:lvgl/src/hal/../misc/lv_color.h **** #define LV_UDIV255(x) ((uint32_t)((uint32_t) (x) * 0x8081) >> 0x17)
 205:lvgl/src/hal/../misc/lv_color.h **** 
 206:lvgl/src/hal/../misc/lv_color.h **** /**********************
 207:lvgl/src/hal/../misc/lv_color.h ****  *      TYPEDEFS
 208:lvgl/src/hal/../misc/lv_color.h ****  **********************/
 209:lvgl/src/hal/../misc/lv_color.h **** 
 210:lvgl/src/hal/../misc/lv_color.h **** typedef union {
 211:lvgl/src/hal/../misc/lv_color.h ****     uint8_t full; /*must be declared first to set all bits of byte via initializer list*/
 212:lvgl/src/hal/../misc/lv_color.h ****     union {
ARM GAS  C:\Users\BLACK_~1\AppData\Local\Temp\ccSDhoe1.s 			page 14


 213:lvgl/src/hal/../misc/lv_color.h ****         uint8_t blue : 1;
 214:lvgl/src/hal/../misc/lv_color.h ****         uint8_t green : 1;
 215:lvgl/src/hal/../misc/lv_color.h ****         uint8_t red : 1;
 216:lvgl/src/hal/../misc/lv_color.h ****     } ch;
 217:lvgl/src/hal/../misc/lv_color.h **** } lv_color1_t;
 218:lvgl/src/hal/../misc/lv_color.h **** 
 219:lvgl/src/hal/../misc/lv_color.h **** typedef union {
 220:lvgl/src/hal/../misc/lv_color.h ****     struct {
 221:lvgl/src/hal/../misc/lv_color.h ****         uint8_t blue : 2;
 222:lvgl/src/hal/../misc/lv_color.h ****         uint8_t green : 3;
 223:lvgl/src/hal/../misc/lv_color.h ****         uint8_t red : 3;
 224:lvgl/src/hal/../misc/lv_color.h ****     } ch;
 225:lvgl/src/hal/../misc/lv_color.h ****     uint8_t full;
 226:lvgl/src/hal/../misc/lv_color.h **** } lv_color8_t;
 227:lvgl/src/hal/../misc/lv_color.h **** 
 228:lvgl/src/hal/../misc/lv_color.h **** typedef union {
 229:lvgl/src/hal/../misc/lv_color.h ****     struct {
 230:lvgl/src/hal/../misc/lv_color.h **** #if LV_COLOR_16_SWAP == 0
 231:lvgl/src/hal/../misc/lv_color.h ****         uint16_t blue : 5;
 232:lvgl/src/hal/../misc/lv_color.h ****         uint16_t green : 6;
 233:lvgl/src/hal/../misc/lv_color.h ****         uint16_t red : 5;
 234:lvgl/src/hal/../misc/lv_color.h **** #else
 235:lvgl/src/hal/../misc/lv_color.h ****         uint16_t green_h : 3;
 236:lvgl/src/hal/../misc/lv_color.h ****         uint16_t red : 5;
 237:lvgl/src/hal/../misc/lv_color.h ****         uint16_t blue : 5;
 238:lvgl/src/hal/../misc/lv_color.h ****         uint16_t green_l : 3;
 239:lvgl/src/hal/../misc/lv_color.h **** #endif
 240:lvgl/src/hal/../misc/lv_color.h ****     } ch;
 241:lvgl/src/hal/../misc/lv_color.h ****     uint16_t full;
 242:lvgl/src/hal/../misc/lv_color.h **** } lv_color16_t;
 243:lvgl/src/hal/../misc/lv_color.h **** 
 244:lvgl/src/hal/../misc/lv_color.h **** typedef union {
 245:lvgl/src/hal/../misc/lv_color.h ****     struct {
 246:lvgl/src/hal/../misc/lv_color.h ****         uint8_t blue;
 247:lvgl/src/hal/../misc/lv_color.h ****         uint8_t green;
 248:lvgl/src/hal/../misc/lv_color.h ****         uint8_t red;
 249:lvgl/src/hal/../misc/lv_color.h ****         uint8_t alpha;
 250:lvgl/src/hal/../misc/lv_color.h ****     } ch;
 251:lvgl/src/hal/../misc/lv_color.h ****     uint32_t full;
 252:lvgl/src/hal/../misc/lv_color.h **** } lv_color32_t;
 253:lvgl/src/hal/../misc/lv_color.h **** 
 254:lvgl/src/hal/../misc/lv_color.h **** typedef LV_CONCAT3(uint, LV_COLOR_SIZE, _t) lv_color_int_t;
 255:lvgl/src/hal/../misc/lv_color.h **** typedef LV_CONCAT3(lv_color, LV_COLOR_DEPTH, _t) lv_color_t;
 256:lvgl/src/hal/../misc/lv_color.h **** 
 257:lvgl/src/hal/../misc/lv_color.h **** typedef struct {
 258:lvgl/src/hal/../misc/lv_color.h ****     uint16_t h;
 259:lvgl/src/hal/../misc/lv_color.h ****     uint8_t s;
 260:lvgl/src/hal/../misc/lv_color.h ****     uint8_t v;
 261:lvgl/src/hal/../misc/lv_color.h **** } lv_color_hsv_t;
 262:lvgl/src/hal/../misc/lv_color.h **** 
 263:lvgl/src/hal/../misc/lv_color.h **** //! @cond Doxygen_Suppress
 264:lvgl/src/hal/../misc/lv_color.h **** /*No idea where the guard is required but else throws warnings in the docs*/
 265:lvgl/src/hal/../misc/lv_color.h **** typedef uint8_t lv_opa_t;
 266:lvgl/src/hal/../misc/lv_color.h **** //! @endcond
 267:lvgl/src/hal/../misc/lv_color.h **** 
 268:lvgl/src/hal/../misc/lv_color.h **** struct _lv_color_filter_dsc_t;
 269:lvgl/src/hal/../misc/lv_color.h **** 
ARM GAS  C:\Users\BLACK_~1\AppData\Local\Temp\ccSDhoe1.s 			page 15


 270:lvgl/src/hal/../misc/lv_color.h **** typedef lv_color_t (*lv_color_filter_cb_t)(const struct _lv_color_filter_dsc_t *, lv_color_t, lv_op
 271:lvgl/src/hal/../misc/lv_color.h **** 
 272:lvgl/src/hal/../misc/lv_color.h **** typedef struct _lv_color_filter_dsc_t {
 273:lvgl/src/hal/../misc/lv_color.h ****     lv_color_filter_cb_t filter_cb;
 274:lvgl/src/hal/../misc/lv_color.h ****     void * user_data;
 275:lvgl/src/hal/../misc/lv_color.h **** }lv_color_filter_dsc_t;
 276:lvgl/src/hal/../misc/lv_color.h **** 
 277:lvgl/src/hal/../misc/lv_color.h **** 
 278:lvgl/src/hal/../misc/lv_color.h **** typedef enum {
 279:lvgl/src/hal/../misc/lv_color.h ****     LV_PALETTE_RED,
 280:lvgl/src/hal/../misc/lv_color.h ****     LV_PALETTE_PINK,
 281:lvgl/src/hal/../misc/lv_color.h ****     LV_PALETTE_PURPLE,
 282:lvgl/src/hal/../misc/lv_color.h ****     LV_PALETTE_DEEP_PURPLE,
 283:lvgl/src/hal/../misc/lv_color.h ****     LV_PALETTE_INDIGO,
 284:lvgl/src/hal/../misc/lv_color.h ****     LV_PALETTE_BLUE,
 285:lvgl/src/hal/../misc/lv_color.h ****     LV_PALETTE_LIGHT_BLUE,
 286:lvgl/src/hal/../misc/lv_color.h ****     LV_PALETTE_CYAN,
 287:lvgl/src/hal/../misc/lv_color.h ****     LV_PALETTE_TEAL,
 288:lvgl/src/hal/../misc/lv_color.h ****     LV_PALETTE_GREEN,
 289:lvgl/src/hal/../misc/lv_color.h ****     LV_PALETTE_LIGHT_GREEN,
 290:lvgl/src/hal/../misc/lv_color.h ****     LV_PALETTE_LIME,
 291:lvgl/src/hal/../misc/lv_color.h ****     LV_PALETTE_YELLOW,
 292:lvgl/src/hal/../misc/lv_color.h ****     LV_PALETTE_AMBER,
 293:lvgl/src/hal/../misc/lv_color.h ****     LV_PALETTE_ORANGE,
 294:lvgl/src/hal/../misc/lv_color.h ****     LV_PALETTE_DEEP_ORANGE,
 295:lvgl/src/hal/../misc/lv_color.h ****     LV_PALETTE_BROWN,
 296:lvgl/src/hal/../misc/lv_color.h ****     LV_PALETTE_BLUE_GREY,
 297:lvgl/src/hal/../misc/lv_color.h ****     LV_PALETTE_GREY,
 298:lvgl/src/hal/../misc/lv_color.h ****     _LV_PALETTE_LAST,
 299:lvgl/src/hal/../misc/lv_color.h ****     LV_PALETTE_NONE = 0xff,
 300:lvgl/src/hal/../misc/lv_color.h **** }lv_palette_t;
 301:lvgl/src/hal/../misc/lv_color.h **** 
 302:lvgl/src/hal/../misc/lv_color.h **** /**********************
 303:lvgl/src/hal/../misc/lv_color.h ****  * GLOBAL PROTOTYPES
 304:lvgl/src/hal/../misc/lv_color.h ****  **********************/
 305:lvgl/src/hal/../misc/lv_color.h **** 
 306:lvgl/src/hal/../misc/lv_color.h **** /*In color conversations:
 307:lvgl/src/hal/../misc/lv_color.h ****  * - When converting to bigger color type the LSB weight of 1 LSB is calculated
 308:lvgl/src/hal/../misc/lv_color.h ****  *   E.g. 16 bit Red has 5 bits
 309:lvgl/src/hal/../misc/lv_color.h ****  *         8 bit Red has 3 bits
 310:lvgl/src/hal/../misc/lv_color.h ****  *        ----------------------
 311:lvgl/src/hal/../misc/lv_color.h ****  *        8 bit red LSB = (2^5 - 1) / (2^3 - 1) = 31 / 7 = 4
 312:lvgl/src/hal/../misc/lv_color.h ****  *
 313:lvgl/src/hal/../misc/lv_color.h ****  * - When calculating to smaller color type simply shift out the LSBs
 314:lvgl/src/hal/../misc/lv_color.h ****  *   E.g.  8 bit Red has 3 bits
 315:lvgl/src/hal/../misc/lv_color.h ****  *        16 bit Red has 5 bits
 316:lvgl/src/hal/../misc/lv_color.h ****  *        ----------------------
 317:lvgl/src/hal/../misc/lv_color.h ****  *         Shift right with 5 - 3 = 2
 318:lvgl/src/hal/../misc/lv_color.h ****  */
 319:lvgl/src/hal/../misc/lv_color.h **** static inline uint8_t lv_color_to1(lv_color_t color)
 320:lvgl/src/hal/../misc/lv_color.h **** {
 321:lvgl/src/hal/../misc/lv_color.h **** #if LV_COLOR_DEPTH == 1
 322:lvgl/src/hal/../misc/lv_color.h ****     return color.full;
 323:lvgl/src/hal/../misc/lv_color.h **** #elif LV_COLOR_DEPTH == 8
 324:lvgl/src/hal/../misc/lv_color.h ****     if((LV_COLOR_GET_R(color) & 0x4) || (LV_COLOR_GET_G(color) & 0x4) || (LV_COLOR_GET_B(color) & 0
 325:lvgl/src/hal/../misc/lv_color.h ****         return 1;
 326:lvgl/src/hal/../misc/lv_color.h ****     }
ARM GAS  C:\Users\BLACK_~1\AppData\Local\Temp\ccSDhoe1.s 			page 16


 327:lvgl/src/hal/../misc/lv_color.h ****     else {
 328:lvgl/src/hal/../misc/lv_color.h ****         return 0;
 329:lvgl/src/hal/../misc/lv_color.h ****     }
 330:lvgl/src/hal/../misc/lv_color.h **** #elif LV_COLOR_DEPTH == 16
 331:lvgl/src/hal/../misc/lv_color.h ****     if((LV_COLOR_GET_R(color) & 0x10) || (LV_COLOR_GET_G(color) & 0x20) || (LV_COLOR_GET_B(color) &
 332:lvgl/src/hal/../misc/lv_color.h ****         return 1;
 333:lvgl/src/hal/../misc/lv_color.h ****     }
 334:lvgl/src/hal/../misc/lv_color.h ****     else {
 335:lvgl/src/hal/../misc/lv_color.h ****         return 0;
 336:lvgl/src/hal/../misc/lv_color.h ****     }
 337:lvgl/src/hal/../misc/lv_color.h **** #elif LV_COLOR_DEPTH == 32
 338:lvgl/src/hal/../misc/lv_color.h ****     if((LV_COLOR_GET_R(color) & 0x80) || (LV_COLOR_GET_G(color) & 0x80) || (LV_COLOR_GET_B(color) &
 339:lvgl/src/hal/../misc/lv_color.h ****         return 1;
 340:lvgl/src/hal/../misc/lv_color.h ****     }
 341:lvgl/src/hal/../misc/lv_color.h ****     else {
 342:lvgl/src/hal/../misc/lv_color.h ****         return 0;
 343:lvgl/src/hal/../misc/lv_color.h ****     }
 344:lvgl/src/hal/../misc/lv_color.h **** #endif
 345:lvgl/src/hal/../misc/lv_color.h **** }
 346:lvgl/src/hal/../misc/lv_color.h **** 
 347:lvgl/src/hal/../misc/lv_color.h **** static inline uint8_t lv_color_to8(lv_color_t color)
 348:lvgl/src/hal/../misc/lv_color.h **** {
 349:lvgl/src/hal/../misc/lv_color.h **** #if LV_COLOR_DEPTH == 1
 350:lvgl/src/hal/../misc/lv_color.h ****     if(color.full == 0)
 351:lvgl/src/hal/../misc/lv_color.h ****         return 0;
 352:lvgl/src/hal/../misc/lv_color.h ****     else
 353:lvgl/src/hal/../misc/lv_color.h ****         return 0xFF;
 354:lvgl/src/hal/../misc/lv_color.h **** #elif LV_COLOR_DEPTH == 8
 355:lvgl/src/hal/../misc/lv_color.h ****     return color.full;
 356:lvgl/src/hal/../misc/lv_color.h **** #elif LV_COLOR_DEPTH == 16
 357:lvgl/src/hal/../misc/lv_color.h ****     lv_color8_t ret;
 358:lvgl/src/hal/../misc/lv_color.h ****     LV_COLOR_SET_R8(ret, LV_COLOR_GET_R(color) >> 2); /*5 - 3  = 2*/
 359:lvgl/src/hal/../misc/lv_color.h ****     LV_COLOR_SET_G8(ret, LV_COLOR_GET_G(color) >> 3); /*6 - 3  = 3*/
 360:lvgl/src/hal/../misc/lv_color.h ****     LV_COLOR_SET_B8(ret, LV_COLOR_GET_B(color) >> 3); /*5 - 2  = 3*/
 361:lvgl/src/hal/../misc/lv_color.h ****     return ret.full;
 362:lvgl/src/hal/../misc/lv_color.h **** #elif LV_COLOR_DEPTH == 32
 363:lvgl/src/hal/../misc/lv_color.h ****     lv_color8_t ret;
 364:lvgl/src/hal/../misc/lv_color.h ****     LV_COLOR_SET_R8(ret, LV_COLOR_GET_R(color) >> 5); /*8 - 3  = 5*/
 365:lvgl/src/hal/../misc/lv_color.h ****     LV_COLOR_SET_G8(ret, LV_COLOR_GET_G(color) >> 5); /*8 - 3  = 5*/
 366:lvgl/src/hal/../misc/lv_color.h ****     LV_COLOR_SET_B8(ret, LV_COLOR_GET_B(color) >> 6); /*8 - 2  = 6*/
 367:lvgl/src/hal/../misc/lv_color.h ****     return ret.full;
 368:lvgl/src/hal/../misc/lv_color.h **** #endif
 369:lvgl/src/hal/../misc/lv_color.h **** }
 370:lvgl/src/hal/../misc/lv_color.h **** 
 371:lvgl/src/hal/../misc/lv_color.h **** static inline uint16_t lv_color_to16(lv_color_t color)
 372:lvgl/src/hal/../misc/lv_color.h **** {
 373:lvgl/src/hal/../misc/lv_color.h **** #if LV_COLOR_DEPTH == 1
 374:lvgl/src/hal/../misc/lv_color.h ****     if(color.full == 0)
 375:lvgl/src/hal/../misc/lv_color.h ****         return 0;
 376:lvgl/src/hal/../misc/lv_color.h ****     else
 377:lvgl/src/hal/../misc/lv_color.h ****         return 0xFFFF;
 378:lvgl/src/hal/../misc/lv_color.h **** #elif LV_COLOR_DEPTH == 8
 379:lvgl/src/hal/../misc/lv_color.h ****     lv_color16_t ret;
 380:lvgl/src/hal/../misc/lv_color.h ****     LV_COLOR_SET_R16(ret, LV_COLOR_GET_R(color) * 4);  /*(2^5 - 1)/(2^3 - 1) = 31/7 = 4*/
 381:lvgl/src/hal/../misc/lv_color.h ****     LV_COLOR_SET_G16(ret, LV_COLOR_GET_G(color) * 9);  /*(2^6 - 1)/(2^3 - 1) = 63/7 = 9*/
 382:lvgl/src/hal/../misc/lv_color.h ****     LV_COLOR_SET_B16(ret, LV_COLOR_GET_B(color) * 10); /*(2^5 - 1)/(2^2 - 1) = 31/3 = 10*/
 383:lvgl/src/hal/../misc/lv_color.h ****     return ret.full;
ARM GAS  C:\Users\BLACK_~1\AppData\Local\Temp\ccSDhoe1.s 			page 17


 384:lvgl/src/hal/../misc/lv_color.h **** #elif LV_COLOR_DEPTH == 16
 385:lvgl/src/hal/../misc/lv_color.h ****     return color.full;
 386:lvgl/src/hal/../misc/lv_color.h **** #elif LV_COLOR_DEPTH == 32
 387:lvgl/src/hal/../misc/lv_color.h ****     lv_color16_t ret;
 388:lvgl/src/hal/../misc/lv_color.h ****     LV_COLOR_SET_R16(ret, LV_COLOR_GET_R(color) >> 3); /*8 - 5  = 3*/
 389:lvgl/src/hal/../misc/lv_color.h ****     LV_COLOR_SET_G16(ret, LV_COLOR_GET_G(color) >> 2); /*8 - 6  = 2*/
 390:lvgl/src/hal/../misc/lv_color.h ****     LV_COLOR_SET_B16(ret, LV_COLOR_GET_B(color) >> 3); /*8 - 5  = 3*/
 391:lvgl/src/hal/../misc/lv_color.h ****     return ret.full;
 392:lvgl/src/hal/../misc/lv_color.h **** #endif
 393:lvgl/src/hal/../misc/lv_color.h **** }
 394:lvgl/src/hal/../misc/lv_color.h **** 
 395:lvgl/src/hal/../misc/lv_color.h **** static inline uint32_t lv_color_to32(lv_color_t color)
 396:lvgl/src/hal/../misc/lv_color.h **** {
 397:lvgl/src/hal/../misc/lv_color.h **** #if LV_COLOR_DEPTH == 1
 398:lvgl/src/hal/../misc/lv_color.h ****     if(color.full == 0)
 399:lvgl/src/hal/../misc/lv_color.h ****         return 0xFF000000;
 400:lvgl/src/hal/../misc/lv_color.h ****     else
 401:lvgl/src/hal/../misc/lv_color.h ****         return 0xFFFFFFFF;
 402:lvgl/src/hal/../misc/lv_color.h **** #elif LV_COLOR_DEPTH == 8
 403:lvgl/src/hal/../misc/lv_color.h ****     lv_color32_t ret;
 404:lvgl/src/hal/../misc/lv_color.h ****     LV_COLOR_SET_R32(ret, LV_COLOR_GET_R(color) * 36); /*(2^8 - 1)/(2^3 - 1) = 255/7 = 36*/
 405:lvgl/src/hal/../misc/lv_color.h ****     LV_COLOR_SET_G32(ret, LV_COLOR_GET_G(color) * 36); /*(2^8 - 1)/(2^3 - 1) = 255/7 = 36*/
 406:lvgl/src/hal/../misc/lv_color.h ****     LV_COLOR_SET_B32(ret, LV_COLOR_GET_B(color) * 85); /*(2^8 - 1)/(2^2 - 1) = 255/3 = 85*/
 407:lvgl/src/hal/../misc/lv_color.h ****     LV_COLOR_SET_A32(ret, 0xFF);
 408:lvgl/src/hal/../misc/lv_color.h ****     return ret.full;
 409:lvgl/src/hal/../misc/lv_color.h **** #elif LV_COLOR_DEPTH == 16
 410:lvgl/src/hal/../misc/lv_color.h ****     /**
 411:lvgl/src/hal/../misc/lv_color.h ****      * The floating point math for conversion is:
 412:lvgl/src/hal/../misc/lv_color.h ****      *  valueto = valuefrom * ( (2^bitsto - 1) / (float)(2^bitsfrom - 1) )
 413:lvgl/src/hal/../misc/lv_color.h ****      * The faster integer math for conversion is:
 414:lvgl/src/hal/../misc/lv_color.h ****      *  valueto = ( valuefrom * multiplier + adder ) >> divisor
 415:lvgl/src/hal/../misc/lv_color.h ****      *   multiplier = FLOOR( ( (2^bitsto - 1) << divisor ) / (float)(2^bitsfrom - 1) )
 416:lvgl/src/hal/../misc/lv_color.h ****      *
 417:lvgl/src/hal/../misc/lv_color.h ****      * Find the first divisor where ( adder >> divisor ) <= 0
 418:lvgl/src/hal/../misc/lv_color.h ****      *
 419:lvgl/src/hal/../misc/lv_color.h ****      * 5-bit to 8-bit: ( 31 * multiplier + adder ) >> divisor = 255
 420:lvgl/src/hal/../misc/lv_color.h ****      * divisor  multiplier  adder  min (0)  max (31)
 421:lvgl/src/hal/../misc/lv_color.h ****      *       0           8      7        7       255
 422:lvgl/src/hal/../misc/lv_color.h ****      *       1          16     14        7       255
 423:lvgl/src/hal/../misc/lv_color.h ****      *       2          32     28        7       255
 424:lvgl/src/hal/../misc/lv_color.h ****      *       3          65     25        3       255
 425:lvgl/src/hal/../misc/lv_color.h ****      *       4         131     19        1       255
 426:lvgl/src/hal/../misc/lv_color.h ****      *       5         263      7        0       255
 427:lvgl/src/hal/../misc/lv_color.h ****      *
 428:lvgl/src/hal/../misc/lv_color.h ****      * 6-bit to 8-bit: 255 = ( 63 * multiplier + adder ) >> divisor
 429:lvgl/src/hal/../misc/lv_color.h ****      * divisor  multiplier  adder  min (0)  max (63)
 430:lvgl/src/hal/../misc/lv_color.h ****      *       0           4      3        3       255
 431:lvgl/src/hal/../misc/lv_color.h ****      *       1           8      6        3       255
 432:lvgl/src/hal/../misc/lv_color.h ****      *       2          16     12        3       255
 433:lvgl/src/hal/../misc/lv_color.h ****      *       3          32     24        3       255
 434:lvgl/src/hal/../misc/lv_color.h ****      *       4          64     48        3       255
 435:lvgl/src/hal/../misc/lv_color.h ****      *       5         129     33        1       255
 436:lvgl/src/hal/../misc/lv_color.h ****      *       6         259      3        0       255
 437:lvgl/src/hal/../misc/lv_color.h ****      */
 438:lvgl/src/hal/../misc/lv_color.h **** 
 439:lvgl/src/hal/../misc/lv_color.h ****     lv_color32_t ret;
 440:lvgl/src/hal/../misc/lv_color.h ****     LV_COLOR_SET_R32(ret, (LV_COLOR_GET_R(color) * 263 + 7) >> 5);
ARM GAS  C:\Users\BLACK_~1\AppData\Local\Temp\ccSDhoe1.s 			page 18


 441:lvgl/src/hal/../misc/lv_color.h ****     LV_COLOR_SET_G32(ret, (LV_COLOR_GET_G(color) * 259 + 3) >> 6);
 442:lvgl/src/hal/../misc/lv_color.h ****     LV_COLOR_SET_B32(ret, (LV_COLOR_GET_B(color) * 263 + 7) >> 5);
 443:lvgl/src/hal/../misc/lv_color.h ****     LV_COLOR_SET_A32(ret, 0xFF);
 444:lvgl/src/hal/../misc/lv_color.h ****     return ret.full;
 445:lvgl/src/hal/../misc/lv_color.h **** #elif LV_COLOR_DEPTH == 32
 446:lvgl/src/hal/../misc/lv_color.h ****     return color.full;
 447:lvgl/src/hal/../misc/lv_color.h **** #endif
 448:lvgl/src/hal/../misc/lv_color.h **** }
 449:lvgl/src/hal/../misc/lv_color.h **** 
 450:lvgl/src/hal/../misc/lv_color.h **** //! @cond Doxygen_Suppress
 451:lvgl/src/hal/../misc/lv_color.h **** 
 452:lvgl/src/hal/../misc/lv_color.h **** /**
 453:lvgl/src/hal/../misc/lv_color.h ****  * Mix two colors with a given ratio.
 454:lvgl/src/hal/../misc/lv_color.h ****  * @param c1 the first color to mix (usually the foreground)
 455:lvgl/src/hal/../misc/lv_color.h ****  * @param c2 the second color to mix (usually the background)
 456:lvgl/src/hal/../misc/lv_color.h ****  * @param mix The ratio of the colors. 0: full `c2`, 255: full `c1`, 127: half `c1` and half`c2`
 457:lvgl/src/hal/../misc/lv_color.h ****  * @return the mixed color
 458:lvgl/src/hal/../misc/lv_color.h ****  */
 459:lvgl/src/hal/../misc/lv_color.h **** LV_ATTRIBUTE_FAST_MEM static inline lv_color_t lv_color_mix(lv_color_t c1, lv_color_t c2, uint8_t m
 460:lvgl/src/hal/../misc/lv_color.h **** {
 461:lvgl/src/hal/../misc/lv_color.h ****     lv_color_t ret;
 462:lvgl/src/hal/../misc/lv_color.h **** #if LV_COLOR_DEPTH != 1
 463:lvgl/src/hal/../misc/lv_color.h ****     /*LV_COLOR_DEPTH == 8, 16 or 32*/
 464:lvgl/src/hal/../misc/lv_color.h ****     LV_COLOR_SET_R(ret, LV_UDIV255((uint16_t) LV_COLOR_GET_R(c1) * mix + LV_COLOR_GET_R(c2) *
 465:lvgl/src/hal/../misc/lv_color.h ****                                         (255 - mix) + LV_COLOR_MIX_ROUND_OFS));
 466:lvgl/src/hal/../misc/lv_color.h ****     LV_COLOR_SET_G(ret, LV_UDIV255((uint16_t) LV_COLOR_GET_G(c1) * mix + LV_COLOR_GET_G(c2) *
 467:lvgl/src/hal/../misc/lv_color.h ****                                         (255 - mix) + LV_COLOR_MIX_ROUND_OFS));
 468:lvgl/src/hal/../misc/lv_color.h ****     LV_COLOR_SET_B(ret, LV_UDIV255((uint16_t) LV_COLOR_GET_B(c1) * mix + LV_COLOR_GET_B(c2) *
 469:lvgl/src/hal/../misc/lv_color.h ****                                         (255 - mix) + LV_COLOR_MIX_ROUND_OFS));
 470:lvgl/src/hal/../misc/lv_color.h ****     LV_COLOR_SET_A(ret, 0xFF);
 471:lvgl/src/hal/../misc/lv_color.h **** #else
 472:lvgl/src/hal/../misc/lv_color.h ****     /*LV_COLOR_DEPTH == 1*/
 473:lvgl/src/hal/../misc/lv_color.h ****     ret.full = mix > LV_OPA_50 ? c1.full : c2.full;
 474:lvgl/src/hal/../misc/lv_color.h **** #endif
 475:lvgl/src/hal/../misc/lv_color.h **** 
 476:lvgl/src/hal/../misc/lv_color.h ****     return ret;
 477:lvgl/src/hal/../misc/lv_color.h **** }
 478:lvgl/src/hal/../misc/lv_color.h **** 
 479:lvgl/src/hal/../misc/lv_color.h **** LV_ATTRIBUTE_FAST_MEM static inline void lv_color_premult(lv_color_t c, uint8_t mix, uint16_t * out
 480:lvgl/src/hal/../misc/lv_color.h **** {
 481:lvgl/src/hal/../misc/lv_color.h **** #if LV_COLOR_DEPTH != 1
 482:lvgl/src/hal/../misc/lv_color.h ****     out[0] = (uint16_t) LV_COLOR_GET_R(c) * mix;
 483:lvgl/src/hal/../misc/lv_color.h ****     out[1] = (uint16_t) LV_COLOR_GET_G(c) * mix;
 484:lvgl/src/hal/../misc/lv_color.h ****     out[2] = (uint16_t) LV_COLOR_GET_B(c) * mix;
 485:lvgl/src/hal/../misc/lv_color.h **** #else
 486:lvgl/src/hal/../misc/lv_color.h ****     (void) mix;
 487:lvgl/src/hal/../misc/lv_color.h ****     /*Pre-multiplication can't be used with 1 bpp*/
 488:lvgl/src/hal/../misc/lv_color.h ****     out[0] = LV_COLOR_GET_R(c);
 489:lvgl/src/hal/../misc/lv_color.h ****     out[1] = LV_COLOR_GET_G(c);
 490:lvgl/src/hal/../misc/lv_color.h ****     out[2] = LV_COLOR_GET_B(c);
 491:lvgl/src/hal/../misc/lv_color.h **** #endif
 492:lvgl/src/hal/../misc/lv_color.h **** 
 493:lvgl/src/hal/../misc/lv_color.h **** }
 494:lvgl/src/hal/../misc/lv_color.h **** 
 495:lvgl/src/hal/../misc/lv_color.h **** /**
 496:lvgl/src/hal/../misc/lv_color.h ****  * Mix two colors with a given ratio. It runs faster then `lv_color_mix` but requires some pre comp
 497:lvgl/src/hal/../misc/lv_color.h ****  * @param premult_c1 The first color. Should be preprocessed with `lv_color_premult(c1)`
ARM GAS  C:\Users\BLACK_~1\AppData\Local\Temp\ccSDhoe1.s 			page 19


 498:lvgl/src/hal/../misc/lv_color.h ****  * @param c2 The second color. As it is no pre computation required on it
 499:lvgl/src/hal/../misc/lv_color.h ****  * @param mix The ratio of the colors. 0: full `c1`, 255: full `c2`, 127: half `c1` and half `c2`.
 500:lvgl/src/hal/../misc/lv_color.h ****  *            Should be modified like mix = `255 - mix`
 501:lvgl/src/hal/../misc/lv_color.h ****  * @return the mixed color
 502:lvgl/src/hal/../misc/lv_color.h ****  * @note 255 won't give clearly `c1`.
 503:lvgl/src/hal/../misc/lv_color.h ****  */
 504:lvgl/src/hal/../misc/lv_color.h **** LV_ATTRIBUTE_FAST_MEM static inline lv_color_t lv_color_mix_premult(uint16_t * premult_c1, lv_color
 505:lvgl/src/hal/../misc/lv_color.h **** {
 506:lvgl/src/hal/../misc/lv_color.h ****     lv_color_t ret;
 507:lvgl/src/hal/../misc/lv_color.h **** #if LV_COLOR_DEPTH != 1
 508:lvgl/src/hal/../misc/lv_color.h ****     /*LV_COLOR_DEPTH == 8, 16 or 32*/
 509:lvgl/src/hal/../misc/lv_color.h ****     LV_COLOR_SET_R(ret, LV_UDIV255(premult_c1[0] + LV_COLOR_GET_R(c2) * mix + LV_COLOR_MIX_ROUND_OF
 510:lvgl/src/hal/../misc/lv_color.h ****     LV_COLOR_SET_G(ret, LV_UDIV255(premult_c1[1] + LV_COLOR_GET_G(c2) * mix + LV_COLOR_MIX_ROUND_OF
 511:lvgl/src/hal/../misc/lv_color.h ****     LV_COLOR_SET_B(ret, LV_UDIV255(premult_c1[2] + LV_COLOR_GET_B(c2) * mix + LV_COLOR_MIX_ROUND_OF
 512:lvgl/src/hal/../misc/lv_color.h ****     LV_COLOR_SET_A(ret, 0xFF);
 513:lvgl/src/hal/../misc/lv_color.h **** #else
 514:lvgl/src/hal/../misc/lv_color.h ****     /*LV_COLOR_DEPTH == 1*/
 515:lvgl/src/hal/../misc/lv_color.h ****     /*Restore color1*/
 516:lvgl/src/hal/../misc/lv_color.h ****     lv_color_t c1;
 517:lvgl/src/hal/../misc/lv_color.h ****     LV_COLOR_SET_R(c1, premult_c1[0]);
 518:lvgl/src/hal/../misc/lv_color.h ****     LV_COLOR_SET_G(c1, premult_c1[1]);
 519:lvgl/src/hal/../misc/lv_color.h ****     LV_COLOR_SET_B(c1, premult_c1[2]);
 520:lvgl/src/hal/../misc/lv_color.h ****     ret.full = mix > LV_OPA_50 ? c2.full : c1.full;
 521:lvgl/src/hal/../misc/lv_color.h **** #endif
 522:lvgl/src/hal/../misc/lv_color.h **** 
 523:lvgl/src/hal/../misc/lv_color.h ****     return ret;
 524:lvgl/src/hal/../misc/lv_color.h **** }
 525:lvgl/src/hal/../misc/lv_color.h **** 
 526:lvgl/src/hal/../misc/lv_color.h **** /**
 527:lvgl/src/hal/../misc/lv_color.h ****  * Mix two colors. Both color can have alpha value.
 528:lvgl/src/hal/../misc/lv_color.h ****  * @param bg_color background color
 529:lvgl/src/hal/../misc/lv_color.h ****  * @param bg_opa alpha of the background color
 530:lvgl/src/hal/../misc/lv_color.h ****  * @param fg_color foreground color
 531:lvgl/src/hal/../misc/lv_color.h ****  * @param fg_opa alpha of the foreground color
 532:lvgl/src/hal/../misc/lv_color.h ****  * @param res_color the result color
 533:lvgl/src/hal/../misc/lv_color.h ****  * @param res_opa the result opacity
 534:lvgl/src/hal/../misc/lv_color.h ****  */
 535:lvgl/src/hal/../misc/lv_color.h **** LV_ATTRIBUTE_FAST_MEM static inline void lv_color_mix_with_alpha(lv_color_t bg_color, lv_opa_t bg_o
 536:lvgl/src/hal/../misc/lv_color.h ****                                                                  lv_color_t fg_color, lv_opa_t fg_o
 537:lvgl/src/hal/../misc/lv_color.h ****                                                                  lv_color_t * res_color, lv_opa_t *
 538:lvgl/src/hal/../misc/lv_color.h **** {
 539:lvgl/src/hal/../misc/lv_color.h ****     /*Pick the foreground if it's fully opaque or the Background is fully transparent*/
 540:lvgl/src/hal/../misc/lv_color.h ****     if(fg_opa >= LV_OPA_MAX || bg_opa <= LV_OPA_MIN) {
 541:lvgl/src/hal/../misc/lv_color.h ****         res_color->full = fg_color.full;
 542:lvgl/src/hal/../misc/lv_color.h ****         *res_opa = fg_opa;
 543:lvgl/src/hal/../misc/lv_color.h ****     }
 544:lvgl/src/hal/../misc/lv_color.h ****     /*Transparent foreground: use the Background*/
 545:lvgl/src/hal/../misc/lv_color.h ****     else if(fg_opa <= LV_OPA_MIN) {
 546:lvgl/src/hal/../misc/lv_color.h ****         res_color->full = bg_color.full;
 547:lvgl/src/hal/../misc/lv_color.h ****         *res_opa = bg_opa;
 548:lvgl/src/hal/../misc/lv_color.h ****     }
 549:lvgl/src/hal/../misc/lv_color.h ****     /*Opaque background: use simple mix*/
 550:lvgl/src/hal/../misc/lv_color.h ****     else if(bg_opa >= LV_OPA_MAX) {
 551:lvgl/src/hal/../misc/lv_color.h ****         *res_color = lv_color_mix(fg_color, bg_color, fg_opa);
 552:lvgl/src/hal/../misc/lv_color.h ****         *res_opa = LV_OPA_COVER;
 553:lvgl/src/hal/../misc/lv_color.h ****     }
 554:lvgl/src/hal/../misc/lv_color.h ****     /*Both colors have alpha. Expensive calculation need to be applied*/
ARM GAS  C:\Users\BLACK_~1\AppData\Local\Temp\ccSDhoe1.s 			page 20


 555:lvgl/src/hal/../misc/lv_color.h ****     else {
 556:lvgl/src/hal/../misc/lv_color.h ****         /*Save the parameters and the result. If they will be asked again don't compute again*/
 557:lvgl/src/hal/../misc/lv_color.h ****         static lv_opa_t fg_opa_save     = 0;
 558:lvgl/src/hal/../misc/lv_color.h ****         static lv_opa_t bg_opa_save     = 0;
 559:lvgl/src/hal/../misc/lv_color.h ****         static lv_color_t fg_color_save = _LV_COLOR_ZERO_INITIALIZER;
 560:lvgl/src/hal/../misc/lv_color.h ****         static lv_color_t bg_color_save = _LV_COLOR_ZERO_INITIALIZER;
 561:lvgl/src/hal/../misc/lv_color.h ****         static lv_color_t res_color_saved = _LV_COLOR_ZERO_INITIALIZER;
 562:lvgl/src/hal/../misc/lv_color.h ****         static lv_opa_t res_opa_saved = 0;
 563:lvgl/src/hal/../misc/lv_color.h **** 
 564:lvgl/src/hal/../misc/lv_color.h ****         if(fg_opa != fg_opa_save || bg_opa != bg_opa_save || fg_color.full != fg_color_save.full ||
 565:lvgl/src/hal/../misc/lv_color.h ****            bg_color.full != bg_color_save.full) {
 566:lvgl/src/hal/../misc/lv_color.h ****             fg_opa_save        = fg_opa;
 567:lvgl/src/hal/../misc/lv_color.h ****             bg_opa_save        = bg_opa;
 568:lvgl/src/hal/../misc/lv_color.h ****             fg_color_save.full = fg_color.full;
 569:lvgl/src/hal/../misc/lv_color.h ****             bg_color_save.full = bg_color.full;
 570:lvgl/src/hal/../misc/lv_color.h ****             /*Info:
 571:lvgl/src/hal/../misc/lv_color.h ****              * https://en.wikipedia.org/wiki/Alpha_compositing#Analytical_derivation_of_the_over_op
 572:lvgl/src/hal/../misc/lv_color.h ****             res_opa_saved = 255 - ((uint16_t)((uint16_t)(255 - fg_opa) * (255 - bg_opa)) >> 8);
 573:lvgl/src/hal/../misc/lv_color.h ****             if(res_opa_saved == 0) {
 574:lvgl/src/hal/../misc/lv_color.h ****                 while(1)
 575:lvgl/src/hal/../misc/lv_color.h ****                     ;
 576:lvgl/src/hal/../misc/lv_color.h ****             }
 577:lvgl/src/hal/../misc/lv_color.h ****             lv_opa_t ratio = (uint16_t)((uint16_t)fg_opa * 255) / res_opa_saved;
 578:lvgl/src/hal/../misc/lv_color.h ****             res_color_saved = lv_color_mix(fg_color, bg_color, ratio);
 579:lvgl/src/hal/../misc/lv_color.h **** 
 580:lvgl/src/hal/../misc/lv_color.h ****         }
 581:lvgl/src/hal/../misc/lv_color.h **** 
 582:lvgl/src/hal/../misc/lv_color.h ****         res_color->full = res_color_saved.full;
 583:lvgl/src/hal/../misc/lv_color.h ****         *res_opa = res_opa_saved;
 584:lvgl/src/hal/../misc/lv_color.h ****     }
 585:lvgl/src/hal/../misc/lv_color.h **** }
 586:lvgl/src/hal/../misc/lv_color.h **** 
 587:lvgl/src/hal/../misc/lv_color.h **** //! @endcond
 588:lvgl/src/hal/../misc/lv_color.h **** 
 589:lvgl/src/hal/../misc/lv_color.h **** /**
 590:lvgl/src/hal/../misc/lv_color.h ****  * Get the brightness of a color
 591:lvgl/src/hal/../misc/lv_color.h ****  * @param color a color
 592:lvgl/src/hal/../misc/lv_color.h ****  * @return the brightness [0..255]
 593:lvgl/src/hal/../misc/lv_color.h ****  */
 594:lvgl/src/hal/../misc/lv_color.h **** static inline uint8_t lv_color_brightness(lv_color_t color)
 595:lvgl/src/hal/../misc/lv_color.h **** {
 596:lvgl/src/hal/../misc/lv_color.h ****     lv_color32_t c32;
 597:lvgl/src/hal/../misc/lv_color.h ****     c32.full        = lv_color_to32(color);
 598:lvgl/src/hal/../misc/lv_color.h ****     uint16_t bright = (uint16_t)(3u * LV_COLOR_GET_R32(c32) + LV_COLOR_GET_B32(c32) + 4u * LV_COLOR
 599:lvgl/src/hal/../misc/lv_color.h ****     return (uint8_t)(bright >> 3);
 600:lvgl/src/hal/../misc/lv_color.h **** }
 601:lvgl/src/hal/../misc/lv_color.h **** 
 602:lvgl/src/hal/../misc/lv_color.h **** static inline lv_color_t lv_color_make(uint8_t r, uint8_t g, uint8_t b)
 603:lvgl/src/hal/../misc/lv_color.h **** {
 604:lvgl/src/hal/../misc/lv_color.h ****     return _LV_COLOR_MAKE_TYPE_HELPER LV_COLOR_MAKE(r, g, b);
 605:lvgl/src/hal/../misc/lv_color.h **** }
 606:lvgl/src/hal/../misc/lv_color.h **** 
 607:lvgl/src/hal/../misc/lv_color.h **** static inline lv_color_t lv_color_hex(uint32_t c)
 104              		.loc 2 607 26 view .LVU20
 105              	.LBE18:
 608:lvgl/src/hal/../misc/lv_color.h **** {
 609:lvgl/src/hal/../misc/lv_color.h ****     return lv_color_make((uint8_t)((c >> 16) & 0xFF), (uint8_t)((c >> 8) & 0xFF), (uint8_t)(c & 0xF
ARM GAS  C:\Users\BLACK_~1\AppData\Local\Temp\ccSDhoe1.s 			page 21


 106              		.loc 2 609 5 view .LVU21
 107              	.LBB21:
 108              	.LBB19:
 109              	.LBI19:
 602:lvgl/src/hal/../misc/lv_color.h **** {
 110              		.loc 2 602 26 view .LVU22
 111              	.LBB20:
 604:lvgl/src/hal/../misc/lv_color.h **** }
 112              		.loc 2 604 5 view .LVU23
 604:lvgl/src/hal/../misc/lv_color.h **** }
 113              		.loc 2 604 12 is_stmt 0 view .LVU24
 114 002e 4FF4FC63 		mov	r3, #2016	@ movhi
 115              	.LVL5:
 604:lvgl/src/hal/../misc/lv_color.h **** }
 116              		.loc 2 604 12 view .LVU25
 117              	.LBE20:
 118              	.LBE19:
 119              	.LBE21:
  65:lvgl/src/hal/lv_hal_disp.c **** }
 120              		.loc 1 65 32 view .LVU26
 121 0032 2386     		strh	r3, [r4, #48]	@ movhi
  66:lvgl/src/hal/lv_hal_disp.c **** 
 122              		.loc 1 66 1 view .LVU27
 123 0034 10BD     		pop	{r4, pc}
  66:lvgl/src/hal/lv_hal_disp.c **** 
 124              		.loc 1 66 1 view .LVU28
 125              		.cfi_endproc
 126              	.LFE147:
 128              		.section	.text.lv_disp_draw_buf_init,"ax",%progbits
 129              		.align	1
 130              		.global	lv_disp_draw_buf_init
 131              		.syntax unified
 132              		.thumb
 133              		.thumb_func
 135              	lv_disp_draw_buf_init:
 136              	.LVL6:
 137              	.LFB148:
  84:lvgl/src/hal/lv_hal_disp.c ****     lv_memset_00(draw_buf, sizeof(lv_disp_draw_buf_t));
 138              		.loc 1 84 1 is_stmt 1 view -0
 139              		.cfi_startproc
 140              		@ args = 0, pretend = 0, frame = 0
 141              		@ frame_needed = 0, uses_anonymous_args = 0
  84:lvgl/src/hal/lv_hal_disp.c ****     lv_memset_00(draw_buf, sizeof(lv_disp_draw_buf_t));
 142              		.loc 1 84 1 is_stmt 0 view .LVU30
 143 0000 F8B5     		push	{r3, r4, r5, r6, r7, lr}
 144              	.LCFI2:
 145              		.cfi_def_cfa_offset 24
 146              		.cfi_offset 3, -24
 147              		.cfi_offset 4, -20
 148              		.cfi_offset 5, -16
 149              		.cfi_offset 6, -12
 150              		.cfi_offset 7, -8
 151              		.cfi_offset 14, -4
 152 0002 0446     		mov	r4, r0
 153 0004 0D46     		mov	r5, r1
 154 0006 1746     		mov	r7, r2
 155 0008 1E46     		mov	r6, r3
ARM GAS  C:\Users\BLACK_~1\AppData\Local\Temp\ccSDhoe1.s 			page 22


  85:lvgl/src/hal/lv_hal_disp.c **** 
 156              		.loc 1 85 5 is_stmt 1 view .LVU31
 157 000a 2421     		movs	r1, #36
 158              	.LVL7:
  85:lvgl/src/hal/lv_hal_disp.c **** 
 159              		.loc 1 85 5 is_stmt 0 view .LVU32
 160 000c FFF7FEFF 		bl	lv_memset_00
 161              	.LVL8:
  87:lvgl/src/hal/lv_hal_disp.c ****     draw_buf->buf2    = buf2;
 162              		.loc 1 87 5 is_stmt 1 view .LVU33
  87:lvgl/src/hal/lv_hal_disp.c ****     draw_buf->buf2    = buf2;
 163              		.loc 1 87 23 is_stmt 0 view .LVU34
 164 0010 2560     		str	r5, [r4]
  88:lvgl/src/hal/lv_hal_disp.c ****     draw_buf->buf_act = draw_buf->buf1;
 165              		.loc 1 88 5 is_stmt 1 view .LVU35
  88:lvgl/src/hal/lv_hal_disp.c ****     draw_buf->buf_act = draw_buf->buf1;
 166              		.loc 1 88 23 is_stmt 0 view .LVU36
 167 0012 6760     		str	r7, [r4, #4]
  89:lvgl/src/hal/lv_hal_disp.c ****     draw_buf->size    = size_in_px_cnt;
 168              		.loc 1 89 5 is_stmt 1 view .LVU37
  89:lvgl/src/hal/lv_hal_disp.c ****     draw_buf->size    = size_in_px_cnt;
 169              		.loc 1 89 23 is_stmt 0 view .LVU38
 170 0014 A560     		str	r5, [r4, #8]
  90:lvgl/src/hal/lv_hal_disp.c **** }
 171              		.loc 1 90 5 is_stmt 1 view .LVU39
  90:lvgl/src/hal/lv_hal_disp.c **** }
 172              		.loc 1 90 23 is_stmt 0 view .LVU40
 173 0016 E660     		str	r6, [r4, #12]
  91:lvgl/src/hal/lv_hal_disp.c **** 
 174              		.loc 1 91 1 view .LVU41
 175 0018 F8BD     		pop	{r3, r4, r5, r6, r7, pc}
  91:lvgl/src/hal/lv_hal_disp.c **** 
 176              		.loc 1 91 1 view .LVU42
 177              		.cfi_endproc
 178              	.LFE148:
 180              		.section	.text.lv_disp_drv_register,"ax",%progbits
 181              		.align	1
 182              		.global	lv_disp_drv_register
 183              		.syntax unified
 184              		.thumb
 185              		.thumb_func
 187              	lv_disp_drv_register:
 188              	.LVL9:
 189              	.LFB149:
 100:lvgl/src/hal/lv_hal_disp.c ****     lv_disp_t * disp = _lv_ll_ins_head(&LV_GC_ROOT(_lv_disp_ll));
 190              		.loc 1 100 1 is_stmt 1 view -0
 191              		.cfi_startproc
 192              		@ args = 0, pretend = 0, frame = 0
 193              		@ frame_needed = 0, uses_anonymous_args = 0
 100:lvgl/src/hal/lv_hal_disp.c ****     lv_disp_t * disp = _lv_ll_ins_head(&LV_GC_ROOT(_lv_disp_ll));
 194              		.loc 1 100 1 is_stmt 0 view .LVU44
 195 0000 70B5     		push	{r4, r5, r6, lr}
 196              	.LCFI3:
 197              		.cfi_def_cfa_offset 16
 198              		.cfi_offset 4, -16
 199              		.cfi_offset 5, -12
 200              		.cfi_offset 6, -8
ARM GAS  C:\Users\BLACK_~1\AppData\Local\Temp\ccSDhoe1.s 			page 23


 201              		.cfi_offset 14, -4
 202 0002 82B0     		sub	sp, sp, #8
 203              	.LCFI4:
 204              		.cfi_def_cfa_offset 24
 205 0004 0546     		mov	r5, r0
 101:lvgl/src/hal/lv_hal_disp.c ****     if(!disp) {
 206              		.loc 1 101 5 is_stmt 1 view .LVU45
 101:lvgl/src/hal/lv_hal_disp.c ****     if(!disp) {
 207              		.loc 1 101 24 is_stmt 0 view .LVU46
 208 0006 3D48     		ldr	r0, .L18
 209              	.LVL10:
 101:lvgl/src/hal/lv_hal_disp.c ****     if(!disp) {
 210              		.loc 1 101 24 view .LVU47
 211 0008 FFF7FEFF 		bl	_lv_ll_ins_head
 212              	.LVL11:
 102:lvgl/src/hal/lv_hal_disp.c ****         LV_ASSERT_MALLOC(disp);
 213              		.loc 1 102 5 is_stmt 1 view .LVU48
 102:lvgl/src/hal/lv_hal_disp.c ****         LV_ASSERT_MALLOC(disp);
 214              		.loc 1 102 7 is_stmt 0 view .LVU49
 215 000c 0028     		cmp	r0, #0
 216 000e 5FD0     		beq	.L9
 217 0010 0446     		mov	r4, r0
 107:lvgl/src/hal/lv_hal_disp.c **** 
 218              		.loc 1 107 5 is_stmt 1 view .LVU50
 219 0012 4FF4AC71 		mov	r1, #344
 220 0016 FFF7FEFF 		bl	lv_memset_00
 221              	.LVL12:
 109:lvgl/src/hal/lv_hal_disp.c **** 
 222              		.loc 1 109 5 view .LVU51
 109:lvgl/src/hal/lv_hal_disp.c **** 
 223              		.loc 1 109 18 is_stmt 0 view .LVU52
 224 001a 2560     		str	r5, [r4]
 111:lvgl/src/hal/lv_hal_disp.c ****     disp_def                 = disp; /*Temporarily change the default screen to create the default 
 225              		.loc 1 111 5 is_stmt 1 view .LVU53
 111:lvgl/src/hal/lv_hal_disp.c ****     disp_def                 = disp; /*Temporarily change the default screen to create the default 
 226              		.loc 1 111 17 is_stmt 0 view .LVU54
 227 001c 384B     		ldr	r3, .L18+4
 228 001e 1E68     		ldr	r6, [r3]
 229              	.LVL13:
 112:lvgl/src/hal/lv_hal_disp.c ****                                         new display*/
 230              		.loc 1 112 5 is_stmt 1 view .LVU55
 112:lvgl/src/hal/lv_hal_disp.c ****                                         new display*/
 231              		.loc 1 112 30 is_stmt 0 view .LVU56
 232 0020 1C60     		str	r4, [r3]
 115:lvgl/src/hal/lv_hal_disp.c ****     LV_ASSERT_MALLOC(disp->refr_timer);
 233              		.loc 1 115 5 is_stmt 1 view .LVU57
 115:lvgl/src/hal/lv_hal_disp.c ****     LV_ASSERT_MALLOC(disp->refr_timer);
 234              		.loc 1 115 24 is_stmt 0 view .LVU58
 235 0022 2246     		mov	r2, r4
 236 0024 0521     		movs	r1, #5
 237 0026 3748     		ldr	r0, .L18+8
 238 0028 FFF7FEFF 		bl	lv_timer_create
 239              	.LVL14:
 115:lvgl/src/hal/lv_hal_disp.c ****     LV_ASSERT_MALLOC(disp->refr_timer);
 240              		.loc 1 115 22 view .LVU59
 241 002c 6060     		str	r0, [r4, #4]
 116:lvgl/src/hal/lv_hal_disp.c ****     if(disp->refr_timer == NULL) {
ARM GAS  C:\Users\BLACK_~1\AppData\Local\Temp\ccSDhoe1.s 			page 24


 242              		.loc 1 116 5 is_stmt 1 view .LVU60
 116:lvgl/src/hal/lv_hal_disp.c ****     if(disp->refr_timer == NULL) {
 243              		.loc 1 116 5 view .LVU61
 244 002e 0028     		cmp	r0, #0
 245 0030 4FD0     		beq	.L11
 116:lvgl/src/hal/lv_hal_disp.c ****     if(disp->refr_timer == NULL) {
 246              		.loc 1 116 5 view .LVU62
 116:lvgl/src/hal/lv_hal_disp.c ****     if(disp->refr_timer == NULL) {
 247              		.loc 1 116 39 view .LVU63
 117:lvgl/src/hal/lv_hal_disp.c ****         lv_mem_free(disp);
 248              		.loc 1 117 5 view .LVU64
 122:lvgl/src/hal/lv_hal_disp.c ****         driver->full_refresh = 0;
 249              		.loc 1 122 5 view .LVU65
 122:lvgl/src/hal/lv_hal_disp.c ****         driver->full_refresh = 0;
 250              		.loc 1 122 8 is_stmt 0 view .LVU66
 251 0032 2B7A     		ldrb	r3, [r5, #8]	@ zero_extendqisi2
 122:lvgl/src/hal/lv_hal_disp.c ****         driver->full_refresh = 0;
 252              		.loc 1 122 7 view .LVU67
 253 0034 13F0010F 		tst	r3, #1
 254 0038 0DD0     		beq	.L12
 122:lvgl/src/hal/lv_hal_disp.c ****         driver->full_refresh = 0;
 255              		.loc 1 122 38 discriminator 1 view .LVU68
 256 003a 6B68     		ldr	r3, [r5, #4]
 122:lvgl/src/hal/lv_hal_disp.c ****         driver->full_refresh = 0;
 257              		.loc 1 122 48 discriminator 1 view .LVU69
 258 003c DA68     		ldr	r2, [r3, #12]
 122:lvgl/src/hal/lv_hal_disp.c ****         driver->full_refresh = 0;
 259              		.loc 1 122 73 discriminator 1 view .LVU70
 260 003e B5F90030 		ldrsh	r3, [r5]
 122:lvgl/src/hal/lv_hal_disp.c ****         driver->full_refresh = 0;
 261              		.loc 1 122 91 discriminator 1 view .LVU71
 262 0042 B5F90210 		ldrsh	r1, [r5, #2]
 122:lvgl/src/hal/lv_hal_disp.c ****         driver->full_refresh = 0;
 263              		.loc 1 122 83 discriminator 1 view .LVU72
 264 0046 01FB03F3 		mul	r3, r1, r3
 122:lvgl/src/hal/lv_hal_disp.c ****         driver->full_refresh = 0;
 265              		.loc 1 122 29 discriminator 1 view .LVU73
 266 004a 9A42     		cmp	r2, r3
 267 004c 03D2     		bcs	.L12
 123:lvgl/src/hal/lv_hal_disp.c ****         LV_LOG_WARN("full_refresh requires at least screen sized draw buffer(s)")
 268              		.loc 1 123 9 is_stmt 1 view .LVU74
 123:lvgl/src/hal/lv_hal_disp.c ****         LV_LOG_WARN("full_refresh requires at least screen sized draw buffer(s)")
 269              		.loc 1 123 30 is_stmt 0 view .LVU75
 270 004e 2B7A     		ldrb	r3, [r5, #8]	@ zero_extendqisi2
 271 0050 6FF30003 		bfc	r3, #0, #1
 272 0054 2B72     		strb	r3, [r5, #8]
 273              	.L12:
 127:lvgl/src/hal/lv_hal_disp.c **** #if LV_COLOR_SCREEN_TRANSP
 274              		.loc 1 127 5 is_stmt 1 view .LVU76
 275              	.LBB22:
 276              	.LBI22:
 610:lvgl/src/hal/../misc/lv_color.h **** }
 611:lvgl/src/hal/../misc/lv_color.h **** 
 612:lvgl/src/hal/../misc/lv_color.h **** static inline lv_color_t lv_color_hex3(uint32_t c)
 613:lvgl/src/hal/../misc/lv_color.h **** {
 614:lvgl/src/hal/../misc/lv_color.h ****     return lv_color_make((uint8_t)(((c >> 4) & 0xF0) | ((c >> 8) & 0xF)), (uint8_t)((c & 0xF0) | ((
 615:lvgl/src/hal/../misc/lv_color.h ****                          (uint8_t)((c & 0xF) | ((c & 0xF) << 4)));
ARM GAS  C:\Users\BLACK_~1\AppData\Local\Temp\ccSDhoe1.s 			page 25


 616:lvgl/src/hal/../misc/lv_color.h **** }
 617:lvgl/src/hal/../misc/lv_color.h **** 
 618:lvgl/src/hal/../misc/lv_color.h **** static inline void lv_color_filter_dsc_init(lv_color_filter_dsc_t * dsc, lv_color_filter_cb_t cb)
 619:lvgl/src/hal/../misc/lv_color.h **** {
 620:lvgl/src/hal/../misc/lv_color.h ****     dsc->filter_cb = cb;
 621:lvgl/src/hal/../misc/lv_color.h **** }
 622:lvgl/src/hal/../misc/lv_color.h **** 
 623:lvgl/src/hal/../misc/lv_color.h **** //! @cond Doxygen_Suppress
 624:lvgl/src/hal/../misc/lv_color.h **** //!
 625:lvgl/src/hal/../misc/lv_color.h **** LV_ATTRIBUTE_FAST_MEM void lv_color_fill(lv_color_t * buf, lv_color_t color, uint32_t px_num);
 626:lvgl/src/hal/../misc/lv_color.h **** 
 627:lvgl/src/hal/../misc/lv_color.h **** //! @endcond
 628:lvgl/src/hal/../misc/lv_color.h **** lv_color_t lv_color_lighten(lv_color_t c, lv_opa_t lvl);
 629:lvgl/src/hal/../misc/lv_color.h **** 
 630:lvgl/src/hal/../misc/lv_color.h **** lv_color_t lv_color_darken(lv_color_t c, lv_opa_t lvl);
 631:lvgl/src/hal/../misc/lv_color.h **** 
 632:lvgl/src/hal/../misc/lv_color.h **** lv_color_t lv_color_change_lightness(lv_color_t c, lv_opa_t lvl);
 633:lvgl/src/hal/../misc/lv_color.h **** 
 634:lvgl/src/hal/../misc/lv_color.h **** /**
 635:lvgl/src/hal/../misc/lv_color.h ****  * Convert a HSV color to RGB
 636:lvgl/src/hal/../misc/lv_color.h ****  * @param h hue [0..359]
 637:lvgl/src/hal/../misc/lv_color.h ****  * @param s saturation [0..100]
 638:lvgl/src/hal/../misc/lv_color.h ****  * @param v value [0..100]
 639:lvgl/src/hal/../misc/lv_color.h ****  * @return the given RGB color in RGB (with LV_COLOR_DEPTH depth)
 640:lvgl/src/hal/../misc/lv_color.h ****  */
 641:lvgl/src/hal/../misc/lv_color.h **** lv_color_t lv_color_hsv_to_rgb(uint16_t h, uint8_t s, uint8_t v);
 642:lvgl/src/hal/../misc/lv_color.h **** 
 643:lvgl/src/hal/../misc/lv_color.h **** /**
 644:lvgl/src/hal/../misc/lv_color.h ****  * Convert a 32-bit RGB color to HSV
 645:lvgl/src/hal/../misc/lv_color.h ****  * @param r8 8-bit red
 646:lvgl/src/hal/../misc/lv_color.h ****  * @param g8 8-bit green
 647:lvgl/src/hal/../misc/lv_color.h ****  * @param b8 8-bit blue
 648:lvgl/src/hal/../misc/lv_color.h ****  * @return the given RGB color in HSV
 649:lvgl/src/hal/../misc/lv_color.h ****  */
 650:lvgl/src/hal/../misc/lv_color.h **** lv_color_hsv_t lv_color_rgb_to_hsv(uint8_t r8, uint8_t g8, uint8_t b8);
 651:lvgl/src/hal/../misc/lv_color.h **** 
 652:lvgl/src/hal/../misc/lv_color.h **** /**
 653:lvgl/src/hal/../misc/lv_color.h ****  * Convert a color to HSV
 654:lvgl/src/hal/../misc/lv_color.h ****  * @param color color
 655:lvgl/src/hal/../misc/lv_color.h ****  * @return the given color in HSV
 656:lvgl/src/hal/../misc/lv_color.h ****  */
 657:lvgl/src/hal/../misc/lv_color.h **** lv_color_hsv_t lv_color_to_hsv(lv_color_t color);
 658:lvgl/src/hal/../misc/lv_color.h **** 
 659:lvgl/src/hal/../misc/lv_color.h **** /**
 660:lvgl/src/hal/../misc/lv_color.h ****  * Just a wrapper around LV_COLOR_CHROMA_KEY because it might be more convenient to use a function 
 661:lvgl/src/hal/../misc/lv_color.h ****  * @return LV_COLOR_CHROMA_KEY
 662:lvgl/src/hal/../misc/lv_color.h ****  */
 663:lvgl/src/hal/../misc/lv_color.h **** static inline lv_color_t lv_color_chroma_key(void)
 664:lvgl/src/hal/../misc/lv_color.h **** {
 665:lvgl/src/hal/../misc/lv_color.h ****     return LV_COLOR_CHROMA_KEY;
 666:lvgl/src/hal/../misc/lv_color.h **** }
 667:lvgl/src/hal/../misc/lv_color.h **** 
 668:lvgl/src/hal/../misc/lv_color.h **** /**********************
 669:lvgl/src/hal/../misc/lv_color.h ****  *  PREDEFINED COLORS
 670:lvgl/src/hal/../misc/lv_color.h ****  **********************/
 671:lvgl/src/hal/../misc/lv_color.h **** /*Source: https://vuetifyjs.com/en/styles/colors/#material-colors*/
 672:lvgl/src/hal/../misc/lv_color.h **** 
ARM GAS  C:\Users\BLACK_~1\AppData\Local\Temp\ccSDhoe1.s 			page 26


 673:lvgl/src/hal/../misc/lv_color.h **** lv_color_t lv_palette_main(lv_palette_t p);
 674:lvgl/src/hal/../misc/lv_color.h **** static inline lv_color_t lv_color_white(void) { return lv_color_make(0xff, 0xff, 0xff);}
 277              		.loc 2 674 26 view .LVU77
 278              	.LBE22:
 279              		.loc 2 674 49 view .LVU78
 280              	.LVL15:
 281              	.LBB25:
 282              	.LBB23:
 283              	.LBI23:
 602:lvgl/src/hal/../misc/lv_color.h **** {
 284              		.loc 2 602 26 view .LVU79
 285              	.LBB24:
 604:lvgl/src/hal/../misc/lv_color.h **** }
 286              		.loc 2 604 5 view .LVU80
 604:lvgl/src/hal/../misc/lv_color.h **** }
 287              		.loc 2 604 12 is_stmt 0 view .LVU81
 288 0056 4FF6FF73 		movw	r3, #65535
 289              	.LVL16:
 604:lvgl/src/hal/../misc/lv_color.h **** }
 290              		.loc 2 604 12 view .LVU82
 291              	.LBE24:
 292              	.LBE23:
 293              	.LBE25:
 127:lvgl/src/hal/lv_hal_disp.c **** #if LV_COLOR_SCREEN_TRANSP
 294              		.loc 1 127 22 view .LVU83
 295 005a 6385     		strh	r3, [r4, #42]	@ movhi
 131:lvgl/src/hal/lv_hal_disp.c **** #endif
 296              		.loc 1 131 5 is_stmt 1 view .LVU84
 131:lvgl/src/hal/lv_hal_disp.c **** #endif
 297              		.loc 1 131 18 is_stmt 0 view .LVU85
 298 005c FF23     		movs	r3, #255
 299 005e 84F82930 		strb	r3, [r4, #41]
 135:lvgl/src/hal/lv_hal_disp.c ****         disp->theme = lv_theme_default_init(disp, lv_palette_main(LV_PALETTE_BLUE), lv_palette_main
 300              		.loc 1 135 5 is_stmt 1 view .LVU86
 135:lvgl/src/hal/lv_hal_disp.c ****         disp->theme = lv_theme_default_init(disp, lv_palette_main(LV_PALETTE_BLUE), lv_palette_main
 301              		.loc 1 135 8 is_stmt 0 view .LVU87
 302 0062 FFF7FEFF 		bl	lv_theme_default_is_inited
 303              	.LVL17:
 135:lvgl/src/hal/lv_hal_disp.c ****         disp->theme = lv_theme_default_init(disp, lv_palette_main(LV_PALETTE_BLUE), lv_palette_main
 304              		.loc 1 135 7 view .LVU88
 305 0066 0028     		cmp	r0, #0
 306 0068 34D0     		beq	.L16
 307              	.LVL18:
 308              	.L13:
 140:lvgl/src/hal/lv_hal_disp.c ****     disp->top_layer = lv_obj_create(NULL); /*Create top layer on the display*/
 309              		.loc 1 140 5 is_stmt 1 view .LVU89
 140:lvgl/src/hal/lv_hal_disp.c ****     disp->top_layer = lv_obj_create(NULL); /*Create top layer on the display*/
 310              		.loc 1 140 23 is_stmt 0 view .LVU90
 311 006a 0020     		movs	r0, #0
 312 006c FFF7FEFF 		bl	lv_obj_create
 313              	.LVL19:
 140:lvgl/src/hal/lv_hal_disp.c ****     disp->top_layer = lv_obj_create(NULL); /*Create top layer on the display*/
 314              		.loc 1 140 21 view .LVU91
 315 0070 2061     		str	r0, [r4, #16]
 141:lvgl/src/hal/lv_hal_disp.c ****     disp->sys_layer = lv_obj_create(NULL); /*Create sys layer on the display*/
 316              		.loc 1 141 5 is_stmt 1 view .LVU92
 141:lvgl/src/hal/lv_hal_disp.c ****     disp->sys_layer = lv_obj_create(NULL); /*Create sys layer on the display*/
ARM GAS  C:\Users\BLACK_~1\AppData\Local\Temp\ccSDhoe1.s 			page 27


 317              		.loc 1 141 23 is_stmt 0 view .LVU93
 318 0072 0020     		movs	r0, #0
 319 0074 FFF7FEFF 		bl	lv_obj_create
 320              	.LVL20:
 141:lvgl/src/hal/lv_hal_disp.c ****     disp->sys_layer = lv_obj_create(NULL); /*Create sys layer on the display*/
 321              		.loc 1 141 21 view .LVU94
 322 0078 E061     		str	r0, [r4, #28]
 142:lvgl/src/hal/lv_hal_disp.c ****     lv_obj_remove_style_all(disp->top_layer);
 323              		.loc 1 142 5 is_stmt 1 view .LVU95
 142:lvgl/src/hal/lv_hal_disp.c ****     lv_obj_remove_style_all(disp->top_layer);
 324              		.loc 1 142 23 is_stmt 0 view .LVU96
 325 007a 0020     		movs	r0, #0
 326 007c FFF7FEFF 		bl	lv_obj_create
 327              	.LVL21:
 142:lvgl/src/hal/lv_hal_disp.c ****     lv_obj_remove_style_all(disp->top_layer);
 328              		.loc 1 142 21 view .LVU97
 329 0080 2062     		str	r0, [r4, #32]
 143:lvgl/src/hal/lv_hal_disp.c ****     lv_obj_remove_style_all(disp->sys_layer);
 330              		.loc 1 143 5 is_stmt 1 view .LVU98
 331              	.LVL22:
 332              	.LBB26:
 333              	.LBI26:
 334              		.file 3 "lvgl/src/hal/../core/lv_obj_style.h"
   1:lvgl/src/hal/../core/lv_obj_style.h **** /**
   2:lvgl/src/hal/../core/lv_obj_style.h ****  * @file lv_obj_style.h
   3:lvgl/src/hal/../core/lv_obj_style.h ****  *
   4:lvgl/src/hal/../core/lv_obj_style.h ****  */
   5:lvgl/src/hal/../core/lv_obj_style.h **** 
   6:lvgl/src/hal/../core/lv_obj_style.h **** #ifndef LV_OBJ_STYLE_H
   7:lvgl/src/hal/../core/lv_obj_style.h **** #define LV_OBJ_STYLE_H
   8:lvgl/src/hal/../core/lv_obj_style.h **** 
   9:lvgl/src/hal/../core/lv_obj_style.h **** #ifdef __cplusplus
  10:lvgl/src/hal/../core/lv_obj_style.h **** extern "C" {
  11:lvgl/src/hal/../core/lv_obj_style.h **** #endif
  12:lvgl/src/hal/../core/lv_obj_style.h **** 
  13:lvgl/src/hal/../core/lv_obj_style.h **** /*********************
  14:lvgl/src/hal/../core/lv_obj_style.h ****  *      INCLUDES
  15:lvgl/src/hal/../core/lv_obj_style.h ****  *********************/
  16:lvgl/src/hal/../core/lv_obj_style.h **** #include <stdint.h>
  17:lvgl/src/hal/../core/lv_obj_style.h **** #include <stdbool.h>
  18:lvgl/src/hal/../core/lv_obj_style.h **** #include "../misc/lv_bidi.h"
  19:lvgl/src/hal/../core/lv_obj_style.h **** 
  20:lvgl/src/hal/../core/lv_obj_style.h **** /*********************
  21:lvgl/src/hal/../core/lv_obj_style.h ****  *      DEFINES
  22:lvgl/src/hal/../core/lv_obj_style.h ****  *********************/
  23:lvgl/src/hal/../core/lv_obj_style.h **** 
  24:lvgl/src/hal/../core/lv_obj_style.h **** /**********************
  25:lvgl/src/hal/../core/lv_obj_style.h ****  *      TYPEDEFS
  26:lvgl/src/hal/../core/lv_obj_style.h ****  **********************/
  27:lvgl/src/hal/../core/lv_obj_style.h **** /*Can't include lv_obj.h because it includes this header file*/
  28:lvgl/src/hal/../core/lv_obj_style.h **** struct _lv_obj_t;
  29:lvgl/src/hal/../core/lv_obj_style.h **** 
  30:lvgl/src/hal/../core/lv_obj_style.h **** typedef enum {
  31:lvgl/src/hal/../core/lv_obj_style.h ****     _LV_STYLE_STATE_CMP_SAME,           /*The style properties in the 2 states are identical*/
  32:lvgl/src/hal/../core/lv_obj_style.h ****     _LV_STYLE_STATE_CMP_DIFF_REDRAW,    /*The differences can be shown with a simple redraw*/
  33:lvgl/src/hal/../core/lv_obj_style.h ****     _LV_STYLE_STATE_CMP_DIFF_DRAW_PAD,  /*The differences can be shown with a simple redraw*/
  34:lvgl/src/hal/../core/lv_obj_style.h ****     _LV_STYLE_STATE_CMP_DIFF_LAYOUT,    /*The differences can be shown with a simple redraw*/
ARM GAS  C:\Users\BLACK_~1\AppData\Local\Temp\ccSDhoe1.s 			page 28


  35:lvgl/src/hal/../core/lv_obj_style.h **** } _lv_style_state_cmp_t;
  36:lvgl/src/hal/../core/lv_obj_style.h **** 
  37:lvgl/src/hal/../core/lv_obj_style.h **** typedef uint32_t lv_style_selector_t;
  38:lvgl/src/hal/../core/lv_obj_style.h **** 
  39:lvgl/src/hal/../core/lv_obj_style.h **** typedef struct {
  40:lvgl/src/hal/../core/lv_obj_style.h ****     lv_style_t * style;
  41:lvgl/src/hal/../core/lv_obj_style.h ****     uint32_t selector :24;
  42:lvgl/src/hal/../core/lv_obj_style.h ****     uint32_t is_local :1;
  43:lvgl/src/hal/../core/lv_obj_style.h ****     uint32_t is_trans :1;
  44:lvgl/src/hal/../core/lv_obj_style.h **** }_lv_obj_style_t;
  45:lvgl/src/hal/../core/lv_obj_style.h **** 
  46:lvgl/src/hal/../core/lv_obj_style.h **** typedef struct {
  47:lvgl/src/hal/../core/lv_obj_style.h ****     uint16_t time;
  48:lvgl/src/hal/../core/lv_obj_style.h ****     uint16_t delay;
  49:lvgl/src/hal/../core/lv_obj_style.h ****     lv_style_selector_t selector;
  50:lvgl/src/hal/../core/lv_obj_style.h ****     lv_style_prop_t prop;
  51:lvgl/src/hal/../core/lv_obj_style.h ****     lv_anim_path_cb_t path_cb;
  52:lvgl/src/hal/../core/lv_obj_style.h **** #if LV_USE_USER_DATA
  53:lvgl/src/hal/../core/lv_obj_style.h ****     void * user_data;
  54:lvgl/src/hal/../core/lv_obj_style.h **** #endif
  55:lvgl/src/hal/../core/lv_obj_style.h **** }_lv_obj_style_transition_dsc_t;
  56:lvgl/src/hal/../core/lv_obj_style.h **** 
  57:lvgl/src/hal/../core/lv_obj_style.h **** /**********************
  58:lvgl/src/hal/../core/lv_obj_style.h ****  * GLOBAL PROTOTYPES
  59:lvgl/src/hal/../core/lv_obj_style.h ****  **********************/
  60:lvgl/src/hal/../core/lv_obj_style.h **** 
  61:lvgl/src/hal/../core/lv_obj_style.h **** /**
  62:lvgl/src/hal/../core/lv_obj_style.h ****  * Initialize the object related style manager module.
  63:lvgl/src/hal/../core/lv_obj_style.h ****  * Called by LVGL in `lv_init()`
  64:lvgl/src/hal/../core/lv_obj_style.h ****  */
  65:lvgl/src/hal/../core/lv_obj_style.h **** void _lv_obj_style_init(void);
  66:lvgl/src/hal/../core/lv_obj_style.h **** 
  67:lvgl/src/hal/../core/lv_obj_style.h **** /**
  68:lvgl/src/hal/../core/lv_obj_style.h ****  * Add a style to an object.
  69:lvgl/src/hal/../core/lv_obj_style.h ****  * @param obj       pointer to an object
  70:lvgl/src/hal/../core/lv_obj_style.h ****  * @param style     pointer to a style to add
  71:lvgl/src/hal/../core/lv_obj_style.h ****  * @param selector  OR-ed value of parts and state to which the style should be added
  72:lvgl/src/hal/../core/lv_obj_style.h ****  * @example         lv_obj_add_style(btn, &style_btn, 0); //Default button style
  73:lvgl/src/hal/../core/lv_obj_style.h ****  * @example         lv_obj_add_style(btn, &btn_red, LV_STATE_PRESSED); //Overwrite only some colors
  74:lvgl/src/hal/../core/lv_obj_style.h ****  */
  75:lvgl/src/hal/../core/lv_obj_style.h **** void lv_obj_add_style(struct _lv_obj_t * obj, lv_style_t * style, lv_style_selector_t selector);
  76:lvgl/src/hal/../core/lv_obj_style.h **** 
  77:lvgl/src/hal/../core/lv_obj_style.h **** /**
  78:lvgl/src/hal/../core/lv_obj_style.h ****  * Add a style to an object.
  79:lvgl/src/hal/../core/lv_obj_style.h ****  * @param obj       pointer to an object
  80:lvgl/src/hal/../core/lv_obj_style.h ****  * @param style     pointer to a style to remove. Can be NULL to check only the selector
  81:lvgl/src/hal/../core/lv_obj_style.h ****  * @param selector  OR-ed values of states and a part to remove only styles with matching selectors
  82:lvgl/src/hal/../core/lv_obj_style.h ****  * @example lv_obj_remove_style(obj, &style, LV_PART_ANY | LV_STATE_ANY); //Remove a specific style
  83:lvgl/src/hal/../core/lv_obj_style.h ****  * @example lv_obj_remove_style(obj, NULL, LV_PART_MAIN | LV_STATE_ANY); //Remove all styles from t
  84:lvgl/src/hal/../core/lv_obj_style.h ****  * @example lv_obj_remove_style(obj, NULL, LV_PART_ANY | LV_STATE_ANY); //Remove all styles
  85:lvgl/src/hal/../core/lv_obj_style.h ****  */
  86:lvgl/src/hal/../core/lv_obj_style.h **** void lv_obj_remove_style(struct _lv_obj_t * obj, lv_style_t * style, lv_style_selector_t selector);
  87:lvgl/src/hal/../core/lv_obj_style.h **** 
  88:lvgl/src/hal/../core/lv_obj_style.h **** /**
  89:lvgl/src/hal/../core/lv_obj_style.h ****  * Remove all styles from an object
  90:lvgl/src/hal/../core/lv_obj_style.h ****  * @param obj       pointer to an object
  91:lvgl/src/hal/../core/lv_obj_style.h ****  */
ARM GAS  C:\Users\BLACK_~1\AppData\Local\Temp\ccSDhoe1.s 			page 29


  92:lvgl/src/hal/../core/lv_obj_style.h **** static inline void lv_obj_remove_style_all(struct _lv_obj_t * obj)
 335              		.loc 3 92 20 view .LVU99
 336              	.LBB27:
  93:lvgl/src/hal/../core/lv_obj_style.h **** {
  94:lvgl/src/hal/../core/lv_obj_style.h ****     lv_obj_remove_style(obj, NULL, LV_PART_ANY | LV_STATE_ANY);
 337              		.loc 3 94 5 view .LVU100
 338 0082 214D     		ldr	r5, .L18+12
 339 0084 2A46     		mov	r2, r5
 340 0086 0021     		movs	r1, #0
 341 0088 E069     		ldr	r0, [r4, #28]
 342 008a FFF7FEFF 		bl	lv_obj_remove_style
 343              	.LVL23:
 344              		.loc 3 94 5 is_stmt 0 view .LVU101
 345              	.LBE27:
 346              	.LBE26:
 144:lvgl/src/hal/lv_hal_disp.c ****     lv_obj_clear_flag(disp->top_layer, LV_OBJ_FLAG_CLICKABLE);
 347              		.loc 1 144 5 is_stmt 1 view .LVU102
 348              	.LBB28:
 349              	.LBI28:
  92:lvgl/src/hal/../core/lv_obj_style.h **** {
 350              		.loc 3 92 20 view .LVU103
 351              	.LBB29:
 352              		.loc 3 94 5 view .LVU104
 353 008e 2A46     		mov	r2, r5
 354 0090 0021     		movs	r1, #0
 355 0092 206A     		ldr	r0, [r4, #32]
 356 0094 FFF7FEFF 		bl	lv_obj_remove_style
 357              	.LVL24:
 358              		.loc 3 94 5 is_stmt 0 view .LVU105
 359              	.LBE29:
 360              	.LBE28:
 145:lvgl/src/hal/lv_hal_disp.c ****     lv_obj_clear_flag(disp->sys_layer, LV_OBJ_FLAG_CLICKABLE);
 361              		.loc 1 145 5 is_stmt 1 view .LVU106
 362 0098 0221     		movs	r1, #2
 363 009a E069     		ldr	r0, [r4, #28]
 364 009c FFF7FEFF 		bl	lv_obj_clear_flag
 365              	.LVL25:
 146:lvgl/src/hal/lv_hal_disp.c **** 
 366              		.loc 1 146 5 view .LVU107
 367 00a0 0221     		movs	r1, #2
 368 00a2 206A     		ldr	r0, [r4, #32]
 369 00a4 FFF7FEFF 		bl	lv_obj_clear_flag
 370              	.LVL26:
 148:lvgl/src/hal/lv_hal_disp.c ****     lv_obj_set_scrollbar_mode(disp->sys_layer, LV_SCROLLBAR_MODE_OFF);
 371              		.loc 1 148 5 view .LVU108
 372 00a8 0021     		movs	r1, #0
 373 00aa E069     		ldr	r0, [r4, #28]
 374 00ac FFF7FEFF 		bl	lv_obj_set_scrollbar_mode
 375              	.LVL27:
 149:lvgl/src/hal/lv_hal_disp.c **** 
 376              		.loc 1 149 5 view .LVU109
 377 00b0 0021     		movs	r1, #0
 378 00b2 206A     		ldr	r0, [r4, #32]
 379 00b4 FFF7FEFF 		bl	lv_obj_set_scrollbar_mode
 380              	.LVL28:
 151:lvgl/src/hal/lv_hal_disp.c **** 
 381              		.loc 1 151 5 view .LVU110
ARM GAS  C:\Users\BLACK_~1\AppData\Local\Temp\ccSDhoe1.s 			page 30


 382 00b8 2069     		ldr	r0, [r4, #16]
 383 00ba FFF7FEFF 		bl	lv_obj_invalidate
 384              	.LVL29:
 153:lvgl/src/hal/lv_hal_disp.c ****     if(disp_def == NULL) disp_def = disp; /*Initialize the default display*/
 385              		.loc 1 153 5 view .LVU111
 153:lvgl/src/hal/lv_hal_disp.c ****     if(disp_def == NULL) disp_def = disp; /*Initialize the default display*/
 386              		.loc 1 153 14 is_stmt 0 view .LVU112
 387 00be 104B     		ldr	r3, .L18+4
 388 00c0 1E60     		str	r6, [r3]
 154:lvgl/src/hal/lv_hal_disp.c **** 
 389              		.loc 1 154 5 is_stmt 1 view .LVU113
 154:lvgl/src/hal/lv_hal_disp.c **** 
 390              		.loc 1 154 7 is_stmt 0 view .LVU114
 391 00c2 C6B1     		cbz	r6, .L17
 392              	.L14:
 156:lvgl/src/hal/lv_hal_disp.c **** 
 393              		.loc 1 156 5 is_stmt 1 view .LVU115
 394 00c4 6068     		ldr	r0, [r4, #4]
 395 00c6 FFF7FEFF 		bl	lv_timer_ready
 396              	.LVL30:
 158:lvgl/src/hal/lv_hal_disp.c **** }
 397              		.loc 1 158 5 view .LVU116
 159:lvgl/src/hal/lv_hal_disp.c **** 
 398              		.loc 1 159 1 is_stmt 0 view .LVU117
 399 00ca 2046     		mov	r0, r4
 400 00cc 02B0     		add	sp, sp, #8
 401              	.LCFI5:
 402              		.cfi_remember_state
 403              		.cfi_def_cfa_offset 16
 404              		@ sp needed
 405 00ce 70BD     		pop	{r4, r5, r6, pc}
 406              	.LVL31:
 407              	.L9:
 408              	.LCFI6:
 409              		.cfi_restore_state
 103:lvgl/src/hal/lv_hal_disp.c ****         return NULL;
 410              		.loc 1 103 9 is_stmt 1 discriminator 1 view .LVU118
 103:lvgl/src/hal/lv_hal_disp.c ****         return NULL;
 411              		.loc 1 103 9 discriminator 1 view .LVU119
 103:lvgl/src/hal/lv_hal_disp.c ****         return NULL;
 412              		.loc 1 103 9 discriminator 1 view .LVU120
 103:lvgl/src/hal/lv_hal_disp.c ****         return NULL;
 413              		.loc 1 103 9 discriminator 1 view .LVU121
 414 00d0 FEE7     		b	.L9
 415              	.LVL32:
 416              	.L11:
 116:lvgl/src/hal/lv_hal_disp.c ****     if(disp->refr_timer == NULL) {
 417              		.loc 1 116 5 discriminator 2 view .LVU122
 116:lvgl/src/hal/lv_hal_disp.c ****     if(disp->refr_timer == NULL) {
 418              		.loc 1 116 5 discriminator 2 view .LVU123
 116:lvgl/src/hal/lv_hal_disp.c ****     if(disp->refr_timer == NULL) {
 419              		.loc 1 116 5 discriminator 2 view .LVU124
 116:lvgl/src/hal/lv_hal_disp.c ****     if(disp->refr_timer == NULL) {
 420              		.loc 1 116 5 discriminator 2 view .LVU125
 421 00d2 FEE7     		b	.L11
 422              	.L16:
 136:lvgl/src/hal/lv_hal_disp.c ****     }
ARM GAS  C:\Users\BLACK_~1\AppData\Local\Temp\ccSDhoe1.s 			page 31


 423              		.loc 1 136 9 view .LVU126
 136:lvgl/src/hal/lv_hal_disp.c ****     }
 424              		.loc 1 136 23 is_stmt 0 view .LVU127
 425 00d4 0520     		movs	r0, #5
 426 00d6 FFF7FEFF 		bl	lv_palette_main
 427              	.LVL33:
 428 00da 0546     		mov	r5, r0	@ movhi
 429              	.LVL34:
 136:lvgl/src/hal/lv_hal_disp.c ****     }
 430              		.loc 1 136 23 view .LVU128
 431 00dc 0020     		movs	r0, #0
 432 00de FFF7FEFF 		bl	lv_palette_main
 433              	.LVL35:
 434 00e2 0246     		mov	r2, r0	@ movhi
 435 00e4 094B     		ldr	r3, .L18+16
 436 00e6 0093     		str	r3, [sp]
 437 00e8 0023     		movs	r3, #0
 438 00ea 2946     		mov	r1, r5	@ movhi
 439 00ec 2046     		mov	r0, r4
 440 00ee FFF7FEFF 		bl	lv_theme_default_init
 441              	.LVL36:
 136:lvgl/src/hal/lv_hal_disp.c ****     }
 442              		.loc 1 136 21 view .LVU129
 443 00f2 A060     		str	r0, [r4, #8]
 444 00f4 B9E7     		b	.L13
 445              	.L17:
 154:lvgl/src/hal/lv_hal_disp.c **** 
 446              		.loc 1 154 26 is_stmt 1 discriminator 1 view .LVU130
 154:lvgl/src/hal/lv_hal_disp.c **** 
 447              		.loc 1 154 35 is_stmt 0 discriminator 1 view .LVU131
 448 00f6 1C60     		str	r4, [r3]
 449 00f8 E4E7     		b	.L14
 450              	.L19:
 451 00fa 00BF     		.align	2
 452              	.L18:
 453 00fc 00000000 		.word	_lv_disp_ll
 454 0100 00000000 		.word	.LANCHOR0
 455 0104 00000000 		.word	_lv_disp_refr_timer
 456 0108 FFFF0F00 		.word	1048575
 457 010c 00000000 		.word	lv_font_montserrat_14
 458              		.cfi_endproc
 459              	.LFE149:
 461              		.section	.text.lv_disp_set_default,"ax",%progbits
 462              		.align	1
 463              		.global	lv_disp_set_default
 464              		.syntax unified
 465              		.thumb
 466              		.thumb_func
 468              	lv_disp_set_default:
 469              	.LVL37:
 470              	.LFB152:
 247:lvgl/src/hal/lv_hal_disp.c ****     disp_def = disp;
 471              		.loc 1 247 1 is_stmt 1 view -0
 472              		.cfi_startproc
 473              		@ args = 0, pretend = 0, frame = 0
 474              		@ frame_needed = 0, uses_anonymous_args = 0
 475              		@ link register save eliminated.
ARM GAS  C:\Users\BLACK_~1\AppData\Local\Temp\ccSDhoe1.s 			page 32


 248:lvgl/src/hal/lv_hal_disp.c **** }
 476              		.loc 1 248 5 view .LVU133
 248:lvgl/src/hal/lv_hal_disp.c **** }
 477              		.loc 1 248 14 is_stmt 0 view .LVU134
 478 0000 014B     		ldr	r3, .L21
 479 0002 1860     		str	r0, [r3]
 249:lvgl/src/hal/lv_hal_disp.c **** 
 480              		.loc 1 249 1 view .LVU135
 481 0004 7047     		bx	lr
 482              	.L22:
 483 0006 00BF     		.align	2
 484              	.L21:
 485 0008 00000000 		.word	.LANCHOR0
 486              		.cfi_endproc
 487              	.LFE152:
 489              		.section	.text.lv_disp_get_default,"ax",%progbits
 490              		.align	1
 491              		.global	lv_disp_get_default
 492              		.syntax unified
 493              		.thumb
 494              		.thumb_func
 496              	lv_disp_get_default:
 497              	.LFB153:
 256:lvgl/src/hal/lv_hal_disp.c ****     return disp_def;
 498              		.loc 1 256 1 is_stmt 1 view -0
 499              		.cfi_startproc
 500              		@ args = 0, pretend = 0, frame = 0
 501              		@ frame_needed = 0, uses_anonymous_args = 0
 502              		@ link register save eliminated.
 257:lvgl/src/hal/lv_hal_disp.c **** }
 503              		.loc 1 257 5 view .LVU137
 258:lvgl/src/hal/lv_hal_disp.c **** 
 504              		.loc 1 258 1 is_stmt 0 view .LVU138
 505 0000 014B     		ldr	r3, .L24
 506 0002 1868     		ldr	r0, [r3]
 507 0004 7047     		bx	lr
 508              	.L25:
 509 0006 00BF     		.align	2
 510              	.L24:
 511 0008 00000000 		.word	.LANCHOR0
 512              		.cfi_endproc
 513              	.LFE153:
 515              		.section	.text.lv_disp_remove,"ax",%progbits
 516              		.align	1
 517              		.global	lv_disp_remove
 518              		.syntax unified
 519              		.thumb
 520              		.thumb_func
 522              	lv_disp_remove:
 523              	.LVL38:
 524              	.LFB151:
 207:lvgl/src/hal/lv_hal_disp.c ****     bool was_default = false;
 525              		.loc 1 207 1 is_stmt 1 view -0
 526              		.cfi_startproc
 527              		@ args = 0, pretend = 0, frame = 0
 528              		@ frame_needed = 0, uses_anonymous_args = 0
 207:lvgl/src/hal/lv_hal_disp.c ****     bool was_default = false;
ARM GAS  C:\Users\BLACK_~1\AppData\Local\Temp\ccSDhoe1.s 			page 33


 529              		.loc 1 207 1 is_stmt 0 view .LVU140
 530 0000 38B5     		push	{r3, r4, r5, lr}
 531              	.LCFI7:
 532              		.cfi_def_cfa_offset 16
 533              		.cfi_offset 3, -16
 534              		.cfi_offset 4, -12
 535              		.cfi_offset 5, -8
 536              		.cfi_offset 14, -4
 537 0002 0446     		mov	r4, r0
 208:lvgl/src/hal/lv_hal_disp.c ****     if(disp == lv_disp_get_default()) was_default = true;
 538              		.loc 1 208 5 is_stmt 1 view .LVU141
 539              	.LVL39:
 209:lvgl/src/hal/lv_hal_disp.c **** 
 540              		.loc 1 209 5 view .LVU142
 209:lvgl/src/hal/lv_hal_disp.c **** 
 541              		.loc 1 209 16 is_stmt 0 view .LVU143
 542 0004 FFF7FEFF 		bl	lv_disp_get_default
 543              	.LVL40:
 209:lvgl/src/hal/lv_hal_disp.c **** 
 544              		.loc 1 209 7 view .LVU144
 545 0008 8442     		cmp	r4, r0
 546 000a 04D0     		beq	.L36
 208:lvgl/src/hal/lv_hal_disp.c ****     if(disp == lv_disp_get_default()) was_default = true;
 547              		.loc 1 208 10 view .LVU145
 548 000c 0025     		movs	r5, #0
 549              	.L27:
 550              	.LVL41:
 212:lvgl/src/hal/lv_hal_disp.c ****     indev = lv_indev_get_next(NULL);
 551              		.loc 1 212 5 is_stmt 1 view .LVU146
 213:lvgl/src/hal/lv_hal_disp.c ****     while(indev) {
 552              		.loc 1 213 5 view .LVU147
 213:lvgl/src/hal/lv_hal_disp.c ****     while(indev) {
 553              		.loc 1 213 13 is_stmt 0 view .LVU148
 554 000e 0020     		movs	r0, #0
 555 0010 FFF7FEFF 		bl	lv_indev_get_next
 556              	.LVL42:
 214:lvgl/src/hal/lv_hal_disp.c ****         if(indev->driver->disp == disp) {
 557              		.loc 1 214 5 is_stmt 1 view .LVU149
 214:lvgl/src/hal/lv_hal_disp.c ****         if(indev->driver->disp == disp) {
 558              		.loc 1 214 10 is_stmt 0 view .LVU150
 559 0014 03E0     		b	.L28
 560              	.LVL43:
 561              	.L36:
 209:lvgl/src/hal/lv_hal_disp.c **** 
 562              		.loc 1 209 51 view .LVU151
 563 0016 0125     		movs	r5, #1
 564 0018 F9E7     		b	.L27
 565              	.LVL44:
 566              	.L29:
 218:lvgl/src/hal/lv_hal_disp.c ****     }
 567              		.loc 1 218 9 is_stmt 1 view .LVU152
 218:lvgl/src/hal/lv_hal_disp.c ****     }
 568              		.loc 1 218 17 is_stmt 0 view .LVU153
 569 001a FFF7FEFF 		bl	lv_indev_get_next
 570              	.LVL45:
 571              	.L28:
 214:lvgl/src/hal/lv_hal_disp.c ****         if(indev->driver->disp == disp) {
ARM GAS  C:\Users\BLACK_~1\AppData\Local\Temp\ccSDhoe1.s 			page 34


 572              		.loc 1 214 10 is_stmt 1 view .LVU154
 573 001e 30B1     		cbz	r0, .L38
 215:lvgl/src/hal/lv_hal_disp.c ****             indev->driver->disp = NULL;
 574              		.loc 1 215 9 view .LVU155
 215:lvgl/src/hal/lv_hal_disp.c ****             indev->driver->disp = NULL;
 575              		.loc 1 215 17 is_stmt 0 view .LVU156
 576 0020 0368     		ldr	r3, [r0]
 215:lvgl/src/hal/lv_hal_disp.c ****             indev->driver->disp = NULL;
 577              		.loc 1 215 25 view .LVU157
 578 0022 1A69     		ldr	r2, [r3, #16]
 215:lvgl/src/hal/lv_hal_disp.c ****             indev->driver->disp = NULL;
 579              		.loc 1 215 11 view .LVU158
 580 0024 A242     		cmp	r2, r4
 581 0026 F8D1     		bne	.L29
 216:lvgl/src/hal/lv_hal_disp.c ****         }
 582              		.loc 1 216 13 is_stmt 1 view .LVU159
 216:lvgl/src/hal/lv_hal_disp.c ****         }
 583              		.loc 1 216 33 is_stmt 0 view .LVU160
 584 0028 0022     		movs	r2, #0
 585 002a 1A61     		str	r2, [r3, #16]
 586 002c F5E7     		b	.L29
 587              	.L38:
 221:lvgl/src/hal/lv_hal_disp.c ****     lv_timer_del(disp->refr_timer);
 588              		.loc 1 221 5 is_stmt 1 view .LVU161
 589 002e 2146     		mov	r1, r4
 590 0030 1248     		ldr	r0, .L40
 591              	.LVL46:
 221:lvgl/src/hal/lv_hal_disp.c ****     lv_timer_del(disp->refr_timer);
 592              		.loc 1 221 5 is_stmt 0 view .LVU162
 593 0032 FFF7FEFF 		bl	_lv_ll_remove
 594              	.LVL47:
 222:lvgl/src/hal/lv_hal_disp.c **** 
 595              		.loc 1 222 5 is_stmt 1 view .LVU163
 596 0036 6068     		ldr	r0, [r4, #4]
 597 0038 FFF7FEFF 		bl	lv_timer_del
 598              	.LVL48:
 225:lvgl/src/hal/lv_hal_disp.c ****         lv_obj_del(disp->sys_layer);
 599              		.loc 1 225 5 view .LVU164
 225:lvgl/src/hal/lv_hal_disp.c ****         lv_obj_del(disp->sys_layer);
 600              		.loc 1 225 13 is_stmt 0 view .LVU165
 601 003c 206A     		ldr	r0, [r4, #32]
 225:lvgl/src/hal/lv_hal_disp.c ****         lv_obj_del(disp->sys_layer);
 602              		.loc 1 225 8 view .LVU166
 603 003e 18B1     		cbz	r0, .L31
 226:lvgl/src/hal/lv_hal_disp.c ****         disp->sys_layer = NULL;
 604              		.loc 1 226 9 is_stmt 1 view .LVU167
 605 0040 FFF7FEFF 		bl	lv_obj_del
 606              	.LVL49:
 227:lvgl/src/hal/lv_hal_disp.c ****     }
 607              		.loc 1 227 9 view .LVU168
 227:lvgl/src/hal/lv_hal_disp.c ****     }
 608              		.loc 1 227 25 is_stmt 0 view .LVU169
 609 0044 0023     		movs	r3, #0
 610 0046 2362     		str	r3, [r4, #32]
 611              	.L31:
 229:lvgl/src/hal/lv_hal_disp.c ****         lv_obj_del(disp->top_layer);
 612              		.loc 1 229 5 is_stmt 1 view .LVU170
ARM GAS  C:\Users\BLACK_~1\AppData\Local\Temp\ccSDhoe1.s 			page 35


 229:lvgl/src/hal/lv_hal_disp.c ****         lv_obj_del(disp->top_layer);
 613              		.loc 1 229 13 is_stmt 0 view .LVU171
 614 0048 E069     		ldr	r0, [r4, #28]
 229:lvgl/src/hal/lv_hal_disp.c ****         lv_obj_del(disp->top_layer);
 615              		.loc 1 229 8 view .LVU172
 616 004a 40B1     		cbz	r0, .L33
 230:lvgl/src/hal/lv_hal_disp.c ****         disp->top_layer = NULL;
 617              		.loc 1 230 9 is_stmt 1 view .LVU173
 618 004c FFF7FEFF 		bl	lv_obj_del
 619              	.LVL50:
 231:lvgl/src/hal/lv_hal_disp.c ****     }
 620              		.loc 1 231 9 view .LVU174
 231:lvgl/src/hal/lv_hal_disp.c ****     }
 621              		.loc 1 231 25 is_stmt 0 view .LVU175
 622 0050 0023     		movs	r3, #0
 623 0052 E361     		str	r3, [r4, #28]
 624 0054 03E0     		b	.L33
 625              	.L34:
 235:lvgl/src/hal/lv_hal_disp.c ****     }
 626              		.loc 1 235 9 is_stmt 1 view .LVU176
 235:lvgl/src/hal/lv_hal_disp.c ****     }
 627              		.loc 1 235 24 is_stmt 0 view .LVU177
 628 0056 E368     		ldr	r3, [r4, #12]
 235:lvgl/src/hal/lv_hal_disp.c ****     }
 629              		.loc 1 235 9 view .LVU178
 630 0058 1868     		ldr	r0, [r3]
 631 005a FFF7FEFF 		bl	lv_obj_del
 632              	.LVL51:
 633              	.L33:
 233:lvgl/src/hal/lv_hal_disp.c ****         /*Delete the screenst*/
 634              		.loc 1 233 11 is_stmt 1 view .LVU179
 233:lvgl/src/hal/lv_hal_disp.c ****         /*Delete the screenst*/
 635              		.loc 1 233 16 is_stmt 0 view .LVU180
 636 005e 636A     		ldr	r3, [r4, #36]
 233:lvgl/src/hal/lv_hal_disp.c ****         /*Delete the screenst*/
 637              		.loc 1 233 11 view .LVU181
 638 0060 002B     		cmp	r3, #0
 639 0062 F8D1     		bne	.L34
 237:lvgl/src/hal/lv_hal_disp.c **** 
 640              		.loc 1 237 5 is_stmt 1 view .LVU182
 641 0064 2046     		mov	r0, r4
 642 0066 FFF7FEFF 		bl	lv_mem_free
 643              	.LVL52:
 239:lvgl/src/hal/lv_hal_disp.c **** }
 644              		.loc 1 239 5 view .LVU183
 239:lvgl/src/hal/lv_hal_disp.c **** }
 645              		.loc 1 239 7 is_stmt 0 view .LVU184
 646 006a 05B9     		cbnz	r5, .L39
 647              	.L26:
 240:lvgl/src/hal/lv_hal_disp.c **** 
 648              		.loc 1 240 1 view .LVU185
 649 006c 38BD     		pop	{r3, r4, r5, pc}
 650              	.LVL53:
 651              	.L39:
 239:lvgl/src/hal/lv_hal_disp.c **** }
 652              		.loc 1 239 21 is_stmt 1 discriminator 1 view .LVU186
 239:lvgl/src/hal/lv_hal_disp.c **** }
ARM GAS  C:\Users\BLACK_~1\AppData\Local\Temp\ccSDhoe1.s 			page 36


 653              		.loc 1 239 41 is_stmt 0 discriminator 1 view .LVU187
 654 006e 0348     		ldr	r0, .L40
 655 0070 FFF7FEFF 		bl	_lv_ll_get_head
 656              	.LVL54:
 239:lvgl/src/hal/lv_hal_disp.c **** }
 657              		.loc 1 239 21 discriminator 1 view .LVU188
 658 0074 FFF7FEFF 		bl	lv_disp_set_default
 659              	.LVL55:
 240:lvgl/src/hal/lv_hal_disp.c **** 
 660              		.loc 1 240 1 discriminator 1 view .LVU189
 661 0078 F8E7     		b	.L26
 662              	.L41:
 663 007a 00BF     		.align	2
 664              	.L40:
 665 007c 00000000 		.word	_lv_disp_ll
 666              		.cfi_endproc
 667              	.LFE151:
 669              		.section	.text.lv_disp_get_hor_res,"ax",%progbits
 670              		.align	1
 671              		.global	lv_disp_get_hor_res
 672              		.syntax unified
 673              		.thumb
 674              		.thumb_func
 676              	lv_disp_get_hor_res:
 677              	.LVL56:
 678              	.LFB154:
 266:lvgl/src/hal/lv_hal_disp.c ****     if(disp == NULL) disp = lv_disp_get_default();
 679              		.loc 1 266 1 is_stmt 1 view -0
 680              		.cfi_startproc
 681              		@ args = 0, pretend = 0, frame = 0
 682              		@ frame_needed = 0, uses_anonymous_args = 0
 266:lvgl/src/hal/lv_hal_disp.c ****     if(disp == NULL) disp = lv_disp_get_default();
 683              		.loc 1 266 1 is_stmt 0 view .LVU191
 684 0000 08B5     		push	{r3, lr}
 685              	.LCFI8:
 686              		.cfi_def_cfa_offset 8
 687              		.cfi_offset 3, -8
 688              		.cfi_offset 14, -4
 267:lvgl/src/hal/lv_hal_disp.c **** 
 689              		.loc 1 267 5 is_stmt 1 view .LVU192
 267:lvgl/src/hal/lv_hal_disp.c **** 
 690              		.loc 1 267 7 is_stmt 0 view .LVU193
 691 0002 0346     		mov	r3, r0
 692 0004 58B1     		cbz	r0, .L49
 693              	.L43:
 269:lvgl/src/hal/lv_hal_disp.c ****         return 0;
 694              		.loc 1 269 5 is_stmt 1 view .LVU194
 269:lvgl/src/hal/lv_hal_disp.c ****         return 0;
 695              		.loc 1 269 7 is_stmt 0 view .LVU195
 696 0006 8BB1     		cbz	r3, .L47
 272:lvgl/src/hal/lv_hal_disp.c ****             case LV_DISP_ROT_90:
 697              		.loc 1 272 9 is_stmt 1 view .LVU196
 272:lvgl/src/hal/lv_hal_disp.c ****             case LV_DISP_ROT_90:
 698              		.loc 1 272 20 is_stmt 0 view .LVU197
 699 0008 1A68     		ldr	r2, [r3]
 272:lvgl/src/hal/lv_hal_disp.c ****             case LV_DISP_ROT_90:
 700              		.loc 1 272 28 view .LVU198
ARM GAS  C:\Users\BLACK_~1\AppData\Local\Temp\ccSDhoe1.s 			page 37


 701 000a 137A     		ldrb	r3, [r2, #8]	@ zero_extendqisi2
 702 000c C3F3C103 		ubfx	r3, r3, #3, #2
 272:lvgl/src/hal/lv_hal_disp.c ****             case LV_DISP_ROT_90:
 703              		.loc 1 272 9 view .LVU199
 704 0010 012B     		cmp	r3, #1
 705 0012 08D0     		beq	.L45
 706 0014 032B     		cmp	r3, #3
 707 0016 06D0     		beq	.L45
 277:lvgl/src/hal/lv_hal_disp.c ****         }
 708              		.loc 1 277 17 is_stmt 1 view .LVU200
 277:lvgl/src/hal/lv_hal_disp.c ****         }
 709              		.loc 1 277 36 is_stmt 0 view .LVU201
 710 0018 B2F90000 		ldrsh	r0, [r2]
 711              	.LVL57:
 277:lvgl/src/hal/lv_hal_disp.c ****         }
 712              		.loc 1 277 36 view .LVU202
 713 001c 05E0     		b	.L44
 714              	.LVL58:
 715              	.L49:
 267:lvgl/src/hal/lv_hal_disp.c **** 
 716              		.loc 1 267 22 is_stmt 1 discriminator 1 view .LVU203
 267:lvgl/src/hal/lv_hal_disp.c **** 
 717              		.loc 1 267 29 is_stmt 0 discriminator 1 view .LVU204
 718 001e FFF7FEFF 		bl	lv_disp_get_default
 719              	.LVL59:
 267:lvgl/src/hal/lv_hal_disp.c **** 
 720              		.loc 1 267 29 discriminator 1 view .LVU205
 721 0022 0346     		mov	r3, r0
 722              	.LVL60:
 267:lvgl/src/hal/lv_hal_disp.c **** 
 723              		.loc 1 267 29 discriminator 1 view .LVU206
 724 0024 EFE7     		b	.L43
 725              	.L45:
 275:lvgl/src/hal/lv_hal_disp.c ****             default:
 726              		.loc 1 275 17 is_stmt 1 view .LVU207
 275:lvgl/src/hal/lv_hal_disp.c ****             default:
 727              		.loc 1 275 36 is_stmt 0 view .LVU208
 728 0026 B2F90200 		ldrsh	r0, [r2, #2]
 729              	.LVL61:
 730              	.L44:
 280:lvgl/src/hal/lv_hal_disp.c **** 
 731              		.loc 1 280 1 view .LVU209
 732 002a 08BD     		pop	{r3, pc}
 733              	.LVL62:
 734              	.L47:
 270:lvgl/src/hal/lv_hal_disp.c ****     } else {
 735              		.loc 1 270 16 view .LVU210
 736 002c 0020     		movs	r0, #0
 737              	.LVL63:
 270:lvgl/src/hal/lv_hal_disp.c ****     } else {
 738              		.loc 1 270 16 view .LVU211
 739 002e FCE7     		b	.L44
 740              		.cfi_endproc
 741              	.LFE154:
 743              		.section	.text.lv_disp_get_ver_res,"ax",%progbits
 744              		.align	1
 745              		.global	lv_disp_get_ver_res
ARM GAS  C:\Users\BLACK_~1\AppData\Local\Temp\ccSDhoe1.s 			page 38


 746              		.syntax unified
 747              		.thumb
 748              		.thumb_func
 750              	lv_disp_get_ver_res:
 751              	.LVL64:
 752              	.LFB155:
 288:lvgl/src/hal/lv_hal_disp.c ****     if(disp == NULL) disp = lv_disp_get_default();
 753              		.loc 1 288 1 is_stmt 1 view -0
 754              		.cfi_startproc
 755              		@ args = 0, pretend = 0, frame = 0
 756              		@ frame_needed = 0, uses_anonymous_args = 0
 288:lvgl/src/hal/lv_hal_disp.c ****     if(disp == NULL) disp = lv_disp_get_default();
 757              		.loc 1 288 1 is_stmt 0 view .LVU213
 758 0000 08B5     		push	{r3, lr}
 759              	.LCFI9:
 760              		.cfi_def_cfa_offset 8
 761              		.cfi_offset 3, -8
 762              		.cfi_offset 14, -4
 289:lvgl/src/hal/lv_hal_disp.c **** 
 763              		.loc 1 289 5 is_stmt 1 view .LVU214
 289:lvgl/src/hal/lv_hal_disp.c **** 
 764              		.loc 1 289 7 is_stmt 0 view .LVU215
 765 0002 0346     		mov	r3, r0
 766 0004 58B1     		cbz	r0, .L57
 767              	.L51:
 291:lvgl/src/hal/lv_hal_disp.c ****         return 0;
 768              		.loc 1 291 5 is_stmt 1 view .LVU216
 291:lvgl/src/hal/lv_hal_disp.c ****         return 0;
 769              		.loc 1 291 7 is_stmt 0 view .LVU217
 770 0006 8BB1     		cbz	r3, .L55
 294:lvgl/src/hal/lv_hal_disp.c ****             case LV_DISP_ROT_90:
 771              		.loc 1 294 9 is_stmt 1 view .LVU218
 294:lvgl/src/hal/lv_hal_disp.c ****             case LV_DISP_ROT_90:
 772              		.loc 1 294 20 is_stmt 0 view .LVU219
 773 0008 1A68     		ldr	r2, [r3]
 294:lvgl/src/hal/lv_hal_disp.c ****             case LV_DISP_ROT_90:
 774              		.loc 1 294 28 view .LVU220
 775 000a 137A     		ldrb	r3, [r2, #8]	@ zero_extendqisi2
 776 000c C3F3C103 		ubfx	r3, r3, #3, #2
 294:lvgl/src/hal/lv_hal_disp.c ****             case LV_DISP_ROT_90:
 777              		.loc 1 294 9 view .LVU221
 778 0010 012B     		cmp	r3, #1
 779 0012 08D0     		beq	.L53
 780 0014 032B     		cmp	r3, #3
 781 0016 06D0     		beq	.L53
 299:lvgl/src/hal/lv_hal_disp.c ****         }
 782              		.loc 1 299 17 is_stmt 1 view .LVU222
 299:lvgl/src/hal/lv_hal_disp.c ****         }
 783              		.loc 1 299 36 is_stmt 0 view .LVU223
 784 0018 B2F90200 		ldrsh	r0, [r2, #2]
 785              	.LVL65:
 299:lvgl/src/hal/lv_hal_disp.c ****         }
 786              		.loc 1 299 36 view .LVU224
 787 001c 05E0     		b	.L52
 788              	.LVL66:
 789              	.L57:
 289:lvgl/src/hal/lv_hal_disp.c **** 
ARM GAS  C:\Users\BLACK_~1\AppData\Local\Temp\ccSDhoe1.s 			page 39


 790              		.loc 1 289 22 is_stmt 1 discriminator 1 view .LVU225
 289:lvgl/src/hal/lv_hal_disp.c **** 
 791              		.loc 1 289 29 is_stmt 0 discriminator 1 view .LVU226
 792 001e FFF7FEFF 		bl	lv_disp_get_default
 793              	.LVL67:
 289:lvgl/src/hal/lv_hal_disp.c **** 
 794              		.loc 1 289 29 discriminator 1 view .LVU227
 795 0022 0346     		mov	r3, r0
 796              	.LVL68:
 289:lvgl/src/hal/lv_hal_disp.c **** 
 797              		.loc 1 289 29 discriminator 1 view .LVU228
 798 0024 EFE7     		b	.L51
 799              	.L53:
 297:lvgl/src/hal/lv_hal_disp.c ****             default:
 800              		.loc 1 297 17 is_stmt 1 view .LVU229
 297:lvgl/src/hal/lv_hal_disp.c ****             default:
 801              		.loc 1 297 36 is_stmt 0 view .LVU230
 802 0026 B2F90000 		ldrsh	r0, [r2]
 803              	.LVL69:
 804              	.L52:
 302:lvgl/src/hal/lv_hal_disp.c **** 
 805              		.loc 1 302 1 view .LVU231
 806 002a 08BD     		pop	{r3, pc}
 807              	.LVL70:
 808              	.L55:
 292:lvgl/src/hal/lv_hal_disp.c ****     } else {
 809              		.loc 1 292 16 view .LVU232
 810 002c 0020     		movs	r0, #0
 811              	.LVL71:
 292:lvgl/src/hal/lv_hal_disp.c ****     } else {
 812              		.loc 1 292 16 view .LVU233
 813 002e FCE7     		b	.L52
 814              		.cfi_endproc
 815              	.LFE155:
 817              		.section	.text.lv_disp_drv_update,"ax",%progbits
 818              		.align	1
 819              		.global	lv_disp_drv_update
 820              		.syntax unified
 821              		.thumb
 822              		.thumb_func
 824              	lv_disp_drv_update:
 825              	.LVL72:
 826              	.LFB150:
 167:lvgl/src/hal/lv_hal_disp.c ****     disp->driver = new_drv;
 827              		.loc 1 167 1 is_stmt 1 view -0
 828              		.cfi_startproc
 829              		@ args = 0, pretend = 0, frame = 8
 830              		@ frame_needed = 0, uses_anonymous_args = 0
 167:lvgl/src/hal/lv_hal_disp.c ****     disp->driver = new_drv;
 831              		.loc 1 167 1 is_stmt 0 view .LVU235
 832 0000 F0B5     		push	{r4, r5, r6, r7, lr}
 833              	.LCFI10:
 834              		.cfi_def_cfa_offset 20
 835              		.cfi_offset 4, -20
 836              		.cfi_offset 5, -16
 837              		.cfi_offset 6, -12
 838              		.cfi_offset 7, -8
ARM GAS  C:\Users\BLACK_~1\AppData\Local\Temp\ccSDhoe1.s 			page 40


 839              		.cfi_offset 14, -4
 840 0002 83B0     		sub	sp, sp, #12
 841              	.LCFI11:
 842              		.cfi_def_cfa_offset 32
 843 0004 0546     		mov	r5, r0
 168:lvgl/src/hal/lv_hal_disp.c **** 
 844              		.loc 1 168 5 is_stmt 1 view .LVU236
 168:lvgl/src/hal/lv_hal_disp.c **** 
 845              		.loc 1 168 18 is_stmt 0 view .LVU237
 846 0006 0160     		str	r1, [r0]
 170:lvgl/src/hal/lv_hal_disp.c ****         disp->driver->full_refresh = 0;
 847              		.loc 1 170 5 is_stmt 1 view .LVU238
 170:lvgl/src/hal/lv_hal_disp.c ****         disp->driver->full_refresh = 0;
 848              		.loc 1 170 8 is_stmt 0 view .LVU239
 849 0008 0B7A     		ldrb	r3, [r1, #8]	@ zero_extendqisi2
 170:lvgl/src/hal/lv_hal_disp.c ****         disp->driver->full_refresh = 0;
 850              		.loc 1 170 7 view .LVU240
 851 000a 13F0010F 		tst	r3, #1
 852 000e 0DD0     		beq	.L59
 170:lvgl/src/hal/lv_hal_disp.c ****         disp->driver->full_refresh = 0;
 853              		.loc 1 170 50 discriminator 1 view .LVU241
 854 0010 4B68     		ldr	r3, [r1, #4]
 170:lvgl/src/hal/lv_hal_disp.c ****         disp->driver->full_refresh = 0;
 855              		.loc 1 170 60 discriminator 1 view .LVU242
 856 0012 DA68     		ldr	r2, [r3, #12]
 170:lvgl/src/hal/lv_hal_disp.c ****         disp->driver->full_refresh = 0;
 857              		.loc 1 170 91 discriminator 1 view .LVU243
 858 0014 B1F90030 		ldrsh	r3, [r1]
 170:lvgl/src/hal/lv_hal_disp.c ****         disp->driver->full_refresh = 0;
 859              		.loc 1 170 115 discriminator 1 view .LVU244
 860 0018 B1F90200 		ldrsh	r0, [r1, #2]
 861              	.LVL73:
 170:lvgl/src/hal/lv_hal_disp.c ****         disp->driver->full_refresh = 0;
 862              		.loc 1 170 101 discriminator 1 view .LVU245
 863 001c 00FB03F3 		mul	r3, r0, r3
 170:lvgl/src/hal/lv_hal_disp.c ****         disp->driver->full_refresh = 0;
 864              		.loc 1 170 35 discriminator 1 view .LVU246
 865 0020 9A42     		cmp	r2, r3
 866 0022 03D2     		bcs	.L59
 171:lvgl/src/hal/lv_hal_disp.c ****         LV_LOG_WARN("full_refresh requires at least screen sized draw buffer(s)")
 867              		.loc 1 171 9 is_stmt 1 view .LVU247
 171:lvgl/src/hal/lv_hal_disp.c ****         LV_LOG_WARN("full_refresh requires at least screen sized draw buffer(s)")
 868              		.loc 1 171 36 is_stmt 0 view .LVU248
 869 0024 0B7A     		ldrb	r3, [r1, #8]	@ zero_extendqisi2
 870 0026 6FF30003 		bfc	r3, #0, #1
 871 002a 0B72     		strb	r3, [r1, #8]
 872              	.L59:
 175:lvgl/src/hal/lv_hal_disp.c ****     lv_coord_t h = lv_disp_get_ver_res(disp);
 873              		.loc 1 175 5 is_stmt 1 view .LVU249
 175:lvgl/src/hal/lv_hal_disp.c ****     lv_coord_t h = lv_disp_get_ver_res(disp);
 874              		.loc 1 175 20 is_stmt 0 view .LVU250
 875 002c 2846     		mov	r0, r5
 876 002e FFF7FEFF 		bl	lv_disp_get_hor_res
 877              	.LVL74:
 175:lvgl/src/hal/lv_hal_disp.c ****     lv_coord_t h = lv_disp_get_ver_res(disp);
 878              		.loc 1 175 20 view .LVU251
 879 0032 0746     		mov	r7, r0
ARM GAS  C:\Users\BLACK_~1\AppData\Local\Temp\ccSDhoe1.s 			page 41


 880              	.LVL75:
 176:lvgl/src/hal/lv_hal_disp.c ****     uint32_t i;
 881              		.loc 1 176 5 is_stmt 1 view .LVU252
 176:lvgl/src/hal/lv_hal_disp.c ****     uint32_t i;
 882              		.loc 1 176 20 is_stmt 0 view .LVU253
 883 0034 2846     		mov	r0, r5
 884 0036 FFF7FEFF 		bl	lv_disp_get_ver_res
 885              	.LVL76:
 886 003a 0646     		mov	r6, r0
 887              	.LVL77:
 177:lvgl/src/hal/lv_hal_disp.c ****     for(i = 0; i < disp->screen_cnt; i++) {
 888              		.loc 1 177 5 is_stmt 1 view .LVU254
 178:lvgl/src/hal/lv_hal_disp.c ****         lv_area_t prev_coords;
 889              		.loc 1 178 5 view .LVU255
 178:lvgl/src/hal/lv_hal_disp.c ****         lv_area_t prev_coords;
 890              		.loc 1 178 11 is_stmt 0 view .LVU256
 891 003c 0024     		movs	r4, #0
 178:lvgl/src/hal/lv_hal_disp.c ****         lv_area_t prev_coords;
 892              		.loc 1 178 5 view .LVU257
 893 003e 1BE0     		b	.L60
 894              	.LVL78:
 895              	.L61:
 896              	.LBB30:
 179:lvgl/src/hal/lv_hal_disp.c ****         lv_obj_get_coords(disp->screens[i], &prev_coords);
 897              		.loc 1 179 9 is_stmt 1 discriminator 3 view .LVU258
 180:lvgl/src/hal/lv_hal_disp.c ****         lv_area_set_width(&disp->screens[i]->coords, w);
 898              		.loc 1 180 9 discriminator 3 view .LVU259
 180:lvgl/src/hal/lv_hal_disp.c ****         lv_area_set_width(&disp->screens[i]->coords, w);
 899              		.loc 1 180 31 is_stmt 0 discriminator 3 view .LVU260
 900 0040 EB68     		ldr	r3, [r5, #12]
 180:lvgl/src/hal/lv_hal_disp.c ****         lv_area_set_width(&disp->screens[i]->coords, w);
 901              		.loc 1 180 9 discriminator 3 view .LVU261
 902 0042 6946     		mov	r1, sp
 903 0044 53F82400 		ldr	r0, [r3, r4, lsl #2]
 904 0048 FFF7FEFF 		bl	lv_obj_get_coords
 905              	.LVL79:
 181:lvgl/src/hal/lv_hal_disp.c ****         lv_area_set_height(&disp->screens[i]->coords, h);
 906              		.loc 1 181 9 is_stmt 1 discriminator 3 view .LVU262
 181:lvgl/src/hal/lv_hal_disp.c ****         lv_area_set_height(&disp->screens[i]->coords, h);
 907              		.loc 1 181 32 is_stmt 0 discriminator 3 view .LVU263
 908 004c EB68     		ldr	r3, [r5, #12]
 181:lvgl/src/hal/lv_hal_disp.c ****         lv_area_set_height(&disp->screens[i]->coords, h);
 909              		.loc 1 181 41 discriminator 3 view .LVU264
 910 004e 53F82400 		ldr	r0, [r3, r4, lsl #2]
 181:lvgl/src/hal/lv_hal_disp.c ****         lv_area_set_height(&disp->screens[i]->coords, h);
 911              		.loc 1 181 9 discriminator 3 view .LVU265
 912 0052 3946     		mov	r1, r7
 913 0054 1430     		adds	r0, r0, #20
 914 0056 FFF7FEFF 		bl	lv_area_set_width
 915              	.LVL80:
 182:lvgl/src/hal/lv_hal_disp.c ****         lv_event_send(disp->screens[i], LV_EVENT_SIZE_CHANGED, &prev_coords);
 916              		.loc 1 182 9 is_stmt 1 discriminator 3 view .LVU266
 182:lvgl/src/hal/lv_hal_disp.c ****         lv_event_send(disp->screens[i], LV_EVENT_SIZE_CHANGED, &prev_coords);
 917              		.loc 1 182 33 is_stmt 0 discriminator 3 view .LVU267
 918 005a EB68     		ldr	r3, [r5, #12]
 182:lvgl/src/hal/lv_hal_disp.c ****         lv_event_send(disp->screens[i], LV_EVENT_SIZE_CHANGED, &prev_coords);
 919              		.loc 1 182 42 discriminator 3 view .LVU268
ARM GAS  C:\Users\BLACK_~1\AppData\Local\Temp\ccSDhoe1.s 			page 42


 920 005c 53F82400 		ldr	r0, [r3, r4, lsl #2]
 182:lvgl/src/hal/lv_hal_disp.c ****         lv_event_send(disp->screens[i], LV_EVENT_SIZE_CHANGED, &prev_coords);
 921              		.loc 1 182 9 discriminator 3 view .LVU269
 922 0060 3146     		mov	r1, r6
 923 0062 1430     		adds	r0, r0, #20
 924 0064 FFF7FEFF 		bl	lv_area_set_height
 925              	.LVL81:
 183:lvgl/src/hal/lv_hal_disp.c ****     }
 926              		.loc 1 183 9 is_stmt 1 discriminator 3 view .LVU270
 183:lvgl/src/hal/lv_hal_disp.c ****     }
 927              		.loc 1 183 27 is_stmt 0 discriminator 3 view .LVU271
 928 0068 EB68     		ldr	r3, [r5, #12]
 183:lvgl/src/hal/lv_hal_disp.c ****     }
 929              		.loc 1 183 9 discriminator 3 view .LVU272
 930 006a 6A46     		mov	r2, sp
 931 006c 2321     		movs	r1, #35
 932 006e 53F82400 		ldr	r0, [r3, r4, lsl #2]
 933 0072 FFF7FEFF 		bl	lv_event_send
 934              	.LVL82:
 935              	.LBE30:
 178:lvgl/src/hal/lv_hal_disp.c ****         lv_area_t prev_coords;
 936              		.loc 1 178 38 is_stmt 1 discriminator 3 view .LVU273
 178:lvgl/src/hal/lv_hal_disp.c ****         lv_area_t prev_coords;
 937              		.loc 1 178 39 is_stmt 0 discriminator 3 view .LVU274
 938 0076 0134     		adds	r4, r4, #1
 939              	.LVL83:
 940              	.L60:
 178:lvgl/src/hal/lv_hal_disp.c ****         lv_area_t prev_coords;
 941              		.loc 1 178 16 is_stmt 1 discriminator 1 view .LVU275
 178:lvgl/src/hal/lv_hal_disp.c ****         lv_area_t prev_coords;
 942              		.loc 1 178 24 is_stmt 0 discriminator 1 view .LVU276
 943 0078 6B6A     		ldr	r3, [r5, #36]
 178:lvgl/src/hal/lv_hal_disp.c ****         lv_area_t prev_coords;
 944              		.loc 1 178 5 discriminator 1 view .LVU277
 945 007a A342     		cmp	r3, r4
 946 007c E0D8     		bhi	.L61
 192:lvgl/src/hal/lv_hal_disp.c ****     lv_memset_00(disp->inv_area_joined, sizeof(disp->inv_area_joined));
 947              		.loc 1 192 5 is_stmt 1 view .LVU278
 948 007e 4FF48071 		mov	r1, #256
 949 0082 05F13000 		add	r0, r5, #48
 950 0086 FFF7FEFF 		bl	lv_memset_00
 951              	.LVL84:
 193:lvgl/src/hal/lv_hal_disp.c ****     disp->inv_p = 0;
 952              		.loc 1 193 5 view .LVU279
 953 008a 2021     		movs	r1, #32
 954 008c 05F59870 		add	r0, r5, #304
 955 0090 FFF7FEFF 		bl	lv_memset_00
 956              	.LVL85:
 194:lvgl/src/hal/lv_hal_disp.c ****     if(disp->act_scr != NULL) lv_obj_invalidate(disp->act_scr);
 957              		.loc 1 194 5 view .LVU280
 194:lvgl/src/hal/lv_hal_disp.c ****     if(disp->act_scr != NULL) lv_obj_invalidate(disp->act_scr);
 958              		.loc 1 194 17 is_stmt 0 view .LVU281
 959 0094 0023     		movs	r3, #0
 960 0096 A5F85031 		strh	r3, [r5, #336]	@ movhi
 195:lvgl/src/hal/lv_hal_disp.c **** 
 961              		.loc 1 195 5 is_stmt 1 view .LVU282
 195:lvgl/src/hal/lv_hal_disp.c **** 
ARM GAS  C:\Users\BLACK_~1\AppData\Local\Temp\ccSDhoe1.s 			page 43


 962              		.loc 1 195 12 is_stmt 0 view .LVU283
 963 009a 2869     		ldr	r0, [r5, #16]
 195:lvgl/src/hal/lv_hal_disp.c **** 
 964              		.loc 1 195 7 view .LVU284
 965 009c 08B1     		cbz	r0, .L62
 195:lvgl/src/hal/lv_hal_disp.c **** 
 966              		.loc 1 195 31 is_stmt 1 discriminator 1 view .LVU285
 967 009e FFF7FEFF 		bl	lv_obj_invalidate
 968              	.LVL86:
 969              	.L62:
 197:lvgl/src/hal/lv_hal_disp.c **** 
 970              		.loc 1 197 5 view .LVU286
 971 00a2 0022     		movs	r2, #0
 972 00a4 0449     		ldr	r1, .L65
 973 00a6 1046     		mov	r0, r2
 974 00a8 FFF7FEFF 		bl	lv_obj_tree_walk
 975              	.LVL87:
 199:lvgl/src/hal/lv_hal_disp.c **** }
 976              		.loc 1 199 5 view .LVU287
 199:lvgl/src/hal/lv_hal_disp.c **** }
 977              		.loc 1 199 12 is_stmt 0 view .LVU288
 978 00ac 2868     		ldr	r0, [r5]
 199:lvgl/src/hal/lv_hal_disp.c **** }
 979              		.loc 1 199 20 view .LVU289
 980 00ae 836A     		ldr	r3, [r0, #40]
 199:lvgl/src/hal/lv_hal_disp.c **** }
 981              		.loc 1 199 7 view .LVU290
 982 00b0 03B1     		cbz	r3, .L58
 199:lvgl/src/hal/lv_hal_disp.c **** }
 983              		.loc 1 199 37 is_stmt 1 discriminator 1 view .LVU291
 984 00b2 9847     		blx	r3
 985              	.LVL88:
 986              	.L58:
 200:lvgl/src/hal/lv_hal_disp.c **** 
 987              		.loc 1 200 1 is_stmt 0 view .LVU292
 988 00b4 03B0     		add	sp, sp, #12
 989              	.LCFI12:
 990              		.cfi_def_cfa_offset 20
 991              		@ sp needed
 992 00b6 F0BD     		pop	{r4, r5, r6, r7, pc}
 993              	.LVL89:
 994              	.L66:
 200:lvgl/src/hal/lv_hal_disp.c **** 
 995              		.loc 1 200 1 view .LVU293
 996              		.align	2
 997              	.L65:
 998 00b8 00000000 		.word	invalidate_layout_cb
 999              		.cfi_endproc
 1000              	.LFE150:
 1002              		.section	.text.lv_disp_get_antialiasing,"ax",%progbits
 1003              		.align	1
 1004              		.global	lv_disp_get_antialiasing
 1005              		.syntax unified
 1006              		.thumb
 1007              		.thumb_func
 1009              	lv_disp_get_antialiasing:
 1010              	.LVL90:
ARM GAS  C:\Users\BLACK_~1\AppData\Local\Temp\ccSDhoe1.s 			page 44


 1011              	.LFB156:
 310:lvgl/src/hal/lv_hal_disp.c ****     if(disp == NULL) disp = lv_disp_get_default();
 1012              		.loc 1 310 1 is_stmt 1 view -0
 1013              		.cfi_startproc
 1014              		@ args = 0, pretend = 0, frame = 0
 1015              		@ frame_needed = 0, uses_anonymous_args = 0
 310:lvgl/src/hal/lv_hal_disp.c ****     if(disp == NULL) disp = lv_disp_get_default();
 1016              		.loc 1 310 1 is_stmt 0 view .LVU295
 1017 0000 08B5     		push	{r3, lr}
 1018              	.LCFI13:
 1019              		.cfi_def_cfa_offset 8
 1020              		.cfi_offset 3, -8
 1021              		.cfi_offset 14, -4
 311:lvgl/src/hal/lv_hal_disp.c ****     if(disp == NULL) return false;
 1022              		.loc 1 311 5 is_stmt 1 view .LVU296
 311:lvgl/src/hal/lv_hal_disp.c ****     if(disp == NULL) return false;
 1023              		.loc 1 311 7 is_stmt 0 view .LVU297
 1024 0002 0346     		mov	r3, r0
 1025 0004 28B1     		cbz	r0, .L72
 1026              	.L68:
 312:lvgl/src/hal/lv_hal_disp.c **** 
 1027              		.loc 1 312 5 is_stmt 1 view .LVU298
 312:lvgl/src/hal/lv_hal_disp.c **** 
 1028              		.loc 1 312 7 is_stmt 0 view .LVU299
 1029 0006 43B1     		cbz	r3, .L70
 314:lvgl/src/hal/lv_hal_disp.c **** }
 1030              		.loc 1 314 5 is_stmt 1 view .LVU300
 314:lvgl/src/hal/lv_hal_disp.c **** }
 1031              		.loc 1 314 16 is_stmt 0 view .LVU301
 1032 0008 1B68     		ldr	r3, [r3]
 314:lvgl/src/hal/lv_hal_disp.c **** }
 1033              		.loc 1 314 39 view .LVU302
 1034 000a 187A     		ldrb	r0, [r3, #8]	@ zero_extendqisi2
 1035              	.LVL91:
 314:lvgl/src/hal/lv_hal_disp.c **** }
 1036              		.loc 1 314 46 view .LVU303
 1037 000c C0F38000 		ubfx	r0, r0, #2, #1
 1038              	.L69:
 315:lvgl/src/hal/lv_hal_disp.c **** 
 1039              		.loc 1 315 1 view .LVU304
 1040 0010 08BD     		pop	{r3, pc}
 1041              	.LVL92:
 1042              	.L72:
 311:lvgl/src/hal/lv_hal_disp.c ****     if(disp == NULL) return false;
 1043              		.loc 1 311 22 is_stmt 1 discriminator 1 view .LVU305
 311:lvgl/src/hal/lv_hal_disp.c ****     if(disp == NULL) return false;
 1044              		.loc 1 311 29 is_stmt 0 discriminator 1 view .LVU306
 1045 0012 FFF7FEFF 		bl	lv_disp_get_default
 1046              	.LVL93:
 311:lvgl/src/hal/lv_hal_disp.c ****     if(disp == NULL) return false;
 1047              		.loc 1 311 29 discriminator 1 view .LVU307
 1048 0016 0346     		mov	r3, r0
 1049              	.LVL94:
 311:lvgl/src/hal/lv_hal_disp.c ****     if(disp == NULL) return false;
 1050              		.loc 1 311 29 discriminator 1 view .LVU308
 1051 0018 F5E7     		b	.L68
 1052              	.L70:
ARM GAS  C:\Users\BLACK_~1\AppData\Local\Temp\ccSDhoe1.s 			page 45


 312:lvgl/src/hal/lv_hal_disp.c **** 
 1053              		.loc 1 312 29 view .LVU309
 1054 001a 0020     		movs	r0, #0
 1055              	.LVL95:
 312:lvgl/src/hal/lv_hal_disp.c **** 
 1056              		.loc 1 312 29 view .LVU310
 1057 001c F8E7     		b	.L69
 1058              		.cfi_endproc
 1059              	.LFE156:
 1061              		.section	.text.lv_disp_get_dpi,"ax",%progbits
 1062              		.align	1
 1063              		.global	lv_disp_get_dpi
 1064              		.syntax unified
 1065              		.thumb
 1066              		.thumb_func
 1068              	lv_disp_get_dpi:
 1069              	.LVL96:
 1070              	.LFB157:
 323:lvgl/src/hal/lv_hal_disp.c ****     if(disp == NULL) disp = lv_disp_get_default();
 1071              		.loc 1 323 1 is_stmt 1 view -0
 1072              		.cfi_startproc
 1073              		@ args = 0, pretend = 0, frame = 0
 1074              		@ frame_needed = 0, uses_anonymous_args = 0
 323:lvgl/src/hal/lv_hal_disp.c ****     if(disp == NULL) disp = lv_disp_get_default();
 1075              		.loc 1 323 1 is_stmt 0 view .LVU312
 1076 0000 08B5     		push	{r3, lr}
 1077              	.LCFI14:
 1078              		.cfi_def_cfa_offset 8
 1079              		.cfi_offset 3, -8
 1080              		.cfi_offset 14, -4
 324:lvgl/src/hal/lv_hal_disp.c ****     if(disp == NULL) return LV_DPI_DEF;  /*Do not return 0 because it might be a divider*/
 1081              		.loc 1 324 5 is_stmt 1 view .LVU313
 324:lvgl/src/hal/lv_hal_disp.c ****     if(disp == NULL) return LV_DPI_DEF;  /*Do not return 0 because it might be a divider*/
 1082              		.loc 1 324 7 is_stmt 0 view .LVU314
 1083 0002 0346     		mov	r3, r0
 1084 0004 28B1     		cbz	r0, .L78
 1085              	.L74:
 325:lvgl/src/hal/lv_hal_disp.c ****     return disp->driver->dpi;
 1086              		.loc 1 325 5 is_stmt 1 view .LVU315
 325:lvgl/src/hal/lv_hal_disp.c ****     return disp->driver->dpi;
 1087              		.loc 1 325 7 is_stmt 0 view .LVU316
 1088 0006 43B1     		cbz	r3, .L76
 326:lvgl/src/hal/lv_hal_disp.c **** }
 1089              		.loc 1 326 5 is_stmt 1 view .LVU317
 326:lvgl/src/hal/lv_hal_disp.c **** }
 1090              		.loc 1 326 16 is_stmt 0 view .LVU318
 1091 0008 1B68     		ldr	r3, [r3]
 326:lvgl/src/hal/lv_hal_disp.c **** }
 1092              		.loc 1 326 24 view .LVU319
 1093 000a 1889     		ldrh	r0, [r3, #8]
 1094              	.LVL97:
 326:lvgl/src/hal/lv_hal_disp.c **** }
 1095              		.loc 1 326 24 view .LVU320
 1096 000c C0F38910 		ubfx	r0, r0, #6, #10
 1097              	.L75:
 327:lvgl/src/hal/lv_hal_disp.c **** 
 1098              		.loc 1 327 1 view .LVU321
ARM GAS  C:\Users\BLACK_~1\AppData\Local\Temp\ccSDhoe1.s 			page 46


 1099 0010 08BD     		pop	{r3, pc}
 1100              	.LVL98:
 1101              	.L78:
 324:lvgl/src/hal/lv_hal_disp.c ****     if(disp == NULL) return LV_DPI_DEF;  /*Do not return 0 because it might be a divider*/
 1102              		.loc 1 324 22 is_stmt 1 discriminator 1 view .LVU322
 324:lvgl/src/hal/lv_hal_disp.c ****     if(disp == NULL) return LV_DPI_DEF;  /*Do not return 0 because it might be a divider*/
 1103              		.loc 1 324 29 is_stmt 0 discriminator 1 view .LVU323
 1104 0012 FFF7FEFF 		bl	lv_disp_get_default
 1105              	.LVL99:
 324:lvgl/src/hal/lv_hal_disp.c ****     if(disp == NULL) return LV_DPI_DEF;  /*Do not return 0 because it might be a divider*/
 1106              		.loc 1 324 29 discriminator 1 view .LVU324
 1107 0016 0346     		mov	r3, r0
 1108              	.LVL100:
 324:lvgl/src/hal/lv_hal_disp.c ****     if(disp == NULL) return LV_DPI_DEF;  /*Do not return 0 because it might be a divider*/
 1109              		.loc 1 324 29 discriminator 1 view .LVU325
 1110 0018 F5E7     		b	.L74
 1111              	.L76:
 325:lvgl/src/hal/lv_hal_disp.c ****     return disp->driver->dpi;
 1112              		.loc 1 325 29 view .LVU326
 1113 001a 8220     		movs	r0, #130
 1114              	.LVL101:
 325:lvgl/src/hal/lv_hal_disp.c ****     return disp->driver->dpi;
 1115              		.loc 1 325 29 view .LVU327
 1116 001c F8E7     		b	.L75
 1117              		.cfi_endproc
 1118              	.LFE157:
 1120              		.section	.text.lv_disp_flush_ready,"ax",%progbits
 1121              		.align	1
 1122              		.global	lv_disp_flush_ready
 1123              		.syntax unified
 1124              		.thumb
 1125              		.thumb_func
 1127              	lv_disp_flush_ready:
 1128              	.LVL102:
 1129              	.LFB158:
 334:lvgl/src/hal/lv_hal_disp.c ****     /*If the screen is transparent initialize it when the flushing is ready*/
 1130              		.loc 1 334 1 is_stmt 1 view -0
 1131              		.cfi_startproc
 1132              		@ args = 0, pretend = 0, frame = 0
 1133              		@ frame_needed = 0, uses_anonymous_args = 0
 1134              		@ link register save eliminated.
 342:lvgl/src/hal/lv_hal_disp.c ****     disp_drv->draw_buf->flushing_last = 0;
 1135              		.loc 1 342 5 view .LVU329
 342:lvgl/src/hal/lv_hal_disp.c ****     disp_drv->draw_buf->flushing_last = 0;
 1136              		.loc 1 342 13 is_stmt 0 view .LVU330
 1137 0000 4268     		ldr	r2, [r0, #4]
 342:lvgl/src/hal/lv_hal_disp.c ****     disp_drv->draw_buf->flushing_last = 0;
 1138              		.loc 1 342 34 view .LVU331
 1139 0002 0023     		movs	r3, #0
 1140 0004 9361     		str	r3, [r2, #24]
 343:lvgl/src/hal/lv_hal_disp.c **** }
 1141              		.loc 1 343 5 is_stmt 1 view .LVU332
 343:lvgl/src/hal/lv_hal_disp.c **** }
 1142              		.loc 1 343 13 is_stmt 0 view .LVU333
 1143 0006 4268     		ldr	r2, [r0, #4]
 343:lvgl/src/hal/lv_hal_disp.c **** }
 1144              		.loc 1 343 39 view .LVU334
ARM GAS  C:\Users\BLACK_~1\AppData\Local\Temp\ccSDhoe1.s 			page 47


 1145 0008 D361     		str	r3, [r2, #28]
 344:lvgl/src/hal/lv_hal_disp.c **** 
 1146              		.loc 1 344 1 view .LVU335
 1147 000a 7047     		bx	lr
 1148              		.cfi_endproc
 1149              	.LFE158:
 1151              		.section	.text.lv_disp_flush_is_last,"ax",%progbits
 1152              		.align	1
 1153              		.global	lv_disp_flush_is_last
 1154              		.syntax unified
 1155              		.thumb
 1156              		.thumb_func
 1158              	lv_disp_flush_is_last:
 1159              	.LVL103:
 1160              	.LFB159:
 353:lvgl/src/hal/lv_hal_disp.c ****     return disp_drv->draw_buf->flushing_last;
 1161              		.loc 1 353 1 is_stmt 1 view -0
 1162              		.cfi_startproc
 1163              		@ args = 0, pretend = 0, frame = 0
 1164              		@ frame_needed = 0, uses_anonymous_args = 0
 1165              		@ link register save eliminated.
 354:lvgl/src/hal/lv_hal_disp.c **** }
 1166              		.loc 1 354 5 view .LVU337
 354:lvgl/src/hal/lv_hal_disp.c **** }
 1167              		.loc 1 354 20 is_stmt 0 view .LVU338
 1168 0000 4368     		ldr	r3, [r0, #4]
 354:lvgl/src/hal/lv_hal_disp.c **** }
 1169              		.loc 1 354 30 view .LVU339
 1170 0002 D869     		ldr	r0, [r3, #28]
 1171              	.LVL104:
 355:lvgl/src/hal/lv_hal_disp.c **** 
 1172              		.loc 1 355 1 view .LVU340
 1173 0004 0038     		subs	r0, r0, #0
 1174 0006 18BF     		it	ne
 1175 0008 0120     		movne	r0, #1
 1176 000a 7047     		bx	lr
 1177              		.cfi_endproc
 1178              	.LFE159:
 1180              		.section	.text.lv_disp_get_next,"ax",%progbits
 1181              		.align	1
 1182              		.global	lv_disp_get_next
 1183              		.syntax unified
 1184              		.thumb
 1185              		.thumb_func
 1187              	lv_disp_get_next:
 1188              	.LVL105:
 1189              	.LFB160:
 363:lvgl/src/hal/lv_hal_disp.c ****     if(disp == NULL)
 1190              		.loc 1 363 1 is_stmt 1 view -0
 1191              		.cfi_startproc
 1192              		@ args = 0, pretend = 0, frame = 0
 1193              		@ frame_needed = 0, uses_anonymous_args = 0
 363:lvgl/src/hal/lv_hal_disp.c ****     if(disp == NULL)
 1194              		.loc 1 363 1 is_stmt 0 view .LVU342
 1195 0000 08B5     		push	{r3, lr}
 1196              	.LCFI15:
 1197              		.cfi_def_cfa_offset 8
ARM GAS  C:\Users\BLACK_~1\AppData\Local\Temp\ccSDhoe1.s 			page 48


 1198              		.cfi_offset 3, -8
 1199              		.cfi_offset 14, -4
 364:lvgl/src/hal/lv_hal_disp.c ****         return _lv_ll_get_head(&LV_GC_ROOT(_lv_disp_ll));
 1200              		.loc 1 364 5 is_stmt 1 view .LVU343
 364:lvgl/src/hal/lv_hal_disp.c ****         return _lv_ll_get_head(&LV_GC_ROOT(_lv_disp_ll));
 1201              		.loc 1 364 7 is_stmt 0 view .LVU344
 1202 0002 20B1     		cbz	r0, .L85
 1203 0004 0146     		mov	r1, r0
 367:lvgl/src/hal/lv_hal_disp.c **** }
 1204              		.loc 1 367 9 is_stmt 1 view .LVU345
 367:lvgl/src/hal/lv_hal_disp.c **** }
 1205              		.loc 1 367 16 is_stmt 0 view .LVU346
 1206 0006 0448     		ldr	r0, .L86
 1207              	.LVL106:
 367:lvgl/src/hal/lv_hal_disp.c **** }
 1208              		.loc 1 367 16 view .LVU347
 1209 0008 FFF7FEFF 		bl	_lv_ll_get_next
 1210              	.LVL107:
 1211              	.L81:
 368:lvgl/src/hal/lv_hal_disp.c **** 
 1212              		.loc 1 368 1 view .LVU348
 1213 000c 08BD     		pop	{r3, pc}
 1214              	.LVL108:
 1215              	.L85:
 365:lvgl/src/hal/lv_hal_disp.c ****     else
 1216              		.loc 1 365 9 is_stmt 1 view .LVU349
 365:lvgl/src/hal/lv_hal_disp.c ****     else
 1217              		.loc 1 365 16 is_stmt 0 view .LVU350
 1218 000e 0248     		ldr	r0, .L86
 1219              	.LVL109:
 365:lvgl/src/hal/lv_hal_disp.c ****     else
 1220              		.loc 1 365 16 view .LVU351
 1221 0010 FFF7FEFF 		bl	_lv_ll_get_head
 1222              	.LVL110:
 1223 0014 FAE7     		b	.L81
 1224              	.L87:
 1225 0016 00BF     		.align	2
 1226              	.L86:
 1227 0018 00000000 		.word	_lv_disp_ll
 1228              		.cfi_endproc
 1229              	.LFE160:
 1231              		.section	.text.lv_disp_get_draw_buf,"ax",%progbits
 1232              		.align	1
 1233              		.global	lv_disp_get_draw_buf
 1234              		.syntax unified
 1235              		.thumb
 1236              		.thumb_func
 1238              	lv_disp_get_draw_buf:
 1239              	.LVL111:
 1240              	.LFB161:
 376:lvgl/src/hal/lv_hal_disp.c ****     return disp->driver->draw_buf;
 1241              		.loc 1 376 1 is_stmt 1 view -0
 1242              		.cfi_startproc
 1243              		@ args = 0, pretend = 0, frame = 0
 1244              		@ frame_needed = 0, uses_anonymous_args = 0
 1245              		@ link register save eliminated.
 377:lvgl/src/hal/lv_hal_disp.c **** }
ARM GAS  C:\Users\BLACK_~1\AppData\Local\Temp\ccSDhoe1.s 			page 49


 1246              		.loc 1 377 5 view .LVU353
 377:lvgl/src/hal/lv_hal_disp.c **** }
 1247              		.loc 1 377 16 is_stmt 0 view .LVU354
 1248 0000 0368     		ldr	r3, [r0]
 378:lvgl/src/hal/lv_hal_disp.c **** 
 1249              		.loc 1 378 1 view .LVU355
 1250 0002 5868     		ldr	r0, [r3, #4]
 1251              	.LVL112:
 378:lvgl/src/hal/lv_hal_disp.c **** 
 1252              		.loc 1 378 1 view .LVU356
 1253 0004 7047     		bx	lr
 1254              		.cfi_endproc
 1255              	.LFE161:
 1257              		.section	.text.lv_disp_set_rotation,"ax",%progbits
 1258              		.align	1
 1259              		.global	lv_disp_set_rotation
 1260              		.syntax unified
 1261              		.thumb
 1262              		.thumb_func
 1264              	lv_disp_set_rotation:
 1265              	.LVL113:
 1266              	.LFB162:
 386:lvgl/src/hal/lv_hal_disp.c ****     if(disp == NULL) disp = lv_disp_get_default();
 1267              		.loc 1 386 1 is_stmt 1 view -0
 1268              		.cfi_startproc
 1269              		@ args = 0, pretend = 0, frame = 0
 1270              		@ frame_needed = 0, uses_anonymous_args = 0
 386:lvgl/src/hal/lv_hal_disp.c ****     if(disp == NULL) disp = lv_disp_get_default();
 1271              		.loc 1 386 1 is_stmt 0 view .LVU358
 1272 0000 10B5     		push	{r4, lr}
 1273              	.LCFI16:
 1274              		.cfi_def_cfa_offset 8
 1275              		.cfi_offset 4, -8
 1276              		.cfi_offset 14, -4
 1277 0002 0C46     		mov	r4, r1
 387:lvgl/src/hal/lv_hal_disp.c ****     if(disp == NULL) return;
 1278              		.loc 1 387 5 is_stmt 1 view .LVU359
 387:lvgl/src/hal/lv_hal_disp.c ****     if(disp == NULL) return;
 1279              		.loc 1 387 7 is_stmt 0 view .LVU360
 1280 0004 0346     		mov	r3, r0
 1281 0006 50B1     		cbz	r0, .L93
 1282              	.LVL114:
 1283              	.L90:
 388:lvgl/src/hal/lv_hal_disp.c **** 
 1284              		.loc 1 388 5 is_stmt 1 view .LVU361
 388:lvgl/src/hal/lv_hal_disp.c **** 
 1285              		.loc 1 388 7 is_stmt 0 view .LVU362
 1286 0008 43B1     		cbz	r3, .L89
 390:lvgl/src/hal/lv_hal_disp.c ****     lv_disp_drv_update(disp, disp->driver);
 1287              		.loc 1 390 5 is_stmt 1 view .LVU363
 390:lvgl/src/hal/lv_hal_disp.c ****     lv_disp_drv_update(disp, disp->driver);
 1288              		.loc 1 390 9 is_stmt 0 view .LVU364
 1289 000a 1A68     		ldr	r2, [r3]
 390:lvgl/src/hal/lv_hal_disp.c ****     lv_disp_drv_update(disp, disp->driver);
 1290              		.loc 1 390 27 view .LVU365
 1291 000c 117A     		ldrb	r1, [r2, #8]	@ zero_extendqisi2
 1292 000e 64F3C401 		bfi	r1, r4, #3, #2
ARM GAS  C:\Users\BLACK_~1\AppData\Local\Temp\ccSDhoe1.s 			page 50


 1293 0012 1172     		strb	r1, [r2, #8]
 391:lvgl/src/hal/lv_hal_disp.c **** }
 1294              		.loc 1 391 5 is_stmt 1 view .LVU366
 1295 0014 1968     		ldr	r1, [r3]
 1296 0016 1846     		mov	r0, r3
 391:lvgl/src/hal/lv_hal_disp.c **** }
 1297              		.loc 1 391 5 is_stmt 0 view .LVU367
 1298 0018 FFF7FEFF 		bl	lv_disp_drv_update
 1299              	.LVL115:
 1300              	.L89:
 392:lvgl/src/hal/lv_hal_disp.c **** 
 1301              		.loc 1 392 1 view .LVU368
 1302 001c 10BD     		pop	{r4, pc}
 1303              	.LVL116:
 1304              	.L93:
 387:lvgl/src/hal/lv_hal_disp.c ****     if(disp == NULL) return;
 1305              		.loc 1 387 22 is_stmt 1 discriminator 1 view .LVU369
 387:lvgl/src/hal/lv_hal_disp.c ****     if(disp == NULL) return;
 1306              		.loc 1 387 29 is_stmt 0 discriminator 1 view .LVU370
 1307 001e FFF7FEFF 		bl	lv_disp_get_default
 1308              	.LVL117:
 387:lvgl/src/hal/lv_hal_disp.c ****     if(disp == NULL) return;
 1309              		.loc 1 387 29 discriminator 1 view .LVU371
 1310 0022 0346     		mov	r3, r0
 1311              	.LVL118:
 387:lvgl/src/hal/lv_hal_disp.c ****     if(disp == NULL) return;
 1312              		.loc 1 387 29 discriminator 1 view .LVU372
 1313 0024 F0E7     		b	.L90
 1314              		.cfi_endproc
 1315              	.LFE162:
 1317              		.section	.text.lv_disp_get_rotation,"ax",%progbits
 1318              		.align	1
 1319              		.global	lv_disp_get_rotation
 1320              		.syntax unified
 1321              		.thumb
 1322              		.thumb_func
 1324              	lv_disp_get_rotation:
 1325              	.LVL119:
 1326              	.LFB163:
 400:lvgl/src/hal/lv_hal_disp.c ****     if(disp == NULL) disp = lv_disp_get_default();
 1327              		.loc 1 400 1 is_stmt 1 view -0
 1328              		.cfi_startproc
 1329              		@ args = 0, pretend = 0, frame = 0
 1330              		@ frame_needed = 0, uses_anonymous_args = 0
 400:lvgl/src/hal/lv_hal_disp.c ****     if(disp == NULL) disp = lv_disp_get_default();
 1331              		.loc 1 400 1 is_stmt 0 view .LVU374
 1332 0000 08B5     		push	{r3, lr}
 1333              	.LCFI17:
 1334              		.cfi_def_cfa_offset 8
 1335              		.cfi_offset 3, -8
 1336              		.cfi_offset 14, -4
 401:lvgl/src/hal/lv_hal_disp.c ****     if(disp == NULL) return LV_DISP_ROT_NONE;
 1337              		.loc 1 401 5 is_stmt 1 view .LVU375
 401:lvgl/src/hal/lv_hal_disp.c ****     if(disp == NULL) return LV_DISP_ROT_NONE;
 1338              		.loc 1 401 7 is_stmt 0 view .LVU376
 1339 0002 0346     		mov	r3, r0
 1340 0004 28B1     		cbz	r0, .L99
ARM GAS  C:\Users\BLACK_~1\AppData\Local\Temp\ccSDhoe1.s 			page 51


 1341              	.L95:
 402:lvgl/src/hal/lv_hal_disp.c ****     return disp->driver->rotated;
 1342              		.loc 1 402 5 is_stmt 1 view .LVU377
 402:lvgl/src/hal/lv_hal_disp.c ****     return disp->driver->rotated;
 1343              		.loc 1 402 7 is_stmt 0 view .LVU378
 1344 0006 43B1     		cbz	r3, .L97
 403:lvgl/src/hal/lv_hal_disp.c **** }
 1345              		.loc 1 403 5 is_stmt 1 view .LVU379
 403:lvgl/src/hal/lv_hal_disp.c **** }
 1346              		.loc 1 403 16 is_stmt 0 view .LVU380
 1347 0008 1B68     		ldr	r3, [r3]
 403:lvgl/src/hal/lv_hal_disp.c **** }
 1348              		.loc 1 403 24 view .LVU381
 1349 000a 187A     		ldrb	r0, [r3, #8]	@ zero_extendqisi2
 1350              	.LVL120:
 403:lvgl/src/hal/lv_hal_disp.c **** }
 1351              		.loc 1 403 24 view .LVU382
 1352 000c C0F3C100 		ubfx	r0, r0, #3, #2
 1353              	.L96:
 404:lvgl/src/hal/lv_hal_disp.c **** 
 1354              		.loc 1 404 1 view .LVU383
 1355 0010 08BD     		pop	{r3, pc}
 1356              	.LVL121:
 1357              	.L99:
 401:lvgl/src/hal/lv_hal_disp.c ****     if(disp == NULL) return LV_DISP_ROT_NONE;
 1358              		.loc 1 401 22 is_stmt 1 discriminator 1 view .LVU384
 401:lvgl/src/hal/lv_hal_disp.c ****     if(disp == NULL) return LV_DISP_ROT_NONE;
 1359              		.loc 1 401 29 is_stmt 0 discriminator 1 view .LVU385
 1360 0012 FFF7FEFF 		bl	lv_disp_get_default
 1361              	.LVL122:
 401:lvgl/src/hal/lv_hal_disp.c ****     if(disp == NULL) return LV_DISP_ROT_NONE;
 1362              		.loc 1 401 29 discriminator 1 view .LVU386
 1363 0016 0346     		mov	r3, r0
 1364              	.LVL123:
 401:lvgl/src/hal/lv_hal_disp.c ****     if(disp == NULL) return LV_DISP_ROT_NONE;
 1365              		.loc 1 401 29 discriminator 1 view .LVU387
 1366 0018 F5E7     		b	.L95
 1367              	.L97:
 402:lvgl/src/hal/lv_hal_disp.c ****     return disp->driver->rotated;
 1368              		.loc 1 402 29 view .LVU388
 1369 001a 0020     		movs	r0, #0
 1370              	.LVL124:
 402:lvgl/src/hal/lv_hal_disp.c ****     return disp->driver->rotated;
 1371              		.loc 1 402 29 view .LVU389
 1372 001c F8E7     		b	.L96
 1373              		.cfi_endproc
 1374              	.LFE163:
 1376              		.section	.bss.disp_def,"aw",%nobits
 1377              		.align	2
 1378              		.set	.LANCHOR0,. + 0
 1381              	disp_def:
 1382 0000 00000000 		.space	4
 1383              		.text
 1384              	.Letext0:
 1385              		.file 4 "e:\\gnu arm embedded toolchain\\10 2021.10\\arm-none-eabi\\include\\machine\\_default_typ
 1386              		.file 5 "e:\\gnu arm embedded toolchain\\10 2021.10\\arm-none-eabi\\include\\sys\\_stdint.h"
 1387              		.file 6 "lvgl/src/hal/../misc/lv_area.h"
ARM GAS  C:\Users\BLACK_~1\AppData\Local\Temp\ccSDhoe1.s 			page 52


 1388              		.file 7 "lvgl/src/hal/../misc/lv_ll.h"
 1389              		.file 8 "lvgl/src/hal/../misc/lv_timer.h"
 1390              		.file 9 "lvgl/src/hal/lv_hal_disp.h"
 1391              		.file 10 "lvgl/src/hal/../core/lv_theme.h"
 1392              		.file 11 "lvgl/src/hal/../core/lv_obj.h"
 1393              		.file 12 "lvgl/src/hal/lv_hal_indev.h"
 1394              		.file 13 "lvgl/src/hal/../core/lv_group.h"
 1395              		.file 14 "lvgl/src/hal/../core/../misc/../font/lv_font.h"
 1396              		.file 15 "lvgl/src/hal/../misc/lv_gc.h"
 1397              		.file 16 "lvgl/src/hal/../core/../misc/lv_style.h"
 1398              		.file 17 "lvgl/src/hal/../core/lv_obj_tree.h"
 1399              		.file 18 "lvgl/src/hal/../core/lv_obj_scroll.h"
 1400              		.file 19 "lvgl/src/hal/../core/lv_obj_class.h"
 1401              		.file 20 "lvgl/src/hal/../core/lv_event.h"
 1402              		.file 21 "lvgl/src/hal/../misc/../core/lv_obj_pos.h"
 1403              		.file 22 "lvgl/src/hal/../misc/lv_mem.h"
 1404              		.file 23 "lvgl/src/hal/../extra/themes/default/lv_theme_default.h"
ARM GAS  C:\Users\BLACK_~1\AppData\Local\Temp\ccSDhoe1.s 			page 53

