ARM GAS  /var/folders/k2/cd9bl_j17z77g23y6ffqb_400000gn/T//ccffY0Qv.s 			page 1


   1              		.cpu cortex-m4
   2              		.eabi_attribute 27, 1
   3              		.eabi_attribute 28, 1
   4              		.eabi_attribute 20, 1
   5              		.eabi_attribute 21, 1
   6              		.eabi_attribute 23, 3
   7              		.eabi_attribute 24, 1
   8              		.eabi_attribute 25, 1
   9              		.eabi_attribute 26, 1
  10              		.eabi_attribute 30, 1
  11              		.eabi_attribute 34, 1
  12              		.eabi_attribute 18, 4
  13              		.file	"lv_led.c"
  14              		.text
  15              	.Ltext0:
  16              		.cfi_sections	.debug_frame
  17              		.section	.text.lv_led_constructor,"ax",%progbits
  18              		.align	1
  19              		.arch armv7e-m
  20              		.syntax unified
  21              		.thumb
  22              		.thumb_func
  23              		.fpu fpv4-sp-d16
  25              	lv_led_constructor:
  26              	.LVL0:
  27              	.LFB191:
  28              		.file 1 "lvgl/src/extra/widgets/led/lv_led.c"
   1:lvgl/src/extra/widgets/led/lv_led.c **** /**
   2:lvgl/src/extra/widgets/led/lv_led.c ****  * @file lv_led.c
   3:lvgl/src/extra/widgets/led/lv_led.c ****  *
   4:lvgl/src/extra/widgets/led/lv_led.c ****  */
   5:lvgl/src/extra/widgets/led/lv_led.c **** 
   6:lvgl/src/extra/widgets/led/lv_led.c **** /*********************
   7:lvgl/src/extra/widgets/led/lv_led.c ****  *      INCLUDES
   8:lvgl/src/extra/widgets/led/lv_led.c ****  *********************/
   9:lvgl/src/extra/widgets/led/lv_led.c **** #include "lv_led.h"
  10:lvgl/src/extra/widgets/led/lv_led.c **** #if LV_USE_LED
  11:lvgl/src/extra/widgets/led/lv_led.c **** 
  12:lvgl/src/extra/widgets/led/lv_led.c **** /*********************
  13:lvgl/src/extra/widgets/led/lv_led.c ****  *      DEFINES
  14:lvgl/src/extra/widgets/led/lv_led.c ****  *********************/
  15:lvgl/src/extra/widgets/led/lv_led.c **** #define MY_CLASS &lv_led_class
  16:lvgl/src/extra/widgets/led/lv_led.c **** 
  17:lvgl/src/extra/widgets/led/lv_led.c **** #ifndef LV_LED_BRIGHT_MIN
  18:lvgl/src/extra/widgets/led/lv_led.c **** # define LV_LED_BRIGHT_MIN 80
  19:lvgl/src/extra/widgets/led/lv_led.c **** #endif
  20:lvgl/src/extra/widgets/led/lv_led.c **** 
  21:lvgl/src/extra/widgets/led/lv_led.c **** #ifndef LV_LED_BRIGHT_MAX
  22:lvgl/src/extra/widgets/led/lv_led.c **** # define LV_LED_BRIGHT_MAX 255
  23:lvgl/src/extra/widgets/led/lv_led.c **** #endif
  24:lvgl/src/extra/widgets/led/lv_led.c **** 
  25:lvgl/src/extra/widgets/led/lv_led.c **** /**********************
  26:lvgl/src/extra/widgets/led/lv_led.c ****  *      TYPEDEFS
  27:lvgl/src/extra/widgets/led/lv_led.c ****  **********************/
  28:lvgl/src/extra/widgets/led/lv_led.c **** 
  29:lvgl/src/extra/widgets/led/lv_led.c **** /**********************
  30:lvgl/src/extra/widgets/led/lv_led.c ****  *  STATIC PROTOTYPES
ARM GAS  /var/folders/k2/cd9bl_j17z77g23y6ffqb_400000gn/T//ccffY0Qv.s 			page 2


  31:lvgl/src/extra/widgets/led/lv_led.c ****  **********************/
  32:lvgl/src/extra/widgets/led/lv_led.c **** static void lv_led_constructor(const lv_obj_class_t * class_p, lv_obj_t * obj);
  33:lvgl/src/extra/widgets/led/lv_led.c **** static void lv_led_event(const lv_obj_class_t * class_p, lv_event_t * e);
  34:lvgl/src/extra/widgets/led/lv_led.c **** 
  35:lvgl/src/extra/widgets/led/lv_led.c **** /**********************
  36:lvgl/src/extra/widgets/led/lv_led.c ****  *  STATIC VARIABLES
  37:lvgl/src/extra/widgets/led/lv_led.c ****  **********************/
  38:lvgl/src/extra/widgets/led/lv_led.c **** const lv_obj_class_t lv_led_class  = {
  39:lvgl/src/extra/widgets/led/lv_led.c ****         .base_class = &lv_obj_class,
  40:lvgl/src/extra/widgets/led/lv_led.c ****         .constructor_cb = lv_led_constructor,
  41:lvgl/src/extra/widgets/led/lv_led.c ****         .width_def = LV_DPI_DEF / 5,
  42:lvgl/src/extra/widgets/led/lv_led.c ****         .height_def = LV_DPI_DEF / 5,
  43:lvgl/src/extra/widgets/led/lv_led.c ****         .event_cb = lv_led_event,
  44:lvgl/src/extra/widgets/led/lv_led.c ****         .instance_size = sizeof(lv_led_t),
  45:lvgl/src/extra/widgets/led/lv_led.c **** };
  46:lvgl/src/extra/widgets/led/lv_led.c **** 
  47:lvgl/src/extra/widgets/led/lv_led.c **** /**********************
  48:lvgl/src/extra/widgets/led/lv_led.c ****  *      MACROS
  49:lvgl/src/extra/widgets/led/lv_led.c ****  **********************/
  50:lvgl/src/extra/widgets/led/lv_led.c **** 
  51:lvgl/src/extra/widgets/led/lv_led.c **** /**********************
  52:lvgl/src/extra/widgets/led/lv_led.c ****  *   GLOBAL FUNCTIONS
  53:lvgl/src/extra/widgets/led/lv_led.c ****  **********************/
  54:lvgl/src/extra/widgets/led/lv_led.c **** 
  55:lvgl/src/extra/widgets/led/lv_led.c **** /**
  56:lvgl/src/extra/widgets/led/lv_led.c ****  * Create a led objects
  57:lvgl/src/extra/widgets/led/lv_led.c ****  * @param par pointer to an object, it will be the parent of the new led
  58:lvgl/src/extra/widgets/led/lv_led.c ****  * @return pointer to the created led
  59:lvgl/src/extra/widgets/led/lv_led.c ****  */
  60:lvgl/src/extra/widgets/led/lv_led.c **** lv_obj_t * lv_led_create(lv_obj_t * parent)
  61:lvgl/src/extra/widgets/led/lv_led.c **** {
  62:lvgl/src/extra/widgets/led/lv_led.c ****     LV_LOG_INFO("begin")
  63:lvgl/src/extra/widgets/led/lv_led.c ****     lv_obj_t * obj = lv_obj_class_create_obj(MY_CLASS, parent);
  64:lvgl/src/extra/widgets/led/lv_led.c ****     lv_obj_class_init_obj(obj);
  65:lvgl/src/extra/widgets/led/lv_led.c ****     return obj;
  66:lvgl/src/extra/widgets/led/lv_led.c **** }
  67:lvgl/src/extra/widgets/led/lv_led.c **** 
  68:lvgl/src/extra/widgets/led/lv_led.c **** /*=====================
  69:lvgl/src/extra/widgets/led/lv_led.c ****  * Setter functions
  70:lvgl/src/extra/widgets/led/lv_led.c ****  *====================*/
  71:lvgl/src/extra/widgets/led/lv_led.c **** 
  72:lvgl/src/extra/widgets/led/lv_led.c **** /**
  73:lvgl/src/extra/widgets/led/lv_led.c ****  * Set the color of the LED
  74:lvgl/src/extra/widgets/led/lv_led.c ****  * @param led       pointer to a LED object
  75:lvgl/src/extra/widgets/led/lv_led.c ****  * @param color     the color of the the LED
  76:lvgl/src/extra/widgets/led/lv_led.c ****  */
  77:lvgl/src/extra/widgets/led/lv_led.c **** void lv_led_set_color(lv_obj_t * obj, lv_color_t color)
  78:lvgl/src/extra/widgets/led/lv_led.c **** {
  79:lvgl/src/extra/widgets/led/lv_led.c ****     lv_led_t * led = (lv_led_t *)obj;
  80:lvgl/src/extra/widgets/led/lv_led.c ****     led->color = color;
  81:lvgl/src/extra/widgets/led/lv_led.c ****     lv_obj_invalidate(obj);
  82:lvgl/src/extra/widgets/led/lv_led.c **** }
  83:lvgl/src/extra/widgets/led/lv_led.c **** 
  84:lvgl/src/extra/widgets/led/lv_led.c **** /**
  85:lvgl/src/extra/widgets/led/lv_led.c ****  * Set the brightness of a LED object
  86:lvgl/src/extra/widgets/led/lv_led.c ****  * @param led pointer to a LED object
  87:lvgl/src/extra/widgets/led/lv_led.c ****  * @param bright LV_LED_BRIGHT_MIN (max. dark) ... LV_LED_BRIGHT_MAX (max. light)
ARM GAS  /var/folders/k2/cd9bl_j17z77g23y6ffqb_400000gn/T//ccffY0Qv.s 			page 3


  88:lvgl/src/extra/widgets/led/lv_led.c ****  */
  89:lvgl/src/extra/widgets/led/lv_led.c **** void lv_led_set_brightness(lv_obj_t * obj, uint8_t bright)
  90:lvgl/src/extra/widgets/led/lv_led.c **** {
  91:lvgl/src/extra/widgets/led/lv_led.c ****     lv_led_t * led = (lv_led_t *)obj;
  92:lvgl/src/extra/widgets/led/lv_led.c ****     if(led->bright == bright) return;
  93:lvgl/src/extra/widgets/led/lv_led.c **** 
  94:lvgl/src/extra/widgets/led/lv_led.c ****     if(bright <= LV_LED_BRIGHT_MIN) bright = LV_LED_BRIGHT_MIN;
  95:lvgl/src/extra/widgets/led/lv_led.c ****     if(bright >= LV_LED_BRIGHT_MAX) bright = LV_LED_BRIGHT_MAX;
  96:lvgl/src/extra/widgets/led/lv_led.c **** 
  97:lvgl/src/extra/widgets/led/lv_led.c ****     led->bright = bright;
  98:lvgl/src/extra/widgets/led/lv_led.c **** 
  99:lvgl/src/extra/widgets/led/lv_led.c ****     /*Invalidate the object there fore it will be redrawn*/
 100:lvgl/src/extra/widgets/led/lv_led.c ****     lv_obj_invalidate(obj);
 101:lvgl/src/extra/widgets/led/lv_led.c **** }
 102:lvgl/src/extra/widgets/led/lv_led.c **** 
 103:lvgl/src/extra/widgets/led/lv_led.c **** /**
 104:lvgl/src/extra/widgets/led/lv_led.c ****  * Light on a LED
 105:lvgl/src/extra/widgets/led/lv_led.c ****  * @param led pointer to a LED object
 106:lvgl/src/extra/widgets/led/lv_led.c ****  */
 107:lvgl/src/extra/widgets/led/lv_led.c **** void lv_led_on(lv_obj_t * led)
 108:lvgl/src/extra/widgets/led/lv_led.c **** {
 109:lvgl/src/extra/widgets/led/lv_led.c ****     lv_led_set_brightness(led, LV_LED_BRIGHT_MAX);
 110:lvgl/src/extra/widgets/led/lv_led.c **** }
 111:lvgl/src/extra/widgets/led/lv_led.c **** 
 112:lvgl/src/extra/widgets/led/lv_led.c **** /**
 113:lvgl/src/extra/widgets/led/lv_led.c ****  * Light off a LED
 114:lvgl/src/extra/widgets/led/lv_led.c ****  * @param led pointer to a LED object
 115:lvgl/src/extra/widgets/led/lv_led.c ****  */
 116:lvgl/src/extra/widgets/led/lv_led.c **** void lv_led_off(lv_obj_t * led)
 117:lvgl/src/extra/widgets/led/lv_led.c **** {
 118:lvgl/src/extra/widgets/led/lv_led.c ****     lv_led_set_brightness(led, LV_LED_BRIGHT_MIN);
 119:lvgl/src/extra/widgets/led/lv_led.c **** }
 120:lvgl/src/extra/widgets/led/lv_led.c **** 
 121:lvgl/src/extra/widgets/led/lv_led.c **** /**
 122:lvgl/src/extra/widgets/led/lv_led.c ****  * Toggle the state of a LED
 123:lvgl/src/extra/widgets/led/lv_led.c ****  * @param led pointer to a LED object
 124:lvgl/src/extra/widgets/led/lv_led.c ****  */
 125:lvgl/src/extra/widgets/led/lv_led.c **** void lv_led_toggle(lv_obj_t * obj)
 126:lvgl/src/extra/widgets/led/lv_led.c **** {
 127:lvgl/src/extra/widgets/led/lv_led.c ****     uint8_t bright = lv_led_get_brightness(obj);
 128:lvgl/src/extra/widgets/led/lv_led.c ****     if(bright > (LV_LED_BRIGHT_MIN + LV_LED_BRIGHT_MAX) >> 1)
 129:lvgl/src/extra/widgets/led/lv_led.c ****         lv_led_off(obj);
 130:lvgl/src/extra/widgets/led/lv_led.c ****     else
 131:lvgl/src/extra/widgets/led/lv_led.c ****         lv_led_on(obj);
 132:lvgl/src/extra/widgets/led/lv_led.c **** }
 133:lvgl/src/extra/widgets/led/lv_led.c **** 
 134:lvgl/src/extra/widgets/led/lv_led.c **** /*=====================
 135:lvgl/src/extra/widgets/led/lv_led.c ****  * Getter functions
 136:lvgl/src/extra/widgets/led/lv_led.c ****  *====================*/
 137:lvgl/src/extra/widgets/led/lv_led.c **** 
 138:lvgl/src/extra/widgets/led/lv_led.c **** /**
 139:lvgl/src/extra/widgets/led/lv_led.c ****  * Get the brightness of a LEd object
 140:lvgl/src/extra/widgets/led/lv_led.c ****  * @param led pointer to LED object
 141:lvgl/src/extra/widgets/led/lv_led.c ****  * @return bright 0 (max. dark) ... 255 (max. light)
 142:lvgl/src/extra/widgets/led/lv_led.c ****  */
 143:lvgl/src/extra/widgets/led/lv_led.c **** uint8_t lv_led_get_brightness(const lv_obj_t * obj)
 144:lvgl/src/extra/widgets/led/lv_led.c **** {
ARM GAS  /var/folders/k2/cd9bl_j17z77g23y6ffqb_400000gn/T//ccffY0Qv.s 			page 4


 145:lvgl/src/extra/widgets/led/lv_led.c ****     lv_led_t * led = (lv_led_t *)obj;
 146:lvgl/src/extra/widgets/led/lv_led.c ****     return led->bright;
 147:lvgl/src/extra/widgets/led/lv_led.c **** }
 148:lvgl/src/extra/widgets/led/lv_led.c **** 
 149:lvgl/src/extra/widgets/led/lv_led.c **** /**********************
 150:lvgl/src/extra/widgets/led/lv_led.c ****  *   STATIC FUNCTIONS
 151:lvgl/src/extra/widgets/led/lv_led.c ****  **********************/
 152:lvgl/src/extra/widgets/led/lv_led.c **** 
 153:lvgl/src/extra/widgets/led/lv_led.c **** static void lv_led_constructor(const lv_obj_class_t * class_p, lv_obj_t * obj)
 154:lvgl/src/extra/widgets/led/lv_led.c **** {
  29              		.loc 1 154 1 view -0
  30              		.cfi_startproc
  31              		@ args = 0, pretend = 0, frame = 0
  32              		@ frame_needed = 0, uses_anonymous_args = 0
  33              		.loc 1 154 1 is_stmt 0 view .LVU1
  34 0000 10B5     		push	{r4, lr}
  35              	.LCFI0:
  36              		.cfi_def_cfa_offset 8
  37              		.cfi_offset 4, -8
  38              		.cfi_offset 14, -4
  39 0002 0C46     		mov	r4, r1
 155:lvgl/src/extra/widgets/led/lv_led.c ****     LV_UNUSED(class_p);
  40              		.loc 1 155 5 is_stmt 1 view .LVU2
 156:lvgl/src/extra/widgets/led/lv_led.c ****     lv_led_t * led = (lv_led_t *)obj;
  41              		.loc 1 156 5 view .LVU3
  42              	.LVL1:
 157:lvgl/src/extra/widgets/led/lv_led.c ****     led->color = lv_theme_get_color_primary(obj);
  43              		.loc 1 157 5 view .LVU4
  44              		.loc 1 157 18 is_stmt 0 view .LVU5
  45 0004 0846     		mov	r0, r1
  46              	.LVL2:
  47              		.loc 1 157 18 view .LVU6
  48 0006 FFF7FEFF 		bl	lv_theme_get_color_primary
  49              	.LVL3:
  50              		.loc 1 157 18 view .LVU7
  51 000a 6062     		str	r0, [r4, #36]
 158:lvgl/src/extra/widgets/led/lv_led.c ****     led->bright = LV_LED_BRIGHT_MAX;
  52              		.loc 1 158 5 is_stmt 1 view .LVU8
  53              		.loc 1 158 17 is_stmt 0 view .LVU9
  54 000c FF23     		movs	r3, #255
  55 000e 84F82830 		strb	r3, [r4, #40]
 159:lvgl/src/extra/widgets/led/lv_led.c **** }
  56              		.loc 1 159 1 view .LVU10
  57 0012 10BD     		pop	{r4, pc}
  58              		.loc 1 159 1 view .LVU11
  59              		.cfi_endproc
  60              	.LFE191:
  62              		.section	.text.lv_led_event,"ax",%progbits
  63              		.align	1
  64              		.syntax unified
  65              		.thumb
  66              		.thumb_func
  67              		.fpu fpv4-sp-d16
  69              	lv_led_event:
  70              	.LVL4:
  71              	.LFB192:
 160:lvgl/src/extra/widgets/led/lv_led.c **** 
ARM GAS  /var/folders/k2/cd9bl_j17z77g23y6ffqb_400000gn/T//ccffY0Qv.s 			page 5


 161:lvgl/src/extra/widgets/led/lv_led.c **** static void lv_led_event(const lv_obj_class_t * class_p, lv_event_t * e)
 162:lvgl/src/extra/widgets/led/lv_led.c **** {
  72              		.loc 1 162 1 is_stmt 1 view -0
  73              		.cfi_startproc
  74              		@ args = 0, pretend = 0, frame = 72
  75              		@ frame_needed = 0, uses_anonymous_args = 0
  76              		.loc 1 162 1 is_stmt 0 view .LVU13
  77 0000 2DE9F047 		push	{r4, r5, r6, r7, r8, r9, r10, lr}
  78              	.LCFI1:
  79              		.cfi_def_cfa_offset 32
  80              		.cfi_offset 4, -32
  81              		.cfi_offset 5, -28
  82              		.cfi_offset 6, -24
  83              		.cfi_offset 7, -20
  84              		.cfi_offset 8, -16
  85              		.cfi_offset 9, -12
  86              		.cfi_offset 10, -8
  87              		.cfi_offset 14, -4
  88 0004 92B0     		sub	sp, sp, #72
  89              	.LCFI2:
  90              		.cfi_def_cfa_offset 104
  91 0006 0C46     		mov	r4, r1
 163:lvgl/src/extra/widgets/led/lv_led.c ****     LV_UNUSED(class_p);
  92              		.loc 1 163 5 is_stmt 1 view .LVU14
 164:lvgl/src/extra/widgets/led/lv_led.c **** 
 165:lvgl/src/extra/widgets/led/lv_led.c ****     lv_res_t res;
  93              		.loc 1 165 5 view .LVU15
 166:lvgl/src/extra/widgets/led/lv_led.c **** 
 167:lvgl/src/extra/widgets/led/lv_led.c ****     /* Call the ancestor's event handler */
 168:lvgl/src/extra/widgets/led/lv_led.c ****     res = lv_obj_event_base(MY_CLASS, e);
  94              		.loc 1 168 5 view .LVU16
  95              		.loc 1 168 11 is_stmt 0 view .LVU17
  96 0008 0348     		ldr	r0, .L7
  97              	.LVL5:
  98              		.loc 1 168 11 view .LVU18
  99 000a FFF7FEFF 		bl	lv_obj_event_base
 100              	.LVL6:
 169:lvgl/src/extra/widgets/led/lv_led.c ****     if(res != LV_RES_OK) return;
 101              		.loc 1 169 5 is_stmt 1 view .LVU19
 102              		.loc 1 169 7 is_stmt 0 view .LVU20
 103 000e 0128     		cmp	r0, #1
 104 0010 04D0     		beq	.L6
 105              	.LVL7:
 106              	.L3:
 170:lvgl/src/extra/widgets/led/lv_led.c **** 
 171:lvgl/src/extra/widgets/led/lv_led.c ****     lv_event_code_t code = lv_event_get_code(e);
 172:lvgl/src/extra/widgets/led/lv_led.c ****     lv_obj_t * obj = lv_event_get_target(e);
 173:lvgl/src/extra/widgets/led/lv_led.c ****     if(code == LV_EVENT_DRAW_MAIN) {
 174:lvgl/src/extra/widgets/led/lv_led.c ****         /*Make darker colors in a temporary style according to the brightness*/
 175:lvgl/src/extra/widgets/led/lv_led.c ****         lv_led_t * led = (lv_led_t *)obj;
 176:lvgl/src/extra/widgets/led/lv_led.c **** 
 177:lvgl/src/extra/widgets/led/lv_led.c ****         lv_draw_rect_dsc_t rect_dsc;
 178:lvgl/src/extra/widgets/led/lv_led.c ****         lv_draw_rect_dsc_init(&rect_dsc);
 179:lvgl/src/extra/widgets/led/lv_led.c ****         lv_obj_init_draw_rect_dsc(obj, LV_PART_MAIN, &rect_dsc);
 180:lvgl/src/extra/widgets/led/lv_led.c **** 
 181:lvgl/src/extra/widgets/led/lv_led.c ****         /*Use the original colors brightness to modify color->led*/
 182:lvgl/src/extra/widgets/led/lv_led.c ****         rect_dsc.bg_color = lv_color_mix(led->color, lv_color_black(), lv_color_brightness(rect_dsc
ARM GAS  /var/folders/k2/cd9bl_j17z77g23y6ffqb_400000gn/T//ccffY0Qv.s 			page 6


 183:lvgl/src/extra/widgets/led/lv_led.c ****         rect_dsc.bg_grad_color = lv_color_mix(led->color, lv_color_black(), lv_color_brightness(rec
 184:lvgl/src/extra/widgets/led/lv_led.c ****         rect_dsc.shadow_color = lv_color_mix(led->color, lv_color_black(), lv_color_brightness(rect
 185:lvgl/src/extra/widgets/led/lv_led.c ****         rect_dsc.border_color = lv_color_mix(led->color, lv_color_black(), lv_color_brightness(rect
 186:lvgl/src/extra/widgets/led/lv_led.c ****         rect_dsc.outline_color = lv_color_mix(led->color, lv_color_black(), lv_color_brightness(rec
 187:lvgl/src/extra/widgets/led/lv_led.c **** 
 188:lvgl/src/extra/widgets/led/lv_led.c ****         /*Mix. the color with black proportionally with brightness*/
 189:lvgl/src/extra/widgets/led/lv_led.c ****         rect_dsc.bg_color   = lv_color_mix(rect_dsc.bg_color, lv_color_black(), led->bright);
 190:lvgl/src/extra/widgets/led/lv_led.c ****         rect_dsc.bg_grad_color   = lv_color_mix(rect_dsc.bg_grad_color, lv_color_black(), led->brig
 191:lvgl/src/extra/widgets/led/lv_led.c ****         rect_dsc.border_color = lv_color_mix(rect_dsc.border_color, lv_color_black(), led->bright);
 192:lvgl/src/extra/widgets/led/lv_led.c ****         rect_dsc.shadow_color = lv_color_mix(rect_dsc.shadow_color, lv_color_black(), led->bright);
 193:lvgl/src/extra/widgets/led/lv_led.c ****         rect_dsc.outline_color = lv_color_mix(rect_dsc.outline_color, lv_color_black(), led->bright
 194:lvgl/src/extra/widgets/led/lv_led.c **** 
 195:lvgl/src/extra/widgets/led/lv_led.c ****         /*Set the current shadow width according to brightness proportionally between LV_LED_BRIGHT
 196:lvgl/src/extra/widgets/led/lv_led.c ****          * and LV_LED_BRIGHT_ON*/
 197:lvgl/src/extra/widgets/led/lv_led.c ****         rect_dsc.shadow_width = ((led->bright - LV_LED_BRIGHT_MIN) * rect_dsc.shadow_width) /
 198:lvgl/src/extra/widgets/led/lv_led.c ****                 (LV_LED_BRIGHT_MAX - LV_LED_BRIGHT_MIN);
 199:lvgl/src/extra/widgets/led/lv_led.c ****         rect_dsc.shadow_spread = ((led->bright - LV_LED_BRIGHT_MIN) * rect_dsc.shadow_spread) /
 200:lvgl/src/extra/widgets/led/lv_led.c ****                 (LV_LED_BRIGHT_MAX - LV_LED_BRIGHT_MIN);
 201:lvgl/src/extra/widgets/led/lv_led.c **** 
 202:lvgl/src/extra/widgets/led/lv_led.c ****         const lv_area_t * clip_area = lv_event_get_param(e);
 203:lvgl/src/extra/widgets/led/lv_led.c ****         lv_draw_rect(&obj->coords, clip_area, &rect_dsc);
 204:lvgl/src/extra/widgets/led/lv_led.c ****     }
 205:lvgl/src/extra/widgets/led/lv_led.c **** }
 107              		.loc 1 205 1 view .LVU21
 108 0012 12B0     		add	sp, sp, #72
 109              	.LCFI3:
 110              		.cfi_remember_state
 111              		.cfi_def_cfa_offset 32
 112              		@ sp needed
 113 0014 BDE8F087 		pop	{r4, r5, r6, r7, r8, r9, r10, pc}
 114              	.LVL8:
 115              	.L8:
 116              		.loc 1 205 1 view .LVU22
 117              		.align	2
 118              	.L7:
 119 0018 00000000 		.word	.LANCHOR0
 120              	.LVL9:
 121              	.L6:
 122              	.LCFI4:
 123              		.cfi_restore_state
 171:lvgl/src/extra/widgets/led/lv_led.c ****     lv_obj_t * obj = lv_event_get_target(e);
 124              		.loc 1 171 5 is_stmt 1 view .LVU23
 171:lvgl/src/extra/widgets/led/lv_led.c ****     lv_obj_t * obj = lv_event_get_target(e);
 125              		.loc 1 171 28 is_stmt 0 view .LVU24
 126 001c 2046     		mov	r0, r4
 127              	.LVL10:
 171:lvgl/src/extra/widgets/led/lv_led.c ****     lv_obj_t * obj = lv_event_get_target(e);
 128              		.loc 1 171 28 view .LVU25
 129 001e FFF7FEFF 		bl	lv_event_get_code
 130              	.LVL11:
 131 0022 0646     		mov	r6, r0
 132              	.LVL12:
 172:lvgl/src/extra/widgets/led/lv_led.c ****     if(code == LV_EVENT_DRAW_MAIN) {
 133              		.loc 1 172 5 is_stmt 1 view .LVU26
 172:lvgl/src/extra/widgets/led/lv_led.c ****     if(code == LV_EVENT_DRAW_MAIN) {
 134              		.loc 1 172 22 is_stmt 0 view .LVU27
 135 0024 2046     		mov	r0, r4
ARM GAS  /var/folders/k2/cd9bl_j17z77g23y6ffqb_400000gn/T//ccffY0Qv.s 			page 7


 136 0026 FFF7FEFF 		bl	lv_event_get_target
 137              	.LVL13:
 138 002a 0546     		mov	r5, r0
 139              	.LVL14:
 173:lvgl/src/extra/widgets/led/lv_led.c ****         /*Make darker colors in a temporary style according to the brightness*/
 140              		.loc 1 173 5 is_stmt 1 view .LVU28
 173:lvgl/src/extra/widgets/led/lv_led.c ****         /*Make darker colors in a temporary style according to the brightness*/
 141              		.loc 1 173 7 is_stmt 0 view .LVU29
 142 002c 152E     		cmp	r6, #21
 143 002e F0D1     		bne	.L3
 144              	.LBB138:
 175:lvgl/src/extra/widgets/led/lv_led.c **** 
 145              		.loc 1 175 9 is_stmt 1 view .LVU30
 146              	.LVL15:
 177:lvgl/src/extra/widgets/led/lv_led.c ****         lv_draw_rect_dsc_init(&rect_dsc);
 147              		.loc 1 177 9 view .LVU31
 178:lvgl/src/extra/widgets/led/lv_led.c ****         lv_obj_init_draw_rect_dsc(obj, LV_PART_MAIN, &rect_dsc);
 148              		.loc 1 178 9 view .LVU32
 149 0030 01A8     		add	r0, sp, #4
 150              	.LVL16:
 178:lvgl/src/extra/widgets/led/lv_led.c ****         lv_obj_init_draw_rect_dsc(obj, LV_PART_MAIN, &rect_dsc);
 151              		.loc 1 178 9 is_stmt 0 view .LVU33
 152 0032 FFF7FEFF 		bl	lv_draw_rect_dsc_init
 153              	.LVL17:
 179:lvgl/src/extra/widgets/led/lv_led.c **** 
 154              		.loc 1 179 9 is_stmt 1 view .LVU34
 155 0036 01AA     		add	r2, sp, #4
 156 0038 0021     		movs	r1, #0
 157 003a 2846     		mov	r0, r5
 158 003c FFF7FEFF 		bl	lv_obj_init_draw_rect_dsc
 159              	.LVL18:
 182:lvgl/src/extra/widgets/led/lv_led.c ****         rect_dsc.bg_grad_color = lv_color_mix(led->color, lv_color_black(), lv_color_brightness(rec
 160              		.loc 1 182 9 view .LVU35
 161              	.LBB139:
 162              	.LBI139:
 163              		.file 2 "lvgl/src/extra/widgets/led/../../../../src/hal/../misc/lv_color.h"
   1:lvgl/src/extra/widgets/led/../../../../src/hal/../misc/lv_color.h **** /**
   2:lvgl/src/extra/widgets/led/../../../../src/hal/../misc/lv_color.h ****  * @file lv_color.h
   3:lvgl/src/extra/widgets/led/../../../../src/hal/../misc/lv_color.h ****  *
   4:lvgl/src/extra/widgets/led/../../../../src/hal/../misc/lv_color.h ****  */
   5:lvgl/src/extra/widgets/led/../../../../src/hal/../misc/lv_color.h **** 
   6:lvgl/src/extra/widgets/led/../../../../src/hal/../misc/lv_color.h **** #ifndef LV_COLOR_H
   7:lvgl/src/extra/widgets/led/../../../../src/hal/../misc/lv_color.h **** #define LV_COLOR_H
   8:lvgl/src/extra/widgets/led/../../../../src/hal/../misc/lv_color.h **** 
   9:lvgl/src/extra/widgets/led/../../../../src/hal/../misc/lv_color.h **** #ifdef __cplusplus
  10:lvgl/src/extra/widgets/led/../../../../src/hal/../misc/lv_color.h **** extern "C" {
  11:lvgl/src/extra/widgets/led/../../../../src/hal/../misc/lv_color.h **** #endif
  12:lvgl/src/extra/widgets/led/../../../../src/hal/../misc/lv_color.h **** 
  13:lvgl/src/extra/widgets/led/../../../../src/hal/../misc/lv_color.h **** /*********************
  14:lvgl/src/extra/widgets/led/../../../../src/hal/../misc/lv_color.h ****  *      INCLUDES
  15:lvgl/src/extra/widgets/led/../../../../src/hal/../misc/lv_color.h ****  *********************/
  16:lvgl/src/extra/widgets/led/../../../../src/hal/../misc/lv_color.h **** #include "../lv_conf_internal.h"
  17:lvgl/src/extra/widgets/led/../../../../src/hal/../misc/lv_color.h **** #include "lv_math.h"
  18:lvgl/src/extra/widgets/led/../../../../src/hal/../misc/lv_color.h **** #include "lv_types.h"
  19:lvgl/src/extra/widgets/led/../../../../src/hal/../misc/lv_color.h **** 
  20:lvgl/src/extra/widgets/led/../../../../src/hal/../misc/lv_color.h **** /*Error checking*/
  21:lvgl/src/extra/widgets/led/../../../../src/hal/../misc/lv_color.h **** #if LV_COLOR_DEPTH == 24
ARM GAS  /var/folders/k2/cd9bl_j17z77g23y6ffqb_400000gn/T//ccffY0Qv.s 			page 8


  22:lvgl/src/extra/widgets/led/../../../../src/hal/../misc/lv_color.h **** #error "LV_COLOR_DEPTH 24 is deprecated. Use LV_COLOR_DEPTH 32 instead (lv_conf.h)"
  23:lvgl/src/extra/widgets/led/../../../../src/hal/../misc/lv_color.h **** #endif
  24:lvgl/src/extra/widgets/led/../../../../src/hal/../misc/lv_color.h **** 
  25:lvgl/src/extra/widgets/led/../../../../src/hal/../misc/lv_color.h **** #if LV_COLOR_DEPTH != 32 && LV_COLOR_SCREEN_TRANSP != 0
  26:lvgl/src/extra/widgets/led/../../../../src/hal/../misc/lv_color.h **** #error "LV_COLOR_SCREEN_TRANSP requires LV_COLOR_DEPTH == 32. Set it in lv_conf.h"
  27:lvgl/src/extra/widgets/led/../../../../src/hal/../misc/lv_color.h **** #endif
  28:lvgl/src/extra/widgets/led/../../../../src/hal/../misc/lv_color.h **** 
  29:lvgl/src/extra/widgets/led/../../../../src/hal/../misc/lv_color.h **** #if LV_COLOR_DEPTH != 16 && LV_COLOR_16_SWAP != 0
  30:lvgl/src/extra/widgets/led/../../../../src/hal/../misc/lv_color.h **** #error "LV_COLOR_16_SWAP requires LV_COLOR_DEPTH == 16. Set it in lv_conf.h"
  31:lvgl/src/extra/widgets/led/../../../../src/hal/../misc/lv_color.h **** #endif
  32:lvgl/src/extra/widgets/led/../../../../src/hal/../misc/lv_color.h **** 
  33:lvgl/src/extra/widgets/led/../../../../src/hal/../misc/lv_color.h **** #include <stdint.h>
  34:lvgl/src/extra/widgets/led/../../../../src/hal/../misc/lv_color.h **** 
  35:lvgl/src/extra/widgets/led/../../../../src/hal/../misc/lv_color.h **** /*********************
  36:lvgl/src/extra/widgets/led/../../../../src/hal/../misc/lv_color.h ****  *      DEFINES
  37:lvgl/src/extra/widgets/led/../../../../src/hal/../misc/lv_color.h ****  *********************/
  38:lvgl/src/extra/widgets/led/../../../../src/hal/../misc/lv_color.h **** 
  39:lvgl/src/extra/widgets/led/../../../../src/hal/../misc/lv_color.h **** /**
  40:lvgl/src/extra/widgets/led/../../../../src/hal/../misc/lv_color.h ****  * Opacity percentages.
  41:lvgl/src/extra/widgets/led/../../../../src/hal/../misc/lv_color.h ****  */
  42:lvgl/src/extra/widgets/led/../../../../src/hal/../misc/lv_color.h **** enum {
  43:lvgl/src/extra/widgets/led/../../../../src/hal/../misc/lv_color.h ****     LV_OPA_TRANSP = 0,
  44:lvgl/src/extra/widgets/led/../../../../src/hal/../misc/lv_color.h ****     LV_OPA_0      = 0,
  45:lvgl/src/extra/widgets/led/../../../../src/hal/../misc/lv_color.h ****     LV_OPA_10     = 25,
  46:lvgl/src/extra/widgets/led/../../../../src/hal/../misc/lv_color.h ****     LV_OPA_20     = 51,
  47:lvgl/src/extra/widgets/led/../../../../src/hal/../misc/lv_color.h ****     LV_OPA_30     = 76,
  48:lvgl/src/extra/widgets/led/../../../../src/hal/../misc/lv_color.h ****     LV_OPA_40     = 102,
  49:lvgl/src/extra/widgets/led/../../../../src/hal/../misc/lv_color.h ****     LV_OPA_50     = 127,
  50:lvgl/src/extra/widgets/led/../../../../src/hal/../misc/lv_color.h ****     LV_OPA_60     = 153,
  51:lvgl/src/extra/widgets/led/../../../../src/hal/../misc/lv_color.h ****     LV_OPA_70     = 178,
  52:lvgl/src/extra/widgets/led/../../../../src/hal/../misc/lv_color.h ****     LV_OPA_80     = 204,
  53:lvgl/src/extra/widgets/led/../../../../src/hal/../misc/lv_color.h ****     LV_OPA_90     = 229,
  54:lvgl/src/extra/widgets/led/../../../../src/hal/../misc/lv_color.h ****     LV_OPA_100    = 255,
  55:lvgl/src/extra/widgets/led/../../../../src/hal/../misc/lv_color.h ****     LV_OPA_COVER  = 255,
  56:lvgl/src/extra/widgets/led/../../../../src/hal/../misc/lv_color.h **** };
  57:lvgl/src/extra/widgets/led/../../../../src/hal/../misc/lv_color.h **** 
  58:lvgl/src/extra/widgets/led/../../../../src/hal/../misc/lv_color.h **** #define LV_OPA_MIN 2    /*Opacities below this will be transparent*/
  59:lvgl/src/extra/widgets/led/../../../../src/hal/../misc/lv_color.h **** #define LV_OPA_MAX 253  /*Opacities above this will fully cover*/
  60:lvgl/src/extra/widgets/led/../../../../src/hal/../misc/lv_color.h **** 
  61:lvgl/src/extra/widgets/led/../../../../src/hal/../misc/lv_color.h **** #if LV_COLOR_DEPTH == 1
  62:lvgl/src/extra/widgets/led/../../../../src/hal/../misc/lv_color.h **** #define LV_COLOR_SIZE 8
  63:lvgl/src/extra/widgets/led/../../../../src/hal/../misc/lv_color.h **** #elif LV_COLOR_DEPTH == 8
  64:lvgl/src/extra/widgets/led/../../../../src/hal/../misc/lv_color.h **** #define LV_COLOR_SIZE 8
  65:lvgl/src/extra/widgets/led/../../../../src/hal/../misc/lv_color.h **** #elif LV_COLOR_DEPTH == 16
  66:lvgl/src/extra/widgets/led/../../../../src/hal/../misc/lv_color.h **** #define LV_COLOR_SIZE 16
  67:lvgl/src/extra/widgets/led/../../../../src/hal/../misc/lv_color.h **** #elif LV_COLOR_DEPTH == 32
  68:lvgl/src/extra/widgets/led/../../../../src/hal/../misc/lv_color.h **** #define LV_COLOR_SIZE 32
  69:lvgl/src/extra/widgets/led/../../../../src/hal/../misc/lv_color.h **** #else
  70:lvgl/src/extra/widgets/led/../../../../src/hal/../misc/lv_color.h **** #error "Invalid LV_COLOR_DEPTH in lv_conf.h! Set it to 1, 8, 16 or 32!"
  71:lvgl/src/extra/widgets/led/../../../../src/hal/../misc/lv_color.h **** #endif
  72:lvgl/src/extra/widgets/led/../../../../src/hal/../misc/lv_color.h **** 
  73:lvgl/src/extra/widgets/led/../../../../src/hal/../misc/lv_color.h **** /**
  74:lvgl/src/extra/widgets/led/../../../../src/hal/../misc/lv_color.h ****  * Adjust color mix functions rounding.
  75:lvgl/src/extra/widgets/led/../../../../src/hal/../misc/lv_color.h ****  * GPUs might calculate color mix (blending) differently.
  76:lvgl/src/extra/widgets/led/../../../../src/hal/../misc/lv_color.h ****  * Should be in range of 0..254
  77:lvgl/src/extra/widgets/led/../../../../src/hal/../misc/lv_color.h ****  * 0: no adjustment, get the integer part of the result (round down)
  78:lvgl/src/extra/widgets/led/../../../../src/hal/../misc/lv_color.h ****  * 64: round up from x.75
ARM GAS  /var/folders/k2/cd9bl_j17z77g23y6ffqb_400000gn/T//ccffY0Qv.s 			page 9


  79:lvgl/src/extra/widgets/led/../../../../src/hal/../misc/lv_color.h ****  * 128: round up from half
  80:lvgl/src/extra/widgets/led/../../../../src/hal/../misc/lv_color.h ****  * 192: round up from x.25
  81:lvgl/src/extra/widgets/led/../../../../src/hal/../misc/lv_color.h ****  * 254: round up*/
  82:lvgl/src/extra/widgets/led/../../../../src/hal/../misc/lv_color.h **** #ifndef LV_COLOR_MIX_ROUND_OFS
  83:lvgl/src/extra/widgets/led/../../../../src/hal/../misc/lv_color.h **** #if LV_COLOR_DEPTH == 32
  84:lvgl/src/extra/widgets/led/../../../../src/hal/../misc/lv_color.h **** #define LV_COLOR_MIX_ROUND_OFS 0
  85:lvgl/src/extra/widgets/led/../../../../src/hal/../misc/lv_color.h **** #else
  86:lvgl/src/extra/widgets/led/../../../../src/hal/../misc/lv_color.h **** #define LV_COLOR_MIX_ROUND_OFS 128
  87:lvgl/src/extra/widgets/led/../../../../src/hal/../misc/lv_color.h **** #endif
  88:lvgl/src/extra/widgets/led/../../../../src/hal/../misc/lv_color.h **** #endif
  89:lvgl/src/extra/widgets/led/../../../../src/hal/../misc/lv_color.h **** 
  90:lvgl/src/extra/widgets/led/../../../../src/hal/../misc/lv_color.h **** #if defined(__cplusplus) && !defined(_LV_COLOR_HAS_MODERN_CPP)
  91:lvgl/src/extra/widgets/led/../../../../src/hal/../misc/lv_color.h **** /**
  92:lvgl/src/extra/widgets/led/../../../../src/hal/../misc/lv_color.h **** * MSVC compiler's definition of the __cplusplus indicating 199711L regardless to C++ standard versi
  93:lvgl/src/extra/widgets/led/../../../../src/hal/../misc/lv_color.h **** * see https://devblogs.microsoft.com/cppblog/msvc-now-correctly-reports-cplusplus
  94:lvgl/src/extra/widgets/led/../../../../src/hal/../misc/lv_color.h **** * so we use _MSC_VER macro instead of __cplusplus
  95:lvgl/src/extra/widgets/led/../../../../src/hal/../misc/lv_color.h **** */
  96:lvgl/src/extra/widgets/led/../../../../src/hal/../misc/lv_color.h **** #ifdef _MSC_VER
  97:lvgl/src/extra/widgets/led/../../../../src/hal/../misc/lv_color.h **** #if _MSC_VER >= 1900 /*Visual Studio 2015*/
  98:lvgl/src/extra/widgets/led/../../../../src/hal/../misc/lv_color.h **** #define _LV_COLOR_HAS_MODERN_CPP 1
  99:lvgl/src/extra/widgets/led/../../../../src/hal/../misc/lv_color.h **** #endif
 100:lvgl/src/extra/widgets/led/../../../../src/hal/../misc/lv_color.h **** #else
 101:lvgl/src/extra/widgets/led/../../../../src/hal/../misc/lv_color.h **** #if __cplusplus >= 201103L
 102:lvgl/src/extra/widgets/led/../../../../src/hal/../misc/lv_color.h **** #define _LV_COLOR_HAS_MODERN_CPP 1
 103:lvgl/src/extra/widgets/led/../../../../src/hal/../misc/lv_color.h **** #endif
 104:lvgl/src/extra/widgets/led/../../../../src/hal/../misc/lv_color.h **** #endif
 105:lvgl/src/extra/widgets/led/../../../../src/hal/../misc/lv_color.h **** #endif /*__cplusplus*/
 106:lvgl/src/extra/widgets/led/../../../../src/hal/../misc/lv_color.h **** 
 107:lvgl/src/extra/widgets/led/../../../../src/hal/../misc/lv_color.h **** #ifndef _LV_COLOR_HAS_MODERN_CPP
 108:lvgl/src/extra/widgets/led/../../../../src/hal/../misc/lv_color.h **** #define _LV_COLOR_HAS_MODERN_CPP 0
 109:lvgl/src/extra/widgets/led/../../../../src/hal/../misc/lv_color.h **** #endif
 110:lvgl/src/extra/widgets/led/../../../../src/hal/../misc/lv_color.h **** 
 111:lvgl/src/extra/widgets/led/../../../../src/hal/../misc/lv_color.h **** #if _LV_COLOR_HAS_MODERN_CPP
 112:lvgl/src/extra/widgets/led/../../../../src/hal/../misc/lv_color.h **** /*Fix msvc compiler error C4576 inside C++ code*/
 113:lvgl/src/extra/widgets/led/../../../../src/hal/../misc/lv_color.h **** #define _LV_COLOR_MAKE_TYPE_HELPER lv_color_t
 114:lvgl/src/extra/widgets/led/../../../../src/hal/../misc/lv_color.h **** #else
 115:lvgl/src/extra/widgets/led/../../../../src/hal/../misc/lv_color.h **** #define _LV_COLOR_MAKE_TYPE_HELPER (lv_color_t)
 116:lvgl/src/extra/widgets/led/../../../../src/hal/../misc/lv_color.h **** #endif
 117:lvgl/src/extra/widgets/led/../../../../src/hal/../misc/lv_color.h **** 
 118:lvgl/src/extra/widgets/led/../../../../src/hal/../misc/lv_color.h **** /*---------------------------------------
 119:lvgl/src/extra/widgets/led/../../../../src/hal/../misc/lv_color.h ****  * Macros for all existing color depths
 120:lvgl/src/extra/widgets/led/../../../../src/hal/../misc/lv_color.h ****  * to set/get values of the color channels
 121:lvgl/src/extra/widgets/led/../../../../src/hal/../misc/lv_color.h ****  *------------------------------------------*/
 122:lvgl/src/extra/widgets/led/../../../../src/hal/../misc/lv_color.h **** # define LV_COLOR_SET_R1(c, v) (c).ch.red = (uint8_t)((v) & 0x1)
 123:lvgl/src/extra/widgets/led/../../../../src/hal/../misc/lv_color.h **** # define LV_COLOR_SET_G1(c, v) (c).ch.green = (uint8_t)((v) & 0x1)
 124:lvgl/src/extra/widgets/led/../../../../src/hal/../misc/lv_color.h **** # define LV_COLOR_SET_B1(c, v) (c).ch.blue = (uint8_t)((v) & 0x1)
 125:lvgl/src/extra/widgets/led/../../../../src/hal/../misc/lv_color.h **** # define LV_COLOR_SET_A1(c, v) do {} while(0)
 126:lvgl/src/extra/widgets/led/../../../../src/hal/../misc/lv_color.h **** 
 127:lvgl/src/extra/widgets/led/../../../../src/hal/../misc/lv_color.h **** # define LV_COLOR_GET_R1(c) (c).ch.red
 128:lvgl/src/extra/widgets/led/../../../../src/hal/../misc/lv_color.h **** # define LV_COLOR_GET_G1(c) (c).ch.green
 129:lvgl/src/extra/widgets/led/../../../../src/hal/../misc/lv_color.h **** # define LV_COLOR_GET_B1(c) (c).ch.blue
 130:lvgl/src/extra/widgets/led/../../../../src/hal/../misc/lv_color.h **** # define LV_COLOR_GET_A1(c) 0xFF
 131:lvgl/src/extra/widgets/led/../../../../src/hal/../misc/lv_color.h **** 
 132:lvgl/src/extra/widgets/led/../../../../src/hal/../misc/lv_color.h **** # define _LV_COLOR_ZERO_INITIALIZER1 {0x00}
 133:lvgl/src/extra/widgets/led/../../../../src/hal/../misc/lv_color.h **** # define LV_COLOR_MAKE1(r8, g8, b8)  {(uint8_t)((b8 >> 7) | (g8 >> 7) | (r8 >> 7))}
 134:lvgl/src/extra/widgets/led/../../../../src/hal/../misc/lv_color.h **** 
 135:lvgl/src/extra/widgets/led/../../../../src/hal/../misc/lv_color.h **** # define LV_COLOR_SET_R8(c, v) (c).ch.red = (uint8_t)((v) & 0x7U)
ARM GAS  /var/folders/k2/cd9bl_j17z77g23y6ffqb_400000gn/T//ccffY0Qv.s 			page 10


 136:lvgl/src/extra/widgets/led/../../../../src/hal/../misc/lv_color.h **** # define LV_COLOR_SET_G8(c, v) (c).ch.green = (uint8_t)((v) & 0x7U)
 137:lvgl/src/extra/widgets/led/../../../../src/hal/../misc/lv_color.h **** # define LV_COLOR_SET_B8(c, v) (c).ch.blue = (uint8_t)((v) & 0x3U)
 138:lvgl/src/extra/widgets/led/../../../../src/hal/../misc/lv_color.h **** # define LV_COLOR_SET_A8(c, v) do {} while(0)
 139:lvgl/src/extra/widgets/led/../../../../src/hal/../misc/lv_color.h **** 
 140:lvgl/src/extra/widgets/led/../../../../src/hal/../misc/lv_color.h **** # define LV_COLOR_GET_R8(c) (c).ch.red
 141:lvgl/src/extra/widgets/led/../../../../src/hal/../misc/lv_color.h **** # define LV_COLOR_GET_G8(c) (c).ch.green
 142:lvgl/src/extra/widgets/led/../../../../src/hal/../misc/lv_color.h **** # define LV_COLOR_GET_B8(c) (c).ch.blue
 143:lvgl/src/extra/widgets/led/../../../../src/hal/../misc/lv_color.h **** # define LV_COLOR_GET_A8(c) 0xFF
 144:lvgl/src/extra/widgets/led/../../../../src/hal/../misc/lv_color.h **** 
 145:lvgl/src/extra/widgets/led/../../../../src/hal/../misc/lv_color.h **** # define _LV_COLOR_ZERO_INITIALIZER8 {{0x00, 0x00, 0x00}}
 146:lvgl/src/extra/widgets/led/../../../../src/hal/../misc/lv_color.h **** # define LV_COLOR_MAKE8(r8, g8, b8) {{(uint8_t)((b8 >> 6) & 0x3U), (uint8_t)((g8 >> 5) & 0x7U), (ui
 147:lvgl/src/extra/widgets/led/../../../../src/hal/../misc/lv_color.h **** 
 148:lvgl/src/extra/widgets/led/../../../../src/hal/../misc/lv_color.h **** # define LV_COLOR_SET_R16(c, v) (c).ch.red = (uint8_t)((v) & 0x1FU)
 149:lvgl/src/extra/widgets/led/../../../../src/hal/../misc/lv_color.h **** #if LV_COLOR_16_SWAP == 0
 150:lvgl/src/extra/widgets/led/../../../../src/hal/../misc/lv_color.h **** # define LV_COLOR_SET_G16(c, v) (c).ch.green = (uint8_t)((v) & 0x3FU)
 151:lvgl/src/extra/widgets/led/../../../../src/hal/../misc/lv_color.h **** #else
 152:lvgl/src/extra/widgets/led/../../../../src/hal/../misc/lv_color.h **** # define LV_COLOR_SET_G16(c, v) {(c).ch.green_h = (uint8_t)(((v) >> 3) & 0x7); (c).ch.green_l = (ui
 153:lvgl/src/extra/widgets/led/../../../../src/hal/../misc/lv_color.h **** #endif
 154:lvgl/src/extra/widgets/led/../../../../src/hal/../misc/lv_color.h **** # define LV_COLOR_SET_B16(c, v) (c).ch.blue = (uint8_t)((v) & 0x1FU)
 155:lvgl/src/extra/widgets/led/../../../../src/hal/../misc/lv_color.h **** # define LV_COLOR_SET_A16(c, v) do {} while(0)
 156:lvgl/src/extra/widgets/led/../../../../src/hal/../misc/lv_color.h **** 
 157:lvgl/src/extra/widgets/led/../../../../src/hal/../misc/lv_color.h **** # define LV_COLOR_GET_R16(c) (c).ch.red
 158:lvgl/src/extra/widgets/led/../../../../src/hal/../misc/lv_color.h **** #if LV_COLOR_16_SWAP == 0
 159:lvgl/src/extra/widgets/led/../../../../src/hal/../misc/lv_color.h **** # define LV_COLOR_GET_G16(c) (c).ch.green
 160:lvgl/src/extra/widgets/led/../../../../src/hal/../misc/lv_color.h **** #else
 161:lvgl/src/extra/widgets/led/../../../../src/hal/../misc/lv_color.h **** # define LV_COLOR_GET_G16(c) (((c).ch.green_h << 3) + (c).ch.green_l)
 162:lvgl/src/extra/widgets/led/../../../../src/hal/../misc/lv_color.h **** #endif
 163:lvgl/src/extra/widgets/led/../../../../src/hal/../misc/lv_color.h **** # define LV_COLOR_GET_B16(c) (c).ch.blue
 164:lvgl/src/extra/widgets/led/../../../../src/hal/../misc/lv_color.h **** # define LV_COLOR_GET_A16(c) 0xFF
 165:lvgl/src/extra/widgets/led/../../../../src/hal/../misc/lv_color.h **** 
 166:lvgl/src/extra/widgets/led/../../../../src/hal/../misc/lv_color.h **** #if LV_COLOR_16_SWAP == 0
 167:lvgl/src/extra/widgets/led/../../../../src/hal/../misc/lv_color.h **** # define _LV_COLOR_ZERO_INITIALIZER16  {{0x00, 0x00, 0x00}}
 168:lvgl/src/extra/widgets/led/../../../../src/hal/../misc/lv_color.h **** # define LV_COLOR_MAKE16(r8, g8, b8) {{(uint8_t)((b8 >> 3) & 0x1FU), (uint8_t)((g8 >> 2) & 0x3FU), 
 169:lvgl/src/extra/widgets/led/../../../../src/hal/../misc/lv_color.h **** #else
 170:lvgl/src/extra/widgets/led/../../../../src/hal/../misc/lv_color.h **** # define _LV_COLOR_ZERO_INITIALIZER16 {{0x00, 0x00, 0x00, 0x00}}
 171:lvgl/src/extra/widgets/led/../../../../src/hal/../misc/lv_color.h **** # define LV_COLOR_MAKE16(r8, g8, b8) {{(uint8_t)((g8 >> 5) & 0x7U), (uint8_t)((r8 >> 3) & 0x1FU), (
 172:lvgl/src/extra/widgets/led/../../../../src/hal/../misc/lv_color.h **** #endif
 173:lvgl/src/extra/widgets/led/../../../../src/hal/../misc/lv_color.h **** 
 174:lvgl/src/extra/widgets/led/../../../../src/hal/../misc/lv_color.h **** # define LV_COLOR_SET_R32(c, v) (c).ch.red = (uint8_t)((v) & 0xFF)
 175:lvgl/src/extra/widgets/led/../../../../src/hal/../misc/lv_color.h **** # define LV_COLOR_SET_G32(c, v) (c).ch.green = (uint8_t)((v) & 0xFF)
 176:lvgl/src/extra/widgets/led/../../../../src/hal/../misc/lv_color.h **** # define LV_COLOR_SET_B32(c, v) (c).ch.blue = (uint8_t)((v) & 0xFF)
 177:lvgl/src/extra/widgets/led/../../../../src/hal/../misc/lv_color.h **** # define LV_COLOR_SET_A32(c, v) (c).ch.alpha = (uint8_t)((v) & 0xFF)
 178:lvgl/src/extra/widgets/led/../../../../src/hal/../misc/lv_color.h **** 
 179:lvgl/src/extra/widgets/led/../../../../src/hal/../misc/lv_color.h **** # define LV_COLOR_GET_R32(c) (c).ch.red
 180:lvgl/src/extra/widgets/led/../../../../src/hal/../misc/lv_color.h **** # define LV_COLOR_GET_G32(c) (c).ch.green
 181:lvgl/src/extra/widgets/led/../../../../src/hal/../misc/lv_color.h **** # define LV_COLOR_GET_B32(c) (c).ch.blue
 182:lvgl/src/extra/widgets/led/../../../../src/hal/../misc/lv_color.h **** # define LV_COLOR_GET_A32(c) (c).ch.alpha
 183:lvgl/src/extra/widgets/led/../../../../src/hal/../misc/lv_color.h **** 
 184:lvgl/src/extra/widgets/led/../../../../src/hal/../misc/lv_color.h **** # define _LV_COLOR_ZERO_INITIALIZER32  {{0x00, 0x00, 0x00, 0x00}}
 185:lvgl/src/extra/widgets/led/../../../../src/hal/../misc/lv_color.h **** # define LV_COLOR_MAKE32(r8, g8, b8) {{b8, g8, r8, 0xff}} /*Fix 0xff alpha*/
 186:lvgl/src/extra/widgets/led/../../../../src/hal/../misc/lv_color.h **** 
 187:lvgl/src/extra/widgets/led/../../../../src/hal/../misc/lv_color.h **** /*---------------------------------------
 188:lvgl/src/extra/widgets/led/../../../../src/hal/../misc/lv_color.h ****  * Macros for the current color depth
 189:lvgl/src/extra/widgets/led/../../../../src/hal/../misc/lv_color.h ****  * to set/get values of the color channels
 190:lvgl/src/extra/widgets/led/../../../../src/hal/../misc/lv_color.h ****  *------------------------------------------*/
 191:lvgl/src/extra/widgets/led/../../../../src/hal/../misc/lv_color.h **** #define LV_COLOR_SET_R(c, v) LV_CONCAT(LV_COLOR_SET_R, LV_COLOR_DEPTH)(c, v)
 192:lvgl/src/extra/widgets/led/../../../../src/hal/../misc/lv_color.h **** #define LV_COLOR_SET_G(c, v) LV_CONCAT(LV_COLOR_SET_G, LV_COLOR_DEPTH)(c, v)
ARM GAS  /var/folders/k2/cd9bl_j17z77g23y6ffqb_400000gn/T//ccffY0Qv.s 			page 11


 193:lvgl/src/extra/widgets/led/../../../../src/hal/../misc/lv_color.h **** #define LV_COLOR_SET_B(c, v) LV_CONCAT(LV_COLOR_SET_B, LV_COLOR_DEPTH)(c, v)
 194:lvgl/src/extra/widgets/led/../../../../src/hal/../misc/lv_color.h **** #define LV_COLOR_SET_A(c, v) LV_CONCAT(LV_COLOR_SET_A, LV_COLOR_DEPTH)(c, v)
 195:lvgl/src/extra/widgets/led/../../../../src/hal/../misc/lv_color.h **** 
 196:lvgl/src/extra/widgets/led/../../../../src/hal/../misc/lv_color.h **** #define LV_COLOR_GET_R(c) LV_CONCAT(LV_COLOR_GET_R, LV_COLOR_DEPTH)(c)
 197:lvgl/src/extra/widgets/led/../../../../src/hal/../misc/lv_color.h **** #define LV_COLOR_GET_G(c) LV_CONCAT(LV_COLOR_GET_G, LV_COLOR_DEPTH)(c)
 198:lvgl/src/extra/widgets/led/../../../../src/hal/../misc/lv_color.h **** #define LV_COLOR_GET_B(c) LV_CONCAT(LV_COLOR_GET_B, LV_COLOR_DEPTH)(c)
 199:lvgl/src/extra/widgets/led/../../../../src/hal/../misc/lv_color.h **** #define LV_COLOR_GET_A(c) LV_CONCAT(LV_COLOR_GET_A, LV_COLOR_DEPTH)(c)
 200:lvgl/src/extra/widgets/led/../../../../src/hal/../misc/lv_color.h **** 
 201:lvgl/src/extra/widgets/led/../../../../src/hal/../misc/lv_color.h **** #define _LV_COLOR_ZERO_INITIALIZER LV_CONCAT(_LV_COLOR_ZERO_INITIALIZER, LV_COLOR_DEPTH)
 202:lvgl/src/extra/widgets/led/../../../../src/hal/../misc/lv_color.h **** #define LV_COLOR_MAKE(r8, g8, b8) LV_CONCAT(LV_COLOR_MAKE, LV_COLOR_DEPTH)(r8, g8, b8)
 203:lvgl/src/extra/widgets/led/../../../../src/hal/../misc/lv_color.h **** 
 204:lvgl/src/extra/widgets/led/../../../../src/hal/../misc/lv_color.h **** #define LV_UDIV255(x) ((uint32_t)((uint32_t) (x) * 0x8081) >> 0x17)
 205:lvgl/src/extra/widgets/led/../../../../src/hal/../misc/lv_color.h **** 
 206:lvgl/src/extra/widgets/led/../../../../src/hal/../misc/lv_color.h **** /**********************
 207:lvgl/src/extra/widgets/led/../../../../src/hal/../misc/lv_color.h ****  *      TYPEDEFS
 208:lvgl/src/extra/widgets/led/../../../../src/hal/../misc/lv_color.h ****  **********************/
 209:lvgl/src/extra/widgets/led/../../../../src/hal/../misc/lv_color.h **** 
 210:lvgl/src/extra/widgets/led/../../../../src/hal/../misc/lv_color.h **** typedef union {
 211:lvgl/src/extra/widgets/led/../../../../src/hal/../misc/lv_color.h ****     uint8_t full; /*must be declared first to set all bits of byte via initializer list*/
 212:lvgl/src/extra/widgets/led/../../../../src/hal/../misc/lv_color.h ****     union {
 213:lvgl/src/extra/widgets/led/../../../../src/hal/../misc/lv_color.h ****         uint8_t blue : 1;
 214:lvgl/src/extra/widgets/led/../../../../src/hal/../misc/lv_color.h ****         uint8_t green : 1;
 215:lvgl/src/extra/widgets/led/../../../../src/hal/../misc/lv_color.h ****         uint8_t red : 1;
 216:lvgl/src/extra/widgets/led/../../../../src/hal/../misc/lv_color.h ****     } ch;
 217:lvgl/src/extra/widgets/led/../../../../src/hal/../misc/lv_color.h **** } lv_color1_t;
 218:lvgl/src/extra/widgets/led/../../../../src/hal/../misc/lv_color.h **** 
 219:lvgl/src/extra/widgets/led/../../../../src/hal/../misc/lv_color.h **** typedef union {
 220:lvgl/src/extra/widgets/led/../../../../src/hal/../misc/lv_color.h ****     struct {
 221:lvgl/src/extra/widgets/led/../../../../src/hal/../misc/lv_color.h ****         uint8_t blue : 2;
 222:lvgl/src/extra/widgets/led/../../../../src/hal/../misc/lv_color.h ****         uint8_t green : 3;
 223:lvgl/src/extra/widgets/led/../../../../src/hal/../misc/lv_color.h ****         uint8_t red : 3;
 224:lvgl/src/extra/widgets/led/../../../../src/hal/../misc/lv_color.h ****     } ch;
 225:lvgl/src/extra/widgets/led/../../../../src/hal/../misc/lv_color.h ****     uint8_t full;
 226:lvgl/src/extra/widgets/led/../../../../src/hal/../misc/lv_color.h **** } lv_color8_t;
 227:lvgl/src/extra/widgets/led/../../../../src/hal/../misc/lv_color.h **** 
 228:lvgl/src/extra/widgets/led/../../../../src/hal/../misc/lv_color.h **** typedef union {
 229:lvgl/src/extra/widgets/led/../../../../src/hal/../misc/lv_color.h ****     struct {
 230:lvgl/src/extra/widgets/led/../../../../src/hal/../misc/lv_color.h **** #if LV_COLOR_16_SWAP == 0
 231:lvgl/src/extra/widgets/led/../../../../src/hal/../misc/lv_color.h ****         uint16_t blue : 5;
 232:lvgl/src/extra/widgets/led/../../../../src/hal/../misc/lv_color.h ****         uint16_t green : 6;
 233:lvgl/src/extra/widgets/led/../../../../src/hal/../misc/lv_color.h ****         uint16_t red : 5;
 234:lvgl/src/extra/widgets/led/../../../../src/hal/../misc/lv_color.h **** #else
 235:lvgl/src/extra/widgets/led/../../../../src/hal/../misc/lv_color.h ****         uint16_t green_h : 3;
 236:lvgl/src/extra/widgets/led/../../../../src/hal/../misc/lv_color.h ****         uint16_t red : 5;
 237:lvgl/src/extra/widgets/led/../../../../src/hal/../misc/lv_color.h ****         uint16_t blue : 5;
 238:lvgl/src/extra/widgets/led/../../../../src/hal/../misc/lv_color.h ****         uint16_t green_l : 3;
 239:lvgl/src/extra/widgets/led/../../../../src/hal/../misc/lv_color.h **** #endif
 240:lvgl/src/extra/widgets/led/../../../../src/hal/../misc/lv_color.h ****     } ch;
 241:lvgl/src/extra/widgets/led/../../../../src/hal/../misc/lv_color.h ****     uint16_t full;
 242:lvgl/src/extra/widgets/led/../../../../src/hal/../misc/lv_color.h **** } lv_color16_t;
 243:lvgl/src/extra/widgets/led/../../../../src/hal/../misc/lv_color.h **** 
 244:lvgl/src/extra/widgets/led/../../../../src/hal/../misc/lv_color.h **** typedef union {
 245:lvgl/src/extra/widgets/led/../../../../src/hal/../misc/lv_color.h ****     struct {
 246:lvgl/src/extra/widgets/led/../../../../src/hal/../misc/lv_color.h ****         uint8_t blue;
 247:lvgl/src/extra/widgets/led/../../../../src/hal/../misc/lv_color.h ****         uint8_t green;
 248:lvgl/src/extra/widgets/led/../../../../src/hal/../misc/lv_color.h ****         uint8_t red;
 249:lvgl/src/extra/widgets/led/../../../../src/hal/../misc/lv_color.h ****         uint8_t alpha;
ARM GAS  /var/folders/k2/cd9bl_j17z77g23y6ffqb_400000gn/T//ccffY0Qv.s 			page 12


 250:lvgl/src/extra/widgets/led/../../../../src/hal/../misc/lv_color.h ****     } ch;
 251:lvgl/src/extra/widgets/led/../../../../src/hal/../misc/lv_color.h ****     uint32_t full;
 252:lvgl/src/extra/widgets/led/../../../../src/hal/../misc/lv_color.h **** } lv_color32_t;
 253:lvgl/src/extra/widgets/led/../../../../src/hal/../misc/lv_color.h **** 
 254:lvgl/src/extra/widgets/led/../../../../src/hal/../misc/lv_color.h **** typedef LV_CONCAT3(uint, LV_COLOR_SIZE, _t) lv_color_int_t;
 255:lvgl/src/extra/widgets/led/../../../../src/hal/../misc/lv_color.h **** typedef LV_CONCAT3(lv_color, LV_COLOR_DEPTH, _t) lv_color_t;
 256:lvgl/src/extra/widgets/led/../../../../src/hal/../misc/lv_color.h **** 
 257:lvgl/src/extra/widgets/led/../../../../src/hal/../misc/lv_color.h **** typedef struct {
 258:lvgl/src/extra/widgets/led/../../../../src/hal/../misc/lv_color.h ****     uint16_t h;
 259:lvgl/src/extra/widgets/led/../../../../src/hal/../misc/lv_color.h ****     uint8_t s;
 260:lvgl/src/extra/widgets/led/../../../../src/hal/../misc/lv_color.h ****     uint8_t v;
 261:lvgl/src/extra/widgets/led/../../../../src/hal/../misc/lv_color.h **** } lv_color_hsv_t;
 262:lvgl/src/extra/widgets/led/../../../../src/hal/../misc/lv_color.h **** 
 263:lvgl/src/extra/widgets/led/../../../../src/hal/../misc/lv_color.h **** //! @cond Doxygen_Suppress
 264:lvgl/src/extra/widgets/led/../../../../src/hal/../misc/lv_color.h **** /*No idea where the guard is required but else throws warnings in the docs*/
 265:lvgl/src/extra/widgets/led/../../../../src/hal/../misc/lv_color.h **** typedef uint8_t lv_opa_t;
 266:lvgl/src/extra/widgets/led/../../../../src/hal/../misc/lv_color.h **** //! @endcond
 267:lvgl/src/extra/widgets/led/../../../../src/hal/../misc/lv_color.h **** 
 268:lvgl/src/extra/widgets/led/../../../../src/hal/../misc/lv_color.h **** struct _lv_color_filter_dsc_t;
 269:lvgl/src/extra/widgets/led/../../../../src/hal/../misc/lv_color.h **** 
 270:lvgl/src/extra/widgets/led/../../../../src/hal/../misc/lv_color.h **** typedef lv_color_t (*lv_color_filter_cb_t)(const struct _lv_color_filter_dsc_t *, lv_color_t, lv_op
 271:lvgl/src/extra/widgets/led/../../../../src/hal/../misc/lv_color.h **** 
 272:lvgl/src/extra/widgets/led/../../../../src/hal/../misc/lv_color.h **** typedef struct _lv_color_filter_dsc_t {
 273:lvgl/src/extra/widgets/led/../../../../src/hal/../misc/lv_color.h ****     lv_color_filter_cb_t filter_cb;
 274:lvgl/src/extra/widgets/led/../../../../src/hal/../misc/lv_color.h ****     void * user_data;
 275:lvgl/src/extra/widgets/led/../../../../src/hal/../misc/lv_color.h **** }lv_color_filter_dsc_t;
 276:lvgl/src/extra/widgets/led/../../../../src/hal/../misc/lv_color.h **** 
 277:lvgl/src/extra/widgets/led/../../../../src/hal/../misc/lv_color.h **** 
 278:lvgl/src/extra/widgets/led/../../../../src/hal/../misc/lv_color.h **** typedef enum {
 279:lvgl/src/extra/widgets/led/../../../../src/hal/../misc/lv_color.h ****     LV_PALETTE_RED,
 280:lvgl/src/extra/widgets/led/../../../../src/hal/../misc/lv_color.h ****     LV_PALETTE_PINK,
 281:lvgl/src/extra/widgets/led/../../../../src/hal/../misc/lv_color.h ****     LV_PALETTE_PURPLE,
 282:lvgl/src/extra/widgets/led/../../../../src/hal/../misc/lv_color.h ****     LV_PALETTE_DEEP_PURPLE,
 283:lvgl/src/extra/widgets/led/../../../../src/hal/../misc/lv_color.h ****     LV_PALETTE_INDIGO,
 284:lvgl/src/extra/widgets/led/../../../../src/hal/../misc/lv_color.h ****     LV_PALETTE_BLUE,
 285:lvgl/src/extra/widgets/led/../../../../src/hal/../misc/lv_color.h ****     LV_PALETTE_LIGHT_BLUE,
 286:lvgl/src/extra/widgets/led/../../../../src/hal/../misc/lv_color.h ****     LV_PALETTE_CYAN,
 287:lvgl/src/extra/widgets/led/../../../../src/hal/../misc/lv_color.h ****     LV_PALETTE_TEAL,
 288:lvgl/src/extra/widgets/led/../../../../src/hal/../misc/lv_color.h ****     LV_PALETTE_GREEN,
 289:lvgl/src/extra/widgets/led/../../../../src/hal/../misc/lv_color.h ****     LV_PALETTE_LIGHT_GREEN,
 290:lvgl/src/extra/widgets/led/../../../../src/hal/../misc/lv_color.h ****     LV_PALETTE_LIME,
 291:lvgl/src/extra/widgets/led/../../../../src/hal/../misc/lv_color.h ****     LV_PALETTE_YELLOW,
 292:lvgl/src/extra/widgets/led/../../../../src/hal/../misc/lv_color.h ****     LV_PALETTE_AMBER,
 293:lvgl/src/extra/widgets/led/../../../../src/hal/../misc/lv_color.h ****     LV_PALETTE_ORANGE,
 294:lvgl/src/extra/widgets/led/../../../../src/hal/../misc/lv_color.h ****     LV_PALETTE_DEEP_ORANGE,
 295:lvgl/src/extra/widgets/led/../../../../src/hal/../misc/lv_color.h ****     LV_PALETTE_BROWN,
 296:lvgl/src/extra/widgets/led/../../../../src/hal/../misc/lv_color.h ****     LV_PALETTE_BLUE_GREY,
 297:lvgl/src/extra/widgets/led/../../../../src/hal/../misc/lv_color.h ****     LV_PALETTE_GREY,
 298:lvgl/src/extra/widgets/led/../../../../src/hal/../misc/lv_color.h ****     _LV_PALETTE_LAST,
 299:lvgl/src/extra/widgets/led/../../../../src/hal/../misc/lv_color.h ****     LV_PALETTE_NONE = 0xff,
 300:lvgl/src/extra/widgets/led/../../../../src/hal/../misc/lv_color.h **** }lv_palette_t;
 301:lvgl/src/extra/widgets/led/../../../../src/hal/../misc/lv_color.h **** 
 302:lvgl/src/extra/widgets/led/../../../../src/hal/../misc/lv_color.h **** /**********************
 303:lvgl/src/extra/widgets/led/../../../../src/hal/../misc/lv_color.h ****  * GLOBAL PROTOTYPES
 304:lvgl/src/extra/widgets/led/../../../../src/hal/../misc/lv_color.h ****  **********************/
 305:lvgl/src/extra/widgets/led/../../../../src/hal/../misc/lv_color.h **** 
 306:lvgl/src/extra/widgets/led/../../../../src/hal/../misc/lv_color.h **** /*In color conversations:
ARM GAS  /var/folders/k2/cd9bl_j17z77g23y6ffqb_400000gn/T//ccffY0Qv.s 			page 13


 307:lvgl/src/extra/widgets/led/../../../../src/hal/../misc/lv_color.h ****  * - When converting to bigger color type the LSB weight of 1 LSB is calculated
 308:lvgl/src/extra/widgets/led/../../../../src/hal/../misc/lv_color.h ****  *   E.g. 16 bit Red has 5 bits
 309:lvgl/src/extra/widgets/led/../../../../src/hal/../misc/lv_color.h ****  *         8 bit Red has 3 bits
 310:lvgl/src/extra/widgets/led/../../../../src/hal/../misc/lv_color.h ****  *        ----------------------
 311:lvgl/src/extra/widgets/led/../../../../src/hal/../misc/lv_color.h ****  *        8 bit red LSB = (2^5 - 1) / (2^3 - 1) = 31 / 7 = 4
 312:lvgl/src/extra/widgets/led/../../../../src/hal/../misc/lv_color.h ****  *
 313:lvgl/src/extra/widgets/led/../../../../src/hal/../misc/lv_color.h ****  * - When calculating to smaller color type simply shift out the LSBs
 314:lvgl/src/extra/widgets/led/../../../../src/hal/../misc/lv_color.h ****  *   E.g.  8 bit Red has 3 bits
 315:lvgl/src/extra/widgets/led/../../../../src/hal/../misc/lv_color.h ****  *        16 bit Red has 5 bits
 316:lvgl/src/extra/widgets/led/../../../../src/hal/../misc/lv_color.h ****  *        ----------------------
 317:lvgl/src/extra/widgets/led/../../../../src/hal/../misc/lv_color.h ****  *         Shift right with 5 - 3 = 2
 318:lvgl/src/extra/widgets/led/../../../../src/hal/../misc/lv_color.h ****  */
 319:lvgl/src/extra/widgets/led/../../../../src/hal/../misc/lv_color.h **** static inline uint8_t lv_color_to1(lv_color_t color)
 320:lvgl/src/extra/widgets/led/../../../../src/hal/../misc/lv_color.h **** {
 321:lvgl/src/extra/widgets/led/../../../../src/hal/../misc/lv_color.h **** #if LV_COLOR_DEPTH == 1
 322:lvgl/src/extra/widgets/led/../../../../src/hal/../misc/lv_color.h ****     return color.full;
 323:lvgl/src/extra/widgets/led/../../../../src/hal/../misc/lv_color.h **** #elif LV_COLOR_DEPTH == 8
 324:lvgl/src/extra/widgets/led/../../../../src/hal/../misc/lv_color.h ****     if((LV_COLOR_GET_R(color) & 0x4) || (LV_COLOR_GET_G(color) & 0x4) || (LV_COLOR_GET_B(color) & 0
 325:lvgl/src/extra/widgets/led/../../../../src/hal/../misc/lv_color.h ****         return 1;
 326:lvgl/src/extra/widgets/led/../../../../src/hal/../misc/lv_color.h ****     }
 327:lvgl/src/extra/widgets/led/../../../../src/hal/../misc/lv_color.h ****     else {
 328:lvgl/src/extra/widgets/led/../../../../src/hal/../misc/lv_color.h ****         return 0;
 329:lvgl/src/extra/widgets/led/../../../../src/hal/../misc/lv_color.h ****     }
 330:lvgl/src/extra/widgets/led/../../../../src/hal/../misc/lv_color.h **** #elif LV_COLOR_DEPTH == 16
 331:lvgl/src/extra/widgets/led/../../../../src/hal/../misc/lv_color.h ****     if((LV_COLOR_GET_R(color) & 0x10) || (LV_COLOR_GET_G(color) & 0x20) || (LV_COLOR_GET_B(color) &
 332:lvgl/src/extra/widgets/led/../../../../src/hal/../misc/lv_color.h ****         return 1;
 333:lvgl/src/extra/widgets/led/../../../../src/hal/../misc/lv_color.h ****     }
 334:lvgl/src/extra/widgets/led/../../../../src/hal/../misc/lv_color.h ****     else {
 335:lvgl/src/extra/widgets/led/../../../../src/hal/../misc/lv_color.h ****         return 0;
 336:lvgl/src/extra/widgets/led/../../../../src/hal/../misc/lv_color.h ****     }
 337:lvgl/src/extra/widgets/led/../../../../src/hal/../misc/lv_color.h **** #elif LV_COLOR_DEPTH == 32
 338:lvgl/src/extra/widgets/led/../../../../src/hal/../misc/lv_color.h ****     if((LV_COLOR_GET_R(color) & 0x80) || (LV_COLOR_GET_G(color) & 0x80) || (LV_COLOR_GET_B(color) &
 339:lvgl/src/extra/widgets/led/../../../../src/hal/../misc/lv_color.h ****         return 1;
 340:lvgl/src/extra/widgets/led/../../../../src/hal/../misc/lv_color.h ****     }
 341:lvgl/src/extra/widgets/led/../../../../src/hal/../misc/lv_color.h ****     else {
 342:lvgl/src/extra/widgets/led/../../../../src/hal/../misc/lv_color.h ****         return 0;
 343:lvgl/src/extra/widgets/led/../../../../src/hal/../misc/lv_color.h ****     }
 344:lvgl/src/extra/widgets/led/../../../../src/hal/../misc/lv_color.h **** #endif
 345:lvgl/src/extra/widgets/led/../../../../src/hal/../misc/lv_color.h **** }
 346:lvgl/src/extra/widgets/led/../../../../src/hal/../misc/lv_color.h **** 
 347:lvgl/src/extra/widgets/led/../../../../src/hal/../misc/lv_color.h **** static inline uint8_t lv_color_to8(lv_color_t color)
 348:lvgl/src/extra/widgets/led/../../../../src/hal/../misc/lv_color.h **** {
 349:lvgl/src/extra/widgets/led/../../../../src/hal/../misc/lv_color.h **** #if LV_COLOR_DEPTH == 1
 350:lvgl/src/extra/widgets/led/../../../../src/hal/../misc/lv_color.h ****     if(color.full == 0)
 351:lvgl/src/extra/widgets/led/../../../../src/hal/../misc/lv_color.h ****         return 0;
 352:lvgl/src/extra/widgets/led/../../../../src/hal/../misc/lv_color.h ****     else
 353:lvgl/src/extra/widgets/led/../../../../src/hal/../misc/lv_color.h ****         return 0xFF;
 354:lvgl/src/extra/widgets/led/../../../../src/hal/../misc/lv_color.h **** #elif LV_COLOR_DEPTH == 8
 355:lvgl/src/extra/widgets/led/../../../../src/hal/../misc/lv_color.h ****     return color.full;
 356:lvgl/src/extra/widgets/led/../../../../src/hal/../misc/lv_color.h **** #elif LV_COLOR_DEPTH == 16
 357:lvgl/src/extra/widgets/led/../../../../src/hal/../misc/lv_color.h ****     lv_color8_t ret;
 358:lvgl/src/extra/widgets/led/../../../../src/hal/../misc/lv_color.h ****     LV_COLOR_SET_R8(ret, LV_COLOR_GET_R(color) >> 2); /*5 - 3  = 2*/
 359:lvgl/src/extra/widgets/led/../../../../src/hal/../misc/lv_color.h ****     LV_COLOR_SET_G8(ret, LV_COLOR_GET_G(color) >> 3); /*6 - 3  = 3*/
 360:lvgl/src/extra/widgets/led/../../../../src/hal/../misc/lv_color.h ****     LV_COLOR_SET_B8(ret, LV_COLOR_GET_B(color) >> 3); /*5 - 2  = 3*/
 361:lvgl/src/extra/widgets/led/../../../../src/hal/../misc/lv_color.h ****     return ret.full;
 362:lvgl/src/extra/widgets/led/../../../../src/hal/../misc/lv_color.h **** #elif LV_COLOR_DEPTH == 32
 363:lvgl/src/extra/widgets/led/../../../../src/hal/../misc/lv_color.h ****     lv_color8_t ret;
ARM GAS  /var/folders/k2/cd9bl_j17z77g23y6ffqb_400000gn/T//ccffY0Qv.s 			page 14


 364:lvgl/src/extra/widgets/led/../../../../src/hal/../misc/lv_color.h ****     LV_COLOR_SET_R8(ret, LV_COLOR_GET_R(color) >> 5); /*8 - 3  = 5*/
 365:lvgl/src/extra/widgets/led/../../../../src/hal/../misc/lv_color.h ****     LV_COLOR_SET_G8(ret, LV_COLOR_GET_G(color) >> 5); /*8 - 3  = 5*/
 366:lvgl/src/extra/widgets/led/../../../../src/hal/../misc/lv_color.h ****     LV_COLOR_SET_B8(ret, LV_COLOR_GET_B(color) >> 6); /*8 - 2  = 6*/
 367:lvgl/src/extra/widgets/led/../../../../src/hal/../misc/lv_color.h ****     return ret.full;
 368:lvgl/src/extra/widgets/led/../../../../src/hal/../misc/lv_color.h **** #endif
 369:lvgl/src/extra/widgets/led/../../../../src/hal/../misc/lv_color.h **** }
 370:lvgl/src/extra/widgets/led/../../../../src/hal/../misc/lv_color.h **** 
 371:lvgl/src/extra/widgets/led/../../../../src/hal/../misc/lv_color.h **** static inline uint16_t lv_color_to16(lv_color_t color)
 372:lvgl/src/extra/widgets/led/../../../../src/hal/../misc/lv_color.h **** {
 373:lvgl/src/extra/widgets/led/../../../../src/hal/../misc/lv_color.h **** #if LV_COLOR_DEPTH == 1
 374:lvgl/src/extra/widgets/led/../../../../src/hal/../misc/lv_color.h ****     if(color.full == 0)
 375:lvgl/src/extra/widgets/led/../../../../src/hal/../misc/lv_color.h ****         return 0;
 376:lvgl/src/extra/widgets/led/../../../../src/hal/../misc/lv_color.h ****     else
 377:lvgl/src/extra/widgets/led/../../../../src/hal/../misc/lv_color.h ****         return 0xFFFF;
 378:lvgl/src/extra/widgets/led/../../../../src/hal/../misc/lv_color.h **** #elif LV_COLOR_DEPTH == 8
 379:lvgl/src/extra/widgets/led/../../../../src/hal/../misc/lv_color.h ****     lv_color16_t ret;
 380:lvgl/src/extra/widgets/led/../../../../src/hal/../misc/lv_color.h ****     LV_COLOR_SET_R16(ret, LV_COLOR_GET_R(color) * 4);  /*(2^5 - 1)/(2^3 - 1) = 31/7 = 4*/
 381:lvgl/src/extra/widgets/led/../../../../src/hal/../misc/lv_color.h ****     LV_COLOR_SET_G16(ret, LV_COLOR_GET_G(color) * 9);  /*(2^6 - 1)/(2^3 - 1) = 63/7 = 9*/
 382:lvgl/src/extra/widgets/led/../../../../src/hal/../misc/lv_color.h ****     LV_COLOR_SET_B16(ret, LV_COLOR_GET_B(color) * 10); /*(2^5 - 1)/(2^2 - 1) = 31/3 = 10*/
 383:lvgl/src/extra/widgets/led/../../../../src/hal/../misc/lv_color.h ****     return ret.full;
 384:lvgl/src/extra/widgets/led/../../../../src/hal/../misc/lv_color.h **** #elif LV_COLOR_DEPTH == 16
 385:lvgl/src/extra/widgets/led/../../../../src/hal/../misc/lv_color.h ****     return color.full;
 386:lvgl/src/extra/widgets/led/../../../../src/hal/../misc/lv_color.h **** #elif LV_COLOR_DEPTH == 32
 387:lvgl/src/extra/widgets/led/../../../../src/hal/../misc/lv_color.h ****     lv_color16_t ret;
 388:lvgl/src/extra/widgets/led/../../../../src/hal/../misc/lv_color.h ****     LV_COLOR_SET_R16(ret, LV_COLOR_GET_R(color) >> 3); /*8 - 5  = 3*/
 389:lvgl/src/extra/widgets/led/../../../../src/hal/../misc/lv_color.h ****     LV_COLOR_SET_G16(ret, LV_COLOR_GET_G(color) >> 2); /*8 - 6  = 2*/
 390:lvgl/src/extra/widgets/led/../../../../src/hal/../misc/lv_color.h ****     LV_COLOR_SET_B16(ret, LV_COLOR_GET_B(color) >> 3); /*8 - 5  = 3*/
 391:lvgl/src/extra/widgets/led/../../../../src/hal/../misc/lv_color.h ****     return ret.full;
 392:lvgl/src/extra/widgets/led/../../../../src/hal/../misc/lv_color.h **** #endif
 393:lvgl/src/extra/widgets/led/../../../../src/hal/../misc/lv_color.h **** }
 394:lvgl/src/extra/widgets/led/../../../../src/hal/../misc/lv_color.h **** 
 395:lvgl/src/extra/widgets/led/../../../../src/hal/../misc/lv_color.h **** static inline uint32_t lv_color_to32(lv_color_t color)
 396:lvgl/src/extra/widgets/led/../../../../src/hal/../misc/lv_color.h **** {
 397:lvgl/src/extra/widgets/led/../../../../src/hal/../misc/lv_color.h **** #if LV_COLOR_DEPTH == 1
 398:lvgl/src/extra/widgets/led/../../../../src/hal/../misc/lv_color.h ****     if(color.full == 0)
 399:lvgl/src/extra/widgets/led/../../../../src/hal/../misc/lv_color.h ****         return 0xFF000000;
 400:lvgl/src/extra/widgets/led/../../../../src/hal/../misc/lv_color.h ****     else
 401:lvgl/src/extra/widgets/led/../../../../src/hal/../misc/lv_color.h ****         return 0xFFFFFFFF;
 402:lvgl/src/extra/widgets/led/../../../../src/hal/../misc/lv_color.h **** #elif LV_COLOR_DEPTH == 8
 403:lvgl/src/extra/widgets/led/../../../../src/hal/../misc/lv_color.h ****     lv_color32_t ret;
 404:lvgl/src/extra/widgets/led/../../../../src/hal/../misc/lv_color.h ****     LV_COLOR_SET_R32(ret, LV_COLOR_GET_R(color) * 36); /*(2^8 - 1)/(2^3 - 1) = 255/7 = 36*/
 405:lvgl/src/extra/widgets/led/../../../../src/hal/../misc/lv_color.h ****     LV_COLOR_SET_G32(ret, LV_COLOR_GET_G(color) * 36); /*(2^8 - 1)/(2^3 - 1) = 255/7 = 36*/
 406:lvgl/src/extra/widgets/led/../../../../src/hal/../misc/lv_color.h ****     LV_COLOR_SET_B32(ret, LV_COLOR_GET_B(color) * 85); /*(2^8 - 1)/(2^2 - 1) = 255/3 = 85*/
 407:lvgl/src/extra/widgets/led/../../../../src/hal/../misc/lv_color.h ****     LV_COLOR_SET_A32(ret, 0xFF);
 408:lvgl/src/extra/widgets/led/../../../../src/hal/../misc/lv_color.h ****     return ret.full;
 409:lvgl/src/extra/widgets/led/../../../../src/hal/../misc/lv_color.h **** #elif LV_COLOR_DEPTH == 16
 410:lvgl/src/extra/widgets/led/../../../../src/hal/../misc/lv_color.h ****     /**
 411:lvgl/src/extra/widgets/led/../../../../src/hal/../misc/lv_color.h ****      * The floating point math for conversion is:
 412:lvgl/src/extra/widgets/led/../../../../src/hal/../misc/lv_color.h ****      *  valueto = valuefrom * ( (2^bitsto - 1) / (float)(2^bitsfrom - 1) )
 413:lvgl/src/extra/widgets/led/../../../../src/hal/../misc/lv_color.h ****      * The faster integer math for conversion is:
 414:lvgl/src/extra/widgets/led/../../../../src/hal/../misc/lv_color.h ****      *  valueto = ( valuefrom * multiplier + adder ) >> divisor
 415:lvgl/src/extra/widgets/led/../../../../src/hal/../misc/lv_color.h ****      *   multiplier = FLOOR( ( (2^bitsto - 1) << divisor ) / (float)(2^bitsfrom - 1) )
 416:lvgl/src/extra/widgets/led/../../../../src/hal/../misc/lv_color.h ****      *
 417:lvgl/src/extra/widgets/led/../../../../src/hal/../misc/lv_color.h ****      * Find the first divisor where ( adder >> divisor ) <= 0
 418:lvgl/src/extra/widgets/led/../../../../src/hal/../misc/lv_color.h ****      *
 419:lvgl/src/extra/widgets/led/../../../../src/hal/../misc/lv_color.h ****      * 5-bit to 8-bit: ( 31 * multiplier + adder ) >> divisor = 255
 420:lvgl/src/extra/widgets/led/../../../../src/hal/../misc/lv_color.h ****      * divisor  multiplier  adder  min (0)  max (31)
ARM GAS  /var/folders/k2/cd9bl_j17z77g23y6ffqb_400000gn/T//ccffY0Qv.s 			page 15


 421:lvgl/src/extra/widgets/led/../../../../src/hal/../misc/lv_color.h ****      *       0           8      7        7       255
 422:lvgl/src/extra/widgets/led/../../../../src/hal/../misc/lv_color.h ****      *       1          16     14        7       255
 423:lvgl/src/extra/widgets/led/../../../../src/hal/../misc/lv_color.h ****      *       2          32     28        7       255
 424:lvgl/src/extra/widgets/led/../../../../src/hal/../misc/lv_color.h ****      *       3          65     25        3       255
 425:lvgl/src/extra/widgets/led/../../../../src/hal/../misc/lv_color.h ****      *       4         131     19        1       255
 426:lvgl/src/extra/widgets/led/../../../../src/hal/../misc/lv_color.h ****      *       5         263      7        0       255
 427:lvgl/src/extra/widgets/led/../../../../src/hal/../misc/lv_color.h ****      *
 428:lvgl/src/extra/widgets/led/../../../../src/hal/../misc/lv_color.h ****      * 6-bit to 8-bit: 255 = ( 63 * multiplier + adder ) >> divisor
 429:lvgl/src/extra/widgets/led/../../../../src/hal/../misc/lv_color.h ****      * divisor  multiplier  adder  min (0)  max (63)
 430:lvgl/src/extra/widgets/led/../../../../src/hal/../misc/lv_color.h ****      *       0           4      3        3       255
 431:lvgl/src/extra/widgets/led/../../../../src/hal/../misc/lv_color.h ****      *       1           8      6        3       255
 432:lvgl/src/extra/widgets/led/../../../../src/hal/../misc/lv_color.h ****      *       2          16     12        3       255
 433:lvgl/src/extra/widgets/led/../../../../src/hal/../misc/lv_color.h ****      *       3          32     24        3       255
 434:lvgl/src/extra/widgets/led/../../../../src/hal/../misc/lv_color.h ****      *       4          64     48        3       255
 435:lvgl/src/extra/widgets/led/../../../../src/hal/../misc/lv_color.h ****      *       5         129     33        1       255
 436:lvgl/src/extra/widgets/led/../../../../src/hal/../misc/lv_color.h ****      *       6         259      3        0       255
 437:lvgl/src/extra/widgets/led/../../../../src/hal/../misc/lv_color.h ****      */
 438:lvgl/src/extra/widgets/led/../../../../src/hal/../misc/lv_color.h **** 
 439:lvgl/src/extra/widgets/led/../../../../src/hal/../misc/lv_color.h ****     lv_color32_t ret;
 440:lvgl/src/extra/widgets/led/../../../../src/hal/../misc/lv_color.h ****     LV_COLOR_SET_R32(ret, (LV_COLOR_GET_R(color) * 263 + 7) >> 5);
 441:lvgl/src/extra/widgets/led/../../../../src/hal/../misc/lv_color.h ****     LV_COLOR_SET_G32(ret, (LV_COLOR_GET_G(color) * 259 + 3) >> 6);
 442:lvgl/src/extra/widgets/led/../../../../src/hal/../misc/lv_color.h ****     LV_COLOR_SET_B32(ret, (LV_COLOR_GET_B(color) * 263 + 7) >> 5);
 443:lvgl/src/extra/widgets/led/../../../../src/hal/../misc/lv_color.h ****     LV_COLOR_SET_A32(ret, 0xFF);
 444:lvgl/src/extra/widgets/led/../../../../src/hal/../misc/lv_color.h ****     return ret.full;
 445:lvgl/src/extra/widgets/led/../../../../src/hal/../misc/lv_color.h **** #elif LV_COLOR_DEPTH == 32
 446:lvgl/src/extra/widgets/led/../../../../src/hal/../misc/lv_color.h ****     return color.full;
 447:lvgl/src/extra/widgets/led/../../../../src/hal/../misc/lv_color.h **** #endif
 448:lvgl/src/extra/widgets/led/../../../../src/hal/../misc/lv_color.h **** }
 449:lvgl/src/extra/widgets/led/../../../../src/hal/../misc/lv_color.h **** 
 450:lvgl/src/extra/widgets/led/../../../../src/hal/../misc/lv_color.h **** //! @cond Doxygen_Suppress
 451:lvgl/src/extra/widgets/led/../../../../src/hal/../misc/lv_color.h **** 
 452:lvgl/src/extra/widgets/led/../../../../src/hal/../misc/lv_color.h **** /**
 453:lvgl/src/extra/widgets/led/../../../../src/hal/../misc/lv_color.h ****  * Mix two colors with a given ratio.
 454:lvgl/src/extra/widgets/led/../../../../src/hal/../misc/lv_color.h ****  * @param c1 the first color to mix (usually the foreground)
 455:lvgl/src/extra/widgets/led/../../../../src/hal/../misc/lv_color.h ****  * @param c2 the second color to mix (usually the background)
 456:lvgl/src/extra/widgets/led/../../../../src/hal/../misc/lv_color.h ****  * @param mix The ratio of the colors. 0: full `c2`, 255: full `c1`, 127: half `c1` and half`c2`
 457:lvgl/src/extra/widgets/led/../../../../src/hal/../misc/lv_color.h ****  * @return the mixed color
 458:lvgl/src/extra/widgets/led/../../../../src/hal/../misc/lv_color.h ****  */
 459:lvgl/src/extra/widgets/led/../../../../src/hal/../misc/lv_color.h **** LV_ATTRIBUTE_FAST_MEM static inline lv_color_t lv_color_mix(lv_color_t c1, lv_color_t c2, uint8_t m
 460:lvgl/src/extra/widgets/led/../../../../src/hal/../misc/lv_color.h **** {
 461:lvgl/src/extra/widgets/led/../../../../src/hal/../misc/lv_color.h ****     lv_color_t ret;
 462:lvgl/src/extra/widgets/led/../../../../src/hal/../misc/lv_color.h **** #if LV_COLOR_DEPTH != 1
 463:lvgl/src/extra/widgets/led/../../../../src/hal/../misc/lv_color.h ****     /*LV_COLOR_DEPTH == 8, 16 or 32*/
 464:lvgl/src/extra/widgets/led/../../../../src/hal/../misc/lv_color.h ****     LV_COLOR_SET_R(ret, LV_UDIV255((uint16_t) LV_COLOR_GET_R(c1) * mix + LV_COLOR_GET_R(c2) *
 465:lvgl/src/extra/widgets/led/../../../../src/hal/../misc/lv_color.h ****                                         (255 - mix) + LV_COLOR_MIX_ROUND_OFS));
 466:lvgl/src/extra/widgets/led/../../../../src/hal/../misc/lv_color.h ****     LV_COLOR_SET_G(ret, LV_UDIV255((uint16_t) LV_COLOR_GET_G(c1) * mix + LV_COLOR_GET_G(c2) *
 467:lvgl/src/extra/widgets/led/../../../../src/hal/../misc/lv_color.h ****                                         (255 - mix) + LV_COLOR_MIX_ROUND_OFS));
 468:lvgl/src/extra/widgets/led/../../../../src/hal/../misc/lv_color.h ****     LV_COLOR_SET_B(ret, LV_UDIV255((uint16_t) LV_COLOR_GET_B(c1) * mix + LV_COLOR_GET_B(c2) *
 469:lvgl/src/extra/widgets/led/../../../../src/hal/../misc/lv_color.h ****                                         (255 - mix) + LV_COLOR_MIX_ROUND_OFS));
 470:lvgl/src/extra/widgets/led/../../../../src/hal/../misc/lv_color.h ****     LV_COLOR_SET_A(ret, 0xFF);
 471:lvgl/src/extra/widgets/led/../../../../src/hal/../misc/lv_color.h **** #else
 472:lvgl/src/extra/widgets/led/../../../../src/hal/../misc/lv_color.h ****     /*LV_COLOR_DEPTH == 1*/
 473:lvgl/src/extra/widgets/led/../../../../src/hal/../misc/lv_color.h ****     ret.full = mix > LV_OPA_50 ? c1.full : c2.full;
 474:lvgl/src/extra/widgets/led/../../../../src/hal/../misc/lv_color.h **** #endif
 475:lvgl/src/extra/widgets/led/../../../../src/hal/../misc/lv_color.h **** 
 476:lvgl/src/extra/widgets/led/../../../../src/hal/../misc/lv_color.h ****     return ret;
 477:lvgl/src/extra/widgets/led/../../../../src/hal/../misc/lv_color.h **** }
ARM GAS  /var/folders/k2/cd9bl_j17z77g23y6ffqb_400000gn/T//ccffY0Qv.s 			page 16


 478:lvgl/src/extra/widgets/led/../../../../src/hal/../misc/lv_color.h **** 
 479:lvgl/src/extra/widgets/led/../../../../src/hal/../misc/lv_color.h **** LV_ATTRIBUTE_FAST_MEM static inline void lv_color_premult(lv_color_t c, uint8_t mix, uint16_t * out
 480:lvgl/src/extra/widgets/led/../../../../src/hal/../misc/lv_color.h **** {
 481:lvgl/src/extra/widgets/led/../../../../src/hal/../misc/lv_color.h **** #if LV_COLOR_DEPTH != 1
 482:lvgl/src/extra/widgets/led/../../../../src/hal/../misc/lv_color.h ****     out[0] = (uint16_t) LV_COLOR_GET_R(c) * mix;
 483:lvgl/src/extra/widgets/led/../../../../src/hal/../misc/lv_color.h ****     out[1] = (uint16_t) LV_COLOR_GET_G(c) * mix;
 484:lvgl/src/extra/widgets/led/../../../../src/hal/../misc/lv_color.h ****     out[2] = (uint16_t) LV_COLOR_GET_B(c) * mix;
 485:lvgl/src/extra/widgets/led/../../../../src/hal/../misc/lv_color.h **** #else
 486:lvgl/src/extra/widgets/led/../../../../src/hal/../misc/lv_color.h ****     (void) mix;
 487:lvgl/src/extra/widgets/led/../../../../src/hal/../misc/lv_color.h ****     /*Pre-multiplication can't be used with 1 bpp*/
 488:lvgl/src/extra/widgets/led/../../../../src/hal/../misc/lv_color.h ****     out[0] = LV_COLOR_GET_R(c);
 489:lvgl/src/extra/widgets/led/../../../../src/hal/../misc/lv_color.h ****     out[1] = LV_COLOR_GET_G(c);
 490:lvgl/src/extra/widgets/led/../../../../src/hal/../misc/lv_color.h ****     out[2] = LV_COLOR_GET_B(c);
 491:lvgl/src/extra/widgets/led/../../../../src/hal/../misc/lv_color.h **** #endif
 492:lvgl/src/extra/widgets/led/../../../../src/hal/../misc/lv_color.h **** 
 493:lvgl/src/extra/widgets/led/../../../../src/hal/../misc/lv_color.h **** }
 494:lvgl/src/extra/widgets/led/../../../../src/hal/../misc/lv_color.h **** 
 495:lvgl/src/extra/widgets/led/../../../../src/hal/../misc/lv_color.h **** /**
 496:lvgl/src/extra/widgets/led/../../../../src/hal/../misc/lv_color.h ****  * Mix two colors with a given ratio. It runs faster then `lv_color_mix` but requires some pre comp
 497:lvgl/src/extra/widgets/led/../../../../src/hal/../misc/lv_color.h ****  * @param premult_c1 The first color. Should be preprocessed with `lv_color_premult(c1)`
 498:lvgl/src/extra/widgets/led/../../../../src/hal/../misc/lv_color.h ****  * @param c2 The second color. As it is no pre computation required on it
 499:lvgl/src/extra/widgets/led/../../../../src/hal/../misc/lv_color.h ****  * @param mix The ratio of the colors. 0: full `c1`, 255: full `c2`, 127: half `c1` and half `c2`.
 500:lvgl/src/extra/widgets/led/../../../../src/hal/../misc/lv_color.h ****  *            Should be modified like mix = `255 - mix`
 501:lvgl/src/extra/widgets/led/../../../../src/hal/../misc/lv_color.h ****  * @return the mixed color
 502:lvgl/src/extra/widgets/led/../../../../src/hal/../misc/lv_color.h ****  * @note 255 won't give clearly `c1`.
 503:lvgl/src/extra/widgets/led/../../../../src/hal/../misc/lv_color.h ****  */
 504:lvgl/src/extra/widgets/led/../../../../src/hal/../misc/lv_color.h **** LV_ATTRIBUTE_FAST_MEM static inline lv_color_t lv_color_mix_premult(uint16_t * premult_c1, lv_color
 505:lvgl/src/extra/widgets/led/../../../../src/hal/../misc/lv_color.h **** {
 506:lvgl/src/extra/widgets/led/../../../../src/hal/../misc/lv_color.h ****     lv_color_t ret;
 507:lvgl/src/extra/widgets/led/../../../../src/hal/../misc/lv_color.h **** #if LV_COLOR_DEPTH != 1
 508:lvgl/src/extra/widgets/led/../../../../src/hal/../misc/lv_color.h ****     /*LV_COLOR_DEPTH == 8, 16 or 32*/
 509:lvgl/src/extra/widgets/led/../../../../src/hal/../misc/lv_color.h ****     LV_COLOR_SET_R(ret, LV_UDIV255(premult_c1[0] + LV_COLOR_GET_R(c2) * mix + LV_COLOR_MIX_ROUND_OF
 510:lvgl/src/extra/widgets/led/../../../../src/hal/../misc/lv_color.h ****     LV_COLOR_SET_G(ret, LV_UDIV255(premult_c1[1] + LV_COLOR_GET_G(c2) * mix + LV_COLOR_MIX_ROUND_OF
 511:lvgl/src/extra/widgets/led/../../../../src/hal/../misc/lv_color.h ****     LV_COLOR_SET_B(ret, LV_UDIV255(premult_c1[2] + LV_COLOR_GET_B(c2) * mix + LV_COLOR_MIX_ROUND_OF
 512:lvgl/src/extra/widgets/led/../../../../src/hal/../misc/lv_color.h ****     LV_COLOR_SET_A(ret, 0xFF);
 513:lvgl/src/extra/widgets/led/../../../../src/hal/../misc/lv_color.h **** #else
 514:lvgl/src/extra/widgets/led/../../../../src/hal/../misc/lv_color.h ****     /*LV_COLOR_DEPTH == 1*/
 515:lvgl/src/extra/widgets/led/../../../../src/hal/../misc/lv_color.h ****     /*Restore color1*/
 516:lvgl/src/extra/widgets/led/../../../../src/hal/../misc/lv_color.h ****     lv_color_t c1;
 517:lvgl/src/extra/widgets/led/../../../../src/hal/../misc/lv_color.h ****     LV_COLOR_SET_R(c1, premult_c1[0]);
 518:lvgl/src/extra/widgets/led/../../../../src/hal/../misc/lv_color.h ****     LV_COLOR_SET_G(c1, premult_c1[1]);
 519:lvgl/src/extra/widgets/led/../../../../src/hal/../misc/lv_color.h ****     LV_COLOR_SET_B(c1, premult_c1[2]);
 520:lvgl/src/extra/widgets/led/../../../../src/hal/../misc/lv_color.h ****     ret.full = mix > LV_OPA_50 ? c2.full : c1.full;
 521:lvgl/src/extra/widgets/led/../../../../src/hal/../misc/lv_color.h **** #endif
 522:lvgl/src/extra/widgets/led/../../../../src/hal/../misc/lv_color.h **** 
 523:lvgl/src/extra/widgets/led/../../../../src/hal/../misc/lv_color.h ****     return ret;
 524:lvgl/src/extra/widgets/led/../../../../src/hal/../misc/lv_color.h **** }
 525:lvgl/src/extra/widgets/led/../../../../src/hal/../misc/lv_color.h **** 
 526:lvgl/src/extra/widgets/led/../../../../src/hal/../misc/lv_color.h **** /**
 527:lvgl/src/extra/widgets/led/../../../../src/hal/../misc/lv_color.h ****  * Mix two colors. Both color can have alpha value.
 528:lvgl/src/extra/widgets/led/../../../../src/hal/../misc/lv_color.h ****  * @param bg_color background color
 529:lvgl/src/extra/widgets/led/../../../../src/hal/../misc/lv_color.h ****  * @param bg_opa alpha of the background color
 530:lvgl/src/extra/widgets/led/../../../../src/hal/../misc/lv_color.h ****  * @param fg_color foreground color
 531:lvgl/src/extra/widgets/led/../../../../src/hal/../misc/lv_color.h ****  * @param fg_opa alpha of the foreground color
 532:lvgl/src/extra/widgets/led/../../../../src/hal/../misc/lv_color.h ****  * @param res_color the result color
 533:lvgl/src/extra/widgets/led/../../../../src/hal/../misc/lv_color.h ****  * @param res_opa the result opacity
 534:lvgl/src/extra/widgets/led/../../../../src/hal/../misc/lv_color.h ****  */
ARM GAS  /var/folders/k2/cd9bl_j17z77g23y6ffqb_400000gn/T//ccffY0Qv.s 			page 17


 535:lvgl/src/extra/widgets/led/../../../../src/hal/../misc/lv_color.h **** LV_ATTRIBUTE_FAST_MEM static inline void lv_color_mix_with_alpha(lv_color_t bg_color, lv_opa_t bg_o
 536:lvgl/src/extra/widgets/led/../../../../src/hal/../misc/lv_color.h ****                                                                  lv_color_t fg_color, lv_opa_t fg_o
 537:lvgl/src/extra/widgets/led/../../../../src/hal/../misc/lv_color.h ****                                                                  lv_color_t * res_color, lv_opa_t *
 538:lvgl/src/extra/widgets/led/../../../../src/hal/../misc/lv_color.h **** {
 539:lvgl/src/extra/widgets/led/../../../../src/hal/../misc/lv_color.h ****     /*Pick the foreground if it's fully opaque or the Background is fully transparent*/
 540:lvgl/src/extra/widgets/led/../../../../src/hal/../misc/lv_color.h ****     if(fg_opa >= LV_OPA_MAX || bg_opa <= LV_OPA_MIN) {
 541:lvgl/src/extra/widgets/led/../../../../src/hal/../misc/lv_color.h ****         res_color->full = fg_color.full;
 542:lvgl/src/extra/widgets/led/../../../../src/hal/../misc/lv_color.h ****         *res_opa = fg_opa;
 543:lvgl/src/extra/widgets/led/../../../../src/hal/../misc/lv_color.h ****     }
 544:lvgl/src/extra/widgets/led/../../../../src/hal/../misc/lv_color.h ****     /*Transparent foreground: use the Background*/
 545:lvgl/src/extra/widgets/led/../../../../src/hal/../misc/lv_color.h ****     else if(fg_opa <= LV_OPA_MIN) {
 546:lvgl/src/extra/widgets/led/../../../../src/hal/../misc/lv_color.h ****         res_color->full = bg_color.full;
 547:lvgl/src/extra/widgets/led/../../../../src/hal/../misc/lv_color.h ****         *res_opa = bg_opa;
 548:lvgl/src/extra/widgets/led/../../../../src/hal/../misc/lv_color.h ****     }
 549:lvgl/src/extra/widgets/led/../../../../src/hal/../misc/lv_color.h ****     /*Opaque background: use simple mix*/
 550:lvgl/src/extra/widgets/led/../../../../src/hal/../misc/lv_color.h ****     else if(bg_opa >= LV_OPA_MAX) {
 551:lvgl/src/extra/widgets/led/../../../../src/hal/../misc/lv_color.h ****         *res_color = lv_color_mix(fg_color, bg_color, fg_opa);
 552:lvgl/src/extra/widgets/led/../../../../src/hal/../misc/lv_color.h ****         *res_opa = LV_OPA_COVER;
 553:lvgl/src/extra/widgets/led/../../../../src/hal/../misc/lv_color.h ****     }
 554:lvgl/src/extra/widgets/led/../../../../src/hal/../misc/lv_color.h ****     /*Both colors have alpha. Expensive calculation need to be applied*/
 555:lvgl/src/extra/widgets/led/../../../../src/hal/../misc/lv_color.h ****     else {
 556:lvgl/src/extra/widgets/led/../../../../src/hal/../misc/lv_color.h ****         /*Save the parameters and the result. If they will be asked again don't compute again*/
 557:lvgl/src/extra/widgets/led/../../../../src/hal/../misc/lv_color.h ****         static lv_opa_t fg_opa_save     = 0;
 558:lvgl/src/extra/widgets/led/../../../../src/hal/../misc/lv_color.h ****         static lv_opa_t bg_opa_save     = 0;
 559:lvgl/src/extra/widgets/led/../../../../src/hal/../misc/lv_color.h ****         static lv_color_t fg_color_save = _LV_COLOR_ZERO_INITIALIZER;
 560:lvgl/src/extra/widgets/led/../../../../src/hal/../misc/lv_color.h ****         static lv_color_t bg_color_save = _LV_COLOR_ZERO_INITIALIZER;
 561:lvgl/src/extra/widgets/led/../../../../src/hal/../misc/lv_color.h ****         static lv_color_t res_color_saved = _LV_COLOR_ZERO_INITIALIZER;
 562:lvgl/src/extra/widgets/led/../../../../src/hal/../misc/lv_color.h ****         static lv_opa_t res_opa_saved = 0;
 563:lvgl/src/extra/widgets/led/../../../../src/hal/../misc/lv_color.h **** 
 564:lvgl/src/extra/widgets/led/../../../../src/hal/../misc/lv_color.h ****         if(fg_opa != fg_opa_save || bg_opa != bg_opa_save || fg_color.full != fg_color_save.full ||
 565:lvgl/src/extra/widgets/led/../../../../src/hal/../misc/lv_color.h ****            bg_color.full != bg_color_save.full) {
 566:lvgl/src/extra/widgets/led/../../../../src/hal/../misc/lv_color.h ****             fg_opa_save        = fg_opa;
 567:lvgl/src/extra/widgets/led/../../../../src/hal/../misc/lv_color.h ****             bg_opa_save        = bg_opa;
 568:lvgl/src/extra/widgets/led/../../../../src/hal/../misc/lv_color.h ****             fg_color_save.full = fg_color.full;
 569:lvgl/src/extra/widgets/led/../../../../src/hal/../misc/lv_color.h ****             bg_color_save.full = bg_color.full;
 570:lvgl/src/extra/widgets/led/../../../../src/hal/../misc/lv_color.h ****             /*Info:
 571:lvgl/src/extra/widgets/led/../../../../src/hal/../misc/lv_color.h ****              * https://en.wikipedia.org/wiki/Alpha_compositing#Analytical_derivation_of_the_over_op
 572:lvgl/src/extra/widgets/led/../../../../src/hal/../misc/lv_color.h ****             res_opa_saved = 255 - ((uint16_t)((uint16_t)(255 - fg_opa) * (255 - bg_opa)) >> 8);
 573:lvgl/src/extra/widgets/led/../../../../src/hal/../misc/lv_color.h ****             if(res_opa_saved == 0) {
 574:lvgl/src/extra/widgets/led/../../../../src/hal/../misc/lv_color.h ****                 while(1)
 575:lvgl/src/extra/widgets/led/../../../../src/hal/../misc/lv_color.h ****                     ;
 576:lvgl/src/extra/widgets/led/../../../../src/hal/../misc/lv_color.h ****             }
 577:lvgl/src/extra/widgets/led/../../../../src/hal/../misc/lv_color.h ****             lv_opa_t ratio = (uint16_t)((uint16_t)fg_opa * 255) / res_opa_saved;
 578:lvgl/src/extra/widgets/led/../../../../src/hal/../misc/lv_color.h ****             res_color_saved = lv_color_mix(fg_color, bg_color, ratio);
 579:lvgl/src/extra/widgets/led/../../../../src/hal/../misc/lv_color.h **** 
 580:lvgl/src/extra/widgets/led/../../../../src/hal/../misc/lv_color.h ****         }
 581:lvgl/src/extra/widgets/led/../../../../src/hal/../misc/lv_color.h **** 
 582:lvgl/src/extra/widgets/led/../../../../src/hal/../misc/lv_color.h ****         res_color->full = res_color_saved.full;
 583:lvgl/src/extra/widgets/led/../../../../src/hal/../misc/lv_color.h ****         *res_opa = res_opa_saved;
 584:lvgl/src/extra/widgets/led/../../../../src/hal/../misc/lv_color.h ****     }
 585:lvgl/src/extra/widgets/led/../../../../src/hal/../misc/lv_color.h **** }
 586:lvgl/src/extra/widgets/led/../../../../src/hal/../misc/lv_color.h **** 
 587:lvgl/src/extra/widgets/led/../../../../src/hal/../misc/lv_color.h **** //! @endcond
 588:lvgl/src/extra/widgets/led/../../../../src/hal/../misc/lv_color.h **** 
 589:lvgl/src/extra/widgets/led/../../../../src/hal/../misc/lv_color.h **** /**
 590:lvgl/src/extra/widgets/led/../../../../src/hal/../misc/lv_color.h ****  * Get the brightness of a color
 591:lvgl/src/extra/widgets/led/../../../../src/hal/../misc/lv_color.h ****  * @param color a color
ARM GAS  /var/folders/k2/cd9bl_j17z77g23y6ffqb_400000gn/T//ccffY0Qv.s 			page 18


 592:lvgl/src/extra/widgets/led/../../../../src/hal/../misc/lv_color.h ****  * @return the brightness [0..255]
 593:lvgl/src/extra/widgets/led/../../../../src/hal/../misc/lv_color.h ****  */
 594:lvgl/src/extra/widgets/led/../../../../src/hal/../misc/lv_color.h **** static inline uint8_t lv_color_brightness(lv_color_t color)
 595:lvgl/src/extra/widgets/led/../../../../src/hal/../misc/lv_color.h **** {
 596:lvgl/src/extra/widgets/led/../../../../src/hal/../misc/lv_color.h ****     lv_color32_t c32;
 597:lvgl/src/extra/widgets/led/../../../../src/hal/../misc/lv_color.h ****     c32.full        = lv_color_to32(color);
 598:lvgl/src/extra/widgets/led/../../../../src/hal/../misc/lv_color.h ****     uint16_t bright = (uint16_t)(3u * LV_COLOR_GET_R32(c32) + LV_COLOR_GET_B32(c32) + 4u * LV_COLOR
 599:lvgl/src/extra/widgets/led/../../../../src/hal/../misc/lv_color.h ****     return (uint8_t)(bright >> 3);
 600:lvgl/src/extra/widgets/led/../../../../src/hal/../misc/lv_color.h **** }
 601:lvgl/src/extra/widgets/led/../../../../src/hal/../misc/lv_color.h **** 
 602:lvgl/src/extra/widgets/led/../../../../src/hal/../misc/lv_color.h **** static inline lv_color_t lv_color_make(uint8_t r, uint8_t g, uint8_t b)
 603:lvgl/src/extra/widgets/led/../../../../src/hal/../misc/lv_color.h **** {
 604:lvgl/src/extra/widgets/led/../../../../src/hal/../misc/lv_color.h ****     return _LV_COLOR_MAKE_TYPE_HELPER LV_COLOR_MAKE(r, g, b);
 605:lvgl/src/extra/widgets/led/../../../../src/hal/../misc/lv_color.h **** }
 606:lvgl/src/extra/widgets/led/../../../../src/hal/../misc/lv_color.h **** 
 607:lvgl/src/extra/widgets/led/../../../../src/hal/../misc/lv_color.h **** static inline lv_color_t lv_color_hex(uint32_t c)
 608:lvgl/src/extra/widgets/led/../../../../src/hal/../misc/lv_color.h **** {
 609:lvgl/src/extra/widgets/led/../../../../src/hal/../misc/lv_color.h ****     return lv_color_make((uint8_t)((c >> 16) & 0xFF), (uint8_t)((c >> 8) & 0xFF), (uint8_t)(c & 0xF
 610:lvgl/src/extra/widgets/led/../../../../src/hal/../misc/lv_color.h **** }
 611:lvgl/src/extra/widgets/led/../../../../src/hal/../misc/lv_color.h **** 
 612:lvgl/src/extra/widgets/led/../../../../src/hal/../misc/lv_color.h **** static inline lv_color_t lv_color_hex3(uint32_t c)
 613:lvgl/src/extra/widgets/led/../../../../src/hal/../misc/lv_color.h **** {
 614:lvgl/src/extra/widgets/led/../../../../src/hal/../misc/lv_color.h ****     return lv_color_make((uint8_t)(((c >> 4) & 0xF0) | ((c >> 8) & 0xF)), (uint8_t)((c & 0xF0) | ((
 615:lvgl/src/extra/widgets/led/../../../../src/hal/../misc/lv_color.h ****                          (uint8_t)((c & 0xF) | ((c & 0xF) << 4)));
 616:lvgl/src/extra/widgets/led/../../../../src/hal/../misc/lv_color.h **** }
 617:lvgl/src/extra/widgets/led/../../../../src/hal/../misc/lv_color.h **** 
 618:lvgl/src/extra/widgets/led/../../../../src/hal/../misc/lv_color.h **** static inline void lv_color_filter_dsc_init(lv_color_filter_dsc_t * dsc, lv_color_filter_cb_t cb)
 619:lvgl/src/extra/widgets/led/../../../../src/hal/../misc/lv_color.h **** {
 620:lvgl/src/extra/widgets/led/../../../../src/hal/../misc/lv_color.h ****     dsc->filter_cb = cb;
 621:lvgl/src/extra/widgets/led/../../../../src/hal/../misc/lv_color.h **** }
 622:lvgl/src/extra/widgets/led/../../../../src/hal/../misc/lv_color.h **** 
 623:lvgl/src/extra/widgets/led/../../../../src/hal/../misc/lv_color.h **** //! @cond Doxygen_Suppress
 624:lvgl/src/extra/widgets/led/../../../../src/hal/../misc/lv_color.h **** //!
 625:lvgl/src/extra/widgets/led/../../../../src/hal/../misc/lv_color.h **** LV_ATTRIBUTE_FAST_MEM void lv_color_fill(lv_color_t * buf, lv_color_t color, uint32_t px_num);
 626:lvgl/src/extra/widgets/led/../../../../src/hal/../misc/lv_color.h **** 
 627:lvgl/src/extra/widgets/led/../../../../src/hal/../misc/lv_color.h **** //! @endcond
 628:lvgl/src/extra/widgets/led/../../../../src/hal/../misc/lv_color.h **** lv_color_t lv_color_lighten(lv_color_t c, lv_opa_t lvl);
 629:lvgl/src/extra/widgets/led/../../../../src/hal/../misc/lv_color.h **** 
 630:lvgl/src/extra/widgets/led/../../../../src/hal/../misc/lv_color.h **** lv_color_t lv_color_darken(lv_color_t c, lv_opa_t lvl);
 631:lvgl/src/extra/widgets/led/../../../../src/hal/../misc/lv_color.h **** 
 632:lvgl/src/extra/widgets/led/../../../../src/hal/../misc/lv_color.h **** lv_color_t lv_color_change_lightness(lv_color_t c, lv_opa_t lvl);
 633:lvgl/src/extra/widgets/led/../../../../src/hal/../misc/lv_color.h **** 
 634:lvgl/src/extra/widgets/led/../../../../src/hal/../misc/lv_color.h **** /**
 635:lvgl/src/extra/widgets/led/../../../../src/hal/../misc/lv_color.h ****  * Convert a HSV color to RGB
 636:lvgl/src/extra/widgets/led/../../../../src/hal/../misc/lv_color.h ****  * @param h hue [0..359]
 637:lvgl/src/extra/widgets/led/../../../../src/hal/../misc/lv_color.h ****  * @param s saturation [0..100]
 638:lvgl/src/extra/widgets/led/../../../../src/hal/../misc/lv_color.h ****  * @param v value [0..100]
 639:lvgl/src/extra/widgets/led/../../../../src/hal/../misc/lv_color.h ****  * @return the given RGB color in RGB (with LV_COLOR_DEPTH depth)
 640:lvgl/src/extra/widgets/led/../../../../src/hal/../misc/lv_color.h ****  */
 641:lvgl/src/extra/widgets/led/../../../../src/hal/../misc/lv_color.h **** lv_color_t lv_color_hsv_to_rgb(uint16_t h, uint8_t s, uint8_t v);
 642:lvgl/src/extra/widgets/led/../../../../src/hal/../misc/lv_color.h **** 
 643:lvgl/src/extra/widgets/led/../../../../src/hal/../misc/lv_color.h **** /**
 644:lvgl/src/extra/widgets/led/../../../../src/hal/../misc/lv_color.h ****  * Convert a 32-bit RGB color to HSV
 645:lvgl/src/extra/widgets/led/../../../../src/hal/../misc/lv_color.h ****  * @param r8 8-bit red
 646:lvgl/src/extra/widgets/led/../../../../src/hal/../misc/lv_color.h ****  * @param g8 8-bit green
 647:lvgl/src/extra/widgets/led/../../../../src/hal/../misc/lv_color.h ****  * @param b8 8-bit blue
 648:lvgl/src/extra/widgets/led/../../../../src/hal/../misc/lv_color.h ****  * @return the given RGB color in HSV
ARM GAS  /var/folders/k2/cd9bl_j17z77g23y6ffqb_400000gn/T//ccffY0Qv.s 			page 19


 649:lvgl/src/extra/widgets/led/../../../../src/hal/../misc/lv_color.h ****  */
 650:lvgl/src/extra/widgets/led/../../../../src/hal/../misc/lv_color.h **** lv_color_hsv_t lv_color_rgb_to_hsv(uint8_t r8, uint8_t g8, uint8_t b8);
 651:lvgl/src/extra/widgets/led/../../../../src/hal/../misc/lv_color.h **** 
 652:lvgl/src/extra/widgets/led/../../../../src/hal/../misc/lv_color.h **** /**
 653:lvgl/src/extra/widgets/led/../../../../src/hal/../misc/lv_color.h ****  * Convert a color to HSV
 654:lvgl/src/extra/widgets/led/../../../../src/hal/../misc/lv_color.h ****  * @param color color
 655:lvgl/src/extra/widgets/led/../../../../src/hal/../misc/lv_color.h ****  * @return the given color in HSV
 656:lvgl/src/extra/widgets/led/../../../../src/hal/../misc/lv_color.h ****  */
 657:lvgl/src/extra/widgets/led/../../../../src/hal/../misc/lv_color.h **** lv_color_hsv_t lv_color_to_hsv(lv_color_t color);
 658:lvgl/src/extra/widgets/led/../../../../src/hal/../misc/lv_color.h **** 
 659:lvgl/src/extra/widgets/led/../../../../src/hal/../misc/lv_color.h **** /**
 660:lvgl/src/extra/widgets/led/../../../../src/hal/../misc/lv_color.h ****  * Just a wrapper around LV_COLOR_CHROMA_KEY because it might be more convenient to use a function 
 661:lvgl/src/extra/widgets/led/../../../../src/hal/../misc/lv_color.h ****  * @return LV_COLOR_CHROMA_KEY
 662:lvgl/src/extra/widgets/led/../../../../src/hal/../misc/lv_color.h ****  */
 663:lvgl/src/extra/widgets/led/../../../../src/hal/../misc/lv_color.h **** static inline lv_color_t lv_color_chroma_key(void)
 664:lvgl/src/extra/widgets/led/../../../../src/hal/../misc/lv_color.h **** {
 665:lvgl/src/extra/widgets/led/../../../../src/hal/../misc/lv_color.h ****     return LV_COLOR_CHROMA_KEY;
 666:lvgl/src/extra/widgets/led/../../../../src/hal/../misc/lv_color.h **** }
 667:lvgl/src/extra/widgets/led/../../../../src/hal/../misc/lv_color.h **** 
 668:lvgl/src/extra/widgets/led/../../../../src/hal/../misc/lv_color.h **** /**********************
 669:lvgl/src/extra/widgets/led/../../../../src/hal/../misc/lv_color.h ****  *  PREDEFINED COLORS
 670:lvgl/src/extra/widgets/led/../../../../src/hal/../misc/lv_color.h ****  **********************/
 671:lvgl/src/extra/widgets/led/../../../../src/hal/../misc/lv_color.h **** /*Source: https://vuetifyjs.com/en/styles/colors/#material-colors*/
 672:lvgl/src/extra/widgets/led/../../../../src/hal/../misc/lv_color.h **** 
 673:lvgl/src/extra/widgets/led/../../../../src/hal/../misc/lv_color.h **** lv_color_t lv_palette_main(lv_palette_t p);
 674:lvgl/src/extra/widgets/led/../../../../src/hal/../misc/lv_color.h **** static inline lv_color_t lv_color_white(void) { return lv_color_make(0xff, 0xff, 0xff);}
 675:lvgl/src/extra/widgets/led/../../../../src/hal/../misc/lv_color.h **** static inline lv_color_t lv_color_black(void) { return lv_color_make(0x00, 0x0, 0x00);}
 164              		.loc 2 675 26 view .LVU36
 165              	.LBE139:
 166              	.LBE138:
 167              		.loc 2 675 49 view .LVU37
 168              	.LBB219:
 169              	.LBB142:
 170              	.LBB140:
 171              	.LBI140:
 602:lvgl/src/extra/widgets/led/../../../../src/hal/../misc/lv_color.h **** {
 172              		.loc 2 602 26 view .LVU38
 173              	.LBB141:
 604:lvgl/src/extra/widgets/led/../../../../src/hal/../misc/lv_color.h **** }
 174              		.loc 2 604 5 view .LVU39
 604:lvgl/src/extra/widgets/led/../../../../src/hal/../misc/lv_color.h **** }
 175              		.loc 2 604 12 is_stmt 0 view .LVU40
 176 0040 0026     		movs	r6, #0
 177              	.LVL19:
 604:lvgl/src/extra/widgets/led/../../../../src/hal/../misc/lv_color.h **** }
 178              		.loc 2 604 12 view .LVU41
 179 0042 6FF30706 		bfc	r6, #0, #8
 180 0046 6FF30F26 		bfc	r6, #8, #8
 181 004a 6FF31746 		bfc	r6, #16, #8
 182 004e 46F07F46 		orr	r6, r6, #-16777216
 183              	.LVL20:
 604:lvgl/src/extra/widgets/led/../../../../src/hal/../misc/lv_color.h **** }
 184              		.loc 2 604 12 view .LVU42
 185 0052 0299     		ldr	r1, [sp, #8]
 186              	.LVL21:
 604:lvgl/src/extra/widgets/led/../../../../src/hal/../misc/lv_color.h **** }
 187              		.loc 2 604 12 view .LVU43
ARM GAS  /var/folders/k2/cd9bl_j17z77g23y6ffqb_400000gn/T//ccffY0Qv.s 			page 20


 188              	.LBE141:
 189              	.LBE140:
 190              	.LBE142:
 191              	.LBB143:
 192              	.LBI143:
 594:lvgl/src/extra/widgets/led/../../../../src/hal/../misc/lv_color.h **** {
 193              		.loc 2 594 23 is_stmt 1 view .LVU44
 194              	.LBB144:
 596:lvgl/src/extra/widgets/led/../../../../src/hal/../misc/lv_color.h ****     c32.full        = lv_color_to32(color);
 195              		.loc 2 596 5 view .LVU45
 597:lvgl/src/extra/widgets/led/../../../../src/hal/../misc/lv_color.h ****     uint16_t bright = (uint16_t)(3u * LV_COLOR_GET_R32(c32) + LV_COLOR_GET_B32(c32) + 4u * LV_COLOR
 196              		.loc 2 597 5 view .LVU46
 197              	.LBB145:
 198              	.LBI145:
 395:lvgl/src/extra/widgets/led/../../../../src/hal/../misc/lv_color.h **** {
 199              		.loc 2 395 24 view .LVU47
 200              	.LBB146:
 446:lvgl/src/extra/widgets/led/../../../../src/hal/../misc/lv_color.h **** #endif
 201              		.loc 2 446 5 view .LVU48
 202              	.LBE146:
 203              	.LBE145:
 598:lvgl/src/extra/widgets/led/../../../../src/hal/../misc/lv_color.h ****     return (uint8_t)(bright >> 3);
 204              		.loc 2 598 5 view .LVU49
 598:lvgl/src/extra/widgets/led/../../../../src/hal/../misc/lv_color.h ****     return (uint8_t)(bright >> 3);
 205              		.loc 2 598 39 is_stmt 0 view .LVU50
 206 0054 C1F30742 		ubfx	r2, r1, #16, #8
 598:lvgl/src/extra/widgets/led/../../../../src/hal/../misc/lv_color.h ****     return (uint8_t)(bright >> 3);
 207              		.loc 2 598 37 view .LVU51
 208 0058 02EB4202 		add	r2, r2, r2, lsl #1
 598:lvgl/src/extra/widgets/led/../../../../src/hal/../misc/lv_color.h ****     return (uint8_t)(bright >> 3);
 209              		.loc 2 598 92 view .LVU52
 210 005c C1F30723 		ubfx	r3, r1, #8, #8
 598:lvgl/src/extra/widgets/led/../../../../src/hal/../misc/lv_color.h ****     return (uint8_t)(bright >> 3);
 211              		.loc 2 598 85 view .LVU53
 212 0060 02EB8303 		add	r3, r2, r3, lsl #2
 598:lvgl/src/extra/widgets/led/../../../../src/hal/../misc/lv_color.h ****     return (uint8_t)(bright >> 3);
 213              		.loc 2 598 63 view .LVU54
 214 0064 C9B2     		uxtb	r1, r1
 215              	.LVL22:
 598:lvgl/src/extra/widgets/led/../../../../src/hal/../misc/lv_color.h ****     return (uint8_t)(bright >> 3);
 216              		.loc 2 598 14 view .LVU55
 217 0066 11FA83F3 		uxtah	r3, r1, r3
 218              	.LVL23:
 599:lvgl/src/extra/widgets/led/../../../../src/hal/../misc/lv_color.h **** }
 219              		.loc 2 599 5 is_stmt 1 view .LVU56
 599:lvgl/src/extra/widgets/led/../../../../src/hal/../misc/lv_color.h **** }
 220              		.loc 2 599 12 is_stmt 0 view .LVU57
 221 006a C3F3C701 		ubfx	r1, r3, #3, #8
 222              	.LVL24:
 599:lvgl/src/extra/widgets/led/../../../../src/hal/../misc/lv_color.h **** }
 223              		.loc 2 599 12 view .LVU58
 224 006e 6F6A     		ldr	r7, [r5, #36]
 225              	.LVL25:
 599:lvgl/src/extra/widgets/led/../../../../src/hal/../misc/lv_color.h **** }
 226              		.loc 2 599 12 view .LVU59
 227              	.LBE144:
 228              	.LBE143:
ARM GAS  /var/folders/k2/cd9bl_j17z77g23y6ffqb_400000gn/T//ccffY0Qv.s 			page 21


 229              	.LBB147:
 230              	.LBI147:
 459:lvgl/src/extra/widgets/led/../../../../src/hal/../misc/lv_color.h **** {
 231              		.loc 2 459 48 is_stmt 1 view .LVU60
 232              	.LBB148:
 461:lvgl/src/extra/widgets/led/../../../../src/hal/../misc/lv_color.h **** #if LV_COLOR_DEPTH != 1
 233              		.loc 2 461 5 view .LVU61
 464:lvgl/src/extra/widgets/led/../../../../src/hal/../misc/lv_color.h ****                                         (255 - mix) + LV_COLOR_MIX_ROUND_OFS));
 234              		.loc 2 464 5 view .LVU62
 464:lvgl/src/extra/widgets/led/../../../../src/hal/../misc/lv_color.h ****                                         (255 - mix) + LV_COLOR_MIX_ROUND_OFS));
 235              		.loc 2 464 5 is_stmt 0 view .LVU63
 236 0070 C7F30743 		ubfx	r3, r7, #16, #8
 237 0074 C6F30740 		ubfx	r0, r6, #16, #8
 238 0078 C1F1FF02 		rsb	r2, r1, #255
 239 007c 02FB00F0 		mul	r0, r2, r0
 240 0080 01FB0300 		mla	r0, r1, r3, r0
 241 0084 00EB0023 		add	r3, r0, r0, lsl #8
 242 0088 00EBC310 		add	r0, r0, r3, lsl #7
 243 008c C0F3C750 		ubfx	r0, r0, #23, #8
 244 0090 4FF00008 		mov	r8, #0
 245              	.LVL26:
 464:lvgl/src/extra/widgets/led/../../../../src/hal/../misc/lv_color.h ****                                         (255 - mix) + LV_COLOR_MIX_ROUND_OFS));
 246              		.loc 2 464 5 view .LVU64
 247 0094 60F31748 		bfi	r8, r0, #16, #8
 248              	.LVL27:
 466:lvgl/src/extra/widgets/led/../../../../src/hal/../misc/lv_color.h ****                                         (255 - mix) + LV_COLOR_MIX_ROUND_OFS));
 249              		.loc 2 466 5 is_stmt 1 view .LVU65
 250 0098 C7F30723 		ubfx	r3, r7, #8, #8
 251 009c C6F30720 		ubfx	r0, r6, #8, #8
 252 00a0 02FB00F0 		mul	r0, r2, r0
 253 00a4 03FB0100 		mla	r0, r3, r1, r0
 254 00a8 00EB0023 		add	r3, r0, r0, lsl #8
 255 00ac 00EBC310 		add	r0, r0, r3, lsl #7
 256 00b0 C0F3C750 		ubfx	r0, r0, #23, #8
 257 00b4 60F30F28 		bfi	r8, r0, #8, #8
 468:lvgl/src/extra/widgets/led/../../../../src/hal/../misc/lv_color.h ****                                         (255 - mix) + LV_COLOR_MIX_ROUND_OFS));
 258              		.loc 2 468 5 view .LVU66
 259 00b8 F8B2     		uxtb	r0, r7
 260 00ba F3B2     		uxtb	r3, r6
 261 00bc 02FB03F3 		mul	r3, r2, r3
 262 00c0 00FB0133 		mla	r3, r0, r1, r3
 263 00c4 03EB0322 		add	r2, r3, r3, lsl #8
 264 00c8 03EBC213 		add	r3, r3, r2, lsl #7
 265 00cc C3F3C753 		ubfx	r3, r3, #23, #8
 266 00d0 63F30708 		bfi	r8, r3, #0, #8
 470:lvgl/src/extra/widgets/led/../../../../src/hal/../misc/lv_color.h **** #else
 267              		.loc 2 470 5 view .LVU67
 268 00d4 48F07F48 		orr	r8, r8, #-16777216
 269              	.LVL28:
 476:lvgl/src/extra/widgets/led/../../../../src/hal/../misc/lv_color.h **** }
 270              		.loc 2 476 5 view .LVU68
 476:lvgl/src/extra/widgets/led/../../../../src/hal/../misc/lv_color.h **** }
 271              		.loc 2 476 5 is_stmt 0 view .LVU69
 272              	.LBE148:
 273              	.LBE147:
 182:lvgl/src/extra/widgets/led/lv_led.c ****         rect_dsc.bg_grad_color = lv_color_mix(led->color, lv_color_black(), lv_color_brightness(rec
 274              		.loc 1 182 29 view .LVU70
ARM GAS  /var/folders/k2/cd9bl_j17z77g23y6ffqb_400000gn/T//ccffY0Qv.s 			page 22


 275 00d8 CDF80880 		str	r8, [sp, #8]
 183:lvgl/src/extra/widgets/led/lv_led.c ****         rect_dsc.shadow_color = lv_color_mix(led->color, lv_color_black(), lv_color_brightness(rect
 276              		.loc 1 183 9 is_stmt 1 view .LVU71
 277              	.LBB149:
 278              	.LBI149:
 279              		.loc 2 675 26 view .LVU72
 280              	.LBE149:
 281              	.LBE219:
 282              		.loc 2 675 49 view .LVU73
 283              	.LVL29:
 284              	.LBB220:
 285              	.LBB152:
 286              	.LBB150:
 287              	.LBI150:
 602:lvgl/src/extra/widgets/led/../../../../src/hal/../misc/lv_color.h **** {
 288              		.loc 2 602 26 view .LVU74
 289              	.LBB151:
 604:lvgl/src/extra/widgets/led/../../../../src/hal/../misc/lv_color.h **** }
 290              		.loc 2 604 5 view .LVU75
 604:lvgl/src/extra/widgets/led/../../../../src/hal/../misc/lv_color.h **** }
 291              		.loc 2 604 12 is_stmt 0 view .LVU76
 292 00dc 4FF0000C 		mov	ip, #0
 293 00e0 6FF3070C 		bfc	ip, #0, #8
 294 00e4 6FF30F2C 		bfc	ip, #8, #8
 295 00e8 6FF3174C 		bfc	ip, #16, #8
 296 00ec 4CF07F4C 		orr	ip, ip, #-16777216
 297              	.LVL30:
 604:lvgl/src/extra/widgets/led/../../../../src/hal/../misc/lv_color.h **** }
 298              		.loc 2 604 12 view .LVU77
 299 00f0 039A     		ldr	r2, [sp, #12]
 300              	.LVL31:
 604:lvgl/src/extra/widgets/led/../../../../src/hal/../misc/lv_color.h **** }
 301              		.loc 2 604 12 view .LVU78
 302              	.LBE151:
 303              	.LBE150:
 304              	.LBE152:
 305              	.LBB153:
 306              	.LBI153:
 594:lvgl/src/extra/widgets/led/../../../../src/hal/../misc/lv_color.h **** {
 307              		.loc 2 594 23 is_stmt 1 view .LVU79
 308              	.LBB154:
 596:lvgl/src/extra/widgets/led/../../../../src/hal/../misc/lv_color.h ****     c32.full        = lv_color_to32(color);
 309              		.loc 2 596 5 view .LVU80
 597:lvgl/src/extra/widgets/led/../../../../src/hal/../misc/lv_color.h ****     uint16_t bright = (uint16_t)(3u * LV_COLOR_GET_R32(c32) + LV_COLOR_GET_B32(c32) + 4u * LV_COLOR
 310              		.loc 2 597 5 view .LVU81
 311              	.LBB155:
 312              	.LBI155:
 395:lvgl/src/extra/widgets/led/../../../../src/hal/../misc/lv_color.h **** {
 313              		.loc 2 395 24 view .LVU82
 314              	.LBB156:
 446:lvgl/src/extra/widgets/led/../../../../src/hal/../misc/lv_color.h **** #endif
 315              		.loc 2 446 5 view .LVU83
 316              	.LBE156:
 317              	.LBE155:
 598:lvgl/src/extra/widgets/led/../../../../src/hal/../misc/lv_color.h ****     return (uint8_t)(bright >> 3);
 318              		.loc 2 598 5 view .LVU84
 598:lvgl/src/extra/widgets/led/../../../../src/hal/../misc/lv_color.h ****     return (uint8_t)(bright >> 3);
ARM GAS  /var/folders/k2/cd9bl_j17z77g23y6ffqb_400000gn/T//ccffY0Qv.s 			page 23


 319              		.loc 2 598 39 is_stmt 0 view .LVU85
 320 00f2 C2F30741 		ubfx	r1, r2, #16, #8
 598:lvgl/src/extra/widgets/led/../../../../src/hal/../misc/lv_color.h ****     return (uint8_t)(bright >> 3);
 321              		.loc 2 598 37 view .LVU86
 322 00f6 01EB4101 		add	r1, r1, r1, lsl #1
 598:lvgl/src/extra/widgets/led/../../../../src/hal/../misc/lv_color.h ****     return (uint8_t)(bright >> 3);
 323              		.loc 2 598 92 view .LVU87
 324 00fa C2F30723 		ubfx	r3, r2, #8, #8
 598:lvgl/src/extra/widgets/led/../../../../src/hal/../misc/lv_color.h ****     return (uint8_t)(bright >> 3);
 325              		.loc 2 598 85 view .LVU88
 326 00fe 01EB8303 		add	r3, r1, r3, lsl #2
 598:lvgl/src/extra/widgets/led/../../../../src/hal/../misc/lv_color.h ****     return (uint8_t)(bright >> 3);
 327              		.loc 2 598 63 view .LVU89
 328 0102 D2B2     		uxtb	r2, r2
 329              	.LVL32:
 598:lvgl/src/extra/widgets/led/../../../../src/hal/../misc/lv_color.h ****     return (uint8_t)(bright >> 3);
 330              		.loc 2 598 14 view .LVU90
 331 0104 12FA83F2 		uxtah	r2, r2, r3
 332              	.LVL33:
 599:lvgl/src/extra/widgets/led/../../../../src/hal/../misc/lv_color.h **** }
 333              		.loc 2 599 5 is_stmt 1 view .LVU91
 599:lvgl/src/extra/widgets/led/../../../../src/hal/../misc/lv_color.h **** }
 334              		.loc 2 599 12 is_stmt 0 view .LVU92
 335 0108 C2F3C703 		ubfx	r3, r2, #3, #8
 336              	.LVL34:
 599:lvgl/src/extra/widgets/led/../../../../src/hal/../misc/lv_color.h **** }
 337              		.loc 2 599 12 view .LVU93
 338              	.LBE154:
 339              	.LBE153:
 340              	.LBB157:
 341              	.LBI157:
 459:lvgl/src/extra/widgets/led/../../../../src/hal/../misc/lv_color.h **** {
 342              		.loc 2 459 48 is_stmt 1 view .LVU94
 343              	.LBB158:
 461:lvgl/src/extra/widgets/led/../../../../src/hal/../misc/lv_color.h **** #if LV_COLOR_DEPTH != 1
 344              		.loc 2 461 5 view .LVU95
 464:lvgl/src/extra/widgets/led/../../../../src/hal/../misc/lv_color.h ****                                         (255 - mix) + LV_COLOR_MIX_ROUND_OFS));
 345              		.loc 2 464 5 view .LVU96
 346 010c C7F30746 		ubfx	r6, r7, #16, #8
 347 0110 CCF30742 		ubfx	r2, ip, #16, #8
 348 0114 C3F1FF01 		rsb	r1, r3, #255
 349 0118 01FB02F2 		mul	r2, r1, r2
 350 011c 03FB0622 		mla	r2, r3, r6, r2
 351 0120 02EB0226 		add	r6, r2, r2, lsl #8
 352 0124 02EBC612 		add	r2, r2, r6, lsl #7
 353 0128 C2F3C752 		ubfx	r2, r2, #23, #8
 354 012c 4FF0000E 		mov	lr, #0
 355              	.LVL35:
 464:lvgl/src/extra/widgets/led/../../../../src/hal/../misc/lv_color.h ****                                         (255 - mix) + LV_COLOR_MIX_ROUND_OFS));
 356              		.loc 2 464 5 is_stmt 0 view .LVU97
 357 0130 62F3174E 		bfi	lr, r2, #16, #8
 358              	.LVL36:
 466:lvgl/src/extra/widgets/led/../../../../src/hal/../misc/lv_color.h ****                                         (255 - mix) + LV_COLOR_MIX_ROUND_OFS));
 359              		.loc 2 466 5 is_stmt 1 view .LVU98
 360 0134 C7F30722 		ubfx	r2, r7, #8, #8
 361 0138 CCF30726 		ubfx	r6, ip, #8, #8
 362 013c 01FB06F6 		mul	r6, r1, r6
ARM GAS  /var/folders/k2/cd9bl_j17z77g23y6ffqb_400000gn/T//ccffY0Qv.s 			page 24


 363 0140 02FB0366 		mla	r6, r2, r3, r6
 364 0144 06EB0622 		add	r2, r6, r6, lsl #8
 365 0148 06EBC216 		add	r6, r6, r2, lsl #7
 366 014c C6F3C756 		ubfx	r6, r6, #23, #8
 367 0150 66F30F2E 		bfi	lr, r6, #8, #8
 468:lvgl/src/extra/widgets/led/../../../../src/hal/../misc/lv_color.h ****                                         (255 - mix) + LV_COLOR_MIX_ROUND_OFS));
 368              		.loc 2 468 5 view .LVU99
 369 0154 5FFA8CF2 		uxtb	r2, ip
 370 0158 01FB02F2 		mul	r2, r1, r2
 371 015c 00FB0322 		mla	r2, r0, r3, r2
 372 0160 02EB0223 		add	r3, r2, r2, lsl #8
 373              	.LVL37:
 468:lvgl/src/extra/widgets/led/../../../../src/hal/../misc/lv_color.h ****                                         (255 - mix) + LV_COLOR_MIX_ROUND_OFS));
 374              		.loc 2 468 5 is_stmt 0 view .LVU100
 375 0164 02EBC312 		add	r2, r2, r3, lsl #7
 376 0168 C2F3C752 		ubfx	r2, r2, #23, #8
 377 016c 62F3070E 		bfi	lr, r2, #0, #8
 470:lvgl/src/extra/widgets/led/../../../../src/hal/../misc/lv_color.h **** #else
 378              		.loc 2 470 5 is_stmt 1 view .LVU101
 379 0170 4EF07F4E 		orr	lr, lr, #-16777216
 380              	.LVL38:
 476:lvgl/src/extra/widgets/led/../../../../src/hal/../misc/lv_color.h **** }
 381              		.loc 2 476 5 view .LVU102
 476:lvgl/src/extra/widgets/led/../../../../src/hal/../misc/lv_color.h **** }
 382              		.loc 2 476 5 is_stmt 0 view .LVU103
 383              	.LBE158:
 384              	.LBE157:
 183:lvgl/src/extra/widgets/led/lv_led.c ****         rect_dsc.shadow_color = lv_color_mix(led->color, lv_color_black(), lv_color_brightness(rect
 385              		.loc 1 183 34 view .LVU104
 386 0174 CDF80CE0 		str	lr, [sp, #12]
 184:lvgl/src/extra/widgets/led/lv_led.c ****         rect_dsc.border_color = lv_color_mix(led->color, lv_color_black(), lv_color_brightness(rect
 387              		.loc 1 184 9 is_stmt 1 view .LVU105
 388              	.LBB159:
 389              	.LBI159:
 390              		.loc 2 675 26 view .LVU106
 391              	.LBE159:
 392              	.LBE220:
 393              		.loc 2 675 49 view .LVU107
 394              	.LVL39:
 395              	.LBB221:
 396              	.LBB162:
 397              	.LBB160:
 398              	.LBI160:
 602:lvgl/src/extra/widgets/led/../../../../src/hal/../misc/lv_color.h **** {
 399              		.loc 2 602 26 view .LVU108
 400              	.LBB161:
 604:lvgl/src/extra/widgets/led/../../../../src/hal/../misc/lv_color.h **** }
 401              		.loc 2 604 5 view .LVU109
 604:lvgl/src/extra/widgets/led/../../../../src/hal/../misc/lv_color.h **** }
 402              		.loc 2 604 12 is_stmt 0 view .LVU110
 403 0178 4FF0000C 		mov	ip, #0
 404 017c 6FF3070C 		bfc	ip, #0, #8
 405 0180 6FF30F2C 		bfc	ip, #8, #8
 406 0184 6FF3174C 		bfc	ip, #16, #8
 407 0188 4CF07F4C 		orr	ip, ip, #-16777216
 408              	.LVL40:
 604:lvgl/src/extra/widgets/led/../../../../src/hal/../misc/lv_color.h **** }
ARM GAS  /var/folders/k2/cd9bl_j17z77g23y6ffqb_400000gn/T//ccffY0Qv.s 			page 25


 409              		.loc 2 604 12 view .LVU111
 410 018c 0E99     		ldr	r1, [sp, #56]
 411              	.LVL41:
 604:lvgl/src/extra/widgets/led/../../../../src/hal/../misc/lv_color.h **** }
 412              		.loc 2 604 12 view .LVU112
 413              	.LBE161:
 414              	.LBE160:
 415              	.LBE162:
 416              	.LBB163:
 417              	.LBI163:
 594:lvgl/src/extra/widgets/led/../../../../src/hal/../misc/lv_color.h **** {
 418              		.loc 2 594 23 is_stmt 1 view .LVU113
 419              	.LBB164:
 596:lvgl/src/extra/widgets/led/../../../../src/hal/../misc/lv_color.h ****     c32.full        = lv_color_to32(color);
 420              		.loc 2 596 5 view .LVU114
 597:lvgl/src/extra/widgets/led/../../../../src/hal/../misc/lv_color.h ****     uint16_t bright = (uint16_t)(3u * LV_COLOR_GET_R32(c32) + LV_COLOR_GET_B32(c32) + 4u * LV_COLOR
 421              		.loc 2 597 5 view .LVU115
 422              	.LBB165:
 423              	.LBI165:
 395:lvgl/src/extra/widgets/led/../../../../src/hal/../misc/lv_color.h **** {
 424              		.loc 2 395 24 view .LVU116
 425              	.LBB166:
 446:lvgl/src/extra/widgets/led/../../../../src/hal/../misc/lv_color.h **** #endif
 426              		.loc 2 446 5 view .LVU117
 427              	.LBE166:
 428              	.LBE165:
 598:lvgl/src/extra/widgets/led/../../../../src/hal/../misc/lv_color.h ****     return (uint8_t)(bright >> 3);
 429              		.loc 2 598 5 view .LVU118
 598:lvgl/src/extra/widgets/led/../../../../src/hal/../misc/lv_color.h ****     return (uint8_t)(bright >> 3);
 430              		.loc 2 598 39 is_stmt 0 view .LVU119
 431 018e C1F30742 		ubfx	r2, r1, #16, #8
 598:lvgl/src/extra/widgets/led/../../../../src/hal/../misc/lv_color.h ****     return (uint8_t)(bright >> 3);
 432              		.loc 2 598 37 view .LVU120
 433 0192 02EB4202 		add	r2, r2, r2, lsl #1
 598:lvgl/src/extra/widgets/led/../../../../src/hal/../misc/lv_color.h ****     return (uint8_t)(bright >> 3);
 434              		.loc 2 598 92 view .LVU121
 435 0196 C1F30723 		ubfx	r3, r1, #8, #8
 598:lvgl/src/extra/widgets/led/../../../../src/hal/../misc/lv_color.h ****     return (uint8_t)(bright >> 3);
 436              		.loc 2 598 85 view .LVU122
 437 019a 02EB8303 		add	r3, r2, r3, lsl #2
 598:lvgl/src/extra/widgets/led/../../../../src/hal/../misc/lv_color.h ****     return (uint8_t)(bright >> 3);
 438              		.loc 2 598 63 view .LVU123
 439 019e C9B2     		uxtb	r1, r1
 440              	.LVL42:
 598:lvgl/src/extra/widgets/led/../../../../src/hal/../misc/lv_color.h ****     return (uint8_t)(bright >> 3);
 441              		.loc 2 598 14 view .LVU124
 442 01a0 11FA83F3 		uxtah	r3, r1, r3
 443              	.LVL43:
 599:lvgl/src/extra/widgets/led/../../../../src/hal/../misc/lv_color.h **** }
 444              		.loc 2 599 5 is_stmt 1 view .LVU125
 599:lvgl/src/extra/widgets/led/../../../../src/hal/../misc/lv_color.h **** }
 445              		.loc 2 599 12 is_stmt 0 view .LVU126
 446 01a4 C3F3C703 		ubfx	r3, r3, #3, #8
 447              	.LVL44:
 599:lvgl/src/extra/widgets/led/../../../../src/hal/../misc/lv_color.h **** }
 448              		.loc 2 599 12 view .LVU127
 449              	.LBE164:
ARM GAS  /var/folders/k2/cd9bl_j17z77g23y6ffqb_400000gn/T//ccffY0Qv.s 			page 26


 450              	.LBE163:
 451              	.LBB167:
 452              	.LBI167:
 459:lvgl/src/extra/widgets/led/../../../../src/hal/../misc/lv_color.h **** {
 453              		.loc 2 459 48 is_stmt 1 view .LVU128
 454              	.LBB168:
 461:lvgl/src/extra/widgets/led/../../../../src/hal/../misc/lv_color.h **** #if LV_COLOR_DEPTH != 1
 455              		.loc 2 461 5 view .LVU129
 464:lvgl/src/extra/widgets/led/../../../../src/hal/../misc/lv_color.h ****                                         (255 - mix) + LV_COLOR_MIX_ROUND_OFS));
 456              		.loc 2 464 5 view .LVU130
 457 01a8 C7F30746 		ubfx	r6, r7, #16, #8
 458 01ac CCF30741 		ubfx	r1, ip, #16, #8
 459 01b0 C3F1FF02 		rsb	r2, r3, #255
 460 01b4 02FB01F1 		mul	r1, r2, r1
 461 01b8 03FB0611 		mla	r1, r3, r6, r1
 462 01bc 01EB0126 		add	r6, r1, r1, lsl #8
 463 01c0 01EBC611 		add	r1, r1, r6, lsl #7
 464 01c4 C1F3C751 		ubfx	r1, r1, #23, #8
 465 01c8 0026     		movs	r6, #0
 466              	.LVL45:
 464:lvgl/src/extra/widgets/led/../../../../src/hal/../misc/lv_color.h ****                                         (255 - mix) + LV_COLOR_MIX_ROUND_OFS));
 467              		.loc 2 464 5 is_stmt 0 view .LVU131
 468 01ca 61F31746 		bfi	r6, r1, #16, #8
 469              	.LVL46:
 466:lvgl/src/extra/widgets/led/../../../../src/hal/../misc/lv_color.h ****                                         (255 - mix) + LV_COLOR_MIX_ROUND_OFS));
 470              		.loc 2 466 5 is_stmt 1 view .LVU132
 471 01ce C7F30727 		ubfx	r7, r7, #8, #8
 472              	.LVL47:
 466:lvgl/src/extra/widgets/led/../../../../src/hal/../misc/lv_color.h ****                                         (255 - mix) + LV_COLOR_MIX_ROUND_OFS));
 473              		.loc 2 466 5 is_stmt 0 view .LVU133
 474 01d2 CCF30721 		ubfx	r1, ip, #8, #8
 475 01d6 02FB01F1 		mul	r1, r2, r1
 476 01da 07FB0317 		mla	r7, r7, r3, r1
 477 01de 07EB0721 		add	r1, r7, r7, lsl #8
 478 01e2 07EBC117 		add	r7, r7, r1, lsl #7
 479 01e6 C7F3C757 		ubfx	r7, r7, #23, #8
 480 01ea 67F30F26 		bfi	r6, r7, #8, #8
 468:lvgl/src/extra/widgets/led/../../../../src/hal/../misc/lv_color.h ****                                         (255 - mix) + LV_COLOR_MIX_ROUND_OFS));
 481              		.loc 2 468 5 is_stmt 1 view .LVU134
 482 01ee 5FFA8CFC 		uxtb	ip, ip
 483 01f2 0CFB02F2 		mul	r2, ip, r2
 484 01f6 00FB0323 		mla	r3, r0, r3, r2
 485              	.LVL48:
 468:lvgl/src/extra/widgets/led/../../../../src/hal/../misc/lv_color.h ****                                         (255 - mix) + LV_COLOR_MIX_ROUND_OFS));
 486              		.loc 2 468 5 is_stmt 0 view .LVU135
 487 01fa 03EB0322 		add	r2, r3, r3, lsl #8
 488 01fe 03EBC213 		add	r3, r3, r2, lsl #7
 489 0202 C3F3C753 		ubfx	r3, r3, #23, #8
 490 0206 63F30706 		bfi	r6, r3, #0, #8
 470:lvgl/src/extra/widgets/led/../../../../src/hal/../misc/lv_color.h **** #else
 491              		.loc 2 470 5 is_stmt 1 view .LVU136
 492 020a 46F07F46 		orr	r6, r6, #-16777216
 493              	.LVL49:
 476:lvgl/src/extra/widgets/led/../../../../src/hal/../misc/lv_color.h **** }
 494              		.loc 2 476 5 view .LVU137
 476:lvgl/src/extra/widgets/led/../../../../src/hal/../misc/lv_color.h **** }
 495              		.loc 2 476 5 is_stmt 0 view .LVU138
ARM GAS  /var/folders/k2/cd9bl_j17z77g23y6ffqb_400000gn/T//ccffY0Qv.s 			page 27


 496              	.LBE168:
 497              	.LBE167:
 184:lvgl/src/extra/widgets/led/lv_led.c ****         rect_dsc.border_color = lv_color_mix(led->color, lv_color_black(), lv_color_brightness(rect
 498              		.loc 1 184 33 view .LVU139
 499 020e 0E96     		str	r6, [sp, #56]
 185:lvgl/src/extra/widgets/led/lv_led.c ****         rect_dsc.outline_color = lv_color_mix(led->color, lv_color_black(), lv_color_brightness(rec
 500              		.loc 1 185 9 is_stmt 1 view .LVU140
 501              	.LBB169:
 502              	.LBI169:
 503              		.loc 2 675 26 view .LVU141
 504              	.LBE169:
 505              	.LBE221:
 506              		.loc 2 675 49 view .LVU142
 507              	.LVL50:
 508              	.LBB222:
 509              	.LBB172:
 510              	.LBB170:
 511              	.LBI170:
 602:lvgl/src/extra/widgets/led/../../../../src/hal/../misc/lv_color.h **** {
 512              		.loc 2 602 26 view .LVU143
 513              	.LBB171:
 604:lvgl/src/extra/widgets/led/../../../../src/hal/../misc/lv_color.h **** }
 514              		.loc 2 604 5 view .LVU144
 604:lvgl/src/extra/widgets/led/../../../../src/hal/../misc/lv_color.h **** }
 515              		.loc 2 604 12 is_stmt 0 view .LVU145
 516 0210 4FF0000A 		mov	r10, #0
 517 0214 6FF3070A 		bfc	r10, #0, #8
 518 0218 6FF30F2A 		bfc	r10, #8, #8
 519 021c 6FF3174A 		bfc	r10, #16, #8
 520 0220 4AF07F4A 		orr	r10, r10, #-16777216
 521              	.LVL51:
 604:lvgl/src/extra/widgets/led/../../../../src/hal/../misc/lv_color.h **** }
 522              		.loc 2 604 12 view .LVU146
 523 0224 099A     		ldr	r2, [sp, #36]
 524              	.LVL52:
 604:lvgl/src/extra/widgets/led/../../../../src/hal/../misc/lv_color.h **** }
 525              		.loc 2 604 12 view .LVU147
 526              	.LBE171:
 527              	.LBE170:
 528              	.LBE172:
 529              	.LBB173:
 530              	.LBI173:
 594:lvgl/src/extra/widgets/led/../../../../src/hal/../misc/lv_color.h **** {
 531              		.loc 2 594 23 is_stmt 1 view .LVU148
 532              	.LBB174:
 596:lvgl/src/extra/widgets/led/../../../../src/hal/../misc/lv_color.h ****     c32.full        = lv_color_to32(color);
 533              		.loc 2 596 5 view .LVU149
 597:lvgl/src/extra/widgets/led/../../../../src/hal/../misc/lv_color.h ****     uint16_t bright = (uint16_t)(3u * LV_COLOR_GET_R32(c32) + LV_COLOR_GET_B32(c32) + 4u * LV_COLOR
 534              		.loc 2 597 5 view .LVU150
 535              	.LBB175:
 536              	.LBI175:
 395:lvgl/src/extra/widgets/led/../../../../src/hal/../misc/lv_color.h **** {
 537              		.loc 2 395 24 view .LVU151
 538              	.LBB176:
 446:lvgl/src/extra/widgets/led/../../../../src/hal/../misc/lv_color.h **** #endif
 539              		.loc 2 446 5 view .LVU152
 540              	.LBE176:
ARM GAS  /var/folders/k2/cd9bl_j17z77g23y6ffqb_400000gn/T//ccffY0Qv.s 			page 28


 541              	.LBE175:
 598:lvgl/src/extra/widgets/led/../../../../src/hal/../misc/lv_color.h ****     return (uint8_t)(bright >> 3);
 542              		.loc 2 598 5 view .LVU153
 598:lvgl/src/extra/widgets/led/../../../../src/hal/../misc/lv_color.h ****     return (uint8_t)(bright >> 3);
 543              		.loc 2 598 39 is_stmt 0 view .LVU154
 544 0226 C2F30741 		ubfx	r1, r2, #16, #8
 598:lvgl/src/extra/widgets/led/../../../../src/hal/../misc/lv_color.h ****     return (uint8_t)(bright >> 3);
 545              		.loc 2 598 37 view .LVU155
 546 022a 01EB4101 		add	r1, r1, r1, lsl #1
 598:lvgl/src/extra/widgets/led/../../../../src/hal/../misc/lv_color.h ****     return (uint8_t)(bright >> 3);
 547              		.loc 2 598 92 view .LVU156
 548 022e C2F30723 		ubfx	r3, r2, #8, #8
 598:lvgl/src/extra/widgets/led/../../../../src/hal/../misc/lv_color.h ****     return (uint8_t)(bright >> 3);
 549              		.loc 2 598 85 view .LVU157
 550 0232 01EB8303 		add	r3, r1, r3, lsl #2
 598:lvgl/src/extra/widgets/led/../../../../src/hal/../misc/lv_color.h ****     return (uint8_t)(bright >> 3);
 551              		.loc 2 598 63 view .LVU158
 552 0236 D2B2     		uxtb	r2, r2
 553              	.LVL53:
 598:lvgl/src/extra/widgets/led/../../../../src/hal/../misc/lv_color.h ****     return (uint8_t)(bright >> 3);
 554              		.loc 2 598 14 view .LVU159
 555 0238 12FA83F2 		uxtah	r2, r2, r3
 556              	.LVL54:
 599:lvgl/src/extra/widgets/led/../../../../src/hal/../misc/lv_color.h **** }
 557              		.loc 2 599 5 is_stmt 1 view .LVU160
 599:lvgl/src/extra/widgets/led/../../../../src/hal/../misc/lv_color.h **** }
 558              		.loc 2 599 12 is_stmt 0 view .LVU161
 559 023c C2F3C703 		ubfx	r3, r2, #3, #8
 560              	.LVL55:
 599:lvgl/src/extra/widgets/led/../../../../src/hal/../misc/lv_color.h **** }
 561              		.loc 2 599 12 view .LVU162
 562 0240 D5F82490 		ldr	r9, [r5, #36]
 563              	.LVL56:
 599:lvgl/src/extra/widgets/led/../../../../src/hal/../misc/lv_color.h **** }
 564              		.loc 2 599 12 view .LVU163
 565              	.LBE174:
 566              	.LBE173:
 567              	.LBB177:
 568              	.LBI177:
 459:lvgl/src/extra/widgets/led/../../../../src/hal/../misc/lv_color.h **** {
 569              		.loc 2 459 48 is_stmt 1 view .LVU164
 570              	.LBB178:
 461:lvgl/src/extra/widgets/led/../../../../src/hal/../misc/lv_color.h **** #if LV_COLOR_DEPTH != 1
 571              		.loc 2 461 5 view .LVU165
 464:lvgl/src/extra/widgets/led/../../../../src/hal/../misc/lv_color.h ****                                         (255 - mix) + LV_COLOR_MIX_ROUND_OFS));
 572              		.loc 2 464 5 view .LVU166
 464:lvgl/src/extra/widgets/led/../../../../src/hal/../misc/lv_color.h ****                                         (255 - mix) + LV_COLOR_MIX_ROUND_OFS));
 573              		.loc 2 464 5 is_stmt 0 view .LVU167
 574 0244 C9F30740 		ubfx	r0, r9, #16, #8
 575 0248 CAF30742 		ubfx	r2, r10, #16, #8
 576 024c C3F1FF01 		rsb	r1, r3, #255
 577 0250 01FB02F2 		mul	r2, r1, r2
 578 0254 03FB0022 		mla	r2, r3, r0, r2
 579 0258 02EB0220 		add	r0, r2, r2, lsl #8
 580 025c 02EBC012 		add	r2, r2, r0, lsl #7
 581 0260 C2F3C752 		ubfx	r2, r2, #23, #8
 582 0264 0027     		movs	r7, #0
ARM GAS  /var/folders/k2/cd9bl_j17z77g23y6ffqb_400000gn/T//ccffY0Qv.s 			page 29


 583              	.LVL57:
 464:lvgl/src/extra/widgets/led/../../../../src/hal/../misc/lv_color.h ****                                         (255 - mix) + LV_COLOR_MIX_ROUND_OFS));
 584              		.loc 2 464 5 view .LVU168
 585 0266 62F31747 		bfi	r7, r2, #16, #8
 586              	.LVL58:
 466:lvgl/src/extra/widgets/led/../../../../src/hal/../misc/lv_color.h ****                                         (255 - mix) + LV_COLOR_MIX_ROUND_OFS));
 587              		.loc 2 466 5 is_stmt 1 view .LVU169
 588 026a C9F30722 		ubfx	r2, r9, #8, #8
 589 026e CAF30720 		ubfx	r0, r10, #8, #8
 590 0272 01FB00F0 		mul	r0, r1, r0
 591 0276 02FB0300 		mla	r0, r2, r3, r0
 592 027a 00EB0022 		add	r2, r0, r0, lsl #8
 593 027e 00EBC210 		add	r0, r0, r2, lsl #7
 594 0282 C0F3C750 		ubfx	r0, r0, #23, #8
 595 0286 60F30F27 		bfi	r7, r0, #8, #8
 468:lvgl/src/extra/widgets/led/../../../../src/hal/../misc/lv_color.h ****                                         (255 - mix) + LV_COLOR_MIX_ROUND_OFS));
 596              		.loc 2 468 5 view .LVU170
 597 028a 5FFA89FC 		uxtb	ip, r9
 598 028e 5FFA8AF2 		uxtb	r2, r10
 599 0292 01FB02F2 		mul	r2, r1, r2
 600 0296 0CFB0322 		mla	r2, ip, r3, r2
 601 029a 02EB0223 		add	r3, r2, r2, lsl #8
 602              	.LVL59:
 468:lvgl/src/extra/widgets/led/../../../../src/hal/../misc/lv_color.h ****                                         (255 - mix) + LV_COLOR_MIX_ROUND_OFS));
 603              		.loc 2 468 5 is_stmt 0 view .LVU171
 604 029e 02EBC312 		add	r2, r2, r3, lsl #7
 605 02a2 C2F3C752 		ubfx	r2, r2, #23, #8
 606 02a6 62F30707 		bfi	r7, r2, #0, #8
 470:lvgl/src/extra/widgets/led/../../../../src/hal/../misc/lv_color.h **** #else
 607              		.loc 2 470 5 is_stmt 1 view .LVU172
 608 02aa 47F07F47 		orr	r7, r7, #-16777216
 609              	.LVL60:
 476:lvgl/src/extra/widgets/led/../../../../src/hal/../misc/lv_color.h **** }
 610              		.loc 2 476 5 view .LVU173
 476:lvgl/src/extra/widgets/led/../../../../src/hal/../misc/lv_color.h **** }
 611              		.loc 2 476 5 is_stmt 0 view .LVU174
 612              	.LBE178:
 613              	.LBE177:
 185:lvgl/src/extra/widgets/led/lv_led.c ****         rect_dsc.outline_color = lv_color_mix(led->color, lv_color_black(), lv_color_brightness(rec
 614              		.loc 1 185 33 view .LVU175
 615 02ae 0997     		str	r7, [sp, #36]
 186:lvgl/src/extra/widgets/led/lv_led.c **** 
 616              		.loc 1 186 9 is_stmt 1 view .LVU176
 617              	.LBB179:
 618              	.LBI179:
 619              		.loc 2 675 26 view .LVU177
 620              	.LBE179:
 621              	.LBE222:
 622              		.loc 2 675 49 view .LVU178
 623              	.LVL61:
 624              	.LBB223:
 625              	.LBB182:
 626              	.LBB180:
 627              	.LBI180:
 602:lvgl/src/extra/widgets/led/../../../../src/hal/../misc/lv_color.h **** {
 628              		.loc 2 602 26 view .LVU179
 629              	.LBB181:
ARM GAS  /var/folders/k2/cd9bl_j17z77g23y6ffqb_400000gn/T//ccffY0Qv.s 			page 30


 604:lvgl/src/extra/widgets/led/../../../../src/hal/../misc/lv_color.h **** }
 630              		.loc 2 604 5 view .LVU180
 604:lvgl/src/extra/widgets/led/../../../../src/hal/../misc/lv_color.h **** }
 631              		.loc 2 604 12 is_stmt 0 view .LVU181
 632 02b0 0022     		movs	r2, #0
 633 02b2 6FF30702 		bfc	r2, #0, #8
 634 02b6 6FF30F22 		bfc	r2, #8, #8
 635 02ba 6FF31742 		bfc	r2, #16, #8
 636 02be 42F07F42 		orr	r2, r2, #-16777216
 637              	.LVL62:
 604:lvgl/src/extra/widgets/led/../../../../src/hal/../misc/lv_color.h **** }
 638              		.loc 2 604 12 view .LVU182
 639 02c2 0B98     		ldr	r0, [sp, #44]
 640              	.LVL63:
 604:lvgl/src/extra/widgets/led/../../../../src/hal/../misc/lv_color.h **** }
 641              		.loc 2 604 12 view .LVU183
 642              	.LBE181:
 643              	.LBE180:
 644              	.LBE182:
 645              	.LBB183:
 646              	.LBI183:
 594:lvgl/src/extra/widgets/led/../../../../src/hal/../misc/lv_color.h **** {
 647              		.loc 2 594 23 is_stmt 1 view .LVU184
 648              	.LBB184:
 596:lvgl/src/extra/widgets/led/../../../../src/hal/../misc/lv_color.h ****     c32.full        = lv_color_to32(color);
 649              		.loc 2 596 5 view .LVU185
 597:lvgl/src/extra/widgets/led/../../../../src/hal/../misc/lv_color.h ****     uint16_t bright = (uint16_t)(3u * LV_COLOR_GET_R32(c32) + LV_COLOR_GET_B32(c32) + 4u * LV_COLOR
 650              		.loc 2 597 5 view .LVU186
 651              	.LBB185:
 652              	.LBI185:
 395:lvgl/src/extra/widgets/led/../../../../src/hal/../misc/lv_color.h **** {
 653              		.loc 2 395 24 view .LVU187
 654              	.LBB186:
 446:lvgl/src/extra/widgets/led/../../../../src/hal/../misc/lv_color.h **** #endif
 655              		.loc 2 446 5 view .LVU188
 656              	.LBE186:
 657              	.LBE185:
 598:lvgl/src/extra/widgets/led/../../../../src/hal/../misc/lv_color.h ****     return (uint8_t)(bright >> 3);
 658              		.loc 2 598 5 view .LVU189
 598:lvgl/src/extra/widgets/led/../../../../src/hal/../misc/lv_color.h ****     return (uint8_t)(bright >> 3);
 659              		.loc 2 598 39 is_stmt 0 view .LVU190
 660 02c4 C0F30741 		ubfx	r1, r0, #16, #8
 598:lvgl/src/extra/widgets/led/../../../../src/hal/../misc/lv_color.h ****     return (uint8_t)(bright >> 3);
 661              		.loc 2 598 37 view .LVU191
 662 02c8 01EB4101 		add	r1, r1, r1, lsl #1
 598:lvgl/src/extra/widgets/led/../../../../src/hal/../misc/lv_color.h ****     return (uint8_t)(bright >> 3);
 663              		.loc 2 598 92 view .LVU192
 664 02cc C0F30723 		ubfx	r3, r0, #8, #8
 598:lvgl/src/extra/widgets/led/../../../../src/hal/../misc/lv_color.h ****     return (uint8_t)(bright >> 3);
 665              		.loc 2 598 85 view .LVU193
 666 02d0 01EB8303 		add	r3, r1, r3, lsl #2
 598:lvgl/src/extra/widgets/led/../../../../src/hal/../misc/lv_color.h ****     return (uint8_t)(bright >> 3);
 667              		.loc 2 598 63 view .LVU194
 668 02d4 C0B2     		uxtb	r0, r0
 669              	.LVL64:
 598:lvgl/src/extra/widgets/led/../../../../src/hal/../misc/lv_color.h ****     return (uint8_t)(bright >> 3);
 670              		.loc 2 598 14 view .LVU195
ARM GAS  /var/folders/k2/cd9bl_j17z77g23y6ffqb_400000gn/T//ccffY0Qv.s 			page 31


 671 02d6 10FA83F3 		uxtah	r3, r0, r3
 672              	.LVL65:
 599:lvgl/src/extra/widgets/led/../../../../src/hal/../misc/lv_color.h **** }
 673              		.loc 2 599 5 is_stmt 1 view .LVU196
 599:lvgl/src/extra/widgets/led/../../../../src/hal/../misc/lv_color.h **** }
 674              		.loc 2 599 12 is_stmt 0 view .LVU197
 675 02da C3F3C703 		ubfx	r3, r3, #3, #8
 676              	.LVL66:
 599:lvgl/src/extra/widgets/led/../../../../src/hal/../misc/lv_color.h **** }
 677              		.loc 2 599 12 view .LVU198
 678              	.LBE184:
 679              	.LBE183:
 680              	.LBB187:
 681              	.LBI187:
 459:lvgl/src/extra/widgets/led/../../../../src/hal/../misc/lv_color.h **** {
 682              		.loc 2 459 48 is_stmt 1 view .LVU199
 683              	.LBB188:
 461:lvgl/src/extra/widgets/led/../../../../src/hal/../misc/lv_color.h **** #if LV_COLOR_DEPTH != 1
 684              		.loc 2 461 5 view .LVU200
 464:lvgl/src/extra/widgets/led/../../../../src/hal/../misc/lv_color.h ****                                         (255 - mix) + LV_COLOR_MIX_ROUND_OFS));
 685              		.loc 2 464 5 view .LVU201
 686 02de C9F3074A 		ubfx	r10, r9, #16, #8
 687 02e2 C2F30741 		ubfx	r1, r2, #16, #8
 688 02e6 C3F1FF00 		rsb	r0, r3, #255
 689 02ea 00FB01F1 		mul	r1, r0, r1
 690 02ee 03FB0A11 		mla	r1, r3, r10, r1
 691 02f2 01EB012A 		add	r10, r1, r1, lsl #8
 692 02f6 01EBCA11 		add	r1, r1, r10, lsl #7
 693 02fa C1F3C75A 		ubfx	r10, r1, #23, #8
 694 02fe 0021     		movs	r1, #0
 695              	.LVL67:
 464:lvgl/src/extra/widgets/led/../../../../src/hal/../misc/lv_color.h ****                                         (255 - mix) + LV_COLOR_MIX_ROUND_OFS));
 696              		.loc 2 464 5 is_stmt 0 view .LVU202
 697 0300 6AF31741 		bfi	r1, r10, #16, #8
 698              	.LVL68:
 466:lvgl/src/extra/widgets/led/../../../../src/hal/../misc/lv_color.h ****                                         (255 - mix) + LV_COLOR_MIX_ROUND_OFS));
 699              		.loc 2 466 5 is_stmt 1 view .LVU203
 700 0304 C9F3072A 		ubfx	r10, r9, #8, #8
 701 0308 C2F30729 		ubfx	r9, r2, #8, #8
 702              	.LVL69:
 466:lvgl/src/extra/widgets/led/../../../../src/hal/../misc/lv_color.h ****                                         (255 - mix) + LV_COLOR_MIX_ROUND_OFS));
 703              		.loc 2 466 5 is_stmt 0 view .LVU204
 704 030c 09FB00F9 		mul	r9, r9, r0
 705 0310 0AFB0399 		mla	r9, r10, r3, r9
 706 0314 09EB092A 		add	r10, r9, r9, lsl #8
 707 0318 09EBCA19 		add	r9, r9, r10, lsl #7
 708 031c C9F3C759 		ubfx	r9, r9, #23, #8
 709 0320 69F30F21 		bfi	r1, r9, #8, #8
 468:lvgl/src/extra/widgets/led/../../../../src/hal/../misc/lv_color.h ****                                         (255 - mix) + LV_COLOR_MIX_ROUND_OFS));
 710              		.loc 2 468 5 is_stmt 1 view .LVU205
 711 0324 D2B2     		uxtb	r2, r2
 712 0326 02FB00F0 		mul	r0, r2, r0
 713 032a 0CFB0303 		mla	r3, ip, r3, r0
 714              	.LVL70:
 468:lvgl/src/extra/widgets/led/../../../../src/hal/../misc/lv_color.h ****                                         (255 - mix) + LV_COLOR_MIX_ROUND_OFS));
 715              		.loc 2 468 5 is_stmt 0 view .LVU206
 716 032e 03EB0322 		add	r2, r3, r3, lsl #8
ARM GAS  /var/folders/k2/cd9bl_j17z77g23y6ffqb_400000gn/T//ccffY0Qv.s 			page 32


 717 0332 03EBC213 		add	r3, r3, r2, lsl #7
 718 0336 C3F3C753 		ubfx	r3, r3, #23, #8
 719 033a 63F30701 		bfi	r1, r3, #0, #8
 470:lvgl/src/extra/widgets/led/../../../../src/hal/../misc/lv_color.h **** #else
 720              		.loc 2 470 5 is_stmt 1 view .LVU207
 721 033e 41F07F41 		orr	r1, r1, #-16777216
 722              	.LVL71:
 476:lvgl/src/extra/widgets/led/../../../../src/hal/../misc/lv_color.h **** }
 723              		.loc 2 476 5 view .LVU208
 476:lvgl/src/extra/widgets/led/../../../../src/hal/../misc/lv_color.h **** }
 724              		.loc 2 476 5 is_stmt 0 view .LVU209
 725              	.LBE188:
 726              	.LBE187:
 186:lvgl/src/extra/widgets/led/lv_led.c **** 
 727              		.loc 1 186 34 view .LVU210
 728 0342 0B91     		str	r1, [sp, #44]
 189:lvgl/src/extra/widgets/led/lv_led.c ****         rect_dsc.bg_grad_color   = lv_color_mix(rect_dsc.bg_grad_color, lv_color_black(), led->brig
 729              		.loc 1 189 9 is_stmt 1 view .LVU211
 730              	.LBB189:
 731              	.LBI189:
 732              		.loc 2 675 26 view .LVU212
 733              	.LBE189:
 734              	.LBE223:
 735              		.loc 2 675 49 view .LVU213
 736              	.LVL72:
 737              	.LBB224:
 738              	.LBB192:
 739              	.LBB190:
 740              	.LBI190:
 602:lvgl/src/extra/widgets/led/../../../../src/hal/../misc/lv_color.h **** {
 741              		.loc 2 602 26 view .LVU214
 742              	.LBB191:
 604:lvgl/src/extra/widgets/led/../../../../src/hal/../misc/lv_color.h **** }
 743              		.loc 2 604 5 view .LVU215
 604:lvgl/src/extra/widgets/led/../../../../src/hal/../misc/lv_color.h **** }
 744              		.loc 2 604 12 is_stmt 0 view .LVU216
 745 0344 0022     		movs	r2, #0
 746 0346 6FF30702 		bfc	r2, #0, #8
 747 034a 6FF30F22 		bfc	r2, #8, #8
 748 034e 6FF31742 		bfc	r2, #16, #8
 749 0352 42F07F42 		orr	r2, r2, #-16777216
 750              	.LVL73:
 604:lvgl/src/extra/widgets/led/../../../../src/hal/../misc/lv_color.h **** }
 751              		.loc 2 604 12 view .LVU217
 752              	.LBE191:
 753              	.LBE190:
 754              	.LBE192:
 189:lvgl/src/extra/widgets/led/lv_led.c ****         rect_dsc.bg_grad_color   = lv_color_mix(rect_dsc.bg_grad_color, lv_color_black(), led->brig
 755              		.loc 1 189 31 view .LVU218
 756 0356 95F828C0 		ldrb	ip, [r5, #40]	@ zero_extendqisi2
 757              	.LVL74:
 758              	.LBB193:
 759              	.LBI193:
 459:lvgl/src/extra/widgets/led/../../../../src/hal/../misc/lv_color.h **** {
 760              		.loc 2 459 48 is_stmt 1 view .LVU219
 761              	.LBB194:
 461:lvgl/src/extra/widgets/led/../../../../src/hal/../misc/lv_color.h **** #if LV_COLOR_DEPTH != 1
ARM GAS  /var/folders/k2/cd9bl_j17z77g23y6ffqb_400000gn/T//ccffY0Qv.s 			page 33


 762              		.loc 2 461 5 view .LVU220
 464:lvgl/src/extra/widgets/led/../../../../src/hal/../misc/lv_color.h ****                                         (255 - mix) + LV_COLOR_MIX_ROUND_OFS));
 763              		.loc 2 464 5 view .LVU221
 764 035a C8F30749 		ubfx	r9, r8, #16, #8
 765 035e C2F30740 		ubfx	r0, r2, #16, #8
 766 0362 CCF1FF03 		rsb	r3, ip, #255
 767 0366 03FB00F0 		mul	r0, r3, r0
 768 036a 0CFB0900 		mla	r0, ip, r9, r0
 769 036e 00EB0029 		add	r9, r0, r0, lsl #8
 770 0372 00EBC910 		add	r0, r0, r9, lsl #7
 771 0376 C0F3C759 		ubfx	r9, r0, #23, #8
 772 037a 0020     		movs	r0, #0
 773              	.LVL75:
 464:lvgl/src/extra/widgets/led/../../../../src/hal/../misc/lv_color.h ****                                         (255 - mix) + LV_COLOR_MIX_ROUND_OFS));
 774              		.loc 2 464 5 is_stmt 0 view .LVU222
 775 037c 69F31740 		bfi	r0, r9, #16, #8
 776              	.LVL76:
 466:lvgl/src/extra/widgets/led/../../../../src/hal/../misc/lv_color.h ****                                         (255 - mix) + LV_COLOR_MIX_ROUND_OFS));
 777              		.loc 2 466 5 is_stmt 1 view .LVU223
 778 0380 C8F3072A 		ubfx	r10, r8, #8, #8
 779 0384 C2F30729 		ubfx	r9, r2, #8, #8
 780 0388 09FB03F9 		mul	r9, r9, r3
 781 038c 0AFB0C99 		mla	r9, r10, ip, r9
 782 0390 09EB092A 		add	r10, r9, r9, lsl #8
 783 0394 09EBCA19 		add	r9, r9, r10, lsl #7
 784 0398 C9F3C759 		ubfx	r9, r9, #23, #8
 785 039c 69F30F20 		bfi	r0, r9, #8, #8
 468:lvgl/src/extra/widgets/led/../../../../src/hal/../misc/lv_color.h ****                                         (255 - mix) + LV_COLOR_MIX_ROUND_OFS));
 786              		.loc 2 468 5 view .LVU224
 787 03a0 5FFA88F8 		uxtb	r8, r8
 788              	.LVL77:
 468:lvgl/src/extra/widgets/led/../../../../src/hal/../misc/lv_color.h ****                                         (255 - mix) + LV_COLOR_MIX_ROUND_OFS));
 789              		.loc 2 468 5 is_stmt 0 view .LVU225
 790 03a4 D2B2     		uxtb	r2, r2
 791 03a6 03FB02F2 		mul	r2, r3, r2
 792 03aa 08FB0C22 		mla	r2, r8, ip, r2
 793 03ae 02EB0228 		add	r8, r2, r2, lsl #8
 794 03b2 02EBC812 		add	r2, r2, r8, lsl #7
 795 03b6 C2F3C752 		ubfx	r2, r2, #23, #8
 796 03ba 62F30700 		bfi	r0, r2, #0, #8
 470:lvgl/src/extra/widgets/led/../../../../src/hal/../misc/lv_color.h **** #else
 797              		.loc 2 470 5 is_stmt 1 view .LVU226
 798 03be 40F07F40 		orr	r0, r0, #-16777216
 799              	.LVL78:
 476:lvgl/src/extra/widgets/led/../../../../src/hal/../misc/lv_color.h **** }
 800              		.loc 2 476 5 view .LVU227
 476:lvgl/src/extra/widgets/led/../../../../src/hal/../misc/lv_color.h **** }
 801              		.loc 2 476 5 is_stmt 0 view .LVU228
 802              	.LBE194:
 803              	.LBE193:
 189:lvgl/src/extra/widgets/led/lv_led.c ****         rect_dsc.bg_grad_color   = lv_color_mix(rect_dsc.bg_grad_color, lv_color_black(), led->brig
 804              		.loc 1 189 31 view .LVU229
 805 03c2 0290     		str	r0, [sp, #8]
 190:lvgl/src/extra/widgets/led/lv_led.c ****         rect_dsc.border_color = lv_color_mix(rect_dsc.border_color, lv_color_black(), led->bright);
 806              		.loc 1 190 9 is_stmt 1 view .LVU230
 807              	.LBB195:
 808              	.LBI195:
ARM GAS  /var/folders/k2/cd9bl_j17z77g23y6ffqb_400000gn/T//ccffY0Qv.s 			page 34


 809              		.loc 2 675 26 view .LVU231
 810              	.LBE195:
 811              	.LBE224:
 812              		.loc 2 675 49 view .LVU232
 813              	.LVL79:
 814              	.LBB225:
 815              	.LBB198:
 816              	.LBB196:
 817              	.LBI196:
 602:lvgl/src/extra/widgets/led/../../../../src/hal/../misc/lv_color.h **** {
 818              		.loc 2 602 26 view .LVU233
 819              	.LBB197:
 604:lvgl/src/extra/widgets/led/../../../../src/hal/../misc/lv_color.h **** }
 820              		.loc 2 604 5 view .LVU234
 604:lvgl/src/extra/widgets/led/../../../../src/hal/../misc/lv_color.h **** }
 821              		.loc 2 604 12 is_stmt 0 view .LVU235
 822 03c4 0020     		movs	r0, #0
 823              	.LVL80:
 604:lvgl/src/extra/widgets/led/../../../../src/hal/../misc/lv_color.h **** }
 824              		.loc 2 604 12 view .LVU236
 825 03c6 6FF30700 		bfc	r0, #0, #8
 826 03ca 6FF30F20 		bfc	r0, #8, #8
 827 03ce 6FF31740 		bfc	r0, #16, #8
 828 03d2 40F07F40 		orr	r0, r0, #-16777216
 829              	.LVL81:
 604:lvgl/src/extra/widgets/led/../../../../src/hal/../misc/lv_color.h **** }
 830              		.loc 2 604 12 view .LVU237
 831              	.LBE197:
 832              	.LBE196:
 833              	.LBE198:
 834              	.LBB199:
 835              	.LBI199:
 459:lvgl/src/extra/widgets/led/../../../../src/hal/../misc/lv_color.h **** {
 836              		.loc 2 459 48 is_stmt 1 view .LVU238
 837              	.LBB200:
 461:lvgl/src/extra/widgets/led/../../../../src/hal/../misc/lv_color.h **** #if LV_COLOR_DEPTH != 1
 838              		.loc 2 461 5 view .LVU239
 464:lvgl/src/extra/widgets/led/../../../../src/hal/../misc/lv_color.h ****                                         (255 - mix) + LV_COLOR_MIX_ROUND_OFS));
 839              		.loc 2 464 5 view .LVU240
 840 03d6 CEF30748 		ubfx	r8, lr, #16, #8
 841 03da C0F30742 		ubfx	r2, r0, #16, #8
 842 03de 03FB02F2 		mul	r2, r3, r2
 843 03e2 0CFB0822 		mla	r2, ip, r8, r2
 844 03e6 02EB0228 		add	r8, r2, r2, lsl #8
 845 03ea 02EBC812 		add	r2, r2, r8, lsl #7
 846 03ee C2F3C758 		ubfx	r8, r2, #23, #8
 847 03f2 0022     		movs	r2, #0
 848              	.LVL82:
 464:lvgl/src/extra/widgets/led/../../../../src/hal/../misc/lv_color.h ****                                         (255 - mix) + LV_COLOR_MIX_ROUND_OFS));
 849              		.loc 2 464 5 is_stmt 0 view .LVU241
 850 03f4 68F31742 		bfi	r2, r8, #16, #8
 851              	.LVL83:
 466:lvgl/src/extra/widgets/led/../../../../src/hal/../misc/lv_color.h ****                                         (255 - mix) + LV_COLOR_MIX_ROUND_OFS));
 852              		.loc 2 466 5 is_stmt 1 view .LVU242
 853 03f8 CEF30729 		ubfx	r9, lr, #8, #8
 854 03fc C0F30728 		ubfx	r8, r0, #8, #8
 855 0400 08FB03F8 		mul	r8, r8, r3
ARM GAS  /var/folders/k2/cd9bl_j17z77g23y6ffqb_400000gn/T//ccffY0Qv.s 			page 35


 856 0404 09FB0C88 		mla	r8, r9, ip, r8
 857 0408 08EB0829 		add	r9, r8, r8, lsl #8
 858 040c 08EBC918 		add	r8, r8, r9, lsl #7
 859 0410 C8F3C758 		ubfx	r8, r8, #23, #8
 860 0414 68F30F22 		bfi	r2, r8, #8, #8
 468:lvgl/src/extra/widgets/led/../../../../src/hal/../misc/lv_color.h ****                                         (255 - mix) + LV_COLOR_MIX_ROUND_OFS));
 861              		.loc 2 468 5 view .LVU243
 862 0418 5FFA8EFE 		uxtb	lr, lr
 863              	.LVL84:
 468:lvgl/src/extra/widgets/led/../../../../src/hal/../misc/lv_color.h ****                                         (255 - mix) + LV_COLOR_MIX_ROUND_OFS));
 864              		.loc 2 468 5 is_stmt 0 view .LVU244
 865 041c C0B2     		uxtb	r0, r0
 866 041e 03FB00F0 		mul	r0, r3, r0
 867 0422 0EFB0C00 		mla	r0, lr, ip, r0
 868 0426 00EB002E 		add	lr, r0, r0, lsl #8
 869 042a 00EBCE10 		add	r0, r0, lr, lsl #7
 870 042e C0F3C750 		ubfx	r0, r0, #23, #8
 871 0432 60F30702 		bfi	r2, r0, #0, #8
 470:lvgl/src/extra/widgets/led/../../../../src/hal/../misc/lv_color.h **** #else
 872              		.loc 2 470 5 is_stmt 1 view .LVU245
 873 0436 42F07F42 		orr	r2, r2, #-16777216
 874              	.LVL85:
 476:lvgl/src/extra/widgets/led/../../../../src/hal/../misc/lv_color.h **** }
 875              		.loc 2 476 5 view .LVU246
 476:lvgl/src/extra/widgets/led/../../../../src/hal/../misc/lv_color.h **** }
 876              		.loc 2 476 5 is_stmt 0 view .LVU247
 877              	.LBE200:
 878              	.LBE199:
 190:lvgl/src/extra/widgets/led/lv_led.c ****         rect_dsc.border_color = lv_color_mix(rect_dsc.border_color, lv_color_black(), led->bright);
 879              		.loc 1 190 36 view .LVU248
 880 043a 0392     		str	r2, [sp, #12]
 191:lvgl/src/extra/widgets/led/lv_led.c ****         rect_dsc.shadow_color = lv_color_mix(rect_dsc.shadow_color, lv_color_black(), led->bright);
 881              		.loc 1 191 9 is_stmt 1 view .LVU249
 882              	.LBB201:
 883              	.LBI201:
 884              		.loc 2 675 26 view .LVU250
 885              	.LBE201:
 886              	.LBE225:
 887              		.loc 2 675 49 view .LVU251
 888              	.LVL86:
 889              	.LBB226:
 890              	.LBB204:
 891              	.LBB202:
 892              	.LBI202:
 602:lvgl/src/extra/widgets/led/../../../../src/hal/../misc/lv_color.h **** {
 893              		.loc 2 602 26 view .LVU252
 894              	.LBB203:
 604:lvgl/src/extra/widgets/led/../../../../src/hal/../misc/lv_color.h **** }
 895              		.loc 2 604 5 view .LVU253
 604:lvgl/src/extra/widgets/led/../../../../src/hal/../misc/lv_color.h **** }
 896              		.loc 2 604 12 is_stmt 0 view .LVU254
 897 043c 0022     		movs	r2, #0
 898              	.LVL87:
 604:lvgl/src/extra/widgets/led/../../../../src/hal/../misc/lv_color.h **** }
 899              		.loc 2 604 12 view .LVU255
 900 043e 6FF30702 		bfc	r2, #0, #8
 901 0442 6FF30F22 		bfc	r2, #8, #8
ARM GAS  /var/folders/k2/cd9bl_j17z77g23y6ffqb_400000gn/T//ccffY0Qv.s 			page 36


 902 0446 6FF31742 		bfc	r2, #16, #8
 903 044a 42F07F42 		orr	r2, r2, #-16777216
 904              	.LVL88:
 604:lvgl/src/extra/widgets/led/../../../../src/hal/../misc/lv_color.h **** }
 905              		.loc 2 604 12 view .LVU256
 906              	.LBE203:
 907              	.LBE202:
 908              	.LBE204:
 909              	.LBB205:
 910              	.LBI205:
 459:lvgl/src/extra/widgets/led/../../../../src/hal/../misc/lv_color.h **** {
 911              		.loc 2 459 48 is_stmt 1 view .LVU257
 912              	.LBB206:
 461:lvgl/src/extra/widgets/led/../../../../src/hal/../misc/lv_color.h **** #if LV_COLOR_DEPTH != 1
 913              		.loc 2 461 5 view .LVU258
 464:lvgl/src/extra/widgets/led/../../../../src/hal/../misc/lv_color.h ****                                         (255 - mix) + LV_COLOR_MIX_ROUND_OFS));
 914              		.loc 2 464 5 view .LVU259
 915 044e C7F3074E 		ubfx	lr, r7, #16, #8
 916 0452 C2F30740 		ubfx	r0, r2, #16, #8
 917 0456 03FB00F0 		mul	r0, r3, r0
 918 045a 0CFB0E00 		mla	r0, ip, lr, r0
 919 045e 00EB002E 		add	lr, r0, r0, lsl #8
 920 0462 00EBCE10 		add	r0, r0, lr, lsl #7
 921 0466 C0F3C75E 		ubfx	lr, r0, #23, #8
 922 046a 0020     		movs	r0, #0
 923              	.LVL89:
 464:lvgl/src/extra/widgets/led/../../../../src/hal/../misc/lv_color.h ****                                         (255 - mix) + LV_COLOR_MIX_ROUND_OFS));
 924              		.loc 2 464 5 is_stmt 0 view .LVU260
 925 046c 6EF31740 		bfi	r0, lr, #16, #8
 926              	.LVL90:
 466:lvgl/src/extra/widgets/led/../../../../src/hal/../misc/lv_color.h ****                                         (255 - mix) + LV_COLOR_MIX_ROUND_OFS));
 927              		.loc 2 466 5 is_stmt 1 view .LVU261
 928 0470 C7F30728 		ubfx	r8, r7, #8, #8
 929 0474 C2F3072E 		ubfx	lr, r2, #8, #8
 930 0478 0EFB03FE 		mul	lr, lr, r3
 931 047c 08FB0CEE 		mla	lr, r8, ip, lr
 932 0480 0EEB0E28 		add	r8, lr, lr, lsl #8
 933 0484 0EEBC81E 		add	lr, lr, r8, lsl #7
 934 0488 CEF3C75E 		ubfx	lr, lr, #23, #8
 935 048c 6EF30F20 		bfi	r0, lr, #8, #8
 468:lvgl/src/extra/widgets/led/../../../../src/hal/../misc/lv_color.h ****                                         (255 - mix) + LV_COLOR_MIX_ROUND_OFS));
 936              		.loc 2 468 5 view .LVU262
 937 0490 FFB2     		uxtb	r7, r7
 938              	.LVL91:
 468:lvgl/src/extra/widgets/led/../../../../src/hal/../misc/lv_color.h ****                                         (255 - mix) + LV_COLOR_MIX_ROUND_OFS));
 939              		.loc 2 468 5 is_stmt 0 view .LVU263
 940 0492 D2B2     		uxtb	r2, r2
 941 0494 03FB02F2 		mul	r2, r3, r2
 942 0498 07FB0C22 		mla	r2, r7, ip, r2
 943 049c 02EB0227 		add	r7, r2, r2, lsl #8
 944 04a0 02EBC712 		add	r2, r2, r7, lsl #7
 945 04a4 C2F3C752 		ubfx	r2, r2, #23, #8
 946 04a8 62F30700 		bfi	r0, r2, #0, #8
 470:lvgl/src/extra/widgets/led/../../../../src/hal/../misc/lv_color.h **** #else
 947              		.loc 2 470 5 is_stmt 1 view .LVU264
 948 04ac 40F07F40 		orr	r0, r0, #-16777216
 949              	.LVL92:
ARM GAS  /var/folders/k2/cd9bl_j17z77g23y6ffqb_400000gn/T//ccffY0Qv.s 			page 37


 476:lvgl/src/extra/widgets/led/../../../../src/hal/../misc/lv_color.h **** }
 950              		.loc 2 476 5 view .LVU265
 476:lvgl/src/extra/widgets/led/../../../../src/hal/../misc/lv_color.h **** }
 951              		.loc 2 476 5 is_stmt 0 view .LVU266
 952              	.LBE206:
 953              	.LBE205:
 191:lvgl/src/extra/widgets/led/lv_led.c ****         rect_dsc.shadow_color = lv_color_mix(rect_dsc.shadow_color, lv_color_black(), led->bright);
 954              		.loc 1 191 33 view .LVU267
 955 04b0 0990     		str	r0, [sp, #36]
 192:lvgl/src/extra/widgets/led/lv_led.c ****         rect_dsc.outline_color = lv_color_mix(rect_dsc.outline_color, lv_color_black(), led->bright
 956              		.loc 1 192 9 is_stmt 1 view .LVU268
 957              	.LBB207:
 958              	.LBI207:
 959              		.loc 2 675 26 view .LVU269
 960              	.LBE207:
 961              	.LBE226:
 962              		.loc 2 675 49 view .LVU270
 963              	.LVL93:
 964              	.LBB227:
 965              	.LBB210:
 966              	.LBB208:
 967              	.LBI208:
 602:lvgl/src/extra/widgets/led/../../../../src/hal/../misc/lv_color.h **** {
 968              		.loc 2 602 26 view .LVU271
 969              	.LBB209:
 604:lvgl/src/extra/widgets/led/../../../../src/hal/../misc/lv_color.h **** }
 970              		.loc 2 604 5 view .LVU272
 604:lvgl/src/extra/widgets/led/../../../../src/hal/../misc/lv_color.h **** }
 971              		.loc 2 604 12 is_stmt 0 view .LVU273
 972 04b2 0027     		movs	r7, #0
 973 04b4 6FF30707 		bfc	r7, #0, #8
 974 04b8 6FF30F27 		bfc	r7, #8, #8
 975 04bc 6FF31747 		bfc	r7, #16, #8
 976 04c0 47F07F47 		orr	r7, r7, #-16777216
 977              	.LVL94:
 604:lvgl/src/extra/widgets/led/../../../../src/hal/../misc/lv_color.h **** }
 978              		.loc 2 604 12 view .LVU274
 979              	.LBE209:
 980              	.LBE208:
 981              	.LBE210:
 982              	.LBB211:
 983              	.LBI211:
 459:lvgl/src/extra/widgets/led/../../../../src/hal/../misc/lv_color.h **** {
 984              		.loc 2 459 48 is_stmt 1 view .LVU275
 985              	.LBB212:
 461:lvgl/src/extra/widgets/led/../../../../src/hal/../misc/lv_color.h **** #if LV_COLOR_DEPTH != 1
 986              		.loc 2 461 5 view .LVU276
 464:lvgl/src/extra/widgets/led/../../../../src/hal/../misc/lv_color.h ****                                         (255 - mix) + LV_COLOR_MIX_ROUND_OFS));
 987              		.loc 2 464 5 view .LVU277
 988 04c4 C6F30740 		ubfx	r0, r6, #16, #8
 989              	.LVL95:
 464:lvgl/src/extra/widgets/led/../../../../src/hal/../misc/lv_color.h ****                                         (255 - mix) + LV_COLOR_MIX_ROUND_OFS));
 990              		.loc 2 464 5 is_stmt 0 view .LVU278
 991 04c8 C7F30742 		ubfx	r2, r7, #16, #8
 992 04cc 03FB02F2 		mul	r2, r3, r2
 993 04d0 0CFB0022 		mla	r2, ip, r0, r2
 994 04d4 02EB0220 		add	r0, r2, r2, lsl #8
ARM GAS  /var/folders/k2/cd9bl_j17z77g23y6ffqb_400000gn/T//ccffY0Qv.s 			page 38


 995 04d8 02EBC012 		add	r2, r2, r0, lsl #7
 996 04dc C2F3C752 		ubfx	r2, r2, #23, #8
 997 04e0 0020     		movs	r0, #0
 998              	.LVL96:
 464:lvgl/src/extra/widgets/led/../../../../src/hal/../misc/lv_color.h ****                                         (255 - mix) + LV_COLOR_MIX_ROUND_OFS));
 999              		.loc 2 464 5 view .LVU279
 1000 04e2 62F31740 		bfi	r0, r2, #16, #8
 1001              	.LVL97:
 466:lvgl/src/extra/widgets/led/../../../../src/hal/../misc/lv_color.h ****                                         (255 - mix) + LV_COLOR_MIX_ROUND_OFS));
 1002              		.loc 2 466 5 is_stmt 1 view .LVU280
 1003 04e6 C6F3072E 		ubfx	lr, r6, #8, #8
 1004 04ea C7F30722 		ubfx	r2, r7, #8, #8
 1005 04ee 03FB02F2 		mul	r2, r3, r2
 1006 04f2 0EFB0C22 		mla	r2, lr, ip, r2
 1007 04f6 02EB022E 		add	lr, r2, r2, lsl #8
 1008 04fa 02EBCE12 		add	r2, r2, lr, lsl #7
 1009 04fe C2F3C752 		ubfx	r2, r2, #23, #8
 1010 0502 62F30F20 		bfi	r0, r2, #8, #8
 468:lvgl/src/extra/widgets/led/../../../../src/hal/../misc/lv_color.h ****                                         (255 - mix) + LV_COLOR_MIX_ROUND_OFS));
 1011              		.loc 2 468 5 view .LVU281
 1012 0506 F6B2     		uxtb	r6, r6
 1013              	.LVL98:
 468:lvgl/src/extra/widgets/led/../../../../src/hal/../misc/lv_color.h ****                                         (255 - mix) + LV_COLOR_MIX_ROUND_OFS));
 1014              		.loc 2 468 5 is_stmt 0 view .LVU282
 1015 0508 FFB2     		uxtb	r7, r7
 1016 050a 07FB03F3 		mul	r3, r7, r3
 1017 050e 06FB0C33 		mla	r3, r6, ip, r3
 1018 0512 03EB0322 		add	r2, r3, r3, lsl #8
 1019 0516 03EBC213 		add	r3, r3, r2, lsl #7
 1020 051a C3F3C753 		ubfx	r3, r3, #23, #8
 1021 051e 63F30700 		bfi	r0, r3, #0, #8
 470:lvgl/src/extra/widgets/led/../../../../src/hal/../misc/lv_color.h **** #else
 1022              		.loc 2 470 5 is_stmt 1 view .LVU283
 1023 0522 40F07F40 		orr	r0, r0, #-16777216
 1024              	.LVL99:
 476:lvgl/src/extra/widgets/led/../../../../src/hal/../misc/lv_color.h **** }
 1025              		.loc 2 476 5 view .LVU284
 476:lvgl/src/extra/widgets/led/../../../../src/hal/../misc/lv_color.h **** }
 1026              		.loc 2 476 5 is_stmt 0 view .LVU285
 1027              	.LBE212:
 1028              	.LBE211:
 192:lvgl/src/extra/widgets/led/lv_led.c ****         rect_dsc.outline_color = lv_color_mix(rect_dsc.outline_color, lv_color_black(), led->bright
 1029              		.loc 1 192 33 view .LVU286
 1030 0526 0E90     		str	r0, [sp, #56]
 193:lvgl/src/extra/widgets/led/lv_led.c **** 
 1031              		.loc 1 193 9 is_stmt 1 view .LVU287
 1032              	.LBB213:
 1033              	.LBI213:
 1034              		.loc 2 675 26 view .LVU288
 1035              	.LBE213:
 1036              	.LBE227:
 1037              		.loc 2 675 49 view .LVU289
 1038              	.LVL100:
 1039              	.LBB228:
 1040              	.LBB216:
 1041              	.LBB214:
 1042              	.LBI214:
ARM GAS  /var/folders/k2/cd9bl_j17z77g23y6ffqb_400000gn/T//ccffY0Qv.s 			page 39


 602:lvgl/src/extra/widgets/led/../../../../src/hal/../misc/lv_color.h **** {
 1043              		.loc 2 602 26 view .LVU290
 1044              	.LBB215:
 604:lvgl/src/extra/widgets/led/../../../../src/hal/../misc/lv_color.h **** }
 1045              		.loc 2 604 5 view .LVU291
 604:lvgl/src/extra/widgets/led/../../../../src/hal/../misc/lv_color.h **** }
 1046              		.loc 2 604 12 is_stmt 0 view .LVU292
 1047 0528 0027     		movs	r7, #0
 1048 052a 6FF30707 		bfc	r7, #0, #8
 1049 052e 6FF30F27 		bfc	r7, #8, #8
 1050 0532 6FF31747 		bfc	r7, #16, #8
 1051 0536 47F07F47 		orr	r7, r7, #-16777216
 1052              	.LVL101:
 604:lvgl/src/extra/widgets/led/../../../../src/hal/../misc/lv_color.h **** }
 1053              		.loc 2 604 12 view .LVU293
 1054              	.LBE215:
 1055              	.LBE214:
 1056              	.LBE216:
 193:lvgl/src/extra/widgets/led/lv_led.c **** 
 1057              		.loc 1 193 34 view .LVU294
 1058 053a 95F82860 		ldrb	r6, [r5, #40]	@ zero_extendqisi2
 1059              	.LVL102:
 1060              	.LBB217:
 1061              	.LBI217:
 459:lvgl/src/extra/widgets/led/../../../../src/hal/../misc/lv_color.h **** {
 1062              		.loc 2 459 48 is_stmt 1 view .LVU295
 1063              	.LBB218:
 461:lvgl/src/extra/widgets/led/../../../../src/hal/../misc/lv_color.h **** #if LV_COLOR_DEPTH != 1
 1064              		.loc 2 461 5 view .LVU296
 464:lvgl/src/extra/widgets/led/../../../../src/hal/../misc/lv_color.h ****                                         (255 - mix) + LV_COLOR_MIX_ROUND_OFS));
 1065              		.loc 2 464 5 view .LVU297
 1066 053e C1F30740 		ubfx	r0, r1, #16, #8
 1067              	.LVL103:
 464:lvgl/src/extra/widgets/led/../../../../src/hal/../misc/lv_color.h ****                                         (255 - mix) + LV_COLOR_MIX_ROUND_OFS));
 1068              		.loc 2 464 5 is_stmt 0 view .LVU298
 1069 0542 C7F30742 		ubfx	r2, r7, #16, #8
 1070 0546 C6F1FF03 		rsb	r3, r6, #255
 1071 054a 03FB02F2 		mul	r2, r3, r2
 1072 054e 06FB0022 		mla	r2, r6, r0, r2
 1073 0552 02EB0220 		add	r0, r2, r2, lsl #8
 1074 0556 02EBC012 		add	r2, r2, r0, lsl #7
 1075 055a C2F3C752 		ubfx	r2, r2, #23, #8
 1076 055e 0020     		movs	r0, #0
 1077              	.LVL104:
 464:lvgl/src/extra/widgets/led/../../../../src/hal/../misc/lv_color.h ****                                         (255 - mix) + LV_COLOR_MIX_ROUND_OFS));
 1078              		.loc 2 464 5 view .LVU299
 1079 0560 62F31740 		bfi	r0, r2, #16, #8
 1080              	.LVL105:
 466:lvgl/src/extra/widgets/led/../../../../src/hal/../misc/lv_color.h ****                                         (255 - mix) + LV_COLOR_MIX_ROUND_OFS));
 1081              		.loc 2 466 5 is_stmt 1 view .LVU300
 1082 0564 C1F3072C 		ubfx	ip, r1, #8, #8
 1083 0568 C7F30722 		ubfx	r2, r7, #8, #8
 1084 056c 03FB02F2 		mul	r2, r3, r2
 1085 0570 0CFB0622 		mla	r2, ip, r6, r2
 1086 0574 02EB022C 		add	ip, r2, r2, lsl #8
 1087 0578 02EBCC12 		add	r2, r2, ip, lsl #7
 1088 057c C2F3C752 		ubfx	r2, r2, #23, #8
ARM GAS  /var/folders/k2/cd9bl_j17z77g23y6ffqb_400000gn/T//ccffY0Qv.s 			page 40


 1089 0580 62F30F20 		bfi	r0, r2, #8, #8
 468:lvgl/src/extra/widgets/led/../../../../src/hal/../misc/lv_color.h ****                                         (255 - mix) + LV_COLOR_MIX_ROUND_OFS));
 1090              		.loc 2 468 5 view .LVU301
 1091 0584 C9B2     		uxtb	r1, r1
 1092              	.LVL106:
 468:lvgl/src/extra/widgets/led/../../../../src/hal/../misc/lv_color.h ****                                         (255 - mix) + LV_COLOR_MIX_ROUND_OFS));
 1093              		.loc 2 468 5 is_stmt 0 view .LVU302
 1094 0586 FFB2     		uxtb	r7, r7
 1095 0588 07FB03F3 		mul	r3, r7, r3
 1096 058c 01FB0631 		mla	r1, r1, r6, r3
 1097 0590 01EB0123 		add	r3, r1, r1, lsl #8
 1098 0594 01EBC311 		add	r1, r1, r3, lsl #7
 1099 0598 C1F3C751 		ubfx	r1, r1, #23, #8
 1100 059c 61F30700 		bfi	r0, r1, #0, #8
 470:lvgl/src/extra/widgets/led/../../../../src/hal/../misc/lv_color.h **** #else
 1101              		.loc 2 470 5 is_stmt 1 view .LVU303
 1102 05a0 40F07F40 		orr	r0, r0, #-16777216
 1103              	.LVL107:
 476:lvgl/src/extra/widgets/led/../../../../src/hal/../misc/lv_color.h **** }
 1104              		.loc 2 476 5 view .LVU304
 476:lvgl/src/extra/widgets/led/../../../../src/hal/../misc/lv_color.h **** }
 1105              		.loc 2 476 5 is_stmt 0 view .LVU305
 1106              	.LBE218:
 1107              	.LBE217:
 193:lvgl/src/extra/widgets/led/lv_led.c **** 
 1108              		.loc 1 193 34 view .LVU306
 1109 05a4 0B90     		str	r0, [sp, #44]
 197:lvgl/src/extra/widgets/led/lv_led.c ****                 (LV_LED_BRIGHT_MAX - LV_LED_BRIGHT_MIN);
 1110              		.loc 1 197 9 is_stmt 1 view .LVU307
 197:lvgl/src/extra/widgets/led/lv_led.c ****                 (LV_LED_BRIGHT_MAX - LV_LED_BRIGHT_MIN);
 1111              		.loc 1 197 38 is_stmt 0 view .LVU308
 1112 05a6 95F82820 		ldrb	r2, [r5, #40]	@ zero_extendqisi2
 197:lvgl/src/extra/widgets/led/lv_led.c ****                 (LV_LED_BRIGHT_MAX - LV_LED_BRIGHT_MIN);
 1113              		.loc 1 197 47 view .LVU309
 1114 05aa 503A     		subs	r2, r2, #80
 197:lvgl/src/extra/widgets/led/lv_led.c ****                 (LV_LED_BRIGHT_MAX - LV_LED_BRIGHT_MIN);
 1115              		.loc 1 197 78 view .LVU310
 1116 05ac BDF93C30 		ldrsh	r3, [sp, #60]
 197:lvgl/src/extra/widgets/led/lv_led.c ****                 (LV_LED_BRIGHT_MAX - LV_LED_BRIGHT_MIN);
 1117              		.loc 1 197 68 view .LVU311
 1118 05b0 03FB02F2 		mul	r2, r3, r2
 197:lvgl/src/extra/widgets/led/lv_led.c ****                 (LV_LED_BRIGHT_MAX - LV_LED_BRIGHT_MIN);
 1119              		.loc 1 197 93 view .LVU312
 1120 05b4 0F49     		ldr	r1, .L9
 1121 05b6 81FB0203 		smull	r0, r3, r1, r2
 1122              	.LVL108:
 197:lvgl/src/extra/widgets/led/lv_led.c ****                 (LV_LED_BRIGHT_MAX - LV_LED_BRIGHT_MIN);
 1123              		.loc 1 197 93 view .LVU313
 1124 05ba D217     		asrs	r2, r2, #31
 1125 05bc C2EBA312 		rsb	r2, r2, r3, asr #6
 197:lvgl/src/extra/widgets/led/lv_led.c ****                 (LV_LED_BRIGHT_MAX - LV_LED_BRIGHT_MIN);
 1126              		.loc 1 197 31 view .LVU314
 1127 05c0 ADF83C20 		strh	r2, [sp, #60]	@ movhi
 199:lvgl/src/extra/widgets/led/lv_led.c ****                 (LV_LED_BRIGHT_MAX - LV_LED_BRIGHT_MIN);
 1128              		.loc 1 199 9 is_stmt 1 view .LVU315
 199:lvgl/src/extra/widgets/led/lv_led.c ****                 (LV_LED_BRIGHT_MAX - LV_LED_BRIGHT_MIN);
 1129              		.loc 1 199 39 is_stmt 0 view .LVU316
ARM GAS  /var/folders/k2/cd9bl_j17z77g23y6ffqb_400000gn/T//ccffY0Qv.s 			page 41


 1130 05c4 95F82830 		ldrb	r3, [r5, #40]	@ zero_extendqisi2
 199:lvgl/src/extra/widgets/led/lv_led.c ****                 (LV_LED_BRIGHT_MAX - LV_LED_BRIGHT_MIN);
 1131              		.loc 1 199 48 view .LVU317
 1132 05c8 503B     		subs	r3, r3, #80
 199:lvgl/src/extra/widgets/led/lv_led.c ****                 (LV_LED_BRIGHT_MAX - LV_LED_BRIGHT_MIN);
 1133              		.loc 1 199 79 view .LVU318
 1134 05ca BDF94220 		ldrsh	r2, [sp, #66]
 199:lvgl/src/extra/widgets/led/lv_led.c ****                 (LV_LED_BRIGHT_MAX - LV_LED_BRIGHT_MIN);
 1135              		.loc 1 199 69 view .LVU319
 1136 05ce 02FB03F3 		mul	r3, r2, r3
 199:lvgl/src/extra/widgets/led/lv_led.c ****                 (LV_LED_BRIGHT_MAX - LV_LED_BRIGHT_MIN);
 1137              		.loc 1 199 95 view .LVU320
 1138 05d2 81FB0321 		smull	r2, r1, r1, r3
 1139 05d6 DB17     		asrs	r3, r3, #31
 1140 05d8 C3EBA113 		rsb	r3, r3, r1, asr #6
 199:lvgl/src/extra/widgets/led/lv_led.c ****                 (LV_LED_BRIGHT_MAX - LV_LED_BRIGHT_MIN);
 1141              		.loc 1 199 32 view .LVU321
 1142 05dc ADF84230 		strh	r3, [sp, #66]	@ movhi
 202:lvgl/src/extra/widgets/led/lv_led.c ****         lv_draw_rect(&obj->coords, clip_area, &rect_dsc);
 1143              		.loc 1 202 9 is_stmt 1 view .LVU322
 202:lvgl/src/extra/widgets/led/lv_led.c ****         lv_draw_rect(&obj->coords, clip_area, &rect_dsc);
 1144              		.loc 1 202 39 is_stmt 0 view .LVU323
 1145 05e0 2046     		mov	r0, r4
 1146 05e2 FFF7FEFF 		bl	lv_event_get_param
 1147              	.LVL109:
 1148 05e6 0146     		mov	r1, r0
 1149              	.LVL110:
 203:lvgl/src/extra/widgets/led/lv_led.c ****     }
 1150              		.loc 1 203 9 is_stmt 1 view .LVU324
 1151 05e8 01AA     		add	r2, sp, #4
 1152 05ea 05F11400 		add	r0, r5, #20
 1153              	.LVL111:
 203:lvgl/src/extra/widgets/led/lv_led.c ****     }
 1154              		.loc 1 203 9 is_stmt 0 view .LVU325
 1155 05ee FFF7FEFF 		bl	lv_draw_rect
 1156              	.LVL112:
 203:lvgl/src/extra/widgets/led/lv_led.c ****     }
 1157              		.loc 1 203 9 view .LVU326
 1158 05f2 0EE5     		b	.L3
 1159              	.L10:
 1160              		.align	2
 1161              	.L9:
 1162 05f4 91739F5D 		.word	1570730897
 1163              	.LBE228:
 1164              		.cfi_endproc
 1165              	.LFE192:
 1167              		.section	.text.lv_led_create,"ax",%progbits
 1168              		.align	1
 1169              		.global	lv_led_create
 1170              		.syntax unified
 1171              		.thumb
 1172              		.thumb_func
 1173              		.fpu fpv4-sp-d16
 1175              	lv_led_create:
 1176              	.LVL113:
 1177              	.LFB184:
  61:lvgl/src/extra/widgets/led/lv_led.c ****     LV_LOG_INFO("begin")
ARM GAS  /var/folders/k2/cd9bl_j17z77g23y6ffqb_400000gn/T//ccffY0Qv.s 			page 42


 1178              		.loc 1 61 1 is_stmt 1 view -0
 1179              		.cfi_startproc
 1180              		@ args = 0, pretend = 0, frame = 0
 1181              		@ frame_needed = 0, uses_anonymous_args = 0
  61:lvgl/src/extra/widgets/led/lv_led.c ****     LV_LOG_INFO("begin")
 1182              		.loc 1 61 1 is_stmt 0 view .LVU328
 1183 0000 10B5     		push	{r4, lr}
 1184              	.LCFI5:
 1185              		.cfi_def_cfa_offset 8
 1186              		.cfi_offset 4, -8
 1187              		.cfi_offset 14, -4
 1188 0002 0146     		mov	r1, r0
  63:lvgl/src/extra/widgets/led/lv_led.c ****     lv_obj_class_init_obj(obj);
 1189              		.loc 1 63 5 is_stmt 1 view .LVU329
  63:lvgl/src/extra/widgets/led/lv_led.c ****     lv_obj_class_init_obj(obj);
 1190              		.loc 1 63 22 is_stmt 0 view .LVU330
 1191 0004 0348     		ldr	r0, .L13
 1192              	.LVL114:
  63:lvgl/src/extra/widgets/led/lv_led.c ****     lv_obj_class_init_obj(obj);
 1193              		.loc 1 63 22 view .LVU331
 1194 0006 FFF7FEFF 		bl	lv_obj_class_create_obj
 1195              	.LVL115:
  63:lvgl/src/extra/widgets/led/lv_led.c ****     lv_obj_class_init_obj(obj);
 1196              		.loc 1 63 22 view .LVU332
 1197 000a 0446     		mov	r4, r0
 1198              	.LVL116:
  64:lvgl/src/extra/widgets/led/lv_led.c ****     return obj;
 1199              		.loc 1 64 5 is_stmt 1 view .LVU333
 1200 000c FFF7FEFF 		bl	lv_obj_class_init_obj
 1201              	.LVL117:
  65:lvgl/src/extra/widgets/led/lv_led.c **** }
 1202              		.loc 1 65 5 view .LVU334
  66:lvgl/src/extra/widgets/led/lv_led.c **** 
 1203              		.loc 1 66 1 is_stmt 0 view .LVU335
 1204 0010 2046     		mov	r0, r4
 1205 0012 10BD     		pop	{r4, pc}
 1206              	.LVL118:
 1207              	.L14:
  66:lvgl/src/extra/widgets/led/lv_led.c **** 
 1208              		.loc 1 66 1 view .LVU336
 1209              		.align	2
 1210              	.L13:
 1211 0014 00000000 		.word	.LANCHOR0
 1212              		.cfi_endproc
 1213              	.LFE184:
 1215              		.section	.text.lv_led_set_color,"ax",%progbits
 1216              		.align	1
 1217              		.global	lv_led_set_color
 1218              		.syntax unified
 1219              		.thumb
 1220              		.thumb_func
 1221              		.fpu fpv4-sp-d16
 1223              	lv_led_set_color:
 1224              	.LVL119:
 1225              	.LFB185:
  78:lvgl/src/extra/widgets/led/lv_led.c ****     lv_led_t * led = (lv_led_t *)obj;
 1226              		.loc 1 78 1 is_stmt 1 view -0
ARM GAS  /var/folders/k2/cd9bl_j17z77g23y6ffqb_400000gn/T//ccffY0Qv.s 			page 43


 1227              		.cfi_startproc
 1228              		@ args = 0, pretend = 0, frame = 0
 1229              		@ frame_needed = 0, uses_anonymous_args = 0
  78:lvgl/src/extra/widgets/led/lv_led.c ****     lv_led_t * led = (lv_led_t *)obj;
 1230              		.loc 1 78 1 is_stmt 0 view .LVU338
 1231 0000 08B5     		push	{r3, lr}
 1232              	.LCFI6:
 1233              		.cfi_def_cfa_offset 8
 1234              		.cfi_offset 3, -8
 1235              		.cfi_offset 14, -4
  79:lvgl/src/extra/widgets/led/lv_led.c ****     led->color = color;
 1236              		.loc 1 79 5 is_stmt 1 view .LVU339
 1237              	.LVL120:
  80:lvgl/src/extra/widgets/led/lv_led.c ****     lv_obj_invalidate(obj);
 1238              		.loc 1 80 5 view .LVU340
  80:lvgl/src/extra/widgets/led/lv_led.c ****     lv_obj_invalidate(obj);
 1239              		.loc 1 80 16 is_stmt 0 view .LVU341
 1240 0002 4162     		str	r1, [r0, #36]
  81:lvgl/src/extra/widgets/led/lv_led.c **** }
 1241              		.loc 1 81 5 is_stmt 1 view .LVU342
 1242 0004 FFF7FEFF 		bl	lv_obj_invalidate
 1243              	.LVL121:
  82:lvgl/src/extra/widgets/led/lv_led.c **** 
 1244              		.loc 1 82 1 is_stmt 0 view .LVU343
 1245 0008 08BD     		pop	{r3, pc}
 1246              		.cfi_endproc
 1247              	.LFE185:
 1249              		.section	.text.lv_led_set_brightness,"ax",%progbits
 1250              		.align	1
 1251              		.global	lv_led_set_brightness
 1252              		.syntax unified
 1253              		.thumb
 1254              		.thumb_func
 1255              		.fpu fpv4-sp-d16
 1257              	lv_led_set_brightness:
 1258              	.LVL122:
 1259              	.LFB186:
  90:lvgl/src/extra/widgets/led/lv_led.c ****     lv_led_t * led = (lv_led_t *)obj;
 1260              		.loc 1 90 1 is_stmt 1 view -0
 1261              		.cfi_startproc
 1262              		@ args = 0, pretend = 0, frame = 0
 1263              		@ frame_needed = 0, uses_anonymous_args = 0
  90:lvgl/src/extra/widgets/led/lv_led.c ****     lv_led_t * led = (lv_led_t *)obj;
 1264              		.loc 1 90 1 is_stmt 0 view .LVU345
 1265 0000 08B5     		push	{r3, lr}
 1266              	.LCFI7:
 1267              		.cfi_def_cfa_offset 8
 1268              		.cfi_offset 3, -8
 1269              		.cfi_offset 14, -4
  91:lvgl/src/extra/widgets/led/lv_led.c ****     if(led->bright == bright) return;
 1270              		.loc 1 91 5 is_stmt 1 view .LVU346
 1271              	.LVL123:
  92:lvgl/src/extra/widgets/led/lv_led.c **** 
 1272              		.loc 1 92 5 view .LVU347
  92:lvgl/src/extra/widgets/led/lv_led.c **** 
 1273              		.loc 1 92 11 is_stmt 0 view .LVU348
 1274 0002 90F82830 		ldrb	r3, [r0, #40]	@ zero_extendqisi2
ARM GAS  /var/folders/k2/cd9bl_j17z77g23y6ffqb_400000gn/T//ccffY0Qv.s 			page 44


  92:lvgl/src/extra/widgets/led/lv_led.c **** 
 1275              		.loc 1 92 7 view .LVU349
 1276 0006 8B42     		cmp	r3, r1
 1277 0008 06D0     		beq	.L17
  94:lvgl/src/extra/widgets/led/lv_led.c ****     if(bright >= LV_LED_BRIGHT_MAX) bright = LV_LED_BRIGHT_MAX;
 1278              		.loc 1 94 5 is_stmt 1 view .LVU350
  94:lvgl/src/extra/widgets/led/lv_led.c ****     if(bright >= LV_LED_BRIGHT_MAX) bright = LV_LED_BRIGHT_MAX;
 1279              		.loc 1 94 7 is_stmt 0 view .LVU351
 1280 000a 5029     		cmp	r1, #80
 1281 000c 00D8     		bhi	.L19
  94:lvgl/src/extra/widgets/led/lv_led.c ****     if(bright >= LV_LED_BRIGHT_MAX) bright = LV_LED_BRIGHT_MAX;
 1282              		.loc 1 94 44 view .LVU352
 1283 000e 5021     		movs	r1, #80
 1284              	.LVL124:
 1285              	.L19:
  97:lvgl/src/extra/widgets/led/lv_led.c **** 
 1286              		.loc 1 97 5 is_stmt 1 view .LVU353
  97:lvgl/src/extra/widgets/led/lv_led.c **** 
 1287              		.loc 1 97 17 is_stmt 0 view .LVU354
 1288 0010 80F82810 		strb	r1, [r0, #40]
 100:lvgl/src/extra/widgets/led/lv_led.c **** }
 1289              		.loc 1 100 5 is_stmt 1 view .LVU355
 1290 0014 FFF7FEFF 		bl	lv_obj_invalidate
 1291              	.LVL125:
 1292              	.L17:
 101:lvgl/src/extra/widgets/led/lv_led.c **** 
 1293              		.loc 1 101 1 is_stmt 0 view .LVU356
 1294 0018 08BD     		pop	{r3, pc}
 1295              		.cfi_endproc
 1296              	.LFE186:
 1298              		.section	.text.lv_led_on,"ax",%progbits
 1299              		.align	1
 1300              		.global	lv_led_on
 1301              		.syntax unified
 1302              		.thumb
 1303              		.thumb_func
 1304              		.fpu fpv4-sp-d16
 1306              	lv_led_on:
 1307              	.LVL126:
 1308              	.LFB187:
 108:lvgl/src/extra/widgets/led/lv_led.c ****     lv_led_set_brightness(led, LV_LED_BRIGHT_MAX);
 1309              		.loc 1 108 1 is_stmt 1 view -0
 1310              		.cfi_startproc
 1311              		@ args = 0, pretend = 0, frame = 0
 1312              		@ frame_needed = 0, uses_anonymous_args = 0
 108:lvgl/src/extra/widgets/led/lv_led.c ****     lv_led_set_brightness(led, LV_LED_BRIGHT_MAX);
 1313              		.loc 1 108 1 is_stmt 0 view .LVU358
 1314 0000 08B5     		push	{r3, lr}
 1315              	.LCFI8:
 1316              		.cfi_def_cfa_offset 8
 1317              		.cfi_offset 3, -8
 1318              		.cfi_offset 14, -4
 109:lvgl/src/extra/widgets/led/lv_led.c **** }
 1319              		.loc 1 109 5 is_stmt 1 view .LVU359
 1320 0002 FF21     		movs	r1, #255
 1321 0004 FFF7FEFF 		bl	lv_led_set_brightness
 1322              	.LVL127:
ARM GAS  /var/folders/k2/cd9bl_j17z77g23y6ffqb_400000gn/T//ccffY0Qv.s 			page 45


 110:lvgl/src/extra/widgets/led/lv_led.c **** 
 1323              		.loc 1 110 1 is_stmt 0 view .LVU360
 1324 0008 08BD     		pop	{r3, pc}
 1325              		.cfi_endproc
 1326              	.LFE187:
 1328              		.section	.text.lv_led_off,"ax",%progbits
 1329              		.align	1
 1330              		.global	lv_led_off
 1331              		.syntax unified
 1332              		.thumb
 1333              		.thumb_func
 1334              		.fpu fpv4-sp-d16
 1336              	lv_led_off:
 1337              	.LVL128:
 1338              	.LFB188:
 117:lvgl/src/extra/widgets/led/lv_led.c ****     lv_led_set_brightness(led, LV_LED_BRIGHT_MIN);
 1339              		.loc 1 117 1 is_stmt 1 view -0
 1340              		.cfi_startproc
 1341              		@ args = 0, pretend = 0, frame = 0
 1342              		@ frame_needed = 0, uses_anonymous_args = 0
 117:lvgl/src/extra/widgets/led/lv_led.c ****     lv_led_set_brightness(led, LV_LED_BRIGHT_MIN);
 1343              		.loc 1 117 1 is_stmt 0 view .LVU362
 1344 0000 08B5     		push	{r3, lr}
 1345              	.LCFI9:
 1346              		.cfi_def_cfa_offset 8
 1347              		.cfi_offset 3, -8
 1348              		.cfi_offset 14, -4
 118:lvgl/src/extra/widgets/led/lv_led.c **** }
 1349              		.loc 1 118 5 is_stmt 1 view .LVU363
 1350 0002 5021     		movs	r1, #80
 1351 0004 FFF7FEFF 		bl	lv_led_set_brightness
 1352              	.LVL129:
 119:lvgl/src/extra/widgets/led/lv_led.c **** 
 1353              		.loc 1 119 1 is_stmt 0 view .LVU364
 1354 0008 08BD     		pop	{r3, pc}
 1355              		.cfi_endproc
 1356              	.LFE188:
 1358              		.section	.text.lv_led_get_brightness,"ax",%progbits
 1359              		.align	1
 1360              		.global	lv_led_get_brightness
 1361              		.syntax unified
 1362              		.thumb
 1363              		.thumb_func
 1364              		.fpu fpv4-sp-d16
 1366              	lv_led_get_brightness:
 1367              	.LVL130:
 1368              	.LFB190:
 144:lvgl/src/extra/widgets/led/lv_led.c ****     lv_led_t * led = (lv_led_t *)obj;
 1369              		.loc 1 144 1 is_stmt 1 view -0
 1370              		.cfi_startproc
 1371              		@ args = 0, pretend = 0, frame = 0
 1372              		@ frame_needed = 0, uses_anonymous_args = 0
 1373              		@ link register save eliminated.
 145:lvgl/src/extra/widgets/led/lv_led.c ****     return led->bright;
 1374              		.loc 1 145 5 view .LVU366
 146:lvgl/src/extra/widgets/led/lv_led.c **** }
 1375              		.loc 1 146 5 view .LVU367
ARM GAS  /var/folders/k2/cd9bl_j17z77g23y6ffqb_400000gn/T//ccffY0Qv.s 			page 46


 147:lvgl/src/extra/widgets/led/lv_led.c **** 
 1376              		.loc 1 147 1 is_stmt 0 view .LVU368
 1377 0000 90F82800 		ldrb	r0, [r0, #40]	@ zero_extendqisi2
 1378              	.LVL131:
 147:lvgl/src/extra/widgets/led/lv_led.c **** 
 1379              		.loc 1 147 1 view .LVU369
 1380 0004 7047     		bx	lr
 1381              		.cfi_endproc
 1382              	.LFE190:
 1384              		.section	.text.lv_led_toggle,"ax",%progbits
 1385              		.align	1
 1386              		.global	lv_led_toggle
 1387              		.syntax unified
 1388              		.thumb
 1389              		.thumb_func
 1390              		.fpu fpv4-sp-d16
 1392              	lv_led_toggle:
 1393              	.LVL132:
 1394              	.LFB189:
 126:lvgl/src/extra/widgets/led/lv_led.c ****     uint8_t bright = lv_led_get_brightness(obj);
 1395              		.loc 1 126 1 is_stmt 1 view -0
 1396              		.cfi_startproc
 1397              		@ args = 0, pretend = 0, frame = 0
 1398              		@ frame_needed = 0, uses_anonymous_args = 0
 126:lvgl/src/extra/widgets/led/lv_led.c ****     uint8_t bright = lv_led_get_brightness(obj);
 1399              		.loc 1 126 1 is_stmt 0 view .LVU371
 1400 0000 10B5     		push	{r4, lr}
 1401              	.LCFI10:
 1402              		.cfi_def_cfa_offset 8
 1403              		.cfi_offset 4, -8
 1404              		.cfi_offset 14, -4
 1405 0002 0446     		mov	r4, r0
 127:lvgl/src/extra/widgets/led/lv_led.c ****     if(bright > (LV_LED_BRIGHT_MIN + LV_LED_BRIGHT_MAX) >> 1)
 1406              		.loc 1 127 5 is_stmt 1 view .LVU372
 127:lvgl/src/extra/widgets/led/lv_led.c ****     if(bright > (LV_LED_BRIGHT_MIN + LV_LED_BRIGHT_MAX) >> 1)
 1407              		.loc 1 127 22 is_stmt 0 view .LVU373
 1408 0004 FFF7FEFF 		bl	lv_led_get_brightness
 1409              	.LVL133:
 128:lvgl/src/extra/widgets/led/lv_led.c ****         lv_led_off(obj);
 1410              		.loc 1 128 5 is_stmt 1 view .LVU374
 128:lvgl/src/extra/widgets/led/lv_led.c ****         lv_led_off(obj);
 1411              		.loc 1 128 7 is_stmt 0 view .LVU375
 1412 0008 A728     		cmp	r0, #167
 1413 000a 03D9     		bls	.L28
 129:lvgl/src/extra/widgets/led/lv_led.c ****     else
 1414              		.loc 1 129 9 is_stmt 1 view .LVU376
 1415 000c 2046     		mov	r0, r4
 1416              	.LVL134:
 129:lvgl/src/extra/widgets/led/lv_led.c ****     else
 1417              		.loc 1 129 9 is_stmt 0 view .LVU377
 1418 000e FFF7FEFF 		bl	lv_led_off
 1419              	.LVL135:
 1420              	.L27:
 132:lvgl/src/extra/widgets/led/lv_led.c **** 
 1421              		.loc 1 132 1 view .LVU378
 1422 0012 10BD     		pop	{r4, pc}
 1423              	.LVL136:
ARM GAS  /var/folders/k2/cd9bl_j17z77g23y6ffqb_400000gn/T//ccffY0Qv.s 			page 47


 1424              	.L28:
 131:lvgl/src/extra/widgets/led/lv_led.c **** }
 1425              		.loc 1 131 9 is_stmt 1 view .LVU379
 1426 0014 2046     		mov	r0, r4
 1427              	.LVL137:
 131:lvgl/src/extra/widgets/led/lv_led.c **** }
 1428              		.loc 1 131 9 is_stmt 0 view .LVU380
 1429 0016 FFF7FEFF 		bl	lv_led_on
 1430              	.LVL138:
 132:lvgl/src/extra/widgets/led/lv_led.c **** 
 1431              		.loc 1 132 1 view .LVU381
 1432 001a FAE7     		b	.L27
 1433              		.cfi_endproc
 1434              	.LFE189:
 1436              		.global	lv_led_class
 1437              		.section	.rodata.lv_led_class,"a"
 1438              		.align	2
 1439              		.set	.LANCHOR0,. + 0
 1442              	lv_led_class:
 1443 0000 00000000 		.word	lv_obj_class
 1444 0004 00000000 		.word	lv_led_constructor
 1445 0008 00000000 		.space	8
 1445      00000000 
 1446 0010 00000000 		.word	lv_led_event
 1447 0014 1A00     		.short	26
 1448 0016 1A00     		.short	26
 1449 0018 C0       		.byte	192
 1450 0019 02       		.byte	2
 1451 001a 00       		.byte	0
 1452 001b 00       		.space	1
 1453              		.text
 1454              	.Letext0:
 1455              		.file 3 "/Users/nhantt/tools/stm32/gcc-arm-none-eabi-10-2020-q4-major/arm-none-eabi/include/machin
 1456              		.file 4 "/Users/nhantt/tools/stm32/gcc-arm-none-eabi-10-2020-q4-major/arm-none-eabi/include/sys/_s
 1457              		.file 5 "lvgl/src/extra/widgets/led/../../../../src/misc/lv_types.h"
 1458              		.file 6 "lvgl/src/extra/widgets/led/../../../../src/misc/lv_ll.h"
 1459              		.file 7 "lvgl/src/extra/widgets/led/../../../../src/hal/../misc/lv_area.h"
 1460              		.file 8 "lvgl/src/extra/widgets/led/../../../../src/core/lv_obj.h"
 1461              		.file 9 "lvgl/src/extra/widgets/led/../../../../src/core/lv_group.h"
 1462              		.file 10 "lvgl/src/extra/widgets/led/../../../../src/core/../misc/lv_style.h"
 1463              		.file 11 "lvgl/src/extra/widgets/led/../../../../src/core/lv_obj_scroll.h"
 1464              		.file 12 "lvgl/src/extra/widgets/led/../../../../src/core/lv_obj_style.h"
 1465              		.file 13 "lvgl/src/extra/widgets/led/../../../../src/core/../draw/lv_draw_rect.h"
 1466              		.file 14 "lvgl/src/extra/widgets/led/../../../../src/core/lv_obj_class.h"
 1467              		.file 15 "lvgl/src/extra/widgets/led/../../../../src/core/lv_event.h"
 1468              		.file 16 "lvgl/src/extra/widgets/led/../../../../src/widgets/lv_bar.h"
 1469              		.file 17 "lvgl/src/extra/widgets/led/../../../../src/extra/widgets/imgbtn/lv_imgbtn.h"
 1470              		.file 18 "lvgl/src/extra/widgets/led/lv_led.h"
 1471              		.file 19 "lvgl/src/extra/widgets/led/../../../../src/core/lv_obj_draw.h"
 1472              		.file 20 "lvgl/src/extra/widgets/led/../../../../src/core/lv_theme.h"
 1473              		.file 21 "lvgl/src/extra/widgets/led/../../../../src/core/lv_obj_pos.h"
ARM GAS  /var/folders/k2/cd9bl_j17z77g23y6ffqb_400000gn/T//ccffY0Qv.s 			page 48

