ARM GAS  C:\Users\BLACK_~1\AppData\Local\Temp\ccbv02In.s 			page 1


   1              		.cpu cortex-m4
   2              		.arch armv7e-m
   3              		.fpu fpv4-sp-d16
   4              		.eabi_attribute 27, 1
   5              		.eabi_attribute 28, 1
   6              		.eabi_attribute 20, 1
   7              		.eabi_attribute 21, 1
   8              		.eabi_attribute 23, 3
   9              		.eabi_attribute 24, 1
  10              		.eabi_attribute 25, 1
  11              		.eabi_attribute 26, 1
  12              		.eabi_attribute 30, 1
  13              		.eabi_attribute 34, 1
  14              		.eabi_attribute 18, 4
  15              		.file	"lv_obj_style.c"
  16              		.text
  17              	.Ltext0:
  18              		.cfi_sections	.debug_frame
  19              		.section	.text.trans_del,"ax",%progbits
  20              		.align	1
  21              		.syntax unified
  22              		.thumb
  23              		.thumb_func
  25              	trans_del:
  26              	.LVL0:
  27              	.LFB175:
  28              		.file 1 "lvgl/src/core/lv_obj_style.c"
   1:lvgl/src/core/lv_obj_style.c **** /**
   2:lvgl/src/core/lv_obj_style.c ****  * @file lv_obj_style.c
   3:lvgl/src/core/lv_obj_style.c ****  *
   4:lvgl/src/core/lv_obj_style.c ****  */
   5:lvgl/src/core/lv_obj_style.c **** 
   6:lvgl/src/core/lv_obj_style.c **** /*********************
   7:lvgl/src/core/lv_obj_style.c ****  *      INCLUDES
   8:lvgl/src/core/lv_obj_style.c ****  *********************/
   9:lvgl/src/core/lv_obj_style.c **** #include "lv_obj.h"
  10:lvgl/src/core/lv_obj_style.c **** #include "lv_disp.h"
  11:lvgl/src/core/lv_obj_style.c **** #include "../misc/lv_gc.h"
  12:lvgl/src/core/lv_obj_style.c **** 
  13:lvgl/src/core/lv_obj_style.c **** /*********************
  14:lvgl/src/core/lv_obj_style.c ****  *      DEFINES
  15:lvgl/src/core/lv_obj_style.c ****  *********************/
  16:lvgl/src/core/lv_obj_style.c **** #define MY_CLASS &lv_obj_class
  17:lvgl/src/core/lv_obj_style.c **** 
  18:lvgl/src/core/lv_obj_style.c **** /**********************
  19:lvgl/src/core/lv_obj_style.c ****  *      TYPEDEFS
  20:lvgl/src/core/lv_obj_style.c ****  **********************/
  21:lvgl/src/core/lv_obj_style.c **** 
  22:lvgl/src/core/lv_obj_style.c **** typedef struct {
  23:lvgl/src/core/lv_obj_style.c ****     lv_obj_t * obj;
  24:lvgl/src/core/lv_obj_style.c ****     lv_style_prop_t prop;
  25:lvgl/src/core/lv_obj_style.c ****     lv_style_selector_t selector;
  26:lvgl/src/core/lv_obj_style.c ****     lv_style_value_t start_value;
  27:lvgl/src/core/lv_obj_style.c ****     lv_style_value_t end_value;
  28:lvgl/src/core/lv_obj_style.c **** } trans_t;
  29:lvgl/src/core/lv_obj_style.c **** 
  30:lvgl/src/core/lv_obj_style.c **** typedef enum {
ARM GAS  C:\Users\BLACK_~1\AppData\Local\Temp\ccbv02In.s 			page 2


  31:lvgl/src/core/lv_obj_style.c ****     CACHE_ZERO = 0,
  32:lvgl/src/core/lv_obj_style.c ****     CACHE_TRUE = 1,
  33:lvgl/src/core/lv_obj_style.c ****     CACHE_UNSET = 2,
  34:lvgl/src/core/lv_obj_style.c ****     CACHE_255 = 3,
  35:lvgl/src/core/lv_obj_style.c ****     CACHE_NEED_CHECK = 4,
  36:lvgl/src/core/lv_obj_style.c **** }cache_t;
  37:lvgl/src/core/lv_obj_style.c **** 
  38:lvgl/src/core/lv_obj_style.c **** /**********************
  39:lvgl/src/core/lv_obj_style.c ****  *  GLOBAL PROTOTYPES
  40:lvgl/src/core/lv_obj_style.c ****  **********************/
  41:lvgl/src/core/lv_obj_style.c **** 
  42:lvgl/src/core/lv_obj_style.c **** /**********************
  43:lvgl/src/core/lv_obj_style.c ****  *  STATIC PROTOTYPES
  44:lvgl/src/core/lv_obj_style.c ****  **********************/
  45:lvgl/src/core/lv_obj_style.c **** static lv_style_t * get_local_style(lv_obj_t * obj, lv_style_selector_t selector);
  46:lvgl/src/core/lv_obj_style.c **** static _lv_obj_style_t * get_trans_style(lv_obj_t * obj, uint32_t part);
  47:lvgl/src/core/lv_obj_style.c **** static bool get_prop_core(const lv_obj_t * obj, lv_part_t part, lv_style_prop_t prop, lv_style_valu
  48:lvgl/src/core/lv_obj_style.c **** static lv_style_value_t apply_color_filter(const lv_obj_t * obj, uint32_t part, lv_style_value_t v)
  49:lvgl/src/core/lv_obj_style.c **** static void report_style_change_core(void * style, lv_obj_t * obj);
  50:lvgl/src/core/lv_obj_style.c **** static void refresh_children_style(lv_obj_t * obj);
  51:lvgl/src/core/lv_obj_style.c **** static bool trans_del(lv_obj_t * obj, lv_part_t part, lv_style_prop_t prop, trans_t * tr_limit);
  52:lvgl/src/core/lv_obj_style.c **** static void trans_anim_cb(void * _tr, int32_t v);
  53:lvgl/src/core/lv_obj_style.c **** static void trans_anim_start_cb(lv_anim_t * a);
  54:lvgl/src/core/lv_obj_style.c **** static void trans_anim_ready_cb(lv_anim_t * a);
  55:lvgl/src/core/lv_obj_style.c **** static void fade_anim_cb(void * obj, int32_t v);
  56:lvgl/src/core/lv_obj_style.c **** static void fade_in_anim_ready(lv_anim_t * a);
  57:lvgl/src/core/lv_obj_style.c **** 
  58:lvgl/src/core/lv_obj_style.c **** /**********************
  59:lvgl/src/core/lv_obj_style.c ****  *  STATIC VARIABLES
  60:lvgl/src/core/lv_obj_style.c ****  **********************/
  61:lvgl/src/core/lv_obj_style.c **** static bool style_refr = true;
  62:lvgl/src/core/lv_obj_style.c **** 
  63:lvgl/src/core/lv_obj_style.c **** /**********************
  64:lvgl/src/core/lv_obj_style.c ****  *      MACROS
  65:lvgl/src/core/lv_obj_style.c ****  **********************/
  66:lvgl/src/core/lv_obj_style.c **** 
  67:lvgl/src/core/lv_obj_style.c **** /**********************
  68:lvgl/src/core/lv_obj_style.c ****  *   GLOBAL FUNCTIONS
  69:lvgl/src/core/lv_obj_style.c ****  **********************/
  70:lvgl/src/core/lv_obj_style.c **** 
  71:lvgl/src/core/lv_obj_style.c **** void _lv_obj_style_init(void)
  72:lvgl/src/core/lv_obj_style.c **** {
  73:lvgl/src/core/lv_obj_style.c ****     _lv_ll_init(&LV_GC_ROOT(_lv_obj_style_trans_ll), sizeof(trans_t));
  74:lvgl/src/core/lv_obj_style.c **** }
  75:lvgl/src/core/lv_obj_style.c **** 
  76:lvgl/src/core/lv_obj_style.c **** void lv_obj_add_style(lv_obj_t * obj, lv_style_t * style, lv_style_selector_t selector)
  77:lvgl/src/core/lv_obj_style.c **** {
  78:lvgl/src/core/lv_obj_style.c ****     trans_del(obj, selector, LV_STYLE_PROP_ANY, NULL);
  79:lvgl/src/core/lv_obj_style.c **** 
  80:lvgl/src/core/lv_obj_style.c ****     uint32_t i;
  81:lvgl/src/core/lv_obj_style.c ****     /*Go after the transition and local styles*/
  82:lvgl/src/core/lv_obj_style.c ****     for(i = 0; i < obj->style_cnt; i++) {
  83:lvgl/src/core/lv_obj_style.c ****         if(obj->styles[i].is_trans) continue;
  84:lvgl/src/core/lv_obj_style.c ****         if(obj->styles[i].is_local) continue;
  85:lvgl/src/core/lv_obj_style.c ****         break;
  86:lvgl/src/core/lv_obj_style.c ****     }
  87:lvgl/src/core/lv_obj_style.c **** 
ARM GAS  C:\Users\BLACK_~1\AppData\Local\Temp\ccbv02In.s 			page 3


  88:lvgl/src/core/lv_obj_style.c ****     /*Now `i` is at the first normal style. Insert the new style before this*/
  89:lvgl/src/core/lv_obj_style.c **** 
  90:lvgl/src/core/lv_obj_style.c ****     /*Allocate space for the new style and shift the rest of the style to the end*/
  91:lvgl/src/core/lv_obj_style.c ****     obj->style_cnt++;
  92:lvgl/src/core/lv_obj_style.c ****     obj->styles = lv_mem_realloc(obj->styles, obj->style_cnt * sizeof(_lv_obj_style_t));
  93:lvgl/src/core/lv_obj_style.c **** 
  94:lvgl/src/core/lv_obj_style.c ****     uint32_t j;
  95:lvgl/src/core/lv_obj_style.c ****     for(j = obj->style_cnt - 1; j > i ; j--) {
  96:lvgl/src/core/lv_obj_style.c ****         obj->styles[j] = obj->styles[j - 1];
  97:lvgl/src/core/lv_obj_style.c ****     }
  98:lvgl/src/core/lv_obj_style.c **** 
  99:lvgl/src/core/lv_obj_style.c ****     lv_memset_00(&obj->styles[i], sizeof(_lv_obj_style_t));
 100:lvgl/src/core/lv_obj_style.c ****     obj->styles[i].style = style;
 101:lvgl/src/core/lv_obj_style.c ****     obj->styles[i].selector = selector;
 102:lvgl/src/core/lv_obj_style.c **** 
 103:lvgl/src/core/lv_obj_style.c ****     lv_obj_refresh_style(obj, selector, LV_STYLE_PROP_ANY);
 104:lvgl/src/core/lv_obj_style.c **** }
 105:lvgl/src/core/lv_obj_style.c **** 
 106:lvgl/src/core/lv_obj_style.c **** void lv_obj_remove_style(lv_obj_t * obj, lv_style_t * style, lv_style_selector_t selector)
 107:lvgl/src/core/lv_obj_style.c **** {
 108:lvgl/src/core/lv_obj_style.c ****     lv_state_t state = lv_obj_style_get_selector_state(selector);
 109:lvgl/src/core/lv_obj_style.c ****     lv_part_t part = lv_obj_style_get_selector_part(selector);
 110:lvgl/src/core/lv_obj_style.c ****     lv_style_prop_t prop = LV_STYLE_PROP_ANY;
 111:lvgl/src/core/lv_obj_style.c ****     if(style && style->prop_cnt == 0) prop = LV_STYLE_PROP_INV;
 112:lvgl/src/core/lv_obj_style.c **** 
 113:lvgl/src/core/lv_obj_style.c ****     uint32_t i = 0;
 114:lvgl/src/core/lv_obj_style.c ****     bool deleted = false;
 115:lvgl/src/core/lv_obj_style.c ****     while(i <  obj->style_cnt) {
 116:lvgl/src/core/lv_obj_style.c ****         lv_state_t state_act = lv_obj_style_get_selector_state(obj->styles[i].selector);
 117:lvgl/src/core/lv_obj_style.c ****         lv_part_t part_act = lv_obj_style_get_selector_part(obj->styles[i].selector);
 118:lvgl/src/core/lv_obj_style.c ****         if((state != LV_STATE_ANY && state_act != state) ||
 119:lvgl/src/core/lv_obj_style.c ****            (part != LV_PART_ANY && part_act != part) ||
 120:lvgl/src/core/lv_obj_style.c ****            (style != NULL && style != obj->styles[i].style))
 121:lvgl/src/core/lv_obj_style.c ****         {
 122:lvgl/src/core/lv_obj_style.c ****             i++;
 123:lvgl/src/core/lv_obj_style.c ****             continue;
 124:lvgl/src/core/lv_obj_style.c ****         }
 125:lvgl/src/core/lv_obj_style.c **** 
 126:lvgl/src/core/lv_obj_style.c ****         if(obj->styles[i].is_trans) {
 127:lvgl/src/core/lv_obj_style.c ****             trans_del(obj, part, LV_STYLE_PROP_ANY, NULL);
 128:lvgl/src/core/lv_obj_style.c ****         }
 129:lvgl/src/core/lv_obj_style.c **** 
 130:lvgl/src/core/lv_obj_style.c ****         if(obj->styles[i].is_local || obj->styles[i].is_trans) {
 131:lvgl/src/core/lv_obj_style.c ****             lv_style_reset(obj->styles[i].style);
 132:lvgl/src/core/lv_obj_style.c ****             lv_mem_free(obj->styles[i].style);
 133:lvgl/src/core/lv_obj_style.c ****             obj->styles[i].style = NULL;
 134:lvgl/src/core/lv_obj_style.c ****         }
 135:lvgl/src/core/lv_obj_style.c **** 
 136:lvgl/src/core/lv_obj_style.c ****         /*Shift the styles after `i` by one*/
 137:lvgl/src/core/lv_obj_style.c ****         uint32_t j;
 138:lvgl/src/core/lv_obj_style.c ****         for(j = i; j < (uint32_t)obj->style_cnt - 1 ; j++) {
 139:lvgl/src/core/lv_obj_style.c ****             obj->styles[j] = obj->styles[j + 1];
 140:lvgl/src/core/lv_obj_style.c ****         }
 141:lvgl/src/core/lv_obj_style.c **** 
 142:lvgl/src/core/lv_obj_style.c ****         obj->style_cnt--;
 143:lvgl/src/core/lv_obj_style.c ****         obj->styles = lv_mem_realloc(obj->styles, obj->style_cnt * sizeof(_lv_obj_style_t));
 144:lvgl/src/core/lv_obj_style.c **** 
ARM GAS  C:\Users\BLACK_~1\AppData\Local\Temp\ccbv02In.s 			page 4


 145:lvgl/src/core/lv_obj_style.c ****         deleted = true;
 146:lvgl/src/core/lv_obj_style.c ****         /*The style from the current `i` index is removed, so `i` points to the next style.
 147:lvgl/src/core/lv_obj_style.c ****          *Therefore it doesn't needs to be incremented*/
 148:lvgl/src/core/lv_obj_style.c ****     }
 149:lvgl/src/core/lv_obj_style.c ****     if(deleted && prop != LV_STYLE_PROP_INV) {
 150:lvgl/src/core/lv_obj_style.c ****         lv_obj_refresh_style(obj, part, prop);
 151:lvgl/src/core/lv_obj_style.c ****     }
 152:lvgl/src/core/lv_obj_style.c **** }
 153:lvgl/src/core/lv_obj_style.c **** 
 154:lvgl/src/core/lv_obj_style.c **** void lv_obj_report_style_change(lv_style_t * style)
 155:lvgl/src/core/lv_obj_style.c **** {
 156:lvgl/src/core/lv_obj_style.c ****     if(!style_refr) return;
 157:lvgl/src/core/lv_obj_style.c ****     lv_disp_t * d = lv_disp_get_next(NULL);
 158:lvgl/src/core/lv_obj_style.c **** 
 159:lvgl/src/core/lv_obj_style.c ****     while(d) {
 160:lvgl/src/core/lv_obj_style.c ****         uint32_t i;
 161:lvgl/src/core/lv_obj_style.c ****         for(i = 0; i < d->screen_cnt; i++) {
 162:lvgl/src/core/lv_obj_style.c ****             report_style_change_core(style, d->screens[i]);
 163:lvgl/src/core/lv_obj_style.c ****         }
 164:lvgl/src/core/lv_obj_style.c ****         d = lv_disp_get_next(d);
 165:lvgl/src/core/lv_obj_style.c ****     }
 166:lvgl/src/core/lv_obj_style.c **** }
 167:lvgl/src/core/lv_obj_style.c **** 
 168:lvgl/src/core/lv_obj_style.c **** void lv_obj_refresh_style(lv_obj_t * obj, lv_style_selector_t selector, lv_style_prop_t prop)
 169:lvgl/src/core/lv_obj_style.c **** {
 170:lvgl/src/core/lv_obj_style.c ****     LV_ASSERT_OBJ(obj, MY_CLASS);
 171:lvgl/src/core/lv_obj_style.c **** 
 172:lvgl/src/core/lv_obj_style.c ****     if(!style_refr) return;
 173:lvgl/src/core/lv_obj_style.c **** 
 174:lvgl/src/core/lv_obj_style.c ****     lv_obj_invalidate(obj);
 175:lvgl/src/core/lv_obj_style.c **** 
 176:lvgl/src/core/lv_obj_style.c ****     lv_part_t part = lv_obj_style_get_selector_part(selector);
 177:lvgl/src/core/lv_obj_style.c **** 
 178:lvgl/src/core/lv_obj_style.c ****     if((part == LV_PART_ANY || part == LV_PART_MAIN) && (prop == LV_STYLE_PROP_ANY || (prop & LV_ST
 179:lvgl/src/core/lv_obj_style.c ****         lv_event_send(obj, LV_EVENT_STYLE_CHANGED, NULL);
 180:lvgl/src/core/lv_obj_style.c ****         lv_obj_mark_layout_as_dirty(obj);
 181:lvgl/src/core/lv_obj_style.c ****     }
 182:lvgl/src/core/lv_obj_style.c ****     if((part == LV_PART_ANY || part == LV_PART_MAIN) && (prop == LV_STYLE_PROP_ANY || (prop & LV_ST
 183:lvgl/src/core/lv_obj_style.c ****         lv_obj_t * parent = lv_obj_get_parent(obj);
 184:lvgl/src/core/lv_obj_style.c ****         if(parent) lv_obj_mark_layout_as_dirty(parent);
 185:lvgl/src/core/lv_obj_style.c ****     }
 186:lvgl/src/core/lv_obj_style.c **** 
 187:lvgl/src/core/lv_obj_style.c ****     if(prop == LV_STYLE_PROP_ANY || (prop & LV_STYLE_PROP_EXT_DRAW)) {
 188:lvgl/src/core/lv_obj_style.c ****         lv_obj_refresh_ext_draw_size(obj);
 189:lvgl/src/core/lv_obj_style.c ****     }
 190:lvgl/src/core/lv_obj_style.c ****     lv_obj_invalidate(obj);
 191:lvgl/src/core/lv_obj_style.c **** 
 192:lvgl/src/core/lv_obj_style.c ****     if(prop == LV_STYLE_PROP_ANY ||
 193:lvgl/src/core/lv_obj_style.c ****       ((prop & LV_STYLE_PROP_INHERIT) && ((prop & LV_STYLE_PROP_EXT_DRAW) || (prop & LV_STYLE_PROP_
 194:lvgl/src/core/lv_obj_style.c ****     {
 195:lvgl/src/core/lv_obj_style.c ****         if(part != LV_PART_SCROLLBAR) {
 196:lvgl/src/core/lv_obj_style.c ****             refresh_children_style(obj);
 197:lvgl/src/core/lv_obj_style.c ****         }
 198:lvgl/src/core/lv_obj_style.c ****     }
 199:lvgl/src/core/lv_obj_style.c **** }
 200:lvgl/src/core/lv_obj_style.c **** 
 201:lvgl/src/core/lv_obj_style.c **** void lv_obj_enable_style_refresh(bool en)
ARM GAS  C:\Users\BLACK_~1\AppData\Local\Temp\ccbv02In.s 			page 5


 202:lvgl/src/core/lv_obj_style.c **** {
 203:lvgl/src/core/lv_obj_style.c ****     style_refr = en;
 204:lvgl/src/core/lv_obj_style.c **** }
 205:lvgl/src/core/lv_obj_style.c **** 
 206:lvgl/src/core/lv_obj_style.c **** lv_style_value_t lv_obj_get_style_prop(const lv_obj_t * obj, lv_part_t part, lv_style_prop_t prop)
 207:lvgl/src/core/lv_obj_style.c **** {
 208:lvgl/src/core/lv_obj_style.c ****     lv_style_value_t value_act;
 209:lvgl/src/core/lv_obj_style.c ****     bool inherit = prop & LV_STYLE_PROP_INHERIT ? true : false;
 210:lvgl/src/core/lv_obj_style.c ****     bool filter = prop & LV_STYLE_PROP_FILTER ? true : false;
 211:lvgl/src/core/lv_obj_style.c ****     if(filter) {
 212:lvgl/src/core/lv_obj_style.c ****         prop &= ~LV_STYLE_PROP_FILTER;
 213:lvgl/src/core/lv_obj_style.c ****     }
 214:lvgl/src/core/lv_obj_style.c ****     bool found = false;
 215:lvgl/src/core/lv_obj_style.c ****     while(obj) {
 216:lvgl/src/core/lv_obj_style.c ****         found = get_prop_core(obj, part, prop, &value_act);
 217:lvgl/src/core/lv_obj_style.c ****         if(found) break;
 218:lvgl/src/core/lv_obj_style.c ****         if(!inherit) break;
 219:lvgl/src/core/lv_obj_style.c **** 
 220:lvgl/src/core/lv_obj_style.c ****         /*If not found, check the `MAIN` style first*/
 221:lvgl/src/core/lv_obj_style.c ****         if(part != LV_PART_MAIN) {
 222:lvgl/src/core/lv_obj_style.c ****             part = LV_PART_MAIN;
 223:lvgl/src/core/lv_obj_style.c ****             continue;
 224:lvgl/src/core/lv_obj_style.c ****         }
 225:lvgl/src/core/lv_obj_style.c **** 
 226:lvgl/src/core/lv_obj_style.c ****         /*Check the parent too.*/
 227:lvgl/src/core/lv_obj_style.c ****         obj = lv_obj_get_parent(obj);
 228:lvgl/src/core/lv_obj_style.c ****     }
 229:lvgl/src/core/lv_obj_style.c **** 
 230:lvgl/src/core/lv_obj_style.c ****     if(!found) {
 231:lvgl/src/core/lv_obj_style.c ****         if(part == LV_PART_MAIN && (prop == LV_STYLE_WIDTH || prop == LV_STYLE_HEIGHT)) {
 232:lvgl/src/core/lv_obj_style.c ****             const lv_obj_class_t * cls = obj->class_p;
 233:lvgl/src/core/lv_obj_style.c ****             while(cls) {
 234:lvgl/src/core/lv_obj_style.c ****                 if(prop == LV_STYLE_WIDTH) {
 235:lvgl/src/core/lv_obj_style.c ****                     if(cls->width_def != 0) break;
 236:lvgl/src/core/lv_obj_style.c ****                 } else {
 237:lvgl/src/core/lv_obj_style.c ****                     if(cls->height_def != 0) break;
 238:lvgl/src/core/lv_obj_style.c ****                 }
 239:lvgl/src/core/lv_obj_style.c ****                 cls = cls->base_class;
 240:lvgl/src/core/lv_obj_style.c ****             }
 241:lvgl/src/core/lv_obj_style.c **** 
 242:lvgl/src/core/lv_obj_style.c ****             value_act.num = prop == LV_STYLE_WIDTH ? cls->width_def : cls->height_def;
 243:lvgl/src/core/lv_obj_style.c ****         } else {
 244:lvgl/src/core/lv_obj_style.c ****             value_act = lv_style_prop_get_default(prop);
 245:lvgl/src/core/lv_obj_style.c ****         }
 246:lvgl/src/core/lv_obj_style.c ****     }
 247:lvgl/src/core/lv_obj_style.c ****     if(filter) value_act = apply_color_filter(obj, part, value_act);
 248:lvgl/src/core/lv_obj_style.c ****     return value_act;
 249:lvgl/src/core/lv_obj_style.c **** }
 250:lvgl/src/core/lv_obj_style.c **** 
 251:lvgl/src/core/lv_obj_style.c **** void lv_obj_set_local_style_prop(lv_obj_t * obj, lv_style_prop_t prop, lv_style_value_t value, lv_s
 252:lvgl/src/core/lv_obj_style.c **** {
 253:lvgl/src/core/lv_obj_style.c ****     lv_style_t * style = get_local_style(obj, selector);
 254:lvgl/src/core/lv_obj_style.c ****     lv_style_set_prop(style, prop, value);
 255:lvgl/src/core/lv_obj_style.c ****     lv_obj_refresh_style(obj, selector, prop);
 256:lvgl/src/core/lv_obj_style.c **** }
 257:lvgl/src/core/lv_obj_style.c **** 
 258:lvgl/src/core/lv_obj_style.c **** 
ARM GAS  C:\Users\BLACK_~1\AppData\Local\Temp\ccbv02In.s 			page 6


 259:lvgl/src/core/lv_obj_style.c **** lv_res_t lv_obj_get_local_style_prop(lv_obj_t * obj, lv_style_prop_t prop, lv_style_value_t * value
 260:lvgl/src/core/lv_obj_style.c **** {
 261:lvgl/src/core/lv_obj_style.c ****     uint32_t i;
 262:lvgl/src/core/lv_obj_style.c ****     for(i = 0; i < obj->style_cnt; i++) {
 263:lvgl/src/core/lv_obj_style.c ****         if(obj->styles[i].is_local &&
 264:lvgl/src/core/lv_obj_style.c ****            obj->styles[i].selector ==  selector)
 265:lvgl/src/core/lv_obj_style.c ****         {
 266:lvgl/src/core/lv_obj_style.c ****             return lv_style_get_prop(obj->styles[i].style, prop, value);
 267:lvgl/src/core/lv_obj_style.c ****         }
 268:lvgl/src/core/lv_obj_style.c ****     }
 269:lvgl/src/core/lv_obj_style.c **** 
 270:lvgl/src/core/lv_obj_style.c ****     return LV_RES_INV;
 271:lvgl/src/core/lv_obj_style.c **** }
 272:lvgl/src/core/lv_obj_style.c **** 
 273:lvgl/src/core/lv_obj_style.c **** bool lv_obj_remove_local_style_prop(lv_obj_t * obj, lv_style_prop_t prop, lv_style_selector_t selec
 274:lvgl/src/core/lv_obj_style.c **** {
 275:lvgl/src/core/lv_obj_style.c ****     LV_ASSERT_OBJ(obj, MY_CLASS);
 276:lvgl/src/core/lv_obj_style.c **** 
 277:lvgl/src/core/lv_obj_style.c ****     uint32_t i;
 278:lvgl/src/core/lv_obj_style.c ****     /*Find the style*/
 279:lvgl/src/core/lv_obj_style.c ****     for(i = 0; i < obj->style_cnt; i++) {
 280:lvgl/src/core/lv_obj_style.c ****         if(obj->styles[i].is_local &&
 281:lvgl/src/core/lv_obj_style.c ****            obj->styles[i].selector == selector) {
 282:lvgl/src/core/lv_obj_style.c ****             break;
 283:lvgl/src/core/lv_obj_style.c ****         }
 284:lvgl/src/core/lv_obj_style.c ****     }
 285:lvgl/src/core/lv_obj_style.c **** 
 286:lvgl/src/core/lv_obj_style.c ****     /*The style is not found*/
 287:lvgl/src/core/lv_obj_style.c ****     if(i == obj->style_cnt) return false;
 288:lvgl/src/core/lv_obj_style.c **** 
 289:lvgl/src/core/lv_obj_style.c ****     return lv_style_remove_prop(obj->styles[i].style, prop);
 290:lvgl/src/core/lv_obj_style.c **** }
 291:lvgl/src/core/lv_obj_style.c **** 
 292:lvgl/src/core/lv_obj_style.c **** void _lv_obj_style_create_transition(lv_obj_t * obj, lv_part_t part, lv_state_t prev_state, lv_stat
 293:lvgl/src/core/lv_obj_style.c **** {
 294:lvgl/src/core/lv_obj_style.c ****     trans_t * tr;
 295:lvgl/src/core/lv_obj_style.c **** 
 296:lvgl/src/core/lv_obj_style.c ****     /*Get the previous and current values*/
 297:lvgl/src/core/lv_obj_style.c ****     obj->skip_trans = 1;
 298:lvgl/src/core/lv_obj_style.c ****     obj->state = prev_state;
 299:lvgl/src/core/lv_obj_style.c ****     lv_style_value_t v1 = lv_obj_get_style_prop(obj, part, tr_dsc->prop);
 300:lvgl/src/core/lv_obj_style.c ****     obj->state = new_state;
 301:lvgl/src/core/lv_obj_style.c ****     lv_style_value_t v2 = lv_obj_get_style_prop(obj, part, tr_dsc->prop);
 302:lvgl/src/core/lv_obj_style.c ****     obj->skip_trans = 0;
 303:lvgl/src/core/lv_obj_style.c **** 
 304:lvgl/src/core/lv_obj_style.c ****     if(v1.ptr == v2.ptr && v1.num == v2.num && v1.color.full == v2.color.full)  return;
 305:lvgl/src/core/lv_obj_style.c ****     obj->state = prev_state;
 306:lvgl/src/core/lv_obj_style.c ****     v1 = lv_obj_get_style_prop(obj, part, tr_dsc->prop);
 307:lvgl/src/core/lv_obj_style.c ****     obj->state = new_state;
 308:lvgl/src/core/lv_obj_style.c **** 
 309:lvgl/src/core/lv_obj_style.c ****     _lv_obj_style_t * style_trans = get_trans_style(obj, part);
 310:lvgl/src/core/lv_obj_style.c ****     lv_style_set_prop(style_trans->style, tr_dsc->prop, v1);   /*Be sure `trans_style` has a valid 
 311:lvgl/src/core/lv_obj_style.c **** 
 312:lvgl/src/core/lv_obj_style.c ****     if(tr_dsc->prop == LV_STYLE_RADIUS) {
 313:lvgl/src/core/lv_obj_style.c ****         if(v1.num == LV_RADIUS_CIRCLE || v2.num == LV_RADIUS_CIRCLE) {
 314:lvgl/src/core/lv_obj_style.c ****             lv_coord_t whalf = lv_obj_get_width(obj) / 2;
 315:lvgl/src/core/lv_obj_style.c ****             lv_coord_t hhalf = lv_obj_get_width(obj) / 2;
ARM GAS  C:\Users\BLACK_~1\AppData\Local\Temp\ccbv02In.s 			page 7


 316:lvgl/src/core/lv_obj_style.c ****             if(v1.num == LV_RADIUS_CIRCLE) v1.num = LV_MIN(whalf + 1, hhalf + 1);
 317:lvgl/src/core/lv_obj_style.c ****             if(v2.num == LV_RADIUS_CIRCLE) v2.num = LV_MIN(whalf + 1, hhalf + 1);
 318:lvgl/src/core/lv_obj_style.c ****         }
 319:lvgl/src/core/lv_obj_style.c ****     }
 320:lvgl/src/core/lv_obj_style.c **** 
 321:lvgl/src/core/lv_obj_style.c ****     tr = _lv_ll_ins_head(&LV_GC_ROOT(_lv_obj_style_trans_ll));
 322:lvgl/src/core/lv_obj_style.c ****     LV_ASSERT_MALLOC(tr);
 323:lvgl/src/core/lv_obj_style.c ****     if(tr == NULL) return;
 324:lvgl/src/core/lv_obj_style.c ****     tr->start_value = v1;
 325:lvgl/src/core/lv_obj_style.c ****     tr->end_value = v2;
 326:lvgl/src/core/lv_obj_style.c **** 
 327:lvgl/src/core/lv_obj_style.c ****     if(tr) {
 328:lvgl/src/core/lv_obj_style.c ****         tr->obj = obj;
 329:lvgl/src/core/lv_obj_style.c ****         tr->prop = tr_dsc->prop;
 330:lvgl/src/core/lv_obj_style.c ****         tr->selector = part;
 331:lvgl/src/core/lv_obj_style.c **** 
 332:lvgl/src/core/lv_obj_style.c ****         lv_anim_t a;
 333:lvgl/src/core/lv_obj_style.c ****         lv_anim_init(&a);
 334:lvgl/src/core/lv_obj_style.c ****         lv_anim_set_var(&a, tr);
 335:lvgl/src/core/lv_obj_style.c ****         lv_anim_set_exec_cb(&a, trans_anim_cb);
 336:lvgl/src/core/lv_obj_style.c ****         lv_anim_set_start_cb(&a, trans_anim_start_cb);
 337:lvgl/src/core/lv_obj_style.c ****         lv_anim_set_ready_cb(&a, trans_anim_ready_cb);
 338:lvgl/src/core/lv_obj_style.c ****         lv_anim_set_values(&a, 0x00, 0xFF);
 339:lvgl/src/core/lv_obj_style.c ****         lv_anim_set_time(&a, tr_dsc->time);
 340:lvgl/src/core/lv_obj_style.c ****         lv_anim_set_delay(&a, tr_dsc->delay);
 341:lvgl/src/core/lv_obj_style.c ****         lv_anim_set_path_cb(&a, tr_dsc->path_cb);
 342:lvgl/src/core/lv_obj_style.c ****         lv_anim_set_early_apply(&a, false);
 343:lvgl/src/core/lv_obj_style.c **** #if LV_USE_USER_DATA
 344:lvgl/src/core/lv_obj_style.c ****         a.user_data = tr_dsc->user_data;
 345:lvgl/src/core/lv_obj_style.c **** #endif
 346:lvgl/src/core/lv_obj_style.c ****         lv_anim_start(&a);
 347:lvgl/src/core/lv_obj_style.c ****     }
 348:lvgl/src/core/lv_obj_style.c **** }
 349:lvgl/src/core/lv_obj_style.c **** 
 350:lvgl/src/core/lv_obj_style.c **** _lv_style_state_cmp_t _lv_obj_style_state_compare(lv_obj_t * obj, lv_state_t state1, lv_state_t sta
 351:lvgl/src/core/lv_obj_style.c **** {
 352:lvgl/src/core/lv_obj_style.c ****     _lv_style_state_cmp_t res = _LV_STYLE_STATE_CMP_SAME;
 353:lvgl/src/core/lv_obj_style.c **** 
 354:lvgl/src/core/lv_obj_style.c ****     /*Are there any new styles for the new state?*/
 355:lvgl/src/core/lv_obj_style.c ****     uint32_t i;
 356:lvgl/src/core/lv_obj_style.c ****     for(i = 0; i < obj->style_cnt; i++) {
 357:lvgl/src/core/lv_obj_style.c ****         if(obj->styles[i].is_trans) continue;
 358:lvgl/src/core/lv_obj_style.c **** 
 359:lvgl/src/core/lv_obj_style.c ****         lv_state_t state_act = lv_obj_style_get_selector_state(obj->styles[i].selector);
 360:lvgl/src/core/lv_obj_style.c ****         lv_part_t part_act = lv_obj_style_get_selector_part(obj->styles[i].selector);
 361:lvgl/src/core/lv_obj_style.c ****         /*The style is valid for a stat but not the other*/
 362:lvgl/src/core/lv_obj_style.c ****         bool valid1 = state_act & (~state1) ? false : true;
 363:lvgl/src/core/lv_obj_style.c ****         bool valid2 = state_act & (~state2) ? false : true;
 364:lvgl/src/core/lv_obj_style.c ****         if(valid1 != valid2) {
 365:lvgl/src/core/lv_obj_style.c ****             lv_style_t * style = obj->styles[i].style;
 366:lvgl/src/core/lv_obj_style.c ****             lv_style_value_t v;
 367:lvgl/src/core/lv_obj_style.c ****             /*If there is layout difference on the main part, return immediately. There is no more 
 368:lvgl/src/core/lv_obj_style.c ****             bool layout_diff = false;
 369:lvgl/src/core/lv_obj_style.c ****             if(lv_style_get_prop(style, LV_STYLE_PAD_TOP, &v))layout_diff = true;
 370:lvgl/src/core/lv_obj_style.c ****             else if(lv_style_get_prop(style, LV_STYLE_PAD_BOTTOM, &v)) layout_diff = true;
 371:lvgl/src/core/lv_obj_style.c ****             else if(lv_style_get_prop(style, LV_STYLE_PAD_LEFT, &v)) layout_diff = true;
 372:lvgl/src/core/lv_obj_style.c ****             else if(lv_style_get_prop(style, LV_STYLE_PAD_RIGHT, &v)) layout_diff = true;
ARM GAS  C:\Users\BLACK_~1\AppData\Local\Temp\ccbv02In.s 			page 8


 373:lvgl/src/core/lv_obj_style.c ****             else if(lv_style_get_prop(style, LV_STYLE_PAD_COLUMN, &v)) layout_diff = true;
 374:lvgl/src/core/lv_obj_style.c ****             else if(lv_style_get_prop(style, LV_STYLE_PAD_ROW, &v)) layout_diff = true;
 375:lvgl/src/core/lv_obj_style.c ****             else if(lv_style_get_prop(style, LV_STYLE_LAYOUT, &v)) layout_diff = true;
 376:lvgl/src/core/lv_obj_style.c ****             else if(lv_style_get_prop(style, LV_STYLE_TRANSLATE_X, &v)) layout_diff = true;
 377:lvgl/src/core/lv_obj_style.c ****             else if(lv_style_get_prop(style, LV_STYLE_TRANSLATE_Y, &v)) layout_diff = true;
 378:lvgl/src/core/lv_obj_style.c ****             else if(lv_style_get_prop(style, LV_STYLE_WIDTH, &v)) layout_diff = true;
 379:lvgl/src/core/lv_obj_style.c ****             else if(lv_style_get_prop(style, LV_STYLE_HEIGHT, &v)) layout_diff = true;
 380:lvgl/src/core/lv_obj_style.c ****             else if(lv_style_get_prop(style, LV_STYLE_MIN_WIDTH, &v)) layout_diff = true;
 381:lvgl/src/core/lv_obj_style.c ****             else if(lv_style_get_prop(style, LV_STYLE_MAX_WIDTH, &v)) layout_diff = true;
 382:lvgl/src/core/lv_obj_style.c ****             else if(lv_style_get_prop(style, LV_STYLE_MIN_HEIGHT, &v)) layout_diff = true;
 383:lvgl/src/core/lv_obj_style.c ****             else if(lv_style_get_prop(style, LV_STYLE_MAX_HEIGHT, &v)) layout_diff = true;
 384:lvgl/src/core/lv_obj_style.c ****             else if(lv_style_get_prop(style, LV_STYLE_BORDER_WIDTH, &v)) layout_diff = true;
 385:lvgl/src/core/lv_obj_style.c **** 
 386:lvgl/src/core/lv_obj_style.c ****             if(layout_diff) {
 387:lvgl/src/core/lv_obj_style.c ****                 if(part_act == LV_PART_MAIN) {
 388:lvgl/src/core/lv_obj_style.c ****                     return _LV_STYLE_STATE_CMP_DIFF_LAYOUT;
 389:lvgl/src/core/lv_obj_style.c ****                 }
 390:lvgl/src/core/lv_obj_style.c ****                 else {
 391:lvgl/src/core/lv_obj_style.c ****                     res = _LV_STYLE_STATE_CMP_DIFF_DRAW_PAD;
 392:lvgl/src/core/lv_obj_style.c ****                     continue;
 393:lvgl/src/core/lv_obj_style.c ****                 }
 394:lvgl/src/core/lv_obj_style.c ****             }
 395:lvgl/src/core/lv_obj_style.c **** 
 396:lvgl/src/core/lv_obj_style.c ****             /*Check for draw pad changes*/
 397:lvgl/src/core/lv_obj_style.c ****             if(lv_style_get_prop(style, LV_STYLE_TRANSFORM_WIDTH, &v)) res = _LV_STYLE_STATE_CMP_DI
 398:lvgl/src/core/lv_obj_style.c ****             else if(lv_style_get_prop(style, LV_STYLE_TRANSFORM_HEIGHT, &v)) res = _LV_STYLE_STATE_
 399:lvgl/src/core/lv_obj_style.c ****             else if(lv_style_get_prop(style, LV_STYLE_TRANSFORM_ANGLE, &v)) res = _LV_STYLE_STATE_C
 400:lvgl/src/core/lv_obj_style.c ****             else if(lv_style_get_prop(style, LV_STYLE_TRANSFORM_ZOOM, &v)) res = _LV_STYLE_STATE_CM
 401:lvgl/src/core/lv_obj_style.c ****             else if(lv_style_get_prop(style, LV_STYLE_OUTLINE_OPA, &v)) res = _LV_STYLE_STATE_CMP_D
 402:lvgl/src/core/lv_obj_style.c ****             else if(lv_style_get_prop(style, LV_STYLE_OUTLINE_PAD, &v)) res = _LV_STYLE_STATE_CMP_D
 403:lvgl/src/core/lv_obj_style.c ****             else if(lv_style_get_prop(style, LV_STYLE_OUTLINE_WIDTH, &v)) res = _LV_STYLE_STATE_CMP
 404:lvgl/src/core/lv_obj_style.c ****             else if(lv_style_get_prop(style, LV_STYLE_SHADOW_WIDTH, &v)) res = _LV_STYLE_STATE_CMP_
 405:lvgl/src/core/lv_obj_style.c ****             else if(lv_style_get_prop(style, LV_STYLE_SHADOW_OPA, &v)) res = _LV_STYLE_STATE_CMP_DI
 406:lvgl/src/core/lv_obj_style.c ****             else if(lv_style_get_prop(style, LV_STYLE_SHADOW_OFS_X, &v)) res = _LV_STYLE_STATE_CMP_
 407:lvgl/src/core/lv_obj_style.c ****             else if(lv_style_get_prop(style, LV_STYLE_SHADOW_OFS_Y, &v)) res = _LV_STYLE_STATE_CMP_
 408:lvgl/src/core/lv_obj_style.c ****             else if(lv_style_get_prop(style, LV_STYLE_SHADOW_SPREAD, &v)) res = _LV_STYLE_STATE_CMP
 409:lvgl/src/core/lv_obj_style.c ****             else if(lv_style_get_prop(style, LV_STYLE_LINE_WIDTH, &v)) res = _LV_STYLE_STATE_CMP_DI
 410:lvgl/src/core/lv_obj_style.c ****             else if(res == _LV_STYLE_STATE_CMP_SAME) res = _LV_STYLE_STATE_CMP_DIFF_REDRAW;
 411:lvgl/src/core/lv_obj_style.c ****         }
 412:lvgl/src/core/lv_obj_style.c ****     }
 413:lvgl/src/core/lv_obj_style.c **** 
 414:lvgl/src/core/lv_obj_style.c ****     return res;
 415:lvgl/src/core/lv_obj_style.c **** }
 416:lvgl/src/core/lv_obj_style.c **** 
 417:lvgl/src/core/lv_obj_style.c **** void lv_obj_fade_in(lv_obj_t * obj, uint32_t time, uint32_t delay)
 418:lvgl/src/core/lv_obj_style.c **** {
 419:lvgl/src/core/lv_obj_style.c ****     lv_anim_t a;
 420:lvgl/src/core/lv_obj_style.c ****     lv_anim_init(&a);
 421:lvgl/src/core/lv_obj_style.c ****     lv_anim_set_var(&a, obj);
 422:lvgl/src/core/lv_obj_style.c ****     lv_anim_set_values(&a, LV_OPA_TRANSP, LV_OPA_COVER);
 423:lvgl/src/core/lv_obj_style.c ****     lv_anim_set_exec_cb(&a, fade_anim_cb);
 424:lvgl/src/core/lv_obj_style.c ****     lv_anim_set_ready_cb(&a, fade_in_anim_ready);
 425:lvgl/src/core/lv_obj_style.c ****     lv_anim_set_time(&a, time);
 426:lvgl/src/core/lv_obj_style.c ****     lv_anim_set_delay(&a, delay);
 427:lvgl/src/core/lv_obj_style.c ****     lv_anim_start(&a);
 428:lvgl/src/core/lv_obj_style.c **** }
 429:lvgl/src/core/lv_obj_style.c **** 
ARM GAS  C:\Users\BLACK_~1\AppData\Local\Temp\ccbv02In.s 			page 9


 430:lvgl/src/core/lv_obj_style.c **** void lv_obj_fade_out(lv_obj_t * obj, uint32_t time, uint32_t delay)
 431:lvgl/src/core/lv_obj_style.c **** {
 432:lvgl/src/core/lv_obj_style.c ****     lv_anim_t a;
 433:lvgl/src/core/lv_obj_style.c ****     lv_anim_init(&a);
 434:lvgl/src/core/lv_obj_style.c ****     lv_anim_set_var(&a, obj);
 435:lvgl/src/core/lv_obj_style.c ****     lv_anim_set_values(&a, LV_OPA_COVER, LV_OPA_TRANSP);
 436:lvgl/src/core/lv_obj_style.c ****     lv_anim_set_exec_cb(&a, fade_anim_cb);
 437:lvgl/src/core/lv_obj_style.c ****     lv_anim_set_time(&a, time);
 438:lvgl/src/core/lv_obj_style.c ****     lv_anim_set_delay(&a, delay);
 439:lvgl/src/core/lv_obj_style.c ****     lv_anim_start(&a);
 440:lvgl/src/core/lv_obj_style.c **** }
 441:lvgl/src/core/lv_obj_style.c **** 
 442:lvgl/src/core/lv_obj_style.c **** lv_state_t lv_obj_style_get_selector_state(lv_style_selector_t selector)
 443:lvgl/src/core/lv_obj_style.c **** {
 444:lvgl/src/core/lv_obj_style.c ****     return selector & 0xFFFF;
 445:lvgl/src/core/lv_obj_style.c **** }
 446:lvgl/src/core/lv_obj_style.c **** 
 447:lvgl/src/core/lv_obj_style.c **** lv_part_t lv_obj_style_get_selector_part(lv_style_selector_t selector)
 448:lvgl/src/core/lv_obj_style.c **** {
 449:lvgl/src/core/lv_obj_style.c ****     return selector & 0xFF0000;
 450:lvgl/src/core/lv_obj_style.c **** }
 451:lvgl/src/core/lv_obj_style.c **** 
 452:lvgl/src/core/lv_obj_style.c **** /**********************
 453:lvgl/src/core/lv_obj_style.c ****  *   STATIC FUNCTIONS
 454:lvgl/src/core/lv_obj_style.c ****  **********************/
 455:lvgl/src/core/lv_obj_style.c **** 
 456:lvgl/src/core/lv_obj_style.c **** /**
 457:lvgl/src/core/lv_obj_style.c ****  * Get the local style of an object for a given part and for a given state.
 458:lvgl/src/core/lv_obj_style.c ****  * If the local style for the part-state pair doesn't exist allocate and return it.
 459:lvgl/src/core/lv_obj_style.c ****  * @param obj   pointer to an object
 460:lvgl/src/core/lv_obj_style.c ****  * @param part  the part in whose local style to get
 461:lvgl/src/core/lv_obj_style.c ****  * @param state the state in whose local style to get
 462:lvgl/src/core/lv_obj_style.c ****  * @return pointer to the local style
 463:lvgl/src/core/lv_obj_style.c ****  */
 464:lvgl/src/core/lv_obj_style.c **** static lv_style_t * get_local_style(lv_obj_t * obj,  lv_style_selector_t selector)
 465:lvgl/src/core/lv_obj_style.c **** {
 466:lvgl/src/core/lv_obj_style.c ****     uint32_t i;
 467:lvgl/src/core/lv_obj_style.c ****     for(i = 0; i < obj->style_cnt; i++) {
 468:lvgl/src/core/lv_obj_style.c ****         if(obj->styles[i].is_local &&
 469:lvgl/src/core/lv_obj_style.c ****            obj->styles[i].selector == selector)
 470:lvgl/src/core/lv_obj_style.c ****         {
 471:lvgl/src/core/lv_obj_style.c ****             return obj->styles[i].style;
 472:lvgl/src/core/lv_obj_style.c ****         }
 473:lvgl/src/core/lv_obj_style.c ****     }
 474:lvgl/src/core/lv_obj_style.c **** 
 475:lvgl/src/core/lv_obj_style.c ****     obj->style_cnt++;
 476:lvgl/src/core/lv_obj_style.c ****     obj->styles = lv_mem_realloc(obj->styles, obj->style_cnt * sizeof(_lv_obj_style_t));
 477:lvgl/src/core/lv_obj_style.c ****     LV_ASSERT_MALLOC(obj->styles);
 478:lvgl/src/core/lv_obj_style.c **** 
 479:lvgl/src/core/lv_obj_style.c ****     for(i = obj->style_cnt - 1; i > 0 ; i--) {
 480:lvgl/src/core/lv_obj_style.c ****         /*Copy only normal styles (not local and transition).
 481:lvgl/src/core/lv_obj_style.c ****          *The new local style will be added as the last local style*/
 482:lvgl/src/core/lv_obj_style.c ****         if(obj->styles[i - 1].is_local || obj->styles[i - 1].is_trans) break;
 483:lvgl/src/core/lv_obj_style.c ****         obj->styles[i] = obj->styles[i - 1];
 484:lvgl/src/core/lv_obj_style.c ****     }
 485:lvgl/src/core/lv_obj_style.c **** 
 486:lvgl/src/core/lv_obj_style.c ****     lv_memset_00(&obj->styles[i], sizeof(_lv_obj_style_t));
ARM GAS  C:\Users\BLACK_~1\AppData\Local\Temp\ccbv02In.s 			page 10


 487:lvgl/src/core/lv_obj_style.c ****     obj->styles[i].style = lv_mem_alloc(sizeof(lv_style_t));
 488:lvgl/src/core/lv_obj_style.c ****     lv_style_init(obj->styles[i].style);
 489:lvgl/src/core/lv_obj_style.c ****     obj->styles[i].is_local = 1;
 490:lvgl/src/core/lv_obj_style.c ****     obj->styles[i].selector = selector;
 491:lvgl/src/core/lv_obj_style.c ****     return obj->styles[i].style;
 492:lvgl/src/core/lv_obj_style.c **** }
 493:lvgl/src/core/lv_obj_style.c **** 
 494:lvgl/src/core/lv_obj_style.c **** /**
 495:lvgl/src/core/lv_obj_style.c ****  * Get the transition style of an object for a given part and for a given state.
 496:lvgl/src/core/lv_obj_style.c ****  * If the transition style for the part-state pair doesn't exist allocate and return it.
 497:lvgl/src/core/lv_obj_style.c ****  * @param obj   pointer to an object
 498:lvgl/src/core/lv_obj_style.c ****  * @param part  the part in whose local style to get
 499:lvgl/src/core/lv_obj_style.c ****  * @param state the state in whose local style to get
 500:lvgl/src/core/lv_obj_style.c ****  * @return pointer to the transition style
 501:lvgl/src/core/lv_obj_style.c ****  */
 502:lvgl/src/core/lv_obj_style.c **** static _lv_obj_style_t * get_trans_style(lv_obj_t * obj,  lv_style_selector_t selector)
 503:lvgl/src/core/lv_obj_style.c **** {
 504:lvgl/src/core/lv_obj_style.c ****     uint32_t i;
 505:lvgl/src/core/lv_obj_style.c ****     for(i = 0; i < obj->style_cnt; i++) {
 506:lvgl/src/core/lv_obj_style.c ****         if(obj->styles[i].is_trans && obj->styles[i].selector == selector) break;
 507:lvgl/src/core/lv_obj_style.c ****     }
 508:lvgl/src/core/lv_obj_style.c **** 
 509:lvgl/src/core/lv_obj_style.c ****     /*Already have a transition style for it*/
 510:lvgl/src/core/lv_obj_style.c ****     if(i != obj->style_cnt) return &obj->styles[i];
 511:lvgl/src/core/lv_obj_style.c **** 
 512:lvgl/src/core/lv_obj_style.c ****     obj->style_cnt++;
 513:lvgl/src/core/lv_obj_style.c ****     obj->styles = lv_mem_realloc(obj->styles, obj->style_cnt * sizeof(_lv_obj_style_t));
 514:lvgl/src/core/lv_obj_style.c **** 
 515:lvgl/src/core/lv_obj_style.c ****     for(i = obj->style_cnt - 1; i > 0 ; i--) {
 516:lvgl/src/core/lv_obj_style.c ****         obj->styles[i] = obj->styles[i - 1];
 517:lvgl/src/core/lv_obj_style.c ****     }
 518:lvgl/src/core/lv_obj_style.c **** 
 519:lvgl/src/core/lv_obj_style.c ****     lv_memset_00(&obj->styles[0], sizeof(_lv_obj_style_t));
 520:lvgl/src/core/lv_obj_style.c ****     obj->styles[0].style = lv_mem_alloc(sizeof(lv_style_t));
 521:lvgl/src/core/lv_obj_style.c ****     lv_style_init(obj->styles[0].style);
 522:lvgl/src/core/lv_obj_style.c ****     obj->styles[0].is_trans = 1;
 523:lvgl/src/core/lv_obj_style.c ****     obj->styles[0].selector = selector;
 524:lvgl/src/core/lv_obj_style.c ****     return &obj->styles[0];
 525:lvgl/src/core/lv_obj_style.c **** }
 526:lvgl/src/core/lv_obj_style.c **** 
 527:lvgl/src/core/lv_obj_style.c **** 
 528:lvgl/src/core/lv_obj_style.c **** static bool get_prop_core(const lv_obj_t * obj, lv_part_t part, lv_style_prop_t prop, lv_style_valu
 529:lvgl/src/core/lv_obj_style.c **** {
 530:lvgl/src/core/lv_obj_style.c ****     uint8_t group = 1 << _lv_style_get_prop_group(prop);
 531:lvgl/src/core/lv_obj_style.c ****     int32_t weight = -1;
 532:lvgl/src/core/lv_obj_style.c ****     lv_state_t state = obj->state;
 533:lvgl/src/core/lv_obj_style.c ****     lv_state_t state_inv = ~state;
 534:lvgl/src/core/lv_obj_style.c ****     lv_style_value_t value_tmp;
 535:lvgl/src/core/lv_obj_style.c ****     bool skip_trans = obj->skip_trans;
 536:lvgl/src/core/lv_obj_style.c ****     uint32_t i;
 537:lvgl/src/core/lv_obj_style.c ****     bool found;
 538:lvgl/src/core/lv_obj_style.c ****     for(i = 0; i < obj->style_cnt; i++) {
 539:lvgl/src/core/lv_obj_style.c ****         _lv_obj_style_t * obj_style = &obj->styles[i];
 540:lvgl/src/core/lv_obj_style.c ****         if(obj_style->is_trans == false) break;
 541:lvgl/src/core/lv_obj_style.c ****         if(skip_trans) continue;
 542:lvgl/src/core/lv_obj_style.c **** 
 543:lvgl/src/core/lv_obj_style.c ****         lv_part_t part_act = lv_obj_style_get_selector_part(obj->styles[i].selector);
ARM GAS  C:\Users\BLACK_~1\AppData\Local\Temp\ccbv02In.s 			page 11


 544:lvgl/src/core/lv_obj_style.c **** 
 545:lvgl/src/core/lv_obj_style.c ****         if(part_act != part) continue;
 546:lvgl/src/core/lv_obj_style.c ****         if((obj_style->style->has_group & group) == 0) continue;
 547:lvgl/src/core/lv_obj_style.c ****         found = lv_style_get_prop(obj_style->style, prop, &value_tmp);
 548:lvgl/src/core/lv_obj_style.c ****         if(found) {
 549:lvgl/src/core/lv_obj_style.c ****             *v = value_tmp;
 550:lvgl/src/core/lv_obj_style.c ****             return true;
 551:lvgl/src/core/lv_obj_style.c ****         }
 552:lvgl/src/core/lv_obj_style.c ****     }
 553:lvgl/src/core/lv_obj_style.c **** 
 554:lvgl/src/core/lv_obj_style.c ****     for(; i < obj->style_cnt; i++) {
 555:lvgl/src/core/lv_obj_style.c ****         _lv_obj_style_t * obj_style = &obj->styles[i];
 556:lvgl/src/core/lv_obj_style.c ****         lv_part_t part_act = lv_obj_style_get_selector_part(obj->styles[i].selector);
 557:lvgl/src/core/lv_obj_style.c ****         lv_state_t state_act = lv_obj_style_get_selector_state(obj->styles[i].selector);
 558:lvgl/src/core/lv_obj_style.c ****         if(part_act != part) continue;
 559:lvgl/src/core/lv_obj_style.c **** 
 560:lvgl/src/core/lv_obj_style.c ****         if((obj_style->style->has_group & group) == 0) continue;
 561:lvgl/src/core/lv_obj_style.c **** 
 562:lvgl/src/core/lv_obj_style.c ****         /*Be sure the style not specifies other state than the requested.
 563:lvgl/src/core/lv_obj_style.c ****          *E.g. For HOVER+PRESS object state, HOVER style only is OK, but HOVER+FOCUS style is not*/
 564:lvgl/src/core/lv_obj_style.c ****         if((state_act & state_inv)) continue;
 565:lvgl/src/core/lv_obj_style.c **** 
 566:lvgl/src/core/lv_obj_style.c ****         /*Check only better candidates*/
 567:lvgl/src/core/lv_obj_style.c ****         if(state_act <= weight) continue;
 568:lvgl/src/core/lv_obj_style.c **** 
 569:lvgl/src/core/lv_obj_style.c ****         found = lv_style_get_prop(obj_style->style, prop, &value_tmp);
 570:lvgl/src/core/lv_obj_style.c **** 
 571:lvgl/src/core/lv_obj_style.c ****         if(found) {
 572:lvgl/src/core/lv_obj_style.c ****             if(state_act == state) {
 573:lvgl/src/core/lv_obj_style.c ****                 *v = value_tmp;
 574:lvgl/src/core/lv_obj_style.c ****                 return true;
 575:lvgl/src/core/lv_obj_style.c ****             }
 576:lvgl/src/core/lv_obj_style.c ****             if(weight < state_act) {
 577:lvgl/src/core/lv_obj_style.c ****                 weight = state_act;
 578:lvgl/src/core/lv_obj_style.c ****                 *v = value_tmp;
 579:lvgl/src/core/lv_obj_style.c ****             }
 580:lvgl/src/core/lv_obj_style.c ****         }
 581:lvgl/src/core/lv_obj_style.c ****     }
 582:lvgl/src/core/lv_obj_style.c **** 
 583:lvgl/src/core/lv_obj_style.c ****     if(weight >= 0) {
 584:lvgl/src/core/lv_obj_style.c ****         *v = value_tmp;
 585:lvgl/src/core/lv_obj_style.c ****         return true;
 586:lvgl/src/core/lv_obj_style.c ****     }
 587:lvgl/src/core/lv_obj_style.c ****     else return false;
 588:lvgl/src/core/lv_obj_style.c **** }
 589:lvgl/src/core/lv_obj_style.c **** 
 590:lvgl/src/core/lv_obj_style.c **** static lv_style_value_t apply_color_filter(const lv_obj_t * obj, uint32_t part, lv_style_value_t v)
 591:lvgl/src/core/lv_obj_style.c **** {
 592:lvgl/src/core/lv_obj_style.c ****     if(obj == NULL) return v;
 593:lvgl/src/core/lv_obj_style.c ****     const lv_color_filter_dsc_t * f = lv_obj_get_style_color_filter_dsc(obj, part);
 594:lvgl/src/core/lv_obj_style.c ****     if(f && f->filter_cb) {
 595:lvgl/src/core/lv_obj_style.c ****         lv_opa_t f_opa = lv_obj_get_style_color_filter_opa(obj, part);
 596:lvgl/src/core/lv_obj_style.c ****         if(f_opa != 0) v.color = f->filter_cb(f, v.color, f_opa);
 597:lvgl/src/core/lv_obj_style.c ****     }
 598:lvgl/src/core/lv_obj_style.c ****     return v;
 599:lvgl/src/core/lv_obj_style.c **** }
 600:lvgl/src/core/lv_obj_style.c **** 
ARM GAS  C:\Users\BLACK_~1\AppData\Local\Temp\ccbv02In.s 			page 12


 601:lvgl/src/core/lv_obj_style.c **** /**
 602:lvgl/src/core/lv_obj_style.c ****  * Refresh the style of all children of an object. (Called recursively)
 603:lvgl/src/core/lv_obj_style.c ****  * @param style refresh objects only with this
 604:lvgl/src/core/lv_obj_style.c ****  * @param obj pointer to an object
 605:lvgl/src/core/lv_obj_style.c ****  */
 606:lvgl/src/core/lv_obj_style.c **** static void report_style_change_core(void * style, lv_obj_t * obj)
 607:lvgl/src/core/lv_obj_style.c **** {
 608:lvgl/src/core/lv_obj_style.c ****     uint32_t i;
 609:lvgl/src/core/lv_obj_style.c ****     for(i = 0; i < obj->style_cnt; i++) {
 610:lvgl/src/core/lv_obj_style.c ****         if(style == NULL || obj->styles[i].style == style) {
 611:lvgl/src/core/lv_obj_style.c ****             lv_obj_refresh_style(obj, LV_PART_ANY, LV_STYLE_PROP_ANY);
 612:lvgl/src/core/lv_obj_style.c ****             break;
 613:lvgl/src/core/lv_obj_style.c ****         }
 614:lvgl/src/core/lv_obj_style.c ****     }
 615:lvgl/src/core/lv_obj_style.c **** 
 616:lvgl/src/core/lv_obj_style.c ****     for(i = 0; i < lv_obj_get_child_cnt(obj); i++) {
 617:lvgl/src/core/lv_obj_style.c ****         report_style_change_core(style, lv_obj_get_child(obj, i));
 618:lvgl/src/core/lv_obj_style.c ****     }
 619:lvgl/src/core/lv_obj_style.c **** }
 620:lvgl/src/core/lv_obj_style.c **** 
 621:lvgl/src/core/lv_obj_style.c **** /**
 622:lvgl/src/core/lv_obj_style.c ****  * Recursively refresh the style of the children. Go deeper until a not NULL style is found
 623:lvgl/src/core/lv_obj_style.c ****  * because the NULL styles are inherited from the parent
 624:lvgl/src/core/lv_obj_style.c ****  * @param obj pointer to an object
 625:lvgl/src/core/lv_obj_style.c ****  */
 626:lvgl/src/core/lv_obj_style.c **** static void refresh_children_style(lv_obj_t * obj)
 627:lvgl/src/core/lv_obj_style.c **** {
 628:lvgl/src/core/lv_obj_style.c ****     uint32_t i;
 629:lvgl/src/core/lv_obj_style.c ****     for(i = 0; i < lv_obj_get_child_cnt(obj); i++) {
 630:lvgl/src/core/lv_obj_style.c ****         lv_obj_t * child = lv_obj_get_child(obj, i);
 631:lvgl/src/core/lv_obj_style.c ****         lv_obj_invalidate(child);
 632:lvgl/src/core/lv_obj_style.c ****         lv_event_send(child, LV_EVENT_STYLE_CHANGED, NULL);
 633:lvgl/src/core/lv_obj_style.c ****         lv_obj_invalidate(child);
 634:lvgl/src/core/lv_obj_style.c **** 
 635:lvgl/src/core/lv_obj_style.c ****         refresh_children_style(child); /*Check children too*/
 636:lvgl/src/core/lv_obj_style.c ****     }
 637:lvgl/src/core/lv_obj_style.c **** }
 638:lvgl/src/core/lv_obj_style.c **** 
 639:lvgl/src/core/lv_obj_style.c **** /**
 640:lvgl/src/core/lv_obj_style.c ****  * Remove the transition from object's part's property.
 641:lvgl/src/core/lv_obj_style.c ****  * - Remove the transition from `_lv_obj_style_trans_ll` and free it
 642:lvgl/src/core/lv_obj_style.c ****  * - Delete pending transitions
 643:lvgl/src/core/lv_obj_style.c ****  * @param obj pointer to an object which transition(s) should be removed
 644:lvgl/src/core/lv_obj_style.c ****  * @param part a part of object or 0xFF to remove from all parts
 645:lvgl/src/core/lv_obj_style.c ****  * @param prop a property or 0xFF to remove all properties
 646:lvgl/src/core/lv_obj_style.c ****  * @param tr_limit delete transitions only "older" than this. `NULL` if not used
 647:lvgl/src/core/lv_obj_style.c ****  */
 648:lvgl/src/core/lv_obj_style.c **** static bool trans_del(lv_obj_t * obj, lv_part_t part, lv_style_prop_t prop, trans_t * tr_limit)
 649:lvgl/src/core/lv_obj_style.c **** {
  29              		.loc 1 649 1 view -0
  30              		.cfi_startproc
  31              		@ args = 0, pretend = 0, frame = 0
  32              		@ frame_needed = 0, uses_anonymous_args = 0
  33              		.loc 1 649 1 is_stmt 0 view .LVU1
  34 0000 2DE9F84F 		push	{r3, r4, r5, r6, r7, r8, r9, r10, fp, lr}
  35              	.LCFI0:
  36              		.cfi_def_cfa_offset 40
ARM GAS  C:\Users\BLACK_~1\AppData\Local\Temp\ccbv02In.s 			page 13


  37              		.cfi_offset 3, -40
  38              		.cfi_offset 4, -36
  39              		.cfi_offset 5, -32
  40              		.cfi_offset 6, -28
  41              		.cfi_offset 7, -24
  42              		.cfi_offset 8, -20
  43              		.cfi_offset 9, -16
  44              		.cfi_offset 10, -12
  45              		.cfi_offset 11, -8
  46              		.cfi_offset 14, -4
  47 0004 0646     		mov	r6, r0
  48 0006 8946     		mov	r9, r1
  49 0008 9246     		mov	r10, r2
  50 000a 9846     		mov	r8, r3
 650:lvgl/src/core/lv_obj_style.c ****     trans_t * tr;
  51              		.loc 1 650 5 is_stmt 1 view .LVU2
 651:lvgl/src/core/lv_obj_style.c ****     trans_t * tr_prev;
  52              		.loc 1 651 5 view .LVU3
 652:lvgl/src/core/lv_obj_style.c ****     bool removed = false;
  53              		.loc 1 652 5 view .LVU4
  54              	.LVL1:
 653:lvgl/src/core/lv_obj_style.c ****     tr = _lv_ll_get_tail(&LV_GC_ROOT(_lv_obj_style_trans_ll));
  55              		.loc 1 653 5 view .LVU5
  56              		.loc 1 653 10 is_stmt 0 view .LVU6
  57 000c 2848     		ldr	r0, .L16
  58              	.LVL2:
  59              		.loc 1 653 10 view .LVU7
  60 000e FFF7FEFF 		bl	_lv_ll_get_tail
  61              	.LVL3:
  62              		.loc 1 653 10 view .LVU8
  63 0012 0446     		mov	r4, r0
  64              	.LVL4:
 654:lvgl/src/core/lv_obj_style.c ****     while(tr != NULL) {
  65              		.loc 1 654 5 is_stmt 1 view .LVU9
 652:lvgl/src/core/lv_obj_style.c ****     bool removed = false;
  66              		.loc 1 652 10 is_stmt 0 view .LVU10
  67 0014 4FF0000B 		mov	fp, #0
  68              		.loc 1 654 10 view .LVU11
  69 0018 07E0     		b	.L2
  70              	.LVL5:
  71              	.L5:
 655:lvgl/src/core/lv_obj_style.c ****         if(tr == tr_limit) break;
 656:lvgl/src/core/lv_obj_style.c **** 
 657:lvgl/src/core/lv_obj_style.c ****         /*'tr' might be deleted, so get the next object while 'tr' is valid*/
 658:lvgl/src/core/lv_obj_style.c ****         tr_prev = _lv_ll_get_prev(&LV_GC_ROOT(_lv_obj_style_trans_ll), tr);
 659:lvgl/src/core/lv_obj_style.c **** 
 660:lvgl/src/core/lv_obj_style.c ****         if(tr->obj == obj && (part == tr->selector || part == LV_PART_ANY) && (prop == tr->prop || 
  72              		.loc 1 660 90 discriminator 4 view .LVU12
  73 001a A388     		ldrh	r3, [r4, #4]
  74              		.loc 1 660 76 discriminator 4 view .LVU13
  75 001c 5345     		cmp	r3, r10
  76 001e 3FD0     		beq	.L12
  77              		.loc 1 660 97 discriminator 5 view .LVU14
  78 0020 4FF6FF73 		movw	r3, #65535
  79 0024 9A45     		cmp	r10, r3
  80 0026 3DD0     		beq	.L15
  81              	.LVL6:
ARM GAS  C:\Users\BLACK_~1\AppData\Local\Temp\ccbv02In.s 			page 14


  82              	.L4:
  83              		.loc 1 660 97 discriminator 5 view .LVU15
  84 0028 2C46     		mov	r4, r5
  85              	.LVL7:
  86              	.L2:
 654:lvgl/src/core/lv_obj_style.c ****     while(tr != NULL) {
  87              		.loc 1 654 10 is_stmt 1 view .LVU16
  88 002a 002C     		cmp	r4, #0
  89 002c 3CD0     		beq	.L3
 655:lvgl/src/core/lv_obj_style.c ****         if(tr == tr_limit) break;
  90              		.loc 1 655 9 view .LVU17
 655:lvgl/src/core/lv_obj_style.c ****         if(tr == tr_limit) break;
  91              		.loc 1 655 11 is_stmt 0 view .LVU18
  92 002e 4445     		cmp	r4, r8
  93 0030 3AD0     		beq	.L3
 658:lvgl/src/core/lv_obj_style.c **** 
  94              		.loc 1 658 9 is_stmt 1 view .LVU19
 658:lvgl/src/core/lv_obj_style.c **** 
  95              		.loc 1 658 19 is_stmt 0 view .LVU20
  96 0032 2146     		mov	r1, r4
  97 0034 1E48     		ldr	r0, .L16
  98 0036 FFF7FEFF 		bl	_lv_ll_get_prev
  99              	.LVL8:
 100 003a 0546     		mov	r5, r0
 101              	.LVL9:
 102              		.loc 1 660 9 is_stmt 1 view .LVU21
 103              		.loc 1 660 14 is_stmt 0 view .LVU22
 104 003c 2368     		ldr	r3, [r4]
 105              		.loc 1 660 11 view .LVU23
 106 003e B342     		cmp	r3, r6
 107 0040 F2D1     		bne	.L4
 108              		.loc 1 660 41 discriminator 1 view .LVU24
 109 0042 A368     		ldr	r3, [r4, #8]
 110              		.loc 1 660 27 discriminator 1 view .LVU25
 111 0044 4B45     		cmp	r3, r9
 112 0046 E8D0     		beq	.L5
 113              		.loc 1 660 52 discriminator 3 view .LVU26
 114 0048 B9F5702F 		cmp	r9, #983040
 115 004c ECD1     		bne	.L4
 116 004e E4E7     		b	.L5
 117              	.LVL10:
 118              	.L8:
 119              	.LBB49:
 661:lvgl/src/core/lv_obj_style.c ****             /*Remove the transitioned property from trans. style
 662:lvgl/src/core/lv_obj_style.c ****              *to allow changing it by normal styles*/
 663:lvgl/src/core/lv_obj_style.c ****             uint32_t i;
 664:lvgl/src/core/lv_obj_style.c ****             for(i = 0; i < obj->style_cnt; i++) {
 665:lvgl/src/core/lv_obj_style.c ****                 if(obj->styles[i].is_trans && (part == LV_PART_ANY || obj->styles[i].selector == pa
 666:lvgl/src/core/lv_obj_style.c ****                     lv_style_remove_prop(obj->styles[i].style, tr->prop);
 120              		.loc 1 666 21 is_stmt 1 view .LVU27
 121 0050 A188     		ldrh	r1, [r4, #4]
 122 0052 1058     		ldr	r0, [r2, r0]
 123 0054 FFF7FEFF 		bl	lv_style_remove_prop
 124              	.LVL11:
 667:lvgl/src/core/lv_obj_style.c ****                     lv_anim_del(tr, NULL);
 125              		.loc 1 667 21 view .LVU28
 126 0058 0021     		movs	r1, #0
ARM GAS  C:\Users\BLACK_~1\AppData\Local\Temp\ccbv02In.s 			page 15


 127 005a 2046     		mov	r0, r4
 128 005c FFF7FEFF 		bl	lv_anim_del
 129              	.LVL12:
 668:lvgl/src/core/lv_obj_style.c ****                     _lv_ll_remove(&LV_GC_ROOT(_lv_obj_style_trans_ll), tr);
 130              		.loc 1 668 21 view .LVU29
 131 0060 2146     		mov	r1, r4
 132 0062 1348     		ldr	r0, .L16
 133 0064 FFF7FEFF 		bl	_lv_ll_remove
 134              	.LVL13:
 669:lvgl/src/core/lv_obj_style.c ****                     lv_mem_free(tr);
 135              		.loc 1 669 21 view .LVU30
 136 0068 2046     		mov	r0, r4
 137 006a FFF7FEFF 		bl	lv_mem_free
 138              	.LVL14:
 670:lvgl/src/core/lv_obj_style.c ****                     removed = true;
 139              		.loc 1 670 21 view .LVU31
 140              		.loc 1 670 29 is_stmt 0 view .LVU32
 141 006e 4FF0010B 		mov	fp, #1
 142              	.LVL15:
 143              	.L7:
 664:lvgl/src/core/lv_obj_style.c ****                 if(obj->styles[i].is_trans && (part == LV_PART_ANY || obj->styles[i].selector == pa
 144              		.loc 1 664 44 is_stmt 1 discriminator 2 view .LVU33
 664:lvgl/src/core/lv_obj_style.c ****                 if(obj->styles[i].is_trans && (part == LV_PART_ANY || obj->styles[i].selector == pa
 145              		.loc 1 664 45 is_stmt 0 discriminator 2 view .LVU34
 146 0072 0137     		adds	r7, r7, #1
 147              	.LVL16:
 148              	.L9:
 664:lvgl/src/core/lv_obj_style.c ****                 if(obj->styles[i].is_trans && (part == LV_PART_ANY || obj->styles[i].selector == pa
 149              		.loc 1 664 24 is_stmt 1 discriminator 1 view .LVU35
 664:lvgl/src/core/lv_obj_style.c ****                 if(obj->styles[i].is_trans && (part == LV_PART_ANY || obj->styles[i].selector == pa
 150              		.loc 1 664 31 is_stmt 0 discriminator 1 view .LVU36
 151 0074 738C     		ldrh	r3, [r6, #34]
 152 0076 C3F3C503 		ubfx	r3, r3, #3, #6
 664:lvgl/src/core/lv_obj_style.c ****                 if(obj->styles[i].is_trans && (part == LV_PART_ANY || obj->styles[i].selector == pa
 153              		.loc 1 664 13 discriminator 1 view .LVU37
 154 007a BB42     		cmp	r3, r7
 155 007c D4D9     		bls	.L4
 665:lvgl/src/core/lv_obj_style.c ****                     lv_style_remove_prop(obj->styles[i].style, tr->prop);
 156              		.loc 1 665 17 is_stmt 1 view .LVU38
 665:lvgl/src/core/lv_obj_style.c ****                     lv_style_remove_prop(obj->styles[i].style, tr->prop);
 157              		.loc 1 665 23 is_stmt 0 view .LVU39
 158 007e F268     		ldr	r2, [r6, #12]
 665:lvgl/src/core/lv_obj_style.c ****                     lv_style_remove_prop(obj->styles[i].style, tr->prop);
 159              		.loc 1 665 31 view .LVU40
 160 0080 F800     		lsls	r0, r7, #3
 161 0082 02EBC703 		add	r3, r2, r7, lsl #3
 665:lvgl/src/core/lv_obj_style.c ****                     lv_style_remove_prop(obj->styles[i].style, tr->prop);
 162              		.loc 1 665 20 view .LVU41
 163 0086 D979     		ldrb	r1, [r3, #7]	@ zero_extendqisi2
 665:lvgl/src/core/lv_obj_style.c ****                     lv_style_remove_prop(obj->styles[i].style, tr->prop);
 164              		.loc 1 665 19 view .LVU42
 165 0088 11F0020F 		tst	r1, #2
 166 008c F1D0     		beq	.L7
 665:lvgl/src/core/lv_obj_style.c ****                     lv_style_remove_prop(obj->styles[i].style, tr->prop);
 167              		.loc 1 665 44 discriminator 1 view .LVU43
 168 008e B9F5702F 		cmp	r9, #983040
 169 0092 DDD0     		beq	.L8
ARM GAS  C:\Users\BLACK_~1\AppData\Local\Temp\ccbv02In.s 			page 16


 665:lvgl/src/core/lv_obj_style.c ****                     lv_style_remove_prop(obj->styles[i].style, tr->prop);
 170              		.loc 1 665 85 discriminator 2 view .LVU44
 171 0094 5B68     		ldr	r3, [r3, #4]
 172 0096 C3F31703 		ubfx	r3, r3, #0, #24
 665:lvgl/src/core/lv_obj_style.c ****                     lv_style_remove_prop(obj->styles[i].style, tr->prop);
 173              		.loc 1 665 68 discriminator 2 view .LVU45
 174 009a 4B45     		cmp	r3, r9
 175 009c E9D1     		bne	.L7
 176 009e D7E7     		b	.L8
 177              	.LVL17:
 178              	.L12:
 665:lvgl/src/core/lv_obj_style.c ****                     lv_style_remove_prop(obj->styles[i].style, tr->prop);
 179              		.loc 1 665 68 discriminator 2 view .LVU46
 180              	.LBE49:
 181 00a0 0027     		movs	r7, #0
 182 00a2 E7E7     		b	.L9
 183              	.L15:
 184 00a4 0027     		movs	r7, #0
 185 00a6 E5E7     		b	.L9
 186              	.LVL18:
 187              	.L3:
 671:lvgl/src/core/lv_obj_style.c ****                 }
 672:lvgl/src/core/lv_obj_style.c ****             }
 673:lvgl/src/core/lv_obj_style.c **** 
 674:lvgl/src/core/lv_obj_style.c ****         }
 675:lvgl/src/core/lv_obj_style.c ****         tr = tr_prev;
 676:lvgl/src/core/lv_obj_style.c ****     }
 677:lvgl/src/core/lv_obj_style.c ****     return removed;
 188              		.loc 1 677 5 is_stmt 1 view .LVU47
 678:lvgl/src/core/lv_obj_style.c **** }
 189              		.loc 1 678 1 is_stmt 0 view .LVU48
 190 00a8 5846     		mov	r0, fp
 191 00aa BDE8F88F 		pop	{r3, r4, r5, r6, r7, r8, r9, r10, fp, pc}
 192              	.LVL19:
 193              	.L17:
 194              		.loc 1 678 1 view .LVU49
 195 00ae 00BF     		.align	2
 196              	.L16:
 197 00b0 00000000 		.word	_lv_obj_style_trans_ll
 198              		.cfi_endproc
 199              	.LFE175:
 201              		.section	.text.refresh_children_style,"ax",%progbits
 202              		.align	1
 203              		.syntax unified
 204              		.thumb
 205              		.thumb_func
 207              	refresh_children_style:
 208              	.LVL20:
 209              	.LFB174:
 627:lvgl/src/core/lv_obj_style.c ****     uint32_t i;
 210              		.loc 1 627 1 is_stmt 1 view -0
 211              		.cfi_startproc
 212              		@ args = 0, pretend = 0, frame = 0
 213              		@ frame_needed = 0, uses_anonymous_args = 0
 627:lvgl/src/core/lv_obj_style.c ****     uint32_t i;
 214              		.loc 1 627 1 is_stmt 0 view .LVU51
 215 0000 70B5     		push	{r4, r5, r6, lr}
ARM GAS  C:\Users\BLACK_~1\AppData\Local\Temp\ccbv02In.s 			page 17


 216              	.LCFI1:
 217              		.cfi_def_cfa_offset 16
 218              		.cfi_offset 4, -16
 219              		.cfi_offset 5, -12
 220              		.cfi_offset 6, -8
 221              		.cfi_offset 14, -4
 222 0002 0646     		mov	r6, r0
 628:lvgl/src/core/lv_obj_style.c ****     for(i = 0; i < lv_obj_get_child_cnt(obj); i++) {
 223              		.loc 1 628 5 is_stmt 1 view .LVU52
 629:lvgl/src/core/lv_obj_style.c ****         lv_obj_t * child = lv_obj_get_child(obj, i);
 224              		.loc 1 629 5 view .LVU53
 225              	.LVL21:
 629:lvgl/src/core/lv_obj_style.c ****         lv_obj_t * child = lv_obj_get_child(obj, i);
 226              		.loc 1 629 11 is_stmt 0 view .LVU54
 227 0004 0025     		movs	r5, #0
 629:lvgl/src/core/lv_obj_style.c ****         lv_obj_t * child = lv_obj_get_child(obj, i);
 228              		.loc 1 629 5 view .LVU55
 229 0006 12E0     		b	.L19
 230              	.LVL22:
 231              	.L20:
 232              	.LBB50:
 630:lvgl/src/core/lv_obj_style.c ****         lv_obj_invalidate(child);
 233              		.loc 1 630 9 is_stmt 1 discriminator 3 view .LVU56
 630:lvgl/src/core/lv_obj_style.c ****         lv_obj_invalidate(child);
 234              		.loc 1 630 28 is_stmt 0 discriminator 3 view .LVU57
 235 0008 2946     		mov	r1, r5
 236 000a 3046     		mov	r0, r6
 237 000c FFF7FEFF 		bl	lv_obj_get_child
 238              	.LVL23:
 239 0010 0446     		mov	r4, r0
 240              	.LVL24:
 631:lvgl/src/core/lv_obj_style.c ****         lv_event_send(child, LV_EVENT_STYLE_CHANGED, NULL);
 241              		.loc 1 631 9 is_stmt 1 discriminator 3 view .LVU58
 242 0012 FFF7FEFF 		bl	lv_obj_invalidate
 243              	.LVL25:
 632:lvgl/src/core/lv_obj_style.c ****         lv_obj_invalidate(child);
 244              		.loc 1 632 9 discriminator 3 view .LVU59
 245 0016 0022     		movs	r2, #0
 246 0018 2421     		movs	r1, #36
 247 001a 2046     		mov	r0, r4
 248 001c FFF7FEFF 		bl	lv_event_send
 249              	.LVL26:
 633:lvgl/src/core/lv_obj_style.c **** 
 250              		.loc 1 633 9 discriminator 3 view .LVU60
 251 0020 2046     		mov	r0, r4
 252 0022 FFF7FEFF 		bl	lv_obj_invalidate
 253              	.LVL27:
 635:lvgl/src/core/lv_obj_style.c ****     }
 254              		.loc 1 635 9 discriminator 3 view .LVU61
 255 0026 2046     		mov	r0, r4
 256 0028 FFF7EAFF 		bl	refresh_children_style
 257              	.LVL28:
 258              	.LBE50:
 629:lvgl/src/core/lv_obj_style.c ****         lv_obj_t * child = lv_obj_get_child(obj, i);
 259              		.loc 1 629 47 discriminator 3 view .LVU62
 629:lvgl/src/core/lv_obj_style.c ****         lv_obj_t * child = lv_obj_get_child(obj, i);
 260              		.loc 1 629 48 is_stmt 0 discriminator 3 view .LVU63
ARM GAS  C:\Users\BLACK_~1\AppData\Local\Temp\ccbv02In.s 			page 18


 261 002c 0135     		adds	r5, r5, #1
 262              	.LVL29:
 263              	.L19:
 629:lvgl/src/core/lv_obj_style.c ****         lv_obj_t * child = lv_obj_get_child(obj, i);
 264              		.loc 1 629 16 is_stmt 1 discriminator 1 view .LVU64
 629:lvgl/src/core/lv_obj_style.c ****         lv_obj_t * child = lv_obj_get_child(obj, i);
 265              		.loc 1 629 20 is_stmt 0 discriminator 1 view .LVU65
 266 002e 3046     		mov	r0, r6
 267 0030 FFF7FEFF 		bl	lv_obj_get_child_cnt
 268              	.LVL30:
 629:lvgl/src/core/lv_obj_style.c ****         lv_obj_t * child = lv_obj_get_child(obj, i);
 269              		.loc 1 629 5 discriminator 1 view .LVU66
 270 0034 A842     		cmp	r0, r5
 271 0036 E7D8     		bhi	.L20
 637:lvgl/src/core/lv_obj_style.c **** 
 272              		.loc 1 637 1 view .LVU67
 273 0038 70BD     		pop	{r4, r5, r6, pc}
 637:lvgl/src/core/lv_obj_style.c **** 
 274              		.loc 1 637 1 view .LVU68
 275              		.cfi_endproc
 276              	.LFE174:
 278              		.section	.text.get_local_style,"ax",%progbits
 279              		.align	1
 280              		.syntax unified
 281              		.thumb
 282              		.thumb_func
 284              	get_local_style:
 285              	.LVL31:
 286              	.LFB169:
 465:lvgl/src/core/lv_obj_style.c ****     uint32_t i;
 287              		.loc 1 465 1 is_stmt 1 view -0
 288              		.cfi_startproc
 289              		@ args = 0, pretend = 0, frame = 0
 290              		@ frame_needed = 0, uses_anonymous_args = 0
 465:lvgl/src/core/lv_obj_style.c ****     uint32_t i;
 291              		.loc 1 465 1 is_stmt 0 view .LVU70
 292 0000 2DE9F041 		push	{r4, r5, r6, r7, r8, lr}
 293              	.LCFI2:
 294              		.cfi_def_cfa_offset 24
 295              		.cfi_offset 4, -24
 296              		.cfi_offset 5, -20
 297              		.cfi_offset 6, -16
 298              		.cfi_offset 7, -12
 299              		.cfi_offset 8, -8
 300              		.cfi_offset 14, -4
 301 0004 0446     		mov	r4, r0
 302 0006 0D46     		mov	r5, r1
 466:lvgl/src/core/lv_obj_style.c ****     for(i = 0; i < obj->style_cnt; i++) {
 303              		.loc 1 466 5 is_stmt 1 view .LVU71
 467:lvgl/src/core/lv_obj_style.c ****         if(obj->styles[i].is_local &&
 304              		.loc 1 467 5 view .LVU72
 305              	.LVL32:
 467:lvgl/src/core/lv_obj_style.c ****         if(obj->styles[i].is_local &&
 306              		.loc 1 467 11 is_stmt 0 view .LVU73
 307 0008 0022     		movs	r2, #0
 467:lvgl/src/core/lv_obj_style.c ****         if(obj->styles[i].is_local &&
 308              		.loc 1 467 5 view .LVU74
ARM GAS  C:\Users\BLACK_~1\AppData\Local\Temp\ccbv02In.s 			page 19


 309 000a 00E0     		b	.L23
 310              	.LVL33:
 311              	.L24:
 467:lvgl/src/core/lv_obj_style.c ****         if(obj->styles[i].is_local &&
 312              		.loc 1 467 36 is_stmt 1 discriminator 2 view .LVU75
 467:lvgl/src/core/lv_obj_style.c ****         if(obj->styles[i].is_local &&
 313              		.loc 1 467 37 is_stmt 0 discriminator 2 view .LVU76
 314 000c 0132     		adds	r2, r2, #1
 315              	.LVL34:
 316              	.L23:
 467:lvgl/src/core/lv_obj_style.c ****         if(obj->styles[i].is_local &&
 317              		.loc 1 467 16 is_stmt 1 discriminator 1 view .LVU77
 467:lvgl/src/core/lv_obj_style.c ****         if(obj->styles[i].is_local &&
 318              		.loc 1 467 23 is_stmt 0 discriminator 1 view .LVU78
 319 000e 638C     		ldrh	r3, [r4, #34]
 320 0010 C3F3C503 		ubfx	r3, r3, #3, #6
 467:lvgl/src/core/lv_obj_style.c ****         if(obj->styles[i].is_local &&
 321              		.loc 1 467 5 discriminator 1 view .LVU79
 322 0014 9342     		cmp	r3, r2
 323 0016 0DD9     		bls	.L33
 468:lvgl/src/core/lv_obj_style.c ****            obj->styles[i].selector == selector)
 324              		.loc 1 468 9 is_stmt 1 view .LVU80
 468:lvgl/src/core/lv_obj_style.c ****            obj->styles[i].selector == selector)
 325              		.loc 1 468 15 is_stmt 0 view .LVU81
 326 0018 E368     		ldr	r3, [r4, #12]
 468:lvgl/src/core/lv_obj_style.c ****            obj->styles[i].selector == selector)
 327              		.loc 1 468 23 view .LVU82
 328 001a 03EBC203 		add	r3, r3, r2, lsl #3
 468:lvgl/src/core/lv_obj_style.c ****            obj->styles[i].selector == selector)
 329              		.loc 1 468 12 view .LVU83
 330 001e D979     		ldrb	r1, [r3, #7]	@ zero_extendqisi2
 468:lvgl/src/core/lv_obj_style.c ****            obj->styles[i].selector == selector)
 331              		.loc 1 468 11 view .LVU84
 332 0020 11F0010F 		tst	r1, #1
 333 0024 F2D0     		beq	.L24
 469:lvgl/src/core/lv_obj_style.c ****         {
 334              		.loc 1 469 26 discriminator 1 view .LVU85
 335 0026 5968     		ldr	r1, [r3, #4]
 336 0028 C1F31701 		ubfx	r1, r1, #0, #24
 468:lvgl/src/core/lv_obj_style.c ****            obj->styles[i].selector == selector)
 337              		.loc 1 468 36 discriminator 1 view .LVU86
 338 002c A942     		cmp	r1, r5
 339 002e EDD1     		bne	.L24
 471:lvgl/src/core/lv_obj_style.c ****         }
 340              		.loc 1 471 13 is_stmt 1 view .LVU87
 471:lvgl/src/core/lv_obj_style.c ****         }
 341              		.loc 1 471 34 is_stmt 0 view .LVU88
 342 0030 1868     		ldr	r0, [r3]
 343              	.LVL35:
 471:lvgl/src/core/lv_obj_style.c ****         }
 344              		.loc 1 471 34 view .LVU89
 345 0032 46E0     		b	.L22
 346              	.LVL36:
 347              	.L33:
 475:lvgl/src/core/lv_obj_style.c ****     obj->styles = lv_mem_realloc(obj->styles, obj->style_cnt * sizeof(_lv_obj_style_t));
 348              		.loc 1 475 5 is_stmt 1 view .LVU90
 475:lvgl/src/core/lv_obj_style.c ****     obj->styles = lv_mem_realloc(obj->styles, obj->style_cnt * sizeof(_lv_obj_style_t));
ARM GAS  C:\Users\BLACK_~1\AppData\Local\Temp\ccbv02In.s 			page 20


 349              		.loc 1 475 19 is_stmt 0 view .LVU91
 350 0034 0133     		adds	r3, r3, #1
 351 0036 03F03F03 		and	r3, r3, #63
 352 003a 628C     		ldrh	r2, [r4, #34]
 353              	.LVL37:
 475:lvgl/src/core/lv_obj_style.c ****     obj->styles = lv_mem_realloc(obj->styles, obj->style_cnt * sizeof(_lv_obj_style_t));
 354              		.loc 1 475 19 view .LVU92
 355 003c 63F3C802 		bfi	r2, r3, #3, #6
 356 0040 6284     		strh	r2, [r4, #34]	@ movhi
 476:lvgl/src/core/lv_obj_style.c ****     LV_ASSERT_MALLOC(obj->styles);
 357              		.loc 1 476 5 is_stmt 1 view .LVU93
 476:lvgl/src/core/lv_obj_style.c ****     LV_ASSERT_MALLOC(obj->styles);
 358              		.loc 1 476 19 is_stmt 0 view .LVU94
 359 0042 D900     		lsls	r1, r3, #3
 360 0044 E068     		ldr	r0, [r4, #12]
 361              	.LVL38:
 476:lvgl/src/core/lv_obj_style.c ****     LV_ASSERT_MALLOC(obj->styles);
 362              		.loc 1 476 19 view .LVU95
 363 0046 FFF7FEFF 		bl	lv_mem_realloc
 364              	.LVL39:
 476:lvgl/src/core/lv_obj_style.c ****     LV_ASSERT_MALLOC(obj->styles);
 365              		.loc 1 476 17 view .LVU96
 366 004a E060     		str	r0, [r4, #12]
 477:lvgl/src/core/lv_obj_style.c **** 
 367              		.loc 1 477 5 is_stmt 1 view .LVU97
 477:lvgl/src/core/lv_obj_style.c **** 
 368              		.loc 1 477 5 view .LVU98
 369 004c B0B1     		cbz	r0, .L28
 477:lvgl/src/core/lv_obj_style.c **** 
 370              		.loc 1 477 5 discriminator 2 view .LVU99
 477:lvgl/src/core/lv_obj_style.c **** 
 371              		.loc 1 477 34 discriminator 2 view .LVU100
 479:lvgl/src/core/lv_obj_style.c ****         /*Copy only normal styles (not local and transition).
 372              		.loc 1 479 5 discriminator 2 view .LVU101
 479:lvgl/src/core/lv_obj_style.c ****         /*Copy only normal styles (not local and transition).
 373              		.loc 1 479 16 is_stmt 0 discriminator 2 view .LVU102
 374 004e 668C     		ldrh	r6, [r4, #34]
 375 0050 C6F3C506 		ubfx	r6, r6, #3, #6
 479:lvgl/src/core/lv_obj_style.c ****         /*Copy only normal styles (not local and transition).
 376              		.loc 1 479 28 discriminator 2 view .LVU103
 377 0054 013E     		subs	r6, r6, #1
 378              	.LVL40:
 379              	.L29:
 479:lvgl/src/core/lv_obj_style.c ****         /*Copy only normal styles (not local and transition).
 380              		.loc 1 479 33 is_stmt 1 discriminator 1 view .LVU104
 479:lvgl/src/core/lv_obj_style.c ****         /*Copy only normal styles (not local and transition).
 381              		.loc 1 479 5 is_stmt 0 discriminator 1 view .LVU105
 382 0056 96B1     		cbz	r6, .L30
 482:lvgl/src/core/lv_obj_style.c ****         obj->styles[i] = obj->styles[i - 1];
 383              		.loc 1 482 9 is_stmt 1 view .LVU106
 482:lvgl/src/core/lv_obj_style.c ****         obj->styles[i] = obj->styles[i - 1];
 384              		.loc 1 482 15 is_stmt 0 view .LVU107
 385 0058 E268     		ldr	r2, [r4, #12]
 482:lvgl/src/core/lv_obj_style.c ****         obj->styles[i] = obj->styles[i - 1];
 386              		.loc 1 482 23 view .LVU108
 387 005a 06F10053 		add	r3, r6, #536870912
 388 005e 013B     		subs	r3, r3, #1
ARM GAS  C:\Users\BLACK_~1\AppData\Local\Temp\ccbv02In.s 			page 21


 389 0060 02EBC303 		add	r3, r2, r3, lsl #3
 482:lvgl/src/core/lv_obj_style.c ****         obj->styles[i] = obj->styles[i - 1];
 390              		.loc 1 482 40 view .LVU109
 391 0064 D979     		ldrb	r1, [r3, #7]	@ zero_extendqisi2
 482:lvgl/src/core/lv_obj_style.c ****         obj->styles[i] = obj->styles[i - 1];
 392              		.loc 1 482 11 view .LVU110
 393 0066 11F0030F 		tst	r1, #3
 394 006a 08D1     		bne	.L30
 483:lvgl/src/core/lv_obj_style.c ****     }
 395              		.loc 1 483 9 is_stmt 1 discriminator 2 view .LVU111
 483:lvgl/src/core/lv_obj_style.c ****     }
 396              		.loc 1 483 20 is_stmt 0 discriminator 2 view .LVU112
 397 006c 02EBC602 		add	r2, r2, r6, lsl #3
 483:lvgl/src/core/lv_obj_style.c ****     }
 398              		.loc 1 483 24 discriminator 2 view .LVU113
 399 0070 93E80300 		ldm	r3, {r0, r1}
 400 0074 82E80300 		stm	r2, {r0, r1}
 479:lvgl/src/core/lv_obj_style.c ****         /*Copy only normal styles (not local and transition).
 401              		.loc 1 479 41 is_stmt 1 discriminator 2 view .LVU114
 479:lvgl/src/core/lv_obj_style.c ****         /*Copy only normal styles (not local and transition).
 402              		.loc 1 479 42 is_stmt 0 discriminator 2 view .LVU115
 403 0078 013E     		subs	r6, r6, #1
 404              	.LVL41:
 479:lvgl/src/core/lv_obj_style.c ****         /*Copy only normal styles (not local and transition).
 405              		.loc 1 479 42 discriminator 2 view .LVU116
 406 007a ECE7     		b	.L29
 407              	.LVL42:
 408              	.L28:
 477:lvgl/src/core/lv_obj_style.c **** 
 409              		.loc 1 477 5 is_stmt 1 discriminator 1 view .LVU117
 477:lvgl/src/core/lv_obj_style.c **** 
 410              		.loc 1 477 5 discriminator 1 view .LVU118
 477:lvgl/src/core/lv_obj_style.c **** 
 411              		.loc 1 477 5 discriminator 1 view .LVU119
 477:lvgl/src/core/lv_obj_style.c **** 
 412              		.loc 1 477 5 discriminator 1 view .LVU120
 413 007c FEE7     		b	.L28
 414              	.LVL43:
 415              	.L30:
 486:lvgl/src/core/lv_obj_style.c ****     obj->styles[i].style = lv_mem_alloc(sizeof(lv_style_t));
 416              		.loc 1 486 5 view .LVU121
 486:lvgl/src/core/lv_obj_style.c ****     obj->styles[i].style = lv_mem_alloc(sizeof(lv_style_t));
 417              		.loc 1 486 22 is_stmt 0 view .LVU122
 418 007e E068     		ldr	r0, [r4, #12]
 486:lvgl/src/core/lv_obj_style.c ****     obj->styles[i].style = lv_mem_alloc(sizeof(lv_style_t));
 419              		.loc 1 486 30 view .LVU123
 420 0080 F700     		lsls	r7, r6, #3
 486:lvgl/src/core/lv_obj_style.c ****     obj->styles[i].style = lv_mem_alloc(sizeof(lv_style_t));
 421              		.loc 1 486 5 view .LVU124
 422 0082 0821     		movs	r1, #8
 423 0084 00EBC600 		add	r0, r0, r6, lsl #3
 424 0088 FFF7FEFF 		bl	lv_memset_00
 425              	.LVL44:
 487:lvgl/src/core/lv_obj_style.c ****     lv_style_init(obj->styles[i].style);
 426              		.loc 1 487 5 is_stmt 1 view .LVU125
 487:lvgl/src/core/lv_obj_style.c ****     lv_style_init(obj->styles[i].style);
 427              		.loc 1 487 8 is_stmt 0 view .LVU126
ARM GAS  C:\Users\BLACK_~1\AppData\Local\Temp\ccbv02In.s 			page 22


 428 008c D4F80C80 		ldr	r8, [r4, #12]
 487:lvgl/src/core/lv_obj_style.c ****     lv_style_init(obj->styles[i].style);
 429              		.loc 1 487 28 view .LVU127
 430 0090 0820     		movs	r0, #8
 431 0092 FFF7FEFF 		bl	lv_mem_alloc
 432              	.LVL45:
 487:lvgl/src/core/lv_obj_style.c ****     lv_style_init(obj->styles[i].style);
 433              		.loc 1 487 26 view .LVU128
 434 0096 48F83600 		str	r0, [r8, r6, lsl #3]
 488:lvgl/src/core/lv_obj_style.c ****     obj->styles[i].is_local = 1;
 435              		.loc 1 488 5 is_stmt 1 view .LVU129
 488:lvgl/src/core/lv_obj_style.c ****     obj->styles[i].is_local = 1;
 436              		.loc 1 488 22 is_stmt 0 view .LVU130
 437 009a E368     		ldr	r3, [r4, #12]
 488:lvgl/src/core/lv_obj_style.c ****     obj->styles[i].is_local = 1;
 438              		.loc 1 488 5 view .LVU131
 439 009c 53F83600 		ldr	r0, [r3, r6, lsl #3]
 440 00a0 FFF7FEFF 		bl	lv_style_init
 441              	.LVL46:
 489:lvgl/src/core/lv_obj_style.c ****     obj->styles[i].selector = selector;
 442              		.loc 1 489 5 is_stmt 1 view .LVU132
 489:lvgl/src/core/lv_obj_style.c ****     obj->styles[i].selector = selector;
 443              		.loc 1 489 8 is_stmt 0 view .LVU133
 444 00a4 E368     		ldr	r3, [r4, #12]
 489:lvgl/src/core/lv_obj_style.c ****     obj->styles[i].selector = selector;
 445              		.loc 1 489 16 view .LVU134
 446 00a6 3B44     		add	r3, r3, r7
 489:lvgl/src/core/lv_obj_style.c ****     obj->styles[i].selector = selector;
 447              		.loc 1 489 29 view .LVU135
 448 00a8 DA79     		ldrb	r2, [r3, #7]	@ zero_extendqisi2
 449 00aa 42F00102 		orr	r2, r2, #1
 450 00ae DA71     		strb	r2, [r3, #7]
 490:lvgl/src/core/lv_obj_style.c ****     return obj->styles[i].style;
 451              		.loc 1 490 5 is_stmt 1 view .LVU136
 490:lvgl/src/core/lv_obj_style.c ****     return obj->styles[i].style;
 452              		.loc 1 490 8 is_stmt 0 view .LVU137
 453 00b0 E368     		ldr	r3, [r4, #12]
 490:lvgl/src/core/lv_obj_style.c ****     return obj->styles[i].style;
 454              		.loc 1 490 16 view .LVU138
 455 00b2 3B44     		add	r3, r3, r7
 490:lvgl/src/core/lv_obj_style.c ****     return obj->styles[i].style;
 456              		.loc 1 490 29 view .LVU139
 457 00b4 5A68     		ldr	r2, [r3, #4]
 458 00b6 65F31702 		bfi	r2, r5, #0, #24
 459              	.LVL47:
 490:lvgl/src/core/lv_obj_style.c ****     return obj->styles[i].style;
 460              		.loc 1 490 29 view .LVU140
 461 00ba 5A60     		str	r2, [r3, #4]
 491:lvgl/src/core/lv_obj_style.c **** }
 462              		.loc 1 491 5 is_stmt 1 view .LVU141
 491:lvgl/src/core/lv_obj_style.c **** }
 463              		.loc 1 491 15 is_stmt 0 view .LVU142
 464 00bc E368     		ldr	r3, [r4, #12]
 491:lvgl/src/core/lv_obj_style.c **** }
 465              		.loc 1 491 26 view .LVU143
 466 00be 53F83600 		ldr	r0, [r3, r6, lsl #3]
 467              	.LVL48:
ARM GAS  C:\Users\BLACK_~1\AppData\Local\Temp\ccbv02In.s 			page 23


 468              	.L22:
 492:lvgl/src/core/lv_obj_style.c **** 
 469              		.loc 1 492 1 view .LVU144
 470 00c2 BDE8F081 		pop	{r4, r5, r6, r7, r8, pc}
 492:lvgl/src/core/lv_obj_style.c **** 
 471              		.loc 1 492 1 view .LVU145
 472              		.cfi_endproc
 473              	.LFE169:
 475              		.section	.text.get_trans_style,"ax",%progbits
 476              		.align	1
 477              		.syntax unified
 478              		.thumb
 479              		.thumb_func
 481              	get_trans_style:
 482              	.LVL49:
 483              	.LFB170:
 503:lvgl/src/core/lv_obj_style.c ****     uint32_t i;
 484              		.loc 1 503 1 is_stmt 1 view -0
 485              		.cfi_startproc
 486              		@ args = 0, pretend = 0, frame = 0
 487              		@ frame_needed = 0, uses_anonymous_args = 0
 503:lvgl/src/core/lv_obj_style.c ****     uint32_t i;
 488              		.loc 1 503 1 is_stmt 0 view .LVU147
 489 0000 70B5     		push	{r4, r5, r6, lr}
 490              	.LCFI3:
 491              		.cfi_def_cfa_offset 16
 492              		.cfi_offset 4, -16
 493              		.cfi_offset 5, -12
 494              		.cfi_offset 6, -8
 495              		.cfi_offset 14, -4
 496 0002 0446     		mov	r4, r0
 497 0004 0D46     		mov	r5, r1
 504:lvgl/src/core/lv_obj_style.c ****     for(i = 0; i < obj->style_cnt; i++) {
 498              		.loc 1 504 5 is_stmt 1 view .LVU148
 505:lvgl/src/core/lv_obj_style.c ****         if(obj->styles[i].is_trans && obj->styles[i].selector == selector) break;
 499              		.loc 1 505 5 view .LVU149
 500              	.LVL50:
 505:lvgl/src/core/lv_obj_style.c ****         if(obj->styles[i].is_trans && obj->styles[i].selector == selector) break;
 501              		.loc 1 505 11 is_stmt 0 view .LVU150
 502 0006 0020     		movs	r0, #0
 503              	.LVL51:
 505:lvgl/src/core/lv_obj_style.c ****         if(obj->styles[i].is_trans && obj->styles[i].selector == selector) break;
 504              		.loc 1 505 5 view .LVU151
 505 0008 00E0     		b	.L35
 506              	.LVL52:
 507              	.L36:
 505:lvgl/src/core/lv_obj_style.c ****         if(obj->styles[i].is_trans && obj->styles[i].selector == selector) break;
 508              		.loc 1 505 36 is_stmt 1 discriminator 2 view .LVU152
 505:lvgl/src/core/lv_obj_style.c ****         if(obj->styles[i].is_trans && obj->styles[i].selector == selector) break;
 509              		.loc 1 505 37 is_stmt 0 discriminator 2 view .LVU153
 510 000a 0130     		adds	r0, r0, #1
 511              	.LVL53:
 512              	.L35:
 505:lvgl/src/core/lv_obj_style.c ****         if(obj->styles[i].is_trans && obj->styles[i].selector == selector) break;
 513              		.loc 1 505 16 is_stmt 1 discriminator 1 view .LVU154
 505:lvgl/src/core/lv_obj_style.c ****         if(obj->styles[i].is_trans && obj->styles[i].selector == selector) break;
 514              		.loc 1 505 23 is_stmt 0 discriminator 1 view .LVU155
ARM GAS  C:\Users\BLACK_~1\AppData\Local\Temp\ccbv02In.s 			page 24


 515 000c 628C     		ldrh	r2, [r4, #34]
 516 000e C2F3C502 		ubfx	r2, r2, #3, #6
 505:lvgl/src/core/lv_obj_style.c ****         if(obj->styles[i].is_trans && obj->styles[i].selector == selector) break;
 517              		.loc 1 505 5 discriminator 1 view .LVU156
 518 0012 8242     		cmp	r2, r0
 519 0014 0BD9     		bls	.L37
 506:lvgl/src/core/lv_obj_style.c ****     }
 520              		.loc 1 506 9 is_stmt 1 view .LVU157
 506:lvgl/src/core/lv_obj_style.c ****     }
 521              		.loc 1 506 15 is_stmt 0 view .LVU158
 522 0016 E368     		ldr	r3, [r4, #12]
 506:lvgl/src/core/lv_obj_style.c ****     }
 523              		.loc 1 506 23 view .LVU159
 524 0018 03EBC003 		add	r3, r3, r0, lsl #3
 506:lvgl/src/core/lv_obj_style.c ****     }
 525              		.loc 1 506 12 view .LVU160
 526 001c D979     		ldrb	r1, [r3, #7]	@ zero_extendqisi2
 506:lvgl/src/core/lv_obj_style.c ****     }
 527              		.loc 1 506 11 view .LVU161
 528 001e 11F0020F 		tst	r1, #2
 529 0022 F2D0     		beq	.L36
 506:lvgl/src/core/lv_obj_style.c ****     }
 530              		.loc 1 506 53 discriminator 1 view .LVU162
 531 0024 5B68     		ldr	r3, [r3, #4]
 532 0026 C3F31703 		ubfx	r3, r3, #0, #24
 506:lvgl/src/core/lv_obj_style.c ****     }
 533              		.loc 1 506 36 discriminator 1 view .LVU163
 534 002a AB42     		cmp	r3, r5
 535 002c EDD1     		bne	.L36
 536              	.L37:
 510:lvgl/src/core/lv_obj_style.c **** 
 537              		.loc 1 510 5 is_stmt 1 view .LVU164
 510:lvgl/src/core/lv_obj_style.c **** 
 538              		.loc 1 510 7 is_stmt 0 view .LVU165
 539 002e 8242     		cmp	r2, r0
 540 0030 03D0     		beq	.L39
 510:lvgl/src/core/lv_obj_style.c **** 
 541              		.loc 1 510 29 is_stmt 1 discriminator 1 view .LVU166
 510:lvgl/src/core/lv_obj_style.c **** 
 542              		.loc 1 510 40 is_stmt 0 discriminator 1 view .LVU167
 543 0032 E368     		ldr	r3, [r4, #12]
 510:lvgl/src/core/lv_obj_style.c **** 
 544              		.loc 1 510 36 discriminator 1 view .LVU168
 545 0034 03EBC000 		add	r0, r3, r0, lsl #3
 546              	.LVL54:
 547              	.L34:
 525:lvgl/src/core/lv_obj_style.c **** 
 548              		.loc 1 525 1 view .LVU169
 549 0038 70BD     		pop	{r4, r5, r6, pc}
 550              	.LVL55:
 551              	.L39:
 512:lvgl/src/core/lv_obj_style.c ****     obj->styles = lv_mem_realloc(obj->styles, obj->style_cnt * sizeof(_lv_obj_style_t));
 552              		.loc 1 512 5 is_stmt 1 view .LVU170
 512:lvgl/src/core/lv_obj_style.c ****     obj->styles = lv_mem_realloc(obj->styles, obj->style_cnt * sizeof(_lv_obj_style_t));
 553              		.loc 1 512 19 is_stmt 0 view .LVU171
 554 003a 0132     		adds	r2, r2, #1
 555 003c 02F03F02 		and	r2, r2, #63
ARM GAS  C:\Users\BLACK_~1\AppData\Local\Temp\ccbv02In.s 			page 25


 556 0040 638C     		ldrh	r3, [r4, #34]
 557 0042 62F3C803 		bfi	r3, r2, #3, #6
 558 0046 6384     		strh	r3, [r4, #34]	@ movhi
 513:lvgl/src/core/lv_obj_style.c **** 
 559              		.loc 1 513 5 is_stmt 1 view .LVU172
 513:lvgl/src/core/lv_obj_style.c **** 
 560              		.loc 1 513 19 is_stmt 0 view .LVU173
 561 0048 D100     		lsls	r1, r2, #3
 562 004a E068     		ldr	r0, [r4, #12]
 563              	.LVL56:
 513:lvgl/src/core/lv_obj_style.c **** 
 564              		.loc 1 513 19 view .LVU174
 565 004c FFF7FEFF 		bl	lv_mem_realloc
 566              	.LVL57:
 513:lvgl/src/core/lv_obj_style.c **** 
 567              		.loc 1 513 17 view .LVU175
 568 0050 E060     		str	r0, [r4, #12]
 515:lvgl/src/core/lv_obj_style.c ****         obj->styles[i] = obj->styles[i - 1];
 569              		.loc 1 515 5 is_stmt 1 view .LVU176
 515:lvgl/src/core/lv_obj_style.c ****         obj->styles[i] = obj->styles[i - 1];
 570              		.loc 1 515 16 is_stmt 0 view .LVU177
 571 0052 668C     		ldrh	r6, [r4, #34]
 572 0054 C6F3C506 		ubfx	r6, r6, #3, #6
 515:lvgl/src/core/lv_obj_style.c ****         obj->styles[i] = obj->styles[i - 1];
 573              		.loc 1 515 28 view .LVU178
 574 0058 013E     		subs	r6, r6, #1
 575              	.LVL58:
 515:lvgl/src/core/lv_obj_style.c ****         obj->styles[i] = obj->styles[i - 1];
 576              		.loc 1 515 5 view .LVU179
 577 005a 0CE0     		b	.L41
 578              	.L42:
 516:lvgl/src/core/lv_obj_style.c ****     }
 579              		.loc 1 516 9 is_stmt 1 discriminator 3 view .LVU180
 516:lvgl/src/core/lv_obj_style.c ****     }
 580              		.loc 1 516 29 is_stmt 0 discriminator 3 view .LVU181
 581 005c E268     		ldr	r2, [r4, #12]
 516:lvgl/src/core/lv_obj_style.c ****     }
 582              		.loc 1 516 37 discriminator 3 view .LVU182
 583 005e 06F10053 		add	r3, r6, #536870912
 584 0062 013B     		subs	r3, r3, #1
 585 0064 02EBC303 		add	r3, r2, r3, lsl #3
 516:lvgl/src/core/lv_obj_style.c ****     }
 586              		.loc 1 516 20 discriminator 3 view .LVU183
 587 0068 02EBC602 		add	r2, r2, r6, lsl #3
 516:lvgl/src/core/lv_obj_style.c ****     }
 588              		.loc 1 516 24 discriminator 3 view .LVU184
 589 006c 93E80300 		ldm	r3, {r0, r1}
 590 0070 82E80300 		stm	r2, {r0, r1}
 515:lvgl/src/core/lv_obj_style.c ****         obj->styles[i] = obj->styles[i - 1];
 591              		.loc 1 515 41 is_stmt 1 discriminator 3 view .LVU185
 515:lvgl/src/core/lv_obj_style.c ****         obj->styles[i] = obj->styles[i - 1];
 592              		.loc 1 515 42 is_stmt 0 discriminator 3 view .LVU186
 593 0074 013E     		subs	r6, r6, #1
 594              	.LVL59:
 595              	.L41:
 515:lvgl/src/core/lv_obj_style.c ****         obj->styles[i] = obj->styles[i - 1];
 596              		.loc 1 515 33 is_stmt 1 discriminator 1 view .LVU187
ARM GAS  C:\Users\BLACK_~1\AppData\Local\Temp\ccbv02In.s 			page 26


 515:lvgl/src/core/lv_obj_style.c ****         obj->styles[i] = obj->styles[i - 1];
 597              		.loc 1 515 5 is_stmt 0 discriminator 1 view .LVU188
 598 0076 002E     		cmp	r6, #0
 599 0078 F0D1     		bne	.L42
 519:lvgl/src/core/lv_obj_style.c ****     obj->styles[0].style = lv_mem_alloc(sizeof(lv_style_t));
 600              		.loc 1 519 5 is_stmt 1 view .LVU189
 601 007a 0821     		movs	r1, #8
 602 007c E068     		ldr	r0, [r4, #12]
 603 007e FFF7FEFF 		bl	lv_memset_00
 604              	.LVL60:
 520:lvgl/src/core/lv_obj_style.c ****     lv_style_init(obj->styles[0].style);
 605              		.loc 1 520 5 view .LVU190
 520:lvgl/src/core/lv_obj_style.c ****     lv_style_init(obj->styles[0].style);
 606              		.loc 1 520 8 is_stmt 0 view .LVU191
 607 0082 E668     		ldr	r6, [r4, #12]
 608              	.LVL61:
 520:lvgl/src/core/lv_obj_style.c ****     lv_style_init(obj->styles[0].style);
 609              		.loc 1 520 28 view .LVU192
 610 0084 0820     		movs	r0, #8
 611 0086 FFF7FEFF 		bl	lv_mem_alloc
 612              	.LVL62:
 520:lvgl/src/core/lv_obj_style.c ****     lv_style_init(obj->styles[0].style);
 613              		.loc 1 520 26 view .LVU193
 614 008a 3060     		str	r0, [r6]
 521:lvgl/src/core/lv_obj_style.c ****     obj->styles[0].is_trans = 1;
 615              		.loc 1 521 5 is_stmt 1 view .LVU194
 521:lvgl/src/core/lv_obj_style.c ****     obj->styles[0].is_trans = 1;
 616              		.loc 1 521 22 is_stmt 0 view .LVU195
 617 008c E368     		ldr	r3, [r4, #12]
 521:lvgl/src/core/lv_obj_style.c ****     obj->styles[0].is_trans = 1;
 618              		.loc 1 521 5 view .LVU196
 619 008e 1868     		ldr	r0, [r3]
 620 0090 FFF7FEFF 		bl	lv_style_init
 621              	.LVL63:
 522:lvgl/src/core/lv_obj_style.c ****     obj->styles[0].selector = selector;
 622              		.loc 1 522 5 is_stmt 1 view .LVU197
 522:lvgl/src/core/lv_obj_style.c ****     obj->styles[0].selector = selector;
 623              		.loc 1 522 8 is_stmt 0 view .LVU198
 624 0094 E268     		ldr	r2, [r4, #12]
 522:lvgl/src/core/lv_obj_style.c ****     obj->styles[0].selector = selector;
 625              		.loc 1 522 29 view .LVU199
 626 0096 D379     		ldrb	r3, [r2, #7]	@ zero_extendqisi2
 627 0098 43F00203 		orr	r3, r3, #2
 628 009c D371     		strb	r3, [r2, #7]
 523:lvgl/src/core/lv_obj_style.c ****     return &obj->styles[0];
 629              		.loc 1 523 5 is_stmt 1 view .LVU200
 523:lvgl/src/core/lv_obj_style.c ****     return &obj->styles[0];
 630              		.loc 1 523 8 is_stmt 0 view .LVU201
 631 009e E368     		ldr	r3, [r4, #12]
 523:lvgl/src/core/lv_obj_style.c ****     return &obj->styles[0];
 632              		.loc 1 523 29 view .LVU202
 633 00a0 5A68     		ldr	r2, [r3, #4]
 634 00a2 65F31702 		bfi	r2, r5, #0, #24
 635              	.LVL64:
 523:lvgl/src/core/lv_obj_style.c ****     return &obj->styles[0];
 636              		.loc 1 523 29 view .LVU203
 637 00a6 5A60     		str	r2, [r3, #4]
ARM GAS  C:\Users\BLACK_~1\AppData\Local\Temp\ccbv02In.s 			page 27


 524:lvgl/src/core/lv_obj_style.c **** }
 638              		.loc 1 524 5 is_stmt 1 view .LVU204
 524:lvgl/src/core/lv_obj_style.c **** }
 639              		.loc 1 524 12 is_stmt 0 view .LVU205
 640 00a8 E068     		ldr	r0, [r4, #12]
 641 00aa C5E7     		b	.L34
 642              		.cfi_endproc
 643              	.LFE170:
 645              		.section	.text.fade_anim_cb,"ax",%progbits
 646              		.align	1
 647              		.syntax unified
 648              		.thumb
 649              		.thumb_func
 651              	fade_anim_cb:
 652              	.LVL65:
 653              	.LFB179:
 679:lvgl/src/core/lv_obj_style.c **** 
 680:lvgl/src/core/lv_obj_style.c **** static void trans_anim_cb(void * _tr, int32_t v)
 681:lvgl/src/core/lv_obj_style.c **** {
 682:lvgl/src/core/lv_obj_style.c ****     trans_t * tr = _tr;
 683:lvgl/src/core/lv_obj_style.c ****     lv_obj_t * obj = tr->obj;
 684:lvgl/src/core/lv_obj_style.c **** 
 685:lvgl/src/core/lv_obj_style.c ****     uint32_t i;
 686:lvgl/src/core/lv_obj_style.c ****     for(i = 0; i < obj->style_cnt; i++) {
 687:lvgl/src/core/lv_obj_style.c ****         if(obj->styles[i].is_trans == 0 || obj->styles[i].selector != tr->selector) continue;
 688:lvgl/src/core/lv_obj_style.c **** 
 689:lvgl/src/core/lv_obj_style.c ****         lv_style_value_t value_final;
 690:lvgl/src/core/lv_obj_style.c ****         switch (tr->prop) {
 691:lvgl/src/core/lv_obj_style.c **** 
 692:lvgl/src/core/lv_obj_style.c ****             case LV_STYLE_BORDER_SIDE:
 693:lvgl/src/core/lv_obj_style.c ****             case LV_STYLE_BORDER_POST:
 694:lvgl/src/core/lv_obj_style.c ****             case LV_STYLE_BLEND_MODE:
 695:lvgl/src/core/lv_obj_style.c ****                 if(v < 255) value_final.num = tr->start_value.num;
 696:lvgl/src/core/lv_obj_style.c ****                 else value_final.num = tr->end_value.num;
 697:lvgl/src/core/lv_obj_style.c ****                 break;
 698:lvgl/src/core/lv_obj_style.c ****             case LV_STYLE_TRANSITION:
 699:lvgl/src/core/lv_obj_style.c ****             case LV_STYLE_TEXT_FONT:
 700:lvgl/src/core/lv_obj_style.c ****                 if(v < 255) value_final.ptr = tr->start_value.ptr;
 701:lvgl/src/core/lv_obj_style.c ****                 else value_final.ptr = tr->end_value.ptr;
 702:lvgl/src/core/lv_obj_style.c ****                 break;
 703:lvgl/src/core/lv_obj_style.c ****             case LV_STYLE_COLOR_FILTER_DSC:
 704:lvgl/src/core/lv_obj_style.c ****                 if(tr->start_value.ptr == NULL) value_final.ptr = tr->end_value.ptr;
 705:lvgl/src/core/lv_obj_style.c ****                 else if(tr->end_value.ptr == NULL) value_final.ptr = tr->start_value.ptr;
 706:lvgl/src/core/lv_obj_style.c ****                 else if(v < 128) value_final.ptr = tr->start_value.ptr;
 707:lvgl/src/core/lv_obj_style.c ****                 else value_final.ptr = tr->end_value.ptr;
 708:lvgl/src/core/lv_obj_style.c ****                 break;
 709:lvgl/src/core/lv_obj_style.c ****             case LV_STYLE_BG_COLOR:
 710:lvgl/src/core/lv_obj_style.c ****             case LV_STYLE_BORDER_COLOR:
 711:lvgl/src/core/lv_obj_style.c ****             case LV_STYLE_TEXT_COLOR:
 712:lvgl/src/core/lv_obj_style.c ****             case LV_STYLE_SHADOW_COLOR:
 713:lvgl/src/core/lv_obj_style.c ****             case LV_STYLE_OUTLINE_COLOR:
 714:lvgl/src/core/lv_obj_style.c ****             case LV_STYLE_IMG_RECOLOR:
 715:lvgl/src/core/lv_obj_style.c ****                 if(v <= 0) value_final.color = tr->start_value.color;
 716:lvgl/src/core/lv_obj_style.c ****                 else if(v >= 255) value_final.color = tr->end_value.color;
 717:lvgl/src/core/lv_obj_style.c ****                 else value_final.color = lv_color_mix(tr->end_value.color, tr->start_value.color, v
 718:lvgl/src/core/lv_obj_style.c ****                 break;
 719:lvgl/src/core/lv_obj_style.c **** 
ARM GAS  C:\Users\BLACK_~1\AppData\Local\Temp\ccbv02In.s 			page 28


 720:lvgl/src/core/lv_obj_style.c ****             default:
 721:lvgl/src/core/lv_obj_style.c ****                 if(v == 0) value_final.num = tr->start_value.num;
 722:lvgl/src/core/lv_obj_style.c ****                 else if(v == 255) value_final.num = tr->end_value.num;
 723:lvgl/src/core/lv_obj_style.c ****                 else value_final.num = tr->start_value.num + ((int32_t)((int32_t)(tr->end_value.num
 724:lvgl/src/core/lv_obj_style.c ****                 break;
 725:lvgl/src/core/lv_obj_style.c ****         }
 726:lvgl/src/core/lv_obj_style.c **** 
 727:lvgl/src/core/lv_obj_style.c ****         lv_style_value_t old_value;
 728:lvgl/src/core/lv_obj_style.c ****         bool refr = true;
 729:lvgl/src/core/lv_obj_style.c ****         if(lv_style_get_prop(obj->styles[i].style, tr->prop, &old_value)) {
 730:lvgl/src/core/lv_obj_style.c ****             if(value_final.ptr == old_value.ptr && value_final.color.full == old_value.color.full &
 731:lvgl/src/core/lv_obj_style.c ****                 refr = false;
 732:lvgl/src/core/lv_obj_style.c ****             }
 733:lvgl/src/core/lv_obj_style.c ****         }
 734:lvgl/src/core/lv_obj_style.c ****         lv_style_set_prop(obj->styles[i].style, tr->prop, value_final);
 735:lvgl/src/core/lv_obj_style.c ****         if (refr) lv_obj_refresh_style(tr->obj, tr->selector, tr->prop);
 736:lvgl/src/core/lv_obj_style.c ****         break;
 737:lvgl/src/core/lv_obj_style.c **** 
 738:lvgl/src/core/lv_obj_style.c ****     }
 739:lvgl/src/core/lv_obj_style.c **** 
 740:lvgl/src/core/lv_obj_style.c **** }
 741:lvgl/src/core/lv_obj_style.c **** 
 742:lvgl/src/core/lv_obj_style.c **** static void trans_anim_start_cb(lv_anim_t * a)
 743:lvgl/src/core/lv_obj_style.c **** {
 744:lvgl/src/core/lv_obj_style.c ****     trans_t * tr = a->var;
 745:lvgl/src/core/lv_obj_style.c **** 
 746:lvgl/src/core/lv_obj_style.c ****     lv_part_t part = lv_obj_style_get_selector_part(tr->selector);
 747:lvgl/src/core/lv_obj_style.c ****     tr->start_value = lv_obj_get_style_prop(tr->obj, part, tr->prop);
 748:lvgl/src/core/lv_obj_style.c **** 
 749:lvgl/src/core/lv_obj_style.c ****     /*Init prop to an invalid values to be sure `trans_del` won't delete this added `tr`*/
 750:lvgl/src/core/lv_obj_style.c ****     lv_style_prop_t prop_tmp = tr->prop;
 751:lvgl/src/core/lv_obj_style.c ****     tr->prop = LV_STYLE_PROP_INV;
 752:lvgl/src/core/lv_obj_style.c **** 
 753:lvgl/src/core/lv_obj_style.c ****     /*Delete the related transitions if any*/
 754:lvgl/src/core/lv_obj_style.c ****     trans_del(tr->obj, part, prop_tmp, tr);
 755:lvgl/src/core/lv_obj_style.c **** 
 756:lvgl/src/core/lv_obj_style.c ****     tr->prop = prop_tmp;
 757:lvgl/src/core/lv_obj_style.c **** 
 758:lvgl/src/core/lv_obj_style.c ****     _lv_obj_style_t * style_trans = get_trans_style(tr->obj, tr->selector);
 759:lvgl/src/core/lv_obj_style.c ****     lv_style_set_prop(style_trans->style, tr->prop, tr->start_value);   /*Be sure `trans_style` has
 760:lvgl/src/core/lv_obj_style.c **** 
 761:lvgl/src/core/lv_obj_style.c **** }
 762:lvgl/src/core/lv_obj_style.c **** 
 763:lvgl/src/core/lv_obj_style.c **** static void trans_anim_ready_cb(lv_anim_t * a)
 764:lvgl/src/core/lv_obj_style.c **** {
 765:lvgl/src/core/lv_obj_style.c ****     trans_t * tr = a->var;
 766:lvgl/src/core/lv_obj_style.c ****     lv_obj_t * obj = tr->obj;
 767:lvgl/src/core/lv_obj_style.c ****     lv_style_prop_t prop = tr->prop;
 768:lvgl/src/core/lv_obj_style.c **** 
 769:lvgl/src/core/lv_obj_style.c ****     /*Remove the transitioned property from trans. style
 770:lvgl/src/core/lv_obj_style.c ****      *if there no more transitions for this property
 771:lvgl/src/core/lv_obj_style.c ****      *It allows changing it by normal styles*/
 772:lvgl/src/core/lv_obj_style.c ****     bool running = false;
 773:lvgl/src/core/lv_obj_style.c ****     trans_t * tr_i;
 774:lvgl/src/core/lv_obj_style.c ****     _LV_LL_READ(&LV_GC_ROOT(_lv_obj_style_trans_ll), tr_i) {
 775:lvgl/src/core/lv_obj_style.c ****         if(tr_i != tr && tr_i->obj == tr->obj && tr_i->selector == tr->selector && tr_i->prop == tr
 776:lvgl/src/core/lv_obj_style.c ****             running = true;
ARM GAS  C:\Users\BLACK_~1\AppData\Local\Temp\ccbv02In.s 			page 29


 777:lvgl/src/core/lv_obj_style.c ****             break;
 778:lvgl/src/core/lv_obj_style.c ****         }
 779:lvgl/src/core/lv_obj_style.c ****     }
 780:lvgl/src/core/lv_obj_style.c **** 
 781:lvgl/src/core/lv_obj_style.c ****     if(!running) {
 782:lvgl/src/core/lv_obj_style.c ****         uint32_t i;
 783:lvgl/src/core/lv_obj_style.c ****         for(i = 0; i < obj->style_cnt; i++) {
 784:lvgl/src/core/lv_obj_style.c ****             if(obj->styles[i].is_trans && obj->styles[i].selector == tr->selector) {
 785:lvgl/src/core/lv_obj_style.c ****                 _lv_ll_remove(&LV_GC_ROOT(_lv_obj_style_trans_ll), tr);
 786:lvgl/src/core/lv_obj_style.c ****                 lv_mem_free(tr);
 787:lvgl/src/core/lv_obj_style.c **** 
 788:lvgl/src/core/lv_obj_style.c ****                 _lv_obj_style_t * obj_style = &obj->styles[i];
 789:lvgl/src/core/lv_obj_style.c ****                 lv_style_remove_prop(obj_style->style, prop);
 790:lvgl/src/core/lv_obj_style.c **** 
 791:lvgl/src/core/lv_obj_style.c ****                 if(lv_style_is_empty(obj->styles[i].style)) {
 792:lvgl/src/core/lv_obj_style.c ****                     lv_obj_remove_style(obj, obj_style->style, obj_style->selector);
 793:lvgl/src/core/lv_obj_style.c **** 
 794:lvgl/src/core/lv_obj_style.c ****                 }
 795:lvgl/src/core/lv_obj_style.c ****                 break;
 796:lvgl/src/core/lv_obj_style.c ****             }
 797:lvgl/src/core/lv_obj_style.c ****         }
 798:lvgl/src/core/lv_obj_style.c ****     }
 799:lvgl/src/core/lv_obj_style.c **** }
 800:lvgl/src/core/lv_obj_style.c **** 
 801:lvgl/src/core/lv_obj_style.c **** static void fade_anim_cb(void * obj, int32_t v)
 802:lvgl/src/core/lv_obj_style.c **** {
 654              		.loc 1 802 1 is_stmt 1 view -0
 655              		.cfi_startproc
 656              		@ args = 0, pretend = 0, frame = 0
 657              		@ frame_needed = 0, uses_anonymous_args = 0
 658              		.loc 1 802 1 is_stmt 0 view .LVU207
 659 0000 08B5     		push	{r3, lr}
 660              	.LCFI4:
 661              		.cfi_def_cfa_offset 8
 662              		.cfi_offset 3, -8
 663              		.cfi_offset 14, -4
 803:lvgl/src/core/lv_obj_style.c ****     lv_obj_set_style_opa(obj, v, 0);
 664              		.loc 1 803 5 is_stmt 1 view .LVU208
 665 0002 0022     		movs	r2, #0
 666 0004 C9B2     		uxtb	r1, r1
 667              	.LVL66:
 668              		.loc 1 803 5 is_stmt 0 view .LVU209
 669 0006 FFF7FEFF 		bl	lv_obj_set_style_opa
 670              	.LVL67:
 804:lvgl/src/core/lv_obj_style.c **** }
 671              		.loc 1 804 1 view .LVU210
 672 000a 08BD     		pop	{r3, pc}
 673              		.cfi_endproc
 674              	.LFE179:
 676              		.section	.text._lv_obj_style_init,"ax",%progbits
 677              		.align	1
 678              		.global	_lv_obj_style_init
 679              		.syntax unified
 680              		.thumb
 681              		.thumb_func
 683              	_lv_obj_style_init:
 684              	.LFB153:
ARM GAS  C:\Users\BLACK_~1\AppData\Local\Temp\ccbv02In.s 			page 30


  72:lvgl/src/core/lv_obj_style.c ****     _lv_ll_init(&LV_GC_ROOT(_lv_obj_style_trans_ll), sizeof(trans_t));
 685              		.loc 1 72 1 is_stmt 1 view -0
 686              		.cfi_startproc
 687              		@ args = 0, pretend = 0, frame = 0
 688              		@ frame_needed = 0, uses_anonymous_args = 0
 689 0000 08B5     		push	{r3, lr}
 690              	.LCFI5:
 691              		.cfi_def_cfa_offset 8
 692              		.cfi_offset 3, -8
 693              		.cfi_offset 14, -4
  73:lvgl/src/core/lv_obj_style.c **** }
 694              		.loc 1 73 5 view .LVU212
 695 0002 1421     		movs	r1, #20
 696 0004 0148     		ldr	r0, .L48
 697 0006 FFF7FEFF 		bl	_lv_ll_init
 698              	.LVL68:
  74:lvgl/src/core/lv_obj_style.c **** 
 699              		.loc 1 74 1 is_stmt 0 view .LVU213
 700 000a 08BD     		pop	{r3, pc}
 701              	.L49:
 702              		.align	2
 703              	.L48:
 704 000c 00000000 		.word	_lv_obj_style_trans_ll
 705              		.cfi_endproc
 706              	.LFE153:
 708              		.section	.text.lv_obj_enable_style_refresh,"ax",%progbits
 709              		.align	1
 710              		.global	lv_obj_enable_style_refresh
 711              		.syntax unified
 712              		.thumb
 713              		.thumb_func
 715              	lv_obj_enable_style_refresh:
 716              	.LVL69:
 717              	.LFB158:
 202:lvgl/src/core/lv_obj_style.c ****     style_refr = en;
 718              		.loc 1 202 1 is_stmt 1 view -0
 719              		.cfi_startproc
 720              		@ args = 0, pretend = 0, frame = 0
 721              		@ frame_needed = 0, uses_anonymous_args = 0
 722              		@ link register save eliminated.
 203:lvgl/src/core/lv_obj_style.c **** }
 723              		.loc 1 203 5 view .LVU215
 203:lvgl/src/core/lv_obj_style.c **** }
 724              		.loc 1 203 16 is_stmt 0 view .LVU216
 725 0000 014B     		ldr	r3, .L51
 726 0002 1870     		strb	r0, [r3]
 204:lvgl/src/core/lv_obj_style.c **** 
 727              		.loc 1 204 1 view .LVU217
 728 0004 7047     		bx	lr
 729              	.L52:
 730 0006 00BF     		.align	2
 731              	.L51:
 732 0008 00000000 		.word	.LANCHOR0
 733              		.cfi_endproc
 734              	.LFE158:
 736              		.section	.text.lv_obj_get_local_style_prop,"ax",%progbits
 737              		.align	1
ARM GAS  C:\Users\BLACK_~1\AppData\Local\Temp\ccbv02In.s 			page 31


 738              		.global	lv_obj_get_local_style_prop
 739              		.syntax unified
 740              		.thumb
 741              		.thumb_func
 743              	lv_obj_get_local_style_prop:
 744              	.LVL70:
 745              	.LFB161:
 260:lvgl/src/core/lv_obj_style.c ****     uint32_t i;
 746              		.loc 1 260 1 is_stmt 1 view -0
 747              		.cfi_startproc
 748              		@ args = 0, pretend = 0, frame = 0
 749              		@ frame_needed = 0, uses_anonymous_args = 0
 260:lvgl/src/core/lv_obj_style.c ****     uint32_t i;
 750              		.loc 1 260 1 is_stmt 0 view .LVU219
 751 0000 10B5     		push	{r4, lr}
 752              	.LCFI6:
 753              		.cfi_def_cfa_offset 8
 754              		.cfi_offset 4, -8
 755              		.cfi_offset 14, -4
 261:lvgl/src/core/lv_obj_style.c ****     for(i = 0; i < obj->style_cnt; i++) {
 756              		.loc 1 261 5 is_stmt 1 view .LVU220
 262:lvgl/src/core/lv_obj_style.c ****         if(obj->styles[i].is_local &&
 757              		.loc 1 262 5 view .LVU221
 758              	.LVL71:
 262:lvgl/src/core/lv_obj_style.c ****         if(obj->styles[i].is_local &&
 759              		.loc 1 262 11 is_stmt 0 view .LVU222
 760 0002 4FF0000E 		mov	lr, #0
 262:lvgl/src/core/lv_obj_style.c ****         if(obj->styles[i].is_local &&
 761              		.loc 1 262 5 view .LVU223
 762 0006 01E0     		b	.L54
 763              	.LVL72:
 764              	.L55:
 262:lvgl/src/core/lv_obj_style.c ****         if(obj->styles[i].is_local &&
 765              		.loc 1 262 36 is_stmt 1 discriminator 2 view .LVU224
 262:lvgl/src/core/lv_obj_style.c ****         if(obj->styles[i].is_local &&
 766              		.loc 1 262 37 is_stmt 0 discriminator 2 view .LVU225
 767 0008 0EF1010E 		add	lr, lr, #1
 768              	.LVL73:
 769              	.L54:
 262:lvgl/src/core/lv_obj_style.c ****         if(obj->styles[i].is_local &&
 770              		.loc 1 262 16 is_stmt 1 discriminator 1 view .LVU226
 262:lvgl/src/core/lv_obj_style.c ****         if(obj->styles[i].is_local &&
 771              		.loc 1 262 23 is_stmt 0 discriminator 1 view .LVU227
 772 000c B0F822C0 		ldrh	ip, [r0, #34]
 773 0010 CCF3C50C 		ubfx	ip, ip, #3, #6
 262:lvgl/src/core/lv_obj_style.c ****         if(obj->styles[i].is_local &&
 774              		.loc 1 262 5 discriminator 1 view .LVU228
 775 0014 F445     		cmp	ip, lr
 776 0016 12D9     		bls	.L59
 263:lvgl/src/core/lv_obj_style.c ****            obj->styles[i].selector ==  selector)
 777              		.loc 1 263 9 is_stmt 1 view .LVU229
 263:lvgl/src/core/lv_obj_style.c ****            obj->styles[i].selector ==  selector)
 778              		.loc 1 263 23 is_stmt 0 view .LVU230
 779 0018 C468     		ldr	r4, [r0, #12]
 780 001a 04EBCE0C 		add	ip, r4, lr, lsl #3
 263:lvgl/src/core/lv_obj_style.c ****            obj->styles[i].selector ==  selector)
 781              		.loc 1 263 12 view .LVU231
ARM GAS  C:\Users\BLACK_~1\AppData\Local\Temp\ccbv02In.s 			page 32


 782 001e 9CF80740 		ldrb	r4, [ip, #7]	@ zero_extendqisi2
 263:lvgl/src/core/lv_obj_style.c ****            obj->styles[i].selector ==  selector)
 783              		.loc 1 263 11 view .LVU232
 784 0022 14F0010F 		tst	r4, #1
 785 0026 EFD0     		beq	.L55
 264:lvgl/src/core/lv_obj_style.c ****         {
 786              		.loc 1 264 26 discriminator 1 view .LVU233
 787 0028 DCF80440 		ldr	r4, [ip, #4]
 788 002c C4F31704 		ubfx	r4, r4, #0, #24
 263:lvgl/src/core/lv_obj_style.c ****            obj->styles[i].selector ==  selector)
 789              		.loc 1 263 36 discriminator 1 view .LVU234
 790 0030 9C42     		cmp	r4, r3
 791 0032 E9D1     		bne	.L55
 266:lvgl/src/core/lv_obj_style.c ****         }
 792              		.loc 1 266 13 is_stmt 1 view .LVU235
 266:lvgl/src/core/lv_obj_style.c ****         }
 793              		.loc 1 266 20 is_stmt 0 view .LVU236
 794 0034 DCF80000 		ldr	r0, [ip]
 795              	.LVL74:
 266:lvgl/src/core/lv_obj_style.c ****         }
 796              		.loc 1 266 20 view .LVU237
 797 0038 FFF7FEFF 		bl	lv_style_get_prop
 798              	.LVL75:
 266:lvgl/src/core/lv_obj_style.c ****         }
 799              		.loc 1 266 20 view .LVU238
 800 003c 00E0     		b	.L56
 801              	.LVL76:
 802              	.L59:
 270:lvgl/src/core/lv_obj_style.c **** }
 803              		.loc 1 270 12 view .LVU239
 804 003e 0020     		movs	r0, #0
 805              	.LVL77:
 806              	.L56:
 271:lvgl/src/core/lv_obj_style.c **** 
 807              		.loc 1 271 1 view .LVU240
 808 0040 10BD     		pop	{r4, pc}
 809              		.cfi_endproc
 810              	.LFE161:
 812              		.section	.text.lv_obj_remove_local_style_prop,"ax",%progbits
 813              		.align	1
 814              		.global	lv_obj_remove_local_style_prop
 815              		.syntax unified
 816              		.thumb
 817              		.thumb_func
 819              	lv_obj_remove_local_style_prop:
 820              	.LVL78:
 821              	.LFB162:
 274:lvgl/src/core/lv_obj_style.c ****     LV_ASSERT_OBJ(obj, MY_CLASS);
 822              		.loc 1 274 1 is_stmt 1 view -0
 823              		.cfi_startproc
 824              		@ args = 0, pretend = 0, frame = 0
 825              		@ frame_needed = 0, uses_anonymous_args = 0
 274:lvgl/src/core/lv_obj_style.c ****     LV_ASSERT_OBJ(obj, MY_CLASS);
 826              		.loc 1 274 1 is_stmt 0 view .LVU242
 827 0000 10B5     		push	{r4, lr}
 828              	.LCFI7:
 829              		.cfi_def_cfa_offset 8
ARM GAS  C:\Users\BLACK_~1\AppData\Local\Temp\ccbv02In.s 			page 33


 830              		.cfi_offset 4, -8
 831              		.cfi_offset 14, -4
 275:lvgl/src/core/lv_obj_style.c **** 
 832              		.loc 1 275 5 is_stmt 1 view .LVU243
 275:lvgl/src/core/lv_obj_style.c **** 
 833              		.loc 1 275 5 view .LVU244
 275:lvgl/src/core/lv_obj_style.c **** 
 834              		.loc 1 275 5 view .LVU245
 277:lvgl/src/core/lv_obj_style.c ****     /*Find the style*/
 835              		.loc 1 277 5 view .LVU246
 279:lvgl/src/core/lv_obj_style.c ****         if(obj->styles[i].is_local &&
 836              		.loc 1 279 5 view .LVU247
 837              	.LVL79:
 279:lvgl/src/core/lv_obj_style.c ****         if(obj->styles[i].is_local &&
 838              		.loc 1 279 11 is_stmt 0 view .LVU248
 839 0002 4FF0000E 		mov	lr, #0
 279:lvgl/src/core/lv_obj_style.c ****         if(obj->styles[i].is_local &&
 840              		.loc 1 279 5 view .LVU249
 841 0006 01E0     		b	.L61
 842              	.LVL80:
 843              	.L62:
 279:lvgl/src/core/lv_obj_style.c ****         if(obj->styles[i].is_local &&
 844              		.loc 1 279 36 is_stmt 1 discriminator 2 view .LVU250
 279:lvgl/src/core/lv_obj_style.c ****         if(obj->styles[i].is_local &&
 845              		.loc 1 279 37 is_stmt 0 discriminator 2 view .LVU251
 846 0008 0EF1010E 		add	lr, lr, #1
 847              	.LVL81:
 848              	.L61:
 279:lvgl/src/core/lv_obj_style.c ****         if(obj->styles[i].is_local &&
 849              		.loc 1 279 16 is_stmt 1 discriminator 1 view .LVU252
 279:lvgl/src/core/lv_obj_style.c ****         if(obj->styles[i].is_local &&
 850              		.loc 1 279 23 is_stmt 0 discriminator 1 view .LVU253
 851 000c B0F822C0 		ldrh	ip, [r0, #34]
 852 0010 CCF3C50C 		ubfx	ip, ip, #3, #6
 279:lvgl/src/core/lv_obj_style.c ****         if(obj->styles[i].is_local &&
 853              		.loc 1 279 5 discriminator 1 view .LVU254
 854 0014 F445     		cmp	ip, lr
 855 0016 0BD9     		bls	.L63
 280:lvgl/src/core/lv_obj_style.c ****            obj->styles[i].selector == selector) {
 856              		.loc 1 280 9 is_stmt 1 view .LVU255
 280:lvgl/src/core/lv_obj_style.c ****            obj->styles[i].selector == selector) {
 857              		.loc 1 280 15 is_stmt 0 view .LVU256
 858 0018 C368     		ldr	r3, [r0, #12]
 280:lvgl/src/core/lv_obj_style.c ****            obj->styles[i].selector == selector) {
 859              		.loc 1 280 23 view .LVU257
 860 001a 03EBCE03 		add	r3, r3, lr, lsl #3
 280:lvgl/src/core/lv_obj_style.c ****            obj->styles[i].selector == selector) {
 861              		.loc 1 280 12 view .LVU258
 862 001e DC79     		ldrb	r4, [r3, #7]	@ zero_extendqisi2
 280:lvgl/src/core/lv_obj_style.c ****            obj->styles[i].selector == selector) {
 863              		.loc 1 280 11 view .LVU259
 864 0020 14F0010F 		tst	r4, #1
 865 0024 F0D0     		beq	.L62
 281:lvgl/src/core/lv_obj_style.c ****             break;
 866              		.loc 1 281 26 discriminator 1 view .LVU260
 867 0026 5B68     		ldr	r3, [r3, #4]
 868 0028 C3F31703 		ubfx	r3, r3, #0, #24
ARM GAS  C:\Users\BLACK_~1\AppData\Local\Temp\ccbv02In.s 			page 34


 280:lvgl/src/core/lv_obj_style.c ****            obj->styles[i].selector == selector) {
 869              		.loc 1 280 36 discriminator 1 view .LVU261
 870 002c 9342     		cmp	r3, r2
 871 002e EBD1     		bne	.L62
 872              	.L63:
 287:lvgl/src/core/lv_obj_style.c **** 
 873              		.loc 1 287 5 is_stmt 1 view .LVU262
 287:lvgl/src/core/lv_obj_style.c **** 
 874              		.loc 1 287 7 is_stmt 0 view .LVU263
 875 0030 F445     		cmp	ip, lr
 876 0032 05D0     		beq	.L66
 289:lvgl/src/core/lv_obj_style.c **** }
 877              		.loc 1 289 5 is_stmt 1 view .LVU264
 289:lvgl/src/core/lv_obj_style.c **** }
 878              		.loc 1 289 36 is_stmt 0 view .LVU265
 879 0034 C368     		ldr	r3, [r0, #12]
 289:lvgl/src/core/lv_obj_style.c **** }
 880              		.loc 1 289 12 view .LVU266
 881 0036 53F83E00 		ldr	r0, [r3, lr, lsl #3]
 882              	.LVL82:
 289:lvgl/src/core/lv_obj_style.c **** }
 883              		.loc 1 289 12 view .LVU267
 884 003a FFF7FEFF 		bl	lv_style_remove_prop
 885              	.LVL83:
 886              	.L65:
 290:lvgl/src/core/lv_obj_style.c **** 
 887              		.loc 1 290 1 view .LVU268
 888 003e 10BD     		pop	{r4, pc}
 889              	.LVL84:
 890              	.L66:
 287:lvgl/src/core/lv_obj_style.c **** 
 891              		.loc 1 287 36 view .LVU269
 892 0040 0020     		movs	r0, #0
 893              	.LVL85:
 287:lvgl/src/core/lv_obj_style.c **** 
 894              		.loc 1 287 36 view .LVU270
 895 0042 FCE7     		b	.L65
 896              		.cfi_endproc
 897              	.LFE162:
 899              		.section	.text.fade_in_anim_ready,"ax",%progbits
 900              		.align	1
 901              		.syntax unified
 902              		.thumb
 903              		.thumb_func
 905              	fade_in_anim_ready:
 906              	.LVL86:
 907              	.LFB180:
 805:lvgl/src/core/lv_obj_style.c **** 
 806:lvgl/src/core/lv_obj_style.c **** static void fade_in_anim_ready(lv_anim_t * a)
 807:lvgl/src/core/lv_obj_style.c **** {
 908              		.loc 1 807 1 is_stmt 1 view -0
 909              		.cfi_startproc
 910              		@ args = 0, pretend = 0, frame = 0
 911              		@ frame_needed = 0, uses_anonymous_args = 0
 912              		.loc 1 807 1 is_stmt 0 view .LVU272
 913 0000 08B5     		push	{r3, lr}
 914              	.LCFI8:
ARM GAS  C:\Users\BLACK_~1\AppData\Local\Temp\ccbv02In.s 			page 35


 915              		.cfi_def_cfa_offset 8
 916              		.cfi_offset 3, -8
 917              		.cfi_offset 14, -4
 808:lvgl/src/core/lv_obj_style.c ****     lv_obj_remove_local_style_prop(a->var, LV_STYLE_OPA, 0);
 918              		.loc 1 808 5 is_stmt 1 view .LVU273
 919 0002 0022     		movs	r2, #0
 920 0004 40F26241 		movw	r1, #1122
 921 0008 0068     		ldr	r0, [r0]
 922              	.LVL87:
 923              		.loc 1 808 5 is_stmt 0 view .LVU274
 924 000a FFF7FEFF 		bl	lv_obj_remove_local_style_prop
 925              	.LVL88:
 809:lvgl/src/core/lv_obj_style.c **** }
 926              		.loc 1 809 1 view .LVU275
 927 000e 08BD     		pop	{r3, pc}
 928              		.cfi_endproc
 929              	.LFE180:
 931              		.section	.text.lv_obj_fade_in,"ax",%progbits
 932              		.align	1
 933              		.global	lv_obj_fade_in
 934              		.syntax unified
 935              		.thumb
 936              		.thumb_func
 938              	lv_obj_fade_in:
 939              	.LVL89:
 940              	.LFB165:
 418:lvgl/src/core/lv_obj_style.c ****     lv_anim_t a;
 941              		.loc 1 418 1 is_stmt 1 view -0
 942              		.cfi_startproc
 943              		@ args = 0, pretend = 0, frame = 72
 944              		@ frame_needed = 0, uses_anonymous_args = 0
 418:lvgl/src/core/lv_obj_style.c ****     lv_anim_t a;
 945              		.loc 1 418 1 is_stmt 0 view .LVU277
 946 0000 70B5     		push	{r4, r5, r6, lr}
 947              	.LCFI9:
 948              		.cfi_def_cfa_offset 16
 949              		.cfi_offset 4, -16
 950              		.cfi_offset 5, -12
 951              		.cfi_offset 6, -8
 952              		.cfi_offset 14, -4
 953 0002 92B0     		sub	sp, sp, #72
 954              	.LCFI10:
 955              		.cfi_def_cfa_offset 88
 956 0004 0646     		mov	r6, r0
 957 0006 0D46     		mov	r5, r1
 958 0008 1446     		mov	r4, r2
 419:lvgl/src/core/lv_obj_style.c ****     lv_anim_init(&a);
 959              		.loc 1 419 5 is_stmt 1 view .LVU278
 420:lvgl/src/core/lv_obj_style.c ****     lv_anim_set_var(&a, obj);
 960              		.loc 1 420 5 view .LVU279
 961 000a 01A8     		add	r0, sp, #4
 962              	.LVL90:
 420:lvgl/src/core/lv_obj_style.c ****     lv_anim_set_var(&a, obj);
 963              		.loc 1 420 5 is_stmt 0 view .LVU280
 964 000c FFF7FEFF 		bl	lv_anim_init
 965              	.LVL91:
 421:lvgl/src/core/lv_obj_style.c ****     lv_anim_set_values(&a, LV_OPA_TRANSP, LV_OPA_COVER);
ARM GAS  C:\Users\BLACK_~1\AppData\Local\Temp\ccbv02In.s 			page 36


 966              		.loc 1 421 5 is_stmt 1 view .LVU281
 967              	.LBB51:
 968              	.LBI51:
 969              		.file 2 "lvgl/src/core/../misc/lv_anim.h"
   1:lvgl/src/core/../misc/lv_anim.h **** /**
   2:lvgl/src/core/../misc/lv_anim.h ****  * @file lv_anim.h
   3:lvgl/src/core/../misc/lv_anim.h ****  *
   4:lvgl/src/core/../misc/lv_anim.h ****  */
   5:lvgl/src/core/../misc/lv_anim.h **** 
   6:lvgl/src/core/../misc/lv_anim.h **** #ifndef LV_ANIM_H
   7:lvgl/src/core/../misc/lv_anim.h **** #define LV_ANIM_H
   8:lvgl/src/core/../misc/lv_anim.h **** 
   9:lvgl/src/core/../misc/lv_anim.h **** #ifdef __cplusplus
  10:lvgl/src/core/../misc/lv_anim.h **** extern "C" {
  11:lvgl/src/core/../misc/lv_anim.h **** #endif
  12:lvgl/src/core/../misc/lv_anim.h **** 
  13:lvgl/src/core/../misc/lv_anim.h **** /*********************
  14:lvgl/src/core/../misc/lv_anim.h ****  *      INCLUDES
  15:lvgl/src/core/../misc/lv_anim.h ****  *********************/
  16:lvgl/src/core/../misc/lv_anim.h **** #include "../lv_conf_internal.h"
  17:lvgl/src/core/../misc/lv_anim.h **** 
  18:lvgl/src/core/../misc/lv_anim.h **** #include <stdint.h>
  19:lvgl/src/core/../misc/lv_anim.h **** #include <stdbool.h>
  20:lvgl/src/core/../misc/lv_anim.h **** #include <string.h>
  21:lvgl/src/core/../misc/lv_anim.h **** 
  22:lvgl/src/core/../misc/lv_anim.h **** /*********************
  23:lvgl/src/core/../misc/lv_anim.h ****  *      DEFINES
  24:lvgl/src/core/../misc/lv_anim.h ****  *********************/
  25:lvgl/src/core/../misc/lv_anim.h **** 
  26:lvgl/src/core/../misc/lv_anim.h **** /**********************
  27:lvgl/src/core/../misc/lv_anim.h ****  *      TYPEDEFS
  28:lvgl/src/core/../misc/lv_anim.h ****  **********************/
  29:lvgl/src/core/../misc/lv_anim.h **** 
  30:lvgl/src/core/../misc/lv_anim.h **** /** Can be used to indicate if animations are enabled or disabled in a case*/
  31:lvgl/src/core/../misc/lv_anim.h **** typedef enum {
  32:lvgl/src/core/../misc/lv_anim.h ****     LV_ANIM_OFF,
  33:lvgl/src/core/../misc/lv_anim.h ****     LV_ANIM_ON,
  34:lvgl/src/core/../misc/lv_anim.h **** }lv_anim_enable_t;
  35:lvgl/src/core/../misc/lv_anim.h **** 
  36:lvgl/src/core/../misc/lv_anim.h **** #define LV_ANIM_REPEAT_INFINITE      0xFFFF
  37:lvgl/src/core/../misc/lv_anim.h **** LV_EXPORT_CONST_INT(LV_ANIM_REPEAT_INFINITE);
  38:lvgl/src/core/../misc/lv_anim.h **** 
  39:lvgl/src/core/../misc/lv_anim.h **** struct _lv_anim_t;
  40:lvgl/src/core/../misc/lv_anim.h **** 
  41:lvgl/src/core/../misc/lv_anim.h **** /** Get the current value during an animation*/
  42:lvgl/src/core/../misc/lv_anim.h **** typedef int32_t (*lv_anim_path_cb_t)(const struct _lv_anim_t *);
  43:lvgl/src/core/../misc/lv_anim.h **** 
  44:lvgl/src/core/../misc/lv_anim.h **** /** Generic prototype of "animator" functions.
  45:lvgl/src/core/../misc/lv_anim.h ****  * First parameter is the variable to animate.
  46:lvgl/src/core/../misc/lv_anim.h ****  * Second parameter is the value to set.
  47:lvgl/src/core/../misc/lv_anim.h ****  * Compatible with `lv_xxx_set_yyy(obj, value)` functions
  48:lvgl/src/core/../misc/lv_anim.h ****  * The `x` in `_xcb_t` means its not a fully generic prototype because
  49:lvgl/src/core/../misc/lv_anim.h ****  * it doesn't receive `lv_anim_t *` as its first argument*/
  50:lvgl/src/core/../misc/lv_anim.h **** typedef void (*lv_anim_exec_xcb_t)(void *, int32_t);
  51:lvgl/src/core/../misc/lv_anim.h **** 
  52:lvgl/src/core/../misc/lv_anim.h **** /** Same as `lv_anim_exec_xcb_t` but receives `lv_anim_t *` as the first parameter.
  53:lvgl/src/core/../misc/lv_anim.h ****  * It's more consistent but less convenient. Might be used by binding generator functions.*/
ARM GAS  C:\Users\BLACK_~1\AppData\Local\Temp\ccbv02In.s 			page 37


  54:lvgl/src/core/../misc/lv_anim.h **** typedef void (*lv_anim_custom_exec_cb_t)(struct _lv_anim_t *, int32_t);
  55:lvgl/src/core/../misc/lv_anim.h **** 
  56:lvgl/src/core/../misc/lv_anim.h **** /** Callback to call when the animation is ready*/
  57:lvgl/src/core/../misc/lv_anim.h **** typedef void (*lv_anim_ready_cb_t)(struct _lv_anim_t *);
  58:lvgl/src/core/../misc/lv_anim.h **** 
  59:lvgl/src/core/../misc/lv_anim.h **** /** Callback to call when the animation really stars (considering `delay`)*/
  60:lvgl/src/core/../misc/lv_anim.h **** typedef void (*lv_anim_start_cb_t)(struct _lv_anim_t *);
  61:lvgl/src/core/../misc/lv_anim.h **** 
  62:lvgl/src/core/../misc/lv_anim.h **** /** Callback used when the animation values are relative to get the current value*/
  63:lvgl/src/core/../misc/lv_anim.h **** typedef int32_t (*lv_anim_get_value_cb_t)(struct _lv_anim_t *);
  64:lvgl/src/core/../misc/lv_anim.h **** 
  65:lvgl/src/core/../misc/lv_anim.h **** /** Describes an animation*/
  66:lvgl/src/core/../misc/lv_anim.h **** typedef struct _lv_anim_t {
  67:lvgl/src/core/../misc/lv_anim.h ****     void * var;                          /**<Variable to animate*/
  68:lvgl/src/core/../misc/lv_anim.h ****     lv_anim_exec_xcb_t exec_cb;          /**< Function to execute to animate*/
  69:lvgl/src/core/../misc/lv_anim.h ****     lv_anim_start_cb_t start_cb;         /**< Call it when the animation is starts (considering `de
  70:lvgl/src/core/../misc/lv_anim.h ****     lv_anim_ready_cb_t ready_cb;         /**< Call it when the animation is ready*/
  71:lvgl/src/core/../misc/lv_anim.h ****     lv_anim_get_value_cb_t get_value_cb; /**< Get the current value in relative mode*/
  72:lvgl/src/core/../misc/lv_anim.h **** #if LV_USE_USER_DATA
  73:lvgl/src/core/../misc/lv_anim.h ****     void * user_data; /**< Custom user data*/
  74:lvgl/src/core/../misc/lv_anim.h **** #endif
  75:lvgl/src/core/../misc/lv_anim.h ****     lv_anim_path_cb_t path_cb;         /**< Describe the path (curve) of animations*/
  76:lvgl/src/core/../misc/lv_anim.h ****     int32_t start_value;               /**< Start value*/
  77:lvgl/src/core/../misc/lv_anim.h ****     int32_t current_value;             /**< Current value*/
  78:lvgl/src/core/../misc/lv_anim.h ****     int32_t end_value;                 /**< End value*/
  79:lvgl/src/core/../misc/lv_anim.h ****     int32_t time;                /**< Animation time in ms*/
  80:lvgl/src/core/../misc/lv_anim.h ****     int32_t act_time;            /**< Current time in animation. Set to negative to make delay.*/
  81:lvgl/src/core/../misc/lv_anim.h ****     uint32_t playback_delay;     /**< Wait before play back*/
  82:lvgl/src/core/../misc/lv_anim.h ****     uint32_t playback_time;      /**< Duration of playback animation*/
  83:lvgl/src/core/../misc/lv_anim.h ****     uint32_t repeat_delay;       /**< Wait before repeat*/
  84:lvgl/src/core/../misc/lv_anim.h ****     uint16_t repeat_cnt;         /**< Repeat count for the animation*/
  85:lvgl/src/core/../misc/lv_anim.h ****     uint8_t early_apply  : 1;    /**< 1: Apply start value immediately even is there is `delay`*/
  86:lvgl/src/core/../misc/lv_anim.h **** 
  87:lvgl/src/core/../misc/lv_anim.h ****     /*Animation system use these - user shouldn't set*/
  88:lvgl/src/core/../misc/lv_anim.h ****     uint8_t playback_now : 1; /**< Play back is in progress*/
  89:lvgl/src/core/../misc/lv_anim.h ****     uint8_t run_round : 1;    /**< Indicates the animation has run in this round*/
  90:lvgl/src/core/../misc/lv_anim.h ****     uint8_t start_cb_called : 1;    /**< Indicates that the `start_cb` was already called*/
  91:lvgl/src/core/../misc/lv_anim.h ****     uint32_t time_orig;
  92:lvgl/src/core/../misc/lv_anim.h **** } lv_anim_t;
  93:lvgl/src/core/../misc/lv_anim.h **** 
  94:lvgl/src/core/../misc/lv_anim.h **** /**********************
  95:lvgl/src/core/../misc/lv_anim.h ****  * GLOBAL PROTOTYPES
  96:lvgl/src/core/../misc/lv_anim.h ****  **********************/
  97:lvgl/src/core/../misc/lv_anim.h **** 
  98:lvgl/src/core/../misc/lv_anim.h **** /**
  99:lvgl/src/core/../misc/lv_anim.h ****  * Init. the animation module
 100:lvgl/src/core/../misc/lv_anim.h ****  */
 101:lvgl/src/core/../misc/lv_anim.h **** void _lv_anim_core_init(void);
 102:lvgl/src/core/../misc/lv_anim.h **** 
 103:lvgl/src/core/../misc/lv_anim.h **** /**
 104:lvgl/src/core/../misc/lv_anim.h ****  * Initialize an animation variable.
 105:lvgl/src/core/../misc/lv_anim.h ****  * E.g.:
 106:lvgl/src/core/../misc/lv_anim.h ****  * lv_anim_t a;
 107:lvgl/src/core/../misc/lv_anim.h ****  * lv_anim_init(&a);
 108:lvgl/src/core/../misc/lv_anim.h ****  * lv_anim_set_...(&a);
 109:lvgl/src/core/../misc/lv_anim.h ****  * lv_anim_start(&a);
 110:lvgl/src/core/../misc/lv_anim.h ****  * @param a     pointer to an `lv_anim_t` variable to initialize
ARM GAS  C:\Users\BLACK_~1\AppData\Local\Temp\ccbv02In.s 			page 38


 111:lvgl/src/core/../misc/lv_anim.h ****  */
 112:lvgl/src/core/../misc/lv_anim.h **** void lv_anim_init(lv_anim_t * a);
 113:lvgl/src/core/../misc/lv_anim.h **** 
 114:lvgl/src/core/../misc/lv_anim.h **** /**
 115:lvgl/src/core/../misc/lv_anim.h ****  * Set a variable to animate
 116:lvgl/src/core/../misc/lv_anim.h ****  * @param a     pointer to an initialized `lv_anim_t` variable
 117:lvgl/src/core/../misc/lv_anim.h ****  * @param var   pointer to a variable to animate
 118:lvgl/src/core/../misc/lv_anim.h ****  */
 119:lvgl/src/core/../misc/lv_anim.h **** static inline void lv_anim_set_var(lv_anim_t * a, void * var)
 970              		.loc 2 119 20 view .LVU282
 971              	.LBB52:
 120:lvgl/src/core/../misc/lv_anim.h **** {
 121:lvgl/src/core/../misc/lv_anim.h ****     a->var = var;
 972              		.loc 2 121 5 view .LVU283
 973              		.loc 2 121 12 is_stmt 0 view .LVU284
 974 0010 0196     		str	r6, [sp, #4]
 975              	.LVL92:
 976              		.loc 2 121 12 view .LVU285
 977              	.LBE52:
 978              	.LBE51:
 422:lvgl/src/core/lv_obj_style.c ****     lv_anim_set_exec_cb(&a, fade_anim_cb);
 979              		.loc 1 422 5 is_stmt 1 view .LVU286
 980              	.LBB53:
 981              	.LBI53:
 122:lvgl/src/core/../misc/lv_anim.h **** }
 123:lvgl/src/core/../misc/lv_anim.h **** 
 124:lvgl/src/core/../misc/lv_anim.h **** /**
 125:lvgl/src/core/../misc/lv_anim.h ****  * Set a function to animate `var`
 126:lvgl/src/core/../misc/lv_anim.h ****  * @param a         pointer to an initialized `lv_anim_t` variable
 127:lvgl/src/core/../misc/lv_anim.h ****  * @param exec_cb   a function to execute during animation
 128:lvgl/src/core/../misc/lv_anim.h ****  *                  LVGL's built-in functions can be used.
 129:lvgl/src/core/../misc/lv_anim.h ****  *                  E.g. lv_obj_set_x
 130:lvgl/src/core/../misc/lv_anim.h ****  */
 131:lvgl/src/core/../misc/lv_anim.h **** static inline void lv_anim_set_exec_cb(lv_anim_t * a, lv_anim_exec_xcb_t exec_cb)
 132:lvgl/src/core/../misc/lv_anim.h **** {
 133:lvgl/src/core/../misc/lv_anim.h ****     a->exec_cb = exec_cb;
 134:lvgl/src/core/../misc/lv_anim.h **** }
 135:lvgl/src/core/../misc/lv_anim.h **** 
 136:lvgl/src/core/../misc/lv_anim.h **** /**
 137:lvgl/src/core/../misc/lv_anim.h ****  * Set the duration of an animation
 138:lvgl/src/core/../misc/lv_anim.h ****  * @param a         pointer to an initialized `lv_anim_t` variable
 139:lvgl/src/core/../misc/lv_anim.h ****  * @param duration  duration of the animation in milliseconds
 140:lvgl/src/core/../misc/lv_anim.h ****  */
 141:lvgl/src/core/../misc/lv_anim.h **** static inline void lv_anim_set_time(lv_anim_t * a, uint32_t duration)
 142:lvgl/src/core/../misc/lv_anim.h **** {
 143:lvgl/src/core/../misc/lv_anim.h ****     a->time = duration;
 144:lvgl/src/core/../misc/lv_anim.h **** }
 145:lvgl/src/core/../misc/lv_anim.h **** 
 146:lvgl/src/core/../misc/lv_anim.h **** /**
 147:lvgl/src/core/../misc/lv_anim.h ****  * Set a delay before starting the animation
 148:lvgl/src/core/../misc/lv_anim.h ****  * @param a         pointer to an initialized `lv_anim_t` variable
 149:lvgl/src/core/../misc/lv_anim.h ****  * @param delay     delay before the animation in milliseconds
 150:lvgl/src/core/../misc/lv_anim.h ****  */
 151:lvgl/src/core/../misc/lv_anim.h **** static inline void lv_anim_set_delay(lv_anim_t * a, uint32_t delay)
 152:lvgl/src/core/../misc/lv_anim.h **** {
 153:lvgl/src/core/../misc/lv_anim.h ****     a->act_time = -(int32_t)(delay);
 154:lvgl/src/core/../misc/lv_anim.h **** }
ARM GAS  C:\Users\BLACK_~1\AppData\Local\Temp\ccbv02In.s 			page 39


 155:lvgl/src/core/../misc/lv_anim.h **** 
 156:lvgl/src/core/../misc/lv_anim.h **** /**
 157:lvgl/src/core/../misc/lv_anim.h ****  * Set the start and end values of an animation
 158:lvgl/src/core/../misc/lv_anim.h ****  * @param a         pointer to an initialized `lv_anim_t` variable
 159:lvgl/src/core/../misc/lv_anim.h ****  * @param start     the start value
 160:lvgl/src/core/../misc/lv_anim.h ****  * @param end       the end value
 161:lvgl/src/core/../misc/lv_anim.h ****  */
 162:lvgl/src/core/../misc/lv_anim.h **** static inline void lv_anim_set_values(lv_anim_t * a, int32_t start, int32_t end)
 982              		.loc 2 162 20 view .LVU287
 983              	.LBB54:
 163:lvgl/src/core/../misc/lv_anim.h **** {
 164:lvgl/src/core/../misc/lv_anim.h ****     a->start_value = start;
 984              		.loc 2 164 5 view .LVU288
 985              		.loc 2 164 20 is_stmt 0 view .LVU289
 986 0012 0023     		movs	r3, #0
 987 0014 0893     		str	r3, [sp, #32]
 165:lvgl/src/core/../misc/lv_anim.h ****     a->current_value = start;
 988              		.loc 2 165 5 is_stmt 1 view .LVU290
 989              		.loc 2 165 22 is_stmt 0 view .LVU291
 990 0016 0993     		str	r3, [sp, #36]
 166:lvgl/src/core/../misc/lv_anim.h ****     a->end_value = end;
 991              		.loc 2 166 5 is_stmt 1 view .LVU292
 992              		.loc 2 166 18 is_stmt 0 view .LVU293
 993 0018 FF23     		movs	r3, #255
 994 001a 0A93     		str	r3, [sp, #40]
 995              	.LVL93:
 996              		.loc 2 166 18 view .LVU294
 997              	.LBE54:
 998              	.LBE53:
 423:lvgl/src/core/lv_obj_style.c ****     lv_anim_set_ready_cb(&a, fade_in_anim_ready);
 999              		.loc 1 423 5 is_stmt 1 view .LVU295
 1000              	.LBB55:
 1001              	.LBI55:
 131:lvgl/src/core/../misc/lv_anim.h **** {
 1002              		.loc 2 131 20 view .LVU296
 1003              	.LBB56:
 133:lvgl/src/core/../misc/lv_anim.h **** }
 1004              		.loc 2 133 5 view .LVU297
 133:lvgl/src/core/../misc/lv_anim.h **** }
 1005              		.loc 2 133 16 is_stmt 0 view .LVU298
 1006 001c 054B     		ldr	r3, .L72
 1007 001e 0293     		str	r3, [sp, #8]
 1008              	.LVL94:
 133:lvgl/src/core/../misc/lv_anim.h **** }
 1009              		.loc 2 133 16 view .LVU299
 1010              	.LBE56:
 1011              	.LBE55:
 424:lvgl/src/core/lv_obj_style.c ****     lv_anim_set_time(&a, time);
 1012              		.loc 1 424 5 is_stmt 1 view .LVU300
 1013              	.LBB57:
 1014              	.LBI57:
 167:lvgl/src/core/../misc/lv_anim.h **** }
 168:lvgl/src/core/../misc/lv_anim.h **** 
 169:lvgl/src/core/../misc/lv_anim.h **** /**
 170:lvgl/src/core/../misc/lv_anim.h ****  * Similar to `lv_anim_set_exec_cb` but `lv_anim_custom_exec_cb_t` receives
 171:lvgl/src/core/../misc/lv_anim.h ****  * `lv_anim_t * ` as its first parameter instead of `void *`.
 172:lvgl/src/core/../misc/lv_anim.h ****  * This function might be used when LVGL is binded to other languages because
ARM GAS  C:\Users\BLACK_~1\AppData\Local\Temp\ccbv02In.s 			page 40


 173:lvgl/src/core/../misc/lv_anim.h ****  * it's more consistent to have `lv_anim_t *` as first parameter.
 174:lvgl/src/core/../misc/lv_anim.h ****  * The variable to animate can be stored in the animation's `user_sata`
 175:lvgl/src/core/../misc/lv_anim.h ****  * @param a         pointer to an initialized `lv_anim_t` variable
 176:lvgl/src/core/../misc/lv_anim.h ****  * @param exec_cb   a function to execute.
 177:lvgl/src/core/../misc/lv_anim.h ****  */
 178:lvgl/src/core/../misc/lv_anim.h **** static inline void lv_anim_set_custom_exec_cb(lv_anim_t * a, lv_anim_custom_exec_cb_t exec_cb)
 179:lvgl/src/core/../misc/lv_anim.h **** {
 180:lvgl/src/core/../misc/lv_anim.h ****     a->var     = a;
 181:lvgl/src/core/../misc/lv_anim.h ****     a->exec_cb = (lv_anim_exec_xcb_t)exec_cb;
 182:lvgl/src/core/../misc/lv_anim.h **** }
 183:lvgl/src/core/../misc/lv_anim.h **** 
 184:lvgl/src/core/../misc/lv_anim.h **** /**
 185:lvgl/src/core/../misc/lv_anim.h ****  * Set the path (curve) of the animation.
 186:lvgl/src/core/../misc/lv_anim.h ****  * @param a         pointer to an initialized `lv_anim_t` variable
 187:lvgl/src/core/../misc/lv_anim.h ****  * @param path_cb a function the get the current value of the animation.
 188:lvgl/src/core/../misc/lv_anim.h ****  */
 189:lvgl/src/core/../misc/lv_anim.h **** static inline void lv_anim_set_path_cb(lv_anim_t * a, lv_anim_path_cb_t path_cb)
 190:lvgl/src/core/../misc/lv_anim.h **** {
 191:lvgl/src/core/../misc/lv_anim.h ****     a->path_cb = path_cb;
 192:lvgl/src/core/../misc/lv_anim.h **** }
 193:lvgl/src/core/../misc/lv_anim.h **** 
 194:lvgl/src/core/../misc/lv_anim.h **** /**
 195:lvgl/src/core/../misc/lv_anim.h ****  * Set a function call when the animation really starts (considering `delay`)
 196:lvgl/src/core/../misc/lv_anim.h ****  * @param a         pointer to an initialized `lv_anim_t` variable
 197:lvgl/src/core/../misc/lv_anim.h ****  * @param start_cb  a function call when the animation starts
 198:lvgl/src/core/../misc/lv_anim.h ****  */
 199:lvgl/src/core/../misc/lv_anim.h **** static inline void lv_anim_set_start_cb(lv_anim_t * a, lv_anim_ready_cb_t start_cb)
 200:lvgl/src/core/../misc/lv_anim.h **** {
 201:lvgl/src/core/../misc/lv_anim.h ****     a->start_cb = start_cb;
 202:lvgl/src/core/../misc/lv_anim.h **** }
 203:lvgl/src/core/../misc/lv_anim.h **** 
 204:lvgl/src/core/../misc/lv_anim.h **** /**
 205:lvgl/src/core/../misc/lv_anim.h ****  * Set a function to use the current value of the variable and make start and end value
 206:lvgl/src/core/../misc/lv_anim.h ****  * relative the the returned current value.
 207:lvgl/src/core/../misc/lv_anim.h ****  * @param a             pointer to an initialized `lv_anim_t` variable
 208:lvgl/src/core/../misc/lv_anim.h ****  * @param get_value_cb  a function call when the animation starts
 209:lvgl/src/core/../misc/lv_anim.h ****  */
 210:lvgl/src/core/../misc/lv_anim.h **** static inline void lv_anim_set_get_value_cb(lv_anim_t * a, lv_anim_get_value_cb_t get_value_cb)
 211:lvgl/src/core/../misc/lv_anim.h **** {
 212:lvgl/src/core/../misc/lv_anim.h ****     a->get_value_cb = get_value_cb;
 213:lvgl/src/core/../misc/lv_anim.h **** }
 214:lvgl/src/core/../misc/lv_anim.h **** 
 215:lvgl/src/core/../misc/lv_anim.h **** /**
 216:lvgl/src/core/../misc/lv_anim.h ****  * Set a function call when the animation is ready
 217:lvgl/src/core/../misc/lv_anim.h ****  * @param a         pointer to an initialized `lv_anim_t` variable
 218:lvgl/src/core/../misc/lv_anim.h ****  * @param ready_cb  a function call when the animation is ready
 219:lvgl/src/core/../misc/lv_anim.h ****  */
 220:lvgl/src/core/../misc/lv_anim.h **** static inline void lv_anim_set_ready_cb(lv_anim_t * a, lv_anim_ready_cb_t ready_cb)
 1015              		.loc 2 220 20 view .LVU301
 1016              	.LBB58:
 221:lvgl/src/core/../misc/lv_anim.h **** {
 222:lvgl/src/core/../misc/lv_anim.h ****     a->ready_cb = ready_cb;
 1017              		.loc 2 222 5 view .LVU302
 1018              		.loc 2 222 17 is_stmt 0 view .LVU303
 1019 0020 054B     		ldr	r3, .L72+4
 1020 0022 0493     		str	r3, [sp, #16]
 1021              	.LVL95:
ARM GAS  C:\Users\BLACK_~1\AppData\Local\Temp\ccbv02In.s 			page 41


 1022              		.loc 2 222 17 view .LVU304
 1023              	.LBE58:
 1024              	.LBE57:
 425:lvgl/src/core/lv_obj_style.c ****     lv_anim_set_delay(&a, delay);
 1025              		.loc 1 425 5 is_stmt 1 view .LVU305
 1026              	.LBB59:
 1027              	.LBI59:
 141:lvgl/src/core/../misc/lv_anim.h **** {
 1028              		.loc 2 141 20 view .LVU306
 1029              	.LBB60:
 143:lvgl/src/core/../misc/lv_anim.h **** }
 1030              		.loc 2 143 5 view .LVU307
 143:lvgl/src/core/../misc/lv_anim.h **** }
 1031              		.loc 2 143 13 is_stmt 0 view .LVU308
 1032 0024 0B95     		str	r5, [sp, #44]
 1033              	.LVL96:
 143:lvgl/src/core/../misc/lv_anim.h **** }
 1034              		.loc 2 143 13 view .LVU309
 1035              	.LBE60:
 1036              	.LBE59:
 426:lvgl/src/core/lv_obj_style.c ****     lv_anim_start(&a);
 1037              		.loc 1 426 5 is_stmt 1 view .LVU310
 1038              	.LBB61:
 1039              	.LBI61:
 151:lvgl/src/core/../misc/lv_anim.h **** {
 1040              		.loc 2 151 20 view .LVU311
 1041              	.LBB62:
 153:lvgl/src/core/../misc/lv_anim.h **** }
 1042              		.loc 2 153 5 view .LVU312
 153:lvgl/src/core/../misc/lv_anim.h **** }
 1043              		.loc 2 153 19 is_stmt 0 view .LVU313
 1044 0026 6442     		rsbs	r4, r4, #0
 1045              	.LVL97:
 153:lvgl/src/core/../misc/lv_anim.h **** }
 1046              		.loc 2 153 17 view .LVU314
 1047 0028 0C94     		str	r4, [sp, #48]
 1048              	.LVL98:
 153:lvgl/src/core/../misc/lv_anim.h **** }
 1049              		.loc 2 153 17 view .LVU315
 1050              	.LBE62:
 1051              	.LBE61:
 427:lvgl/src/core/lv_obj_style.c **** }
 1052              		.loc 1 427 5 is_stmt 1 view .LVU316
 1053 002a 01A8     		add	r0, sp, #4
 1054 002c FFF7FEFF 		bl	lv_anim_start
 1055              	.LVL99:
 428:lvgl/src/core/lv_obj_style.c **** 
 1056              		.loc 1 428 1 is_stmt 0 view .LVU317
 1057 0030 12B0     		add	sp, sp, #72
 1058              	.LCFI11:
 1059              		.cfi_def_cfa_offset 16
 1060              		@ sp needed
 1061 0032 70BD     		pop	{r4, r5, r6, pc}
 1062              	.LVL100:
 1063              	.L73:
 428:lvgl/src/core/lv_obj_style.c **** 
 1064              		.loc 1 428 1 view .LVU318
ARM GAS  C:\Users\BLACK_~1\AppData\Local\Temp\ccbv02In.s 			page 42


 1065              		.align	2
 1066              	.L72:
 1067 0034 00000000 		.word	fade_anim_cb
 1068 0038 00000000 		.word	fade_in_anim_ready
 1069              		.cfi_endproc
 1070              	.LFE165:
 1072              		.section	.text.lv_obj_fade_out,"ax",%progbits
 1073              		.align	1
 1074              		.global	lv_obj_fade_out
 1075              		.syntax unified
 1076              		.thumb
 1077              		.thumb_func
 1079              	lv_obj_fade_out:
 1080              	.LVL101:
 1081              	.LFB166:
 431:lvgl/src/core/lv_obj_style.c ****     lv_anim_t a;
 1082              		.loc 1 431 1 is_stmt 1 view -0
 1083              		.cfi_startproc
 1084              		@ args = 0, pretend = 0, frame = 72
 1085              		@ frame_needed = 0, uses_anonymous_args = 0
 431:lvgl/src/core/lv_obj_style.c ****     lv_anim_t a;
 1086              		.loc 1 431 1 is_stmt 0 view .LVU320
 1087 0000 70B5     		push	{r4, r5, r6, lr}
 1088              	.LCFI12:
 1089              		.cfi_def_cfa_offset 16
 1090              		.cfi_offset 4, -16
 1091              		.cfi_offset 5, -12
 1092              		.cfi_offset 6, -8
 1093              		.cfi_offset 14, -4
 1094 0002 92B0     		sub	sp, sp, #72
 1095              	.LCFI13:
 1096              		.cfi_def_cfa_offset 88
 1097 0004 0646     		mov	r6, r0
 1098 0006 0D46     		mov	r5, r1
 1099 0008 1446     		mov	r4, r2
 432:lvgl/src/core/lv_obj_style.c ****     lv_anim_init(&a);
 1100              		.loc 1 432 5 is_stmt 1 view .LVU321
 433:lvgl/src/core/lv_obj_style.c ****     lv_anim_set_var(&a, obj);
 1101              		.loc 1 433 5 view .LVU322
 1102 000a 01A8     		add	r0, sp, #4
 1103              	.LVL102:
 433:lvgl/src/core/lv_obj_style.c ****     lv_anim_set_var(&a, obj);
 1104              		.loc 1 433 5 is_stmt 0 view .LVU323
 1105 000c FFF7FEFF 		bl	lv_anim_init
 1106              	.LVL103:
 434:lvgl/src/core/lv_obj_style.c ****     lv_anim_set_values(&a, LV_OPA_COVER, LV_OPA_TRANSP);
 1107              		.loc 1 434 5 is_stmt 1 view .LVU324
 1108              	.LBB63:
 1109              	.LBI63:
 119:lvgl/src/core/../misc/lv_anim.h **** {
 1110              		.loc 2 119 20 view .LVU325
 1111              	.LBB64:
 121:lvgl/src/core/../misc/lv_anim.h **** }
 1112              		.loc 2 121 5 view .LVU326
 121:lvgl/src/core/../misc/lv_anim.h **** }
 1113              		.loc 2 121 12 is_stmt 0 view .LVU327
 1114 0010 0196     		str	r6, [sp, #4]
ARM GAS  C:\Users\BLACK_~1\AppData\Local\Temp\ccbv02In.s 			page 43


 1115              	.LVL104:
 121:lvgl/src/core/../misc/lv_anim.h **** }
 1116              		.loc 2 121 12 view .LVU328
 1117              	.LBE64:
 1118              	.LBE63:
 435:lvgl/src/core/lv_obj_style.c ****     lv_anim_set_exec_cb(&a, fade_anim_cb);
 1119              		.loc 1 435 5 is_stmt 1 view .LVU329
 1120              	.LBB65:
 1121              	.LBI65:
 162:lvgl/src/core/../misc/lv_anim.h **** {
 1122              		.loc 2 162 20 view .LVU330
 1123              	.LBB66:
 164:lvgl/src/core/../misc/lv_anim.h ****     a->current_value = start;
 1124              		.loc 2 164 5 view .LVU331
 164:lvgl/src/core/../misc/lv_anim.h ****     a->current_value = start;
 1125              		.loc 2 164 20 is_stmt 0 view .LVU332
 1126 0012 FF23     		movs	r3, #255
 1127 0014 0893     		str	r3, [sp, #32]
 165:lvgl/src/core/../misc/lv_anim.h ****     a->end_value = end;
 1128              		.loc 2 165 5 is_stmt 1 view .LVU333
 165:lvgl/src/core/../misc/lv_anim.h ****     a->end_value = end;
 1129              		.loc 2 165 22 is_stmt 0 view .LVU334
 1130 0016 0993     		str	r3, [sp, #36]
 166:lvgl/src/core/../misc/lv_anim.h **** }
 1131              		.loc 2 166 5 is_stmt 1 view .LVU335
 166:lvgl/src/core/../misc/lv_anim.h **** }
 1132              		.loc 2 166 18 is_stmt 0 view .LVU336
 1133 0018 0023     		movs	r3, #0
 1134 001a 0A93     		str	r3, [sp, #40]
 1135              	.LVL105:
 166:lvgl/src/core/../misc/lv_anim.h **** }
 1136              		.loc 2 166 18 view .LVU337
 1137              	.LBE66:
 1138              	.LBE65:
 436:lvgl/src/core/lv_obj_style.c ****     lv_anim_set_time(&a, time);
 1139              		.loc 1 436 5 is_stmt 1 view .LVU338
 1140              	.LBB67:
 1141              	.LBI67:
 131:lvgl/src/core/../misc/lv_anim.h **** {
 1142              		.loc 2 131 20 view .LVU339
 1143              	.LBB68:
 133:lvgl/src/core/../misc/lv_anim.h **** }
 1144              		.loc 2 133 5 view .LVU340
 133:lvgl/src/core/../misc/lv_anim.h **** }
 1145              		.loc 2 133 16 is_stmt 0 view .LVU341
 1146 001c 044B     		ldr	r3, .L76
 1147 001e 0293     		str	r3, [sp, #8]
 1148              	.LVL106:
 133:lvgl/src/core/../misc/lv_anim.h **** }
 1149              		.loc 2 133 16 view .LVU342
 1150              	.LBE68:
 1151              	.LBE67:
 437:lvgl/src/core/lv_obj_style.c ****     lv_anim_set_delay(&a, delay);
 1152              		.loc 1 437 5 is_stmt 1 view .LVU343
 1153              	.LBB69:
 1154              	.LBI69:
 141:lvgl/src/core/../misc/lv_anim.h **** {
ARM GAS  C:\Users\BLACK_~1\AppData\Local\Temp\ccbv02In.s 			page 44


 1155              		.loc 2 141 20 view .LVU344
 1156              	.LBB70:
 143:lvgl/src/core/../misc/lv_anim.h **** }
 1157              		.loc 2 143 5 view .LVU345
 143:lvgl/src/core/../misc/lv_anim.h **** }
 1158              		.loc 2 143 13 is_stmt 0 view .LVU346
 1159 0020 0B95     		str	r5, [sp, #44]
 1160              	.LVL107:
 143:lvgl/src/core/../misc/lv_anim.h **** }
 1161              		.loc 2 143 13 view .LVU347
 1162              	.LBE70:
 1163              	.LBE69:
 438:lvgl/src/core/lv_obj_style.c ****     lv_anim_start(&a);
 1164              		.loc 1 438 5 is_stmt 1 view .LVU348
 1165              	.LBB71:
 1166              	.LBI71:
 151:lvgl/src/core/../misc/lv_anim.h **** {
 1167              		.loc 2 151 20 view .LVU349
 1168              	.LBB72:
 153:lvgl/src/core/../misc/lv_anim.h **** }
 1169              		.loc 2 153 5 view .LVU350
 153:lvgl/src/core/../misc/lv_anim.h **** }
 1170              		.loc 2 153 19 is_stmt 0 view .LVU351
 1171 0022 6442     		rsbs	r4, r4, #0
 1172              	.LVL108:
 153:lvgl/src/core/../misc/lv_anim.h **** }
 1173              		.loc 2 153 17 view .LVU352
 1174 0024 0C94     		str	r4, [sp, #48]
 1175              	.LVL109:
 153:lvgl/src/core/../misc/lv_anim.h **** }
 1176              		.loc 2 153 17 view .LVU353
 1177              	.LBE72:
 1178              	.LBE71:
 439:lvgl/src/core/lv_obj_style.c **** }
 1179              		.loc 1 439 5 is_stmt 1 view .LVU354
 1180 0026 01A8     		add	r0, sp, #4
 1181 0028 FFF7FEFF 		bl	lv_anim_start
 1182              	.LVL110:
 440:lvgl/src/core/lv_obj_style.c **** 
 1183              		.loc 1 440 1 is_stmt 0 view .LVU355
 1184 002c 12B0     		add	sp, sp, #72
 1185              	.LCFI14:
 1186              		.cfi_def_cfa_offset 16
 1187              		@ sp needed
 1188 002e 70BD     		pop	{r4, r5, r6, pc}
 1189              	.LVL111:
 1190              	.L77:
 440:lvgl/src/core/lv_obj_style.c **** 
 1191              		.loc 1 440 1 view .LVU356
 1192              		.align	2
 1193              	.L76:
 1194 0030 00000000 		.word	fade_anim_cb
 1195              		.cfi_endproc
 1196              	.LFE166:
 1198              		.section	.text.lv_obj_style_get_selector_state,"ax",%progbits
 1199              		.align	1
 1200              		.global	lv_obj_style_get_selector_state
ARM GAS  C:\Users\BLACK_~1\AppData\Local\Temp\ccbv02In.s 			page 45


 1201              		.syntax unified
 1202              		.thumb
 1203              		.thumb_func
 1205              	lv_obj_style_get_selector_state:
 1206              	.LVL112:
 1207              	.LFB167:
 443:lvgl/src/core/lv_obj_style.c ****     return selector & 0xFFFF;
 1208              		.loc 1 443 1 is_stmt 1 view -0
 1209              		.cfi_startproc
 1210              		@ args = 0, pretend = 0, frame = 0
 1211              		@ frame_needed = 0, uses_anonymous_args = 0
 1212              		@ link register save eliminated.
 444:lvgl/src/core/lv_obj_style.c **** }
 1213              		.loc 1 444 5 view .LVU358
 445:lvgl/src/core/lv_obj_style.c **** 
 1214              		.loc 1 445 1 is_stmt 0 view .LVU359
 1215 0000 80B2     		uxth	r0, r0
 1216              	.LVL113:
 445:lvgl/src/core/lv_obj_style.c **** 
 1217              		.loc 1 445 1 view .LVU360
 1218 0002 7047     		bx	lr
 1219              		.cfi_endproc
 1220              	.LFE167:
 1222              		.section	.text.lv_obj_style_get_selector_part,"ax",%progbits
 1223              		.align	1
 1224              		.global	lv_obj_style_get_selector_part
 1225              		.syntax unified
 1226              		.thumb
 1227              		.thumb_func
 1229              	lv_obj_style_get_selector_part:
 1230              	.LVL114:
 1231              	.LFB168:
 448:lvgl/src/core/lv_obj_style.c ****     return selector & 0xFF0000;
 1232              		.loc 1 448 1 is_stmt 1 view -0
 1233              		.cfi_startproc
 1234              		@ args = 0, pretend = 0, frame = 0
 1235              		@ frame_needed = 0, uses_anonymous_args = 0
 1236              		@ link register save eliminated.
 449:lvgl/src/core/lv_obj_style.c **** }
 1237              		.loc 1 449 5 view .LVU362
 450:lvgl/src/core/lv_obj_style.c **** 
 1238              		.loc 1 450 1 is_stmt 0 view .LVU363
 1239 0000 00F47F00 		and	r0, r0, #16711680
 1240              	.LVL115:
 450:lvgl/src/core/lv_obj_style.c **** 
 1241              		.loc 1 450 1 view .LVU364
 1242 0004 7047     		bx	lr
 1243              		.cfi_endproc
 1244              	.LFE168:
 1246              		.section	.text.lv_obj_refresh_style,"ax",%progbits
 1247              		.align	1
 1248              		.global	lv_obj_refresh_style
 1249              		.syntax unified
 1250              		.thumb
 1251              		.thumb_func
 1253              	lv_obj_refresh_style:
 1254              	.LVL116:
ARM GAS  C:\Users\BLACK_~1\AppData\Local\Temp\ccbv02In.s 			page 46


 1255              	.LFB157:
 169:lvgl/src/core/lv_obj_style.c ****     LV_ASSERT_OBJ(obj, MY_CLASS);
 1256              		.loc 1 169 1 is_stmt 1 view -0
 1257              		.cfi_startproc
 1258              		@ args = 0, pretend = 0, frame = 0
 1259              		@ frame_needed = 0, uses_anonymous_args = 0
 170:lvgl/src/core/lv_obj_style.c **** 
 1260              		.loc 1 170 5 view .LVU366
 170:lvgl/src/core/lv_obj_style.c **** 
 1261              		.loc 1 170 5 view .LVU367
 170:lvgl/src/core/lv_obj_style.c **** 
 1262              		.loc 1 170 5 view .LVU368
 172:lvgl/src/core/lv_obj_style.c **** 
 1263              		.loc 1 172 5 view .LVU369
 172:lvgl/src/core/lv_obj_style.c **** 
 1264              		.loc 1 172 8 is_stmt 0 view .LVU370
 1265 0000 284B     		ldr	r3, .L97
 1266 0002 1B78     		ldrb	r3, [r3]	@ zero_extendqisi2
 172:lvgl/src/core/lv_obj_style.c **** 
 1267              		.loc 1 172 7 view .LVU371
 1268 0004 03B9     		cbnz	r3, .L95
 1269 0006 7047     		bx	lr
 1270              	.L95:
 169:lvgl/src/core/lv_obj_style.c ****     LV_ASSERT_OBJ(obj, MY_CLASS);
 1271              		.loc 1 169 1 view .LVU372
 1272 0008 70B5     		push	{r4, r5, r6, lr}
 1273              	.LCFI15:
 1274              		.cfi_def_cfa_offset 16
 1275              		.cfi_offset 4, -16
 1276              		.cfi_offset 5, -12
 1277              		.cfi_offset 6, -8
 1278              		.cfi_offset 14, -4
 1279 000a 0646     		mov	r6, r0
 1280 000c 0D46     		mov	r5, r1
 1281 000e 1446     		mov	r4, r2
 174:lvgl/src/core/lv_obj_style.c **** 
 1282              		.loc 1 174 5 is_stmt 1 view .LVU373
 1283 0010 FFF7FEFF 		bl	lv_obj_invalidate
 1284              	.LVL117:
 176:lvgl/src/core/lv_obj_style.c **** 
 1285              		.loc 1 176 5 view .LVU374
 176:lvgl/src/core/lv_obj_style.c **** 
 1286              		.loc 1 176 22 is_stmt 0 view .LVU375
 1287 0014 2846     		mov	r0, r5
 1288 0016 FFF7FEFF 		bl	lv_obj_style_get_selector_part
 1289              	.LVL118:
 1290 001a 0546     		mov	r5, r0
 1291              	.LVL119:
 178:lvgl/src/core/lv_obj_style.c ****         lv_event_send(obj, LV_EVENT_STYLE_CHANGED, NULL);
 1292              		.loc 1 178 5 is_stmt 1 view .LVU376
 178:lvgl/src/core/lv_obj_style.c ****         lv_event_send(obj, LV_EVENT_STYLE_CHANGED, NULL);
 1293              		.loc 1 178 7 is_stmt 0 view .LVU377
 1294 001c B0F5702F 		cmp	r0, #983040
 1295 0020 00D0     		beq	.L82
 178:lvgl/src/core/lv_obj_style.c ****         lv_event_send(obj, LV_EVENT_STYLE_CHANGED, NULL);
 1296              		.loc 1 178 29 discriminator 2 view .LVU378
 1297 0022 70B9     		cbnz	r0, .L83
ARM GAS  C:\Users\BLACK_~1\AppData\Local\Temp\ccbv02In.s 			page 47


 1298              	.L82:
 178:lvgl/src/core/lv_obj_style.c ****         lv_event_send(obj, LV_EVENT_STYLE_CHANGED, NULL);
 1299              		.loc 1 178 54 discriminator 3 view .LVU379
 1300 0024 4FF6FF73 		movw	r3, #65535
 1301 0028 9C42     		cmp	r4, r3
 1302 002a 02D0     		beq	.L84
 178:lvgl/src/core/lv_obj_style.c ****         lv_event_send(obj, LV_EVENT_STYLE_CHANGED, NULL);
 1303              		.loc 1 178 84 discriminator 4 view .LVU380
 1304 002c 14F4805F 		tst	r4, #4096
 1305 0030 07D0     		beq	.L83
 1306              	.L84:
 179:lvgl/src/core/lv_obj_style.c ****         lv_obj_mark_layout_as_dirty(obj);
 1307              		.loc 1 179 9 is_stmt 1 view .LVU381
 1308 0032 0022     		movs	r2, #0
 1309 0034 2421     		movs	r1, #36
 1310 0036 3046     		mov	r0, r6
 1311              	.LVL120:
 179:lvgl/src/core/lv_obj_style.c ****         lv_obj_mark_layout_as_dirty(obj);
 1312              		.loc 1 179 9 is_stmt 0 view .LVU382
 1313 0038 FFF7FEFF 		bl	lv_event_send
 1314              	.LVL121:
 180:lvgl/src/core/lv_obj_style.c ****     }
 1315              		.loc 1 180 9 is_stmt 1 view .LVU383
 1316 003c 3046     		mov	r0, r6
 1317 003e FFF7FEFF 		bl	lv_obj_mark_layout_as_dirty
 1318              	.LVL122:
 1319              	.L83:
 182:lvgl/src/core/lv_obj_style.c ****         lv_obj_t * parent = lv_obj_get_parent(obj);
 1320              		.loc 1 182 5 view .LVU384
 182:lvgl/src/core/lv_obj_style.c ****         lv_obj_t * parent = lv_obj_get_parent(obj);
 1321              		.loc 1 182 7 is_stmt 0 view .LVU385
 1322 0042 B5F5702F 		cmp	r5, #983040
 1323 0046 00D0     		beq	.L85
 182:lvgl/src/core/lv_obj_style.c ****         lv_obj_t * parent = lv_obj_get_parent(obj);
 1324              		.loc 1 182 29 discriminator 2 view .LVU386
 1325 0048 65B9     		cbnz	r5, .L86
 1326              	.L85:
 182:lvgl/src/core/lv_obj_style.c ****         lv_obj_t * parent = lv_obj_get_parent(obj);
 1327              		.loc 1 182 54 discriminator 3 view .LVU387
 1328 004a 4FF6FF73 		movw	r3, #65535
 1329 004e 9C42     		cmp	r4, r3
 1330 0050 02D0     		beq	.L87
 182:lvgl/src/core/lv_obj_style.c ****         lv_obj_t * parent = lv_obj_get_parent(obj);
 1331              		.loc 1 182 84 discriminator 4 view .LVU388
 1332 0052 14F4005F 		tst	r4, #8192
 1333 0056 05D0     		beq	.L86
 1334              	.L87:
 1335              	.LBB73:
 183:lvgl/src/core/lv_obj_style.c ****         if(parent) lv_obj_mark_layout_as_dirty(parent);
 1336              		.loc 1 183 9 is_stmt 1 view .LVU389
 183:lvgl/src/core/lv_obj_style.c ****         if(parent) lv_obj_mark_layout_as_dirty(parent);
 1337              		.loc 1 183 29 is_stmt 0 view .LVU390
 1338 0058 3046     		mov	r0, r6
 1339 005a FFF7FEFF 		bl	lv_obj_get_parent
 1340              	.LVL123:
 184:lvgl/src/core/lv_obj_style.c ****     }
 1341              		.loc 1 184 9 is_stmt 1 view .LVU391
ARM GAS  C:\Users\BLACK_~1\AppData\Local\Temp\ccbv02In.s 			page 48


 184:lvgl/src/core/lv_obj_style.c ****     }
 1342              		.loc 1 184 11 is_stmt 0 view .LVU392
 1343 005e 08B1     		cbz	r0, .L86
 184:lvgl/src/core/lv_obj_style.c ****     }
 1344              		.loc 1 184 20 is_stmt 1 discriminator 1 view .LVU393
 1345 0060 FFF7FEFF 		bl	lv_obj_mark_layout_as_dirty
 1346              	.LVL124:
 1347              	.L86:
 184:lvgl/src/core/lv_obj_style.c ****     }
 1348              		.loc 1 184 20 is_stmt 0 discriminator 1 view .LVU394
 1349              	.LBE73:
 187:lvgl/src/core/lv_obj_style.c ****         lv_obj_refresh_ext_draw_size(obj);
 1350              		.loc 1 187 5 is_stmt 1 view .LVU395
 187:lvgl/src/core/lv_obj_style.c ****         lv_obj_refresh_ext_draw_size(obj);
 1351              		.loc 1 187 7 is_stmt 0 view .LVU396
 1352 0064 4FF6FF73 		movw	r3, #65535
 1353 0068 9C42     		cmp	r4, r3
 1354 006a 02D0     		beq	.L88
 187:lvgl/src/core/lv_obj_style.c ****         lv_obj_refresh_ext_draw_size(obj);
 1355              		.loc 1 187 34 discriminator 1 view .LVU397
 1356 006c 14F4006F 		tst	r4, #2048
 1357 0070 02D0     		beq	.L89
 1358              	.L88:
 188:lvgl/src/core/lv_obj_style.c ****     }
 1359              		.loc 1 188 9 is_stmt 1 view .LVU398
 1360 0072 3046     		mov	r0, r6
 1361 0074 FFF7FEFF 		bl	lv_obj_refresh_ext_draw_size
 1362              	.LVL125:
 1363              	.L89:
 190:lvgl/src/core/lv_obj_style.c **** 
 1364              		.loc 1 190 5 view .LVU399
 1365 0078 3046     		mov	r0, r6
 1366 007a FFF7FEFF 		bl	lv_obj_invalidate
 1367              	.LVL126:
 192:lvgl/src/core/lv_obj_style.c ****       ((prop & LV_STYLE_PROP_INHERIT) && ((prop & LV_STYLE_PROP_EXT_DRAW) || (prop & LV_STYLE_PROP_
 1368              		.loc 1 192 5 view .LVU400
 192:lvgl/src/core/lv_obj_style.c ****       ((prop & LV_STYLE_PROP_INHERIT) && ((prop & LV_STYLE_PROP_EXT_DRAW) || (prop & LV_STYLE_PROP_
 1369              		.loc 1 192 7 is_stmt 0 view .LVU401
 1370 007e 4FF6FF73 		movw	r3, #65535
 1371 0082 9C42     		cmp	r4, r3
 1372 0084 05D0     		beq	.L90
 192:lvgl/src/core/lv_obj_style.c ****       ((prop & LV_STYLE_PROP_INHERIT) && ((prop & LV_STYLE_PROP_EXT_DRAW) || (prop & LV_STYLE_PROP_
 1373              		.loc 1 192 34 discriminator 1 view .LVU402
 1374 0086 14F4806F 		tst	r4, #1024
 1375 008a 05D0     		beq	.L80
 193:lvgl/src/core/lv_obj_style.c ****     {
 1376              		.loc 1 193 39 view .LVU403
 1377 008c 14F4C05F 		tst	r4, #6144
 1378 0090 02D0     		beq	.L80
 1379              	.L90:
 195:lvgl/src/core/lv_obj_style.c ****             refresh_children_style(obj);
 1380              		.loc 1 195 9 is_stmt 1 view .LVU404
 195:lvgl/src/core/lv_obj_style.c ****             refresh_children_style(obj);
 1381              		.loc 1 195 11 is_stmt 0 view .LVU405
 1382 0092 B5F5803F 		cmp	r5, #65536
 1383 0096 00D1     		bne	.L96
 1384              	.L80:
ARM GAS  C:\Users\BLACK_~1\AppData\Local\Temp\ccbv02In.s 			page 49


 199:lvgl/src/core/lv_obj_style.c **** 
 1385              		.loc 1 199 1 view .LVU406
 1386 0098 70BD     		pop	{r4, r5, r6, pc}
 1387              	.LVL127:
 1388              	.L96:
 196:lvgl/src/core/lv_obj_style.c ****         }
 1389              		.loc 1 196 13 is_stmt 1 view .LVU407
 1390 009a 3046     		mov	r0, r6
 1391 009c FFF7FEFF 		bl	refresh_children_style
 1392              	.LVL128:
 1393 00a0 FAE7     		b	.L80
 1394              	.L98:
 1395 00a2 00BF     		.align	2
 1396              	.L97:
 1397 00a4 00000000 		.word	.LANCHOR0
 1398              		.cfi_endproc
 1399              	.LFE157:
 1401              		.section	.text.lv_obj_add_style,"ax",%progbits
 1402              		.align	1
 1403              		.global	lv_obj_add_style
 1404              		.syntax unified
 1405              		.thumb
 1406              		.thumb_func
 1408              	lv_obj_add_style:
 1409              	.LVL129:
 1410              	.LFB154:
  77:lvgl/src/core/lv_obj_style.c ****     trans_del(obj, selector, LV_STYLE_PROP_ANY, NULL);
 1411              		.loc 1 77 1 view -0
 1412              		.cfi_startproc
 1413              		@ args = 0, pretend = 0, frame = 0
 1414              		@ frame_needed = 0, uses_anonymous_args = 0
  77:lvgl/src/core/lv_obj_style.c ****     trans_del(obj, selector, LV_STYLE_PROP_ANY, NULL);
 1415              		.loc 1 77 1 is_stmt 0 view .LVU409
 1416 0000 2DE9F041 		push	{r4, r5, r6, r7, r8, lr}
 1417              	.LCFI16:
 1418              		.cfi_def_cfa_offset 24
 1419              		.cfi_offset 4, -24
 1420              		.cfi_offset 5, -20
 1421              		.cfi_offset 6, -16
 1422              		.cfi_offset 7, -12
 1423              		.cfi_offset 8, -8
 1424              		.cfi_offset 14, -4
 1425 0004 0546     		mov	r5, r0
 1426 0006 8846     		mov	r8, r1
 1427 0008 1746     		mov	r7, r2
  78:lvgl/src/core/lv_obj_style.c **** 
 1428              		.loc 1 78 5 is_stmt 1 view .LVU410
 1429 000a 0023     		movs	r3, #0
 1430 000c 4FF6FF72 		movw	r2, #65535
 1431              	.LVL130:
  78:lvgl/src/core/lv_obj_style.c **** 
 1432              		.loc 1 78 5 is_stmt 0 view .LVU411
 1433 0010 3946     		mov	r1, r7
 1434              	.LVL131:
  78:lvgl/src/core/lv_obj_style.c **** 
 1435              		.loc 1 78 5 view .LVU412
 1436 0012 FFF7FEFF 		bl	trans_del
ARM GAS  C:\Users\BLACK_~1\AppData\Local\Temp\ccbv02In.s 			page 50


 1437              	.LVL132:
  80:lvgl/src/core/lv_obj_style.c ****     /*Go after the transition and local styles*/
 1438              		.loc 1 80 5 is_stmt 1 view .LVU413
  82:lvgl/src/core/lv_obj_style.c ****         if(obj->styles[i].is_trans) continue;
 1439              		.loc 1 82 5 view .LVU414
  82:lvgl/src/core/lv_obj_style.c ****         if(obj->styles[i].is_trans) continue;
 1440              		.loc 1 82 11 is_stmt 0 view .LVU415
 1441 0016 0026     		movs	r6, #0
  82:lvgl/src/core/lv_obj_style.c ****         if(obj->styles[i].is_trans) continue;
 1442              		.loc 1 82 5 view .LVU416
 1443 0018 00E0     		b	.L100
 1444              	.LVL133:
 1445              	.L101:
  82:lvgl/src/core/lv_obj_style.c ****         if(obj->styles[i].is_trans) continue;
 1446              		.loc 1 82 36 is_stmt 1 discriminator 2 view .LVU417
  82:lvgl/src/core/lv_obj_style.c ****         if(obj->styles[i].is_trans) continue;
 1447              		.loc 1 82 37 is_stmt 0 discriminator 2 view .LVU418
 1448 001a 0136     		adds	r6, r6, #1
 1449              	.LVL134:
 1450              	.L100:
  82:lvgl/src/core/lv_obj_style.c ****         if(obj->styles[i].is_trans) continue;
 1451              		.loc 1 82 16 is_stmt 1 discriminator 1 view .LVU419
  82:lvgl/src/core/lv_obj_style.c ****         if(obj->styles[i].is_trans) continue;
 1452              		.loc 1 82 23 is_stmt 0 discriminator 1 view .LVU420
 1453 001c 698C     		ldrh	r1, [r5, #34]
 1454 001e C1F3C501 		ubfx	r1, r1, #3, #6
  82:lvgl/src/core/lv_obj_style.c ****         if(obj->styles[i].is_trans) continue;
 1455              		.loc 1 82 5 discriminator 1 view .LVU421
 1456 0022 B142     		cmp	r1, r6
 1457 0024 09D9     		bls	.L102
  83:lvgl/src/core/lv_obj_style.c ****         if(obj->styles[i].is_local) continue;
 1458              		.loc 1 83 9 is_stmt 1 view .LVU422
  83:lvgl/src/core/lv_obj_style.c ****         if(obj->styles[i].is_local) continue;
 1459              		.loc 1 83 15 is_stmt 0 view .LVU423
 1460 0026 EB68     		ldr	r3, [r5, #12]
  83:lvgl/src/core/lv_obj_style.c ****         if(obj->styles[i].is_local) continue;
 1461              		.loc 1 83 23 view .LVU424
 1462 0028 03EBC603 		add	r3, r3, r6, lsl #3
  83:lvgl/src/core/lv_obj_style.c ****         if(obj->styles[i].is_local) continue;
 1463              		.loc 1 83 12 view .LVU425
 1464 002c DB79     		ldrb	r3, [r3, #7]	@ zero_extendqisi2
  83:lvgl/src/core/lv_obj_style.c ****         if(obj->styles[i].is_local) continue;
 1465              		.loc 1 83 11 view .LVU426
 1466 002e 13F0020F 		tst	r3, #2
 1467 0032 F2D1     		bne	.L101
  84:lvgl/src/core/lv_obj_style.c ****         break;
 1468              		.loc 1 84 9 is_stmt 1 view .LVU427
  84:lvgl/src/core/lv_obj_style.c ****         break;
 1469              		.loc 1 84 11 is_stmt 0 view .LVU428
 1470 0034 13F0010F 		tst	r3, #1
 1471 0038 EFD1     		bne	.L101
 1472              	.L102:
  91:lvgl/src/core/lv_obj_style.c ****     obj->styles = lv_mem_realloc(obj->styles, obj->style_cnt * sizeof(_lv_obj_style_t));
 1473              		.loc 1 91 5 is_stmt 1 view .LVU429
  91:lvgl/src/core/lv_obj_style.c ****     obj->styles = lv_mem_realloc(obj->styles, obj->style_cnt * sizeof(_lv_obj_style_t));
 1474              		.loc 1 91 19 is_stmt 0 view .LVU430
 1475 003a 0131     		adds	r1, r1, #1
ARM GAS  C:\Users\BLACK_~1\AppData\Local\Temp\ccbv02In.s 			page 51


 1476 003c 01F03F01 		and	r1, r1, #63
 1477 0040 6B8C     		ldrh	r3, [r5, #34]
 1478 0042 61F3C803 		bfi	r3, r1, #3, #6
 1479 0046 6B84     		strh	r3, [r5, #34]	@ movhi
  92:lvgl/src/core/lv_obj_style.c **** 
 1480              		.loc 1 92 5 is_stmt 1 view .LVU431
  92:lvgl/src/core/lv_obj_style.c **** 
 1481              		.loc 1 92 19 is_stmt 0 view .LVU432
 1482 0048 C900     		lsls	r1, r1, #3
 1483 004a E868     		ldr	r0, [r5, #12]
 1484 004c FFF7FEFF 		bl	lv_mem_realloc
 1485              	.LVL135:
  92:lvgl/src/core/lv_obj_style.c **** 
 1486              		.loc 1 92 17 view .LVU433
 1487 0050 E860     		str	r0, [r5, #12]
  94:lvgl/src/core/lv_obj_style.c ****     for(j = obj->style_cnt - 1; j > i ; j--) {
 1488              		.loc 1 94 5 is_stmt 1 view .LVU434
  95:lvgl/src/core/lv_obj_style.c ****         obj->styles[j] = obj->styles[j - 1];
 1489              		.loc 1 95 5 view .LVU435
  95:lvgl/src/core/lv_obj_style.c ****         obj->styles[j] = obj->styles[j - 1];
 1490              		.loc 1 95 16 is_stmt 0 view .LVU436
 1491 0052 6A8C     		ldrh	r2, [r5, #34]
 1492 0054 C2F3C502 		ubfx	r2, r2, #3, #6
  95:lvgl/src/core/lv_obj_style.c ****         obj->styles[j] = obj->styles[j - 1];
 1493              		.loc 1 95 28 view .LVU437
 1494 0058 013A     		subs	r2, r2, #1
 1495              	.LVL136:
  95:lvgl/src/core/lv_obj_style.c ****         obj->styles[j] = obj->styles[j - 1];
 1496              		.loc 1 95 5 view .LVU438
 1497 005a 0CE0     		b	.L104
 1498              	.L105:
  96:lvgl/src/core/lv_obj_style.c ****     }
 1499              		.loc 1 96 9 is_stmt 1 discriminator 3 view .LVU439
  96:lvgl/src/core/lv_obj_style.c ****     }
 1500              		.loc 1 96 29 is_stmt 0 discriminator 3 view .LVU440
 1501 005c EC68     		ldr	r4, [r5, #12]
  96:lvgl/src/core/lv_obj_style.c ****     }
 1502              		.loc 1 96 37 discriminator 3 view .LVU441
 1503 005e 02F10053 		add	r3, r2, #536870912
 1504 0062 013B     		subs	r3, r3, #1
 1505 0064 04EBC303 		add	r3, r4, r3, lsl #3
  96:lvgl/src/core/lv_obj_style.c ****     }
 1506              		.loc 1 96 20 discriminator 3 view .LVU442
 1507 0068 04EBC20C 		add	ip, r4, r2, lsl #3
  96:lvgl/src/core/lv_obj_style.c ****     }
 1508              		.loc 1 96 24 discriminator 3 view .LVU443
 1509 006c 93E80300 		ldm	r3, {r0, r1}
 1510 0070 8CE80300 		stm	ip, {r0, r1}
  95:lvgl/src/core/lv_obj_style.c ****         obj->styles[j] = obj->styles[j - 1];
 1511              		.loc 1 95 41 is_stmt 1 discriminator 3 view .LVU444
  95:lvgl/src/core/lv_obj_style.c ****         obj->styles[j] = obj->styles[j - 1];
 1512              		.loc 1 95 42 is_stmt 0 discriminator 3 view .LVU445
 1513 0074 013A     		subs	r2, r2, #1
 1514              	.LVL137:
 1515              	.L104:
  95:lvgl/src/core/lv_obj_style.c ****         obj->styles[j] = obj->styles[j - 1];
 1516              		.loc 1 95 33 is_stmt 1 discriminator 1 view .LVU446
ARM GAS  C:\Users\BLACK_~1\AppData\Local\Temp\ccbv02In.s 			page 52


  95:lvgl/src/core/lv_obj_style.c ****         obj->styles[j] = obj->styles[j - 1];
 1517              		.loc 1 95 5 is_stmt 0 discriminator 1 view .LVU447
 1518 0076 9642     		cmp	r6, r2
 1519 0078 F0D3     		bcc	.L105
  99:lvgl/src/core/lv_obj_style.c ****     obj->styles[i].style = style;
 1520              		.loc 1 99 5 is_stmt 1 view .LVU448
  99:lvgl/src/core/lv_obj_style.c ****     obj->styles[i].style = style;
 1521              		.loc 1 99 22 is_stmt 0 view .LVU449
 1522 007a E868     		ldr	r0, [r5, #12]
  99:lvgl/src/core/lv_obj_style.c ****     obj->styles[i].style = style;
 1523              		.loc 1 99 30 view .LVU450
 1524 007c F400     		lsls	r4, r6, #3
  99:lvgl/src/core/lv_obj_style.c ****     obj->styles[i].style = style;
 1525              		.loc 1 99 5 view .LVU451
 1526 007e 0821     		movs	r1, #8
 1527 0080 00EBC600 		add	r0, r0, r6, lsl #3
 1528 0084 FFF7FEFF 		bl	lv_memset_00
 1529              	.LVL138:
 100:lvgl/src/core/lv_obj_style.c ****     obj->styles[i].selector = selector;
 1530              		.loc 1 100 5 is_stmt 1 view .LVU452
 100:lvgl/src/core/lv_obj_style.c ****     obj->styles[i].selector = selector;
 1531              		.loc 1 100 8 is_stmt 0 view .LVU453
 1532 0088 EB68     		ldr	r3, [r5, #12]
 100:lvgl/src/core/lv_obj_style.c ****     obj->styles[i].selector = selector;
 1533              		.loc 1 100 26 view .LVU454
 1534 008a 43F83680 		str	r8, [r3, r6, lsl #3]
 101:lvgl/src/core/lv_obj_style.c **** 
 1535              		.loc 1 101 5 is_stmt 1 view .LVU455
 101:lvgl/src/core/lv_obj_style.c **** 
 1536              		.loc 1 101 8 is_stmt 0 view .LVU456
 1537 008e EB68     		ldr	r3, [r5, #12]
 101:lvgl/src/core/lv_obj_style.c **** 
 1538              		.loc 1 101 16 view .LVU457
 1539 0090 2344     		add	r3, r3, r4
 101:lvgl/src/core/lv_obj_style.c **** 
 1540              		.loc 1 101 29 view .LVU458
 1541 0092 5A68     		ldr	r2, [r3, #4]
 1542 0094 67F31702 		bfi	r2, r7, #0, #24
 1543              	.LVL139:
 101:lvgl/src/core/lv_obj_style.c **** 
 1544              		.loc 1 101 29 view .LVU459
 1545 0098 5A60     		str	r2, [r3, #4]
 103:lvgl/src/core/lv_obj_style.c **** }
 1546              		.loc 1 103 5 is_stmt 1 view .LVU460
 1547 009a 4FF6FF72 		movw	r2, #65535
 1548 009e 3946     		mov	r1, r7
 1549 00a0 2846     		mov	r0, r5
 1550 00a2 FFF7FEFF 		bl	lv_obj_refresh_style
 1551              	.LVL140:
 104:lvgl/src/core/lv_obj_style.c **** 
 1552              		.loc 1 104 1 is_stmt 0 view .LVU461
 1553 00a6 BDE8F081 		pop	{r4, r5, r6, r7, r8, pc}
 104:lvgl/src/core/lv_obj_style.c **** 
 1554              		.loc 1 104 1 view .LVU462
 1555              		.cfi_endproc
 1556              	.LFE154:
 1558              		.section	.text.report_style_change_core,"ax",%progbits
ARM GAS  C:\Users\BLACK_~1\AppData\Local\Temp\ccbv02In.s 			page 53


 1559              		.align	1
 1560              		.syntax unified
 1561              		.thumb
 1562              		.thumb_func
 1564              	report_style_change_core:
 1565              	.LVL141:
 1566              	.LFB173:
 607:lvgl/src/core/lv_obj_style.c ****     uint32_t i;
 1567              		.loc 1 607 1 is_stmt 1 view -0
 1568              		.cfi_startproc
 1569              		@ args = 0, pretend = 0, frame = 0
 1570              		@ frame_needed = 0, uses_anonymous_args = 0
 607:lvgl/src/core/lv_obj_style.c ****     uint32_t i;
 1571              		.loc 1 607 1 is_stmt 0 view .LVU464
 1572 0000 70B5     		push	{r4, r5, r6, lr}
 1573              	.LCFI17:
 1574              		.cfi_def_cfa_offset 16
 1575              		.cfi_offset 4, -16
 1576              		.cfi_offset 5, -12
 1577              		.cfi_offset 6, -8
 1578              		.cfi_offset 14, -4
 1579 0002 0546     		mov	r5, r0
 1580 0004 0C46     		mov	r4, r1
 608:lvgl/src/core/lv_obj_style.c ****     for(i = 0; i < obj->style_cnt; i++) {
 1581              		.loc 1 608 5 is_stmt 1 view .LVU465
 609:lvgl/src/core/lv_obj_style.c ****         if(style == NULL || obj->styles[i].style == style) {
 1582              		.loc 1 609 5 view .LVU466
 1583              	.LVL142:
 609:lvgl/src/core/lv_obj_style.c ****         if(style == NULL || obj->styles[i].style == style) {
 1584              		.loc 1 609 11 is_stmt 0 view .LVU467
 1585 0006 0022     		movs	r2, #0
 609:lvgl/src/core/lv_obj_style.c ****         if(style == NULL || obj->styles[i].style == style) {
 1586              		.loc 1 609 5 view .LVU468
 1587 0008 00E0     		b	.L108
 1588              	.LVL143:
 1589              	.L110:
 609:lvgl/src/core/lv_obj_style.c ****         if(style == NULL || obj->styles[i].style == style) {
 1590              		.loc 1 609 36 is_stmt 1 discriminator 2 view .LVU469
 609:lvgl/src/core/lv_obj_style.c ****         if(style == NULL || obj->styles[i].style == style) {
 1591              		.loc 1 609 37 is_stmt 0 discriminator 2 view .LVU470
 1592 000a 0132     		adds	r2, r2, #1
 1593              	.LVL144:
 1594              	.L108:
 609:lvgl/src/core/lv_obj_style.c ****         if(style == NULL || obj->styles[i].style == style) {
 1595              		.loc 1 609 16 is_stmt 1 discriminator 1 view .LVU471
 609:lvgl/src/core/lv_obj_style.c ****         if(style == NULL || obj->styles[i].style == style) {
 1596              		.loc 1 609 23 is_stmt 0 discriminator 1 view .LVU472
 1597 000c 638C     		ldrh	r3, [r4, #34]
 1598 000e C3F3C503 		ubfx	r3, r3, #3, #6
 609:lvgl/src/core/lv_obj_style.c ****         if(style == NULL || obj->styles[i].style == style) {
 1599              		.loc 1 609 5 discriminator 1 view .LVU473
 1600 0012 9342     		cmp	r3, r2
 1601 0014 0CD9     		bls	.L113
 610:lvgl/src/core/lv_obj_style.c ****             lv_obj_refresh_style(obj, LV_PART_ANY, LV_STYLE_PROP_ANY);
 1602              		.loc 1 610 9 is_stmt 1 view .LVU474
 610:lvgl/src/core/lv_obj_style.c ****             lv_obj_refresh_style(obj, LV_PART_ANY, LV_STYLE_PROP_ANY);
 1603              		.loc 1 610 11 is_stmt 0 view .LVU475
ARM GAS  C:\Users\BLACK_~1\AppData\Local\Temp\ccbv02In.s 			page 54


 1604 0016 25B1     		cbz	r5, .L109
 610:lvgl/src/core/lv_obj_style.c ****             lv_obj_refresh_style(obj, LV_PART_ANY, LV_STYLE_PROP_ANY);
 1605              		.loc 1 610 32 discriminator 1 view .LVU476
 1606 0018 E368     		ldr	r3, [r4, #12]
 610:lvgl/src/core/lv_obj_style.c ****             lv_obj_refresh_style(obj, LV_PART_ANY, LV_STYLE_PROP_ANY);
 1607              		.loc 1 610 43 discriminator 1 view .LVU477
 1608 001a 53F83230 		ldr	r3, [r3, r2, lsl #3]
 610:lvgl/src/core/lv_obj_style.c ****             lv_obj_refresh_style(obj, LV_PART_ANY, LV_STYLE_PROP_ANY);
 1609              		.loc 1 610 26 discriminator 1 view .LVU478
 1610 001e AB42     		cmp	r3, r5
 1611 0020 F3D1     		bne	.L110
 1612              	.L109:
 611:lvgl/src/core/lv_obj_style.c ****             break;
 1613              		.loc 1 611 13 is_stmt 1 view .LVU479
 1614 0022 4FF6FF72 		movw	r2, #65535
 1615              	.LVL145:
 611:lvgl/src/core/lv_obj_style.c ****             break;
 1616              		.loc 1 611 13 is_stmt 0 view .LVU480
 1617 0026 4FF47021 		mov	r1, #983040
 1618              	.LVL146:
 611:lvgl/src/core/lv_obj_style.c ****             break;
 1619              		.loc 1 611 13 view .LVU481
 1620 002a 2046     		mov	r0, r4
 1621              	.LVL147:
 611:lvgl/src/core/lv_obj_style.c ****             break;
 1622              		.loc 1 611 13 view .LVU482
 1623 002c FFF7FEFF 		bl	lv_obj_refresh_style
 1624              	.LVL148:
 612:lvgl/src/core/lv_obj_style.c ****         }
 1625              		.loc 1 612 13 is_stmt 1 view .LVU483
 1626              	.L113:
 609:lvgl/src/core/lv_obj_style.c ****         if(style == NULL || obj->styles[i].style == style) {
 1627              		.loc 1 609 11 is_stmt 0 discriminator 1 view .LVU484
 1628 0030 0026     		movs	r6, #0
 1629 0032 08E0     		b	.L111
 1630              	.LVL149:
 1631              	.L114:
 617:lvgl/src/core/lv_obj_style.c ****     }
 1632              		.loc 1 617 9 is_stmt 1 discriminator 3 view .LVU485
 617:lvgl/src/core/lv_obj_style.c ****     }
 1633              		.loc 1 617 41 is_stmt 0 discriminator 3 view .LVU486
 1634 0034 3146     		mov	r1, r6
 1635 0036 2046     		mov	r0, r4
 1636 0038 FFF7FEFF 		bl	lv_obj_get_child
 1637              	.LVL150:
 1638 003c 0146     		mov	r1, r0
 617:lvgl/src/core/lv_obj_style.c ****     }
 1639              		.loc 1 617 9 discriminator 3 view .LVU487
 1640 003e 2846     		mov	r0, r5
 1641 0040 FFF7DEFF 		bl	report_style_change_core
 1642              	.LVL151:
 616:lvgl/src/core/lv_obj_style.c ****         report_style_change_core(style, lv_obj_get_child(obj, i));
 1643              		.loc 1 616 47 is_stmt 1 discriminator 3 view .LVU488
 616:lvgl/src/core/lv_obj_style.c ****         report_style_change_core(style, lv_obj_get_child(obj, i));
 1644              		.loc 1 616 48 is_stmt 0 discriminator 3 view .LVU489
 1645 0044 0136     		adds	r6, r6, #1
 1646              	.LVL152:
ARM GAS  C:\Users\BLACK_~1\AppData\Local\Temp\ccbv02In.s 			page 55


 1647              	.L111:
 616:lvgl/src/core/lv_obj_style.c ****         report_style_change_core(style, lv_obj_get_child(obj, i));
 1648              		.loc 1 616 16 is_stmt 1 discriminator 1 view .LVU490
 616:lvgl/src/core/lv_obj_style.c ****         report_style_change_core(style, lv_obj_get_child(obj, i));
 1649              		.loc 1 616 20 is_stmt 0 discriminator 1 view .LVU491
 1650 0046 2046     		mov	r0, r4
 1651 0048 FFF7FEFF 		bl	lv_obj_get_child_cnt
 1652              	.LVL153:
 616:lvgl/src/core/lv_obj_style.c ****         report_style_change_core(style, lv_obj_get_child(obj, i));
 1653              		.loc 1 616 5 discriminator 1 view .LVU492
 1654 004c B042     		cmp	r0, r6
 1655 004e F1D8     		bhi	.L114
 619:lvgl/src/core/lv_obj_style.c **** 
 1656              		.loc 1 619 1 view .LVU493
 1657 0050 70BD     		pop	{r4, r5, r6, pc}
 619:lvgl/src/core/lv_obj_style.c **** 
 1658              		.loc 1 619 1 view .LVU494
 1659              		.cfi_endproc
 1660              	.LFE173:
 1662              		.section	.text.lv_obj_report_style_change,"ax",%progbits
 1663              		.align	1
 1664              		.global	lv_obj_report_style_change
 1665              		.syntax unified
 1666              		.thumb
 1667              		.thumb_func
 1669              	lv_obj_report_style_change:
 1670              	.LVL154:
 1671              	.LFB156:
 155:lvgl/src/core/lv_obj_style.c ****     if(!style_refr) return;
 1672              		.loc 1 155 1 is_stmt 1 view -0
 1673              		.cfi_startproc
 1674              		@ args = 0, pretend = 0, frame = 0
 1675              		@ frame_needed = 0, uses_anonymous_args = 0
 156:lvgl/src/core/lv_obj_style.c ****     lv_disp_t * d = lv_disp_get_next(NULL);
 1676              		.loc 1 156 5 view .LVU496
 156:lvgl/src/core/lv_obj_style.c ****     lv_disp_t * d = lv_disp_get_next(NULL);
 1677              		.loc 1 156 8 is_stmt 0 view .LVU497
 1678 0000 0E4B     		ldr	r3, .L128
 1679 0002 1B78     		ldrb	r3, [r3]	@ zero_extendqisi2
 156:lvgl/src/core/lv_obj_style.c ****     lv_disp_t * d = lv_disp_get_next(NULL);
 1680              		.loc 1 156 7 view .LVU498
 1681 0004 03B9     		cbnz	r3, .L126
 1682 0006 7047     		bx	lr
 1683              	.L126:
 155:lvgl/src/core/lv_obj_style.c ****     if(!style_refr) return;
 1684              		.loc 1 155 1 view .LVU499
 1685 0008 70B5     		push	{r4, r5, r6, lr}
 1686              	.LCFI18:
 1687              		.cfi_def_cfa_offset 16
 1688              		.cfi_offset 4, -16
 1689              		.cfi_offset 5, -12
 1690              		.cfi_offset 6, -8
 1691              		.cfi_offset 14, -4
 1692 000a 0646     		mov	r6, r0
 157:lvgl/src/core/lv_obj_style.c **** 
 1693              		.loc 1 157 5 is_stmt 1 view .LVU500
 157:lvgl/src/core/lv_obj_style.c **** 
ARM GAS  C:\Users\BLACK_~1\AppData\Local\Temp\ccbv02In.s 			page 56


 1694              		.loc 1 157 21 is_stmt 0 view .LVU501
 1695 000c 0020     		movs	r0, #0
 1696              	.LVL155:
 157:lvgl/src/core/lv_obj_style.c **** 
 1697              		.loc 1 157 21 view .LVU502
 1698 000e FFF7FEFF 		bl	lv_disp_get_next
 1699              	.LVL156:
 1700 0012 0546     		mov	r5, r0
 1701              	.LVL157:
 159:lvgl/src/core/lv_obj_style.c ****         uint32_t i;
 1702              		.loc 1 159 5 is_stmt 1 view .LVU503
 159:lvgl/src/core/lv_obj_style.c ****         uint32_t i;
 1703              		.loc 1 159 10 is_stmt 0 view .LVU504
 1704 0014 0DE0     		b	.L118
 1705              	.LVL158:
 1706              	.L119:
 1707              	.LBB74:
 162:lvgl/src/core/lv_obj_style.c ****         }
 1708              		.loc 1 162 13 is_stmt 1 discriminator 3 view .LVU505
 162:lvgl/src/core/lv_obj_style.c ****         }
 1709              		.loc 1 162 46 is_stmt 0 discriminator 3 view .LVU506
 1710 0016 EB68     		ldr	r3, [r5, #12]
 162:lvgl/src/core/lv_obj_style.c ****         }
 1711              		.loc 1 162 13 discriminator 3 view .LVU507
 1712 0018 53F82410 		ldr	r1, [r3, r4, lsl #2]
 1713 001c 3046     		mov	r0, r6
 1714 001e FFF7FEFF 		bl	report_style_change_core
 1715              	.LVL159:
 161:lvgl/src/core/lv_obj_style.c ****             report_style_change_core(style, d->screens[i]);
 1716              		.loc 1 161 39 is_stmt 1 discriminator 3 view .LVU508
 161:lvgl/src/core/lv_obj_style.c ****             report_style_change_core(style, d->screens[i]);
 1717              		.loc 1 161 40 is_stmt 0 discriminator 3 view .LVU509
 1718 0022 0134     		adds	r4, r4, #1
 1719              	.LVL160:
 1720              	.L120:
 161:lvgl/src/core/lv_obj_style.c ****             report_style_change_core(style, d->screens[i]);
 1721              		.loc 1 161 20 is_stmt 1 discriminator 1 view .LVU510
 161:lvgl/src/core/lv_obj_style.c ****             report_style_change_core(style, d->screens[i]);
 1722              		.loc 1 161 25 is_stmt 0 discriminator 1 view .LVU511
 1723 0024 6B6A     		ldr	r3, [r5, #36]
 161:lvgl/src/core/lv_obj_style.c ****             report_style_change_core(style, d->screens[i]);
 1724              		.loc 1 161 9 discriminator 1 view .LVU512
 1725 0026 A342     		cmp	r3, r4
 1726 0028 F5D8     		bhi	.L119
 164:lvgl/src/core/lv_obj_style.c ****     }
 1727              		.loc 1 164 9 is_stmt 1 view .LVU513
 164:lvgl/src/core/lv_obj_style.c ****     }
 1728              		.loc 1 164 13 is_stmt 0 view .LVU514
 1729 002a 2846     		mov	r0, r5
 1730 002c FFF7FEFF 		bl	lv_disp_get_next
 1731              	.LVL161:
 1732 0030 0546     		mov	r5, r0
 1733              	.LVL162:
 1734              	.L118:
 164:lvgl/src/core/lv_obj_style.c ****     }
 1735              		.loc 1 164 13 view .LVU515
 1736              	.LBE74:
ARM GAS  C:\Users\BLACK_~1\AppData\Local\Temp\ccbv02In.s 			page 57


 159:lvgl/src/core/lv_obj_style.c ****         uint32_t i;
 1737              		.loc 1 159 10 is_stmt 1 view .LVU516
 1738 0032 0DB1     		cbz	r5, .L127
 1739              	.LBB75:
 161:lvgl/src/core/lv_obj_style.c ****             report_style_change_core(style, d->screens[i]);
 1740              		.loc 1 161 15 is_stmt 0 view .LVU517
 1741 0034 0024     		movs	r4, #0
 1742 0036 F5E7     		b	.L120
 1743              	.L127:
 1744              	.LBE75:
 166:lvgl/src/core/lv_obj_style.c **** 
 1745              		.loc 1 166 1 view .LVU518
 1746 0038 70BD     		pop	{r4, r5, r6, pc}
 1747              	.LVL163:
 1748              	.L129:
 166:lvgl/src/core/lv_obj_style.c **** 
 1749              		.loc 1 166 1 view .LVU519
 1750 003a 00BF     		.align	2
 1751              	.L128:
 1752 003c 00000000 		.word	.LANCHOR0
 1753              		.cfi_endproc
 1754              	.LFE156:
 1756              		.section	.text.lv_obj_set_local_style_prop,"ax",%progbits
 1757              		.align	1
 1758              		.global	lv_obj_set_local_style_prop
 1759              		.syntax unified
 1760              		.thumb
 1761              		.thumb_func
 1763              	lv_obj_set_local_style_prop:
 1764              	.LVL164:
 1765              	.LFB160:
 252:lvgl/src/core/lv_obj_style.c ****     lv_style_t * style = get_local_style(obj, selector);
 1766              		.loc 1 252 1 is_stmt 1 view -0
 1767              		.cfi_startproc
 1768              		@ args = 0, pretend = 0, frame = 0
 1769              		@ frame_needed = 0, uses_anonymous_args = 0
 252:lvgl/src/core/lv_obj_style.c ****     lv_style_t * style = get_local_style(obj, selector);
 1770              		.loc 1 252 1 is_stmt 0 view .LVU521
 1771 0000 F8B5     		push	{r3, r4, r5, r6, r7, lr}
 1772              	.LCFI19:
 1773              		.cfi_def_cfa_offset 24
 1774              		.cfi_offset 3, -24
 1775              		.cfi_offset 4, -20
 1776              		.cfi_offset 5, -16
 1777              		.cfi_offset 6, -12
 1778              		.cfi_offset 7, -8
 1779              		.cfi_offset 14, -4
 1780 0002 0646     		mov	r6, r0
 1781 0004 0D46     		mov	r5, r1
 1782 0006 1746     		mov	r7, r2
 1783              	.LVL165:
 252:lvgl/src/core/lv_obj_style.c ****     lv_style_t * style = get_local_style(obj, selector);
 1784              		.loc 1 252 1 view .LVU522
 1785 0008 1C46     		mov	r4, r3
 253:lvgl/src/core/lv_obj_style.c ****     lv_style_set_prop(style, prop, value);
 1786              		.loc 1 253 5 is_stmt 1 view .LVU523
 253:lvgl/src/core/lv_obj_style.c ****     lv_style_set_prop(style, prop, value);
ARM GAS  C:\Users\BLACK_~1\AppData\Local\Temp\ccbv02In.s 			page 58


 1787              		.loc 1 253 26 is_stmt 0 view .LVU524
 1788 000a 1946     		mov	r1, r3
 1789              	.LVL166:
 253:lvgl/src/core/lv_obj_style.c ****     lv_style_set_prop(style, prop, value);
 1790              		.loc 1 253 26 view .LVU525
 1791 000c FFF7FEFF 		bl	get_local_style
 1792              	.LVL167:
 254:lvgl/src/core/lv_obj_style.c ****     lv_obj_refresh_style(obj, selector, prop);
 1793              		.loc 1 254 5 is_stmt 1 view .LVU526
 254:lvgl/src/core/lv_obj_style.c ****     lv_obj_refresh_style(obj, selector, prop);
 1794              		.loc 1 254 5 is_stmt 0 view .LVU527
 1795 0010 3A46     		mov	r2, r7
 1796 0012 2946     		mov	r1, r5
 1797 0014 FFF7FEFF 		bl	lv_style_set_prop
 1798              	.LVL168:
 255:lvgl/src/core/lv_obj_style.c **** }
 1799              		.loc 1 255 5 is_stmt 1 view .LVU528
 1800 0018 2A46     		mov	r2, r5
 1801 001a 2146     		mov	r1, r4
 1802 001c 3046     		mov	r0, r6
 1803 001e FFF7FEFF 		bl	lv_obj_refresh_style
 1804              	.LVL169:
 256:lvgl/src/core/lv_obj_style.c **** 
 1805              		.loc 1 256 1 is_stmt 0 view .LVU529
 1806 0022 F8BD     		pop	{r3, r4, r5, r6, r7, pc}
 256:lvgl/src/core/lv_obj_style.c **** 
 1807              		.loc 1 256 1 view .LVU530
 1808              		.cfi_endproc
 1809              	.LFE160:
 1811              		.section	.text.trans_anim_cb,"ax",%progbits
 1812              		.align	1
 1813              		.syntax unified
 1814              		.thumb
 1815              		.thumb_func
 1817              	trans_anim_cb:
 1818              	.LVL170:
 1819              	.LFB176:
 681:lvgl/src/core/lv_obj_style.c ****     trans_t * tr = _tr;
 1820              		.loc 1 681 1 is_stmt 1 view -0
 1821              		.cfi_startproc
 1822              		@ args = 0, pretend = 0, frame = 8
 1823              		@ frame_needed = 0, uses_anonymous_args = 0
 681:lvgl/src/core/lv_obj_style.c ****     trans_t * tr = _tr;
 1824              		.loc 1 681 1 is_stmt 0 view .LVU532
 1825 0000 2DE9F043 		push	{r4, r5, r6, r7, r8, r9, lr}
 1826              	.LCFI20:
 1827              		.cfi_def_cfa_offset 28
 1828              		.cfi_offset 4, -28
 1829              		.cfi_offset 5, -24
 1830              		.cfi_offset 6, -20
 1831              		.cfi_offset 7, -16
 1832              		.cfi_offset 8, -12
 1833              		.cfi_offset 9, -8
 1834              		.cfi_offset 14, -4
 1835 0004 83B0     		sub	sp, sp, #12
 1836              	.LCFI21:
 1837              		.cfi_def_cfa_offset 40
ARM GAS  C:\Users\BLACK_~1\AppData\Local\Temp\ccbv02In.s 			page 59


 1838 0006 0446     		mov	r4, r0
 1839 0008 0F46     		mov	r7, r1
 682:lvgl/src/core/lv_obj_style.c ****     lv_obj_t * obj = tr->obj;
 1840              		.loc 1 682 5 is_stmt 1 view .LVU533
 1841              	.LVL171:
 683:lvgl/src/core/lv_obj_style.c **** 
 1842              		.loc 1 683 5 view .LVU534
 683:lvgl/src/core/lv_obj_style.c **** 
 1843              		.loc 1 683 16 is_stmt 0 view .LVU535
 1844 000a 0568     		ldr	r5, [r0]
 1845              	.LVL172:
 685:lvgl/src/core/lv_obj_style.c ****     for(i = 0; i < obj->style_cnt; i++) {
 1846              		.loc 1 685 5 is_stmt 1 view .LVU536
 686:lvgl/src/core/lv_obj_style.c ****         if(obj->styles[i].is_trans == 0 || obj->styles[i].selector != tr->selector) continue;
 1847              		.loc 1 686 5 view .LVU537
 686:lvgl/src/core/lv_obj_style.c ****         if(obj->styles[i].is_trans == 0 || obj->styles[i].selector != tr->selector) continue;
 1848              		.loc 1 686 11 is_stmt 0 view .LVU538
 1849 000c 0022     		movs	r2, #0
 686:lvgl/src/core/lv_obj_style.c ****         if(obj->styles[i].is_trans == 0 || obj->styles[i].selector != tr->selector) continue;
 1850              		.loc 1 686 5 view .LVU539
 1851 000e 00E0     		b	.L133
 1852              	.LVL173:
 1853              	.L134:
 1854              	.LBB79:
 687:lvgl/src/core/lv_obj_style.c **** 
 1855              		.loc 1 687 85 is_stmt 1 discriminator 3 view .LVU540
 1856              	.LBE79:
 686:lvgl/src/core/lv_obj_style.c ****         if(obj->styles[i].is_trans == 0 || obj->styles[i].selector != tr->selector) continue;
 1857              		.loc 1 686 36 discriminator 3 view .LVU541
 686:lvgl/src/core/lv_obj_style.c ****         if(obj->styles[i].is_trans == 0 || obj->styles[i].selector != tr->selector) continue;
 1858              		.loc 1 686 37 is_stmt 0 discriminator 3 view .LVU542
 1859 0010 0132     		adds	r2, r2, #1
 1860              	.LVL174:
 1861              	.L133:
 686:lvgl/src/core/lv_obj_style.c ****         if(obj->styles[i].is_trans == 0 || obj->styles[i].selector != tr->selector) continue;
 1862              		.loc 1 686 16 is_stmt 1 discriminator 1 view .LVU543
 686:lvgl/src/core/lv_obj_style.c ****         if(obj->styles[i].is_trans == 0 || obj->styles[i].selector != tr->selector) continue;
 1863              		.loc 1 686 23 is_stmt 0 discriminator 1 view .LVU544
 1864 0012 6B8C     		ldrh	r3, [r5, #34]
 1865 0014 C3F3C503 		ubfx	r3, r3, #3, #6
 686:lvgl/src/core/lv_obj_style.c ****         if(obj->styles[i].is_trans == 0 || obj->styles[i].selector != tr->selector) continue;
 1866              		.loc 1 686 5 discriminator 1 view .LVU545
 1867 0018 9342     		cmp	r3, r2
 1868 001a 40F2D980 		bls	.L132
 1869              	.LBB82:
 687:lvgl/src/core/lv_obj_style.c **** 
 1870              		.loc 1 687 9 is_stmt 1 view .LVU546
 687:lvgl/src/core/lv_obj_style.c **** 
 1871              		.loc 1 687 15 is_stmt 0 view .LVU547
 1872 001e EB68     		ldr	r3, [r5, #12]
 687:lvgl/src/core/lv_obj_style.c **** 
 1873              		.loc 1 687 23 view .LVU548
 1874 0020 D600     		lsls	r6, r2, #3
 1875 0022 03EBC203 		add	r3, r3, r2, lsl #3
 687:lvgl/src/core/lv_obj_style.c **** 
 1876              		.loc 1 687 36 view .LVU549
 1877 0026 D879     		ldrb	r0, [r3, #7]	@ zero_extendqisi2
ARM GAS  C:\Users\BLACK_~1\AppData\Local\Temp\ccbv02In.s 			page 60


 687:lvgl/src/core/lv_obj_style.c **** 
 1878              		.loc 1 687 11 view .LVU550
 1879 0028 10F0020F 		tst	r0, #2
 1880 002c F0D0     		beq	.L134
 687:lvgl/src/core/lv_obj_style.c **** 
 1881              		.loc 1 687 58 discriminator 2 view .LVU551
 1882 002e 5868     		ldr	r0, [r3, #4]
 1883 0030 C0F31700 		ubfx	r0, r0, #0, #24
 687:lvgl/src/core/lv_obj_style.c **** 
 1884              		.loc 1 687 73 discriminator 2 view .LVU552
 1885 0034 A168     		ldr	r1, [r4, #8]
 687:lvgl/src/core/lv_obj_style.c **** 
 1886              		.loc 1 687 41 discriminator 2 view .LVU553
 1887 0036 8842     		cmp	r0, r1
 1888 0038 EAD1     		bne	.L134
 689:lvgl/src/core/lv_obj_style.c ****         switch (tr->prop) {
 1889              		.loc 1 689 9 is_stmt 1 view .LVU554
 690:lvgl/src/core/lv_obj_style.c **** 
 1890              		.loc 1 690 9 view .LVU555
 690:lvgl/src/core/lv_obj_style.c **** 
 1891              		.loc 1 690 19 is_stmt 0 view .LVU556
 1892 003a A188     		ldrh	r1, [r4, #4]
 690:lvgl/src/core/lv_obj_style.c **** 
 1893              		.loc 1 690 9 view .LVU557
 1894 003c 6829     		cmp	r1, #104
 1895 003e 2ED8     		bhi	.L136
 1896 0040 2029     		cmp	r1, #32
 1897 0042 C0F0A780 		bcc	.L137
 1898 0046 A1F12002 		sub	r2, r1, #32
 1899              	.LVL175:
 690:lvgl/src/core/lv_obj_style.c **** 
 1900              		.loc 1 690 9 view .LVU558
 1901 004a 482A     		cmp	r2, #72
 1902 004c 00F2A280 		bhi	.L137
 1903 0050 DFE802F0 		tbb	[pc, r2]
 1904              	.L139:
 1905 0054 52       		.byte	(.L142-.L139)/2
 1906 0055 A0       		.byte	(.L137-.L139)/2
 1907 0056 A0       		.byte	(.L137-.L139)/2
 1908 0057 A0       		.byte	(.L137-.L139)/2
 1909 0058 A0       		.byte	(.L137-.L139)/2
 1910 0059 A0       		.byte	(.L137-.L139)/2
 1911 005a A0       		.byte	(.L137-.L139)/2
 1912 005b A0       		.byte	(.L137-.L139)/2
 1913 005c A0       		.byte	(.L137-.L139)/2
 1914 005d A0       		.byte	(.L137-.L139)/2
 1915 005e A0       		.byte	(.L137-.L139)/2
 1916 005f A0       		.byte	(.L137-.L139)/2
 1917 0060 A0       		.byte	(.L137-.L139)/2
 1918 0061 A0       		.byte	(.L137-.L139)/2
 1919 0062 A0       		.byte	(.L137-.L139)/2
 1920 0063 A0       		.byte	(.L137-.L139)/2
 1921 0064 52       		.byte	(.L142-.L139)/2
 1922 0065 A0       		.byte	(.L137-.L139)/2
 1923 0066 A0       		.byte	(.L137-.L139)/2
 1924 0067 31       		.byte	(.L138-.L139)/2
 1925 0068 31       		.byte	(.L138-.L139)/2
ARM GAS  C:\Users\BLACK_~1\AppData\Local\Temp\ccbv02In.s 			page 61


 1926 0069 A0       		.byte	(.L137-.L139)/2
 1927 006a A0       		.byte	(.L137-.L139)/2
 1928 006b A0       		.byte	(.L137-.L139)/2
 1929 006c A0       		.byte	(.L137-.L139)/2
 1930 006d A0       		.byte	(.L137-.L139)/2
 1931 006e A0       		.byte	(.L137-.L139)/2
 1932 006f 52       		.byte	(.L142-.L139)/2
 1933 0070 A0       		.byte	(.L137-.L139)/2
 1934 0071 A0       		.byte	(.L137-.L139)/2
 1935 0072 A0       		.byte	(.L137-.L139)/2
 1936 0073 A0       		.byte	(.L137-.L139)/2
 1937 0074 A0       		.byte	(.L137-.L139)/2
 1938 0075 A0       		.byte	(.L137-.L139)/2
 1939 0076 A0       		.byte	(.L137-.L139)/2
 1940 0077 A0       		.byte	(.L137-.L139)/2
 1941 0078 52       		.byte	(.L142-.L139)/2
 1942 0079 A0       		.byte	(.L137-.L139)/2
 1943 007a A0       		.byte	(.L137-.L139)/2
 1944 007b 52       		.byte	(.L142-.L139)/2
 1945 007c A0       		.byte	(.L137-.L139)/2
 1946 007d A0       		.byte	(.L137-.L139)/2
 1947 007e A0       		.byte	(.L137-.L139)/2
 1948 007f A0       		.byte	(.L137-.L139)/2
 1949 0080 A0       		.byte	(.L137-.L139)/2
 1950 0081 A0       		.byte	(.L137-.L139)/2
 1951 0082 A0       		.byte	(.L137-.L139)/2
 1952 0083 A0       		.byte	(.L137-.L139)/2
 1953 0084 A0       		.byte	(.L137-.L139)/2
 1954 0085 A0       		.byte	(.L137-.L139)/2
 1955 0086 A0       		.byte	(.L137-.L139)/2
 1956 0087 A0       		.byte	(.L137-.L139)/2
 1957 0088 A0       		.byte	(.L137-.L139)/2
 1958 0089 A0       		.byte	(.L137-.L139)/2
 1959 008a A0       		.byte	(.L137-.L139)/2
 1960 008b A0       		.byte	(.L137-.L139)/2
 1961 008c A0       		.byte	(.L137-.L139)/2
 1962 008d A0       		.byte	(.L137-.L139)/2
 1963 008e A0       		.byte	(.L137-.L139)/2
 1964 008f A0       		.byte	(.L137-.L139)/2
 1965 0090 A0       		.byte	(.L137-.L139)/2
 1966 0091 A0       		.byte	(.L137-.L139)/2
 1967 0092 A0       		.byte	(.L137-.L139)/2
 1968 0093 A0       		.byte	(.L137-.L139)/2
 1969 0094 A0       		.byte	(.L137-.L139)/2
 1970 0095 A0       		.byte	(.L137-.L139)/2
 1971 0096 A0       		.byte	(.L137-.L139)/2
 1972 0097 44       		.byte	(.L141-.L139)/2
 1973 0098 A0       		.byte	(.L137-.L139)/2
 1974 0099 A0       		.byte	(.L137-.L139)/2
 1975 009a A0       		.byte	(.L137-.L139)/2
 1976 009b 2D       		.byte	(.L140-.L139)/2
 1977 009c 31       		.byte	(.L138-.L139)/2
 1978              	.LVL176:
 1979 009d 00       		.p2align 1
 1980              	.L136:
 690:lvgl/src/core/lv_obj_style.c **** 
 1981              		.loc 1 690 9 view .LVU559
ARM GAS  C:\Users\BLACK_~1\AppData\Local\Temp\ccbv02In.s 			page 62


 1982 009e 40F25742 		movw	r2, #1111
 1983              	.LVL177:
 690:lvgl/src/core/lv_obj_style.c **** 
 1984              		.loc 1 690 9 view .LVU560
 1985 00a2 9142     		cmp	r1, r2
 1986 00a4 28D0     		beq	.L142
 1987 00a6 41F25942 		movw	r2, #5209
 1988 00aa 9142     		cmp	r1, r2
 1989 00ac 72D1     		bne	.L137
 1990              	.L140:
 700:lvgl/src/core/lv_obj_style.c ****                 else value_final.ptr = tr->end_value.ptr;
 1991              		.loc 1 700 17 is_stmt 1 view .LVU561
 700:lvgl/src/core/lv_obj_style.c ****                 else value_final.ptr = tr->end_value.ptr;
 1992              		.loc 1 700 19 is_stmt 0 view .LVU562
 1993 00ae FE2F     		cmp	r7, #254
 1994 00b0 12DC     		bgt	.L145
 700:lvgl/src/core/lv_obj_style.c ****                 else value_final.ptr = tr->end_value.ptr;
 1995              		.loc 1 700 29 is_stmt 1 discriminator 1 view .LVU563
 700:lvgl/src/core/lv_obj_style.c ****                 else value_final.ptr = tr->end_value.ptr;
 1996              		.loc 1 700 62 is_stmt 0 discriminator 1 view .LVU564
 1997 00b2 E768     		ldr	r7, [r4, #12]
 1998              	.LVL178:
 700:lvgl/src/core/lv_obj_style.c ****                 else value_final.ptr = tr->end_value.ptr;
 1999              		.loc 1 700 62 discriminator 1 view .LVU565
 2000 00b4 02E0     		b	.L144
 2001              	.LVL179:
 2002              	.L138:
 695:lvgl/src/core/lv_obj_style.c ****                 else value_final.num = tr->end_value.num;
 2003              		.loc 1 695 17 is_stmt 1 view .LVU566
 695:lvgl/src/core/lv_obj_style.c ****                 else value_final.num = tr->end_value.num;
 2004              		.loc 1 695 19 is_stmt 0 view .LVU567
 2005 00b6 FE2F     		cmp	r7, #254
 2006 00b8 0CDC     		bgt	.L143
 695:lvgl/src/core/lv_obj_style.c ****                 else value_final.num = tr->end_value.num;
 2007              		.loc 1 695 29 is_stmt 1 discriminator 1 view .LVU568
 695:lvgl/src/core/lv_obj_style.c ****                 else value_final.num = tr->end_value.num;
 2008              		.loc 1 695 62 is_stmt 0 discriminator 1 view .LVU569
 2009 00ba E768     		ldr	r7, [r4, #12]
 2010              	.LVL180:
 2011              	.L144:
 727:lvgl/src/core/lv_obj_style.c ****         bool refr = true;
 2012              		.loc 1 727 9 is_stmt 1 view .LVU570
 728:lvgl/src/core/lv_obj_style.c ****         if(lv_style_get_prop(obj->styles[i].style, tr->prop, &old_value)) {
 2013              		.loc 1 728 9 view .LVU571
 729:lvgl/src/core/lv_obj_style.c ****             if(value_final.ptr == old_value.ptr && value_final.color.full == old_value.color.full &
 2014              		.loc 1 729 9 view .LVU572
 729:lvgl/src/core/lv_obj_style.c ****             if(value_final.ptr == old_value.ptr && value_final.color.full == old_value.color.full &
 2015              		.loc 1 729 12 is_stmt 0 view .LVU573
 2016 00bc 01AA     		add	r2, sp, #4
 2017 00be 1868     		ldr	r0, [r3]
 2018 00c0 FFF7FEFF 		bl	lv_style_get_prop
 2019              	.LVL181:
 729:lvgl/src/core/lv_obj_style.c ****             if(value_final.ptr == old_value.ptr && value_final.color.full == old_value.color.full &
 2020              		.loc 1 729 11 view .LVU574
 2021 00c4 0028     		cmp	r0, #0
 2022 00c6 78D0     		beq	.L157
 730:lvgl/src/core/lv_obj_style.c ****                 refr = false;
ARM GAS  C:\Users\BLACK_~1\AppData\Local\Temp\ccbv02In.s 			page 63


 2023              		.loc 1 730 13 is_stmt 1 view .LVU575
 730:lvgl/src/core/lv_obj_style.c ****                 refr = false;
 2024              		.loc 1 730 44 is_stmt 0 view .LVU576
 2025 00c8 019B     		ldr	r3, [sp, #4]
 730:lvgl/src/core/lv_obj_style.c ****                 refr = false;
 2026              		.loc 1 730 15 view .LVU577
 2027 00ca 9F42     		cmp	r7, r3
 2028 00cc 71D0     		beq	.L161
 728:lvgl/src/core/lv_obj_style.c ****         if(lv_style_get_prop(obj->styles[i].style, tr->prop, &old_value)) {
 2029              		.loc 1 728 14 view .LVU578
 2030 00ce 4FF00108 		mov	r8, #1
 2031 00d2 74E0     		b	.L153
 2032              	.LVL182:
 2033              	.L143:
 696:lvgl/src/core/lv_obj_style.c ****                 break;
 2034              		.loc 1 696 22 is_stmt 1 view .LVU579
 696:lvgl/src/core/lv_obj_style.c ****                 break;
 2035              		.loc 1 696 53 is_stmt 0 view .LVU580
 2036 00d4 2769     		ldr	r7, [r4, #16]
 2037              	.LVL183:
 696:lvgl/src/core/lv_obj_style.c ****                 break;
 2038              		.loc 1 696 53 view .LVU581
 2039 00d6 F1E7     		b	.L144
 2040              	.LVL184:
 2041              	.L145:
 701:lvgl/src/core/lv_obj_style.c ****                 break;
 2042              		.loc 1 701 22 is_stmt 1 view .LVU582
 701:lvgl/src/core/lv_obj_style.c ****                 break;
 2043              		.loc 1 701 53 is_stmt 0 view .LVU583
 2044 00d8 2769     		ldr	r7, [r4, #16]
 2045              	.LVL185:
 701:lvgl/src/core/lv_obj_style.c ****                 break;
 2046              		.loc 1 701 53 view .LVU584
 2047 00da EFE7     		b	.L144
 2048              	.LVL186:
 2049              	.L141:
 704:lvgl/src/core/lv_obj_style.c ****                 else if(tr->end_value.ptr == NULL) value_final.ptr = tr->start_value.ptr;
 2050              		.loc 1 704 17 is_stmt 1 view .LVU585
 704:lvgl/src/core/lv_obj_style.c ****                 else if(tr->end_value.ptr == NULL) value_final.ptr = tr->start_value.ptr;
 2051              		.loc 1 704 35 is_stmt 0 view .LVU586
 2052 00dc E268     		ldr	r2, [r4, #12]
 704:lvgl/src/core/lv_obj_style.c ****                 else if(tr->end_value.ptr == NULL) value_final.ptr = tr->start_value.ptr;
 2053              		.loc 1 704 19 view .LVU587
 2054 00de 2AB1     		cbz	r2, .L162
 705:lvgl/src/core/lv_obj_style.c ****                 else if(v < 128) value_final.ptr = tr->start_value.ptr;
 2055              		.loc 1 705 22 is_stmt 1 view .LVU588
 705:lvgl/src/core/lv_obj_style.c ****                 else if(v < 128) value_final.ptr = tr->start_value.ptr;
 2056              		.loc 1 705 38 is_stmt 0 view .LVU589
 2057 00e0 2069     		ldr	r0, [r4, #16]
 705:lvgl/src/core/lv_obj_style.c ****                 else if(v < 128) value_final.ptr = tr->start_value.ptr;
 2058              		.loc 1 705 24 view .LVU590
 2059 00e2 28B1     		cbz	r0, .L163
 706:lvgl/src/core/lv_obj_style.c ****                 else value_final.ptr = tr->end_value.ptr;
 2060              		.loc 1 706 22 is_stmt 1 view .LVU591
 706:lvgl/src/core/lv_obj_style.c ****                 else value_final.ptr = tr->end_value.ptr;
 2061              		.loc 1 706 24 is_stmt 0 view .LVU592
 2062 00e4 7F2F     		cmp	r7, #127
ARM GAS  C:\Users\BLACK_~1\AppData\Local\Temp\ccbv02In.s 			page 64


 2063 00e6 05DC     		bgt	.L148
 706:lvgl/src/core/lv_obj_style.c ****                 else value_final.ptr = tr->end_value.ptr;
 2064              		.loc 1 706 34 is_stmt 1 discriminator 1 view .LVU593
 706:lvgl/src/core/lv_obj_style.c ****                 else value_final.ptr = tr->end_value.ptr;
 2065              		.loc 1 706 50 is_stmt 0 discriminator 1 view .LVU594
 2066 00e8 1746     		mov	r7, r2
 2067              	.LVL187:
 706:lvgl/src/core/lv_obj_style.c ****                 else value_final.ptr = tr->end_value.ptr;
 2068              		.loc 1 706 50 discriminator 1 view .LVU595
 2069 00ea E7E7     		b	.L144
 2070              	.LVL188:
 2071              	.L162:
 704:lvgl/src/core/lv_obj_style.c ****                 else if(tr->end_value.ptr == NULL) value_final.ptr = tr->start_value.ptr;
 2072              		.loc 1 704 49 is_stmt 1 discriminator 1 view .LVU596
 704:lvgl/src/core/lv_obj_style.c ****                 else if(tr->end_value.ptr == NULL) value_final.ptr = tr->start_value.ptr;
 2073              		.loc 1 704 80 is_stmt 0 discriminator 1 view .LVU597
 2074 00ec 2769     		ldr	r7, [r4, #16]
 2075              	.LVL189:
 704:lvgl/src/core/lv_obj_style.c ****                 else if(tr->end_value.ptr == NULL) value_final.ptr = tr->start_value.ptr;
 2076              		.loc 1 704 80 discriminator 1 view .LVU598
 2077 00ee E5E7     		b	.L144
 2078              	.LVL190:
 2079              	.L163:
 705:lvgl/src/core/lv_obj_style.c ****                 else if(v < 128) value_final.ptr = tr->start_value.ptr;
 2080              		.loc 1 705 52 is_stmt 1 discriminator 1 view .LVU599
 705:lvgl/src/core/lv_obj_style.c ****                 else if(v < 128) value_final.ptr = tr->start_value.ptr;
 2081              		.loc 1 705 68 is_stmt 0 discriminator 1 view .LVU600
 2082 00f0 1746     		mov	r7, r2
 2083              	.LVL191:
 705:lvgl/src/core/lv_obj_style.c ****                 else if(v < 128) value_final.ptr = tr->start_value.ptr;
 2084              		.loc 1 705 68 discriminator 1 view .LVU601
 2085 00f2 E3E7     		b	.L144
 2086              	.LVL192:
 2087              	.L148:
 707:lvgl/src/core/lv_obj_style.c ****                 break;
 2088              		.loc 1 707 22 is_stmt 1 view .LVU602
 707:lvgl/src/core/lv_obj_style.c ****                 break;
 2089              		.loc 1 707 38 is_stmt 0 view .LVU603
 2090 00f4 0746     		mov	r7, r0
 2091              	.LVL193:
 707:lvgl/src/core/lv_obj_style.c ****                 break;
 2092              		.loc 1 707 38 view .LVU604
 2093 00f6 E1E7     		b	.L144
 2094              	.LVL194:
 2095              	.L142:
 715:lvgl/src/core/lv_obj_style.c ****                 else if(v >= 255) value_final.color = tr->end_value.color;
 2096              		.loc 1 715 17 is_stmt 1 view .LVU605
 715:lvgl/src/core/lv_obj_style.c ****                 else if(v >= 255) value_final.color = tr->end_value.color;
 2097              		.loc 1 715 19 is_stmt 0 view .LVU606
 2098 00f8 002F     		cmp	r7, #0
 2099 00fa 06DD     		ble	.L164
 716:lvgl/src/core/lv_obj_style.c ****                 else value_final.color = lv_color_mix(tr->end_value.color, tr->start_value.color, v
 2100              		.loc 1 716 22 is_stmt 1 view .LVU607
 716:lvgl/src/core/lv_obj_style.c ****                 else value_final.color = lv_color_mix(tr->end_value.color, tr->start_value.color, v
 2101              		.loc 1 716 24 is_stmt 0 view .LVU608
 2102 00fc FE2F     		cmp	r7, #254
 2103 00fe 09DD     		ble	.L150
ARM GAS  C:\Users\BLACK_~1\AppData\Local\Temp\ccbv02In.s 			page 65


 716:lvgl/src/core/lv_obj_style.c ****                 else value_final.color = lv_color_mix(tr->end_value.color, tr->start_value.color, v
 2104              		.loc 1 716 35 is_stmt 1 discriminator 1 view .LVU609
 716:lvgl/src/core/lv_obj_style.c ****                 else value_final.color = lv_color_mix(tr->end_value.color, tr->start_value.color, v
 2105              		.loc 1 716 53 is_stmt 0 discriminator 1 view .LVU610
 2106 0100 228A     		ldrh	r2, [r4, #16]
 2107 0102 0027     		movs	r7, #0
 2108              	.LVL195:
 716:lvgl/src/core/lv_obj_style.c ****                 else value_final.color = lv_color_mix(tr->end_value.color, tr->start_value.color, v
 2109              		.loc 1 716 53 discriminator 1 view .LVU611
 2110 0104 62F30F07 		bfi	r7, r2, #0, #16
 2111              	.LVL196:
 716:lvgl/src/core/lv_obj_style.c ****                 else value_final.color = lv_color_mix(tr->end_value.color, tr->start_value.color, v
 2112              		.loc 1 716 53 discriminator 1 view .LVU612
 2113 0108 D8E7     		b	.L144
 2114              	.LVL197:
 2115              	.L164:
 715:lvgl/src/core/lv_obj_style.c ****                 else if(v >= 255) value_final.color = tr->end_value.color;
 2116              		.loc 1 715 28 is_stmt 1 discriminator 1 view .LVU613
 715:lvgl/src/core/lv_obj_style.c ****                 else if(v >= 255) value_final.color = tr->end_value.color;
 2117              		.loc 1 715 46 is_stmt 0 discriminator 1 view .LVU614
 2118 010a A289     		ldrh	r2, [r4, #12]
 2119 010c 0027     		movs	r7, #0
 2120              	.LVL198:
 715:lvgl/src/core/lv_obj_style.c ****                 else if(v >= 255) value_final.color = tr->end_value.color;
 2121              		.loc 1 715 46 discriminator 1 view .LVU615
 2122 010e 62F30F07 		bfi	r7, r2, #0, #16
 2123              	.LVL199:
 715:lvgl/src/core/lv_obj_style.c ****                 else if(v >= 255) value_final.color = tr->end_value.color;
 2124              		.loc 1 715 46 discriminator 1 view .LVU616
 2125 0112 D3E7     		b	.L144
 2126              	.LVL200:
 2127              	.L150:
 717:lvgl/src/core/lv_obj_style.c ****                 break;
 2128              		.loc 1 717 22 is_stmt 1 view .LVU617
 717:lvgl/src/core/lv_obj_style.c ****                 break;
 2129              		.loc 1 717 42 is_stmt 0 view .LVU618
 2130 0114 FFB2     		uxtb	r7, r7
 2131              	.LVL201:
 717:lvgl/src/core/lv_obj_style.c ****                 break;
 2132              		.loc 1 717 42 view .LVU619
 2133 0116 B4F810E0 		ldrh	lr, [r4, #16]
 2134 011a B4F80C80 		ldrh	r8, [r4, #12]
 2135              	.LVL202:
 2136              	.LBB80:
 2137              	.LBI80:
 2138              		.file 3 "lvgl/src/core/../misc/lv_color.h"
   1:lvgl/src/core/../misc/lv_color.h **** /**
   2:lvgl/src/core/../misc/lv_color.h ****  * @file lv_color.h
   3:lvgl/src/core/../misc/lv_color.h ****  *
   4:lvgl/src/core/../misc/lv_color.h ****  */
   5:lvgl/src/core/../misc/lv_color.h **** 
   6:lvgl/src/core/../misc/lv_color.h **** #ifndef LV_COLOR_H
   7:lvgl/src/core/../misc/lv_color.h **** #define LV_COLOR_H
   8:lvgl/src/core/../misc/lv_color.h **** 
   9:lvgl/src/core/../misc/lv_color.h **** #ifdef __cplusplus
  10:lvgl/src/core/../misc/lv_color.h **** extern "C" {
  11:lvgl/src/core/../misc/lv_color.h **** #endif
ARM GAS  C:\Users\BLACK_~1\AppData\Local\Temp\ccbv02In.s 			page 66


  12:lvgl/src/core/../misc/lv_color.h **** 
  13:lvgl/src/core/../misc/lv_color.h **** /*********************
  14:lvgl/src/core/../misc/lv_color.h ****  *      INCLUDES
  15:lvgl/src/core/../misc/lv_color.h ****  *********************/
  16:lvgl/src/core/../misc/lv_color.h **** #include "../lv_conf_internal.h"
  17:lvgl/src/core/../misc/lv_color.h **** #include "lv_math.h"
  18:lvgl/src/core/../misc/lv_color.h **** #include "lv_types.h"
  19:lvgl/src/core/../misc/lv_color.h **** 
  20:lvgl/src/core/../misc/lv_color.h **** /*Error checking*/
  21:lvgl/src/core/../misc/lv_color.h **** #if LV_COLOR_DEPTH == 24
  22:lvgl/src/core/../misc/lv_color.h **** #error "LV_COLOR_DEPTH 24 is deprecated. Use LV_COLOR_DEPTH 32 instead (lv_conf.h)"
  23:lvgl/src/core/../misc/lv_color.h **** #endif
  24:lvgl/src/core/../misc/lv_color.h **** 
  25:lvgl/src/core/../misc/lv_color.h **** #if LV_COLOR_DEPTH != 32 && LV_COLOR_SCREEN_TRANSP != 0
  26:lvgl/src/core/../misc/lv_color.h **** #error "LV_COLOR_SCREEN_TRANSP requires LV_COLOR_DEPTH == 32. Set it in lv_conf.h"
  27:lvgl/src/core/../misc/lv_color.h **** #endif
  28:lvgl/src/core/../misc/lv_color.h **** 
  29:lvgl/src/core/../misc/lv_color.h **** #if LV_COLOR_DEPTH != 16 && LV_COLOR_16_SWAP != 0
  30:lvgl/src/core/../misc/lv_color.h **** #error "LV_COLOR_16_SWAP requires LV_COLOR_DEPTH == 16. Set it in lv_conf.h"
  31:lvgl/src/core/../misc/lv_color.h **** #endif
  32:lvgl/src/core/../misc/lv_color.h **** 
  33:lvgl/src/core/../misc/lv_color.h **** #include <stdint.h>
  34:lvgl/src/core/../misc/lv_color.h **** 
  35:lvgl/src/core/../misc/lv_color.h **** /*********************
  36:lvgl/src/core/../misc/lv_color.h ****  *      DEFINES
  37:lvgl/src/core/../misc/lv_color.h ****  *********************/
  38:lvgl/src/core/../misc/lv_color.h **** 
  39:lvgl/src/core/../misc/lv_color.h **** /**
  40:lvgl/src/core/../misc/lv_color.h ****  * Opacity percentages.
  41:lvgl/src/core/../misc/lv_color.h ****  */
  42:lvgl/src/core/../misc/lv_color.h **** enum {
  43:lvgl/src/core/../misc/lv_color.h ****     LV_OPA_TRANSP = 0,
  44:lvgl/src/core/../misc/lv_color.h ****     LV_OPA_0      = 0,
  45:lvgl/src/core/../misc/lv_color.h ****     LV_OPA_10     = 25,
  46:lvgl/src/core/../misc/lv_color.h ****     LV_OPA_20     = 51,
  47:lvgl/src/core/../misc/lv_color.h ****     LV_OPA_30     = 76,
  48:lvgl/src/core/../misc/lv_color.h ****     LV_OPA_40     = 102,
  49:lvgl/src/core/../misc/lv_color.h ****     LV_OPA_50     = 127,
  50:lvgl/src/core/../misc/lv_color.h ****     LV_OPA_60     = 153,
  51:lvgl/src/core/../misc/lv_color.h ****     LV_OPA_70     = 178,
  52:lvgl/src/core/../misc/lv_color.h ****     LV_OPA_80     = 204,
  53:lvgl/src/core/../misc/lv_color.h ****     LV_OPA_90     = 229,
  54:lvgl/src/core/../misc/lv_color.h ****     LV_OPA_100    = 255,
  55:lvgl/src/core/../misc/lv_color.h ****     LV_OPA_COVER  = 255,
  56:lvgl/src/core/../misc/lv_color.h **** };
  57:lvgl/src/core/../misc/lv_color.h **** 
  58:lvgl/src/core/../misc/lv_color.h **** #define LV_OPA_MIN 2    /*Opacities below this will be transparent*/
  59:lvgl/src/core/../misc/lv_color.h **** #define LV_OPA_MAX 253  /*Opacities above this will fully cover*/
  60:lvgl/src/core/../misc/lv_color.h **** 
  61:lvgl/src/core/../misc/lv_color.h **** #if LV_COLOR_DEPTH == 1
  62:lvgl/src/core/../misc/lv_color.h **** #define LV_COLOR_SIZE 8
  63:lvgl/src/core/../misc/lv_color.h **** #elif LV_COLOR_DEPTH == 8
  64:lvgl/src/core/../misc/lv_color.h **** #define LV_COLOR_SIZE 8
  65:lvgl/src/core/../misc/lv_color.h **** #elif LV_COLOR_DEPTH == 16
  66:lvgl/src/core/../misc/lv_color.h **** #define LV_COLOR_SIZE 16
  67:lvgl/src/core/../misc/lv_color.h **** #elif LV_COLOR_DEPTH == 32
  68:lvgl/src/core/../misc/lv_color.h **** #define LV_COLOR_SIZE 32
ARM GAS  C:\Users\BLACK_~1\AppData\Local\Temp\ccbv02In.s 			page 67


  69:lvgl/src/core/../misc/lv_color.h **** #else
  70:lvgl/src/core/../misc/lv_color.h **** #error "Invalid LV_COLOR_DEPTH in lv_conf.h! Set it to 1, 8, 16 or 32!"
  71:lvgl/src/core/../misc/lv_color.h **** #endif
  72:lvgl/src/core/../misc/lv_color.h **** 
  73:lvgl/src/core/../misc/lv_color.h **** /**
  74:lvgl/src/core/../misc/lv_color.h ****  * Adjust color mix functions rounding.
  75:lvgl/src/core/../misc/lv_color.h ****  * GPUs might calculate color mix (blending) differently.
  76:lvgl/src/core/../misc/lv_color.h ****  * Should be in range of 0..254
  77:lvgl/src/core/../misc/lv_color.h ****  * 0: no adjustment, get the integer part of the result (round down)
  78:lvgl/src/core/../misc/lv_color.h ****  * 64: round up from x.75
  79:lvgl/src/core/../misc/lv_color.h ****  * 128: round up from half
  80:lvgl/src/core/../misc/lv_color.h ****  * 192: round up from x.25
  81:lvgl/src/core/../misc/lv_color.h ****  * 254: round up*/
  82:lvgl/src/core/../misc/lv_color.h **** #ifndef LV_COLOR_MIX_ROUND_OFS
  83:lvgl/src/core/../misc/lv_color.h **** #if LV_COLOR_DEPTH == 32
  84:lvgl/src/core/../misc/lv_color.h **** #define LV_COLOR_MIX_ROUND_OFS 0
  85:lvgl/src/core/../misc/lv_color.h **** #else
  86:lvgl/src/core/../misc/lv_color.h **** #define LV_COLOR_MIX_ROUND_OFS 128
  87:lvgl/src/core/../misc/lv_color.h **** #endif
  88:lvgl/src/core/../misc/lv_color.h **** #endif
  89:lvgl/src/core/../misc/lv_color.h **** 
  90:lvgl/src/core/../misc/lv_color.h **** #if defined(__cplusplus) && !defined(_LV_COLOR_HAS_MODERN_CPP)
  91:lvgl/src/core/../misc/lv_color.h **** /**
  92:lvgl/src/core/../misc/lv_color.h **** * MSVC compiler's definition of the __cplusplus indicating 199711L regardless to C++ standard versi
  93:lvgl/src/core/../misc/lv_color.h **** * see https://devblogs.microsoft.com/cppblog/msvc-now-correctly-reports-cplusplus
  94:lvgl/src/core/../misc/lv_color.h **** * so we use _MSC_VER macro instead of __cplusplus
  95:lvgl/src/core/../misc/lv_color.h **** */
  96:lvgl/src/core/../misc/lv_color.h **** #ifdef _MSC_VER
  97:lvgl/src/core/../misc/lv_color.h **** #if _MSC_VER >= 1900 /*Visual Studio 2015*/
  98:lvgl/src/core/../misc/lv_color.h **** #define _LV_COLOR_HAS_MODERN_CPP 1
  99:lvgl/src/core/../misc/lv_color.h **** #endif
 100:lvgl/src/core/../misc/lv_color.h **** #else
 101:lvgl/src/core/../misc/lv_color.h **** #if __cplusplus >= 201103L
 102:lvgl/src/core/../misc/lv_color.h **** #define _LV_COLOR_HAS_MODERN_CPP 1
 103:lvgl/src/core/../misc/lv_color.h **** #endif
 104:lvgl/src/core/../misc/lv_color.h **** #endif
 105:lvgl/src/core/../misc/lv_color.h **** #endif /*__cplusplus*/
 106:lvgl/src/core/../misc/lv_color.h **** 
 107:lvgl/src/core/../misc/lv_color.h **** #ifndef _LV_COLOR_HAS_MODERN_CPP
 108:lvgl/src/core/../misc/lv_color.h **** #define _LV_COLOR_HAS_MODERN_CPP 0
 109:lvgl/src/core/../misc/lv_color.h **** #endif
 110:lvgl/src/core/../misc/lv_color.h **** 
 111:lvgl/src/core/../misc/lv_color.h **** #if _LV_COLOR_HAS_MODERN_CPP
 112:lvgl/src/core/../misc/lv_color.h **** /*Fix msvc compiler error C4576 inside C++ code*/
 113:lvgl/src/core/../misc/lv_color.h **** #define _LV_COLOR_MAKE_TYPE_HELPER lv_color_t
 114:lvgl/src/core/../misc/lv_color.h **** #else
 115:lvgl/src/core/../misc/lv_color.h **** #define _LV_COLOR_MAKE_TYPE_HELPER (lv_color_t)
 116:lvgl/src/core/../misc/lv_color.h **** #endif
 117:lvgl/src/core/../misc/lv_color.h **** 
 118:lvgl/src/core/../misc/lv_color.h **** /*---------------------------------------
 119:lvgl/src/core/../misc/lv_color.h ****  * Macros for all existing color depths
 120:lvgl/src/core/../misc/lv_color.h ****  * to set/get values of the color channels
 121:lvgl/src/core/../misc/lv_color.h ****  *------------------------------------------*/
 122:lvgl/src/core/../misc/lv_color.h **** # define LV_COLOR_SET_R1(c, v) (c).ch.red = (uint8_t)((v) & 0x1)
 123:lvgl/src/core/../misc/lv_color.h **** # define LV_COLOR_SET_G1(c, v) (c).ch.green = (uint8_t)((v) & 0x1)
 124:lvgl/src/core/../misc/lv_color.h **** # define LV_COLOR_SET_B1(c, v) (c).ch.blue = (uint8_t)((v) & 0x1)
 125:lvgl/src/core/../misc/lv_color.h **** # define LV_COLOR_SET_A1(c, v) do {} while(0)
ARM GAS  C:\Users\BLACK_~1\AppData\Local\Temp\ccbv02In.s 			page 68


 126:lvgl/src/core/../misc/lv_color.h **** 
 127:lvgl/src/core/../misc/lv_color.h **** # define LV_COLOR_GET_R1(c) (c).ch.red
 128:lvgl/src/core/../misc/lv_color.h **** # define LV_COLOR_GET_G1(c) (c).ch.green
 129:lvgl/src/core/../misc/lv_color.h **** # define LV_COLOR_GET_B1(c) (c).ch.blue
 130:lvgl/src/core/../misc/lv_color.h **** # define LV_COLOR_GET_A1(c) 0xFF
 131:lvgl/src/core/../misc/lv_color.h **** 
 132:lvgl/src/core/../misc/lv_color.h **** # define _LV_COLOR_ZERO_INITIALIZER1 {0x00}
 133:lvgl/src/core/../misc/lv_color.h **** # define LV_COLOR_MAKE1(r8, g8, b8)  {(uint8_t)((b8 >> 7) | (g8 >> 7) | (r8 >> 7))}
 134:lvgl/src/core/../misc/lv_color.h **** 
 135:lvgl/src/core/../misc/lv_color.h **** # define LV_COLOR_SET_R8(c, v) (c).ch.red = (uint8_t)((v) & 0x7U)
 136:lvgl/src/core/../misc/lv_color.h **** # define LV_COLOR_SET_G8(c, v) (c).ch.green = (uint8_t)((v) & 0x7U)
 137:lvgl/src/core/../misc/lv_color.h **** # define LV_COLOR_SET_B8(c, v) (c).ch.blue = (uint8_t)((v) & 0x3U)
 138:lvgl/src/core/../misc/lv_color.h **** # define LV_COLOR_SET_A8(c, v) do {} while(0)
 139:lvgl/src/core/../misc/lv_color.h **** 
 140:lvgl/src/core/../misc/lv_color.h **** # define LV_COLOR_GET_R8(c) (c).ch.red
 141:lvgl/src/core/../misc/lv_color.h **** # define LV_COLOR_GET_G8(c) (c).ch.green
 142:lvgl/src/core/../misc/lv_color.h **** # define LV_COLOR_GET_B8(c) (c).ch.blue
 143:lvgl/src/core/../misc/lv_color.h **** # define LV_COLOR_GET_A8(c) 0xFF
 144:lvgl/src/core/../misc/lv_color.h **** 
 145:lvgl/src/core/../misc/lv_color.h **** # define _LV_COLOR_ZERO_INITIALIZER8 {{0x00, 0x00, 0x00}}
 146:lvgl/src/core/../misc/lv_color.h **** # define LV_COLOR_MAKE8(r8, g8, b8) {{(uint8_t)((b8 >> 6) & 0x3U), (uint8_t)((g8 >> 5) & 0x7U), (ui
 147:lvgl/src/core/../misc/lv_color.h **** 
 148:lvgl/src/core/../misc/lv_color.h **** # define LV_COLOR_SET_R16(c, v) (c).ch.red = (uint8_t)((v) & 0x1FU)
 149:lvgl/src/core/../misc/lv_color.h **** #if LV_COLOR_16_SWAP == 0
 150:lvgl/src/core/../misc/lv_color.h **** # define LV_COLOR_SET_G16(c, v) (c).ch.green = (uint8_t)((v) & 0x3FU)
 151:lvgl/src/core/../misc/lv_color.h **** #else
 152:lvgl/src/core/../misc/lv_color.h **** # define LV_COLOR_SET_G16(c, v) {(c).ch.green_h = (uint8_t)(((v) >> 3) & 0x7); (c).ch.green_l = (ui
 153:lvgl/src/core/../misc/lv_color.h **** #endif
 154:lvgl/src/core/../misc/lv_color.h **** # define LV_COLOR_SET_B16(c, v) (c).ch.blue = (uint8_t)((v) & 0x1FU)
 155:lvgl/src/core/../misc/lv_color.h **** # define LV_COLOR_SET_A16(c, v) do {} while(0)
 156:lvgl/src/core/../misc/lv_color.h **** 
 157:lvgl/src/core/../misc/lv_color.h **** # define LV_COLOR_GET_R16(c) (c).ch.red
 158:lvgl/src/core/../misc/lv_color.h **** #if LV_COLOR_16_SWAP == 0
 159:lvgl/src/core/../misc/lv_color.h **** # define LV_COLOR_GET_G16(c) (c).ch.green
 160:lvgl/src/core/../misc/lv_color.h **** #else
 161:lvgl/src/core/../misc/lv_color.h **** # define LV_COLOR_GET_G16(c) (((c).ch.green_h << 3) + (c).ch.green_l)
 162:lvgl/src/core/../misc/lv_color.h **** #endif
 163:lvgl/src/core/../misc/lv_color.h **** # define LV_COLOR_GET_B16(c) (c).ch.blue
 164:lvgl/src/core/../misc/lv_color.h **** # define LV_COLOR_GET_A16(c) 0xFF
 165:lvgl/src/core/../misc/lv_color.h **** 
 166:lvgl/src/core/../misc/lv_color.h **** #if LV_COLOR_16_SWAP == 0
 167:lvgl/src/core/../misc/lv_color.h **** # define _LV_COLOR_ZERO_INITIALIZER16  {{0x00, 0x00, 0x00}}
 168:lvgl/src/core/../misc/lv_color.h **** # define LV_COLOR_MAKE16(r8, g8, b8) {{(uint8_t)((b8 >> 3) & 0x1FU), (uint8_t)((g8 >> 2) & 0x3FU), 
 169:lvgl/src/core/../misc/lv_color.h **** #else
 170:lvgl/src/core/../misc/lv_color.h **** # define _LV_COLOR_ZERO_INITIALIZER16 {{0x00, 0x00, 0x00, 0x00}}
 171:lvgl/src/core/../misc/lv_color.h **** # define LV_COLOR_MAKE16(r8, g8, b8) {{(uint8_t)((g8 >> 5) & 0x7U), (uint8_t)((r8 >> 3) & 0x1FU), (
 172:lvgl/src/core/../misc/lv_color.h **** #endif
 173:lvgl/src/core/../misc/lv_color.h **** 
 174:lvgl/src/core/../misc/lv_color.h **** # define LV_COLOR_SET_R32(c, v) (c).ch.red = (uint8_t)((v) & 0xFF)
 175:lvgl/src/core/../misc/lv_color.h **** # define LV_COLOR_SET_G32(c, v) (c).ch.green = (uint8_t)((v) & 0xFF)
 176:lvgl/src/core/../misc/lv_color.h **** # define LV_COLOR_SET_B32(c, v) (c).ch.blue = (uint8_t)((v) & 0xFF)
 177:lvgl/src/core/../misc/lv_color.h **** # define LV_COLOR_SET_A32(c, v) (c).ch.alpha = (uint8_t)((v) & 0xFF)
 178:lvgl/src/core/../misc/lv_color.h **** 
 179:lvgl/src/core/../misc/lv_color.h **** # define LV_COLOR_GET_R32(c) (c).ch.red
 180:lvgl/src/core/../misc/lv_color.h **** # define LV_COLOR_GET_G32(c) (c).ch.green
 181:lvgl/src/core/../misc/lv_color.h **** # define LV_COLOR_GET_B32(c) (c).ch.blue
 182:lvgl/src/core/../misc/lv_color.h **** # define LV_COLOR_GET_A32(c) (c).ch.alpha
ARM GAS  C:\Users\BLACK_~1\AppData\Local\Temp\ccbv02In.s 			page 69


 183:lvgl/src/core/../misc/lv_color.h **** 
 184:lvgl/src/core/../misc/lv_color.h **** # define _LV_COLOR_ZERO_INITIALIZER32  {{0x00, 0x00, 0x00, 0x00}}
 185:lvgl/src/core/../misc/lv_color.h **** # define LV_COLOR_MAKE32(r8, g8, b8) {{b8, g8, r8, 0xff}} /*Fix 0xff alpha*/
 186:lvgl/src/core/../misc/lv_color.h **** 
 187:lvgl/src/core/../misc/lv_color.h **** /*---------------------------------------
 188:lvgl/src/core/../misc/lv_color.h ****  * Macros for the current color depth
 189:lvgl/src/core/../misc/lv_color.h ****  * to set/get values of the color channels
 190:lvgl/src/core/../misc/lv_color.h ****  *------------------------------------------*/
 191:lvgl/src/core/../misc/lv_color.h **** #define LV_COLOR_SET_R(c, v) LV_CONCAT(LV_COLOR_SET_R, LV_COLOR_DEPTH)(c, v)
 192:lvgl/src/core/../misc/lv_color.h **** #define LV_COLOR_SET_G(c, v) LV_CONCAT(LV_COLOR_SET_G, LV_COLOR_DEPTH)(c, v)
 193:lvgl/src/core/../misc/lv_color.h **** #define LV_COLOR_SET_B(c, v) LV_CONCAT(LV_COLOR_SET_B, LV_COLOR_DEPTH)(c, v)
 194:lvgl/src/core/../misc/lv_color.h **** #define LV_COLOR_SET_A(c, v) LV_CONCAT(LV_COLOR_SET_A, LV_COLOR_DEPTH)(c, v)
 195:lvgl/src/core/../misc/lv_color.h **** 
 196:lvgl/src/core/../misc/lv_color.h **** #define LV_COLOR_GET_R(c) LV_CONCAT(LV_COLOR_GET_R, LV_COLOR_DEPTH)(c)
 197:lvgl/src/core/../misc/lv_color.h **** #define LV_COLOR_GET_G(c) LV_CONCAT(LV_COLOR_GET_G, LV_COLOR_DEPTH)(c)
 198:lvgl/src/core/../misc/lv_color.h **** #define LV_COLOR_GET_B(c) LV_CONCAT(LV_COLOR_GET_B, LV_COLOR_DEPTH)(c)
 199:lvgl/src/core/../misc/lv_color.h **** #define LV_COLOR_GET_A(c) LV_CONCAT(LV_COLOR_GET_A, LV_COLOR_DEPTH)(c)
 200:lvgl/src/core/../misc/lv_color.h **** 
 201:lvgl/src/core/../misc/lv_color.h **** #define _LV_COLOR_ZERO_INITIALIZER LV_CONCAT(_LV_COLOR_ZERO_INITIALIZER, LV_COLOR_DEPTH)
 202:lvgl/src/core/../misc/lv_color.h **** #define LV_COLOR_MAKE(r8, g8, b8) LV_CONCAT(LV_COLOR_MAKE, LV_COLOR_DEPTH)(r8, g8, b8)
 203:lvgl/src/core/../misc/lv_color.h **** 
 204:lvgl/src/core/../misc/lv_color.h **** #define LV_UDIV255(x) ((uint32_t)((uint32_t) (x) * 0x8081) >> 0x17)
 205:lvgl/src/core/../misc/lv_color.h **** 
 206:lvgl/src/core/../misc/lv_color.h **** /**********************
 207:lvgl/src/core/../misc/lv_color.h ****  *      TYPEDEFS
 208:lvgl/src/core/../misc/lv_color.h ****  **********************/
 209:lvgl/src/core/../misc/lv_color.h **** 
 210:lvgl/src/core/../misc/lv_color.h **** typedef union {
 211:lvgl/src/core/../misc/lv_color.h ****     uint8_t full; /*must be declared first to set all bits of byte via initializer list*/
 212:lvgl/src/core/../misc/lv_color.h ****     union {
 213:lvgl/src/core/../misc/lv_color.h ****         uint8_t blue : 1;
 214:lvgl/src/core/../misc/lv_color.h ****         uint8_t green : 1;
 215:lvgl/src/core/../misc/lv_color.h ****         uint8_t red : 1;
 216:lvgl/src/core/../misc/lv_color.h ****     } ch;
 217:lvgl/src/core/../misc/lv_color.h **** } lv_color1_t;
 218:lvgl/src/core/../misc/lv_color.h **** 
 219:lvgl/src/core/../misc/lv_color.h **** typedef union {
 220:lvgl/src/core/../misc/lv_color.h ****     struct {
 221:lvgl/src/core/../misc/lv_color.h ****         uint8_t blue : 2;
 222:lvgl/src/core/../misc/lv_color.h ****         uint8_t green : 3;
 223:lvgl/src/core/../misc/lv_color.h ****         uint8_t red : 3;
 224:lvgl/src/core/../misc/lv_color.h ****     } ch;
 225:lvgl/src/core/../misc/lv_color.h ****     uint8_t full;
 226:lvgl/src/core/../misc/lv_color.h **** } lv_color8_t;
 227:lvgl/src/core/../misc/lv_color.h **** 
 228:lvgl/src/core/../misc/lv_color.h **** typedef union {
 229:lvgl/src/core/../misc/lv_color.h ****     struct {
 230:lvgl/src/core/../misc/lv_color.h **** #if LV_COLOR_16_SWAP == 0
 231:lvgl/src/core/../misc/lv_color.h ****         uint16_t blue : 5;
 232:lvgl/src/core/../misc/lv_color.h ****         uint16_t green : 6;
 233:lvgl/src/core/../misc/lv_color.h ****         uint16_t red : 5;
 234:lvgl/src/core/../misc/lv_color.h **** #else
 235:lvgl/src/core/../misc/lv_color.h ****         uint16_t green_h : 3;
 236:lvgl/src/core/../misc/lv_color.h ****         uint16_t red : 5;
 237:lvgl/src/core/../misc/lv_color.h ****         uint16_t blue : 5;
 238:lvgl/src/core/../misc/lv_color.h ****         uint16_t green_l : 3;
 239:lvgl/src/core/../misc/lv_color.h **** #endif
ARM GAS  C:\Users\BLACK_~1\AppData\Local\Temp\ccbv02In.s 			page 70


 240:lvgl/src/core/../misc/lv_color.h ****     } ch;
 241:lvgl/src/core/../misc/lv_color.h ****     uint16_t full;
 242:lvgl/src/core/../misc/lv_color.h **** } lv_color16_t;
 243:lvgl/src/core/../misc/lv_color.h **** 
 244:lvgl/src/core/../misc/lv_color.h **** typedef union {
 245:lvgl/src/core/../misc/lv_color.h ****     struct {
 246:lvgl/src/core/../misc/lv_color.h ****         uint8_t blue;
 247:lvgl/src/core/../misc/lv_color.h ****         uint8_t green;
 248:lvgl/src/core/../misc/lv_color.h ****         uint8_t red;
 249:lvgl/src/core/../misc/lv_color.h ****         uint8_t alpha;
 250:lvgl/src/core/../misc/lv_color.h ****     } ch;
 251:lvgl/src/core/../misc/lv_color.h ****     uint32_t full;
 252:lvgl/src/core/../misc/lv_color.h **** } lv_color32_t;
 253:lvgl/src/core/../misc/lv_color.h **** 
 254:lvgl/src/core/../misc/lv_color.h **** typedef LV_CONCAT3(uint, LV_COLOR_SIZE, _t) lv_color_int_t;
 255:lvgl/src/core/../misc/lv_color.h **** typedef LV_CONCAT3(lv_color, LV_COLOR_DEPTH, _t) lv_color_t;
 256:lvgl/src/core/../misc/lv_color.h **** 
 257:lvgl/src/core/../misc/lv_color.h **** typedef struct {
 258:lvgl/src/core/../misc/lv_color.h ****     uint16_t h;
 259:lvgl/src/core/../misc/lv_color.h ****     uint8_t s;
 260:lvgl/src/core/../misc/lv_color.h ****     uint8_t v;
 261:lvgl/src/core/../misc/lv_color.h **** } lv_color_hsv_t;
 262:lvgl/src/core/../misc/lv_color.h **** 
 263:lvgl/src/core/../misc/lv_color.h **** //! @cond Doxygen_Suppress
 264:lvgl/src/core/../misc/lv_color.h **** /*No idea where the guard is required but else throws warnings in the docs*/
 265:lvgl/src/core/../misc/lv_color.h **** typedef uint8_t lv_opa_t;
 266:lvgl/src/core/../misc/lv_color.h **** //! @endcond
 267:lvgl/src/core/../misc/lv_color.h **** 
 268:lvgl/src/core/../misc/lv_color.h **** struct _lv_color_filter_dsc_t;
 269:lvgl/src/core/../misc/lv_color.h **** 
 270:lvgl/src/core/../misc/lv_color.h **** typedef lv_color_t (*lv_color_filter_cb_t)(const struct _lv_color_filter_dsc_t *, lv_color_t, lv_op
 271:lvgl/src/core/../misc/lv_color.h **** 
 272:lvgl/src/core/../misc/lv_color.h **** typedef struct _lv_color_filter_dsc_t {
 273:lvgl/src/core/../misc/lv_color.h ****     lv_color_filter_cb_t filter_cb;
 274:lvgl/src/core/../misc/lv_color.h ****     void * user_data;
 275:lvgl/src/core/../misc/lv_color.h **** }lv_color_filter_dsc_t;
 276:lvgl/src/core/../misc/lv_color.h **** 
 277:lvgl/src/core/../misc/lv_color.h **** 
 278:lvgl/src/core/../misc/lv_color.h **** typedef enum {
 279:lvgl/src/core/../misc/lv_color.h ****     LV_PALETTE_RED,
 280:lvgl/src/core/../misc/lv_color.h ****     LV_PALETTE_PINK,
 281:lvgl/src/core/../misc/lv_color.h ****     LV_PALETTE_PURPLE,
 282:lvgl/src/core/../misc/lv_color.h ****     LV_PALETTE_DEEP_PURPLE,
 283:lvgl/src/core/../misc/lv_color.h ****     LV_PALETTE_INDIGO,
 284:lvgl/src/core/../misc/lv_color.h ****     LV_PALETTE_BLUE,
 285:lvgl/src/core/../misc/lv_color.h ****     LV_PALETTE_LIGHT_BLUE,
 286:lvgl/src/core/../misc/lv_color.h ****     LV_PALETTE_CYAN,
 287:lvgl/src/core/../misc/lv_color.h ****     LV_PALETTE_TEAL,
 288:lvgl/src/core/../misc/lv_color.h ****     LV_PALETTE_GREEN,
 289:lvgl/src/core/../misc/lv_color.h ****     LV_PALETTE_LIGHT_GREEN,
 290:lvgl/src/core/../misc/lv_color.h ****     LV_PALETTE_LIME,
 291:lvgl/src/core/../misc/lv_color.h ****     LV_PALETTE_YELLOW,
 292:lvgl/src/core/../misc/lv_color.h ****     LV_PALETTE_AMBER,
 293:lvgl/src/core/../misc/lv_color.h ****     LV_PALETTE_ORANGE,
 294:lvgl/src/core/../misc/lv_color.h ****     LV_PALETTE_DEEP_ORANGE,
 295:lvgl/src/core/../misc/lv_color.h ****     LV_PALETTE_BROWN,
 296:lvgl/src/core/../misc/lv_color.h ****     LV_PALETTE_BLUE_GREY,
ARM GAS  C:\Users\BLACK_~1\AppData\Local\Temp\ccbv02In.s 			page 71


 297:lvgl/src/core/../misc/lv_color.h ****     LV_PALETTE_GREY,
 298:lvgl/src/core/../misc/lv_color.h ****     _LV_PALETTE_LAST,
 299:lvgl/src/core/../misc/lv_color.h ****     LV_PALETTE_NONE = 0xff,
 300:lvgl/src/core/../misc/lv_color.h **** }lv_palette_t;
 301:lvgl/src/core/../misc/lv_color.h **** 
 302:lvgl/src/core/../misc/lv_color.h **** /**********************
 303:lvgl/src/core/../misc/lv_color.h ****  * GLOBAL PROTOTYPES
 304:lvgl/src/core/../misc/lv_color.h ****  **********************/
 305:lvgl/src/core/../misc/lv_color.h **** 
 306:lvgl/src/core/../misc/lv_color.h **** /*In color conversations:
 307:lvgl/src/core/../misc/lv_color.h ****  * - When converting to bigger color type the LSB weight of 1 LSB is calculated
 308:lvgl/src/core/../misc/lv_color.h ****  *   E.g. 16 bit Red has 5 bits
 309:lvgl/src/core/../misc/lv_color.h ****  *         8 bit Red has 3 bits
 310:lvgl/src/core/../misc/lv_color.h ****  *        ----------------------
 311:lvgl/src/core/../misc/lv_color.h ****  *        8 bit red LSB = (2^5 - 1) / (2^3 - 1) = 31 / 7 = 4
 312:lvgl/src/core/../misc/lv_color.h ****  *
 313:lvgl/src/core/../misc/lv_color.h ****  * - When calculating to smaller color type simply shift out the LSBs
 314:lvgl/src/core/../misc/lv_color.h ****  *   E.g.  8 bit Red has 3 bits
 315:lvgl/src/core/../misc/lv_color.h ****  *        16 bit Red has 5 bits
 316:lvgl/src/core/../misc/lv_color.h ****  *        ----------------------
 317:lvgl/src/core/../misc/lv_color.h ****  *         Shift right with 5 - 3 = 2
 318:lvgl/src/core/../misc/lv_color.h ****  */
 319:lvgl/src/core/../misc/lv_color.h **** static inline uint8_t lv_color_to1(lv_color_t color)
 320:lvgl/src/core/../misc/lv_color.h **** {
 321:lvgl/src/core/../misc/lv_color.h **** #if LV_COLOR_DEPTH == 1
 322:lvgl/src/core/../misc/lv_color.h ****     return color.full;
 323:lvgl/src/core/../misc/lv_color.h **** #elif LV_COLOR_DEPTH == 8
 324:lvgl/src/core/../misc/lv_color.h ****     if((LV_COLOR_GET_R(color) & 0x4) || (LV_COLOR_GET_G(color) & 0x4) || (LV_COLOR_GET_B(color) & 0
 325:lvgl/src/core/../misc/lv_color.h ****         return 1;
 326:lvgl/src/core/../misc/lv_color.h ****     }
 327:lvgl/src/core/../misc/lv_color.h ****     else {
 328:lvgl/src/core/../misc/lv_color.h ****         return 0;
 329:lvgl/src/core/../misc/lv_color.h ****     }
 330:lvgl/src/core/../misc/lv_color.h **** #elif LV_COLOR_DEPTH == 16
 331:lvgl/src/core/../misc/lv_color.h ****     if((LV_COLOR_GET_R(color) & 0x10) || (LV_COLOR_GET_G(color) & 0x20) || (LV_COLOR_GET_B(color) &
 332:lvgl/src/core/../misc/lv_color.h ****         return 1;
 333:lvgl/src/core/../misc/lv_color.h ****     }
 334:lvgl/src/core/../misc/lv_color.h ****     else {
 335:lvgl/src/core/../misc/lv_color.h ****         return 0;
 336:lvgl/src/core/../misc/lv_color.h ****     }
 337:lvgl/src/core/../misc/lv_color.h **** #elif LV_COLOR_DEPTH == 32
 338:lvgl/src/core/../misc/lv_color.h ****     if((LV_COLOR_GET_R(color) & 0x80) || (LV_COLOR_GET_G(color) & 0x80) || (LV_COLOR_GET_B(color) &
 339:lvgl/src/core/../misc/lv_color.h ****         return 1;
 340:lvgl/src/core/../misc/lv_color.h ****     }
 341:lvgl/src/core/../misc/lv_color.h ****     else {
 342:lvgl/src/core/../misc/lv_color.h ****         return 0;
 343:lvgl/src/core/../misc/lv_color.h ****     }
 344:lvgl/src/core/../misc/lv_color.h **** #endif
 345:lvgl/src/core/../misc/lv_color.h **** }
 346:lvgl/src/core/../misc/lv_color.h **** 
 347:lvgl/src/core/../misc/lv_color.h **** static inline uint8_t lv_color_to8(lv_color_t color)
 348:lvgl/src/core/../misc/lv_color.h **** {
 349:lvgl/src/core/../misc/lv_color.h **** #if LV_COLOR_DEPTH == 1
 350:lvgl/src/core/../misc/lv_color.h ****     if(color.full == 0)
 351:lvgl/src/core/../misc/lv_color.h ****         return 0;
 352:lvgl/src/core/../misc/lv_color.h ****     else
 353:lvgl/src/core/../misc/lv_color.h ****         return 0xFF;
ARM GAS  C:\Users\BLACK_~1\AppData\Local\Temp\ccbv02In.s 			page 72


 354:lvgl/src/core/../misc/lv_color.h **** #elif LV_COLOR_DEPTH == 8
 355:lvgl/src/core/../misc/lv_color.h ****     return color.full;
 356:lvgl/src/core/../misc/lv_color.h **** #elif LV_COLOR_DEPTH == 16
 357:lvgl/src/core/../misc/lv_color.h ****     lv_color8_t ret;
 358:lvgl/src/core/../misc/lv_color.h ****     LV_COLOR_SET_R8(ret, LV_COLOR_GET_R(color) >> 2); /*5 - 3  = 2*/
 359:lvgl/src/core/../misc/lv_color.h ****     LV_COLOR_SET_G8(ret, LV_COLOR_GET_G(color) >> 3); /*6 - 3  = 3*/
 360:lvgl/src/core/../misc/lv_color.h ****     LV_COLOR_SET_B8(ret, LV_COLOR_GET_B(color) >> 3); /*5 - 2  = 3*/
 361:lvgl/src/core/../misc/lv_color.h ****     return ret.full;
 362:lvgl/src/core/../misc/lv_color.h **** #elif LV_COLOR_DEPTH == 32
 363:lvgl/src/core/../misc/lv_color.h ****     lv_color8_t ret;
 364:lvgl/src/core/../misc/lv_color.h ****     LV_COLOR_SET_R8(ret, LV_COLOR_GET_R(color) >> 5); /*8 - 3  = 5*/
 365:lvgl/src/core/../misc/lv_color.h ****     LV_COLOR_SET_G8(ret, LV_COLOR_GET_G(color) >> 5); /*8 - 3  = 5*/
 366:lvgl/src/core/../misc/lv_color.h ****     LV_COLOR_SET_B8(ret, LV_COLOR_GET_B(color) >> 6); /*8 - 2  = 6*/
 367:lvgl/src/core/../misc/lv_color.h ****     return ret.full;
 368:lvgl/src/core/../misc/lv_color.h **** #endif
 369:lvgl/src/core/../misc/lv_color.h **** }
 370:lvgl/src/core/../misc/lv_color.h **** 
 371:lvgl/src/core/../misc/lv_color.h **** static inline uint16_t lv_color_to16(lv_color_t color)
 372:lvgl/src/core/../misc/lv_color.h **** {
 373:lvgl/src/core/../misc/lv_color.h **** #if LV_COLOR_DEPTH == 1
 374:lvgl/src/core/../misc/lv_color.h ****     if(color.full == 0)
 375:lvgl/src/core/../misc/lv_color.h ****         return 0;
 376:lvgl/src/core/../misc/lv_color.h ****     else
 377:lvgl/src/core/../misc/lv_color.h ****         return 0xFFFF;
 378:lvgl/src/core/../misc/lv_color.h **** #elif LV_COLOR_DEPTH == 8
 379:lvgl/src/core/../misc/lv_color.h ****     lv_color16_t ret;
 380:lvgl/src/core/../misc/lv_color.h ****     LV_COLOR_SET_R16(ret, LV_COLOR_GET_R(color) * 4);  /*(2^5 - 1)/(2^3 - 1) = 31/7 = 4*/
 381:lvgl/src/core/../misc/lv_color.h ****     LV_COLOR_SET_G16(ret, LV_COLOR_GET_G(color) * 9);  /*(2^6 - 1)/(2^3 - 1) = 63/7 = 9*/
 382:lvgl/src/core/../misc/lv_color.h ****     LV_COLOR_SET_B16(ret, LV_COLOR_GET_B(color) * 10); /*(2^5 - 1)/(2^2 - 1) = 31/3 = 10*/
 383:lvgl/src/core/../misc/lv_color.h ****     return ret.full;
 384:lvgl/src/core/../misc/lv_color.h **** #elif LV_COLOR_DEPTH == 16
 385:lvgl/src/core/../misc/lv_color.h ****     return color.full;
 386:lvgl/src/core/../misc/lv_color.h **** #elif LV_COLOR_DEPTH == 32
 387:lvgl/src/core/../misc/lv_color.h ****     lv_color16_t ret;
 388:lvgl/src/core/../misc/lv_color.h ****     LV_COLOR_SET_R16(ret, LV_COLOR_GET_R(color) >> 3); /*8 - 5  = 3*/
 389:lvgl/src/core/../misc/lv_color.h ****     LV_COLOR_SET_G16(ret, LV_COLOR_GET_G(color) >> 2); /*8 - 6  = 2*/
 390:lvgl/src/core/../misc/lv_color.h ****     LV_COLOR_SET_B16(ret, LV_COLOR_GET_B(color) >> 3); /*8 - 5  = 3*/
 391:lvgl/src/core/../misc/lv_color.h ****     return ret.full;
 392:lvgl/src/core/../misc/lv_color.h **** #endif
 393:lvgl/src/core/../misc/lv_color.h **** }
 394:lvgl/src/core/../misc/lv_color.h **** 
 395:lvgl/src/core/../misc/lv_color.h **** static inline uint32_t lv_color_to32(lv_color_t color)
 396:lvgl/src/core/../misc/lv_color.h **** {
 397:lvgl/src/core/../misc/lv_color.h **** #if LV_COLOR_DEPTH == 1
 398:lvgl/src/core/../misc/lv_color.h ****     if(color.full == 0)
 399:lvgl/src/core/../misc/lv_color.h ****         return 0xFF000000;
 400:lvgl/src/core/../misc/lv_color.h ****     else
 401:lvgl/src/core/../misc/lv_color.h ****         return 0xFFFFFFFF;
 402:lvgl/src/core/../misc/lv_color.h **** #elif LV_COLOR_DEPTH == 8
 403:lvgl/src/core/../misc/lv_color.h ****     lv_color32_t ret;
 404:lvgl/src/core/../misc/lv_color.h ****     LV_COLOR_SET_R32(ret, LV_COLOR_GET_R(color) * 36); /*(2^8 - 1)/(2^3 - 1) = 255/7 = 36*/
 405:lvgl/src/core/../misc/lv_color.h ****     LV_COLOR_SET_G32(ret, LV_COLOR_GET_G(color) * 36); /*(2^8 - 1)/(2^3 - 1) = 255/7 = 36*/
 406:lvgl/src/core/../misc/lv_color.h ****     LV_COLOR_SET_B32(ret, LV_COLOR_GET_B(color) * 85); /*(2^8 - 1)/(2^2 - 1) = 255/3 = 85*/
 407:lvgl/src/core/../misc/lv_color.h ****     LV_COLOR_SET_A32(ret, 0xFF);
 408:lvgl/src/core/../misc/lv_color.h ****     return ret.full;
 409:lvgl/src/core/../misc/lv_color.h **** #elif LV_COLOR_DEPTH == 16
 410:lvgl/src/core/../misc/lv_color.h ****     /**
ARM GAS  C:\Users\BLACK_~1\AppData\Local\Temp\ccbv02In.s 			page 73


 411:lvgl/src/core/../misc/lv_color.h ****      * The floating point math for conversion is:
 412:lvgl/src/core/../misc/lv_color.h ****      *  valueto = valuefrom * ( (2^bitsto - 1) / (float)(2^bitsfrom - 1) )
 413:lvgl/src/core/../misc/lv_color.h ****      * The faster integer math for conversion is:
 414:lvgl/src/core/../misc/lv_color.h ****      *  valueto = ( valuefrom * multiplier + adder ) >> divisor
 415:lvgl/src/core/../misc/lv_color.h ****      *   multiplier = FLOOR( ( (2^bitsto - 1) << divisor ) / (float)(2^bitsfrom - 1) )
 416:lvgl/src/core/../misc/lv_color.h ****      *
 417:lvgl/src/core/../misc/lv_color.h ****      * Find the first divisor where ( adder >> divisor ) <= 0
 418:lvgl/src/core/../misc/lv_color.h ****      *
 419:lvgl/src/core/../misc/lv_color.h ****      * 5-bit to 8-bit: ( 31 * multiplier + adder ) >> divisor = 255
 420:lvgl/src/core/../misc/lv_color.h ****      * divisor  multiplier  adder  min (0)  max (31)
 421:lvgl/src/core/../misc/lv_color.h ****      *       0           8      7        7       255
 422:lvgl/src/core/../misc/lv_color.h ****      *       1          16     14        7       255
 423:lvgl/src/core/../misc/lv_color.h ****      *       2          32     28        7       255
 424:lvgl/src/core/../misc/lv_color.h ****      *       3          65     25        3       255
 425:lvgl/src/core/../misc/lv_color.h ****      *       4         131     19        1       255
 426:lvgl/src/core/../misc/lv_color.h ****      *       5         263      7        0       255
 427:lvgl/src/core/../misc/lv_color.h ****      *
 428:lvgl/src/core/../misc/lv_color.h ****      * 6-bit to 8-bit: 255 = ( 63 * multiplier + adder ) >> divisor
 429:lvgl/src/core/../misc/lv_color.h ****      * divisor  multiplier  adder  min (0)  max (63)
 430:lvgl/src/core/../misc/lv_color.h ****      *       0           4      3        3       255
 431:lvgl/src/core/../misc/lv_color.h ****      *       1           8      6        3       255
 432:lvgl/src/core/../misc/lv_color.h ****      *       2          16     12        3       255
 433:lvgl/src/core/../misc/lv_color.h ****      *       3          32     24        3       255
 434:lvgl/src/core/../misc/lv_color.h ****      *       4          64     48        3       255
 435:lvgl/src/core/../misc/lv_color.h ****      *       5         129     33        1       255
 436:lvgl/src/core/../misc/lv_color.h ****      *       6         259      3        0       255
 437:lvgl/src/core/../misc/lv_color.h ****      */
 438:lvgl/src/core/../misc/lv_color.h **** 
 439:lvgl/src/core/../misc/lv_color.h ****     lv_color32_t ret;
 440:lvgl/src/core/../misc/lv_color.h ****     LV_COLOR_SET_R32(ret, (LV_COLOR_GET_R(color) * 263 + 7) >> 5);
 441:lvgl/src/core/../misc/lv_color.h ****     LV_COLOR_SET_G32(ret, (LV_COLOR_GET_G(color) * 259 + 3) >> 6);
 442:lvgl/src/core/../misc/lv_color.h ****     LV_COLOR_SET_B32(ret, (LV_COLOR_GET_B(color) * 263 + 7) >> 5);
 443:lvgl/src/core/../misc/lv_color.h ****     LV_COLOR_SET_A32(ret, 0xFF);
 444:lvgl/src/core/../misc/lv_color.h ****     return ret.full;
 445:lvgl/src/core/../misc/lv_color.h **** #elif LV_COLOR_DEPTH == 32
 446:lvgl/src/core/../misc/lv_color.h ****     return color.full;
 447:lvgl/src/core/../misc/lv_color.h **** #endif
 448:lvgl/src/core/../misc/lv_color.h **** }
 449:lvgl/src/core/../misc/lv_color.h **** 
 450:lvgl/src/core/../misc/lv_color.h **** //! @cond Doxygen_Suppress
 451:lvgl/src/core/../misc/lv_color.h **** 
 452:lvgl/src/core/../misc/lv_color.h **** /**
 453:lvgl/src/core/../misc/lv_color.h ****  * Mix two colors with a given ratio.
 454:lvgl/src/core/../misc/lv_color.h ****  * @param c1 the first color to mix (usually the foreground)
 455:lvgl/src/core/../misc/lv_color.h ****  * @param c2 the second color to mix (usually the background)
 456:lvgl/src/core/../misc/lv_color.h ****  * @param mix The ratio of the colors. 0: full `c2`, 255: full `c1`, 127: half `c1` and half`c2`
 457:lvgl/src/core/../misc/lv_color.h ****  * @return the mixed color
 458:lvgl/src/core/../misc/lv_color.h ****  */
 459:lvgl/src/core/../misc/lv_color.h **** LV_ATTRIBUTE_FAST_MEM static inline lv_color_t lv_color_mix(lv_color_t c1, lv_color_t c2, uint8_t m
 2139              		.loc 3 459 48 is_stmt 1 view .LVU620
 2140              	.LBB81:
 460:lvgl/src/core/../misc/lv_color.h **** {
 461:lvgl/src/core/../misc/lv_color.h ****     lv_color_t ret;
 2141              		.loc 3 461 5 view .LVU621
 462:lvgl/src/core/../misc/lv_color.h **** #if LV_COLOR_DEPTH != 1
 463:lvgl/src/core/../misc/lv_color.h ****     /*LV_COLOR_DEPTH == 8, 16 or 32*/
 464:lvgl/src/core/../misc/lv_color.h ****     LV_COLOR_SET_R(ret, LV_UDIV255((uint16_t) LV_COLOR_GET_R(c1) * mix + LV_COLOR_GET_R(c2) *
ARM GAS  C:\Users\BLACK_~1\AppData\Local\Temp\ccbv02In.s 			page 74


 2142              		.loc 3 464 5 view .LVU622
 2143              		.loc 3 464 5 is_stmt 0 view .LVU623
 2144 011e CEF3C42C 		ubfx	ip, lr, #11, #5
 2145              	.LVL203:
 2146              		.loc 3 464 5 view .LVU624
 2147 0122 C8F3C420 		ubfx	r0, r8, #11, #5
 2148 0126 C7F1FF02 		rsb	r2, r7, #255
 2149 012a 02FB00F0 		mul	r0, r2, r0
 2150 012e 07FB0C00 		mla	r0, r7, ip, r0
 2151 0132 8030     		adds	r0, r0, #128
 2152 0134 00EB002C 		add	ip, r0, r0, lsl #8
 2153 0138 00EBCC10 		add	r0, r0, ip, lsl #7
 2154 013c C0F3C450 		ubfx	r0, r0, #23, #5
 2155 0140 4FF0000C 		mov	ip, #0	@ movhi
 2156              		.loc 3 464 5 view .LVU625
 2157 0144 60F3CF2C 		bfi	ip, r0, #11, #5
 2158              	.LVL204:
 465:lvgl/src/core/../misc/lv_color.h ****                                         (255 - mix) + LV_COLOR_MIX_ROUND_OFS));
 466:lvgl/src/core/../misc/lv_color.h ****     LV_COLOR_SET_G(ret, LV_UDIV255((uint16_t) LV_COLOR_GET_G(c1) * mix + LV_COLOR_GET_G(c2) *
 2159              		.loc 3 466 5 is_stmt 1 view .LVU626
 2160 0148 CEF34519 		ubfx	r9, lr, #5, #6
 2161 014c C8F34510 		ubfx	r0, r8, #5, #6
 2162 0150 02FB00F0 		mul	r0, r2, r0
 2163 0154 09FB0700 		mla	r0, r9, r7, r0
 2164 0158 8030     		adds	r0, r0, #128
 2165 015a 00EB0029 		add	r9, r0, r0, lsl #8
 2166 015e 00EBC910 		add	r0, r0, r9, lsl #7
 2167 0162 C0F3C550 		ubfx	r0, r0, #23, #6
 2168 0166 60F34A1C 		bfi	ip, r0, #5, #6
 467:lvgl/src/core/../misc/lv_color.h ****                                         (255 - mix) + LV_COLOR_MIX_ROUND_OFS));
 468:lvgl/src/core/../misc/lv_color.h ****     LV_COLOR_SET_B(ret, LV_UDIV255((uint16_t) LV_COLOR_GET_B(c1) * mix + LV_COLOR_GET_B(c2) *
 2169              		.loc 3 468 5 view .LVU627
 2170 016a 0EF01F0E 		and	lr, lr, #31
 2171              	.LVL205:
 2172              		.loc 3 468 5 is_stmt 0 view .LVU628
 2173 016e 08F01F08 		and	r8, r8, #31
 2174              	.LVL206:
 2175              		.loc 3 468 5 view .LVU629
 2176 0172 08FB02F2 		mul	r2, r8, r2
 2177 0176 0EFB0722 		mla	r2, lr, r7, r2
 2178 017a 8032     		adds	r2, r2, #128
 2179 017c 02EB0220 		add	r0, r2, r2, lsl #8
 2180 0180 02EBC012 		add	r2, r2, r0, lsl #7
 2181 0184 C2F3C452 		ubfx	r2, r2, #23, #5
 2182 0188 62F3040C 		bfi	ip, r2, #0, #5
 469:lvgl/src/core/../misc/lv_color.h ****                                         (255 - mix) + LV_COLOR_MIX_ROUND_OFS));
 470:lvgl/src/core/../misc/lv_color.h ****     LV_COLOR_SET_A(ret, 0xFF);
 2183              		.loc 3 470 5 is_stmt 1 view .LVU630
 2184              		.loc 3 470 5 view .LVU631
 2185              		.loc 3 470 5 view .LVU632
 471:lvgl/src/core/../misc/lv_color.h **** #else
 472:lvgl/src/core/../misc/lv_color.h ****     /*LV_COLOR_DEPTH == 1*/
 473:lvgl/src/core/../misc/lv_color.h ****     ret.full = mix > LV_OPA_50 ? c1.full : c2.full;
 474:lvgl/src/core/../misc/lv_color.h **** #endif
 475:lvgl/src/core/../misc/lv_color.h **** 
 476:lvgl/src/core/../misc/lv_color.h ****     return ret;
 2186              		.loc 3 476 5 view .LVU633
ARM GAS  C:\Users\BLACK_~1\AppData\Local\Temp\ccbv02In.s 			page 75


 2187 018c 0027     		movs	r7, #0
 2188              	.LVL207:
 2189              		.loc 3 476 5 is_stmt 0 view .LVU634
 2190 018e 6CF30F07 		bfi	r7, ip, #0, #16
 2191              	.LVL208:
 2192              		.loc 3 476 5 view .LVU635
 2193 0192 93E7     		b	.L144
 2194              	.LVL209:
 2195              	.L137:
 2196              		.loc 3 476 5 view .LVU636
 2197              	.LBE81:
 2198              	.LBE80:
 721:lvgl/src/core/lv_obj_style.c ****                 else if(v == 255) value_final.num = tr->end_value.num;
 2199              		.loc 1 721 17 is_stmt 1 view .LVU637
 721:lvgl/src/core/lv_obj_style.c ****                 else if(v == 255) value_final.num = tr->end_value.num;
 2200              		.loc 1 721 19 is_stmt 0 view .LVU638
 2201 0194 0FB9     		cbnz	r7, .L151
 721:lvgl/src/core/lv_obj_style.c ****                 else if(v == 255) value_final.num = tr->end_value.num;
 2202              		.loc 1 721 28 is_stmt 1 discriminator 1 view .LVU639
 721:lvgl/src/core/lv_obj_style.c ****                 else if(v == 255) value_final.num = tr->end_value.num;
 2203              		.loc 1 721 61 is_stmt 0 discriminator 1 view .LVU640
 2204 0196 E768     		ldr	r7, [r4, #12]
 2205              	.LVL210:
 721:lvgl/src/core/lv_obj_style.c ****                 else if(v == 255) value_final.num = tr->end_value.num;
 2206              		.loc 1 721 61 discriminator 1 view .LVU641
 2207 0198 90E7     		b	.L144
 2208              	.LVL211:
 2209              	.L151:
 722:lvgl/src/core/lv_obj_style.c ****                 else value_final.num = tr->start_value.num + ((int32_t)((int32_t)(tr->end_value.num
 2210              		.loc 1 722 22 is_stmt 1 view .LVU642
