ARM GAS  C:\Users\BLACK_~1\AppData\Local\Temp\ccVQcfpA.s 			page 1


   1              		.cpu cortex-m4
   2              		.arch armv7e-m
   3              		.fpu fpv4-sp-d16
   4              		.eabi_attribute 27, 1
   5              		.eabi_attribute 28, 1
   6              		.eabi_attribute 20, 1
   7              		.eabi_attribute 21, 1
   8              		.eabi_attribute 23, 3
   9              		.eabi_attribute 24, 1
  10              		.eabi_attribute 25, 1
  11              		.eabi_attribute 26, 1
  12              		.eabi_attribute 30, 1
  13              		.eabi_attribute 34, 1
  14              		.eabi_attribute 18, 4
  15              		.file	"lv_obj.c"
  16              		.text
  17              	.Ltext0:
  18              		.cfi_sections	.debug_frame
  19              		.section	.text.obj_valid_child,"ax",%progbits
  20              		.align	1
  21              		.syntax unified
  22              		.thumb
  23              		.thumb_func
  25              	obj_valid_child:
  26              	.LVL0:
  27              	.LFB177:
  28              		.file 1 "lvgl/src/core/lv_obj.c"
   1:lvgl/src/core/lv_obj.c **** /**
   2:lvgl/src/core/lv_obj.c ****  * @file lv_obj.c
   3:lvgl/src/core/lv_obj.c ****  *
   4:lvgl/src/core/lv_obj.c ****  */
   5:lvgl/src/core/lv_obj.c **** 
   6:lvgl/src/core/lv_obj.c **** /*********************
   7:lvgl/src/core/lv_obj.c ****  *      INCLUDES
   8:lvgl/src/core/lv_obj.c ****  *********************/
   9:lvgl/src/core/lv_obj.c **** #include "lv_obj.h"
  10:lvgl/src/core/lv_obj.c **** #include "lv_indev.h"
  11:lvgl/src/core/lv_obj.c **** #include "lv_refr.h"
  12:lvgl/src/core/lv_obj.c **** #include "lv_group.h"
  13:lvgl/src/core/lv_obj.c **** #include "lv_disp.h"
  14:lvgl/src/core/lv_obj.c **** #include "lv_theme.h"
  15:lvgl/src/core/lv_obj.c **** #include "../misc/lv_assert.h"
  16:lvgl/src/core/lv_obj.c **** #include "../draw/lv_draw.h"
  17:lvgl/src/core/lv_obj.c **** #include "../misc/lv_anim.h"
  18:lvgl/src/core/lv_obj.c **** #include "../misc/lv_timer.h"
  19:lvgl/src/core/lv_obj.c **** #include "../misc/lv_async.h"
  20:lvgl/src/core/lv_obj.c **** #include "../misc/lv_fs.h"
  21:lvgl/src/core/lv_obj.c **** #include "../misc/lv_gc.h"
  22:lvgl/src/core/lv_obj.c **** #include "../misc/lv_math.h"
  23:lvgl/src/core/lv_obj.c **** #include "../misc/lv_log.h"
  24:lvgl/src/core/lv_obj.c **** #include "../hal/lv_hal.h"
  25:lvgl/src/core/lv_obj.c **** #include "../extra/lv_extra.h"
  26:lvgl/src/core/lv_obj.c **** #include <stdint.h>
  27:lvgl/src/core/lv_obj.c **** #include <string.h>
  28:lvgl/src/core/lv_obj.c **** 
  29:lvgl/src/core/lv_obj.c **** #if LV_USE_GPU_STM32_DMA2D
  30:lvgl/src/core/lv_obj.c ****     #include "../gpu/lv_gpu_stm32_dma2d.h"
ARM GAS  C:\Users\BLACK_~1\AppData\Local\Temp\ccVQcfpA.s 			page 2


  31:lvgl/src/core/lv_obj.c **** #endif
  32:lvgl/src/core/lv_obj.c **** 
  33:lvgl/src/core/lv_obj.c **** #if LV_USE_GPU_NXP_PXP && LV_USE_GPU_NXP_PXP_AUTO_INIT
  34:lvgl/src/core/lv_obj.c ****     #include "../gpu/lv_gpu_nxp_pxp.h"
  35:lvgl/src/core/lv_obj.c ****     #include "../gpu/lv_gpu_nxp_pxp_osa.h"
  36:lvgl/src/core/lv_obj.c **** #endif
  37:lvgl/src/core/lv_obj.c **** 
  38:lvgl/src/core/lv_obj.c **** /*********************
  39:lvgl/src/core/lv_obj.c ****  *      DEFINES
  40:lvgl/src/core/lv_obj.c ****  *********************/
  41:lvgl/src/core/lv_obj.c **** #define MY_CLASS &lv_obj_class
  42:lvgl/src/core/lv_obj.c **** #define LV_OBJ_DEF_WIDTH    (LV_DPX(100))
  43:lvgl/src/core/lv_obj.c **** #define LV_OBJ_DEF_HEIGHT   (LV_DPX(50))
  44:lvgl/src/core/lv_obj.c **** #define GRID_DEBUG          0   /*Draw rectangles on grid cells*/
  45:lvgl/src/core/lv_obj.c **** #define STYLE_TRANSITION_MAX 32
  46:lvgl/src/core/lv_obj.c **** 
  47:lvgl/src/core/lv_obj.c **** /**********************
  48:lvgl/src/core/lv_obj.c ****  *      TYPEDEFS
  49:lvgl/src/core/lv_obj.c ****  **********************/
  50:lvgl/src/core/lv_obj.c **** 
  51:lvgl/src/core/lv_obj.c **** /**********************
  52:lvgl/src/core/lv_obj.c ****  *  STATIC PROTOTYPES
  53:lvgl/src/core/lv_obj.c ****  **********************/
  54:lvgl/src/core/lv_obj.c **** static void lv_obj_constructor(const lv_obj_class_t * class_p, lv_obj_t * obj);
  55:lvgl/src/core/lv_obj.c **** static void lv_obj_destructor(const lv_obj_class_t * class_p, lv_obj_t * obj);
  56:lvgl/src/core/lv_obj.c **** static void lv_obj_draw(lv_event_t * e);
  57:lvgl/src/core/lv_obj.c **** static void lv_obj_event(const lv_obj_class_t * class_p, lv_event_t * e);
  58:lvgl/src/core/lv_obj.c **** static void draw_scrollbar(lv_obj_t * obj, const lv_area_t * clip_area);
  59:lvgl/src/core/lv_obj.c **** static lv_res_t scrollbar_init_draw_dsc(lv_obj_t * obj, lv_draw_rect_dsc_t * dsc);
  60:lvgl/src/core/lv_obj.c **** static bool obj_valid_child(const lv_obj_t * parent, const lv_obj_t * obj_to_find);
  61:lvgl/src/core/lv_obj.c **** static void lv_obj_set_state(lv_obj_t * obj, lv_state_t new_state);
  62:lvgl/src/core/lv_obj.c **** 
  63:lvgl/src/core/lv_obj.c **** /**********************
  64:lvgl/src/core/lv_obj.c ****  *  STATIC VARIABLES
  65:lvgl/src/core/lv_obj.c ****  **********************/
  66:lvgl/src/core/lv_obj.c **** static bool lv_initialized = false;
  67:lvgl/src/core/lv_obj.c **** const lv_obj_class_t lv_obj_class = {
  68:lvgl/src/core/lv_obj.c ****     .constructor_cb = lv_obj_constructor,
  69:lvgl/src/core/lv_obj.c ****     .destructor_cb = lv_obj_destructor,
  70:lvgl/src/core/lv_obj.c ****     .event_cb = lv_obj_event,
  71:lvgl/src/core/lv_obj.c ****     .width_def = LV_DPI_DEF,
  72:lvgl/src/core/lv_obj.c ****     .height_def = LV_DPI_DEF,
  73:lvgl/src/core/lv_obj.c ****     .editable = LV_OBJ_CLASS_EDITABLE_FALSE,
  74:lvgl/src/core/lv_obj.c ****     .group_def = LV_OBJ_CLASS_GROUP_DEF_FALSE,
  75:lvgl/src/core/lv_obj.c ****     .instance_size = (sizeof(lv_obj_t)),
  76:lvgl/src/core/lv_obj.c ****     .base_class = NULL,
  77:lvgl/src/core/lv_obj.c **** };
  78:lvgl/src/core/lv_obj.c **** 
  79:lvgl/src/core/lv_obj.c **** /**********************
  80:lvgl/src/core/lv_obj.c ****  *      MACROS
  81:lvgl/src/core/lv_obj.c ****  **********************/
  82:lvgl/src/core/lv_obj.c **** 
  83:lvgl/src/core/lv_obj.c **** /**********************
  84:lvgl/src/core/lv_obj.c ****  *   GLOBAL FUNCTIONS
  85:lvgl/src/core/lv_obj.c ****  **********************/
  86:lvgl/src/core/lv_obj.c **** 
  87:lvgl/src/core/lv_obj.c **** void lv_init(void)
ARM GAS  C:\Users\BLACK_~1\AppData\Local\Temp\ccVQcfpA.s 			page 3


  88:lvgl/src/core/lv_obj.c **** {
  89:lvgl/src/core/lv_obj.c ****     /*Do nothing if already initialized*/
  90:lvgl/src/core/lv_obj.c ****     if(lv_initialized) {
  91:lvgl/src/core/lv_obj.c ****         LV_LOG_WARN("lv_init: already inited");
  92:lvgl/src/core/lv_obj.c ****         return;
  93:lvgl/src/core/lv_obj.c ****     }
  94:lvgl/src/core/lv_obj.c **** 
  95:lvgl/src/core/lv_obj.c ****     LV_LOG_INFO("begin");
  96:lvgl/src/core/lv_obj.c **** 
  97:lvgl/src/core/lv_obj.c ****     /*Initialize the misc modules*/
  98:lvgl/src/core/lv_obj.c ****     lv_mem_init();
  99:lvgl/src/core/lv_obj.c **** 
 100:lvgl/src/core/lv_obj.c ****     _lv_timer_core_init();
 101:lvgl/src/core/lv_obj.c **** 
 102:lvgl/src/core/lv_obj.c ****     _lv_fs_init();
 103:lvgl/src/core/lv_obj.c **** 
 104:lvgl/src/core/lv_obj.c ****     _lv_anim_core_init();
 105:lvgl/src/core/lv_obj.c **** 
 106:lvgl/src/core/lv_obj.c ****     _lv_group_init();
 107:lvgl/src/core/lv_obj.c **** 
 108:lvgl/src/core/lv_obj.c **** #if LV_USE_GPU_STM32_DMA2D
 109:lvgl/src/core/lv_obj.c ****     /*Initialize DMA2D GPU*/
 110:lvgl/src/core/lv_obj.c ****     lv_gpu_stm32_dma2d_init();
 111:lvgl/src/core/lv_obj.c **** #endif
 112:lvgl/src/core/lv_obj.c **** 
 113:lvgl/src/core/lv_obj.c **** #if LV_USE_GPU_NXP_PXP && LV_USE_GPU_NXP_PXP_AUTO_INIT
 114:lvgl/src/core/lv_obj.c ****     if(lv_gpu_nxp_pxp_init(&pxp_default_cfg) != LV_RES_OK) {
 115:lvgl/src/core/lv_obj.c ****         LV_LOG_ERROR("PXP init error. STOP.\n");
 116:lvgl/src/core/lv_obj.c ****         for(; ;) ;
 117:lvgl/src/core/lv_obj.c ****     }
 118:lvgl/src/core/lv_obj.c **** #endif
 119:lvgl/src/core/lv_obj.c **** 
 120:lvgl/src/core/lv_obj.c ****     _lv_obj_style_init();
 121:lvgl/src/core/lv_obj.c ****     _lv_ll_init(&LV_GC_ROOT(_lv_disp_ll), sizeof(lv_disp_t));
 122:lvgl/src/core/lv_obj.c ****     _lv_ll_init(&LV_GC_ROOT(_lv_indev_ll), sizeof(lv_indev_t));
 123:lvgl/src/core/lv_obj.c **** 
 124:lvgl/src/core/lv_obj.c ****     /*Initialize the screen refresh system*/
 125:lvgl/src/core/lv_obj.c ****     _lv_refr_init();
 126:lvgl/src/core/lv_obj.c **** 
 127:lvgl/src/core/lv_obj.c ****     _lv_img_decoder_init();
 128:lvgl/src/core/lv_obj.c **** #if LV_IMG_CACHE_DEF_SIZE
 129:lvgl/src/core/lv_obj.c ****     lv_img_cache_set_size(LV_IMG_CACHE_DEF_SIZE);
 130:lvgl/src/core/lv_obj.c **** #endif
 131:lvgl/src/core/lv_obj.c ****     /*Test if the IDE has UTF-8 encoding*/
 132:lvgl/src/core/lv_obj.c ****     char * txt = "Ã";
 133:lvgl/src/core/lv_obj.c **** 
 134:lvgl/src/core/lv_obj.c ****     uint8_t * txt_u8 = (uint8_t *)txt;
 135:lvgl/src/core/lv_obj.c ****     if(txt_u8[0] != 0xc3 || txt_u8[1] != 0x81 || txt_u8[2] != 0x00) {
 136:lvgl/src/core/lv_obj.c ****         LV_LOG_WARN("The strings has no UTF-8 encoding. Non-ASCII characters won't be displayed.")
 137:lvgl/src/core/lv_obj.c ****     }
 138:lvgl/src/core/lv_obj.c **** 
 139:lvgl/src/core/lv_obj.c ****     uint32_t endianess_test = 0x11223344;
 140:lvgl/src/core/lv_obj.c ****     uint8_t * endianess_test_p = (uint8_t*) &endianess_test;
 141:lvgl/src/core/lv_obj.c ****     bool big_endian = endianess_test_p[0] == 0x11 ? true : false;
 142:lvgl/src/core/lv_obj.c **** 
 143:lvgl/src/core/lv_obj.c ****     if(big_endian) {
 144:lvgl/src/core/lv_obj.c ****         LV_ASSERT_MSG(LV_BIG_ENDIAN_SYSTEM == 1, "It's a big endian system but LV_BIG_ENDIAN_SYSTEM
ARM GAS  C:\Users\BLACK_~1\AppData\Local\Temp\ccVQcfpA.s 			page 4


 145:lvgl/src/core/lv_obj.c ****     } else {
 146:lvgl/src/core/lv_obj.c ****         LV_ASSERT_MSG(LV_BIG_ENDIAN_SYSTEM == 0, "It's a little endian system but LV_BIG_ENDIAN_SYS
 147:lvgl/src/core/lv_obj.c ****     }
 148:lvgl/src/core/lv_obj.c **** 
 149:lvgl/src/core/lv_obj.c **** #if LV_USE_ASSERT_MEM_INTEGRITY
 150:lvgl/src/core/lv_obj.c ****     LV_LOG_WARN("Memory integrity checks are enabled via LV_USE_ASSERT_MEM_INTEGRITY which makes LV
 151:lvgl/src/core/lv_obj.c **** #endif
 152:lvgl/src/core/lv_obj.c **** 
 153:lvgl/src/core/lv_obj.c **** #if LV_USE_ASSERT_OBJ
 154:lvgl/src/core/lv_obj.c ****     LV_LOG_WARN("Object sanity checks are enabled via LV_USE_ASSERT_OBJ which makes LVGL much slowe
 155:lvgl/src/core/lv_obj.c **** #endif
 156:lvgl/src/core/lv_obj.c **** 
 157:lvgl/src/core/lv_obj.c **** #if LV_LOG_LEVEL == LV_LOG_LEVEL_TRACE
 158:lvgl/src/core/lv_obj.c ****     LV_LOG_WARN("Log level is set the Trace which makes LVGL much slower")
 159:lvgl/src/core/lv_obj.c **** #endif
 160:lvgl/src/core/lv_obj.c **** 
 161:lvgl/src/core/lv_obj.c ****     lv_extra_init();
 162:lvgl/src/core/lv_obj.c **** 
 163:lvgl/src/core/lv_obj.c ****     lv_initialized = true;
 164:lvgl/src/core/lv_obj.c **** 
 165:lvgl/src/core/lv_obj.c ****     LV_LOG_TRACE("finished");
 166:lvgl/src/core/lv_obj.c **** }
 167:lvgl/src/core/lv_obj.c **** 
 168:lvgl/src/core/lv_obj.c **** #if LV_ENABLE_GC || !LV_MEM_CUSTOM
 169:lvgl/src/core/lv_obj.c **** 
 170:lvgl/src/core/lv_obj.c **** void lv_deinit(void)
 171:lvgl/src/core/lv_obj.c **** {
 172:lvgl/src/core/lv_obj.c ****     _lv_gc_clear_roots();
 173:lvgl/src/core/lv_obj.c **** 
 174:lvgl/src/core/lv_obj.c ****     lv_disp_set_default(NULL);
 175:lvgl/src/core/lv_obj.c ****     lv_mem_deinit();
 176:lvgl/src/core/lv_obj.c ****     lv_initialized = false;
 177:lvgl/src/core/lv_obj.c **** 
 178:lvgl/src/core/lv_obj.c ****     LV_LOG_INFO("lv_deinit done");
 179:lvgl/src/core/lv_obj.c **** 
 180:lvgl/src/core/lv_obj.c **** #if LV_USE_LOG
 181:lvgl/src/core/lv_obj.c ****     lv_log_register_print_cb(NULL);
 182:lvgl/src/core/lv_obj.c **** #endif
 183:lvgl/src/core/lv_obj.c **** }
 184:lvgl/src/core/lv_obj.c **** #endif
 185:lvgl/src/core/lv_obj.c **** 
 186:lvgl/src/core/lv_obj.c **** lv_obj_t * lv_obj_create(lv_obj_t * parent)
 187:lvgl/src/core/lv_obj.c **** {
 188:lvgl/src/core/lv_obj.c ****     LV_LOG_INFO("begin")
 189:lvgl/src/core/lv_obj.c ****     lv_obj_t * obj = lv_obj_class_create_obj(MY_CLASS, parent);
 190:lvgl/src/core/lv_obj.c ****     lv_obj_class_init_obj(obj);
 191:lvgl/src/core/lv_obj.c ****     return obj;
 192:lvgl/src/core/lv_obj.c **** }
 193:lvgl/src/core/lv_obj.c **** 
 194:lvgl/src/core/lv_obj.c **** /*=====================
 195:lvgl/src/core/lv_obj.c ****  * Setter functions
 196:lvgl/src/core/lv_obj.c ****  *====================*/
 197:lvgl/src/core/lv_obj.c **** 
 198:lvgl/src/core/lv_obj.c **** /*-----------------
 199:lvgl/src/core/lv_obj.c ****  * Attribute set
 200:lvgl/src/core/lv_obj.c ****  *----------------*/
 201:lvgl/src/core/lv_obj.c **** 
ARM GAS  C:\Users\BLACK_~1\AppData\Local\Temp\ccVQcfpA.s 			page 5


 202:lvgl/src/core/lv_obj.c **** void lv_obj_add_flag(lv_obj_t * obj, lv_obj_flag_t f)
 203:lvgl/src/core/lv_obj.c **** {
 204:lvgl/src/core/lv_obj.c ****     LV_ASSERT_OBJ(obj, MY_CLASS);
 205:lvgl/src/core/lv_obj.c **** 
 206:lvgl/src/core/lv_obj.c ****     bool was_on_layout = lv_obj_is_layout_positioned(obj);
 207:lvgl/src/core/lv_obj.c **** 
 208:lvgl/src/core/lv_obj.c ****     if(f & LV_OBJ_FLAG_HIDDEN) lv_obj_invalidate(obj);
 209:lvgl/src/core/lv_obj.c **** 
 210:lvgl/src/core/lv_obj.c ****     obj->flags |= f;
 211:lvgl/src/core/lv_obj.c **** 
 212:lvgl/src/core/lv_obj.c ****     if(f & LV_OBJ_FLAG_HIDDEN) {
 213:lvgl/src/core/lv_obj.c ****         lv_obj_invalidate(obj);
 214:lvgl/src/core/lv_obj.c ****     }
 215:lvgl/src/core/lv_obj.c **** 
 216:lvgl/src/core/lv_obj.c ****     if((was_on_layout != lv_obj_is_layout_positioned(obj)) || (f & (LV_OBJ_FLAG_LAYOUT_1 |  LV_OBJ_
 217:lvgl/src/core/lv_obj.c ****         lv_obj_mark_layout_as_dirty(lv_obj_get_parent(obj));
 218:lvgl/src/core/lv_obj.c ****     }
 219:lvgl/src/core/lv_obj.c **** }
 220:lvgl/src/core/lv_obj.c **** 
 221:lvgl/src/core/lv_obj.c **** void lv_obj_clear_flag(lv_obj_t * obj, lv_obj_flag_t f)
 222:lvgl/src/core/lv_obj.c **** {
 223:lvgl/src/core/lv_obj.c ****     LV_ASSERT_OBJ(obj, MY_CLASS);
 224:lvgl/src/core/lv_obj.c **** 
 225:lvgl/src/core/lv_obj.c ****     bool was_on_layout = lv_obj_is_layout_positioned(obj);
 226:lvgl/src/core/lv_obj.c **** 
 227:lvgl/src/core/lv_obj.c ****     obj->flags &= (~f);
 228:lvgl/src/core/lv_obj.c **** 
 229:lvgl/src/core/lv_obj.c ****     if(f & LV_OBJ_FLAG_HIDDEN) {
 230:lvgl/src/core/lv_obj.c ****         lv_obj_invalidate(obj);
 231:lvgl/src/core/lv_obj.c ****         if(lv_obj_is_layout_positioned(obj)) {
 232:lvgl/src/core/lv_obj.c ****             lv_obj_mark_layout_as_dirty(lv_obj_get_parent(obj));
 233:lvgl/src/core/lv_obj.c ****         }
 234:lvgl/src/core/lv_obj.c ****     }
 235:lvgl/src/core/lv_obj.c **** 
 236:lvgl/src/core/lv_obj.c ****     if((was_on_layout != lv_obj_is_layout_positioned(obj)) || (f & (LV_OBJ_FLAG_LAYOUT_1 |  LV_OBJ_
 237:lvgl/src/core/lv_obj.c ****         lv_obj_mark_layout_as_dirty(lv_obj_get_parent(obj));
 238:lvgl/src/core/lv_obj.c ****     }
 239:lvgl/src/core/lv_obj.c **** }
 240:lvgl/src/core/lv_obj.c **** 
 241:lvgl/src/core/lv_obj.c **** void lv_obj_add_state(lv_obj_t * obj, lv_state_t state)
 242:lvgl/src/core/lv_obj.c **** {
 243:lvgl/src/core/lv_obj.c ****     LV_ASSERT_OBJ(obj, MY_CLASS);
 244:lvgl/src/core/lv_obj.c **** 
 245:lvgl/src/core/lv_obj.c ****     lv_state_t new_state = obj->state | state;
 246:lvgl/src/core/lv_obj.c ****     if(obj->state != new_state) {
 247:lvgl/src/core/lv_obj.c ****         lv_obj_set_state(obj, new_state);
 248:lvgl/src/core/lv_obj.c ****     }
 249:lvgl/src/core/lv_obj.c **** }
 250:lvgl/src/core/lv_obj.c **** 
 251:lvgl/src/core/lv_obj.c **** void lv_obj_clear_state(lv_obj_t * obj, lv_state_t state)
 252:lvgl/src/core/lv_obj.c **** {
 253:lvgl/src/core/lv_obj.c ****     LV_ASSERT_OBJ(obj, MY_CLASS);
 254:lvgl/src/core/lv_obj.c **** 
 255:lvgl/src/core/lv_obj.c ****     lv_state_t new_state = obj->state & (~state);
 256:lvgl/src/core/lv_obj.c ****     if(obj->state != new_state) {
 257:lvgl/src/core/lv_obj.c ****         lv_obj_set_state(obj, new_state);
 258:lvgl/src/core/lv_obj.c ****     }
ARM GAS  C:\Users\BLACK_~1\AppData\Local\Temp\ccVQcfpA.s 			page 6


 259:lvgl/src/core/lv_obj.c **** }
 260:lvgl/src/core/lv_obj.c **** 
 261:lvgl/src/core/lv_obj.c **** /*=======================
 262:lvgl/src/core/lv_obj.c ****  * Getter functions
 263:lvgl/src/core/lv_obj.c ****  *======================*/
 264:lvgl/src/core/lv_obj.c **** 
 265:lvgl/src/core/lv_obj.c **** bool lv_obj_has_flag(const lv_obj_t * obj, lv_obj_flag_t f)
 266:lvgl/src/core/lv_obj.c **** {
 267:lvgl/src/core/lv_obj.c ****     LV_ASSERT_OBJ(obj, MY_CLASS);
 268:lvgl/src/core/lv_obj.c **** 
 269:lvgl/src/core/lv_obj.c ****     return (obj->flags & f)  == f ? true : false;
 270:lvgl/src/core/lv_obj.c **** }
 271:lvgl/src/core/lv_obj.c **** 
 272:lvgl/src/core/lv_obj.c **** bool lv_obj_has_flag_any(const lv_obj_t * obj, lv_obj_flag_t f)
 273:lvgl/src/core/lv_obj.c **** {
 274:lvgl/src/core/lv_obj.c ****     LV_ASSERT_OBJ(obj, MY_CLASS);
 275:lvgl/src/core/lv_obj.c **** 
 276:lvgl/src/core/lv_obj.c ****     return (obj->flags & f) ? true : false;
 277:lvgl/src/core/lv_obj.c **** }
 278:lvgl/src/core/lv_obj.c **** 
 279:lvgl/src/core/lv_obj.c **** lv_state_t lv_obj_get_state(const lv_obj_t * obj)
 280:lvgl/src/core/lv_obj.c **** {
 281:lvgl/src/core/lv_obj.c ****     LV_ASSERT_OBJ(obj, MY_CLASS);
 282:lvgl/src/core/lv_obj.c **** 
 283:lvgl/src/core/lv_obj.c ****     return obj->state;
 284:lvgl/src/core/lv_obj.c **** }
 285:lvgl/src/core/lv_obj.c **** 
 286:lvgl/src/core/lv_obj.c **** bool lv_obj_has_state(const lv_obj_t * obj, lv_state_t state)
 287:lvgl/src/core/lv_obj.c **** {
 288:lvgl/src/core/lv_obj.c ****     LV_ASSERT_OBJ(obj, MY_CLASS);
 289:lvgl/src/core/lv_obj.c **** 
 290:lvgl/src/core/lv_obj.c ****     return obj->state & state ? true : false;
 291:lvgl/src/core/lv_obj.c **** }
 292:lvgl/src/core/lv_obj.c **** 
 293:lvgl/src/core/lv_obj.c **** void * lv_obj_get_group(const lv_obj_t * obj)
 294:lvgl/src/core/lv_obj.c **** {
 295:lvgl/src/core/lv_obj.c ****     LV_ASSERT_OBJ(obj, MY_CLASS);
 296:lvgl/src/core/lv_obj.c **** 
 297:lvgl/src/core/lv_obj.c ****     if(obj->spec_attr) return obj->spec_attr->group_p;
 298:lvgl/src/core/lv_obj.c ****     else return NULL;
 299:lvgl/src/core/lv_obj.c **** }
 300:lvgl/src/core/lv_obj.c **** 
 301:lvgl/src/core/lv_obj.c **** /*-------------------
 302:lvgl/src/core/lv_obj.c ****  * OTHER FUNCTIONS
 303:lvgl/src/core/lv_obj.c ****  *------------------*/
 304:lvgl/src/core/lv_obj.c **** 
 305:lvgl/src/core/lv_obj.c **** void lv_obj_allocate_spec_attr(lv_obj_t * obj)
 306:lvgl/src/core/lv_obj.c **** {
 307:lvgl/src/core/lv_obj.c ****     LV_ASSERT_OBJ(obj, MY_CLASS);
 308:lvgl/src/core/lv_obj.c **** 
 309:lvgl/src/core/lv_obj.c ****     if(obj->spec_attr == NULL) {
 310:lvgl/src/core/lv_obj.c ****         static uint32_t x = 0;
 311:lvgl/src/core/lv_obj.c ****         x++;
 312:lvgl/src/core/lv_obj.c ****         obj->spec_attr = lv_mem_alloc(sizeof(_lv_obj_spec_attr_t));
 313:lvgl/src/core/lv_obj.c ****         LV_ASSERT_MALLOC(obj->spec_attr);
 314:lvgl/src/core/lv_obj.c ****         if(obj->spec_attr == NULL) return;
 315:lvgl/src/core/lv_obj.c **** 
ARM GAS  C:\Users\BLACK_~1\AppData\Local\Temp\ccVQcfpA.s 			page 7


 316:lvgl/src/core/lv_obj.c ****         lv_memset_00(obj->spec_attr, sizeof(_lv_obj_spec_attr_t));
 317:lvgl/src/core/lv_obj.c **** 
 318:lvgl/src/core/lv_obj.c ****         obj->spec_attr->scroll_dir = LV_DIR_ALL;
 319:lvgl/src/core/lv_obj.c ****         obj->spec_attr->scrollbar_mode = LV_SCROLLBAR_MODE_AUTO;
 320:lvgl/src/core/lv_obj.c ****     }
 321:lvgl/src/core/lv_obj.c **** }
 322:lvgl/src/core/lv_obj.c **** 
 323:lvgl/src/core/lv_obj.c **** bool lv_obj_check_type(const lv_obj_t * obj, const lv_obj_class_t * class_p)
 324:lvgl/src/core/lv_obj.c **** {
 325:lvgl/src/core/lv_obj.c ****     if(obj == NULL) return false;
 326:lvgl/src/core/lv_obj.c ****     return obj->class_p == class_p ? true : false;
 327:lvgl/src/core/lv_obj.c **** }
 328:lvgl/src/core/lv_obj.c **** 
 329:lvgl/src/core/lv_obj.c **** bool lv_obj_has_class(const lv_obj_t * obj, const lv_obj_class_t * class_p)
 330:lvgl/src/core/lv_obj.c **** {
 331:lvgl/src/core/lv_obj.c ****     const lv_obj_class_t * obj_class = obj->class_p;
 332:lvgl/src/core/lv_obj.c ****     while(obj_class) {
 333:lvgl/src/core/lv_obj.c ****         if(obj_class == class_p) return true;
 334:lvgl/src/core/lv_obj.c ****         obj_class = obj_class->base_class;
 335:lvgl/src/core/lv_obj.c ****     }
 336:lvgl/src/core/lv_obj.c **** 
 337:lvgl/src/core/lv_obj.c ****     return false;
 338:lvgl/src/core/lv_obj.c **** }
 339:lvgl/src/core/lv_obj.c **** 
 340:lvgl/src/core/lv_obj.c **** const lv_obj_class_t * lv_obj_get_class(const lv_obj_t * obj)
 341:lvgl/src/core/lv_obj.c **** {
 342:lvgl/src/core/lv_obj.c ****     return obj->class_p;
 343:lvgl/src/core/lv_obj.c **** }
 344:lvgl/src/core/lv_obj.c **** 
 345:lvgl/src/core/lv_obj.c **** bool lv_obj_is_valid(const lv_obj_t * obj)
 346:lvgl/src/core/lv_obj.c **** {
 347:lvgl/src/core/lv_obj.c ****     lv_disp_t * disp = lv_disp_get_next(NULL);
 348:lvgl/src/core/lv_obj.c ****     while(disp) {
 349:lvgl/src/core/lv_obj.c ****         uint32_t i;
 350:lvgl/src/core/lv_obj.c ****         for(i = 0; i < disp->screen_cnt; i++) {
 351:lvgl/src/core/lv_obj.c ****             if(disp->screens[i] == obj) return true;
 352:lvgl/src/core/lv_obj.c ****             bool found = obj_valid_child(disp->screens[i], obj);
 353:lvgl/src/core/lv_obj.c ****             if(found) return true;
 354:lvgl/src/core/lv_obj.c ****         }
 355:lvgl/src/core/lv_obj.c **** 
 356:lvgl/src/core/lv_obj.c ****         disp = lv_disp_get_next(disp);
 357:lvgl/src/core/lv_obj.c ****     }
 358:lvgl/src/core/lv_obj.c **** 
 359:lvgl/src/core/lv_obj.c ****     return false;
 360:lvgl/src/core/lv_obj.c **** }
 361:lvgl/src/core/lv_obj.c **** 
 362:lvgl/src/core/lv_obj.c **** /**********************
 363:lvgl/src/core/lv_obj.c ****  *   STATIC FUNCTIONS
 364:lvgl/src/core/lv_obj.c ****  **********************/
 365:lvgl/src/core/lv_obj.c **** 
 366:lvgl/src/core/lv_obj.c **** static void lv_obj_constructor(const lv_obj_class_t * class_p, lv_obj_t * obj)
 367:lvgl/src/core/lv_obj.c **** {
 368:lvgl/src/core/lv_obj.c ****     LV_UNUSED(class_p);
 369:lvgl/src/core/lv_obj.c ****     LV_TRACE_OBJ_CREATE("begin");
 370:lvgl/src/core/lv_obj.c **** 
 371:lvgl/src/core/lv_obj.c ****     lv_obj_t * parent = obj->parent;
 372:lvgl/src/core/lv_obj.c ****     if(parent) {
ARM GAS  C:\Users\BLACK_~1\AppData\Local\Temp\ccVQcfpA.s 			page 8


 373:lvgl/src/core/lv_obj.c ****         lv_coord_t sl = lv_obj_get_scroll_left(parent);
 374:lvgl/src/core/lv_obj.c ****         lv_coord_t st = lv_obj_get_scroll_top(parent);
 375:lvgl/src/core/lv_obj.c **** 
 376:lvgl/src/core/lv_obj.c ****         obj->coords.y1 = parent->coords.y1 + lv_obj_get_style_pad_top(parent, LV_PART_MAIN) - st;
 377:lvgl/src/core/lv_obj.c ****         obj->coords.y2 = obj->coords.y1 - 1;
 378:lvgl/src/core/lv_obj.c ****         obj->coords.x1  = parent->coords.x1 + lv_obj_get_style_pad_left(parent, LV_PART_MAIN) - sl;
 379:lvgl/src/core/lv_obj.c ****         obj->coords.x2  = obj->coords.x1 - 1;
 380:lvgl/src/core/lv_obj.c ****     }
 381:lvgl/src/core/lv_obj.c **** 
 382:lvgl/src/core/lv_obj.c ****     /*Set attributes*/
 383:lvgl/src/core/lv_obj.c ****     obj->flags = LV_OBJ_FLAG_CLICKABLE;
 384:lvgl/src/core/lv_obj.c ****     obj->flags |= LV_OBJ_FLAG_SNAPABLE;
 385:lvgl/src/core/lv_obj.c ****     if(parent) obj->flags |= LV_OBJ_FLAG_PRESS_LOCK;
 386:lvgl/src/core/lv_obj.c ****     if(parent) obj->flags |= LV_OBJ_FLAG_SCROLL_CHAIN;
 387:lvgl/src/core/lv_obj.c ****     obj->flags |= LV_OBJ_FLAG_CLICK_FOCUSABLE;
 388:lvgl/src/core/lv_obj.c ****     obj->flags |= LV_OBJ_FLAG_SCROLLABLE;
 389:lvgl/src/core/lv_obj.c ****     obj->flags |= LV_OBJ_FLAG_SCROLL_ELASTIC;
 390:lvgl/src/core/lv_obj.c ****     obj->flags |= LV_OBJ_FLAG_SCROLL_MOMENTUM;
 391:lvgl/src/core/lv_obj.c ****     if(parent) obj->flags |= LV_OBJ_FLAG_GESTURE_BUBBLE;
 392:lvgl/src/core/lv_obj.c **** 
 393:lvgl/src/core/lv_obj.c ****     LV_TRACE_OBJ_CREATE("finished");
 394:lvgl/src/core/lv_obj.c **** }
 395:lvgl/src/core/lv_obj.c **** 
 396:lvgl/src/core/lv_obj.c **** static void lv_obj_destructor(const lv_obj_class_t * class_p, lv_obj_t * obj)
 397:lvgl/src/core/lv_obj.c **** {
 398:lvgl/src/core/lv_obj.c ****     LV_UNUSED(class_p);
 399:lvgl/src/core/lv_obj.c **** 
 400:lvgl/src/core/lv_obj.c ****     _lv_event_mark_deleted(obj);
 401:lvgl/src/core/lv_obj.c **** 
 402:lvgl/src/core/lv_obj.c ****     /*Remove all style*/
 403:lvgl/src/core/lv_obj.c ****     lv_obj_enable_style_refresh(false); /*No need to refresh the style because the object will be d
 404:lvgl/src/core/lv_obj.c ****     lv_obj_remove_style_all(obj);
 405:lvgl/src/core/lv_obj.c ****     lv_obj_enable_style_refresh(true);
 406:lvgl/src/core/lv_obj.c **** 
 407:lvgl/src/core/lv_obj.c ****     /*Remove the animations from this object*/
 408:lvgl/src/core/lv_obj.c ****     lv_anim_del(obj, NULL);
 409:lvgl/src/core/lv_obj.c **** 
 410:lvgl/src/core/lv_obj.c ****     /*Delete from the group*/
 411:lvgl/src/core/lv_obj.c ****     lv_group_t * group = lv_obj_get_group(obj);
 412:lvgl/src/core/lv_obj.c ****     if(group) lv_group_remove_obj(obj);
 413:lvgl/src/core/lv_obj.c **** 
 414:lvgl/src/core/lv_obj.c ****     if(obj->spec_attr) {
 415:lvgl/src/core/lv_obj.c ****         if(obj->spec_attr->children) {
 416:lvgl/src/core/lv_obj.c ****             lv_mem_free(obj->spec_attr->children);
 417:lvgl/src/core/lv_obj.c ****             obj->spec_attr->children = NULL;
 418:lvgl/src/core/lv_obj.c ****         }
 419:lvgl/src/core/lv_obj.c ****         if(obj->spec_attr->event_dsc) {
 420:lvgl/src/core/lv_obj.c ****             lv_mem_free(obj->spec_attr->event_dsc);
 421:lvgl/src/core/lv_obj.c ****             obj->spec_attr->event_dsc = NULL;
 422:lvgl/src/core/lv_obj.c ****         }
 423:lvgl/src/core/lv_obj.c **** 
 424:lvgl/src/core/lv_obj.c ****         lv_mem_free(obj->spec_attr);
 425:lvgl/src/core/lv_obj.c ****         obj->spec_attr = NULL;
 426:lvgl/src/core/lv_obj.c ****     }
 427:lvgl/src/core/lv_obj.c **** }
 428:lvgl/src/core/lv_obj.c **** 
 429:lvgl/src/core/lv_obj.c **** static void lv_obj_draw(lv_event_t * e)
ARM GAS  C:\Users\BLACK_~1\AppData\Local\Temp\ccVQcfpA.s 			page 9


 430:lvgl/src/core/lv_obj.c **** {
 431:lvgl/src/core/lv_obj.c ****     lv_event_code_t code = lv_event_get_code(e);
 432:lvgl/src/core/lv_obj.c ****     lv_obj_t * obj = lv_event_get_target(e);
 433:lvgl/src/core/lv_obj.c ****     if(code == LV_EVENT_COVER_CHECK) {
 434:lvgl/src/core/lv_obj.c ****         lv_cover_check_info_t * info = lv_event_get_param(e);
 435:lvgl/src/core/lv_obj.c ****         if(info->res == LV_COVER_RES_MASKED) return;
 436:lvgl/src/core/lv_obj.c ****         if(lv_obj_get_style_clip_corner(obj, LV_PART_MAIN)) {
 437:lvgl/src/core/lv_obj.c ****             info->res = LV_COVER_RES_MASKED;
 438:lvgl/src/core/lv_obj.c ****             return;
 439:lvgl/src/core/lv_obj.c ****         }
 440:lvgl/src/core/lv_obj.c **** 
 441:lvgl/src/core/lv_obj.c ****         /*Most trivial test. Is the mask fully IN the object? If no it surely doesn't cover it*/
 442:lvgl/src/core/lv_obj.c ****         lv_coord_t r = lv_obj_get_style_radius(obj, LV_PART_MAIN);
 443:lvgl/src/core/lv_obj.c ****         lv_coord_t w = lv_obj_get_style_transform_width(obj, LV_PART_MAIN);
 444:lvgl/src/core/lv_obj.c ****         lv_coord_t h = lv_obj_get_style_transform_height(obj, LV_PART_MAIN);
 445:lvgl/src/core/lv_obj.c ****         lv_area_t coords;
 446:lvgl/src/core/lv_obj.c ****         lv_area_copy(&coords, &obj->coords);
 447:lvgl/src/core/lv_obj.c ****         coords.x1 -= w;
 448:lvgl/src/core/lv_obj.c ****         coords.x2 += w;
 449:lvgl/src/core/lv_obj.c ****         coords.y1 -= h;
 450:lvgl/src/core/lv_obj.c ****         coords.y2 += h;
 451:lvgl/src/core/lv_obj.c **** 
 452:lvgl/src/core/lv_obj.c ****         if(_lv_area_is_in(info->area, &coords, r) == false) {
 453:lvgl/src/core/lv_obj.c ****             info->res = LV_COVER_RES_NOT_COVER;
 454:lvgl/src/core/lv_obj.c ****            return;
 455:lvgl/src/core/lv_obj.c ****         }
 456:lvgl/src/core/lv_obj.c **** 
 457:lvgl/src/core/lv_obj.c ****         if(lv_obj_get_style_bg_opa(obj, LV_PART_MAIN) < LV_OPA_MAX) {
 458:lvgl/src/core/lv_obj.c ****             info->res = LV_COVER_RES_NOT_COVER;
 459:lvgl/src/core/lv_obj.c ****             return;
 460:lvgl/src/core/lv_obj.c ****         }
 461:lvgl/src/core/lv_obj.c **** 
 462:lvgl/src/core/lv_obj.c **** #if LV_DRAW_COMPLEX
 463:lvgl/src/core/lv_obj.c ****         if(lv_obj_get_style_blend_mode(obj, LV_PART_MAIN) != LV_BLEND_MODE_NORMAL) {
 464:lvgl/src/core/lv_obj.c ****             info->res = LV_COVER_RES_NOT_COVER;
 465:lvgl/src/core/lv_obj.c ****             return;
 466:lvgl/src/core/lv_obj.c ****         }
 467:lvgl/src/core/lv_obj.c **** #endif
 468:lvgl/src/core/lv_obj.c ****         if(lv_obj_get_style_opa(obj, LV_PART_MAIN) < LV_OPA_MAX) {
 469:lvgl/src/core/lv_obj.c ****             info->res = LV_COVER_RES_NOT_COVER;
 470:lvgl/src/core/lv_obj.c ****             return;
 471:lvgl/src/core/lv_obj.c ****         }
 472:lvgl/src/core/lv_obj.c **** 
 473:lvgl/src/core/lv_obj.c ****         info->res = LV_COVER_RES_COVER;
 474:lvgl/src/core/lv_obj.c **** 
 475:lvgl/src/core/lv_obj.c ****     }
 476:lvgl/src/core/lv_obj.c ****     else if(code == LV_EVENT_DRAW_MAIN) {
 477:lvgl/src/core/lv_obj.c ****         const lv_area_t * clip_area = lv_event_get_param(e);
 478:lvgl/src/core/lv_obj.c ****         lv_draw_rect_dsc_t draw_dsc;
 479:lvgl/src/core/lv_obj.c ****         lv_draw_rect_dsc_init(&draw_dsc);
 480:lvgl/src/core/lv_obj.c ****         /*If the border is drawn later disable loading its properties*/
 481:lvgl/src/core/lv_obj.c ****         if(lv_obj_get_style_border_post(obj, LV_PART_MAIN)) {
 482:lvgl/src/core/lv_obj.c ****             draw_dsc.border_post = 1;
 483:lvgl/src/core/lv_obj.c ****         }
 484:lvgl/src/core/lv_obj.c **** 
 485:lvgl/src/core/lv_obj.c ****         lv_obj_init_draw_rect_dsc(obj, LV_PART_MAIN, &draw_dsc);
 486:lvgl/src/core/lv_obj.c **** 
ARM GAS  C:\Users\BLACK_~1\AppData\Local\Temp\ccVQcfpA.s 			page 10


 487:lvgl/src/core/lv_obj.c ****         lv_coord_t w = lv_obj_get_style_transform_width(obj, LV_PART_MAIN);
 488:lvgl/src/core/lv_obj.c ****         lv_coord_t h = lv_obj_get_style_transform_height(obj, LV_PART_MAIN);
 489:lvgl/src/core/lv_obj.c ****         lv_area_t coords;
 490:lvgl/src/core/lv_obj.c ****         lv_area_copy(&coords, &obj->coords);
 491:lvgl/src/core/lv_obj.c ****         coords.x1 -= w;
 492:lvgl/src/core/lv_obj.c ****         coords.x2 += w;
 493:lvgl/src/core/lv_obj.c ****         coords.y1 -= h;
 494:lvgl/src/core/lv_obj.c ****         coords.y2 += h;
 495:lvgl/src/core/lv_obj.c **** 
 496:lvgl/src/core/lv_obj.c ****         lv_draw_rect(&coords, clip_area, &draw_dsc);
 497:lvgl/src/core/lv_obj.c **** 
 498:lvgl/src/core/lv_obj.c **** #if LV_DRAW_COMPLEX
 499:lvgl/src/core/lv_obj.c ****         if(lv_obj_get_style_clip_corner(obj, LV_PART_MAIN)) {
 500:lvgl/src/core/lv_obj.c ****             lv_draw_mask_radius_param_t * mp = lv_mem_buf_get(sizeof(lv_draw_mask_radius_param_t));
 501:lvgl/src/core/lv_obj.c ****             lv_coord_t r = lv_obj_get_style_radius(obj, LV_PART_MAIN);
 502:lvgl/src/core/lv_obj.c ****             lv_draw_mask_radius_init(mp, &obj->coords, r, false);
 503:lvgl/src/core/lv_obj.c ****             /*Add the mask and use `obj+8` as custom id. Don't use `obj` directly because it might 
 504:lvgl/src/core/lv_obj.c ****             lv_draw_mask_add(mp, obj + 8);
 505:lvgl/src/core/lv_obj.c ****         }
 506:lvgl/src/core/lv_obj.c **** #endif
 507:lvgl/src/core/lv_obj.c ****     }
 508:lvgl/src/core/lv_obj.c ****     else if(code == LV_EVENT_DRAW_POST) {
 509:lvgl/src/core/lv_obj.c ****         const lv_area_t * clip_area = lv_event_get_param(e);
 510:lvgl/src/core/lv_obj.c ****         draw_scrollbar(obj, clip_area);
 511:lvgl/src/core/lv_obj.c **** 
 512:lvgl/src/core/lv_obj.c **** #if LV_DRAW_COMPLEX
 513:lvgl/src/core/lv_obj.c ****         if(lv_obj_get_style_clip_corner(obj, LV_PART_MAIN)) {
 514:lvgl/src/core/lv_obj.c ****             lv_draw_mask_radius_param_t * param = lv_draw_mask_remove_custom(obj + 8);
 515:lvgl/src/core/lv_obj.c ****             lv_mem_buf_release(param);
 516:lvgl/src/core/lv_obj.c ****         }
 517:lvgl/src/core/lv_obj.c **** #endif
 518:lvgl/src/core/lv_obj.c **** 
 519:lvgl/src/core/lv_obj.c ****         /*If the border is drawn later disable loading other properties*/
 520:lvgl/src/core/lv_obj.c ****         if(lv_obj_get_style_border_post(obj, LV_PART_MAIN)) {
 521:lvgl/src/core/lv_obj.c ****             lv_draw_rect_dsc_t draw_dsc;
 522:lvgl/src/core/lv_obj.c ****             lv_draw_rect_dsc_init(&draw_dsc);
 523:lvgl/src/core/lv_obj.c ****             draw_dsc.bg_opa = LV_OPA_TRANSP;
 524:lvgl/src/core/lv_obj.c ****             draw_dsc.outline_opa = LV_OPA_TRANSP;
 525:lvgl/src/core/lv_obj.c ****             draw_dsc.shadow_opa = LV_OPA_TRANSP;
 526:lvgl/src/core/lv_obj.c ****             lv_obj_init_draw_rect_dsc(obj, LV_PART_MAIN, &draw_dsc);
 527:lvgl/src/core/lv_obj.c **** 
 528:lvgl/src/core/lv_obj.c ****             lv_coord_t w = lv_obj_get_style_transform_width(obj, LV_PART_MAIN);
 529:lvgl/src/core/lv_obj.c ****             lv_coord_t h = lv_obj_get_style_transform_height(obj, LV_PART_MAIN);
 530:lvgl/src/core/lv_obj.c ****             lv_area_t coords;
 531:lvgl/src/core/lv_obj.c ****             lv_area_copy(&coords, &obj->coords);
 532:lvgl/src/core/lv_obj.c ****             coords.x1 -= w;
 533:lvgl/src/core/lv_obj.c ****             coords.x2 += w;
 534:lvgl/src/core/lv_obj.c ****             coords.y1 -= h;
 535:lvgl/src/core/lv_obj.c ****             coords.y2 += h;
 536:lvgl/src/core/lv_obj.c ****             lv_draw_rect(&coords, clip_area, &draw_dsc);
 537:lvgl/src/core/lv_obj.c ****         }
 538:lvgl/src/core/lv_obj.c ****     }
 539:lvgl/src/core/lv_obj.c **** }
 540:lvgl/src/core/lv_obj.c **** 
 541:lvgl/src/core/lv_obj.c **** static void draw_scrollbar(lv_obj_t * obj, const lv_area_t * clip_area)
 542:lvgl/src/core/lv_obj.c **** {
 543:lvgl/src/core/lv_obj.c **** 
ARM GAS  C:\Users\BLACK_~1\AppData\Local\Temp\ccVQcfpA.s 			page 11


 544:lvgl/src/core/lv_obj.c ****     lv_area_t hor_area;
 545:lvgl/src/core/lv_obj.c ****     lv_area_t ver_area;
 546:lvgl/src/core/lv_obj.c ****     lv_obj_get_scrollbar_area(obj, &hor_area, &ver_area);
 547:lvgl/src/core/lv_obj.c **** 
 548:lvgl/src/core/lv_obj.c ****     if(lv_area_get_size(&hor_area) <= 0 && lv_area_get_size(&ver_area) <= 0) return;
 549:lvgl/src/core/lv_obj.c **** 
 550:lvgl/src/core/lv_obj.c ****     lv_draw_rect_dsc_t draw_dsc;
 551:lvgl/src/core/lv_obj.c ****     lv_res_t sb_res = scrollbar_init_draw_dsc(obj, &draw_dsc);
 552:lvgl/src/core/lv_obj.c ****     if(sb_res != LV_RES_OK) return;
 553:lvgl/src/core/lv_obj.c **** 
 554:lvgl/src/core/lv_obj.c ****     if(lv_area_get_size(&hor_area) > 0) lv_draw_rect(&hor_area, clip_area, &draw_dsc);
 555:lvgl/src/core/lv_obj.c ****     if(lv_area_get_size(&ver_area) > 0) lv_draw_rect(&ver_area, clip_area, &draw_dsc);
 556:lvgl/src/core/lv_obj.c **** }
 557:lvgl/src/core/lv_obj.c **** 
 558:lvgl/src/core/lv_obj.c **** /**
 559:lvgl/src/core/lv_obj.c ****  * Initialize the draw descriptor for the scrollbar
 560:lvgl/src/core/lv_obj.c ****  * @param obj pointer to an object
 561:lvgl/src/core/lv_obj.c ****  * @param dsc the draw descriptor to initialize
 562:lvgl/src/core/lv_obj.c ****  * @return LV_RES_OK: the scrollbar is visible; LV_RES_INV: the scrollbar is not visible
 563:lvgl/src/core/lv_obj.c ****  */
 564:lvgl/src/core/lv_obj.c **** static lv_res_t scrollbar_init_draw_dsc(lv_obj_t * obj, lv_draw_rect_dsc_t * dsc)
 565:lvgl/src/core/lv_obj.c **** {
 566:lvgl/src/core/lv_obj.c ****     lv_draw_rect_dsc_init(dsc);
 567:lvgl/src/core/lv_obj.c ****     dsc->bg_opa = lv_obj_get_style_bg_opa(obj, LV_PART_SCROLLBAR);
 568:lvgl/src/core/lv_obj.c ****     if(dsc->bg_opa > LV_OPA_MIN) {
 569:lvgl/src/core/lv_obj.c ****         dsc->bg_color = lv_obj_get_style_bg_color(obj, LV_PART_SCROLLBAR);
 570:lvgl/src/core/lv_obj.c ****     }
 571:lvgl/src/core/lv_obj.c **** 
 572:lvgl/src/core/lv_obj.c ****     dsc->border_opa = lv_obj_get_style_border_opa(obj, LV_PART_SCROLLBAR);
 573:lvgl/src/core/lv_obj.c ****     if(dsc->border_opa > LV_OPA_MIN) {
 574:lvgl/src/core/lv_obj.c ****         dsc->border_width = lv_obj_get_style_border_width(obj, LV_PART_SCROLLBAR);
 575:lvgl/src/core/lv_obj.c ****         if(dsc->border_width > 0) {
 576:lvgl/src/core/lv_obj.c ****             dsc->border_color = lv_obj_get_style_border_color(obj, LV_PART_SCROLLBAR);
 577:lvgl/src/core/lv_obj.c ****         } else {
 578:lvgl/src/core/lv_obj.c ****             dsc->border_opa = LV_OPA_TRANSP;
 579:lvgl/src/core/lv_obj.c ****         }
 580:lvgl/src/core/lv_obj.c ****     }
 581:lvgl/src/core/lv_obj.c **** 
 582:lvgl/src/core/lv_obj.c **** #if LV_DRAW_COMPLEX
 583:lvgl/src/core/lv_obj.c ****     dsc->shadow_opa = lv_obj_get_style_shadow_opa(obj, LV_PART_SCROLLBAR);
 584:lvgl/src/core/lv_obj.c ****     if(dsc->shadow_opa > LV_OPA_MIN) {
 585:lvgl/src/core/lv_obj.c ****         dsc->shadow_width = lv_obj_get_style_shadow_width(obj, LV_PART_SCROLLBAR);
 586:lvgl/src/core/lv_obj.c ****         if(dsc->shadow_width > 0) {
 587:lvgl/src/core/lv_obj.c ****             dsc->shadow_spread = lv_obj_get_style_shadow_spread(obj, LV_PART_SCROLLBAR);
 588:lvgl/src/core/lv_obj.c ****             dsc->shadow_color = lv_obj_get_style_shadow_color(obj, LV_PART_SCROLLBAR);
 589:lvgl/src/core/lv_obj.c ****         } else {
 590:lvgl/src/core/lv_obj.c ****             dsc->shadow_opa = LV_OPA_TRANSP;
 591:lvgl/src/core/lv_obj.c ****         }
 592:lvgl/src/core/lv_obj.c ****     }
 593:lvgl/src/core/lv_obj.c **** 
 594:lvgl/src/core/lv_obj.c ****     lv_opa_t opa = lv_obj_get_style_opa(obj, LV_PART_SCROLLBAR);
 595:lvgl/src/core/lv_obj.c ****     if(opa < LV_OPA_MAX) {
 596:lvgl/src/core/lv_obj.c ****         dsc->bg_opa = (dsc->bg_opa * opa) >> 8;
 597:lvgl/src/core/lv_obj.c ****         dsc->border_opa = (dsc->bg_opa * opa) >> 8;
 598:lvgl/src/core/lv_obj.c ****         dsc->shadow_opa = (dsc->bg_opa * opa) >> 8;
 599:lvgl/src/core/lv_obj.c ****     }
 600:lvgl/src/core/lv_obj.c **** 
ARM GAS  C:\Users\BLACK_~1\AppData\Local\Temp\ccVQcfpA.s 			page 12


 601:lvgl/src/core/lv_obj.c ****     if(dsc->bg_opa != LV_OPA_TRANSP || dsc->border_opa != LV_OPA_TRANSP || dsc->shadow_opa != LV_OP
 602:lvgl/src/core/lv_obj.c ****         dsc->radius = lv_obj_get_style_radius(obj, LV_PART_SCROLLBAR);
 603:lvgl/src/core/lv_obj.c ****         return LV_RES_OK;
 604:lvgl/src/core/lv_obj.c ****     } else {
 605:lvgl/src/core/lv_obj.c ****         return LV_RES_INV;
 606:lvgl/src/core/lv_obj.c ****     }
 607:lvgl/src/core/lv_obj.c **** #else
 608:lvgl/src/core/lv_obj.c ****     if(dsc->bg_opa != LV_OPA_TRANSP || dsc->border_opa != LV_OPA_TRANSP) return LV_RES_OK;
 609:lvgl/src/core/lv_obj.c ****     else return LV_RES_INV;
 610:lvgl/src/core/lv_obj.c **** #endif
 611:lvgl/src/core/lv_obj.c **** }
 612:lvgl/src/core/lv_obj.c **** 
 613:lvgl/src/core/lv_obj.c **** static void lv_obj_event(const lv_obj_class_t * class_p, lv_event_t * e)
 614:lvgl/src/core/lv_obj.c **** {
 615:lvgl/src/core/lv_obj.c ****     LV_UNUSED(class_p);
 616:lvgl/src/core/lv_obj.c **** 
 617:lvgl/src/core/lv_obj.c ****     lv_event_code_t code = lv_event_get_code(e);
 618:lvgl/src/core/lv_obj.c ****     lv_obj_t * obj = lv_event_get_target(e);
 619:lvgl/src/core/lv_obj.c ****     if(code == LV_EVENT_PRESSED) {
 620:lvgl/src/core/lv_obj.c ****         lv_obj_add_state(obj, LV_STATE_PRESSED);
 621:lvgl/src/core/lv_obj.c ****     }
 622:lvgl/src/core/lv_obj.c ****     else if(code == LV_EVENT_RELEASED) {
 623:lvgl/src/core/lv_obj.c ****         lv_obj_clear_state(obj, LV_STATE_PRESSED);
 624:lvgl/src/core/lv_obj.c ****         void * param = lv_event_get_param(e);
 625:lvgl/src/core/lv_obj.c ****         /*Go the checked state if enabled*/
 626:lvgl/src/core/lv_obj.c ****         if(lv_indev_get_scroll_obj(param) == NULL && lv_obj_has_flag(obj, LV_OBJ_FLAG_CHECKABLE)) {
 627:lvgl/src/core/lv_obj.c ****             if(!(lv_obj_get_state(obj) & LV_STATE_CHECKED)) lv_obj_add_state(obj, LV_STATE_CHECKED)
 628:lvgl/src/core/lv_obj.c ****             else lv_obj_clear_state(obj, LV_STATE_CHECKED);
 629:lvgl/src/core/lv_obj.c **** 
 630:lvgl/src/core/lv_obj.c ****             lv_res_t res = lv_event_send(obj, LV_EVENT_VALUE_CHANGED, NULL);
 631:lvgl/src/core/lv_obj.c ****             if(res != LV_RES_OK) return;
 632:lvgl/src/core/lv_obj.c ****         }
 633:lvgl/src/core/lv_obj.c ****     }
 634:lvgl/src/core/lv_obj.c ****     else if(code == LV_EVENT_PRESS_LOST) {
 635:lvgl/src/core/lv_obj.c ****         lv_obj_clear_state(obj, LV_STATE_PRESSED);
 636:lvgl/src/core/lv_obj.c ****     }
 637:lvgl/src/core/lv_obj.c ****     else if(code == LV_EVENT_STYLE_CHANGED) {
 638:lvgl/src/core/lv_obj.c ****         uint32_t child_cnt = lv_obj_get_child_cnt(obj);
 639:lvgl/src/core/lv_obj.c ****         for(uint32_t i = 0; i < child_cnt; i++) {
 640:lvgl/src/core/lv_obj.c ****             lv_obj_t * child = obj->spec_attr->children[i];
 641:lvgl/src/core/lv_obj.c ****             lv_obj_mark_layout_as_dirty(child);
 642:lvgl/src/core/lv_obj.c ****         }
 643:lvgl/src/core/lv_obj.c ****     }
 644:lvgl/src/core/lv_obj.c ****     else if(code == LV_EVENT_KEY) {
 645:lvgl/src/core/lv_obj.c ****         if(lv_obj_has_flag(obj, LV_OBJ_FLAG_CHECKABLE)) {
 646:lvgl/src/core/lv_obj.c ****             char c = *((char *)lv_event_get_param(e));
 647:lvgl/src/core/lv_obj.c ****             if(c == LV_KEY_RIGHT || c == LV_KEY_UP) {
 648:lvgl/src/core/lv_obj.c ****                 lv_obj_add_state(obj, LV_STATE_CHECKED);
 649:lvgl/src/core/lv_obj.c ****             }
 650:lvgl/src/core/lv_obj.c ****             else if(c == LV_KEY_LEFT || c == LV_KEY_DOWN) {
 651:lvgl/src/core/lv_obj.c ****                 lv_obj_clear_state(obj, LV_STATE_CHECKED);
 652:lvgl/src/core/lv_obj.c ****             }
 653:lvgl/src/core/lv_obj.c **** 
 654:lvgl/src/core/lv_obj.c ****             /*With Enter LV_EVENT_RELEASED will send VALUE_CHANGE event*/
 655:lvgl/src/core/lv_obj.c ****             if(c != LV_KEY_ENTER) {
 656:lvgl/src/core/lv_obj.c ****                 lv_res_t res = lv_event_send(obj, LV_EVENT_VALUE_CHANGED, NULL);
 657:lvgl/src/core/lv_obj.c ****                 if(res != LV_RES_OK) return;
ARM GAS  C:\Users\BLACK_~1\AppData\Local\Temp\ccVQcfpA.s 			page 13


 658:lvgl/src/core/lv_obj.c ****             }
 659:lvgl/src/core/lv_obj.c ****         }
 660:lvgl/src/core/lv_obj.c ****     }
 661:lvgl/src/core/lv_obj.c ****     else if(code == LV_EVENT_FOCUSED) {
 662:lvgl/src/core/lv_obj.c ****         if(lv_obj_has_flag(obj, LV_OBJ_FLAG_SCROLL_ON_FOCUS)) {
 663:lvgl/src/core/lv_obj.c ****             lv_obj_scroll_to_view_recursive(obj, LV_ANIM_ON);
 664:lvgl/src/core/lv_obj.c ****         }
 665:lvgl/src/core/lv_obj.c **** 
 666:lvgl/src/core/lv_obj.c ****         bool editing = false;
 667:lvgl/src/core/lv_obj.c ****         editing = lv_group_get_editing(lv_obj_get_group(obj));
 668:lvgl/src/core/lv_obj.c ****         lv_state_t state = LV_STATE_FOCUSED;
 669:lvgl/src/core/lv_obj.c **** 
 670:lvgl/src/core/lv_obj.c ****         /* Use the indev for then indev handler.
 671:lvgl/src/core/lv_obj.c ****          * But if the obj was focused manually it returns NULL so try to
 672:lvgl/src/core/lv_obj.c ****          * use the indev from the event*/
 673:lvgl/src/core/lv_obj.c ****         lv_indev_t * indev = lv_indev_get_act();
 674:lvgl/src/core/lv_obj.c ****         if(indev == NULL) indev = lv_event_get_indev(e);
 675:lvgl/src/core/lv_obj.c **** 
 676:lvgl/src/core/lv_obj.c ****         lv_indev_type_t indev_type = lv_indev_get_type(indev);
 677:lvgl/src/core/lv_obj.c ****         if(indev_type == LV_INDEV_TYPE_KEYPAD || indev_type == LV_INDEV_TYPE_ENCODER) state |= LV_S
 678:lvgl/src/core/lv_obj.c ****         if(editing) {
 679:lvgl/src/core/lv_obj.c ****             state |= LV_STATE_EDITED;
 680:lvgl/src/core/lv_obj.c ****             lv_obj_add_state(obj, state);
 681:lvgl/src/core/lv_obj.c ****         }
 682:lvgl/src/core/lv_obj.c ****         else {
 683:lvgl/src/core/lv_obj.c ****             lv_obj_add_state(obj, state);
 684:lvgl/src/core/lv_obj.c ****             lv_obj_clear_state(obj, LV_STATE_EDITED);
 685:lvgl/src/core/lv_obj.c ****         }
 686:lvgl/src/core/lv_obj.c ****     }
 687:lvgl/src/core/lv_obj.c ****     else if(code == LV_EVENT_SCROLL_BEGIN) {
 688:lvgl/src/core/lv_obj.c ****         lv_obj_add_state(obj, LV_STATE_SCROLLED);
 689:lvgl/src/core/lv_obj.c ****     }
 690:lvgl/src/core/lv_obj.c ****     else if(code == LV_EVENT_SCROLL_END) {
 691:lvgl/src/core/lv_obj.c ****         lv_obj_clear_state(obj, LV_STATE_SCROLLED);
 692:lvgl/src/core/lv_obj.c ****     }
 693:lvgl/src/core/lv_obj.c ****     else if(code == LV_EVENT_DEFOCUSED) {
 694:lvgl/src/core/lv_obj.c ****         lv_obj_clear_state(obj, LV_STATE_FOCUSED | LV_STATE_EDITED | LV_STATE_FOCUS_KEY);
 695:lvgl/src/core/lv_obj.c ****     }
 696:lvgl/src/core/lv_obj.c ****     else if(code == LV_EVENT_SIZE_CHANGED) {
 697:lvgl/src/core/lv_obj.c ****         lv_coord_t align = lv_obj_get_style_align(obj, LV_PART_MAIN);
 698:lvgl/src/core/lv_obj.c ****         uint16_t layout = lv_obj_get_style_layout(obj, LV_PART_MAIN);
 699:lvgl/src/core/lv_obj.c ****         if(layout || align) {
 700:lvgl/src/core/lv_obj.c ****             lv_obj_mark_layout_as_dirty(obj);
 701:lvgl/src/core/lv_obj.c ****         }
 702:lvgl/src/core/lv_obj.c **** 
 703:lvgl/src/core/lv_obj.c ****         uint32_t i;
 704:lvgl/src/core/lv_obj.c ****         for(i = 0; i < lv_obj_get_child_cnt(obj); i++) {
 705:lvgl/src/core/lv_obj.c ****             lv_obj_t * child = lv_obj_get_child(obj, i);
 706:lvgl/src/core/lv_obj.c ****             lv_obj_mark_layout_as_dirty(child);
 707:lvgl/src/core/lv_obj.c ****         }
 708:lvgl/src/core/lv_obj.c ****     }
 709:lvgl/src/core/lv_obj.c ****     else if(code == LV_EVENT_CHILD_CHANGED) {
 710:lvgl/src/core/lv_obj.c ****         lv_coord_t w = lv_obj_get_style_width(obj, LV_PART_MAIN);
 711:lvgl/src/core/lv_obj.c ****         lv_coord_t h = lv_obj_get_style_height(obj, LV_PART_MAIN);
 712:lvgl/src/core/lv_obj.c ****         lv_coord_t align = lv_obj_get_style_align(obj, LV_PART_MAIN);
 713:lvgl/src/core/lv_obj.c ****         uint16_t layout = lv_obj_get_style_layout(obj, LV_PART_MAIN);
 714:lvgl/src/core/lv_obj.c ****         if(layout || align || w == LV_SIZE_CONTENT || h == LV_SIZE_CONTENT) {
ARM GAS  C:\Users\BLACK_~1\AppData\Local\Temp\ccVQcfpA.s 			page 14


 715:lvgl/src/core/lv_obj.c ****             lv_obj_mark_layout_as_dirty(obj);
 716:lvgl/src/core/lv_obj.c ****         }
 717:lvgl/src/core/lv_obj.c ****     }
 718:lvgl/src/core/lv_obj.c ****     else if(code == LV_EVENT_SCROLL_END) {
 719:lvgl/src/core/lv_obj.c ****         if(lv_obj_get_scrollbar_mode(obj) == LV_SCROLLBAR_MODE_ACTIVE) {
 720:lvgl/src/core/lv_obj.c ****             lv_obj_invalidate(obj);
 721:lvgl/src/core/lv_obj.c ****         }
 722:lvgl/src/core/lv_obj.c ****     }
 723:lvgl/src/core/lv_obj.c ****     else if(code == LV_EVENT_REFR_EXT_DRAW_SIZE) {
 724:lvgl/src/core/lv_obj.c ****         lv_coord_t * s = lv_event_get_param(e);
 725:lvgl/src/core/lv_obj.c ****         lv_coord_t d = lv_obj_calculate_ext_draw_size(obj, LV_PART_MAIN);
 726:lvgl/src/core/lv_obj.c ****         *s = LV_MAX(*s, d);
 727:lvgl/src/core/lv_obj.c ****     }
 728:lvgl/src/core/lv_obj.c ****     else if(code == LV_EVENT_DRAW_MAIN || code == LV_EVENT_DRAW_POST || code == LV_EVENT_COVER_CHEC
 729:lvgl/src/core/lv_obj.c ****         lv_obj_draw(e);
 730:lvgl/src/core/lv_obj.c ****     }
 731:lvgl/src/core/lv_obj.c **** }
 732:lvgl/src/core/lv_obj.c **** 
 733:lvgl/src/core/lv_obj.c **** /**
 734:lvgl/src/core/lv_obj.c ****  * Set the state (fully overwrite) of an object.
 735:lvgl/src/core/lv_obj.c ****  * If specified in the styles, transition animations will be started from the previous state to the
 736:lvgl/src/core/lv_obj.c ****  * @param obj       pointer to an object
 737:lvgl/src/core/lv_obj.c ****  * @param state     the new state
 738:lvgl/src/core/lv_obj.c ****  */
 739:lvgl/src/core/lv_obj.c **** static void lv_obj_set_state(lv_obj_t * obj, lv_state_t new_state)
 740:lvgl/src/core/lv_obj.c **** {
 741:lvgl/src/core/lv_obj.c ****     if(obj->state == new_state) return;
 742:lvgl/src/core/lv_obj.c **** 
 743:lvgl/src/core/lv_obj.c ****     LV_ASSERT_OBJ(obj, MY_CLASS);
 744:lvgl/src/core/lv_obj.c **** 
 745:lvgl/src/core/lv_obj.c ****     lv_state_t prev_state = obj->state;
 746:lvgl/src/core/lv_obj.c ****     obj->state = new_state;
 747:lvgl/src/core/lv_obj.c **** 
 748:lvgl/src/core/lv_obj.c ****     _lv_style_state_cmp_t cmp_res = _lv_obj_style_state_compare(obj, prev_state, new_state);
 749:lvgl/src/core/lv_obj.c ****     /*If there is no difference in styles there is nothing else to do*/
 750:lvgl/src/core/lv_obj.c ****     if(cmp_res == _LV_STYLE_STATE_CMP_SAME) return;
 751:lvgl/src/core/lv_obj.c **** 
 752:lvgl/src/core/lv_obj.c ****     _lv_obj_style_transition_dsc_t * ts = lv_mem_buf_get(sizeof(_lv_obj_style_transition_dsc_t) * S
 753:lvgl/src/core/lv_obj.c ****     lv_memset_00(ts, sizeof(_lv_obj_style_transition_dsc_t) * STYLE_TRANSITION_MAX);
 754:lvgl/src/core/lv_obj.c ****     uint32_t tsi = 0;
 755:lvgl/src/core/lv_obj.c ****     uint32_t i;
 756:lvgl/src/core/lv_obj.c ****     for(i = 0; i < obj->style_cnt && tsi < STYLE_TRANSITION_MAX; i++) {
 757:lvgl/src/core/lv_obj.c ****         _lv_obj_style_t * obj_style = &obj->styles[i];
 758:lvgl/src/core/lv_obj.c ****         lv_state_t state_act = lv_obj_style_get_selector_state(obj->styles[i].selector);
 759:lvgl/src/core/lv_obj.c ****         lv_part_t part_act = lv_obj_style_get_selector_part(obj->styles[i].selector);
 760:lvgl/src/core/lv_obj.c ****         if(state_act & (~new_state)) continue; /*Skip unrelated styles*/
 761:lvgl/src/core/lv_obj.c ****         if(obj_style->is_trans) continue;
 762:lvgl/src/core/lv_obj.c **** 
 763:lvgl/src/core/lv_obj.c ****         lv_style_value_t v;
 764:lvgl/src/core/lv_obj.c ****         if(lv_style_get_prop_inlined(obj_style->style, LV_STYLE_TRANSITION, &v) == false) continue;
 765:lvgl/src/core/lv_obj.c ****         const lv_style_transition_dsc_t * tr = v.ptr;
 766:lvgl/src/core/lv_obj.c **** 
 767:lvgl/src/core/lv_obj.c ****         /*Add the props to the set if not added yet or added but with smaller weight*/
 768:lvgl/src/core/lv_obj.c ****         uint32_t j;
 769:lvgl/src/core/lv_obj.c ****         for(j = 0; tr->props[j] != 0 && tsi < STYLE_TRANSITION_MAX; j++) {
 770:lvgl/src/core/lv_obj.c ****             uint32_t t;
 771:lvgl/src/core/lv_obj.c ****             for(t = 0; t < tsi; t++) {
ARM GAS  C:\Users\BLACK_~1\AppData\Local\Temp\ccVQcfpA.s 			page 15


 772:lvgl/src/core/lv_obj.c ****                 lv_style_selector_t selector = ts[t].selector;
 773:lvgl/src/core/lv_obj.c ****                 lv_state_t state_ts = lv_obj_style_get_selector_state(selector);
 774:lvgl/src/core/lv_obj.c ****                 lv_part_t part_ts = lv_obj_style_get_selector_part(selector);
 775:lvgl/src/core/lv_obj.c ****                 if(ts[t].prop == tr->props[j] && part_ts == part_act && state_ts >= state_act) brea
 776:lvgl/src/core/lv_obj.c ****             }
 777:lvgl/src/core/lv_obj.c **** 
 778:lvgl/src/core/lv_obj.c ****             /*If not found  add it*/
 779:lvgl/src/core/lv_obj.c ****             if(t == tsi) {
 780:lvgl/src/core/lv_obj.c ****                 ts[tsi].time = tr->time;
 781:lvgl/src/core/lv_obj.c ****                 ts[tsi].delay = tr->delay;
 782:lvgl/src/core/lv_obj.c ****                 ts[tsi].path_cb = tr->path_xcb;
 783:lvgl/src/core/lv_obj.c ****                 ts[tsi].prop = tr->props[j];
 784:lvgl/src/core/lv_obj.c **** #if LV_USE_USER_DATA
 785:lvgl/src/core/lv_obj.c ****                 ts[tsi].user_data = tr->user_data;
 786:lvgl/src/core/lv_obj.c **** #endif
 787:lvgl/src/core/lv_obj.c ****                 ts[tsi].selector = obj_style->selector;
 788:lvgl/src/core/lv_obj.c ****                 tsi++;
 789:lvgl/src/core/lv_obj.c ****             }
 790:lvgl/src/core/lv_obj.c ****         }
 791:lvgl/src/core/lv_obj.c ****     }
 792:lvgl/src/core/lv_obj.c **** 
 793:lvgl/src/core/lv_obj.c ****     for(i = 0;i < tsi; i++) {
 794:lvgl/src/core/lv_obj.c ****         lv_part_t part_act = lv_obj_style_get_selector_part(ts[i].selector);
 795:lvgl/src/core/lv_obj.c ****         _lv_obj_style_create_transition(obj, part_act, prev_state, new_state, &ts[i]);
 796:lvgl/src/core/lv_obj.c ****     }
 797:lvgl/src/core/lv_obj.c **** 
 798:lvgl/src/core/lv_obj.c ****     lv_mem_buf_release(ts);
 799:lvgl/src/core/lv_obj.c **** 
 800:lvgl/src/core/lv_obj.c ****     if(cmp_res == _LV_STYLE_STATE_CMP_DIFF_REDRAW) {
 801:lvgl/src/core/lv_obj.c ****         lv_obj_invalidate(obj);
 802:lvgl/src/core/lv_obj.c ****     }
 803:lvgl/src/core/lv_obj.c ****     else if(cmp_res == _LV_STYLE_STATE_CMP_DIFF_LAYOUT) {
 804:lvgl/src/core/lv_obj.c ****         lv_obj_refresh_style(obj, LV_PART_ANY, LV_STYLE_PROP_ANY);
 805:lvgl/src/core/lv_obj.c ****     }
 806:lvgl/src/core/lv_obj.c ****     else if(cmp_res == _LV_STYLE_STATE_CMP_DIFF_DRAW_PAD) {
 807:lvgl/src/core/lv_obj.c ****         lv_obj_invalidate(obj);
 808:lvgl/src/core/lv_obj.c ****         lv_obj_refresh_ext_draw_size(obj);
 809:lvgl/src/core/lv_obj.c ****     }
 810:lvgl/src/core/lv_obj.c **** }
 811:lvgl/src/core/lv_obj.c **** 
 812:lvgl/src/core/lv_obj.c **** static bool obj_valid_child(const lv_obj_t * parent, const lv_obj_t * obj_to_find)
 813:lvgl/src/core/lv_obj.c **** {
  29              		.loc 1 813 1 view -0
  30              		.cfi_startproc
  31              		@ args = 0, pretend = 0, frame = 0
  32              		@ frame_needed = 0, uses_anonymous_args = 0
  33              		.loc 1 813 1 is_stmt 0 view .LVU1
  34 0000 F8B5     		push	{r3, r4, r5, r6, r7, lr}
  35              	.LCFI0:
  36              		.cfi_def_cfa_offset 24
  37              		.cfi_offset 3, -24
  38              		.cfi_offset 4, -20
  39              		.cfi_offset 5, -16
  40              		.cfi_offset 6, -12
  41              		.cfi_offset 7, -8
  42              		.cfi_offset 14, -4
  43 0002 0646     		mov	r6, r0
ARM GAS  C:\Users\BLACK_~1\AppData\Local\Temp\ccVQcfpA.s 			page 16


  44 0004 0D46     		mov	r5, r1
 814:lvgl/src/core/lv_obj.c ****     /*Check all children of `parent`*/
 815:lvgl/src/core/lv_obj.c ****     uint32_t child_cnt = 0;
  45              		.loc 1 815 5 is_stmt 1 view .LVU2
  46              	.LVL1:
 816:lvgl/src/core/lv_obj.c ****     if(parent->spec_attr) child_cnt = parent->spec_attr->child_cnt;
  47              		.loc 1 816 5 view .LVU3
  48              		.loc 1 816 14 is_stmt 0 view .LVU4
  49 0006 8368     		ldr	r3, [r0, #8]
  50              		.loc 1 816 7 view .LVU5
  51 0008 13B1     		cbz	r3, .L6
  52              		.loc 1 816 27 is_stmt 1 discriminator 1 view .LVU6
  53              		.loc 1 816 37 is_stmt 0 discriminator 1 view .LVU7
  54 000a 5F68     		ldr	r7, [r3, #4]
  55              	.LVL2:
  56              	.L2:
 817:lvgl/src/core/lv_obj.c ****     uint32_t i;
  57              		.loc 1 817 5 is_stmt 1 view .LVU8
 818:lvgl/src/core/lv_obj.c ****     for(i = 0; i < child_cnt; i++) {
  58              		.loc 1 818 5 view .LVU9
  59              		.loc 1 818 11 is_stmt 0 view .LVU10
  60 000c 0024     		movs	r4, #0
  61              		.loc 1 818 5 view .LVU11
  62 000e 02E0     		b	.L3
  63              	.LVL3:
  64              	.L6:
 815:lvgl/src/core/lv_obj.c ****     if(parent->spec_attr) child_cnt = parent->spec_attr->child_cnt;
  65              		.loc 1 815 14 view .LVU12
  66 0010 0027     		movs	r7, #0
  67 0012 FBE7     		b	.L2
  68              	.LVL4:
  69              	.L10:
  70              		.loc 1 818 31 is_stmt 1 discriminator 2 view .LVU13
  71              		.loc 1 818 32 is_stmt 0 discriminator 2 view .LVU14
  72 0014 0134     		adds	r4, r4, #1
  73              	.LVL5:
  74              	.L3:
  75              		.loc 1 818 16 is_stmt 1 discriminator 1 view .LVU15
  76              		.loc 1 818 5 is_stmt 0 discriminator 1 view .LVU16
  77 0016 A742     		cmp	r7, r4
  78 0018 0CD9     		bls	.L9
  79              	.LBB99:
 819:lvgl/src/core/lv_obj.c ****         lv_obj_t * child = parent->spec_attr->children[i];
  80              		.loc 1 819 9 is_stmt 1 view .LVU17
  81              		.loc 1 819 34 is_stmt 0 view .LVU18
  82 001a B368     		ldr	r3, [r6, #8]
  83              		.loc 1 819 45 view .LVU19
  84 001c 1B68     		ldr	r3, [r3]
  85              		.loc 1 819 20 view .LVU20
  86 001e 53F82400 		ldr	r0, [r3, r4, lsl #2]
  87              	.LVL6:
 820:lvgl/src/core/lv_obj.c ****         if(child == obj_to_find) {
  88              		.loc 1 820 9 is_stmt 1 view .LVU21
  89              		.loc 1 820 11 is_stmt 0 view .LVU22
  90 0022 A842     		cmp	r0, r5
  91 0024 09D0     		beq	.L7
 821:lvgl/src/core/lv_obj.c ****             return true;
ARM GAS  C:\Users\BLACK_~1\AppData\Local\Temp\ccVQcfpA.s 			page 17


 822:lvgl/src/core/lv_obj.c ****         }
 823:lvgl/src/core/lv_obj.c **** 
 824:lvgl/src/core/lv_obj.c ****         /*Check the children*/
 825:lvgl/src/core/lv_obj.c ****         bool found = obj_valid_child(child, obj_to_find);
  92              		.loc 1 825 9 is_stmt 1 view .LVU23
  93              		.loc 1 825 22 is_stmt 0 view .LVU24
  94 0026 2946     		mov	r1, r5
  95 0028 FFF7EAFF 		bl	obj_valid_child
  96              	.LVL7:
 826:lvgl/src/core/lv_obj.c ****         if(found) {
  97              		.loc 1 826 9 is_stmt 1 view .LVU25
  98              		.loc 1 826 11 is_stmt 0 view .LVU26
  99 002c 0346     		mov	r3, r0
 100 002e 0028     		cmp	r0, #0
 101 0030 F0D0     		beq	.L10
 102 0032 00E0     		b	.L4
 103              	.LVL8:
 104              	.L9:
 105              		.loc 1 826 11 view .LVU27
 106              	.LBE99:
 827:lvgl/src/core/lv_obj.c ****             return true;
 828:lvgl/src/core/lv_obj.c ****         }
 829:lvgl/src/core/lv_obj.c ****     }
 830:lvgl/src/core/lv_obj.c ****     return false;
 107              		.loc 1 830 12 view .LVU28
 108 0034 0023     		movs	r3, #0
 109              	.L4:
 831:lvgl/src/core/lv_obj.c **** }
 110              		.loc 1 831 1 view .LVU29
 111 0036 1846     		mov	r0, r3
 112 0038 F8BD     		pop	{r3, r4, r5, r6, r7, pc}
 113              	.LVL9:
 114              	.L7:
 115              	.LBB100:
 821:lvgl/src/core/lv_obj.c ****         }
 116              		.loc 1 821 20 view .LVU30
 117 003a 0123     		movs	r3, #1
 118 003c FBE7     		b	.L4
 119              	.LBE100:
 120              		.cfi_endproc
 121              	.LFE177:
 123              		.section	.text.scrollbar_init_draw_dsc,"ax",%progbits
 124              		.align	1
 125              		.syntax unified
 126              		.thumb
 127              		.thumb_func
 129              	scrollbar_init_draw_dsc:
 130              	.LVL10:
 131              	.LFB174:
 565:lvgl/src/core/lv_obj.c ****     lv_draw_rect_dsc_init(dsc);
 132              		.loc 1 565 1 is_stmt 1 view -0
 133              		.cfi_startproc
 134              		@ args = 0, pretend = 0, frame = 0
 135              		@ frame_needed = 0, uses_anonymous_args = 0
 565:lvgl/src/core/lv_obj.c ****     lv_draw_rect_dsc_init(dsc);
 136              		.loc 1 565 1 is_stmt 0 view .LVU32
 137 0000 38B5     		push	{r3, r4, r5, lr}
ARM GAS  C:\Users\BLACK_~1\AppData\Local\Temp\ccVQcfpA.s 			page 18


 138              	.LCFI1:
 139              		.cfi_def_cfa_offset 16
 140              		.cfi_offset 3, -16
 141              		.cfi_offset 4, -12
 142              		.cfi_offset 5, -8
 143              		.cfi_offset 14, -4
 144 0002 0546     		mov	r5, r0
 145 0004 0C46     		mov	r4, r1
 566:lvgl/src/core/lv_obj.c ****     dsc->bg_opa = lv_obj_get_style_bg_opa(obj, LV_PART_SCROLLBAR);
 146              		.loc 1 566 5 is_stmt 1 view .LVU33
 147 0006 0846     		mov	r0, r1
 148              	.LVL11:
 566:lvgl/src/core/lv_obj.c ****     dsc->bg_opa = lv_obj_get_style_bg_opa(obj, LV_PART_SCROLLBAR);
 149              		.loc 1 566 5 is_stmt 0 view .LVU34
 150 0008 FFF7FEFF 		bl	lv_draw_rect_dsc_init
 151              	.LVL12:
 567:lvgl/src/core/lv_obj.c ****     if(dsc->bg_opa > LV_OPA_MIN) {
 152              		.loc 1 567 5 is_stmt 1 view .LVU35
 153              	.LBB101:
 154              	.LBI101:
 155              		.file 2 "lvgl/src/core/lv_obj_style_gen.h"
   1:lvgl/src/core/lv_obj_style_gen.h **** static inline lv_coord_t lv_obj_get_style_width(const struct _lv_obj_t * obj, uint32_t part)
   2:lvgl/src/core/lv_obj_style_gen.h **** {
   3:lvgl/src/core/lv_obj_style_gen.h ****     lv_style_value_t v = lv_obj_get_style_prop(obj, part, LV_STYLE_WIDTH);
   4:lvgl/src/core/lv_obj_style_gen.h ****     return (lv_coord_t)v.num;
   5:lvgl/src/core/lv_obj_style_gen.h **** }
   6:lvgl/src/core/lv_obj_style_gen.h **** 
   7:lvgl/src/core/lv_obj_style_gen.h **** static inline lv_coord_t lv_obj_get_style_min_width(const struct _lv_obj_t * obj, uint32_t part)
   8:lvgl/src/core/lv_obj_style_gen.h **** {
   9:lvgl/src/core/lv_obj_style_gen.h ****     lv_style_value_t v = lv_obj_get_style_prop(obj, part, LV_STYLE_MIN_WIDTH);
  10:lvgl/src/core/lv_obj_style_gen.h ****     return (lv_coord_t)v.num;
  11:lvgl/src/core/lv_obj_style_gen.h **** }
  12:lvgl/src/core/lv_obj_style_gen.h **** 
  13:lvgl/src/core/lv_obj_style_gen.h **** static inline lv_coord_t lv_obj_get_style_max_width(const struct _lv_obj_t * obj, uint32_t part)
  14:lvgl/src/core/lv_obj_style_gen.h **** {
  15:lvgl/src/core/lv_obj_style_gen.h ****     lv_style_value_t v = lv_obj_get_style_prop(obj, part, LV_STYLE_MAX_WIDTH);
  16:lvgl/src/core/lv_obj_style_gen.h ****     return (lv_coord_t)v.num;
  17:lvgl/src/core/lv_obj_style_gen.h **** }
  18:lvgl/src/core/lv_obj_style_gen.h **** 
  19:lvgl/src/core/lv_obj_style_gen.h **** static inline lv_coord_t lv_obj_get_style_height(const struct _lv_obj_t * obj, uint32_t part)
  20:lvgl/src/core/lv_obj_style_gen.h **** {
  21:lvgl/src/core/lv_obj_style_gen.h ****     lv_style_value_t v = lv_obj_get_style_prop(obj, part, LV_STYLE_HEIGHT);
  22:lvgl/src/core/lv_obj_style_gen.h ****     return (lv_coord_t)v.num;
  23:lvgl/src/core/lv_obj_style_gen.h **** }
  24:lvgl/src/core/lv_obj_style_gen.h **** 
  25:lvgl/src/core/lv_obj_style_gen.h **** static inline lv_coord_t lv_obj_get_style_min_height(const struct _lv_obj_t * obj, uint32_t part)
  26:lvgl/src/core/lv_obj_style_gen.h **** {
  27:lvgl/src/core/lv_obj_style_gen.h ****     lv_style_value_t v = lv_obj_get_style_prop(obj, part, LV_STYLE_MIN_HEIGHT);
  28:lvgl/src/core/lv_obj_style_gen.h ****     return (lv_coord_t)v.num;
  29:lvgl/src/core/lv_obj_style_gen.h **** }
  30:lvgl/src/core/lv_obj_style_gen.h **** 
  31:lvgl/src/core/lv_obj_style_gen.h **** static inline lv_coord_t lv_obj_get_style_max_height(const struct _lv_obj_t * obj, uint32_t part)
  32:lvgl/src/core/lv_obj_style_gen.h **** {
  33:lvgl/src/core/lv_obj_style_gen.h ****     lv_style_value_t v = lv_obj_get_style_prop(obj, part, LV_STYLE_MAX_HEIGHT);
  34:lvgl/src/core/lv_obj_style_gen.h ****     return (lv_coord_t)v.num;
  35:lvgl/src/core/lv_obj_style_gen.h **** }
  36:lvgl/src/core/lv_obj_style_gen.h **** 
ARM GAS  C:\Users\BLACK_~1\AppData\Local\Temp\ccVQcfpA.s 			page 19


  37:lvgl/src/core/lv_obj_style_gen.h **** static inline lv_coord_t lv_obj_get_style_x(const struct _lv_obj_t * obj, uint32_t part)
  38:lvgl/src/core/lv_obj_style_gen.h **** {
  39:lvgl/src/core/lv_obj_style_gen.h ****     lv_style_value_t v = lv_obj_get_style_prop(obj, part, LV_STYLE_X);
  40:lvgl/src/core/lv_obj_style_gen.h ****     return (lv_coord_t)v.num;
  41:lvgl/src/core/lv_obj_style_gen.h **** }
  42:lvgl/src/core/lv_obj_style_gen.h **** 
  43:lvgl/src/core/lv_obj_style_gen.h **** static inline lv_coord_t lv_obj_get_style_y(const struct _lv_obj_t * obj, uint32_t part)
  44:lvgl/src/core/lv_obj_style_gen.h **** {
  45:lvgl/src/core/lv_obj_style_gen.h ****     lv_style_value_t v = lv_obj_get_style_prop(obj, part, LV_STYLE_Y);
  46:lvgl/src/core/lv_obj_style_gen.h ****     return (lv_coord_t)v.num;
  47:lvgl/src/core/lv_obj_style_gen.h **** }
  48:lvgl/src/core/lv_obj_style_gen.h **** 
  49:lvgl/src/core/lv_obj_style_gen.h **** static inline lv_align_t lv_obj_get_style_align(const struct _lv_obj_t * obj, uint32_t part)
  50:lvgl/src/core/lv_obj_style_gen.h **** {
  51:lvgl/src/core/lv_obj_style_gen.h ****     lv_style_value_t v = lv_obj_get_style_prop(obj, part, LV_STYLE_ALIGN);
  52:lvgl/src/core/lv_obj_style_gen.h ****     return (lv_align_t)v.num;
  53:lvgl/src/core/lv_obj_style_gen.h **** }
  54:lvgl/src/core/lv_obj_style_gen.h **** 
  55:lvgl/src/core/lv_obj_style_gen.h **** static inline lv_coord_t lv_obj_get_style_transform_width(const struct _lv_obj_t * obj, uint32_t pa
  56:lvgl/src/core/lv_obj_style_gen.h **** {
  57:lvgl/src/core/lv_obj_style_gen.h ****     lv_style_value_t v = lv_obj_get_style_prop(obj, part, LV_STYLE_TRANSFORM_WIDTH);
  58:lvgl/src/core/lv_obj_style_gen.h ****     return (lv_coord_t)v.num;
  59:lvgl/src/core/lv_obj_style_gen.h **** }
  60:lvgl/src/core/lv_obj_style_gen.h **** 
  61:lvgl/src/core/lv_obj_style_gen.h **** static inline lv_coord_t lv_obj_get_style_transform_height(const struct _lv_obj_t * obj, uint32_t p
  62:lvgl/src/core/lv_obj_style_gen.h **** {
  63:lvgl/src/core/lv_obj_style_gen.h ****     lv_style_value_t v = lv_obj_get_style_prop(obj, part, LV_STYLE_TRANSFORM_HEIGHT);
  64:lvgl/src/core/lv_obj_style_gen.h ****     return (lv_coord_t)v.num;
  65:lvgl/src/core/lv_obj_style_gen.h **** }
  66:lvgl/src/core/lv_obj_style_gen.h **** 
  67:lvgl/src/core/lv_obj_style_gen.h **** static inline lv_coord_t lv_obj_get_style_translate_x(const struct _lv_obj_t * obj, uint32_t part)
  68:lvgl/src/core/lv_obj_style_gen.h **** {
  69:lvgl/src/core/lv_obj_style_gen.h ****     lv_style_value_t v = lv_obj_get_style_prop(obj, part, LV_STYLE_TRANSLATE_X);
  70:lvgl/src/core/lv_obj_style_gen.h ****     return (lv_coord_t)v.num;
  71:lvgl/src/core/lv_obj_style_gen.h **** }
  72:lvgl/src/core/lv_obj_style_gen.h **** 
  73:lvgl/src/core/lv_obj_style_gen.h **** static inline lv_coord_t lv_obj_get_style_translate_y(const struct _lv_obj_t * obj, uint32_t part)
  74:lvgl/src/core/lv_obj_style_gen.h **** {
  75:lvgl/src/core/lv_obj_style_gen.h ****     lv_style_value_t v = lv_obj_get_style_prop(obj, part, LV_STYLE_TRANSLATE_Y);
  76:lvgl/src/core/lv_obj_style_gen.h ****     return (lv_coord_t)v.num;
  77:lvgl/src/core/lv_obj_style_gen.h **** }
  78:lvgl/src/core/lv_obj_style_gen.h **** 
  79:lvgl/src/core/lv_obj_style_gen.h **** static inline lv_coord_t lv_obj_get_style_transform_zoom(const struct _lv_obj_t * obj, uint32_t par
  80:lvgl/src/core/lv_obj_style_gen.h **** {
  81:lvgl/src/core/lv_obj_style_gen.h ****     lv_style_value_t v = lv_obj_get_style_prop(obj, part, LV_STYLE_TRANSFORM_ZOOM);
  82:lvgl/src/core/lv_obj_style_gen.h ****     return (lv_coord_t)v.num;
  83:lvgl/src/core/lv_obj_style_gen.h **** }
  84:lvgl/src/core/lv_obj_style_gen.h **** 
  85:lvgl/src/core/lv_obj_style_gen.h **** static inline lv_coord_t lv_obj_get_style_transform_angle(const struct _lv_obj_t * obj, uint32_t pa
  86:lvgl/src/core/lv_obj_style_gen.h **** {
  87:lvgl/src/core/lv_obj_style_gen.h ****     lv_style_value_t v = lv_obj_get_style_prop(obj, part, LV_STYLE_TRANSFORM_ANGLE);
  88:lvgl/src/core/lv_obj_style_gen.h ****     return (lv_coord_t)v.num;
  89:lvgl/src/core/lv_obj_style_gen.h **** }
  90:lvgl/src/core/lv_obj_style_gen.h **** 
  91:lvgl/src/core/lv_obj_style_gen.h **** static inline lv_coord_t lv_obj_get_style_pad_top(const struct _lv_obj_t * obj, uint32_t part)
  92:lvgl/src/core/lv_obj_style_gen.h **** {
  93:lvgl/src/core/lv_obj_style_gen.h ****     lv_style_value_t v = lv_obj_get_style_prop(obj, part, LV_STYLE_PAD_TOP);
ARM GAS  C:\Users\BLACK_~1\AppData\Local\Temp\ccVQcfpA.s 			page 20


  94:lvgl/src/core/lv_obj_style_gen.h ****     return (lv_coord_t)v.num;
  95:lvgl/src/core/lv_obj_style_gen.h **** }
  96:lvgl/src/core/lv_obj_style_gen.h **** 
  97:lvgl/src/core/lv_obj_style_gen.h **** static inline lv_coord_t lv_obj_get_style_pad_bottom(const struct _lv_obj_t * obj, uint32_t part)
  98:lvgl/src/core/lv_obj_style_gen.h **** {
  99:lvgl/src/core/lv_obj_style_gen.h ****     lv_style_value_t v = lv_obj_get_style_prop(obj, part, LV_STYLE_PAD_BOTTOM);
 100:lvgl/src/core/lv_obj_style_gen.h ****     return (lv_coord_t)v.num;
 101:lvgl/src/core/lv_obj_style_gen.h **** }
 102:lvgl/src/core/lv_obj_style_gen.h **** 
 103:lvgl/src/core/lv_obj_style_gen.h **** static inline lv_coord_t lv_obj_get_style_pad_left(const struct _lv_obj_t * obj, uint32_t part)
 104:lvgl/src/core/lv_obj_style_gen.h **** {
 105:lvgl/src/core/lv_obj_style_gen.h ****     lv_style_value_t v = lv_obj_get_style_prop(obj, part, LV_STYLE_PAD_LEFT);
 106:lvgl/src/core/lv_obj_style_gen.h ****     return (lv_coord_t)v.num;
 107:lvgl/src/core/lv_obj_style_gen.h **** }
 108:lvgl/src/core/lv_obj_style_gen.h **** 
 109:lvgl/src/core/lv_obj_style_gen.h **** static inline lv_coord_t lv_obj_get_style_pad_right(const struct _lv_obj_t * obj, uint32_t part)
 110:lvgl/src/core/lv_obj_style_gen.h **** {
 111:lvgl/src/core/lv_obj_style_gen.h ****     lv_style_value_t v = lv_obj_get_style_prop(obj, part, LV_STYLE_PAD_RIGHT);
 112:lvgl/src/core/lv_obj_style_gen.h ****     return (lv_coord_t)v.num;
 113:lvgl/src/core/lv_obj_style_gen.h **** }
 114:lvgl/src/core/lv_obj_style_gen.h **** 
 115:lvgl/src/core/lv_obj_style_gen.h **** static inline lv_coord_t lv_obj_get_style_pad_row(const struct _lv_obj_t * obj, uint32_t part)
 116:lvgl/src/core/lv_obj_style_gen.h **** {
 117:lvgl/src/core/lv_obj_style_gen.h ****     lv_style_value_t v = lv_obj_get_style_prop(obj, part, LV_STYLE_PAD_ROW);
 118:lvgl/src/core/lv_obj_style_gen.h ****     return (lv_coord_t)v.num;
 119:lvgl/src/core/lv_obj_style_gen.h **** }
 120:lvgl/src/core/lv_obj_style_gen.h **** 
 121:lvgl/src/core/lv_obj_style_gen.h **** static inline lv_coord_t lv_obj_get_style_pad_column(const struct _lv_obj_t * obj, uint32_t part)
 122:lvgl/src/core/lv_obj_style_gen.h **** {
 123:lvgl/src/core/lv_obj_style_gen.h ****     lv_style_value_t v = lv_obj_get_style_prop(obj, part, LV_STYLE_PAD_COLUMN);
 124:lvgl/src/core/lv_obj_style_gen.h ****     return (lv_coord_t)v.num;
 125:lvgl/src/core/lv_obj_style_gen.h **** }
 126:lvgl/src/core/lv_obj_style_gen.h **** 
 127:lvgl/src/core/lv_obj_style_gen.h **** static inline lv_coord_t lv_obj_get_style_radius(const struct _lv_obj_t * obj, uint32_t part)
 128:lvgl/src/core/lv_obj_style_gen.h **** {
 129:lvgl/src/core/lv_obj_style_gen.h ****     lv_style_value_t v = lv_obj_get_style_prop(obj, part, LV_STYLE_RADIUS);
 130:lvgl/src/core/lv_obj_style_gen.h ****     return (lv_coord_t)v.num;
 131:lvgl/src/core/lv_obj_style_gen.h **** }
 132:lvgl/src/core/lv_obj_style_gen.h **** 
 133:lvgl/src/core/lv_obj_style_gen.h **** static inline bool lv_obj_get_style_clip_corner(const struct _lv_obj_t * obj, uint32_t part)
 134:lvgl/src/core/lv_obj_style_gen.h **** {
 135:lvgl/src/core/lv_obj_style_gen.h ****     lv_style_value_t v = lv_obj_get_style_prop(obj, part, LV_STYLE_CLIP_CORNER);
 136:lvgl/src/core/lv_obj_style_gen.h ****     return (bool)v.num;
 137:lvgl/src/core/lv_obj_style_gen.h **** }
 138:lvgl/src/core/lv_obj_style_gen.h **** 
 139:lvgl/src/core/lv_obj_style_gen.h **** static inline lv_opa_t lv_obj_get_style_opa(const struct _lv_obj_t * obj, uint32_t part)
 140:lvgl/src/core/lv_obj_style_gen.h **** {
 141:lvgl/src/core/lv_obj_style_gen.h ****     lv_style_value_t v = lv_obj_get_style_prop(obj, part, LV_STYLE_OPA);
 142:lvgl/src/core/lv_obj_style_gen.h ****     return (lv_opa_t)v.num;
 143:lvgl/src/core/lv_obj_style_gen.h **** }
 144:lvgl/src/core/lv_obj_style_gen.h **** 
 145:lvgl/src/core/lv_obj_style_gen.h **** static inline const lv_color_filter_dsc_t * lv_obj_get_style_color_filter_dsc(const struct _lv_obj_
 146:lvgl/src/core/lv_obj_style_gen.h **** {
 147:lvgl/src/core/lv_obj_style_gen.h ****     lv_style_value_t v = lv_obj_get_style_prop(obj, part, LV_STYLE_COLOR_FILTER_DSC);
 148:lvgl/src/core/lv_obj_style_gen.h ****     return (const lv_color_filter_dsc_t *)v.ptr;
 149:lvgl/src/core/lv_obj_style_gen.h **** }
 150:lvgl/src/core/lv_obj_style_gen.h **** 
ARM GAS  C:\Users\BLACK_~1\AppData\Local\Temp\ccVQcfpA.s 			page 21


 151:lvgl/src/core/lv_obj_style_gen.h **** static inline lv_opa_t lv_obj_get_style_color_filter_opa(const struct _lv_obj_t * obj, uint32_t par
 152:lvgl/src/core/lv_obj_style_gen.h **** {
 153:lvgl/src/core/lv_obj_style_gen.h ****     lv_style_value_t v = lv_obj_get_style_prop(obj, part, LV_STYLE_COLOR_FILTER_OPA);
 154:lvgl/src/core/lv_obj_style_gen.h ****     return (lv_opa_t)v.num;
 155:lvgl/src/core/lv_obj_style_gen.h **** }
 156:lvgl/src/core/lv_obj_style_gen.h **** 
 157:lvgl/src/core/lv_obj_style_gen.h **** static inline uint32_t lv_obj_get_style_anim_time(const struct _lv_obj_t * obj, uint32_t part)
 158:lvgl/src/core/lv_obj_style_gen.h **** {
 159:lvgl/src/core/lv_obj_style_gen.h ****     lv_style_value_t v = lv_obj_get_style_prop(obj, part, LV_STYLE_ANIM_TIME);
 160:lvgl/src/core/lv_obj_style_gen.h ****     return (uint32_t)v.num;
 161:lvgl/src/core/lv_obj_style_gen.h **** }
 162:lvgl/src/core/lv_obj_style_gen.h **** 
 163:lvgl/src/core/lv_obj_style_gen.h **** static inline uint32_t lv_obj_get_style_anim_speed(const struct _lv_obj_t * obj, uint32_t part)
 164:lvgl/src/core/lv_obj_style_gen.h **** {
 165:lvgl/src/core/lv_obj_style_gen.h ****     lv_style_value_t v = lv_obj_get_style_prop(obj, part, LV_STYLE_ANIM_SPEED);
 166:lvgl/src/core/lv_obj_style_gen.h ****     return (uint32_t)v.num;
 167:lvgl/src/core/lv_obj_style_gen.h **** }
 168:lvgl/src/core/lv_obj_style_gen.h **** 
 169:lvgl/src/core/lv_obj_style_gen.h **** static inline const lv_style_transition_dsc_t * lv_obj_get_style_transition(const struct _lv_obj_t 
 170:lvgl/src/core/lv_obj_style_gen.h **** {
 171:lvgl/src/core/lv_obj_style_gen.h ****     lv_style_value_t v = lv_obj_get_style_prop(obj, part, LV_STYLE_TRANSITION);
 172:lvgl/src/core/lv_obj_style_gen.h ****     return (const lv_style_transition_dsc_t *)v.ptr;
 173:lvgl/src/core/lv_obj_style_gen.h **** }
 174:lvgl/src/core/lv_obj_style_gen.h **** 
 175:lvgl/src/core/lv_obj_style_gen.h **** static inline lv_blend_mode_t lv_obj_get_style_blend_mode(const struct _lv_obj_t * obj, uint32_t pa
 176:lvgl/src/core/lv_obj_style_gen.h **** {
 177:lvgl/src/core/lv_obj_style_gen.h ****     lv_style_value_t v = lv_obj_get_style_prop(obj, part, LV_STYLE_BLEND_MODE);
 178:lvgl/src/core/lv_obj_style_gen.h ****     return (lv_blend_mode_t)v.num;
 179:lvgl/src/core/lv_obj_style_gen.h **** }
 180:lvgl/src/core/lv_obj_style_gen.h **** 
 181:lvgl/src/core/lv_obj_style_gen.h **** static inline uint16_t lv_obj_get_style_layout(const struct _lv_obj_t * obj, uint32_t part)
 182:lvgl/src/core/lv_obj_style_gen.h **** {
 183:lvgl/src/core/lv_obj_style_gen.h ****     lv_style_value_t v = lv_obj_get_style_prop(obj, part, LV_STYLE_LAYOUT);
 184:lvgl/src/core/lv_obj_style_gen.h ****     return (uint16_t)v.num;
 185:lvgl/src/core/lv_obj_style_gen.h **** }
 186:lvgl/src/core/lv_obj_style_gen.h **** 
 187:lvgl/src/core/lv_obj_style_gen.h **** static inline lv_base_dir_t lv_obj_get_style_base_dir(const struct _lv_obj_t * obj, uint32_t part)
 188:lvgl/src/core/lv_obj_style_gen.h **** {
 189:lvgl/src/core/lv_obj_style_gen.h ****     lv_style_value_t v = lv_obj_get_style_prop(obj, part, LV_STYLE_BASE_DIR);
 190:lvgl/src/core/lv_obj_style_gen.h ****     return (lv_base_dir_t)v.num;
 191:lvgl/src/core/lv_obj_style_gen.h **** }
 192:lvgl/src/core/lv_obj_style_gen.h **** 
 193:lvgl/src/core/lv_obj_style_gen.h **** static inline lv_color_t lv_obj_get_style_bg_color(const struct _lv_obj_t * obj, uint32_t part)
 194:lvgl/src/core/lv_obj_style_gen.h **** {
 195:lvgl/src/core/lv_obj_style_gen.h ****     lv_style_value_t v = lv_obj_get_style_prop(obj, part, LV_STYLE_BG_COLOR);
 196:lvgl/src/core/lv_obj_style_gen.h ****     return v.color;
 197:lvgl/src/core/lv_obj_style_gen.h **** }
 198:lvgl/src/core/lv_obj_style_gen.h **** 
 199:lvgl/src/core/lv_obj_style_gen.h **** static inline lv_color_t lv_obj_get_style_bg_color_filtered(const struct _lv_obj_t * obj, uint32_t 
 200:lvgl/src/core/lv_obj_style_gen.h **** {
 201:lvgl/src/core/lv_obj_style_gen.h ****     lv_style_value_t v = lv_obj_get_style_prop(obj, part, LV_STYLE_BG_COLOR_FILTERED);
 202:lvgl/src/core/lv_obj_style_gen.h ****     return v.color;
 203:lvgl/src/core/lv_obj_style_gen.h **** }
 204:lvgl/src/core/lv_obj_style_gen.h **** 
 205:lvgl/src/core/lv_obj_style_gen.h **** static inline lv_opa_t lv_obj_get_style_bg_opa(const struct _lv_obj_t * obj, uint32_t part)
 156              		.loc 2 205 24 view .LVU36
 157              	.LBB102:
ARM GAS  C:\Users\BLACK_~1\AppData\Local\Temp\ccVQcfpA.s 			page 22


 206:lvgl/src/core/lv_obj_style_gen.h **** {
 207:lvgl/src/core/lv_obj_style_gen.h ****     lv_style_value_t v = lv_obj_get_style_prop(obj, part, LV_STYLE_BG_OPA);
 158              		.loc 2 207 5 view .LVU37
 159              		.loc 2 207 26 is_stmt 0 view .LVU38
 160 000c 2122     		movs	r2, #33
 161 000e 4FF48031 		mov	r1, #65536
 162 0012 2846     		mov	r0, r5
 163 0014 FFF7FEFF 		bl	lv_obj_get_style_prop
 164              	.LVL13:
 208:lvgl/src/core/lv_obj_style_gen.h ****     return (lv_opa_t)v.num;
 165              		.loc 2 208 5 is_stmt 1 view .LVU39
 166              		.loc 2 208 12 is_stmt 0 view .LVU40
 167 0018 C0B2     		uxtb	r0, r0
 168              	.LVL14:
 169              		.loc 2 208 12 view .LVU41
 170              	.LBE102:
 171              	.LBE101:
 567:lvgl/src/core/lv_obj.c ****     if(dsc->bg_opa > LV_OPA_MIN) {
 172              		.loc 1 567 17 view .LVU42
 173 001a A072     		strb	r0, [r4, #10]
 568:lvgl/src/core/lv_obj.c ****         dsc->bg_color = lv_obj_get_style_bg_color(obj, LV_PART_SCROLLBAR);
 174              		.loc 1 568 5 is_stmt 1 view .LVU43
 568:lvgl/src/core/lv_obj.c ****         dsc->bg_color = lv_obj_get_style_bg_color(obj, LV_PART_SCROLLBAR);
 175              		.loc 1 568 7 is_stmt 0 view .LVU44
 176 001c 0228     		cmp	r0, #2
 177 001e 3BD8     		bhi	.L21
 178              	.L12:
 572:lvgl/src/core/lv_obj.c ****     if(dsc->border_opa > LV_OPA_MIN) {
 179              		.loc 1 572 5 is_stmt 1 view .LVU45
 180              	.LVL15:
 181              	.LBB103:
 182              	.LBI103:
 209:lvgl/src/core/lv_obj_style_gen.h **** }
 210:lvgl/src/core/lv_obj_style_gen.h **** 
 211:lvgl/src/core/lv_obj_style_gen.h **** static inline lv_color_t lv_obj_get_style_bg_grad_color(const struct _lv_obj_t * obj, uint32_t part
 212:lvgl/src/core/lv_obj_style_gen.h **** {
 213:lvgl/src/core/lv_obj_style_gen.h ****     lv_style_value_t v = lv_obj_get_style_prop(obj, part, LV_STYLE_BG_GRAD_COLOR);
 214:lvgl/src/core/lv_obj_style_gen.h ****     return v.color;
 215:lvgl/src/core/lv_obj_style_gen.h **** }
 216:lvgl/src/core/lv_obj_style_gen.h **** 
 217:lvgl/src/core/lv_obj_style_gen.h **** static inline lv_color_t lv_obj_get_style_bg_grad_color_filtered(const struct _lv_obj_t * obj, uint
 218:lvgl/src/core/lv_obj_style_gen.h **** {
 219:lvgl/src/core/lv_obj_style_gen.h ****     lv_style_value_t v = lv_obj_get_style_prop(obj, part, LV_STYLE_BG_GRAD_COLOR_FILTERED);
 220:lvgl/src/core/lv_obj_style_gen.h ****     return v.color;
 221:lvgl/src/core/lv_obj_style_gen.h **** }
 222:lvgl/src/core/lv_obj_style_gen.h **** 
 223:lvgl/src/core/lv_obj_style_gen.h **** static inline lv_grad_dir_t lv_obj_get_style_bg_grad_dir(const struct _lv_obj_t * obj, uint32_t par
 224:lvgl/src/core/lv_obj_style_gen.h **** {
 225:lvgl/src/core/lv_obj_style_gen.h ****     lv_style_value_t v = lv_obj_get_style_prop(obj, part, LV_STYLE_BG_GRAD_DIR);
 226:lvgl/src/core/lv_obj_style_gen.h ****     return (lv_grad_dir_t)v.num;
 227:lvgl/src/core/lv_obj_style_gen.h **** }
 228:lvgl/src/core/lv_obj_style_gen.h **** 
 229:lvgl/src/core/lv_obj_style_gen.h **** static inline lv_coord_t lv_obj_get_style_bg_main_stop(const struct _lv_obj_t * obj, uint32_t part)
 230:lvgl/src/core/lv_obj_style_gen.h **** {
 231:lvgl/src/core/lv_obj_style_gen.h ****     lv_style_value_t v = lv_obj_get_style_prop(obj, part, LV_STYLE_BG_MAIN_STOP);
 232:lvgl/src/core/lv_obj_style_gen.h ****     return (lv_coord_t)v.num;
 233:lvgl/src/core/lv_obj_style_gen.h **** }
ARM GAS  C:\Users\BLACK_~1\AppData\Local\Temp\ccVQcfpA.s 			page 23


 234:lvgl/src/core/lv_obj_style_gen.h **** 
 235:lvgl/src/core/lv_obj_style_gen.h **** static inline lv_coord_t lv_obj_get_style_bg_grad_stop(const struct _lv_obj_t * obj, uint32_t part)
 236:lvgl/src/core/lv_obj_style_gen.h **** {
 237:lvgl/src/core/lv_obj_style_gen.h ****     lv_style_value_t v = lv_obj_get_style_prop(obj, part, LV_STYLE_BG_GRAD_STOP);
 238:lvgl/src/core/lv_obj_style_gen.h ****     return (lv_coord_t)v.num;
 239:lvgl/src/core/lv_obj_style_gen.h **** }
 240:lvgl/src/core/lv_obj_style_gen.h **** 
 241:lvgl/src/core/lv_obj_style_gen.h **** static inline const void * lv_obj_get_style_bg_img_src(const struct _lv_obj_t * obj, uint32_t part)
 242:lvgl/src/core/lv_obj_style_gen.h **** {
 243:lvgl/src/core/lv_obj_style_gen.h ****     lv_style_value_t v = lv_obj_get_style_prop(obj, part, LV_STYLE_BG_IMG_SRC);
 244:lvgl/src/core/lv_obj_style_gen.h ****     return (const void *)v.ptr;
 245:lvgl/src/core/lv_obj_style_gen.h **** }
 246:lvgl/src/core/lv_obj_style_gen.h **** 
 247:lvgl/src/core/lv_obj_style_gen.h **** static inline lv_opa_t lv_obj_get_style_bg_img_opa(const struct _lv_obj_t * obj, uint32_t part)
 248:lvgl/src/core/lv_obj_style_gen.h **** {
 249:lvgl/src/core/lv_obj_style_gen.h ****     lv_style_value_t v = lv_obj_get_style_prop(obj, part, LV_STYLE_BG_IMG_OPA);
 250:lvgl/src/core/lv_obj_style_gen.h ****     return (lv_opa_t)v.num;
 251:lvgl/src/core/lv_obj_style_gen.h **** }
 252:lvgl/src/core/lv_obj_style_gen.h **** 
 253:lvgl/src/core/lv_obj_style_gen.h **** static inline lv_color_t lv_obj_get_style_bg_img_recolor(const struct _lv_obj_t * obj, uint32_t par
 254:lvgl/src/core/lv_obj_style_gen.h **** {
 255:lvgl/src/core/lv_obj_style_gen.h ****     lv_style_value_t v = lv_obj_get_style_prop(obj, part, LV_STYLE_BG_IMG_RECOLOR);
 256:lvgl/src/core/lv_obj_style_gen.h ****     return v.color;
 257:lvgl/src/core/lv_obj_style_gen.h **** }
 258:lvgl/src/core/lv_obj_style_gen.h **** 
 259:lvgl/src/core/lv_obj_style_gen.h **** static inline lv_color_t lv_obj_get_style_bg_img_recolor_filtered(const struct _lv_obj_t * obj, uin
 260:lvgl/src/core/lv_obj_style_gen.h **** {
 261:lvgl/src/core/lv_obj_style_gen.h ****     lv_style_value_t v = lv_obj_get_style_prop(obj, part, LV_STYLE_BG_IMG_RECOLOR_FILTERED);
 262:lvgl/src/core/lv_obj_style_gen.h ****     return v.color;
 263:lvgl/src/core/lv_obj_style_gen.h **** }
 264:lvgl/src/core/lv_obj_style_gen.h **** 
 265:lvgl/src/core/lv_obj_style_gen.h **** static inline lv_opa_t lv_obj_get_style_bg_img_recolor_opa(const struct _lv_obj_t * obj, uint32_t p
 266:lvgl/src/core/lv_obj_style_gen.h **** {
 267:lvgl/src/core/lv_obj_style_gen.h ****     lv_style_value_t v = lv_obj_get_style_prop(obj, part, LV_STYLE_BG_IMG_RECOLOR_OPA);
 268:lvgl/src/core/lv_obj_style_gen.h ****     return (lv_opa_t)v.num;
 269:lvgl/src/core/lv_obj_style_gen.h **** }
 270:lvgl/src/core/lv_obj_style_gen.h **** 
 271:lvgl/src/core/lv_obj_style_gen.h **** static inline bool lv_obj_get_style_bg_img_tiled(const struct _lv_obj_t * obj, uint32_t part)
 272:lvgl/src/core/lv_obj_style_gen.h **** {
 273:lvgl/src/core/lv_obj_style_gen.h ****     lv_style_value_t v = lv_obj_get_style_prop(obj, part, LV_STYLE_BG_IMG_TILED);
 274:lvgl/src/core/lv_obj_style_gen.h ****     return (bool)v.num;
 275:lvgl/src/core/lv_obj_style_gen.h **** }
 276:lvgl/src/core/lv_obj_style_gen.h **** 
 277:lvgl/src/core/lv_obj_style_gen.h **** static inline lv_color_t lv_obj_get_style_border_color(const struct _lv_obj_t * obj, uint32_t part)
 278:lvgl/src/core/lv_obj_style_gen.h **** {
 279:lvgl/src/core/lv_obj_style_gen.h ****     lv_style_value_t v = lv_obj_get_style_prop(obj, part, LV_STYLE_BORDER_COLOR);
 280:lvgl/src/core/lv_obj_style_gen.h ****     return v.color;
 281:lvgl/src/core/lv_obj_style_gen.h **** }
 282:lvgl/src/core/lv_obj_style_gen.h **** 
 283:lvgl/src/core/lv_obj_style_gen.h **** static inline lv_color_t lv_obj_get_style_border_color_filtered(const struct _lv_obj_t * obj, uint3
 284:lvgl/src/core/lv_obj_style_gen.h **** {
 285:lvgl/src/core/lv_obj_style_gen.h ****     lv_style_value_t v = lv_obj_get_style_prop(obj, part, LV_STYLE_BORDER_COLOR_FILTERED);
 286:lvgl/src/core/lv_obj_style_gen.h ****     return v.color;
 287:lvgl/src/core/lv_obj_style_gen.h **** }
 288:lvgl/src/core/lv_obj_style_gen.h **** 
 289:lvgl/src/core/lv_obj_style_gen.h **** static inline lv_opa_t lv_obj_get_style_border_opa(const struct _lv_obj_t * obj, uint32_t part)
 183              		.loc 2 289 24 view .LVU46
ARM GAS  C:\Users\BLACK_~1\AppData\Local\Temp\ccVQcfpA.s 			page 24


 184              	.LBB104:
 290:lvgl/src/core/lv_obj_style_gen.h **** {
 291:lvgl/src/core/lv_obj_style_gen.h ****     lv_style_value_t v = lv_obj_get_style_prop(obj, part, LV_STYLE_BORDER_OPA);
 185              		.loc 2 291 5 view .LVU47
 186              		.loc 2 291 26 is_stmt 0 view .LVU48
 187 0020 3122     		movs	r2, #49
 188 0022 4FF48031 		mov	r1, #65536
 189 0026 2846     		mov	r0, r5
 190 0028 FFF7FEFF 		bl	lv_obj_get_style_prop
 191              	.LVL16:
 292:lvgl/src/core/lv_obj_style_gen.h ****     return (lv_opa_t)v.num;
 192              		.loc 2 292 5 is_stmt 1 view .LVU49
 193              		.loc 2 292 12 is_stmt 0 view .LVU50
 194 002c C0B2     		uxtb	r0, r0
 195              	.LVL17:
 196              		.loc 2 292 12 view .LVU51
 197              	.LBE104:
 198              	.LBE103:
 572:lvgl/src/core/lv_obj.c ****     if(dsc->border_opa > LV_OPA_MIN) {
 199              		.loc 1 572 21 view .LVU52
 200 002e A077     		strb	r0, [r4, #30]
 573:lvgl/src/core/lv_obj.c ****         dsc->border_width = lv_obj_get_style_border_width(obj, LV_PART_SCROLLBAR);
 201              		.loc 1 573 5 is_stmt 1 view .LVU53
 573:lvgl/src/core/lv_obj.c ****         dsc->border_width = lv_obj_get_style_border_width(obj, LV_PART_SCROLLBAR);
 202              		.loc 1 573 7 is_stmt 0 view .LVU54
 203 0030 0228     		cmp	r0, #2
 204 0032 39D8     		bhi	.L22
 205              	.L13:
 583:lvgl/src/core/lv_obj.c ****     if(dsc->shadow_opa > LV_OPA_MIN) {
 206              		.loc 1 583 5 is_stmt 1 view .LVU55
 207              	.LVL18:
 208              	.LBB105:
 209              	.LBI105:
 293:lvgl/src/core/lv_obj_style_gen.h **** }
 294:lvgl/src/core/lv_obj_style_gen.h **** 
 295:lvgl/src/core/lv_obj_style_gen.h **** static inline lv_coord_t lv_obj_get_style_border_width(const struct _lv_obj_t * obj, uint32_t part)
 296:lvgl/src/core/lv_obj_style_gen.h **** {
 297:lvgl/src/core/lv_obj_style_gen.h ****     lv_style_value_t v = lv_obj_get_style_prop(obj, part, LV_STYLE_BORDER_WIDTH);
 298:lvgl/src/core/lv_obj_style_gen.h ****     return (lv_coord_t)v.num;
 299:lvgl/src/core/lv_obj_style_gen.h **** }
 300:lvgl/src/core/lv_obj_style_gen.h **** 
 301:lvgl/src/core/lv_obj_style_gen.h **** static inline lv_border_side_t lv_obj_get_style_border_side(const struct _lv_obj_t * obj, uint32_t 
 302:lvgl/src/core/lv_obj_style_gen.h **** {
 303:lvgl/src/core/lv_obj_style_gen.h ****     lv_style_value_t v = lv_obj_get_style_prop(obj, part, LV_STYLE_BORDER_SIDE);
 304:lvgl/src/core/lv_obj_style_gen.h ****     return (lv_border_side_t)v.num;
 305:lvgl/src/core/lv_obj_style_gen.h **** }
 306:lvgl/src/core/lv_obj_style_gen.h **** 
 307:lvgl/src/core/lv_obj_style_gen.h **** static inline bool lv_obj_get_style_border_post(const struct _lv_obj_t * obj, uint32_t part)
 308:lvgl/src/core/lv_obj_style_gen.h **** {
 309:lvgl/src/core/lv_obj_style_gen.h ****     lv_style_value_t v = lv_obj_get_style_prop(obj, part, LV_STYLE_BORDER_POST);
 310:lvgl/src/core/lv_obj_style_gen.h ****     return (bool)v.num;
 311:lvgl/src/core/lv_obj_style_gen.h **** }
 312:lvgl/src/core/lv_obj_style_gen.h **** 
 313:lvgl/src/core/lv_obj_style_gen.h **** static inline lv_color_t lv_obj_get_style_text_color(const struct _lv_obj_t * obj, uint32_t part)
 314:lvgl/src/core/lv_obj_style_gen.h **** {
 315:lvgl/src/core/lv_obj_style_gen.h ****     lv_style_value_t v = lv_obj_get_style_prop(obj, part, LV_STYLE_TEXT_COLOR);
 316:lvgl/src/core/lv_obj_style_gen.h ****     return v.color;
ARM GAS  C:\Users\BLACK_~1\AppData\Local\Temp\ccVQcfpA.s 			page 25


 317:lvgl/src/core/lv_obj_style_gen.h **** }
 318:lvgl/src/core/lv_obj_style_gen.h **** 
 319:lvgl/src/core/lv_obj_style_gen.h **** static inline lv_color_t lv_obj_get_style_text_color_filtered(const struct _lv_obj_t * obj, uint32_
 320:lvgl/src/core/lv_obj_style_gen.h **** {
 321:lvgl/src/core/lv_obj_style_gen.h ****     lv_style_value_t v = lv_obj_get_style_prop(obj, part, LV_STYLE_TEXT_COLOR_FILTERED);
 322:lvgl/src/core/lv_obj_style_gen.h ****     return v.color;
 323:lvgl/src/core/lv_obj_style_gen.h **** }
 324:lvgl/src/core/lv_obj_style_gen.h **** 
 325:lvgl/src/core/lv_obj_style_gen.h **** static inline lv_opa_t lv_obj_get_style_text_opa(const struct _lv_obj_t * obj, uint32_t part)
 326:lvgl/src/core/lv_obj_style_gen.h **** {
 327:lvgl/src/core/lv_obj_style_gen.h ****     lv_style_value_t v = lv_obj_get_style_prop(obj, part, LV_STYLE_TEXT_OPA);
 328:lvgl/src/core/lv_obj_style_gen.h ****     return (lv_opa_t)v.num;
 329:lvgl/src/core/lv_obj_style_gen.h **** }
 330:lvgl/src/core/lv_obj_style_gen.h **** 
 331:lvgl/src/core/lv_obj_style_gen.h **** static inline const lv_font_t * lv_obj_get_style_text_font(const struct _lv_obj_t * obj, uint32_t p
 332:lvgl/src/core/lv_obj_style_gen.h **** {
 333:lvgl/src/core/lv_obj_style_gen.h ****     lv_style_value_t v = lv_obj_get_style_prop(obj, part, LV_STYLE_TEXT_FONT);
 334:lvgl/src/core/lv_obj_style_gen.h ****     return (const lv_font_t *)v.ptr;
 335:lvgl/src/core/lv_obj_style_gen.h **** }
 336:lvgl/src/core/lv_obj_style_gen.h **** 
 337:lvgl/src/core/lv_obj_style_gen.h **** static inline lv_coord_t lv_obj_get_style_text_letter_space(const struct _lv_obj_t * obj, uint32_t 
 338:lvgl/src/core/lv_obj_style_gen.h **** {
 339:lvgl/src/core/lv_obj_style_gen.h ****     lv_style_value_t v = lv_obj_get_style_prop(obj, part, LV_STYLE_TEXT_LETTER_SPACE);
 340:lvgl/src/core/lv_obj_style_gen.h ****     return (lv_coord_t)v.num;
 341:lvgl/src/core/lv_obj_style_gen.h **** }
 342:lvgl/src/core/lv_obj_style_gen.h **** 
 343:lvgl/src/core/lv_obj_style_gen.h **** static inline lv_coord_t lv_obj_get_style_text_line_space(const struct _lv_obj_t * obj, uint32_t pa
 344:lvgl/src/core/lv_obj_style_gen.h **** {
 345:lvgl/src/core/lv_obj_style_gen.h ****     lv_style_value_t v = lv_obj_get_style_prop(obj, part, LV_STYLE_TEXT_LINE_SPACE);
 346:lvgl/src/core/lv_obj_style_gen.h ****     return (lv_coord_t)v.num;
 347:lvgl/src/core/lv_obj_style_gen.h **** }
 348:lvgl/src/core/lv_obj_style_gen.h **** 
 349:lvgl/src/core/lv_obj_style_gen.h **** static inline lv_text_decor_t lv_obj_get_style_text_decor(const struct _lv_obj_t * obj, uint32_t pa
 350:lvgl/src/core/lv_obj_style_gen.h **** {
 351:lvgl/src/core/lv_obj_style_gen.h ****     lv_style_value_t v = lv_obj_get_style_prop(obj, part, LV_STYLE_TEXT_DECOR);
 352:lvgl/src/core/lv_obj_style_gen.h ****     return (lv_text_decor_t)v.num;
 353:lvgl/src/core/lv_obj_style_gen.h **** }
 354:lvgl/src/core/lv_obj_style_gen.h **** 
 355:lvgl/src/core/lv_obj_style_gen.h **** static inline lv_text_align_t lv_obj_get_style_text_align(const struct _lv_obj_t * obj, uint32_t pa
 356:lvgl/src/core/lv_obj_style_gen.h **** {
 357:lvgl/src/core/lv_obj_style_gen.h ****     lv_style_value_t v = lv_obj_get_style_prop(obj, part, LV_STYLE_TEXT_ALIGN);
 358:lvgl/src/core/lv_obj_style_gen.h ****     return (lv_text_align_t)v.num;
 359:lvgl/src/core/lv_obj_style_gen.h **** }
 360:lvgl/src/core/lv_obj_style_gen.h **** 
 361:lvgl/src/core/lv_obj_style_gen.h **** static inline lv_opa_t lv_obj_get_style_img_opa(const struct _lv_obj_t * obj, uint32_t part)
 362:lvgl/src/core/lv_obj_style_gen.h **** {
 363:lvgl/src/core/lv_obj_style_gen.h ****     lv_style_value_t v = lv_obj_get_style_prop(obj, part, LV_STYLE_IMG_OPA);
 364:lvgl/src/core/lv_obj_style_gen.h ****     return (lv_opa_t)v.num;
 365:lvgl/src/core/lv_obj_style_gen.h **** }
 366:lvgl/src/core/lv_obj_style_gen.h **** 
 367:lvgl/src/core/lv_obj_style_gen.h **** static inline lv_color_t lv_obj_get_style_img_recolor(const struct _lv_obj_t * obj, uint32_t part)
 368:lvgl/src/core/lv_obj_style_gen.h **** {
 369:lvgl/src/core/lv_obj_style_gen.h ****     lv_style_value_t v = lv_obj_get_style_prop(obj, part, LV_STYLE_IMG_RECOLOR);
 370:lvgl/src/core/lv_obj_style_gen.h ****     return v.color;
 371:lvgl/src/core/lv_obj_style_gen.h **** }
 372:lvgl/src/core/lv_obj_style_gen.h **** 
 373:lvgl/src/core/lv_obj_style_gen.h **** static inline lv_color_t lv_obj_get_style_img_recolor_filtered(const struct _lv_obj_t * obj, uint32
ARM GAS  C:\Users\BLACK_~1\AppData\Local\Temp\ccVQcfpA.s 			page 26


 374:lvgl/src/core/lv_obj_style_gen.h **** {
 375:lvgl/src/core/lv_obj_style_gen.h ****     lv_style_value_t v = lv_obj_get_style_prop(obj, part, LV_STYLE_IMG_RECOLOR_FILTERED);
 376:lvgl/src/core/lv_obj_style_gen.h ****     return v.color;
 377:lvgl/src/core/lv_obj_style_gen.h **** }
 378:lvgl/src/core/lv_obj_style_gen.h **** 
 379:lvgl/src/core/lv_obj_style_gen.h **** static inline lv_opa_t lv_obj_get_style_img_recolor_opa(const struct _lv_obj_t * obj, uint32_t part
 380:lvgl/src/core/lv_obj_style_gen.h **** {
 381:lvgl/src/core/lv_obj_style_gen.h ****     lv_style_value_t v = lv_obj_get_style_prop(obj, part, LV_STYLE_IMG_RECOLOR_OPA);
 382:lvgl/src/core/lv_obj_style_gen.h ****     return (lv_opa_t)v.num;
 383:lvgl/src/core/lv_obj_style_gen.h **** }
 384:lvgl/src/core/lv_obj_style_gen.h **** 
 385:lvgl/src/core/lv_obj_style_gen.h **** static inline lv_coord_t lv_obj_get_style_outline_width(const struct _lv_obj_t * obj, uint32_t part
 386:lvgl/src/core/lv_obj_style_gen.h **** {
 387:lvgl/src/core/lv_obj_style_gen.h ****     lv_style_value_t v = lv_obj_get_style_prop(obj, part, LV_STYLE_OUTLINE_WIDTH);
 388:lvgl/src/core/lv_obj_style_gen.h ****     return (lv_coord_t)v.num;
 389:lvgl/src/core/lv_obj_style_gen.h **** }
 390:lvgl/src/core/lv_obj_style_gen.h **** 
 391:lvgl/src/core/lv_obj_style_gen.h **** static inline lv_color_t lv_obj_get_style_outline_color(const struct _lv_obj_t * obj, uint32_t part
 392:lvgl/src/core/lv_obj_style_gen.h **** {
 393:lvgl/src/core/lv_obj_style_gen.h ****     lv_style_value_t v = lv_obj_get_style_prop(obj, part, LV_STYLE_OUTLINE_COLOR);
 394:lvgl/src/core/lv_obj_style_gen.h ****     return v.color;
 395:lvgl/src/core/lv_obj_style_gen.h **** }
 396:lvgl/src/core/lv_obj_style_gen.h **** 
 397:lvgl/src/core/lv_obj_style_gen.h **** static inline lv_color_t lv_obj_get_style_outline_color_filtered(const struct _lv_obj_t * obj, uint
 398:lvgl/src/core/lv_obj_style_gen.h **** {
 399:lvgl/src/core/lv_obj_style_gen.h ****     lv_style_value_t v = lv_obj_get_style_prop(obj, part, LV_STYLE_OUTLINE_COLOR_FILTERED);
 400:lvgl/src/core/lv_obj_style_gen.h ****     return v.color;
 401:lvgl/src/core/lv_obj_style_gen.h **** }
 402:lvgl/src/core/lv_obj_style_gen.h **** 
 403:lvgl/src/core/lv_obj_style_gen.h **** static inline lv_opa_t lv_obj_get_style_outline_opa(const struct _lv_obj_t * obj, uint32_t part)
 404:lvgl/src/core/lv_obj_style_gen.h **** {
 405:lvgl/src/core/lv_obj_style_gen.h ****     lv_style_value_t v = lv_obj_get_style_prop(obj, part, LV_STYLE_OUTLINE_OPA);
 406:lvgl/src/core/lv_obj_style_gen.h ****     return (lv_opa_t)v.num;
 407:lvgl/src/core/lv_obj_style_gen.h **** }
 408:lvgl/src/core/lv_obj_style_gen.h **** 
 409:lvgl/src/core/lv_obj_style_gen.h **** static inline lv_coord_t lv_obj_get_style_outline_pad(const struct _lv_obj_t * obj, uint32_t part)
 410:lvgl/src/core/lv_obj_style_gen.h **** {
 411:lvgl/src/core/lv_obj_style_gen.h ****     lv_style_value_t v = lv_obj_get_style_prop(obj, part, LV_STYLE_OUTLINE_PAD);
 412:lvgl/src/core/lv_obj_style_gen.h ****     return (lv_coord_t)v.num;
 413:lvgl/src/core/lv_obj_style_gen.h **** }
 414:lvgl/src/core/lv_obj_style_gen.h **** 
 415:lvgl/src/core/lv_obj_style_gen.h **** static inline lv_coord_t lv_obj_get_style_shadow_width(const struct _lv_obj_t * obj, uint32_t part)
 416:lvgl/src/core/lv_obj_style_gen.h **** {
 417:lvgl/src/core/lv_obj_style_gen.h ****     lv_style_value_t v = lv_obj_get_style_prop(obj, part, LV_STYLE_SHADOW_WIDTH);
 418:lvgl/src/core/lv_obj_style_gen.h ****     return (lv_coord_t)v.num;
 419:lvgl/src/core/lv_obj_style_gen.h **** }
 420:lvgl/src/core/lv_obj_style_gen.h **** 
 421:lvgl/src/core/lv_obj_style_gen.h **** static inline lv_coord_t lv_obj_get_style_shadow_ofs_x(const struct _lv_obj_t * obj, uint32_t part)
 422:lvgl/src/core/lv_obj_style_gen.h **** {
 423:lvgl/src/core/lv_obj_style_gen.h ****     lv_style_value_t v = lv_obj_get_style_prop(obj, part, LV_STYLE_SHADOW_OFS_X);
 424:lvgl/src/core/lv_obj_style_gen.h ****     return (lv_coord_t)v.num;
 425:lvgl/src/core/lv_obj_style_gen.h **** }
 426:lvgl/src/core/lv_obj_style_gen.h **** 
 427:lvgl/src/core/lv_obj_style_gen.h **** static inline lv_coord_t lv_obj_get_style_shadow_ofs_y(const struct _lv_obj_t * obj, uint32_t part)
 428:lvgl/src/core/lv_obj_style_gen.h **** {
 429:lvgl/src/core/lv_obj_style_gen.h ****     lv_style_value_t v = lv_obj_get_style_prop(obj, part, LV_STYLE_SHADOW_OFS_Y);
 430:lvgl/src/core/lv_obj_style_gen.h ****     return (lv_coord_t)v.num;
ARM GAS  C:\Users\BLACK_~1\AppData\Local\Temp\ccVQcfpA.s 			page 27


 431:lvgl/src/core/lv_obj_style_gen.h **** }
 432:lvgl/src/core/lv_obj_style_gen.h **** 
 433:lvgl/src/core/lv_obj_style_gen.h **** static inline lv_coord_t lv_obj_get_style_shadow_spread(const struct _lv_obj_t * obj, uint32_t part
 434:lvgl/src/core/lv_obj_style_gen.h **** {
 435:lvgl/src/core/lv_obj_style_gen.h ****     lv_style_value_t v = lv_obj_get_style_prop(obj, part, LV_STYLE_SHADOW_SPREAD);
 436:lvgl/src/core/lv_obj_style_gen.h ****     return (lv_coord_t)v.num;
 437:lvgl/src/core/lv_obj_style_gen.h **** }
 438:lvgl/src/core/lv_obj_style_gen.h **** 
 439:lvgl/src/core/lv_obj_style_gen.h **** static inline lv_color_t lv_obj_get_style_shadow_color(const struct _lv_obj_t * obj, uint32_t part)
 440:lvgl/src/core/lv_obj_style_gen.h **** {
 441:lvgl/src/core/lv_obj_style_gen.h ****     lv_style_value_t v = lv_obj_get_style_prop(obj, part, LV_STYLE_SHADOW_COLOR);
 442:lvgl/src/core/lv_obj_style_gen.h ****     return v.color;
 443:lvgl/src/core/lv_obj_style_gen.h **** }
 444:lvgl/src/core/lv_obj_style_gen.h **** 
 445:lvgl/src/core/lv_obj_style_gen.h **** static inline lv_color_t lv_obj_get_style_shadow_color_filtered(const struct _lv_obj_t * obj, uint3
 446:lvgl/src/core/lv_obj_style_gen.h **** {
 447:lvgl/src/core/lv_obj_style_gen.h ****     lv_style_value_t v = lv_obj_get_style_prop(obj, part, LV_STYLE_SHADOW_COLOR_FILTERED);
 448:lvgl/src/core/lv_obj_style_gen.h ****     return v.color;
 449:lvgl/src/core/lv_obj_style_gen.h **** }
 450:lvgl/src/core/lv_obj_style_gen.h **** 
 451:lvgl/src/core/lv_obj_style_gen.h **** static inline lv_opa_t lv_obj_get_style_shadow_opa(const struct _lv_obj_t * obj, uint32_t part)
 210              		.loc 2 451 24 view .LVU56
 211              	.LBB106:
 452:lvgl/src/core/lv_obj_style_gen.h **** {
 453:lvgl/src/core/lv_obj_style_gen.h ****     lv_style_value_t v = lv_obj_get_style_prop(obj, part, LV_STYLE_SHADOW_OPA);
 212              		.loc 2 453 5 view .LVU57
 213              		.loc 2 453 26 is_stmt 0 view .LVU58
 214 0034 40F64502 		movw	r2, #2117
 215 0038 4FF48031 		mov	r1, #65536
 216 003c 2846     		mov	r0, r5
 217 003e FFF7FEFF 		bl	lv_obj_get_style_prop
 218              	.LVL19:
 454:lvgl/src/core/lv_obj_style_gen.h ****     return (lv_opa_t)v.num;
 219              		.loc 2 454 5 is_stmt 1 view .LVU59
 220              		.loc 2 454 12 is_stmt 0 view .LVU60
 221 0042 C0B2     		uxtb	r0, r0
 222              	.LVL20:
 223              		.loc 2 454 12 view .LVU61
 224              	.LBE106:
 225              	.LBE105:
 583:lvgl/src/core/lv_obj.c ****     if(dsc->shadow_opa > LV_OPA_MIN) {
 226              		.loc 1 583 21 view .LVU62
 227 0044 84F83200 		strb	r0, [r4, #50]
 584:lvgl/src/core/lv_obj.c ****         dsc->shadow_width = lv_obj_get_style_shadow_width(obj, LV_PART_SCROLLBAR);
 228              		.loc 1 584 5 is_stmt 1 view .LVU63
 584:lvgl/src/core/lv_obj.c ****         dsc->shadow_width = lv_obj_get_style_shadow_width(obj, LV_PART_SCROLLBAR);
 229              		.loc 1 584 7 is_stmt 0 view .LVU64
 230 0048 0228     		cmp	r0, #2
 231 004a 43D8     		bhi	.L23
 232              	.L15:
 594:lvgl/src/core/lv_obj.c ****     if(opa < LV_OPA_MAX) {
 233              		.loc 1 594 5 is_stmt 1 view .LVU65
 234              	.LVL21:
 235              	.LBB107:
 236              	.LBI107:
 139:lvgl/src/core/lv_obj_style_gen.h **** {
 237              		.loc 2 139 24 view .LVU66
ARM GAS  C:\Users\BLACK_~1\AppData\Local\Temp\ccVQcfpA.s 			page 28


 238              	.LBB108:
 141:lvgl/src/core/lv_obj_style_gen.h ****     return (lv_opa_t)v.num;
 239              		.loc 2 141 5 view .LVU67
 141:lvgl/src/core/lv_obj_style_gen.h ****     return (lv_opa_t)v.num;
 240              		.loc 2 141 26 is_stmt 0 view .LVU68
 241 004c 40F26242 		movw	r2, #1122
 242 0050 4FF48031 		mov	r1, #65536
 243 0054 2846     		mov	r0, r5
 244 0056 FFF7FEFF 		bl	lv_obj_get_style_prop
 245              	.LVL22:
 142:lvgl/src/core/lv_obj_style_gen.h **** }
 246              		.loc 2 142 5 is_stmt 1 view .LVU69
 142:lvgl/src/core/lv_obj_style_gen.h **** }
 247              		.loc 2 142 12 is_stmt 0 view .LVU70
 248 005a C3B2     		uxtb	r3, r0
 249              	.LVL23:
 142:lvgl/src/core/lv_obj_style_gen.h **** }
 250              		.loc 2 142 12 view .LVU71
 251              	.LBE108:
 252              	.LBE107:
 595:lvgl/src/core/lv_obj.c ****         dsc->bg_opa = (dsc->bg_opa * opa) >> 8;
 253              		.loc 1 595 5 is_stmt 1 view .LVU72
 595:lvgl/src/core/lv_obj.c ****         dsc->bg_opa = (dsc->bg_opa * opa) >> 8;
 254              		.loc 1 595 7 is_stmt 0 view .LVU73
 255 005c FC2B     		cmp	r3, #252
 256 005e 0BD8     		bhi	.L17
 596:lvgl/src/core/lv_obj.c ****         dsc->border_opa = (dsc->bg_opa * opa) >> 8;
 257              		.loc 1 596 9 is_stmt 1 view .LVU74
 596:lvgl/src/core/lv_obj.c ****         dsc->border_opa = (dsc->bg_opa * opa) >> 8;
 258              		.loc 1 596 27 is_stmt 0 view .LVU75
 259 0060 A37A     		ldrb	r3, [r4, #10]	@ zero_extendqisi2
 260              	.LVL24:
 596:lvgl/src/core/lv_obj.c ****         dsc->border_opa = (dsc->bg_opa * opa) >> 8;
 261              		.loc 1 596 27 view .LVU76
 262 0062 C0B2     		uxtb	r0, r0
 596:lvgl/src/core/lv_obj.c ****         dsc->border_opa = (dsc->bg_opa * opa) >> 8;
 263              		.loc 1 596 36 view .LVU77
 264 0064 00FB03F3 		mul	r3, r0, r3
 596:lvgl/src/core/lv_obj.c ****         dsc->border_opa = (dsc->bg_opa * opa) >> 8;
 265              		.loc 1 596 21 view .LVU78
 266 0068 1B0A     		lsrs	r3, r3, #8
 267 006a A372     		strb	r3, [r4, #10]
 597:lvgl/src/core/lv_obj.c ****         dsc->shadow_opa = (dsc->bg_opa * opa) >> 8;
 268              		.loc 1 597 9 is_stmt 1 view .LVU79
 597:lvgl/src/core/lv_obj.c ****         dsc->shadow_opa = (dsc->bg_opa * opa) >> 8;
 269              		.loc 1 597 40 is_stmt 0 view .LVU80
 270 006c 00FB03F3 		mul	r3, r0, r3
 597:lvgl/src/core/lv_obj.c ****         dsc->shadow_opa = (dsc->bg_opa * opa) >> 8;
 271              		.loc 1 597 25 view .LVU81
 272 0070 1B0A     		lsrs	r3, r3, #8
 273 0072 A377     		strb	r3, [r4, #30]
 598:lvgl/src/core/lv_obj.c ****     }
 274              		.loc 1 598 9 is_stmt 1 view .LVU82
 598:lvgl/src/core/lv_obj.c ****     }
 275              		.loc 1 598 25 is_stmt 0 view .LVU83
 276 0074 84F83230 		strb	r3, [r4, #50]
 277              	.LVL25:
ARM GAS  C:\Users\BLACK_~1\AppData\Local\Temp\ccVQcfpA.s 			page 29


 278              	.L17:
 601:lvgl/src/core/lv_obj.c ****         dsc->radius = lv_obj_get_style_radius(obj, LV_PART_SCROLLBAR);
 279              		.loc 1 601 5 is_stmt 1 view .LVU84
 601:lvgl/src/core/lv_obj.c ****         dsc->radius = lv_obj_get_style_radius(obj, LV_PART_SCROLLBAR);
 280              		.loc 1 601 11 is_stmt 0 view .LVU85
 281 0078 A37A     		ldrb	r3, [r4, #10]	@ zero_extendqisi2
 601:lvgl/src/core/lv_obj.c ****         dsc->radius = lv_obj_get_style_radius(obj, LV_PART_SCROLLBAR);
 282              		.loc 1 601 7 view .LVU86
 283 007a 23B9     		cbnz	r3, .L18
 601:lvgl/src/core/lv_obj.c ****         dsc->radius = lv_obj_get_style_radius(obj, LV_PART_SCROLLBAR);
 284              		.loc 1 601 43 discriminator 1 view .LVU87
 285 007c A37F     		ldrb	r3, [r4, #30]	@ zero_extendqisi2
 601:lvgl/src/core/lv_obj.c ****         dsc->radius = lv_obj_get_style_radius(obj, LV_PART_SCROLLBAR);
 286              		.loc 1 601 37 discriminator 1 view .LVU88
 287 007e 13B9     		cbnz	r3, .L18
 601:lvgl/src/core/lv_obj.c ****         dsc->radius = lv_obj_get_style_radius(obj, LV_PART_SCROLLBAR);
 288              		.loc 1 601 79 discriminator 2 view .LVU89
 289 0080 94F83200 		ldrb	r0, [r4, #50]	@ zero_extendqisi2
 601:lvgl/src/core/lv_obj.c ****         dsc->radius = lv_obj_get_style_radius(obj, LV_PART_SCROLLBAR);
 290              		.loc 1 601 73 discriminator 2 view .LVU90
 291 0084 38B1     		cbz	r0, .L19
 292              	.L18:
 602:lvgl/src/core/lv_obj.c ****         return LV_RES_OK;
 293              		.loc 1 602 9 is_stmt 1 view .LVU91
 294              	.LVL26:
 295              	.LBB109:
 296              	.LBI109:
 127:lvgl/src/core/lv_obj_style_gen.h **** {
 297              		.loc 2 127 26 view .LVU92
 298              	.LBB110:
 129:lvgl/src/core/lv_obj_style_gen.h ****     return (lv_coord_t)v.num;
 299              		.loc 2 129 5 view .LVU93
 129:lvgl/src/core/lv_obj_style_gen.h ****     return (lv_coord_t)v.num;
 300              		.loc 2 129 26 is_stmt 0 view .LVU94
 301 0086 6022     		movs	r2, #96
 302 0088 4FF48031 		mov	r1, #65536
 303 008c 2846     		mov	r0, r5
 304 008e FFF7FEFF 		bl	lv_obj_get_style_prop
 305              	.LVL27:
 130:lvgl/src/core/lv_obj_style_gen.h **** }
 306              		.loc 2 130 5 is_stmt 1 view .LVU95
 130:lvgl/src/core/lv_obj_style_gen.h **** }
 307              		.loc 2 130 5 is_stmt 0 view .LVU96
 308              	.LBE110:
 309              	.LBE109:
 602:lvgl/src/core/lv_obj.c ****         return LV_RES_OK;
 310              		.loc 1 602 21 view .LVU97
 311 0092 2080     		strh	r0, [r4]	@ movhi
 603:lvgl/src/core/lv_obj.c ****     } else {
 312              		.loc 1 603 9 is_stmt 1 view .LVU98
 603:lvgl/src/core/lv_obj.c ****     } else {
 313              		.loc 1 603 16 is_stmt 0 view .LVU99
 314 0094 0120     		movs	r0, #1
 315              	.L19:
 611:lvgl/src/core/lv_obj.c **** 
 316              		.loc 1 611 1 view .LVU100
 317 0096 38BD     		pop	{r3, r4, r5, pc}
ARM GAS  C:\Users\BLACK_~1\AppData\Local\Temp\ccVQcfpA.s 			page 30


 318              	.LVL28:
 319              	.L21:
 569:lvgl/src/core/lv_obj.c ****     }
 320              		.loc 1 569 9 is_stmt 1 view .LVU101
 321              	.LBB111:
 322              	.LBI111:
 193:lvgl/src/core/lv_obj_style_gen.h **** {
 323              		.loc 2 193 26 view .LVU102
 324              	.LBB112:
 195:lvgl/src/core/lv_obj_style_gen.h ****     return v.color;
 325              		.loc 2 195 5 view .LVU103
 195:lvgl/src/core/lv_obj_style_gen.h ****     return v.color;
 326              		.loc 2 195 26 is_stmt 0 view .LVU104
 327 0098 2022     		movs	r2, #32
 328 009a 4FF48031 		mov	r1, #65536
 329 009e 2846     		mov	r0, r5
 330 00a0 FFF7FEFF 		bl	lv_obj_get_style_prop
 331              	.LVL29:
 196:lvgl/src/core/lv_obj_style_gen.h **** }
 332              		.loc 2 196 5 is_stmt 1 view .LVU105
 196:lvgl/src/core/lv_obj_style_gen.h **** }
 333              		.loc 2 196 5 is_stmt 0 view .LVU106
 334              	.LBE112:
 335              	.LBE111:
 569:lvgl/src/core/lv_obj.c ****     }
 336              		.loc 1 569 25 view .LVU107
 337 00a4 A080     		strh	r0, [r4, #4]	@ movhi
 338 00a6 BBE7     		b	.L12
 339              	.L22:
 574:lvgl/src/core/lv_obj.c ****         if(dsc->border_width > 0) {
 340              		.loc 1 574 9 is_stmt 1 view .LVU108
 341              	.LVL30:
 342              	.LBB113:
 343              	.LBI113:
 295:lvgl/src/core/lv_obj_style_gen.h **** {
 344              		.loc 2 295 26 view .LVU109
 345              	.LBB114:
 297:lvgl/src/core/lv_obj_style_gen.h ****     return (lv_coord_t)v.num;
 346              		.loc 2 297 5 view .LVU110
 297:lvgl/src/core/lv_obj_style_gen.h ****     return (lv_coord_t)v.num;
 347              		.loc 2 297 26 is_stmt 0 view .LVU111
 348 00a8 41F23202 		movw	r2, #4146
 349 00ac 4FF48031 		mov	r1, #65536
 350 00b0 2846     		mov	r0, r5
 351 00b2 FFF7FEFF 		bl	lv_obj_get_style_prop
 352              	.LVL31:
 298:lvgl/src/core/lv_obj_style_gen.h **** }
 353              		.loc 2 298 5 is_stmt 1 view .LVU112
 298:lvgl/src/core/lv_obj_style_gen.h **** }
 354              		.loc 2 298 12 is_stmt 0 view .LVU113
 355 00b6 00B2     		sxth	r0, r0
 356              	.LVL32:
 298:lvgl/src/core/lv_obj_style_gen.h **** }
 357              		.loc 2 298 12 view .LVU114
 358              	.LBE114:
 359              	.LBE113:
 574:lvgl/src/core/lv_obj.c ****         if(dsc->border_width > 0) {
ARM GAS  C:\Users\BLACK_~1\AppData\Local\Temp\ccVQcfpA.s 			page 31


 360              		.loc 1 574 27 view .LVU115
 361 00b8 A083     		strh	r0, [r4, #28]	@ movhi
 575:lvgl/src/core/lv_obj.c ****             dsc->border_color = lv_obj_get_style_border_color(obj, LV_PART_SCROLLBAR);
 362              		.loc 1 575 9 is_stmt 1 view .LVU116
 575:lvgl/src/core/lv_obj.c ****             dsc->border_color = lv_obj_get_style_border_color(obj, LV_PART_SCROLLBAR);
 363              		.loc 1 575 11 is_stmt 0 view .LVU117
 364 00ba 0028     		cmp	r0, #0
 365 00bc 02DC     		bgt	.L24
 578:lvgl/src/core/lv_obj.c ****         }
 366              		.loc 1 578 13 is_stmt 1 view .LVU118
 578:lvgl/src/core/lv_obj.c ****         }
 367              		.loc 1 578 29 is_stmt 0 view .LVU119
 368 00be 0023     		movs	r3, #0
 369 00c0 A377     		strb	r3, [r4, #30]
 370 00c2 B7E7     		b	.L13
 371              	.L24:
 576:lvgl/src/core/lv_obj.c ****         } else {
 372              		.loc 1 576 13 is_stmt 1 view .LVU120
 373              	.LVL33:
 374              	.LBB115:
 375              	.LBI115:
 277:lvgl/src/core/lv_obj_style_gen.h **** {
 376              		.loc 2 277 26 view .LVU121
 377              	.LBB116:
 279:lvgl/src/core/lv_obj_style_gen.h ****     return v.color;
 378              		.loc 2 279 5 view .LVU122
 279:lvgl/src/core/lv_obj_style_gen.h ****     return v.color;
 379              		.loc 2 279 26 is_stmt 0 view .LVU123
 380 00c4 3022     		movs	r2, #48
 381 00c6 4FF48031 		mov	r1, #65536
 382 00ca 2846     		mov	r0, r5
 383 00cc FFF7FEFF 		bl	lv_obj_get_style_prop
 384              	.LVL34:
 280:lvgl/src/core/lv_obj_style_gen.h **** }
 385              		.loc 2 280 5 is_stmt 1 view .LVU124
 280:lvgl/src/core/lv_obj_style_gen.h **** }
 386              		.loc 2 280 5 is_stmt 0 view .LVU125
 387              	.LBE116:
 388              	.LBE115:
 576:lvgl/src/core/lv_obj.c ****         } else {
 389              		.loc 1 576 33 view .LVU126
 390 00d0 6083     		strh	r0, [r4, #26]	@ movhi
 391 00d2 AFE7     		b	.L13
 392              	.L23:
 585:lvgl/src/core/lv_obj.c ****         if(dsc->shadow_width > 0) {
 393              		.loc 1 585 9 is_stmt 1 view .LVU127
 394              	.LVL35:
 395              	.LBB117:
 396              	.LBI117:
 415:lvgl/src/core/lv_obj_style_gen.h **** {
 397              		.loc 2 415 26 view .LVU128
 398              	.LBB118:
 417:lvgl/src/core/lv_obj_style_gen.h ****     return (lv_coord_t)v.num;
 399              		.loc 2 417 5 view .LVU129
 417:lvgl/src/core/lv_obj_style_gen.h ****     return (lv_coord_t)v.num;
 400              		.loc 2 417 26 is_stmt 0 view .LVU130
 401 00d4 4FF40462 		mov	r2, #2112
ARM GAS  C:\Users\BLACK_~1\AppData\Local\Temp\ccVQcfpA.s 			page 32


 402 00d8 4FF48031 		mov	r1, #65536
 403 00dc 2846     		mov	r0, r5
 404 00de FFF7FEFF 		bl	lv_obj_get_style_prop
 405              	.LVL36:
 418:lvgl/src/core/lv_obj_style_gen.h **** }
 406              		.loc 2 418 5 is_stmt 1 view .LVU131
 418:lvgl/src/core/lv_obj_style_gen.h **** }
 407              		.loc 2 418 12 is_stmt 0 view .LVU132
 408 00e2 00B2     		sxth	r0, r0
 409              	.LVL37:
 418:lvgl/src/core/lv_obj_style_gen.h **** }
 410              		.loc 2 418 12 view .LVU133
 411              	.LBE118:
 412              	.LBE117:
 585:lvgl/src/core/lv_obj.c ****         if(dsc->shadow_width > 0) {
 413              		.loc 1 585 27 view .LVU134
 414 00e4 6085     		strh	r0, [r4, #42]	@ movhi
 586:lvgl/src/core/lv_obj.c ****             dsc->shadow_spread = lv_obj_get_style_shadow_spread(obj, LV_PART_SCROLLBAR);
 415              		.loc 1 586 9 is_stmt 1 view .LVU135
 586:lvgl/src/core/lv_obj.c ****             dsc->shadow_spread = lv_obj_get_style_shadow_spread(obj, LV_PART_SCROLLBAR);
 416              		.loc 1 586 11 is_stmt 0 view .LVU136
 417 00e6 0028     		cmp	r0, #0
 418 00e8 03DC     		bgt	.L25
 590:lvgl/src/core/lv_obj.c ****         }
 419              		.loc 1 590 13 is_stmt 1 view .LVU137
 590:lvgl/src/core/lv_obj.c ****         }
 420              		.loc 1 590 29 is_stmt 0 view .LVU138
 421 00ea 0023     		movs	r3, #0
 422 00ec 84F83230 		strb	r3, [r4, #50]
 423 00f0 ACE7     		b	.L15
 424              	.L25:
 587:lvgl/src/core/lv_obj.c ****             dsc->shadow_color = lv_obj_get_style_shadow_color(obj, LV_PART_SCROLLBAR);
 425              		.loc 1 587 13 is_stmt 1 view .LVU139
 426              	.LVL38:
 427              	.LBB119:
 428              	.LBI119:
 433:lvgl/src/core/lv_obj_style_gen.h **** {
 429              		.loc 2 433 26 view .LVU140
 430              	.LBB120:
 435:lvgl/src/core/lv_obj_style_gen.h ****     return (lv_coord_t)v.num;
 431              		.loc 2 435 5 view .LVU141
 435:lvgl/src/core/lv_obj_style_gen.h ****     return (lv_coord_t)v.num;
 432              		.loc 2 435 26 is_stmt 0 view .LVU142
 433 00f2 40F64302 		movw	r2, #2115
 434 00f6 4FF48031 		mov	r1, #65536
 435 00fa 2846     		mov	r0, r5
 436 00fc FFF7FEFF 		bl	lv_obj_get_style_prop
 437              	.LVL39:
 436:lvgl/src/core/lv_obj_style_gen.h **** }
 438              		.loc 2 436 5 is_stmt 1 view .LVU143
 436:lvgl/src/core/lv_obj_style_gen.h **** }
 439              		.loc 2 436 5 is_stmt 0 view .LVU144
 440              	.LBE120:
 441              	.LBE119:
 587:lvgl/src/core/lv_obj.c ****             dsc->shadow_color = lv_obj_get_style_shadow_color(obj, LV_PART_SCROLLBAR);
 442              		.loc 1 587 32 view .LVU145
 443 0100 2086     		strh	r0, [r4, #48]	@ movhi
ARM GAS  C:\Users\BLACK_~1\AppData\Local\Temp\ccVQcfpA.s 			page 33


 588:lvgl/src/core/lv_obj.c ****         } else {
 444              		.loc 1 588 13 is_stmt 1 view .LVU146
 445              	.LVL40:
 446              	.LBB121:
 447              	.LBI121:
 439:lvgl/src/core/lv_obj_style_gen.h **** {
 448              		.loc 2 439 26 view .LVU147
 449              	.LBB122:
 441:lvgl/src/core/lv_obj_style_gen.h ****     return v.color;
 450              		.loc 2 441 5 view .LVU148
 441:lvgl/src/core/lv_obj_style_gen.h ****     return v.color;
 451              		.loc 2 441 26 is_stmt 0 view .LVU149
 452 0102 4422     		movs	r2, #68
 453 0104 4FF48031 		mov	r1, #65536
 454 0108 2846     		mov	r0, r5
 455 010a FFF7FEFF 		bl	lv_obj_get_style_prop
 456              	.LVL41:
 442:lvgl/src/core/lv_obj_style_gen.h **** }
 457              		.loc 2 442 5 is_stmt 1 view .LVU150
 442:lvgl/src/core/lv_obj_style_gen.h **** }
 458              		.loc 2 442 5 is_stmt 0 view .LVU151
 459              	.LBE122:
 460              	.LBE121:
 588:lvgl/src/core/lv_obj.c ****         } else {
 461              		.loc 1 588 33 view .LVU152
 462 010e 2085     		strh	r0, [r4, #40]	@ movhi
 463 0110 9CE7     		b	.L15
 464              		.cfi_endproc
 465              	.LFE174:
 467              		.section	.text.draw_scrollbar,"ax",%progbits
 468              		.align	1
 469              		.syntax unified
 470              		.thumb
 471              		.thumb_func
 473              	draw_scrollbar:
 474              	.LVL42:
 475              	.LFB173:
 542:lvgl/src/core/lv_obj.c **** 
 476              		.loc 1 542 1 is_stmt 1 view -0
 477              		.cfi_startproc
 478              		@ args = 0, pretend = 0, frame = 72
 479              		@ frame_needed = 0, uses_anonymous_args = 0
 542:lvgl/src/core/lv_obj.c **** 
 480              		.loc 1 542 1 is_stmt 0 view .LVU154
 481 0000 30B5     		push	{r4, r5, lr}
 482              	.LCFI2:
 483              		.cfi_def_cfa_offset 12
 484              		.cfi_offset 4, -12
 485              		.cfi_offset 5, -8
 486              		.cfi_offset 14, -4
 487 0002 93B0     		sub	sp, sp, #76
 488              	.LCFI3:
 489              		.cfi_def_cfa_offset 88
 490 0004 0446     		mov	r4, r0
 491 0006 0D46     		mov	r5, r1
 544:lvgl/src/core/lv_obj.c ****     lv_area_t ver_area;
 492              		.loc 1 544 5 is_stmt 1 view .LVU155
ARM GAS  C:\Users\BLACK_~1\AppData\Local\Temp\ccVQcfpA.s 			page 34


 545:lvgl/src/core/lv_obj.c ****     lv_obj_get_scrollbar_area(obj, &hor_area, &ver_area);
 493              		.loc 1 545 5 view .LVU156
 546:lvgl/src/core/lv_obj.c **** 
 494              		.loc 1 546 5 view .LVU157
 495 0008 0EAA     		add	r2, sp, #56
 496 000a 10A9     		add	r1, sp, #64
 497              	.LVL43:
 546:lvgl/src/core/lv_obj.c **** 
 498              		.loc 1 546 5 is_stmt 0 view .LVU158
 499 000c FFF7FEFF 		bl	lv_obj_get_scrollbar_area
 500              	.LVL44:
 548:lvgl/src/core/lv_obj.c **** 
 501              		.loc 1 548 5 is_stmt 1 view .LVU159
 548:lvgl/src/core/lv_obj.c **** 
 502              		.loc 1 548 8 is_stmt 0 view .LVU160
 503 0010 10A8     		add	r0, sp, #64
 504 0012 FFF7FEFF 		bl	lv_area_get_size
 505              	.LVL45:
 548:lvgl/src/core/lv_obj.c **** 
 506              		.loc 1 548 7 view .LVU161
 507 0016 18B9     		cbnz	r0, .L27
 548:lvgl/src/core/lv_obj.c **** 
 508              		.loc 1 548 44 discriminator 1 view .LVU162
 509 0018 0EA8     		add	r0, sp, #56
 510 001a FFF7FEFF 		bl	lv_area_get_size
 511              	.LVL46:
 548:lvgl/src/core/lv_obj.c **** 
 512              		.loc 1 548 41 discriminator 1 view .LVU163
 513 001e 28B1     		cbz	r0, .L26
 514              	.L27:
 550:lvgl/src/core/lv_obj.c ****     lv_res_t sb_res = scrollbar_init_draw_dsc(obj, &draw_dsc);
 515              		.loc 1 550 5 is_stmt 1 view .LVU164
 551:lvgl/src/core/lv_obj.c ****     if(sb_res != LV_RES_OK) return;
 516              		.loc 1 551 5 view .LVU165
 551:lvgl/src/core/lv_obj.c ****     if(sb_res != LV_RES_OK) return;
 517              		.loc 1 551 23 is_stmt 0 view .LVU166
 518 0020 01A9     		add	r1, sp, #4
 519 0022 2046     		mov	r0, r4
 520 0024 FFF7FEFF 		bl	scrollbar_init_draw_dsc
 521              	.LVL47:
 552:lvgl/src/core/lv_obj.c **** 
 522              		.loc 1 552 5 is_stmt 1 view .LVU167
 552:lvgl/src/core/lv_obj.c **** 
 523              		.loc 1 552 7 is_stmt 0 view .LVU168
 524 0028 0128     		cmp	r0, #1
 525 002a 01D0     		beq	.L33
 526              	.LVL48:
 527              	.L26:
 556:lvgl/src/core/lv_obj.c **** 
 528              		.loc 1 556 1 view .LVU169
 529 002c 13B0     		add	sp, sp, #76
 530              	.LCFI4:
 531              		.cfi_remember_state
 532              		.cfi_def_cfa_offset 12
 533              		@ sp needed
 534 002e 30BD     		pop	{r4, r5, pc}
 535              	.LVL49:
ARM GAS  C:\Users\BLACK_~1\AppData\Local\Temp\ccVQcfpA.s 			page 35


 536              	.L33:
 537              	.LCFI5:
 538              		.cfi_restore_state
 554:lvgl/src/core/lv_obj.c ****     if(lv_area_get_size(&ver_area) > 0) lv_draw_rect(&ver_area, clip_area, &draw_dsc);
 539              		.loc 1 554 5 is_stmt 1 view .LVU170
 554:lvgl/src/core/lv_obj.c ****     if(lv_area_get_size(&ver_area) > 0) lv_draw_rect(&ver_area, clip_area, &draw_dsc);
 540              		.loc 1 554 8 is_stmt 0 view .LVU171
 541 0030 10A8     		add	r0, sp, #64
 542              	.LVL50:
 554:lvgl/src/core/lv_obj.c ****     if(lv_area_get_size(&ver_area) > 0) lv_draw_rect(&ver_area, clip_area, &draw_dsc);
 543              		.loc 1 554 8 view .LVU172
 544 0032 FFF7FEFF 		bl	lv_area_get_size
 545              	.LVL51:
 554:lvgl/src/core/lv_obj.c ****     if(lv_area_get_size(&ver_area) > 0) lv_draw_rect(&ver_area, clip_area, &draw_dsc);
 546              		.loc 1 554 7 view .LVU173
 547 0036 50B9     		cbnz	r0, .L34
 548              	.L29:
 555:lvgl/src/core/lv_obj.c **** }
 549              		.loc 1 555 5 is_stmt 1 view .LVU174
 555:lvgl/src/core/lv_obj.c **** }
 550              		.loc 1 555 8 is_stmt 0 view .LVU175
 551 0038 0EA8     		add	r0, sp, #56
 552 003a FFF7FEFF 		bl	lv_area_get_size
 553              	.LVL52:
 555:lvgl/src/core/lv_obj.c **** }
 554              		.loc 1 555 7 view .LVU176
 555 003e 0028     		cmp	r0, #0
 556 0040 F4D0     		beq	.L26
 555:lvgl/src/core/lv_obj.c **** }
 557              		.loc 1 555 41 is_stmt 1 discriminator 1 view .LVU177
 558 0042 01AA     		add	r2, sp, #4
 559 0044 2946     		mov	r1, r5
 560 0046 0EA8     		add	r0, sp, #56
 561 0048 FFF7FEFF 		bl	lv_draw_rect
 562              	.LVL53:
 563 004c EEE7     		b	.L26
 564              	.L34:
 554:lvgl/src/core/lv_obj.c ****     if(lv_area_get_size(&ver_area) > 0) lv_draw_rect(&ver_area, clip_area, &draw_dsc);
 565              		.loc 1 554 41 discriminator 1 view .LVU178
 566 004e 01AA     		add	r2, sp, #4
 567 0050 2946     		mov	r1, r5
 568 0052 10A8     		add	r0, sp, #64
 569 0054 FFF7FEFF 		bl	lv_draw_rect
 570              	.LVL54:
 571 0058 EEE7     		b	.L29
 572              		.cfi_endproc
 573              	.LFE173:
 575              		.section	.text.lv_obj_draw,"ax",%progbits
 576              		.align	1
 577              		.syntax unified
 578              		.thumb
 579              		.thumb_func
 581              	lv_obj_draw:
 582              	.LVL55:
 583              	.LFB172:
 430:lvgl/src/core/lv_obj.c ****     lv_event_code_t code = lv_event_get_code(e);
 584              		.loc 1 430 1 view -0
ARM GAS  C:\Users\BLACK_~1\AppData\Local\Temp\ccVQcfpA.s 			page 36


 585              		.cfi_startproc
 586              		@ args = 0, pretend = 0, frame = 64
 587              		@ frame_needed = 0, uses_anonymous_args = 0
 430:lvgl/src/core/lv_obj.c ****     lv_event_code_t code = lv_event_get_code(e);
 588              		.loc 1 430 1 is_stmt 0 view .LVU180
 589 0000 F0B5     		push	{r4, r5, r6, r7, lr}
 590              	.LCFI6:
 591              		.cfi_def_cfa_offset 20
 592              		.cfi_offset 4, -20
 593              		.cfi_offset 5, -16
 594              		.cfi_offset 6, -12
 595              		.cfi_offset 7, -8
 596              		.cfi_offset 14, -4
 597 0002 91B0     		sub	sp, sp, #68
 598              	.LCFI7:
 599              		.cfi_def_cfa_offset 88
 600 0004 0646     		mov	r6, r0
 431:lvgl/src/core/lv_obj.c ****     lv_obj_t * obj = lv_event_get_target(e);
 601              		.loc 1 431 5 is_stmt 1 view .LVU181
 431:lvgl/src/core/lv_obj.c ****     lv_obj_t * obj = lv_event_get_target(e);
 602              		.loc 1 431 28 is_stmt 0 view .LVU182
 603 0006 FFF7FEFF 		bl	lv_event_get_code
 604              	.LVL56:
 431:lvgl/src/core/lv_obj.c ****     lv_obj_t * obj = lv_event_get_target(e);
 605              		.loc 1 431 28 view .LVU183
 606 000a 0546     		mov	r5, r0
 607              	.LVL57:
 432:lvgl/src/core/lv_obj.c ****     if(code == LV_EVENT_COVER_CHECK) {
 608              		.loc 1 432 5 is_stmt 1 view .LVU184
 432:lvgl/src/core/lv_obj.c ****     if(code == LV_EVENT_COVER_CHECK) {
 609              		.loc 1 432 22 is_stmt 0 view .LVU185
 610 000c 3046     		mov	r0, r6
 611 000e FFF7FEFF 		bl	lv_event_get_target
 612              	.LVL58:
 613 0012 0446     		mov	r4, r0
 614              	.LVL59:
 433:lvgl/src/core/lv_obj.c ****         lv_cover_check_info_t * info = lv_event_get_param(e);
 615              		.loc 1 433 5 is_stmt 1 view .LVU186
 433:lvgl/src/core/lv_obj.c ****         lv_cover_check_info_t * info = lv_event_get_param(e);
 616              		.loc 1 433 7 is_stmt 0 view .LVU187
 617 0014 122D     		cmp	r5, #18
 618 0016 06D0     		beq	.L49
 476:lvgl/src/core/lv_obj.c ****         const lv_area_t * clip_area = lv_event_get_param(e);
 619              		.loc 1 476 10 is_stmt 1 view .LVU188
 476:lvgl/src/core/lv_obj.c ****         const lv_area_t * clip_area = lv_event_get_param(e);
 620              		.loc 1 476 12 is_stmt 0 view .LVU189
 621 0018 152D     		cmp	r5, #21
 622 001a 73D0     		beq	.L50
 508:lvgl/src/core/lv_obj.c ****         const lv_area_t * clip_area = lv_event_get_param(e);
 623              		.loc 1 508 10 is_stmt 1 view .LVU190
 508:lvgl/src/core/lv_obj.c ****         const lv_area_t * clip_area = lv_event_get_param(e);
 624              		.loc 1 508 12 is_stmt 0 view .LVU191
 625 001c 182D     		cmp	r5, #24
 626 001e 00F0D780 		beq	.L51
 627              	.LVL60:
 628              	.L35:
 539:lvgl/src/core/lv_obj.c **** 
ARM GAS  C:\Users\BLACK_~1\AppData\Local\Temp\ccVQcfpA.s 			page 37


 629              		.loc 1 539 1 view .LVU192
 630 0022 11B0     		add	sp, sp, #68
 631              	.LCFI8:
 632              		.cfi_remember_state
 633              		.cfi_def_cfa_offset 20
 634              		@ sp needed
 635 0024 F0BD     		pop	{r4, r5, r6, r7, pc}
 636              	.LVL61:
 637              	.L49:
 638              	.LCFI9:
 639              		.cfi_restore_state
 640              	.LBB123:
 434:lvgl/src/core/lv_obj.c ****         if(info->res == LV_COVER_RES_MASKED) return;
 641              		.loc 1 434 9 is_stmt 1 view .LVU193
 434:lvgl/src/core/lv_obj.c ****         if(info->res == LV_COVER_RES_MASKED) return;
 642              		.loc 1 434 40 is_stmt 0 view .LVU194
 643 0026 3046     		mov	r0, r6
 644              	.LVL62:
 434:lvgl/src/core/lv_obj.c ****         if(info->res == LV_COVER_RES_MASKED) return;
 645              		.loc 1 434 40 view .LVU195
 646 0028 FFF7FEFF 		bl	lv_event_get_param
 647              	.LVL63:
 648 002c 0546     		mov	r5, r0
 649              	.LVL64:
 435:lvgl/src/core/lv_obj.c ****         if(lv_obj_get_style_clip_corner(obj, LV_PART_MAIN)) {
 650              		.loc 1 435 9 is_stmt 1 view .LVU196
 435:lvgl/src/core/lv_obj.c ****         if(lv_obj_get_style_clip_corner(obj, LV_PART_MAIN)) {
 651              		.loc 1 435 16 is_stmt 0 view .LVU197
 652 002e 0378     		ldrb	r3, [r0]	@ zero_extendqisi2
 435:lvgl/src/core/lv_obj.c ****         if(lv_obj_get_style_clip_corner(obj, LV_PART_MAIN)) {
 653              		.loc 1 435 11 view .LVU198
 654 0030 022B     		cmp	r3, #2
 655 0032 F6D0     		beq	.L35
 436:lvgl/src/core/lv_obj.c ****             info->res = LV_COVER_RES_MASKED;
 656              		.loc 1 436 9 is_stmt 1 view .LVU199
 657              	.LVL65:
 658              	.LBB124:
 659              	.LBI124:
 133:lvgl/src/core/lv_obj_style_gen.h **** {
 660              		.loc 2 133 20 view .LVU200
 661              	.LBB125:
 135:lvgl/src/core/lv_obj_style_gen.h ****     return (bool)v.num;
 662              		.loc 2 135 5 view .LVU201
 135:lvgl/src/core/lv_obj_style_gen.h ****     return (bool)v.num;
 663              		.loc 2 135 26 is_stmt 0 view .LVU202
 664 0034 6122     		movs	r2, #97
 665 0036 0021     		movs	r1, #0
 666 0038 2046     		mov	r0, r4
 667              	.LVL66:
 135:lvgl/src/core/lv_obj_style_gen.h ****     return (bool)v.num;
 668              		.loc 2 135 26 view .LVU203
 669 003a FFF7FEFF 		bl	lv_obj_get_style_prop
 670              	.LVL67:
 136:lvgl/src/core/lv_obj_style_gen.h **** }
 671              		.loc 2 136 5 is_stmt 1 view .LVU204
 136:lvgl/src/core/lv_obj_style_gen.h **** }
 672              		.loc 2 136 5 is_stmt 0 view .LVU205
ARM GAS  C:\Users\BLACK_~1\AppData\Local\Temp\ccVQcfpA.s 			page 38


 673              	.LBE125:
 674              	.LBE124:
 436:lvgl/src/core/lv_obj.c ****             info->res = LV_COVER_RES_MASKED;
 675              		.loc 1 436 11 view .LVU206
 676 003e 10B1     		cbz	r0, .L38
 437:lvgl/src/core/lv_obj.c ****             return;
 677              		.loc 1 437 13 is_stmt 1 view .LVU207
 437:lvgl/src/core/lv_obj.c ****             return;
 678              		.loc 1 437 23 is_stmt 0 view .LVU208
 679 0040 0223     		movs	r3, #2
 680 0042 2B70     		strb	r3, [r5]
 438:lvgl/src/core/lv_obj.c ****         }
 681              		.loc 1 438 13 is_stmt 1 view .LVU209
 682 0044 EDE7     		b	.L35
 683              	.L38:
 442:lvgl/src/core/lv_obj.c ****         lv_coord_t w = lv_obj_get_style_transform_width(obj, LV_PART_MAIN);
 684              		.loc 1 442 9 view .LVU210
 685              	.LVL68:
 686              	.LBB126:
 687              	.LBI126:
 127:lvgl/src/core/lv_obj_style_gen.h **** {
 688              		.loc 2 127 26 view .LVU211
 689              	.LBB127:
 129:lvgl/src/core/lv_obj_style_gen.h ****     return (lv_coord_t)v.num;
 690              		.loc 2 129 5 view .LVU212
 129:lvgl/src/core/lv_obj_style_gen.h ****     return (lv_coord_t)v.num;
 691              		.loc 2 129 26 is_stmt 0 view .LVU213
 692 0046 6022     		movs	r2, #96
 693 0048 0021     		movs	r1, #0
 694 004a 2046     		mov	r0, r4
 695 004c FFF7FEFF 		bl	lv_obj_get_style_prop
 696              	.LVL69:
 130:lvgl/src/core/lv_obj_style_gen.h **** }
 697              		.loc 2 130 5 is_stmt 1 view .LVU214
 130:lvgl/src/core/lv_obj_style_gen.h **** }
 698              		.loc 2 130 12 is_stmt 0 view .LVU215
 699 0050 07B2     		sxth	r7, r0
 700              	.LVL70:
 130:lvgl/src/core/lv_obj_style_gen.h **** }
 701              		.loc 2 130 12 view .LVU216
 702              	.LBE127:
 703              	.LBE126:
 443:lvgl/src/core/lv_obj.c ****         lv_coord_t h = lv_obj_get_style_transform_height(obj, LV_PART_MAIN);
 704              		.loc 1 443 9 is_stmt 1 view .LVU217
 705              	.LBB128:
 706              	.LBI128:
  55:lvgl/src/core/lv_obj_style_gen.h **** {
 707              		.loc 2 55 26 view .LVU218
 708              	.LBB129:
  57:lvgl/src/core/lv_obj_style_gen.h ****     return (lv_coord_t)v.num;
 709              		.loc 2 57 5 view .LVU219
  57:lvgl/src/core/lv_obj_style_gen.h ****     return (lv_coord_t)v.num;
 710              		.loc 2 57 26 is_stmt 0 view .LVU220
 711 0052 40F60A02 		movw	r2, #2058
 712 0056 0021     		movs	r1, #0
 713 0058 2046     		mov	r0, r4
 714 005a FFF7FEFF 		bl	lv_obj_get_style_prop
ARM GAS  C:\Users\BLACK_~1\AppData\Local\Temp\ccVQcfpA.s 			page 39


 715              	.LVL71:
 716 005e 0646     		mov	r6, r0
 717              	.LVL72:
  58:lvgl/src/core/lv_obj_style_gen.h **** }
 718              		.loc 2 58 5 is_stmt 1 view .LVU221
  58:lvgl/src/core/lv_obj_style_gen.h **** }
 719              		.loc 2 58 5 is_stmt 0 view .LVU222
 720              	.LBE129:
 721              	.LBE128:
 444:lvgl/src/core/lv_obj.c ****         lv_area_t coords;
 722              		.loc 1 444 9 is_stmt 1 view .LVU223
 723              	.LBB130:
 724              	.LBI130:
  61:lvgl/src/core/lv_obj_style_gen.h **** {
 725              		.loc 2 61 26 view .LVU224
 726              	.LBB131:
  63:lvgl/src/core/lv_obj_style_gen.h ****     return (lv_coord_t)v.num;
 727              		.loc 2 63 5 view .LVU225
  63:lvgl/src/core/lv_obj_style_gen.h ****     return (lv_coord_t)v.num;
 728              		.loc 2 63 26 is_stmt 0 view .LVU226
 729 0060 40F60B02 		movw	r2, #2059
 730 0064 0021     		movs	r1, #0
 731 0066 2046     		mov	r0, r4
 732 0068 FFF7FEFF 		bl	lv_obj_get_style_prop
 733              	.LVL73:
  64:lvgl/src/core/lv_obj_style_gen.h **** }
 734              		.loc 2 64 5 is_stmt 1 view .LVU227
  64:lvgl/src/core/lv_obj_style_gen.h **** }
 735              		.loc 2 64 5 is_stmt 0 view .LVU228
 736              	.LBE131:
 737              	.LBE130:
 445:lvgl/src/core/lv_obj.c ****         lv_area_copy(&coords, &obj->coords);
 738              		.loc 1 445 9 is_stmt 1 view .LVU229
 446:lvgl/src/core/lv_obj.c ****         coords.x1 -= w;
 739              		.loc 1 446 9 view .LVU230
 740              	.LBB132:
 741              	.LBI132:
 742              		.file 3 "lvgl/src/core/../misc/../font/../misc/lv_area.h"
   1:lvgl/src/core/../misc/../font/../misc/lv_area.h **** /**
   2:lvgl/src/core/../misc/../font/../misc/lv_area.h ****  * @file lv_area.h
   3:lvgl/src/core/../misc/../font/../misc/lv_area.h ****  *
   4:lvgl/src/core/../misc/../font/../misc/lv_area.h ****  */
   5:lvgl/src/core/../misc/../font/../misc/lv_area.h **** 
   6:lvgl/src/core/../misc/../font/../misc/lv_area.h **** #ifndef LV_AREA_H
   7:lvgl/src/core/../misc/../font/../misc/lv_area.h **** #define LV_AREA_H
   8:lvgl/src/core/../misc/../font/../misc/lv_area.h **** 
   9:lvgl/src/core/../misc/../font/../misc/lv_area.h **** #ifdef __cplusplus
  10:lvgl/src/core/../misc/../font/../misc/lv_area.h **** extern "C" {
  11:lvgl/src/core/../misc/../font/../misc/lv_area.h **** #endif
  12:lvgl/src/core/../misc/../font/../misc/lv_area.h **** 
  13:lvgl/src/core/../misc/../font/../misc/lv_area.h **** /*********************
  14:lvgl/src/core/../misc/../font/../misc/lv_area.h ****  *      INCLUDES
  15:lvgl/src/core/../misc/../font/../misc/lv_area.h ****  *********************/
  16:lvgl/src/core/../misc/../font/../misc/lv_area.h **** #include "../lv_conf_internal.h"
  17:lvgl/src/core/../misc/../font/../misc/lv_area.h **** #include <string.h>
  18:lvgl/src/core/../misc/../font/../misc/lv_area.h **** #include <stdbool.h>
  19:lvgl/src/core/../misc/../font/../misc/lv_area.h **** #include <stdint.h>
ARM GAS  C:\Users\BLACK_~1\AppData\Local\Temp\ccVQcfpA.s 			page 40


  20:lvgl/src/core/../misc/../font/../misc/lv_area.h **** 
  21:lvgl/src/core/../misc/../font/../misc/lv_area.h **** /*********************
  22:lvgl/src/core/../misc/../font/../misc/lv_area.h ****  *      DEFINES
  23:lvgl/src/core/../misc/../font/../misc/lv_area.h ****  *********************/
  24:lvgl/src/core/../misc/../font/../misc/lv_area.h **** 
  25:lvgl/src/core/../misc/../font/../misc/lv_area.h **** #define _LV_COORD_MAX_REDUCE    8192
  26:lvgl/src/core/../misc/../font/../misc/lv_area.h **** 
  27:lvgl/src/core/../misc/../font/../misc/lv_area.h **** #if LV_USE_LARGE_COORD
  28:lvgl/src/core/../misc/../font/../misc/lv_area.h **** typedef int32_t lv_coord_t;
  29:lvgl/src/core/../misc/../font/../misc/lv_area.h **** #else
  30:lvgl/src/core/../misc/../font/../misc/lv_area.h **** typedef int16_t lv_coord_t;
  31:lvgl/src/core/../misc/../font/../misc/lv_area.h **** #endif
  32:lvgl/src/core/../misc/../font/../misc/lv_area.h **** 
  33:lvgl/src/core/../misc/../font/../misc/lv_area.h **** /*To allow some special values in the end reduce the max value*/
  34:lvgl/src/core/../misc/../font/../misc/lv_area.h **** #define LV_COORD_MAX ((lv_coord_t)((uint32_t)((uint32_t)1 << (8 * sizeof(lv_coord_t) - 1)) - _LV_CO
  35:lvgl/src/core/../misc/../font/../misc/lv_area.h **** #define LV_COORD_MIN (-LV_COORD_MAX)
  36:lvgl/src/core/../misc/../font/../misc/lv_area.h **** 
  37:lvgl/src/core/../misc/../font/../misc/lv_area.h **** LV_EXPORT_CONST_INT(LV_COORD_MAX);
  38:lvgl/src/core/../misc/../font/../misc/lv_area.h **** LV_EXPORT_CONST_INT(LV_COORD_MIN);
  39:lvgl/src/core/../misc/../font/../misc/lv_area.h **** 
  40:lvgl/src/core/../misc/../font/../misc/lv_area.h **** /**********************
  41:lvgl/src/core/../misc/../font/../misc/lv_area.h ****  *      TYPEDEFS
  42:lvgl/src/core/../misc/../font/../misc/lv_area.h ****  **********************/
  43:lvgl/src/core/../misc/../font/../misc/lv_area.h **** 
  44:lvgl/src/core/../misc/../font/../misc/lv_area.h **** /**
  45:lvgl/src/core/../misc/../font/../misc/lv_area.h ****  * Represents a point on the screen.
  46:lvgl/src/core/../misc/../font/../misc/lv_area.h ****  */
  47:lvgl/src/core/../misc/../font/../misc/lv_area.h **** typedef struct {
  48:lvgl/src/core/../misc/../font/../misc/lv_area.h ****     lv_coord_t x;
  49:lvgl/src/core/../misc/../font/../misc/lv_area.h ****     lv_coord_t y;
  50:lvgl/src/core/../misc/../font/../misc/lv_area.h **** } lv_point_t;
  51:lvgl/src/core/../misc/../font/../misc/lv_area.h **** 
  52:lvgl/src/core/../misc/../font/../misc/lv_area.h **** /** Represents an area of the screen.*/
  53:lvgl/src/core/../misc/../font/../misc/lv_area.h **** typedef struct {
  54:lvgl/src/core/../misc/../font/../misc/lv_area.h ****     lv_coord_t x1;
  55:lvgl/src/core/../misc/../font/../misc/lv_area.h ****     lv_coord_t y1;
  56:lvgl/src/core/../misc/../font/../misc/lv_area.h ****     lv_coord_t x2;
  57:lvgl/src/core/../misc/../font/../misc/lv_area.h ****     lv_coord_t y2;
  58:lvgl/src/core/../misc/../font/../misc/lv_area.h **** } lv_area_t;
  59:lvgl/src/core/../misc/../font/../misc/lv_area.h **** 
  60:lvgl/src/core/../misc/../font/../misc/lv_area.h **** /** Alignments*/
  61:lvgl/src/core/../misc/../font/../misc/lv_area.h **** enum {
  62:lvgl/src/core/../misc/../font/../misc/lv_area.h ****     LV_ALIGN_DEFAULT = 0,
  63:lvgl/src/core/../misc/../font/../misc/lv_area.h ****     LV_ALIGN_TOP_LEFT,
  64:lvgl/src/core/../misc/../font/../misc/lv_area.h ****     LV_ALIGN_TOP_MID,
  65:lvgl/src/core/../misc/../font/../misc/lv_area.h ****     LV_ALIGN_TOP_RIGHT,
  66:lvgl/src/core/../misc/../font/../misc/lv_area.h ****     LV_ALIGN_BOTTOM_LEFT,
  67:lvgl/src/core/../misc/../font/../misc/lv_area.h ****     LV_ALIGN_BOTTOM_MID,
  68:lvgl/src/core/../misc/../font/../misc/lv_area.h ****     LV_ALIGN_BOTTOM_RIGHT,
  69:lvgl/src/core/../misc/../font/../misc/lv_area.h ****     LV_ALIGN_LEFT_MID,
  70:lvgl/src/core/../misc/../font/../misc/lv_area.h ****     LV_ALIGN_RIGHT_MID,
  71:lvgl/src/core/../misc/../font/../misc/lv_area.h ****     LV_ALIGN_CENTER,
  72:lvgl/src/core/../misc/../font/../misc/lv_area.h **** 
  73:lvgl/src/core/../misc/../font/../misc/lv_area.h ****     LV_ALIGN_OUT_TOP_LEFT,
  74:lvgl/src/core/../misc/../font/../misc/lv_area.h ****     LV_ALIGN_OUT_TOP_MID,
  75:lvgl/src/core/../misc/../font/../misc/lv_area.h ****     LV_ALIGN_OUT_TOP_RIGHT,
  76:lvgl/src/core/../misc/../font/../misc/lv_area.h ****     LV_ALIGN_OUT_BOTTOM_LEFT,
ARM GAS  C:\Users\BLACK_~1\AppData\Local\Temp\ccVQcfpA.s 			page 41


  77:lvgl/src/core/../misc/../font/../misc/lv_area.h ****     LV_ALIGN_OUT_BOTTOM_MID,
  78:lvgl/src/core/../misc/../font/../misc/lv_area.h ****     LV_ALIGN_OUT_BOTTOM_RIGHT,
  79:lvgl/src/core/../misc/../font/../misc/lv_area.h ****     LV_ALIGN_OUT_LEFT_TOP,
  80:lvgl/src/core/../misc/../font/../misc/lv_area.h ****     LV_ALIGN_OUT_LEFT_MID,
  81:lvgl/src/core/../misc/../font/../misc/lv_area.h ****     LV_ALIGN_OUT_LEFT_BOTTOM,
  82:lvgl/src/core/../misc/../font/../misc/lv_area.h ****     LV_ALIGN_OUT_RIGHT_TOP,
  83:lvgl/src/core/../misc/../font/../misc/lv_area.h ****     LV_ALIGN_OUT_RIGHT_MID,
  84:lvgl/src/core/../misc/../font/../misc/lv_area.h ****     LV_ALIGN_OUT_RIGHT_BOTTOM,
  85:lvgl/src/core/../misc/../font/../misc/lv_area.h **** };
  86:lvgl/src/core/../misc/../font/../misc/lv_area.h **** typedef uint8_t lv_align_t;
  87:lvgl/src/core/../misc/../font/../misc/lv_area.h **** 
  88:lvgl/src/core/../misc/../font/../misc/lv_area.h **** enum {
  89:lvgl/src/core/../misc/../font/../misc/lv_area.h ****     LV_DIR_NONE     = 0x00,
  90:lvgl/src/core/../misc/../font/../misc/lv_area.h ****     LV_DIR_LEFT     = (1 << 0),
  91:lvgl/src/core/../misc/../font/../misc/lv_area.h ****     LV_DIR_RIGHT    = (1 << 1),
  92:lvgl/src/core/../misc/../font/../misc/lv_area.h ****     LV_DIR_TOP      = (1 << 2),
  93:lvgl/src/core/../misc/../font/../misc/lv_area.h ****     LV_DIR_BOTTOM   = (1 << 3),
  94:lvgl/src/core/../misc/../font/../misc/lv_area.h ****     LV_DIR_HOR      = LV_DIR_LEFT | LV_DIR_RIGHT,
  95:lvgl/src/core/../misc/../font/../misc/lv_area.h ****     LV_DIR_VER      = LV_DIR_TOP | LV_DIR_BOTTOM,
  96:lvgl/src/core/../misc/../font/../misc/lv_area.h ****     LV_DIR_ALL      = LV_DIR_HOR | LV_DIR_VER,
  97:lvgl/src/core/../misc/../font/../misc/lv_area.h **** };
  98:lvgl/src/core/../misc/../font/../misc/lv_area.h **** 
  99:lvgl/src/core/../misc/../font/../misc/lv_area.h **** typedef uint8_t lv_dir_t;
 100:lvgl/src/core/../misc/../font/../misc/lv_area.h **** 
 101:lvgl/src/core/../misc/../font/../misc/lv_area.h **** /**********************
 102:lvgl/src/core/../misc/../font/../misc/lv_area.h ****  * GLOBAL PROTOTYPES
 103:lvgl/src/core/../misc/../font/../misc/lv_area.h ****  **********************/
 104:lvgl/src/core/../misc/../font/../misc/lv_area.h **** 
 105:lvgl/src/core/../misc/../font/../misc/lv_area.h **** /**
 106:lvgl/src/core/../misc/../font/../misc/lv_area.h ****  * Initialize an area
 107:lvgl/src/core/../misc/../font/../misc/lv_area.h ****  * @param area_p pointer to an area
 108:lvgl/src/core/../misc/../font/../misc/lv_area.h ****  * @param x1 left coordinate of the area
 109:lvgl/src/core/../misc/../font/../misc/lv_area.h ****  * @param y1 top coordinate of the area
 110:lvgl/src/core/../misc/../font/../misc/lv_area.h ****  * @param x2 right coordinate of the area
 111:lvgl/src/core/../misc/../font/../misc/lv_area.h ****  * @param y2 bottom coordinate of the area
 112:lvgl/src/core/../misc/../font/../misc/lv_area.h ****  */
 113:lvgl/src/core/../misc/../font/../misc/lv_area.h **** void lv_area_set(lv_area_t * area_p, lv_coord_t x1, lv_coord_t y1, lv_coord_t x2, lv_coord_t y2);
 114:lvgl/src/core/../misc/../font/../misc/lv_area.h **** 
 115:lvgl/src/core/../misc/../font/../misc/lv_area.h **** /**
 116:lvgl/src/core/../misc/../font/../misc/lv_area.h ****  * Copy an area
 117:lvgl/src/core/../misc/../font/../misc/lv_area.h ****  * @param dest pointer to the destination area
 118:lvgl/src/core/../misc/../font/../misc/lv_area.h ****  * @param src pointer to the source area
 119:lvgl/src/core/../misc/../font/../misc/lv_area.h ****  */
 120:lvgl/src/core/../misc/../font/../misc/lv_area.h **** inline static void lv_area_copy(lv_area_t * dest, const lv_area_t * src)
 743              		.loc 3 120 20 view .LVU231
 744              	.LBB133:
 121:lvgl/src/core/../misc/../font/../misc/lv_area.h **** {
 122:lvgl/src/core/../misc/../font/../misc/lv_area.h ****     dest->x1 = src->x1;
 745              		.loc 3 122 5 view .LVU232
 746              		.loc 3 122 19 is_stmt 0 view .LVU233
 747 006c B4F91410 		ldrsh	r1, [r4, #20]
 748              		.loc 3 122 14 view .LVU234
 749 0070 ADF80C10 		strh	r1, [sp, #12]	@ movhi
 123:lvgl/src/core/../misc/../font/../misc/lv_area.h ****     dest->y1 = src->y1;
 750              		.loc 3 123 5 is_stmt 1 view .LVU235
 751              		.loc 3 123 19 is_stmt 0 view .LVU236
 752 0074 B4F91620 		ldrsh	r2, [r4, #22]
ARM GAS  C:\Users\BLACK_~1\AppData\Local\Temp\ccVQcfpA.s 			page 42


 753              		.loc 3 123 14 view .LVU237
 754 0078 ADF80E20 		strh	r2, [sp, #14]	@ movhi
 124:lvgl/src/core/../misc/../font/../misc/lv_area.h ****     dest->x2 = src->x2;
 755              		.loc 3 124 5 is_stmt 1 view .LVU238
 756              		.loc 3 124 19 is_stmt 0 view .LVU239
 757 007c B4F918E0 		ldrsh	lr, [r4, #24]
 758              		.loc 3 124 14 view .LVU240
 759 0080 ADF810E0 		strh	lr, [sp, #16]	@ movhi
 125:lvgl/src/core/../misc/../font/../misc/lv_area.h ****     dest->y2 = src->y2;
 760              		.loc 3 125 5 is_stmt 1 view .LVU241
 761              		.loc 3 125 19 is_stmt 0 view .LVU242
 762 0084 B4F91AC0 		ldrsh	ip, [r4, #26]
 763              		.loc 3 125 14 view .LVU243
 764 0088 ADF812C0 		strh	ip, [sp, #18]	@ movhi
 765              	.LVL74:
 766              		.loc 3 125 14 view .LVU244
 767              	.LBE133:
 768              	.LBE132:
 447:lvgl/src/core/lv_obj.c ****         coords.x2 += w;
 769              		.loc 1 447 9 is_stmt 1 view .LVU245
 447:lvgl/src/core/lv_obj.c ****         coords.x2 += w;
 770              		.loc 1 447 19 is_stmt 0 view .LVU246
 771 008c B3B2     		uxth	r3, r6
 772 008e C91A     		subs	r1, r1, r3
 773 0090 ADF80C10 		strh	r1, [sp, #12]	@ movhi
 448:lvgl/src/core/lv_obj.c ****         coords.y1 -= h;
 774              		.loc 1 448 9 is_stmt 1 view .LVU247
 448:lvgl/src/core/lv_obj.c ****         coords.y1 -= h;
 775              		.loc 1 448 19 is_stmt 0 view .LVU248
 776 0094 7344     		add	r3, r3, lr
 777 0096 ADF81030 		strh	r3, [sp, #16]	@ movhi
 449:lvgl/src/core/lv_obj.c ****         coords.y2 += h;
 778              		.loc 1 449 9 is_stmt 1 view .LVU249
 449:lvgl/src/core/lv_obj.c ****         coords.y2 += h;
 779              		.loc 1 449 19 is_stmt 0 view .LVU250
 780 009a 80B2     		uxth	r0, r0
 449:lvgl/src/core/lv_obj.c ****         coords.y2 += h;
 781              		.loc 1 449 19 view .LVU251
 782 009c 121A     		subs	r2, r2, r0
 783 009e ADF80E20 		strh	r2, [sp, #14]	@ movhi
 450:lvgl/src/core/lv_obj.c **** 
 784              		.loc 1 450 9 is_stmt 1 view .LVU252
 450:lvgl/src/core/lv_obj.c **** 
 785              		.loc 1 450 19 is_stmt 0 view .LVU253
 786 00a2 6044     		add	r0, r0, ip
 787              	.LVL75:
 450:lvgl/src/core/lv_obj.c **** 
 788              		.loc 1 450 19 view .LVU254
 789 00a4 ADF81200 		strh	r0, [sp, #18]	@ movhi
 452:lvgl/src/core/lv_obj.c ****             info->res = LV_COVER_RES_NOT_COVER;
 790              		.loc 1 452 9 is_stmt 1 view .LVU255
 452:lvgl/src/core/lv_obj.c ****             info->res = LV_COVER_RES_NOT_COVER;
 791              		.loc 1 452 12 is_stmt 0 view .LVU256
 792 00a8 3A46     		mov	r2, r7
 793 00aa 03A9     		add	r1, sp, #12
 794 00ac 6868     		ldr	r0, [r5, #4]
 795 00ae FFF7FEFF 		bl	_lv_area_is_in
ARM GAS  C:\Users\BLACK_~1\AppData\Local\Temp\ccVQcfpA.s 			page 43


 796              	.LVL76:
 452:lvgl/src/core/lv_obj.c ****             info->res = LV_COVER_RES_NOT_COVER;
 797              		.loc 1 452 11 view .LVU257
 798 00b2 10B9     		cbnz	r0, .L39
 453:lvgl/src/core/lv_obj.c ****            return;
 799              		.loc 1 453 13 is_stmt 1 view .LVU258
 453:lvgl/src/core/lv_obj.c ****            return;
 800              		.loc 1 453 23 is_stmt 0 view .LVU259
 801 00b4 0123     		movs	r3, #1
 802 00b6 2B70     		strb	r3, [r5]
 454:lvgl/src/core/lv_obj.c ****         }
 803              		.loc 1 454 12 is_stmt 1 view .LVU260
 804 00b8 B3E7     		b	.L35
 805              	.L39:
 457:lvgl/src/core/lv_obj.c ****             info->res = LV_COVER_RES_NOT_COVER;
 806              		.loc 1 457 9 view .LVU261
 807              	.LVL77:
 808              	.LBB134:
 809              	.LBI134:
 205:lvgl/src/core/lv_obj_style_gen.h **** {
 810              		.loc 2 205 24 view .LVU262
 811              	.LBB135:
 207:lvgl/src/core/lv_obj_style_gen.h ****     return (lv_opa_t)v.num;
 812              		.loc 2 207 5 view .LVU263
 207:lvgl/src/core/lv_obj_style_gen.h ****     return (lv_opa_t)v.num;
 813              		.loc 2 207 26 is_stmt 0 view .LVU264
 814 00ba 2122     		movs	r2, #33
 815 00bc 0021     		movs	r1, #0
 816 00be 2046     		mov	r0, r4
 817 00c0 FFF7FEFF 		bl	lv_obj_get_style_prop
 818              	.LVL78:
 208:lvgl/src/core/lv_obj_style_gen.h **** }
 819              		.loc 2 208 5 is_stmt 1 view .LVU265
 208:lvgl/src/core/lv_obj_style_gen.h **** }
 820              		.loc 2 208 12 is_stmt 0 view .LVU266
 821 00c4 C0B2     		uxtb	r0, r0
 822              	.LVL79:
 208:lvgl/src/core/lv_obj_style_gen.h **** }
 823              		.loc 2 208 12 view .LVU267
 824              	.LBE135:
 825              	.LBE134:
 457:lvgl/src/core/lv_obj.c ****             info->res = LV_COVER_RES_NOT_COVER;
 826              		.loc 1 457 11 view .LVU268
 827 00c6 FC28     		cmp	r0, #252
 828 00c8 02D8     		bhi	.L40
 458:lvgl/src/core/lv_obj.c ****             return;
 829              		.loc 1 458 13 is_stmt 1 view .LVU269
 458:lvgl/src/core/lv_obj.c ****             return;
 830              		.loc 1 458 23 is_stmt 0 view .LVU270
 831 00ca 0123     		movs	r3, #1
 832 00cc 2B70     		strb	r3, [r5]
 459:lvgl/src/core/lv_obj.c ****         }
 833              		.loc 1 459 13 is_stmt 1 view .LVU271
 834 00ce A8E7     		b	.L35
 835              	.L40:
 463:lvgl/src/core/lv_obj.c ****             info->res = LV_COVER_RES_NOT_COVER;
 836              		.loc 1 463 9 view .LVU272
ARM GAS  C:\Users\BLACK_~1\AppData\Local\Temp\ccVQcfpA.s 			page 44


 837              	.LVL80:
 838              	.LBB136:
 839              	.LBI136:
 175:lvgl/src/core/lv_obj_style_gen.h **** {
 840              		.loc 2 175 31 view .LVU273
 841              	.LBB137:
 177:lvgl/src/core/lv_obj_style_gen.h ****     return (lv_blend_mode_t)v.num;
 842              		.loc 2 177 5 view .LVU274
 177:lvgl/src/core/lv_obj_style_gen.h ****     return (lv_blend_mode_t)v.num;
 843              		.loc 2 177 26 is_stmt 0 view .LVU275
 844 00d0 6822     		movs	r2, #104
 845 00d2 0021     		movs	r1, #0
 846 00d4 2046     		mov	r0, r4
 847 00d6 FFF7FEFF 		bl	lv_obj_get_style_prop
 848              	.LVL81:
 178:lvgl/src/core/lv_obj_style_gen.h **** }
 849              		.loc 2 178 5 is_stmt 1 view .LVU276
 178:lvgl/src/core/lv_obj_style_gen.h **** }
 850              		.loc 2 178 5 is_stmt 0 view .LVU277
 851              	.LBE137:
 852              	.LBE136:
 463:lvgl/src/core/lv_obj.c ****             info->res = LV_COVER_RES_NOT_COVER;
 853              		.loc 1 463 11 view .LVU278
 854 00da 10F0FF0F 		tst	r0, #255
 855 00de 02D0     		beq	.L41
 464:lvgl/src/core/lv_obj.c ****             return;
 856              		.loc 1 464 13 is_stmt 1 view .LVU279
 464:lvgl/src/core/lv_obj.c ****             return;
 857              		.loc 1 464 23 is_stmt 0 view .LVU280
 858 00e0 0123     		movs	r3, #1
 859 00e2 2B70     		strb	r3, [r5]
 465:lvgl/src/core/lv_obj.c ****         }
 860              		.loc 1 465 13 is_stmt 1 view .LVU281
 861 00e4 9DE7     		b	.L35
 862              	.L41:
 468:lvgl/src/core/lv_obj.c ****             info->res = LV_COVER_RES_NOT_COVER;
 863              		.loc 1 468 9 view .LVU282
 864              	.LVL82:
 865              	.LBB138:
 866              	.LBI138:
 139:lvgl/src/core/lv_obj_style_gen.h **** {
 867              		.loc 2 139 24 view .LVU283
 868              	.LBB139:
 141:lvgl/src/core/lv_obj_style_gen.h ****     return (lv_opa_t)v.num;
 869              		.loc 2 141 5 view .LVU284
 141:lvgl/src/core/lv_obj_style_gen.h ****     return (lv_opa_t)v.num;
 870              		.loc 2 141 26 is_stmt 0 view .LVU285
 871 00e6 40F26242 		movw	r2, #1122
 872 00ea 0021     		movs	r1, #0
 873 00ec 2046     		mov	r0, r4
 874 00ee FFF7FEFF 		bl	lv_obj_get_style_prop
 875              	.LVL83:
 142:lvgl/src/core/lv_obj_style_gen.h **** }
 876              		.loc 2 142 5 is_stmt 1 view .LVU286
 142:lvgl/src/core/lv_obj_style_gen.h **** }
 877              		.loc 2 142 12 is_stmt 0 view .LVU287
 878 00f2 C3B2     		uxtb	r3, r0
ARM GAS  C:\Users\BLACK_~1\AppData\Local\Temp\ccVQcfpA.s 			page 45


 879              	.LVL84:
 142:lvgl/src/core/lv_obj_style_gen.h **** }
 880              		.loc 2 142 12 view .LVU288
 881              	.LBE139:
 882              	.LBE138:
 468:lvgl/src/core/lv_obj.c ****             info->res = LV_COVER_RES_NOT_COVER;
 883              		.loc 1 468 11 view .LVU289
 884 00f4 FC2B     		cmp	r3, #252
 885 00f6 02D9     		bls	.L52
 473:lvgl/src/core/lv_obj.c **** 
 886              		.loc 1 473 9 is_stmt 1 view .LVU290
 473:lvgl/src/core/lv_obj.c **** 
 887              		.loc 1 473 19 is_stmt 0 view .LVU291
 888 00f8 0023     		movs	r3, #0
 889 00fa 2B70     		strb	r3, [r5]
 890              	.LBE123:
 891 00fc 91E7     		b	.L35
 892              	.L52:
 893              	.LBB140:
 469:lvgl/src/core/lv_obj.c ****             return;
 894              		.loc 1 469 13 is_stmt 1 view .LVU292
 469:lvgl/src/core/lv_obj.c ****             return;
 895              		.loc 1 469 23 is_stmt 0 view .LVU293
 896 00fe 0123     		movs	r3, #1
 897 0100 2B70     		strb	r3, [r5]
 470:lvgl/src/core/lv_obj.c ****         }
 898              		.loc 1 470 13 is_stmt 1 view .LVU294
 899 0102 8EE7     		b	.L35
 900              	.LVL85:
 901              	.L50:
 470:lvgl/src/core/lv_obj.c ****         }
 902              		.loc 1 470 13 is_stmt 0 view .LVU295
 903              	.LBE140:
 904              	.LBB141:
 477:lvgl/src/core/lv_obj.c ****         lv_draw_rect_dsc_t draw_dsc;
 905              		.loc 1 477 9 is_stmt 1 view .LVU296
 477:lvgl/src/core/lv_obj.c ****         lv_draw_rect_dsc_t draw_dsc;
 906              		.loc 1 477 39 is_stmt 0 view .LVU297
 907 0104 3046     		mov	r0, r6
 908              	.LVL86:
 477:lvgl/src/core/lv_obj.c ****         lv_draw_rect_dsc_t draw_dsc;
 909              		.loc 1 477 39 view .LVU298
 910 0106 FFF7FEFF 		bl	lv_event_get_param
 911              	.LVL87:
 912 010a 0646     		mov	r6, r0
 913              	.LVL88:
 478:lvgl/src/core/lv_obj.c ****         lv_draw_rect_dsc_init(&draw_dsc);
 914              		.loc 1 478 9 is_stmt 1 view .LVU299
 479:lvgl/src/core/lv_obj.c ****         /*If the border is drawn later disable loading its properties*/
 915              		.loc 1 479 9 view .LVU300
 916 010c 03A8     		add	r0, sp, #12
 917              	.LVL89:
 479:lvgl/src/core/lv_obj.c ****         /*If the border is drawn later disable loading its properties*/
 918              		.loc 1 479 9 is_stmt 0 view .LVU301
 919 010e FFF7FEFF 		bl	lv_draw_rect_dsc_init
 920              	.LVL90:
 481:lvgl/src/core/lv_obj.c ****             draw_dsc.border_post = 1;
ARM GAS  C:\Users\BLACK_~1\AppData\Local\Temp\ccVQcfpA.s 			page 46


 921              		.loc 1 481 9 is_stmt 1 view .LVU302
 922              	.LBB142:
 923              	.LBI142:
 307:lvgl/src/core/lv_obj_style_gen.h **** {
 924              		.loc 2 307 20 view .LVU303
 925              	.LBB143:
 309:lvgl/src/core/lv_obj_style_gen.h ****     return (bool)v.num;
 926              		.loc 2 309 5 view .LVU304
 309:lvgl/src/core/lv_obj_style_gen.h ****     return (bool)v.num;
 927              		.loc 2 309 26 is_stmt 0 view .LVU305
 928 0112 3422     		movs	r2, #52
 929 0114 0021     		movs	r1, #0
 930 0116 2046     		mov	r0, r4
 931 0118 FFF7FEFF 		bl	lv_obj_get_style_prop
 932              	.LVL91:
 310:lvgl/src/core/lv_obj_style_gen.h **** }
 933              		.loc 2 310 5 is_stmt 1 view .LVU306
 310:lvgl/src/core/lv_obj_style_gen.h **** }
 934              		.loc 2 310 5 is_stmt 0 view .LVU307
 935              	.LBE143:
 936              	.LBE142:
 481:lvgl/src/core/lv_obj.c ****             draw_dsc.border_post = 1;
 937              		.loc 1 481 11 view .LVU308
 938 011c 28B1     		cbz	r0, .L45
 482:lvgl/src/core/lv_obj.c ****         }
 939              		.loc 1 482 13 is_stmt 1 view .LVU309
 482:lvgl/src/core/lv_obj.c ****         }
 940              		.loc 1 482 34 is_stmt 0 view .LVU310
 941 011e 9DF82B30 		ldrb	r3, [sp, #43]	@ zero_extendqisi2
 942 0122 43F00103 		orr	r3, r3, #1
 943 0126 8DF82B30 		strb	r3, [sp, #43]
 944              	.L45:
 485:lvgl/src/core/lv_obj.c **** 
 945              		.loc 1 485 9 is_stmt 1 view .LVU311
 946 012a 03AA     		add	r2, sp, #12
 947 012c 0021     		movs	r1, #0
 948 012e 2046     		mov	r0, r4
 949 0130 FFF7FEFF 		bl	lv_obj_init_draw_rect_dsc
 950              	.LVL92:
 487:lvgl/src/core/lv_obj.c ****         lv_coord_t h = lv_obj_get_style_transform_height(obj, LV_PART_MAIN);
 951              		.loc 1 487 9 view .LVU312
 952              	.LBB144:
 953              	.LBI144:
  55:lvgl/src/core/lv_obj_style_gen.h **** {
 954              		.loc 2 55 26 view .LVU313
 955              	.LBB145:
  57:lvgl/src/core/lv_obj_style_gen.h ****     return (lv_coord_t)v.num;
 956              		.loc 2 57 5 view .LVU314
  57:lvgl/src/core/lv_obj_style_gen.h ****     return (lv_coord_t)v.num;
 957              		.loc 2 57 26 is_stmt 0 view .LVU315
 958 0134 40F60A02 		movw	r2, #2058
 959 0138 0021     		movs	r1, #0
 960 013a 2046     		mov	r0, r4
 961 013c FFF7FEFF 		bl	lv_obj_get_style_prop
 962              	.LVL93:
 963 0140 0546     		mov	r5, r0
 964              	.LVL94:
ARM GAS  C:\Users\BLACK_~1\AppData\Local\Temp\ccVQcfpA.s 			page 47


  58:lvgl/src/core/lv_obj_style_gen.h **** }
 965              		.loc 2 58 5 is_stmt 1 view .LVU316
  58:lvgl/src/core/lv_obj_style_gen.h **** }
 966              		.loc 2 58 5 is_stmt 0 view .LVU317
 967              	.LBE145:
 968              	.LBE144:
 488:lvgl/src/core/lv_obj.c ****         lv_area_t coords;
 969              		.loc 1 488 9 is_stmt 1 view .LVU318
 970              	.LBB146:
 971              	.LBI146:
  61:lvgl/src/core/lv_obj_style_gen.h **** {
 972              		.loc 2 61 26 view .LVU319
 973              	.LBB147:
  63:lvgl/src/core/lv_obj_style_gen.h ****     return (lv_coord_t)v.num;
 974              		.loc 2 63 5 view .LVU320
  63:lvgl/src/core/lv_obj_style_gen.h ****     return (lv_coord_t)v.num;
 975              		.loc 2 63 26 is_stmt 0 view .LVU321
 976 0142 40F60B02 		movw	r2, #2059
 977 0146 0021     		movs	r1, #0
 978 0148 2046     		mov	r0, r4
 979 014a FFF7FEFF 		bl	lv_obj_get_style_prop
 980              	.LVL95:
  64:lvgl/src/core/lv_obj_style_gen.h **** }
 981              		.loc 2 64 5 is_stmt 1 view .LVU322
  64:lvgl/src/core/lv_obj_style_gen.h **** }
 982              		.loc 2 64 5 is_stmt 0 view .LVU323
 983              	.LBE147:
 984              	.LBE146:
 489:lvgl/src/core/lv_obj.c ****         lv_area_copy(&coords, &obj->coords);
 985              		.loc 1 489 9 is_stmt 1 view .LVU324
 490:lvgl/src/core/lv_obj.c ****         coords.x1 -= w;
 986              		.loc 1 490 9 view .LVU325
 987              	.LBB148:
 988              	.LBI148:
 120:lvgl/src/core/../misc/../font/../misc/lv_area.h **** {
 989              		.loc 3 120 20 view .LVU326
 990              	.LBB149:
 122:lvgl/src/core/../misc/../font/../misc/lv_area.h ****     dest->y1 = src->y1;
 991              		.loc 3 122 5 view .LVU327
 122:lvgl/src/core/../misc/../font/../misc/lv_area.h ****     dest->y1 = src->y1;
 992              		.loc 3 122 19 is_stmt 0 view .LVU328
 993 014e B4F91410 		ldrsh	r1, [r4, #20]
 122:lvgl/src/core/../misc/../font/../misc/lv_area.h ****     dest->y1 = src->y1;
 994              		.loc 3 122 14 view .LVU329
 995 0152 ADF80410 		strh	r1, [sp, #4]	@ movhi
 123:lvgl/src/core/../misc/../font/../misc/lv_area.h ****     dest->x2 = src->x2;
 996              		.loc 3 123 5 is_stmt 1 view .LVU330
 123:lvgl/src/core/../misc/../font/../misc/lv_area.h ****     dest->x2 = src->x2;
 997              		.loc 3 123 19 is_stmt 0 view .LVU331
 998 0156 B4F91620 		ldrsh	r2, [r4, #22]
 123:lvgl/src/core/../misc/../font/../misc/lv_area.h ****     dest->x2 = src->x2;
 999              		.loc 3 123 14 view .LVU332
 1000 015a ADF80620 		strh	r2, [sp, #6]	@ movhi
 124:lvgl/src/core/../misc/../font/../misc/lv_area.h ****     dest->y2 = src->y2;
 1001              		.loc 3 124 5 is_stmt 1 view .LVU333
 124:lvgl/src/core/../misc/../font/../misc/lv_area.h ****     dest->y2 = src->y2;
 1002              		.loc 3 124 19 is_stmt 0 view .LVU334
ARM GAS  C:\Users\BLACK_~1\AppData\Local\Temp\ccVQcfpA.s 			page 48


 1003 015e B4F918E0 		ldrsh	lr, [r4, #24]
 124:lvgl/src/core/../misc/../font/../misc/lv_area.h ****     dest->y2 = src->y2;
 1004              		.loc 3 124 14 view .LVU335
 1005 0162 ADF808E0 		strh	lr, [sp, #8]	@ movhi
 1006              		.loc 3 125 5 is_stmt 1 view .LVU336
 1007              		.loc 3 125 19 is_stmt 0 view .LVU337
 1008 0166 B4F91AC0 		ldrsh	ip, [r4, #26]
 1009              		.loc 3 125 14 view .LVU338
 1010 016a ADF80AC0 		strh	ip, [sp, #10]	@ movhi
 1011              	.LVL96:
 1012              		.loc 3 125 14 view .LVU339
 1013              	.LBE149:
 1014              	.LBE148:
 491:lvgl/src/core/lv_obj.c ****         coords.x2 += w;
 1015              		.loc 1 491 9 is_stmt 1 view .LVU340
 491:lvgl/src/core/lv_obj.c ****         coords.x2 += w;
 1016              		.loc 1 491 19 is_stmt 0 view .LVU341
 1017 016e ABB2     		uxth	r3, r5
 1018 0170 C91A     		subs	r1, r1, r3
 1019 0172 ADF80410 		strh	r1, [sp, #4]	@ movhi
 492:lvgl/src/core/lv_obj.c ****         coords.y1 -= h;
 1020              		.loc 1 492 9 is_stmt 1 view .LVU342
 492:lvgl/src/core/lv_obj.c ****         coords.y1 -= h;
 1021              		.loc 1 492 19 is_stmt 0 view .LVU343
 1022 0176 7344     		add	r3, r3, lr
 1023 0178 ADF80830 		strh	r3, [sp, #8]	@ movhi
 493:lvgl/src/core/lv_obj.c ****         coords.y2 += h;
 1024              		.loc 1 493 9 is_stmt 1 view .LVU344
 493:lvgl/src/core/lv_obj.c ****         coords.y2 += h;
 1025              		.loc 1 493 19 is_stmt 0 view .LVU345
 1026 017c 83B2     		uxth	r3, r0
 1027 017e D21A     		subs	r2, r2, r3
 1028 0180 ADF80620 		strh	r2, [sp, #6]	@ movhi
 494:lvgl/src/core/lv_obj.c **** 
 1029              		.loc 1 494 9 is_stmt 1 view .LVU346
 494:lvgl/src/core/lv_obj.c **** 
 1030              		.loc 1 494 19 is_stmt 0 view .LVU347
 1031 0184 6344     		add	r3, r3, ip
 1032 0186 ADF80A30 		strh	r3, [sp, #10]	@ movhi
 496:lvgl/src/core/lv_obj.c **** 
 1033              		.loc 1 496 9 is_stmt 1 view .LVU348
 1034 018a 03AA     		add	r2, sp, #12
 1035 018c 3146     		mov	r1, r6
 1036 018e 01A8     		add	r0, sp, #4
 1037              	.LVL97:
 496:lvgl/src/core/lv_obj.c **** 
 1038              		.loc 1 496 9 is_stmt 0 view .LVU349
 1039 0190 FFF7FEFF 		bl	lv_draw_rect
 1040              	.LVL98:
 499:lvgl/src/core/lv_obj.c ****             lv_draw_mask_radius_param_t * mp = lv_mem_buf_get(sizeof(lv_draw_mask_radius_param_t));
 1041              		.loc 1 499 9 is_stmt 1 view .LVU350
 1042              	.LBB150:
 1043              	.LBI150:
 133:lvgl/src/core/lv_obj_style_gen.h **** {
 1044              		.loc 2 133 20 view .LVU351
 1045              	.LBB151:
 135:lvgl/src/core/lv_obj_style_gen.h ****     return (bool)v.num;
ARM GAS  C:\Users\BLACK_~1\AppData\Local\Temp\ccVQcfpA.s 			page 49


 1046              		.loc 2 135 5 view .LVU352
 135:lvgl/src/core/lv_obj_style_gen.h ****     return (bool)v.num;
 1047              		.loc 2 135 26 is_stmt 0 view .LVU353
 1048 0194 6122     		movs	r2, #97
 1049 0196 0021     		movs	r1, #0
 1050 0198 2046     		mov	r0, r4
 1051 019a FFF7FEFF 		bl	lv_obj_get_style_prop
 1052              	.LVL99:
 136:lvgl/src/core/lv_obj_style_gen.h **** }
 1053              		.loc 2 136 5 is_stmt 1 view .LVU354
 136:lvgl/src/core/lv_obj_style_gen.h **** }
 1054              		.loc 2 136 5 is_stmt 0 view .LVU355
 1055              	.LBE151:
 1056              	.LBE150:
 499:lvgl/src/core/lv_obj.c ****             lv_draw_mask_radius_param_t * mp = lv_mem_buf_get(sizeof(lv_draw_mask_radius_param_t));
 1057              		.loc 1 499 11 view .LVU356
 1058 019e 0028     		cmp	r0, #0
 1059 01a0 3FF43FAF 		beq	.L35
 1060              	.LBB152:
 500:lvgl/src/core/lv_obj.c ****             lv_coord_t r = lv_obj_get_style_radius(obj, LV_PART_MAIN);
 1061              		.loc 1 500 13 is_stmt 1 view .LVU357
 500:lvgl/src/core/lv_obj.c ****             lv_coord_t r = lv_obj_get_style_radius(obj, LV_PART_MAIN);
 1062              		.loc 1 500 48 is_stmt 0 view .LVU358
 1063 01a4 1C20     		movs	r0, #28
 1064 01a6 FFF7FEFF 		bl	lv_mem_buf_get
 1065              	.LVL100:
 1066 01aa 0546     		mov	r5, r0
 1067              	.LVL101:
 501:lvgl/src/core/lv_obj.c ****             lv_draw_mask_radius_init(mp, &obj->coords, r, false);
 1068              		.loc 1 501 13 is_stmt 1 view .LVU359
 1069              	.LBB153:
 1070              	.LBI153:
 127:lvgl/src/core/lv_obj_style_gen.h **** {
 1071              		.loc 2 127 26 view .LVU360
 1072              	.LBB154:
 129:lvgl/src/core/lv_obj_style_gen.h ****     return (lv_coord_t)v.num;
 1073              		.loc 2 129 5 view .LVU361
 129:lvgl/src/core/lv_obj_style_gen.h ****     return (lv_coord_t)v.num;
 1074              		.loc 2 129 26 is_stmt 0 view .LVU362
 1075 01ac 6022     		movs	r2, #96
 1076 01ae 0021     		movs	r1, #0
 1077 01b0 2046     		mov	r0, r4
 1078              	.LVL102:
 129:lvgl/src/core/lv_obj_style_gen.h ****     return (lv_coord_t)v.num;
 1079              		.loc 2 129 26 view .LVU363
 1080 01b2 FFF7FEFF 		bl	lv_obj_get_style_prop
 1081              	.LVL103:
 130:lvgl/src/core/lv_obj_style_gen.h **** }
 1082              		.loc 2 130 5 is_stmt 1 view .LVU364
 130:lvgl/src/core/lv_obj_style_gen.h **** }
 1083              		.loc 2 130 5 is_stmt 0 view .LVU365
 1084              	.LBE154:
 1085              	.LBE153:
 502:lvgl/src/core/lv_obj.c ****             /*Add the mask and use `obj+8` as custom id. Don't use `obj` directly because it might 
 1086              		.loc 1 502 13 is_stmt 1 view .LVU366
 1087 01b6 0023     		movs	r3, #0
 1088 01b8 02B2     		sxth	r2, r0
ARM GAS  C:\Users\BLACK_~1\AppData\Local\Temp\ccVQcfpA.s 			page 50


 1089 01ba 04F11401 		add	r1, r4, #20
 1090 01be 2846     		mov	r0, r5
 1091              	.LVL104:
 502:lvgl/src/core/lv_obj.c ****             /*Add the mask and use `obj+8` as custom id. Don't use `obj` directly because it might 
 1092              		.loc 1 502 13 is_stmt 0 view .LVU367
 1093 01c0 FFF7FEFF 		bl	lv_draw_mask_radius_init
 1094              	.LVL105:
 504:lvgl/src/core/lv_obj.c ****         }
 1095              		.loc 1 504 13 is_stmt 1 view .LVU368
 1096 01c4 04F59071 		add	r1, r4, #288
 1097 01c8 2846     		mov	r0, r5
 1098 01ca FFF7FEFF 		bl	lv_draw_mask_add
 1099              	.LVL106:
 1100 01ce 28E7     		b	.L35
 1101              	.LVL107:
 1102              	.L51:
 504:lvgl/src/core/lv_obj.c ****         }
 1103              		.loc 1 504 13 is_stmt 0 view .LVU369
 1104              	.LBE152:
 1105              	.LBE141:
 1106              	.LBB155:
 509:lvgl/src/core/lv_obj.c ****         draw_scrollbar(obj, clip_area);
 1107              		.loc 1 509 9 is_stmt 1 view .LVU370
 509:lvgl/src/core/lv_obj.c ****         draw_scrollbar(obj, clip_area);
 1108              		.loc 1 509 39 is_stmt 0 view .LVU371
 1109 01d0 3046     		mov	r0, r6
 1110              	.LVL108:
 509:lvgl/src/core/lv_obj.c ****         draw_scrollbar(obj, clip_area);
 1111              		.loc 1 509 39 view .LVU372
 1112 01d2 FFF7FEFF 		bl	lv_event_get_param
 1113              	.LVL109:
 1114 01d6 0546     		mov	r5, r0
 1115              	.LVL110:
 510:lvgl/src/core/lv_obj.c **** 
 1116              		.loc 1 510 9 is_stmt 1 view .LVU373
 1117 01d8 0146     		mov	r1, r0
 1118 01da 2046     		mov	r0, r4
 1119              	.LVL111:
 510:lvgl/src/core/lv_obj.c **** 
 1120              		.loc 1 510 9 is_stmt 0 view .LVU374
 1121 01dc FFF7FEFF 		bl	draw_scrollbar
 1122              	.LVL112:
 513:lvgl/src/core/lv_obj.c ****             lv_draw_mask_radius_param_t * param = lv_draw_mask_remove_custom(obj + 8);
 1123              		.loc 1 513 9 is_stmt 1 view .LVU375
 1124              	.LBB156:
 1125              	.LBI156:
 133:lvgl/src/core/lv_obj_style_gen.h **** {
 1126              		.loc 2 133 20 view .LVU376
 1127              	.LBB157:
 135:lvgl/src/core/lv_obj_style_gen.h ****     return (bool)v.num;
 1128              		.loc 2 135 5 view .LVU377
 135:lvgl/src/core/lv_obj_style_gen.h ****     return (bool)v.num;
 1129              		.loc 2 135 26 is_stmt 0 view .LVU378
 1130 01e0 6122     		movs	r2, #97
 1131 01e2 0021     		movs	r1, #0
 1132 01e4 2046     		mov	r0, r4
 1133 01e6 FFF7FEFF 		bl	lv_obj_get_style_prop
ARM GAS  C:\Users\BLACK_~1\AppData\Local\Temp\ccVQcfpA.s 			page 51


 1134              	.LVL113:
 136:lvgl/src/core/lv_obj_style_gen.h **** }
 1135              		.loc 2 136 5 is_stmt 1 view .LVU379
 136:lvgl/src/core/lv_obj_style_gen.h **** }
 1136              		.loc 2 136 5 is_stmt 0 view .LVU380
 1137              	.LBE157:
 1138              	.LBE156:
 513:lvgl/src/core/lv_obj.c ****             lv_draw_mask_radius_param_t * param = lv_draw_mask_remove_custom(obj + 8);
 1139              		.loc 1 513 11 view .LVU381
 1140 01ea 0028     		cmp	r0, #0
 1141 01ec 47D1     		bne	.L53
 1142              	.L47:
 520:lvgl/src/core/lv_obj.c ****             lv_draw_rect_dsc_t draw_dsc;
 1143              		.loc 1 520 9 is_stmt 1 view .LVU382
 1144              	.LVL114:
 1145              	.LBB158:
 1146              	.LBI158:
 307:lvgl/src/core/lv_obj_style_gen.h **** {
 1147              		.loc 2 307 20 view .LVU383
 1148              	.LBB159:
 309:lvgl/src/core/lv_obj_style_gen.h ****     return (bool)v.num;
 1149              		.loc 2 309 5 view .LVU384
 309:lvgl/src/core/lv_obj_style_gen.h ****     return (bool)v.num;
 1150              		.loc 2 309 26 is_stmt 0 view .LVU385
 1151 01ee 3422     		movs	r2, #52
 1152 01f0 0021     		movs	r1, #0
 1153 01f2 2046     		mov	r0, r4
 1154 01f4 FFF7FEFF 		bl	lv_obj_get_style_prop
 1155              	.LVL115:
 310:lvgl/src/core/lv_obj_style_gen.h **** }
 1156              		.loc 2 310 5 is_stmt 1 view .LVU386
 310:lvgl/src/core/lv_obj_style_gen.h **** }
 1157              		.loc 2 310 5 is_stmt 0 view .LVU387
 1158              	.LBE159:
 1159              	.LBE158:
 520:lvgl/src/core/lv_obj.c ****             lv_draw_rect_dsc_t draw_dsc;
 1160              		.loc 1 520 11 view .LVU388
 1161 01f8 0028     		cmp	r0, #0
 1162 01fa 3FF412AF 		beq	.L35
 1163              	.LBB160:
 521:lvgl/src/core/lv_obj.c ****             lv_draw_rect_dsc_init(&draw_dsc);
 1164              		.loc 1 521 13 is_stmt 1 discriminator 3 view .LVU389
 522:lvgl/src/core/lv_obj.c ****             draw_dsc.bg_opa = LV_OPA_TRANSP;
 1165              		.loc 1 522 13 discriminator 3 view .LVU390
 1166 01fe 03A8     		add	r0, sp, #12
 1167 0200 FFF7FEFF 		bl	lv_draw_rect_dsc_init
 1168              	.LVL116:
 523:lvgl/src/core/lv_obj.c ****             draw_dsc.outline_opa = LV_OPA_TRANSP;
 1169              		.loc 1 523 13 discriminator 3 view .LVU391
 523:lvgl/src/core/lv_obj.c ****             draw_dsc.outline_opa = LV_OPA_TRANSP;
 1170              		.loc 1 523 29 is_stmt 0 discriminator 3 view .LVU392
 1171 0204 0027     		movs	r7, #0
 1172 0206 8DF81670 		strb	r7, [sp, #22]
 524:lvgl/src/core/lv_obj.c ****             draw_dsc.shadow_opa = LV_OPA_TRANSP;
 1173              		.loc 1 524 13 is_stmt 1 discriminator 3 view .LVU393
 524:lvgl/src/core/lv_obj.c ****             draw_dsc.shadow_opa = LV_OPA_TRANSP;
 1174              		.loc 1 524 34 is_stmt 0 discriminator 3 view .LVU394
ARM GAS  C:\Users\BLACK_~1\AppData\Local\Temp\ccVQcfpA.s 			page 52


 1175 020a 8DF83270 		strb	r7, [sp, #50]
 525:lvgl/src/core/lv_obj.c ****             lv_obj_init_draw_rect_dsc(obj, LV_PART_MAIN, &draw_dsc);
 1176              		.loc 1 525 13 is_stmt 1 discriminator 3 view .LVU395
 525:lvgl/src/core/lv_obj.c ****             lv_obj_init_draw_rect_dsc(obj, LV_PART_MAIN, &draw_dsc);
 1177              		.loc 1 525 33 is_stmt 0 discriminator 3 view .LVU396
 1178 020e 8DF83E70 		strb	r7, [sp, #62]
 526:lvgl/src/core/lv_obj.c **** 
 1179              		.loc 1 526 13 is_stmt 1 discriminator 3 view .LVU397
 1180 0212 03AA     		add	r2, sp, #12
 1181 0214 3946     		mov	r1, r7
 1182 0216 2046     		mov	r0, r4
 1183 0218 FFF7FEFF 		bl	lv_obj_init_draw_rect_dsc
 1184              	.LVL117:
 528:lvgl/src/core/lv_obj.c ****             lv_coord_t h = lv_obj_get_style_transform_height(obj, LV_PART_MAIN);
 1185              		.loc 1 528 13 discriminator 3 view .LVU398
 1186              	.LBB161:
 1187              	.LBI161:
  55:lvgl/src/core/lv_obj_style_gen.h **** {
 1188              		.loc 2 55 26 discriminator 3 view .LVU399
 1189              	.LBB162:
  57:lvgl/src/core/lv_obj_style_gen.h ****     return (lv_coord_t)v.num;
 1190              		.loc 2 57 5 discriminator 3 view .LVU400
  57:lvgl/src/core/lv_obj_style_gen.h ****     return (lv_coord_t)v.num;
 1191              		.loc 2 57 26 is_stmt 0 discriminator 3 view .LVU401
 1192 021c 40F60A02 		movw	r2, #2058
 1193 0220 3946     		mov	r1, r7
 1194 0222 2046     		mov	r0, r4
 1195 0224 FFF7FEFF 		bl	lv_obj_get_style_prop
 1196              	.LVL118:
 1197 0228 0646     		mov	r6, r0
 1198              	.LVL119:
  58:lvgl/src/core/lv_obj_style_gen.h **** }
 1199              		.loc 2 58 5 is_stmt 1 discriminator 3 view .LVU402
  58:lvgl/src/core/lv_obj_style_gen.h **** }
 1200              		.loc 2 58 5 is_stmt 0 discriminator 3 view .LVU403
 1201              	.LBE162:
 1202              	.LBE161:
 529:lvgl/src/core/lv_obj.c ****             lv_area_t coords;
 1203              		.loc 1 529 13 is_stmt 1 discriminator 3 view .LVU404
 1204              	.LBB163:
 1205              	.LBI163:
  61:lvgl/src/core/lv_obj_style_gen.h **** {
 1206              		.loc 2 61 26 discriminator 3 view .LVU405
 1207              	.LBB164:
  63:lvgl/src/core/lv_obj_style_gen.h ****     return (lv_coord_t)v.num;
 1208              		.loc 2 63 5 discriminator 3 view .LVU406
  63:lvgl/src/core/lv_obj_style_gen.h ****     return (lv_coord_t)v.num;
 1209              		.loc 2 63 26 is_stmt 0 discriminator 3 view .LVU407
 1210 022a 40F60B02 		movw	r2, #2059
 1211 022e 3946     		mov	r1, r7
 1212 0230 2046     		mov	r0, r4
 1213 0232 FFF7FEFF 		bl	lv_obj_get_style_prop
 1214              	.LVL120:
  64:lvgl/src/core/lv_obj_style_gen.h **** }
 1215              		.loc 2 64 5 is_stmt 1 discriminator 3 view .LVU408
  64:lvgl/src/core/lv_obj_style_gen.h **** }
 1216              		.loc 2 64 5 is_stmt 0 discriminator 3 view .LVU409
ARM GAS  C:\Users\BLACK_~1\AppData\Local\Temp\ccVQcfpA.s 			page 53


 1217              	.LBE164:
 1218              	.LBE163:
 530:lvgl/src/core/lv_obj.c ****             lv_area_copy(&coords, &obj->coords);
 1219              		.loc 1 530 13 is_stmt 1 discriminator 3 view .LVU410
 531:lvgl/src/core/lv_obj.c ****             coords.x1 -= w;
 1220              		.loc 1 531 13 discriminator 3 view .LVU411
 1221              	.LBB165:
 1222              	.LBI165:
 120:lvgl/src/core/../misc/../font/../misc/lv_area.h **** {
 1223              		.loc 3 120 20 discriminator 3 view .LVU412
 1224              	.LBB166:
 122:lvgl/src/core/../misc/../font/../misc/lv_area.h ****     dest->y1 = src->y1;
 1225              		.loc 3 122 5 discriminator 3 view .LVU413
 122:lvgl/src/core/../misc/../font/../misc/lv_area.h ****     dest->y1 = src->y1;
 1226              		.loc 3 122 19 is_stmt 0 discriminator 3 view .LVU414
 1227 0236 B4F91410 		ldrsh	r1, [r4, #20]
 122:lvgl/src/core/../misc/../font/../misc/lv_area.h ****     dest->y1 = src->y1;
 1228              		.loc 3 122 14 discriminator 3 view .LVU415
 1229 023a ADF80410 		strh	r1, [sp, #4]	@ movhi
 123:lvgl/src/core/../misc/../font/../misc/lv_area.h ****     dest->x2 = src->x2;
 1230              		.loc 3 123 5 is_stmt 1 discriminator 3 view .LVU416
 123:lvgl/src/core/../misc/../font/../misc/lv_area.h ****     dest->x2 = src->x2;
 1231              		.loc 3 123 19 is_stmt 0 discriminator 3 view .LVU417
 1232 023e B4F91620 		ldrsh	r2, [r4, #22]
 123:lvgl/src/core/../misc/../font/../misc/lv_area.h ****     dest->x2 = src->x2;
 1233              		.loc 3 123 14 discriminator 3 view .LVU418
 1234 0242 ADF80620 		strh	r2, [sp, #6]	@ movhi
 124:lvgl/src/core/../misc/../font/../misc/lv_area.h ****     dest->y2 = src->y2;
 1235              		.loc 3 124 5 is_stmt 1 discriminator 3 view .LVU419
 124:lvgl/src/core/../misc/../font/../misc/lv_area.h ****     dest->y2 = src->y2;
 1236              		.loc 3 124 19 is_stmt 0 discriminator 3 view .LVU420
 1237 0246 B4F91870 		ldrsh	r7, [r4, #24]
 124:lvgl/src/core/../misc/../font/../misc/lv_area.h ****     dest->y2 = src->y2;
 1238              		.loc 3 124 14 discriminator 3 view .LVU421
 1239 024a ADF80870 		strh	r7, [sp, #8]	@ movhi
 1240              		.loc 3 125 5 is_stmt 1 discriminator 3 view .LVU422
 1241              		.loc 3 125 19 is_stmt 0 discriminator 3 view .LVU423
 1242 024e B4F91A40 		ldrsh	r4, [r4, #26]
 1243              	.LVL121:
 1244              		.loc 3 125 14 discriminator 3 view .LVU424
 1245 0252 ADF80A40 		strh	r4, [sp, #10]	@ movhi
 1246              	.LVL122:
 1247              		.loc 3 125 14 discriminator 3 view .LVU425
 1248              	.LBE166:
 1249              	.LBE165:
 532:lvgl/src/core/lv_obj.c ****             coords.x2 += w;
 1250              		.loc 1 532 13 is_stmt 1 discriminator 3 view .LVU426
 532:lvgl/src/core/lv_obj.c ****             coords.x2 += w;
 1251              		.loc 1 532 23 is_stmt 0 discriminator 3 view .LVU427
 1252 0256 B3B2     		uxth	r3, r6
 1253 0258 C91A     		subs	r1, r1, r3
 1254 025a ADF80410 		strh	r1, [sp, #4]	@ movhi
 533:lvgl/src/core/lv_obj.c ****             coords.y1 -= h;
 1255              		.loc 1 533 13 is_stmt 1 discriminator 3 view .LVU428
 533:lvgl/src/core/lv_obj.c ****             coords.y1 -= h;
 1256              		.loc 1 533 23 is_stmt 0 discriminator 3 view .LVU429
 1257 025e 3B44     		add	r3, r3, r7
ARM GAS  C:\Users\BLACK_~1\AppData\Local\Temp\ccVQcfpA.s 			page 54


 1258 0260 ADF80830 		strh	r3, [sp, #8]	@ movhi
 534:lvgl/src/core/lv_obj.c ****             coords.y2 += h;
 1259              		.loc 1 534 13 is_stmt 1 discriminator 3 view .LVU430
 534:lvgl/src/core/lv_obj.c ****             coords.y2 += h;
 1260              		.loc 1 534 23 is_stmt 0 discriminator 3 view .LVU431
 1261 0264 80B2     		uxth	r0, r0
 534:lvgl/src/core/lv_obj.c ****             coords.y2 += h;
 1262              		.loc 1 534 23 discriminator 3 view .LVU432
 1263 0266 121A     		subs	r2, r2, r0
 1264 0268 ADF80620 		strh	r2, [sp, #6]	@ movhi
 535:lvgl/src/core/lv_obj.c ****             lv_draw_rect(&coords, clip_area, &draw_dsc);
 1265              		.loc 1 535 13 is_stmt 1 discriminator 3 view .LVU433
 535:lvgl/src/core/lv_obj.c ****             lv_draw_rect(&coords, clip_area, &draw_dsc);
 1266              		.loc 1 535 23 is_stmt 0 discriminator 3 view .LVU434
 1267 026c 2044     		add	r0, r0, r4
 1268              	.LVL123:
 535:lvgl/src/core/lv_obj.c ****             lv_draw_rect(&coords, clip_area, &draw_dsc);
 1269              		.loc 1 535 23 discriminator 3 view .LVU435
 1270 026e ADF80A00 		strh	r0, [sp, #10]	@ movhi
 536:lvgl/src/core/lv_obj.c ****         }
 1271              		.loc 1 536 13 is_stmt 1 discriminator 3 view .LVU436
 1272 0272 03AA     		add	r2, sp, #12
 1273 0274 2946     		mov	r1, r5
 1274 0276 01A8     		add	r0, sp, #4
 1275 0278 FFF7FEFF 		bl	lv_draw_rect
 1276              	.LVL124:
 1277 027c D1E6     		b	.L35
 1278              	.LVL125:
 1279              	.L53:
 536:lvgl/src/core/lv_obj.c ****         }
 1280              		.loc 1 536 13 is_stmt 0 discriminator 3 view .LVU437
 1281              	.LBE160:
 1282              	.LBB167:
 514:lvgl/src/core/lv_obj.c ****             lv_mem_buf_release(param);
 1283              		.loc 1 514 13 is_stmt 1 view .LVU438
 514:lvgl/src/core/lv_obj.c ****             lv_mem_buf_release(param);
 1284              		.loc 1 514 51 is_stmt 0 view .LVU439
 1285 027e 04F59070 		add	r0, r4, #288
 1286 0282 FFF7FEFF 		bl	lv_draw_mask_remove_custom
 1287              	.LVL126:
 515:lvgl/src/core/lv_obj.c ****         }
 1288              		.loc 1 515 13 is_stmt 1 view .LVU440
 1289 0286 FFF7FEFF 		bl	lv_mem_buf_release
 1290              	.LVL127:
 515:lvgl/src/core/lv_obj.c ****         }
 1291              		.loc 1 515 13 is_stmt 0 view .LVU441
 1292 028a B0E7     		b	.L47
 1293              	.LBE167:
 1294              	.LBE155:
 1295              		.cfi_endproc
 1296              	.LFE172:
 1298              		.section	.text.lv_obj_constructor,"ax",%progbits
 1299              		.align	1
 1300              		.syntax unified
 1301              		.thumb
 1302              		.thumb_func
 1304              	lv_obj_constructor:
ARM GAS  C:\Users\BLACK_~1\AppData\Local\Temp\ccVQcfpA.s 			page 55


 1305              	.LVL128:
 1306              	.LFB170:
 367:lvgl/src/core/lv_obj.c ****     LV_UNUSED(class_p);
 1307              		.loc 1 367 1 is_stmt 1 view -0
 1308              		.cfi_startproc
 1309              		@ args = 0, pretend = 0, frame = 0
 1310              		@ frame_needed = 0, uses_anonymous_args = 0
 367:lvgl/src/core/lv_obj.c ****     LV_UNUSED(class_p);
 1311              		.loc 1 367 1 is_stmt 0 view .LVU443
 1312 0000 2DE9F041 		push	{r4, r5, r6, r7, r8, lr}
 1313              	.LCFI10:
 1314              		.cfi_def_cfa_offset 24
 1315              		.cfi_offset 4, -24
 1316              		.cfi_offset 5, -20
 1317              		.cfi_offset 6, -16
 1318              		.cfi_offset 7, -12
 1319              		.cfi_offset 8, -8
 1320              		.cfi_offset 14, -4
 1321 0004 0C46     		mov	r4, r1
 368:lvgl/src/core/lv_obj.c ****     LV_TRACE_OBJ_CREATE("begin");
 1322              		.loc 1 368 5 is_stmt 1 view .LVU444
 369:lvgl/src/core/lv_obj.c **** 
 1323              		.loc 1 369 33 view .LVU445
 371:lvgl/src/core/lv_obj.c ****     if(parent) {
 1324              		.loc 1 371 5 view .LVU446
 371:lvgl/src/core/lv_obj.c ****     if(parent) {
 1325              		.loc 1 371 16 is_stmt 0 view .LVU447
 1326 0006 4D68     		ldr	r5, [r1, #4]
 1327              	.LVL129:
 372:lvgl/src/core/lv_obj.c ****         lv_coord_t sl = lv_obj_get_scroll_left(parent);
 1328              		.loc 1 372 5 is_stmt 1 view .LVU448
 372:lvgl/src/core/lv_obj.c ****         lv_coord_t sl = lv_obj_get_scroll_left(parent);
 1329              		.loc 1 372 7 is_stmt 0 view .LVU449
 1330 0008 35B3     		cbz	r5, .L55
 1331              	.LBB168:
 373:lvgl/src/core/lv_obj.c ****         lv_coord_t st = lv_obj_get_scroll_top(parent);
 1332              		.loc 1 373 9 is_stmt 1 view .LVU450
 373:lvgl/src/core/lv_obj.c ****         lv_coord_t st = lv_obj_get_scroll_top(parent);
 1333              		.loc 1 373 25 is_stmt 0 view .LVU451
 1334 000a 2846     		mov	r0, r5
 1335              	.LVL130:
 373:lvgl/src/core/lv_obj.c ****         lv_coord_t st = lv_obj_get_scroll_top(parent);
 1336              		.loc 1 373 25 view .LVU452
 1337 000c FFF7FEFF 		bl	lv_obj_get_scroll_left
 1338              	.LVL131:
 373:lvgl/src/core/lv_obj.c ****         lv_coord_t st = lv_obj_get_scroll_top(parent);
 1339              		.loc 1 373 25 view .LVU453
 1340 0010 0646     		mov	r6, r0
 1341              	.LVL132:
 374:lvgl/src/core/lv_obj.c **** 
 1342              		.loc 1 374 9 is_stmt 1 view .LVU454
 374:lvgl/src/core/lv_obj.c **** 
 1343              		.loc 1 374 25 is_stmt 0 view .LVU455
 1344 0012 2846     		mov	r0, r5
 1345 0014 FFF7FEFF 		bl	lv_obj_get_scroll_top
 1346              	.LVL133:
 1347 0018 0746     		mov	r7, r0
ARM GAS  C:\Users\BLACK_~1\AppData\Local\Temp\ccVQcfpA.s 			page 56


 1348              	.LVL134:
 376:lvgl/src/core/lv_obj.c ****         obj->coords.y2 = obj->coords.y1 - 1;
 1349              		.loc 1 376 9 is_stmt 1 view .LVU456
 376:lvgl/src/core/lv_obj.c ****         obj->coords.y2 = obj->coords.y1 - 1;
 1350              		.loc 1 376 40 is_stmt 0 view .LVU457
 1351 001a B5F81680 		ldrh	r8, [r5, #22]
 1352              	.LVL135:
 1353              	.LBB169:
 1354              	.LBI169:
  91:lvgl/src/core/lv_obj_style_gen.h **** {
 1355              		.loc 2 91 26 is_stmt 1 view .LVU458
 1356              	.LBB170:
  93:lvgl/src/core/lv_obj_style_gen.h ****     return (lv_coord_t)v.num;
 1357              		.loc 2 93 5 view .LVU459
  93:lvgl/src/core/lv_obj_style_gen.h ****     return (lv_coord_t)v.num;
 1358              		.loc 2 93 26 is_stmt 0 view .LVU460
 1359 001e 41F21002 		movw	r2, #4112
 1360 0022 0021     		movs	r1, #0
 1361 0024 2846     		mov	r0, r5
 1362 0026 FFF7FEFF 		bl	lv_obj_get_style_prop
 1363              	.LVL136:
  94:lvgl/src/core/lv_obj_style_gen.h **** }
 1364              		.loc 2 94 5 is_stmt 1 view .LVU461
  94:lvgl/src/core/lv_obj_style_gen.h **** }
 1365              		.loc 2 94 5 is_stmt 0 view .LVU462
 1366              	.LBE170:
 1367              	.LBE169:
 376:lvgl/src/core/lv_obj.c ****         obj->coords.y2 = obj->coords.y1 - 1;
 1368              		.loc 1 376 44 view .LVU463
 1369 002a 18FA80F3 		uxtah	r3, r8, r0
 1370 002e 9BB2     		uxth	r3, r3
 376:lvgl/src/core/lv_obj.c ****         obj->coords.y2 = obj->coords.y1 - 1;
 1371              		.loc 1 376 93 view .LVU464
 1372 0030 DB1B     		subs	r3, r3, r7
 1373 0032 9AB2     		uxth	r2, r3
 376:lvgl/src/core/lv_obj.c ****         obj->coords.y2 = obj->coords.y1 - 1;
 1374              		.loc 1 376 24 view .LVU465
 1375 0034 E382     		strh	r3, [r4, #22]	@ movhi
 377:lvgl/src/core/lv_obj.c ****         obj->coords.x1  = parent->coords.x1 + lv_obj_get_style_pad_left(parent, LV_PART_MAIN) - sl;
 1376              		.loc 1 377 9 is_stmt 1 view .LVU466
 377:lvgl/src/core/lv_obj.c ****         obj->coords.x1  = parent->coords.x1 + lv_obj_get_style_pad_left(parent, LV_PART_MAIN) - sl;
 1377              		.loc 1 377 41 is_stmt 0 view .LVU467
 1378 0036 531E     		subs	r3, r2, #1
 377:lvgl/src/core/lv_obj.c ****         obj->coords.x1  = parent->coords.x1 + lv_obj_get_style_pad_left(parent, LV_PART_MAIN) - sl;
 1379              		.loc 1 377 24 view .LVU468
 1380 0038 6383     		strh	r3, [r4, #26]	@ movhi
 378:lvgl/src/core/lv_obj.c ****         obj->coords.x2  = obj->coords.x1 - 1;
 1381              		.loc 1 378 9 is_stmt 1 view .LVU469
 378:lvgl/src/core/lv_obj.c ****         obj->coords.x2  = obj->coords.x1 - 1;
 1382              		.loc 1 378 41 is_stmt 0 view .LVU470
 1383 003a AF8A     		ldrh	r7, [r5, #20]
 1384              	.LVL137:
 1385              	.LBB171:
 1386              	.LBI171:
 103:lvgl/src/core/lv_obj_style_gen.h **** {
 1387              		.loc 2 103 26 is_stmt 1 view .LVU471
 1388              	.LBB172:
ARM GAS  C:\Users\BLACK_~1\AppData\Local\Temp\ccVQcfpA.s 			page 57


 105:lvgl/src/core/lv_obj_style_gen.h ****     return (lv_coord_t)v.num;
 1389              		.loc 2 105 5 view .LVU472
 105:lvgl/src/core/lv_obj_style_gen.h ****     return (lv_coord_t)v.num;
 1390              		.loc 2 105 26 is_stmt 0 view .LVU473
 1391 003c 41F21202 		movw	r2, #4114
 1392 0040 0021     		movs	r1, #0
 1393 0042 2846     		mov	r0, r5
 1394 0044 FFF7FEFF 		bl	lv_obj_get_style_prop
 1395              	.LVL138:
 106:lvgl/src/core/lv_obj_style_gen.h **** }
 1396              		.loc 2 106 5 is_stmt 1 view .LVU474
 106:lvgl/src/core/lv_obj_style_gen.h **** }
 1397              		.loc 2 106 5 is_stmt 0 view .LVU475
 1398              	.LBE172:
 1399              	.LBE171:
 378:lvgl/src/core/lv_obj.c ****         obj->coords.x2  = obj->coords.x1 - 1;
 1400              		.loc 1 378 45 view .LVU476
 1401 0048 17FA80F3 		uxtah	r3, r7, r0
 1402 004c 9BB2     		uxth	r3, r3
 378:lvgl/src/core/lv_obj.c ****         obj->coords.x2  = obj->coords.x1 - 1;
 1403              		.loc 1 378 95 view .LVU477
 1404 004e 981B     		subs	r0, r3, r6
 1405 0050 83B2     		uxth	r3, r0
 378:lvgl/src/core/lv_obj.c ****         obj->coords.x2  = obj->coords.x1 - 1;
 1406              		.loc 1 378 25 view .LVU478
 1407 0052 A082     		strh	r0, [r4, #20]	@ movhi
 379:lvgl/src/core/lv_obj.c ****     }
 1408              		.loc 1 379 9 is_stmt 1 view .LVU479
 379:lvgl/src/core/lv_obj.c ****     }
 1409              		.loc 1 379 42 is_stmt 0 view .LVU480
 1410 0054 013B     		subs	r3, r3, #1
 379:lvgl/src/core/lv_obj.c ****     }
 1411              		.loc 1 379 25 view .LVU481
 1412 0056 2383     		strh	r3, [r4, #24]	@ movhi
 1413              	.LVL139:
 1414              	.L55:
 379:lvgl/src/core/lv_obj.c ****     }
 1415              		.loc 1 379 25 view .LVU482
 1416              	.LBE168:
 383:lvgl/src/core/lv_obj.c ****     obj->flags |= LV_OBJ_FLAG_SNAPABLE;
 1417              		.loc 1 383 5 is_stmt 1 view .LVU483
 383:lvgl/src/core/lv_obj.c ****     obj->flags |= LV_OBJ_FLAG_SNAPABLE;
 1418              		.loc 1 383 16 is_stmt 0 view .LVU484
 1419 0058 0223     		movs	r3, #2
 1420 005a E361     		str	r3, [r4, #28]
 384:lvgl/src/core/lv_obj.c ****     if(parent) obj->flags |= LV_OBJ_FLAG_PRESS_LOCK;
 1421              		.loc 1 384 5 is_stmt 1 view .LVU485
 384:lvgl/src/core/lv_obj.c ****     if(parent) obj->flags |= LV_OBJ_FLAG_PRESS_LOCK;
 1422              		.loc 1 384 16 is_stmt 0 view .LVU486
 1423 005c 40F20243 		movw	r3, #1026
 1424 0060 E361     		str	r3, [r4, #28]
 385:lvgl/src/core/lv_obj.c ****     if(parent) obj->flags |= LV_OBJ_FLAG_SCROLL_CHAIN;
 1425              		.loc 1 385 5 is_stmt 1 view .LVU487
 385:lvgl/src/core/lv_obj.c ****     if(parent) obj->flags |= LV_OBJ_FLAG_SCROLL_CHAIN;
 1426              		.loc 1 385 7 is_stmt 0 view .LVU488
 1427 0062 15B1     		cbz	r5, .L56
 385:lvgl/src/core/lv_obj.c ****     if(parent) obj->flags |= LV_OBJ_FLAG_SCROLL_CHAIN;
ARM GAS  C:\Users\BLACK_~1\AppData\Local\Temp\ccVQcfpA.s 			page 58


 1428              		.loc 1 385 16 is_stmt 1 discriminator 1 view .LVU489
 385:lvgl/src/core/lv_obj.c ****     if(parent) obj->flags |= LV_OBJ_FLAG_SCROLL_CHAIN;
 1429              		.loc 1 385 27 is_stmt 0 discriminator 1 view .LVU490
 1430 0064 40F60243 		movw	r3, #3074
 1431 0068 E361     		str	r3, [r4, #28]
 1432              	.L56:
 386:lvgl/src/core/lv_obj.c ****     obj->flags |= LV_OBJ_FLAG_CLICK_FOCUSABLE;
 1433              		.loc 1 386 5 is_stmt 1 view .LVU491
 386:lvgl/src/core/lv_obj.c ****     obj->flags |= LV_OBJ_FLAG_CLICK_FOCUSABLE;
 1434              		.loc 1 386 7 is_stmt 0 view .LVU492
 1435 006a 1DB1     		cbz	r5, .L57
 386:lvgl/src/core/lv_obj.c ****     obj->flags |= LV_OBJ_FLAG_CLICK_FOCUSABLE;
 1436              		.loc 1 386 16 is_stmt 1 discriminator 1 view .LVU493
 386:lvgl/src/core/lv_obj.c ****     obj->flags |= LV_OBJ_FLAG_CLICK_FOCUSABLE;
 1437              		.loc 1 386 27 is_stmt 0 discriminator 1 view .LVU494
 1438 006c E369     		ldr	r3, [r4, #28]
 1439 006e 43F48073 		orr	r3, r3, #256
 1440 0072 E361     		str	r3, [r4, #28]
 1441              	.L57:
 387:lvgl/src/core/lv_obj.c ****     obj->flags |= LV_OBJ_FLAG_SCROLLABLE;
 1442              		.loc 1 387 5 is_stmt 1 view .LVU495
 387:lvgl/src/core/lv_obj.c ****     obj->flags |= LV_OBJ_FLAG_SCROLLABLE;
 1443              		.loc 1 387 16 is_stmt 0 view .LVU496
 1444 0074 E369     		ldr	r3, [r4, #28]
 1445 0076 43F00402 		orr	r2, r3, #4
 1446 007a E261     		str	r2, [r4, #28]
 388:lvgl/src/core/lv_obj.c ****     obj->flags |= LV_OBJ_FLAG_SCROLL_ELASTIC;
 1447              		.loc 1 388 5 is_stmt 1 view .LVU497
 388:lvgl/src/core/lv_obj.c ****     obj->flags |= LV_OBJ_FLAG_SCROLL_ELASTIC;
 1448              		.loc 1 388 16 is_stmt 0 view .LVU498
 1449 007c 43F01402 		orr	r2, r3, #20
 1450 0080 E261     		str	r2, [r4, #28]
 389:lvgl/src/core/lv_obj.c ****     obj->flags |= LV_OBJ_FLAG_SCROLL_MOMENTUM;
 1451              		.loc 1 389 5 is_stmt 1 view .LVU499
 389:lvgl/src/core/lv_obj.c ****     obj->flags |= LV_OBJ_FLAG_SCROLL_MOMENTUM;
 1452              		.loc 1 389 16 is_stmt 0 view .LVU500
 1453 0082 43F03402 		orr	r2, r3, #52
 1454 0086 E261     		str	r2, [r4, #28]
 390:lvgl/src/core/lv_obj.c ****     if(parent) obj->flags |= LV_OBJ_FLAG_GESTURE_BUBBLE;
 1455              		.loc 1 390 5 is_stmt 1 view .LVU501
 390:lvgl/src/core/lv_obj.c ****     if(parent) obj->flags |= LV_OBJ_FLAG_GESTURE_BUBBLE;
 1456              		.loc 1 390 16 is_stmt 0 view .LVU502
 1457 0088 43F07403 		orr	r3, r3, #116
 1458 008c E361     		str	r3, [r4, #28]
 391:lvgl/src/core/lv_obj.c **** 
 1459              		.loc 1 391 5 is_stmt 1 view .LVU503
 391:lvgl/src/core/lv_obj.c **** 
 1460              		.loc 1 391 7 is_stmt 0 view .LVU504
 1461 008e 15B1     		cbz	r5, .L54
 391:lvgl/src/core/lv_obj.c **** 
 1462              		.loc 1 391 16 is_stmt 1 discriminator 1 view .LVU505
 391:lvgl/src/core/lv_obj.c **** 
 1463              		.loc 1 391 27 is_stmt 0 discriminator 1 view .LVU506
 1464 0090 43F40053 		orr	r3, r3, #8192
 1465 0094 E361     		str	r3, [r4, #28]
 393:lvgl/src/core/lv_obj.c **** }
 1466              		.loc 1 393 36 is_stmt 1 discriminator 1 view .LVU507
ARM GAS  C:\Users\BLACK_~1\AppData\Local\Temp\ccVQcfpA.s 			page 59


 1467              	.L54:
 394:lvgl/src/core/lv_obj.c **** 
 1468              		.loc 1 394 1 is_stmt 0 view .LVU508
 1469 0096 BDE8F081 		pop	{r4, r5, r6, r7, r8, pc}
 394:lvgl/src/core/lv_obj.c **** 
 1470              		.loc 1 394 1 view .LVU509
 1471              		.cfi_endproc
 1472              	.LFE170:
 1474              		.section	.text.lv_obj_set_state,"ax",%progbits
 1475              		.align	1
 1476              		.syntax unified
 1477              		.thumb
 1478              		.thumb_func
 1480              	lv_obj_set_state:
 1481              	.LVL140:
 1482              	.LFB176:
 740:lvgl/src/core/lv_obj.c ****     if(obj->state == new_state) return;
 1483              		.loc 1 740 1 is_stmt 1 view -0
 1484              		.cfi_startproc
 1485              		@ args = 0, pretend = 0, frame = 40
 1486              		@ frame_needed = 0, uses_anonymous_args = 0
 740:lvgl/src/core/lv_obj.c ****     if(obj->state == new_state) return;
 1487              		.loc 1 740 1 is_stmt 0 view .LVU511
 1488 0000 2DE9F04F 		push	{r4, r5, r6, r7, r8, r9, r10, fp, lr}
 1489              	.LCFI11:
 1490              		.cfi_def_cfa_offset 36
 1491              		.cfi_offset 4, -36
 1492              		.cfi_offset 5, -32
 1493              		.cfi_offset 6, -28
 1494              		.cfi_offset 7, -24
 1495              		.cfi_offset 8, -20
 1496              		.cfi_offset 9, -16
 1497              		.cfi_offset 10, -12
 1498              		.cfi_offset 11, -8
 1499              		.cfi_offset 14, -4
 1500 0004 8DB0     		sub	sp, sp, #52
 1501              	.LCFI12:
 1502              		.cfi_def_cfa_offset 88
 1503 0006 0690     		str	r0, [sp, #24]
 1504 0008 0791     		str	r1, [sp, #28]
 741:lvgl/src/core/lv_obj.c **** 
 1505              		.loc 1 741 5 is_stmt 1 view .LVU512
 741:lvgl/src/core/lv_obj.c **** 
 1506              		.loc 1 741 11 is_stmt 0 view .LVU513
 1507 000a 038C     		ldrh	r3, [r0, #32]
 1508 000c 0993     		str	r3, [sp, #36]
 741:lvgl/src/core/lv_obj.c **** 
 1509              		.loc 1 741 7 view .LVU514
 1510 000e 8B42     		cmp	r3, r1
 1511 0010 06D0     		beq	.L60
 743:lvgl/src/core/lv_obj.c **** 
 1512              		.loc 1 743 5 is_stmt 1 view .LVU515
 743:lvgl/src/core/lv_obj.c **** 
 1513              		.loc 1 743 5 view .LVU516
 743:lvgl/src/core/lv_obj.c **** 
 1514              		.loc 1 743 5 view .LVU517
 745:lvgl/src/core/lv_obj.c ****     obj->state = new_state;
ARM GAS  C:\Users\BLACK_~1\AppData\Local\Temp\ccVQcfpA.s 			page 60


 1515              		.loc 1 745 5 view .LVU518
 1516              	.LVL141:
 746:lvgl/src/core/lv_obj.c **** 
 1517              		.loc 1 746 5 view .LVU519
 746:lvgl/src/core/lv_obj.c **** 
 1518              		.loc 1 746 16 is_stmt 0 view .LVU520
 1519 0012 0184     		strh	r1, [r0, #32]	@ movhi
 748:lvgl/src/core/lv_obj.c ****     /*If there is no difference in styles there is nothing else to do*/
 1520              		.loc 1 748 5 is_stmt 1 view .LVU521
 748:lvgl/src/core/lv_obj.c ****     /*If there is no difference in styles there is nothing else to do*/
 1521              		.loc 1 748 37 is_stmt 0 view .LVU522
 1522 0014 0A46     		mov	r2, r1
 1523 0016 1946     		mov	r1, r3
 1524              	.LVL142:
 748:lvgl/src/core/lv_obj.c ****     /*If there is no difference in styles there is nothing else to do*/
 1525              		.loc 1 748 37 view .LVU523
 1526 0018 FFF7FEFF 		bl	_lv_obj_style_state_compare
 1527              	.LVL143:
 750:lvgl/src/core/lv_obj.c **** 
 1528              		.loc 1 750 5 is_stmt 1 view .LVU524
 750:lvgl/src/core/lv_obj.c **** 
 1529              		.loc 1 750 7 is_stmt 0 view .LVU525
 1530 001c 0A90     		str	r0, [sp, #40]
 1531 001e 10B9     		cbnz	r0, .L92
 1532              	.LVL144:
 1533              	.L60:
 810:lvgl/src/core/lv_obj.c **** 
 1534              		.loc 1 810 1 view .LVU526
 1535 0020 0DB0     		add	sp, sp, #52
 1536              	.LCFI13:
 1537              		.cfi_remember_state
 1538              		.cfi_def_cfa_offset 36
 1539              		@ sp needed
 1540 0022 BDE8F08F 		pop	{r4, r5, r6, r7, r8, r9, r10, fp, pc}
 1541              	.LVL145:
 1542              	.L92:
 1543              	.LCFI14:
 1544              		.cfi_restore_state
 752:lvgl/src/core/lv_obj.c ****     lv_memset_00(ts, sizeof(_lv_obj_style_transition_dsc_t) * STYLE_TRANSITION_MAX);
 1545              		.loc 1 752 5 is_stmt 1 view .LVU527
 752:lvgl/src/core/lv_obj.c ****     lv_memset_00(ts, sizeof(_lv_obj_style_transition_dsc_t) * STYLE_TRANSITION_MAX);
 1546              		.loc 1 752 43 is_stmt 0 view .LVU528
 1547 0026 4FF42070 		mov	r0, #640
 1548              	.LVL146:
 752:lvgl/src/core/lv_obj.c ****     lv_memset_00(ts, sizeof(_lv_obj_style_transition_dsc_t) * STYLE_TRANSITION_MAX);
 1549              		.loc 1 752 43 view .LVU529
 1550 002a FFF7FEFF 		bl	lv_mem_buf_get
 1551              	.LVL147:
 1552 002e 8246     		mov	r10, r0
 1553              	.LVL148:
 753:lvgl/src/core/lv_obj.c ****     uint32_t tsi = 0;
 1554              		.loc 1 753 5 is_stmt 1 view .LVU530
 1555 0030 4FF42071 		mov	r1, #640
 1556 0034 FFF7FEFF 		bl	lv_memset_00
 1557              	.LVL149:
 754:lvgl/src/core/lv_obj.c ****     uint32_t i;
 1558              		.loc 1 754 5 view .LVU531
ARM GAS  C:\Users\BLACK_~1\AppData\Local\Temp\ccVQcfpA.s 			page 61


 755:lvgl/src/core/lv_obj.c ****     for(i = 0; i < obj->style_cnt && tsi < STYLE_TRANSITION_MAX; i++) {
 1559              		.loc 1 755 5 view .LVU532
 756:lvgl/src/core/lv_obj.c ****         _lv_obj_style_t * obj_style = &obj->styles[i];
 1560              		.loc 1 756 5 view .LVU533
 756:lvgl/src/core/lv_obj.c ****         _lv_obj_style_t * obj_style = &obj->styles[i];
 1561              		.loc 1 756 11 is_stmt 0 view .LVU534
 1562 0038 0023     		movs	r3, #0
 1563 003a 0393     		str	r3, [sp, #12]
 754:lvgl/src/core/lv_obj.c ****     uint32_t i;
 1564              		.loc 1 754 14 view .LVU535
 1565 003c 9B46     		mov	fp, r3
 756:lvgl/src/core/lv_obj.c ****         _lv_obj_style_t * obj_style = &obj->styles[i];
 1566              		.loc 1 756 5 view .LVU536
 1567 003e 1EE0     		b	.L62
 1568              	.LVL150:
 1569              	.L96:
 1570              	.LBB182:
 1571              	.LBB183:
 1572              	.LBB184:
 1573              	.LBB185:
 1574              		.file 4 "lvgl/src/core/../misc/lv_style.h"
   1:lvgl/src/core/../misc/lv_style.h **** /**
   2:lvgl/src/core/../misc/lv_style.h ****  * @file lv_style.h
   3:lvgl/src/core/../misc/lv_style.h ****  *
   4:lvgl/src/core/../misc/lv_style.h ****  */
   5:lvgl/src/core/../misc/lv_style.h **** 
   6:lvgl/src/core/../misc/lv_style.h **** #ifndef LV_STYLE_H
   7:lvgl/src/core/../misc/lv_style.h **** #define LV_STYLE_H
   8:lvgl/src/core/../misc/lv_style.h **** 
   9:lvgl/src/core/../misc/lv_style.h **** #ifdef __cplusplus
  10:lvgl/src/core/../misc/lv_style.h **** extern "C" {
  11:lvgl/src/core/../misc/lv_style.h **** #endif
  12:lvgl/src/core/../misc/lv_style.h **** 
  13:lvgl/src/core/../misc/lv_style.h **** /*********************
  14:lvgl/src/core/../misc/lv_style.h ****  *      INCLUDES
  15:lvgl/src/core/../misc/lv_style.h ****  *********************/
  16:lvgl/src/core/../misc/lv_style.h **** #include <stdbool.h>
  17:lvgl/src/core/../misc/lv_style.h **** #include "../font/lv_font.h"
  18:lvgl/src/core/../misc/lv_style.h **** #include "lv_color.h"
  19:lvgl/src/core/../misc/lv_style.h **** #include "lv_area.h"
  20:lvgl/src/core/../misc/lv_style.h **** #include "lv_anim.h"
  21:lvgl/src/core/../misc/lv_style.h **** #include "lv_txt.h"
  22:lvgl/src/core/../misc/lv_style.h **** #include "lv_types.h"
  23:lvgl/src/core/../misc/lv_style.h **** #include "lv_assert.h"
  24:lvgl/src/core/../misc/lv_style.h **** #include "lv_bidi.h"
  25:lvgl/src/core/../misc/lv_style.h **** 
  26:lvgl/src/core/../misc/lv_style.h **** /*********************
  27:lvgl/src/core/../misc/lv_style.h ****  *      DEFINES
  28:lvgl/src/core/../misc/lv_style.h ****  *********************/
  29:lvgl/src/core/../misc/lv_style.h **** 
  30:lvgl/src/core/../misc/lv_style.h **** #define LV_STYLE_SENTINEL_VALUE     0xAABBCCDD
  31:lvgl/src/core/../misc/lv_style.h **** 
  32:lvgl/src/core/../misc/lv_style.h **** /**
  33:lvgl/src/core/../misc/lv_style.h ****  * Flags for style properties
  34:lvgl/src/core/../misc/lv_style.h ****  */
  35:lvgl/src/core/../misc/lv_style.h **** #define LV_STYLE_PROP_INHERIT               (1 << 10)  /*Inherited*/
  36:lvgl/src/core/../misc/lv_style.h **** #define LV_STYLE_PROP_EXT_DRAW              (1 << 11)  /*Requires ext. draw size update when change
ARM GAS  C:\Users\BLACK_~1\AppData\Local\Temp\ccVQcfpA.s 			page 62


  37:lvgl/src/core/../misc/lv_style.h **** #define LV_STYLE_PROP_LAYOUT_REFR           (1 << 12)  /*Requires layout update when changed*/
  38:lvgl/src/core/../misc/lv_style.h **** #define LV_STYLE_PROP_PARENT_LAYOUT_REFR    (1 << 13)  /*Requires layout update on parent when chan
  39:lvgl/src/core/../misc/lv_style.h **** #define LV_STYLE_PROP_FILTER                (1 << 14)  /*Apply color filter*/
  40:lvgl/src/core/../misc/lv_style.h **** 
  41:lvgl/src/core/../misc/lv_style.h **** /**
  42:lvgl/src/core/../misc/lv_style.h ****  * Other constants
  43:lvgl/src/core/../misc/lv_style.h ****  */
  44:lvgl/src/core/../misc/lv_style.h **** #define LV_IMG_ZOOM_NONE            256        /*Value for not zooming the image*/
  45:lvgl/src/core/../misc/lv_style.h **** LV_EXPORT_CONST_INT(LV_IMG_ZOOM_NONE);
  46:lvgl/src/core/../misc/lv_style.h **** 
  47:lvgl/src/core/../misc/lv_style.h **** #if LV_USE_ASSERT_STYLE
  48:lvgl/src/core/../misc/lv_style.h **** #define LV_STYLE_CONST_INIT(var_name, prop_array) const lv_style_t var_name = { .sentinel = LV_STYL
  49:lvgl/src/core/../misc/lv_style.h **** #else
  50:lvgl/src/core/../misc/lv_style.h **** #define LV_STYLE_CONST_INIT(var_name, prop_array) const lv_style_t var_name = { .v_p = { .const_pro
  51:lvgl/src/core/../misc/lv_style.h **** #endif
  52:lvgl/src/core/../misc/lv_style.h **** 
  53:lvgl/src/core/../misc/lv_style.h **** /**********************
  54:lvgl/src/core/../misc/lv_style.h ****  *      TYPEDEFS
  55:lvgl/src/core/../misc/lv_style.h ****  **********************/
  56:lvgl/src/core/../misc/lv_style.h **** 
  57:lvgl/src/core/../misc/lv_style.h **** /**
  58:lvgl/src/core/../misc/lv_style.h ****  * Possible options how to blend opaque drawings
  59:lvgl/src/core/../misc/lv_style.h ****  */
  60:lvgl/src/core/../misc/lv_style.h **** enum {
  61:lvgl/src/core/../misc/lv_style.h ****     LV_BLEND_MODE_NORMAL,     /**< Simply mix according to the opacity value*/
  62:lvgl/src/core/../misc/lv_style.h ****     LV_BLEND_MODE_ADDITIVE,   /**< Add the respective color channels*/
  63:lvgl/src/core/../misc/lv_style.h ****     LV_BLEND_MODE_SUBTRACTIVE,/**< Subtract the foreground from the background*/
  64:lvgl/src/core/../misc/lv_style.h **** };
  65:lvgl/src/core/../misc/lv_style.h **** 
  66:lvgl/src/core/../misc/lv_style.h **** typedef uint8_t lv_blend_mode_t;
  67:lvgl/src/core/../misc/lv_style.h **** 
  68:lvgl/src/core/../misc/lv_style.h **** /**
  69:lvgl/src/core/../misc/lv_style.h ****  * Some options to apply decorations on texts.
  70:lvgl/src/core/../misc/lv_style.h ****  * 'OR'ed values can be used.
  71:lvgl/src/core/../misc/lv_style.h ****  */
  72:lvgl/src/core/../misc/lv_style.h **** enum {
  73:lvgl/src/core/../misc/lv_style.h ****     LV_TEXT_DECOR_NONE          = 0x00,
  74:lvgl/src/core/../misc/lv_style.h ****     LV_TEXT_DECOR_UNDERLINE     = 0x01,
  75:lvgl/src/core/../misc/lv_style.h ****     LV_TEXT_DECOR_STRIKETHROUGH = 0x02,
  76:lvgl/src/core/../misc/lv_style.h **** };
  77:lvgl/src/core/../misc/lv_style.h **** 
  78:lvgl/src/core/../misc/lv_style.h **** typedef uint8_t lv_text_decor_t;
  79:lvgl/src/core/../misc/lv_style.h **** 
  80:lvgl/src/core/../misc/lv_style.h **** /**
  81:lvgl/src/core/../misc/lv_style.h ****  * Selects on which sides border should be drawn
  82:lvgl/src/core/../misc/lv_style.h ****  * 'OR'ed values can be used.
  83:lvgl/src/core/../misc/lv_style.h ****  */
  84:lvgl/src/core/../misc/lv_style.h **** enum {
  85:lvgl/src/core/../misc/lv_style.h ****     LV_BORDER_SIDE_NONE     = 0x00,
  86:lvgl/src/core/../misc/lv_style.h ****     LV_BORDER_SIDE_BOTTOM   = 0x01,
  87:lvgl/src/core/../misc/lv_style.h ****     LV_BORDER_SIDE_TOP      = 0x02,
  88:lvgl/src/core/../misc/lv_style.h ****     LV_BORDER_SIDE_LEFT     = 0x04,
  89:lvgl/src/core/../misc/lv_style.h ****     LV_BORDER_SIDE_RIGHT    = 0x08,
  90:lvgl/src/core/../misc/lv_style.h ****     LV_BORDER_SIDE_FULL     = 0x0F,
  91:lvgl/src/core/../misc/lv_style.h ****     LV_BORDER_SIDE_INTERNAL = 0x10, /**< FOR matrix-like objects (e.g. Button matrix)*/
  92:lvgl/src/core/../misc/lv_style.h **** };
  93:lvgl/src/core/../misc/lv_style.h **** typedef uint8_t lv_border_side_t;
ARM GAS  C:\Users\BLACK_~1\AppData\Local\Temp\ccVQcfpA.s 			page 63


  94:lvgl/src/core/../misc/lv_style.h **** 
  95:lvgl/src/core/../misc/lv_style.h **** /**
  96:lvgl/src/core/../misc/lv_style.h ****  * The direction of the gradient.
  97:lvgl/src/core/../misc/lv_style.h ****  */
  98:lvgl/src/core/../misc/lv_style.h **** enum {
  99:lvgl/src/core/../misc/lv_style.h ****     LV_GRAD_DIR_NONE, /**< No gradient (the `grad_color` property is ignored)*/
 100:lvgl/src/core/../misc/lv_style.h ****     LV_GRAD_DIR_VER,  /**< Vertical (top to bottom) gradient*/
 101:lvgl/src/core/../misc/lv_style.h ****     LV_GRAD_DIR_HOR,  /**< Horizontal (left to right) gradient*/
 102:lvgl/src/core/../misc/lv_style.h **** };
 103:lvgl/src/core/../misc/lv_style.h **** 
 104:lvgl/src/core/../misc/lv_style.h **** typedef uint8_t lv_grad_dir_t;
 105:lvgl/src/core/../misc/lv_style.h **** 
 106:lvgl/src/core/../misc/lv_style.h **** /**
 107:lvgl/src/core/../misc/lv_style.h ****  * A common type to handle all the property types in the same way.
 108:lvgl/src/core/../misc/lv_style.h ****  */
 109:lvgl/src/core/../misc/lv_style.h **** typedef union {
 110:lvgl/src/core/../misc/lv_style.h ****     int32_t num;         /**< Number integer number (opacity, enums, booleans or "normal" numbers)*
 111:lvgl/src/core/../misc/lv_style.h ****     const void * ptr;    /**< Constant pointers  (font, cone text, etc)*/
 112:lvgl/src/core/../misc/lv_style.h ****     lv_color_t color;    /**< Colors*/
 113:lvgl/src/core/../misc/lv_style.h **** }lv_style_value_t;
 114:lvgl/src/core/../misc/lv_style.h **** 
 115:lvgl/src/core/../misc/lv_style.h **** /**
 116:lvgl/src/core/../misc/lv_style.h ****  * Enumeration of all built in style properties
 117:lvgl/src/core/../misc/lv_style.h ****  */
 118:lvgl/src/core/../misc/lv_style.h **** typedef enum {
 119:lvgl/src/core/../misc/lv_style.h ****     LV_STYLE_PROP_INV                = 0,
 120:lvgl/src/core/../misc/lv_style.h **** 
 121:lvgl/src/core/../misc/lv_style.h ****     /*Group 0*/
 122:lvgl/src/core/../misc/lv_style.h ****     LV_STYLE_WIDTH                   = 1 | LV_STYLE_PROP_LAYOUT_REFR,
 123:lvgl/src/core/../misc/lv_style.h ****     LV_STYLE_MIN_WIDTH               = 2 | LV_STYLE_PROP_LAYOUT_REFR,
 124:lvgl/src/core/../misc/lv_style.h ****     LV_STYLE_MAX_WIDTH               = 3 | LV_STYLE_PROP_LAYOUT_REFR,
 125:lvgl/src/core/../misc/lv_style.h ****     LV_STYLE_HEIGHT                  = 4 | LV_STYLE_PROP_LAYOUT_REFR,
 126:lvgl/src/core/../misc/lv_style.h ****     LV_STYLE_MIN_HEIGHT              = 5 | LV_STYLE_PROP_LAYOUT_REFR,
 127:lvgl/src/core/../misc/lv_style.h ****     LV_STYLE_MAX_HEIGHT              = 6 | LV_STYLE_PROP_LAYOUT_REFR,
 128:lvgl/src/core/../misc/lv_style.h ****     LV_STYLE_X                       = 7 | LV_STYLE_PROP_LAYOUT_REFR,
 129:lvgl/src/core/../misc/lv_style.h ****     LV_STYLE_Y                       = 8 | LV_STYLE_PROP_LAYOUT_REFR,
 130:lvgl/src/core/../misc/lv_style.h ****     LV_STYLE_ALIGN                   = 9 | LV_STYLE_PROP_LAYOUT_REFR,
 131:lvgl/src/core/../misc/lv_style.h ****     LV_STYLE_TRANSFORM_WIDTH         = 10 | LV_STYLE_PROP_EXT_DRAW,
 132:lvgl/src/core/../misc/lv_style.h ****     LV_STYLE_TRANSFORM_HEIGHT        = 11 | LV_STYLE_PROP_EXT_DRAW,
 133:lvgl/src/core/../misc/lv_style.h ****     LV_STYLE_TRANSLATE_X             = 12 | LV_STYLE_PROP_LAYOUT_REFR | LV_STYLE_PROP_PARENT_LAYOUT
 134:lvgl/src/core/../misc/lv_style.h ****     LV_STYLE_TRANSLATE_Y             = 13 | LV_STYLE_PROP_LAYOUT_REFR | LV_STYLE_PROP_PARENT_LAYOUT
 135:lvgl/src/core/../misc/lv_style.h ****     LV_STYLE_TRANSFORM_ZOOM          = 14 | LV_STYLE_PROP_EXT_DRAW,
 136:lvgl/src/core/../misc/lv_style.h ****     LV_STYLE_TRANSFORM_ANGLE         = 15 | LV_STYLE_PROP_EXT_DRAW,
 137:lvgl/src/core/../misc/lv_style.h **** 
 138:lvgl/src/core/../misc/lv_style.h ****     /*Group 1*/
 139:lvgl/src/core/../misc/lv_style.h ****     LV_STYLE_PAD_TOP                 = 16 | LV_STYLE_PROP_LAYOUT_REFR,
 140:lvgl/src/core/../misc/lv_style.h ****     LV_STYLE_PAD_BOTTOM              = 17 | LV_STYLE_PROP_LAYOUT_REFR,
 141:lvgl/src/core/../misc/lv_style.h ****     LV_STYLE_PAD_LEFT                = 18 | LV_STYLE_PROP_LAYOUT_REFR,
 142:lvgl/src/core/../misc/lv_style.h ****     LV_STYLE_PAD_RIGHT               = 19 | LV_STYLE_PROP_LAYOUT_REFR,
 143:lvgl/src/core/../misc/lv_style.h ****     LV_STYLE_PAD_ROW                 = 20 | LV_STYLE_PROP_LAYOUT_REFR,
 144:lvgl/src/core/../misc/lv_style.h ****     LV_STYLE_PAD_COLUMN              = 21 | LV_STYLE_PROP_LAYOUT_REFR,
 145:lvgl/src/core/../misc/lv_style.h **** 
 146:lvgl/src/core/../misc/lv_style.h ****     /*Group 2*/
 147:lvgl/src/core/../misc/lv_style.h ****     LV_STYLE_BG_COLOR                = 32,
 148:lvgl/src/core/../misc/lv_style.h ****     LV_STYLE_BG_COLOR_FILTERED       = 32 | LV_STYLE_PROP_FILTER,
 149:lvgl/src/core/../misc/lv_style.h ****     LV_STYLE_BG_OPA                  = 33,
 150:lvgl/src/core/../misc/lv_style.h ****     LV_STYLE_BG_GRAD_COLOR           = 34,
ARM GAS  C:\Users\BLACK_~1\AppData\Local\Temp\ccVQcfpA.s 			page 64


 151:lvgl/src/core/../misc/lv_style.h ****     LV_STYLE_BG_GRAD_COLOR_FILTERED  = 34 | LV_STYLE_PROP_FILTER,
 152:lvgl/src/core/../misc/lv_style.h ****     LV_STYLE_BG_GRAD_DIR             = 35,
 153:lvgl/src/core/../misc/lv_style.h ****     LV_STYLE_BG_MAIN_STOP            = 36,
 154:lvgl/src/core/../misc/lv_style.h ****     LV_STYLE_BG_GRAD_STOP            = 37,
 155:lvgl/src/core/../misc/lv_style.h **** 
 156:lvgl/src/core/../misc/lv_style.h ****     LV_STYLE_BG_IMG_SRC              = 38,
 157:lvgl/src/core/../misc/lv_style.h ****     LV_STYLE_BG_IMG_OPA              = 39,
 158:lvgl/src/core/../misc/lv_style.h ****     LV_STYLE_BG_IMG_RECOLOR          = 40,
 159:lvgl/src/core/../misc/lv_style.h ****     LV_STYLE_BG_IMG_RECOLOR_FILTERED = 40 | LV_STYLE_PROP_FILTER,
 160:lvgl/src/core/../misc/lv_style.h ****     LV_STYLE_BG_IMG_RECOLOR_OPA      = 41,
 161:lvgl/src/core/../misc/lv_style.h ****     LV_STYLE_BG_IMG_TILED            = 42,
 162:lvgl/src/core/../misc/lv_style.h **** 
 163:lvgl/src/core/../misc/lv_style.h ****     /*Group 3*/
 164:lvgl/src/core/../misc/lv_style.h ****     LV_STYLE_BORDER_COLOR            = 48,
 165:lvgl/src/core/../misc/lv_style.h ****     LV_STYLE_BORDER_COLOR_FILTERED   = 48 | LV_STYLE_PROP_FILTER,
 166:lvgl/src/core/../misc/lv_style.h ****     LV_STYLE_BORDER_OPA              = 49,
 167:lvgl/src/core/../misc/lv_style.h ****     LV_STYLE_BORDER_WIDTH            = 50 | LV_STYLE_PROP_LAYOUT_REFR,
 168:lvgl/src/core/../misc/lv_style.h ****     LV_STYLE_BORDER_SIDE             = 51,
 169:lvgl/src/core/../misc/lv_style.h ****     LV_STYLE_BORDER_POST             = 52,
 170:lvgl/src/core/../misc/lv_style.h **** 
 171:lvgl/src/core/../misc/lv_style.h ****     LV_STYLE_OUTLINE_WIDTH           = 58 | LV_STYLE_PROP_EXT_DRAW,
 172:lvgl/src/core/../misc/lv_style.h ****     LV_STYLE_OUTLINE_COLOR           = 59,
 173:lvgl/src/core/../misc/lv_style.h ****     LV_STYLE_OUTLINE_COLOR_FILTERED  = 59 | LV_STYLE_PROP_FILTER,
 174:lvgl/src/core/../misc/lv_style.h ****     LV_STYLE_OUTLINE_OPA             = 60 | LV_STYLE_PROP_EXT_DRAW,
 175:lvgl/src/core/../misc/lv_style.h ****     LV_STYLE_OUTLINE_PAD             = 61 | LV_STYLE_PROP_EXT_DRAW,
 176:lvgl/src/core/../misc/lv_style.h **** 
 177:lvgl/src/core/../misc/lv_style.h ****     /*Group 4*/
 178:lvgl/src/core/../misc/lv_style.h ****     LV_STYLE_SHADOW_WIDTH            = 64 | LV_STYLE_PROP_EXT_DRAW,
 179:lvgl/src/core/../misc/lv_style.h ****     LV_STYLE_SHADOW_OFS_X            = 65 | LV_STYLE_PROP_EXT_DRAW,
 180:lvgl/src/core/../misc/lv_style.h ****     LV_STYLE_SHADOW_OFS_Y            = 66 | LV_STYLE_PROP_EXT_DRAW,
 181:lvgl/src/core/../misc/lv_style.h ****     LV_STYLE_SHADOW_SPREAD           = 67 | LV_STYLE_PROP_EXT_DRAW,
 182:lvgl/src/core/../misc/lv_style.h ****     LV_STYLE_SHADOW_COLOR            = 68,
 183:lvgl/src/core/../misc/lv_style.h ****     LV_STYLE_SHADOW_COLOR_FILTERED   = 68 | LV_STYLE_PROP_FILTER,
 184:lvgl/src/core/../misc/lv_style.h ****     LV_STYLE_SHADOW_OPA              = 69 | LV_STYLE_PROP_EXT_DRAW,
 185:lvgl/src/core/../misc/lv_style.h **** 
 186:lvgl/src/core/../misc/lv_style.h ****     LV_STYLE_IMG_OPA                 = 70,
 187:lvgl/src/core/../misc/lv_style.h ****     LV_STYLE_IMG_RECOLOR             = 71,
 188:lvgl/src/core/../misc/lv_style.h ****     LV_STYLE_IMG_RECOLOR_FILTERED    = 71 | LV_STYLE_PROP_FILTER,
 189:lvgl/src/core/../misc/lv_style.h ****     LV_STYLE_IMG_RECOLOR_OPA         = 72,
 190:lvgl/src/core/../misc/lv_style.h **** 
 191:lvgl/src/core/../misc/lv_style.h ****     LV_STYLE_LINE_WIDTH              = 73 | LV_STYLE_PROP_EXT_DRAW,
 192:lvgl/src/core/../misc/lv_style.h ****     LV_STYLE_LINE_DASH_WIDTH         = 74,
 193:lvgl/src/core/../misc/lv_style.h ****     LV_STYLE_LINE_DASH_GAP           = 75,
 194:lvgl/src/core/../misc/lv_style.h ****     LV_STYLE_LINE_ROUNDED            = 76,
 195:lvgl/src/core/../misc/lv_style.h ****     LV_STYLE_LINE_COLOR              = 77,
 196:lvgl/src/core/../misc/lv_style.h ****     LV_STYLE_LINE_COLOR_FILTERED     = 77 | LV_STYLE_PROP_FILTER,
 197:lvgl/src/core/../misc/lv_style.h ****     LV_STYLE_LINE_OPA                = 78,
 198:lvgl/src/core/../misc/lv_style.h **** 
 199:lvgl/src/core/../misc/lv_style.h ****     /*Group 5*/
 200:lvgl/src/core/../misc/lv_style.h ****     LV_STYLE_ARC_WIDTH               = 80 | LV_STYLE_PROP_EXT_DRAW,
 201:lvgl/src/core/../misc/lv_style.h ****     LV_STYLE_ARC_ROUNDED             = 81,
 202:lvgl/src/core/../misc/lv_style.h ****     LV_STYLE_ARC_COLOR               = 82,
 203:lvgl/src/core/../misc/lv_style.h ****     LV_STYLE_ARC_COLOR_FILTERED      = 82 | LV_STYLE_PROP_FILTER,
 204:lvgl/src/core/../misc/lv_style.h ****     LV_STYLE_ARC_OPA                 = 83,
 205:lvgl/src/core/../misc/lv_style.h ****     LV_STYLE_ARC_IMG_SRC             = 84,
 206:lvgl/src/core/../misc/lv_style.h **** 
 207:lvgl/src/core/../misc/lv_style.h ****     LV_STYLE_TEXT_COLOR              = 87 | LV_STYLE_PROP_INHERIT,
ARM GAS  C:\Users\BLACK_~1\AppData\Local\Temp\ccVQcfpA.s 			page 65


 208:lvgl/src/core/../misc/lv_style.h ****     LV_STYLE_TEXT_COLOR_FILTERED     = 87 | LV_STYLE_PROP_INHERIT | LV_STYLE_PROP_FILTER,
 209:lvgl/src/core/../misc/lv_style.h ****     LV_STYLE_TEXT_OPA                = 88 | LV_STYLE_PROP_INHERIT,
 210:lvgl/src/core/../misc/lv_style.h ****     LV_STYLE_TEXT_FONT               = 89 | LV_STYLE_PROP_INHERIT | LV_STYLE_PROP_LAYOUT_REFR,
 211:lvgl/src/core/../misc/lv_style.h ****     LV_STYLE_TEXT_LETTER_SPACE       = 90 | LV_STYLE_PROP_INHERIT | LV_STYLE_PROP_LAYOUT_REFR,
 212:lvgl/src/core/../misc/lv_style.h ****     LV_STYLE_TEXT_LINE_SPACE         = 91 | LV_STYLE_PROP_INHERIT | LV_STYLE_PROP_LAYOUT_REFR,
 213:lvgl/src/core/../misc/lv_style.h ****     LV_STYLE_TEXT_DECOR              = 92 | LV_STYLE_PROP_INHERIT,
 214:lvgl/src/core/../misc/lv_style.h ****     LV_STYLE_TEXT_ALIGN              = 93 | LV_STYLE_PROP_INHERIT | LV_STYLE_PROP_LAYOUT_REFR,
 215:lvgl/src/core/../misc/lv_style.h **** 
 216:lvgl/src/core/../misc/lv_style.h ****     /*Group 6*/
 217:lvgl/src/core/../misc/lv_style.h ****     LV_STYLE_RADIUS                  = 96,
 218:lvgl/src/core/../misc/lv_style.h ****     LV_STYLE_CLIP_CORNER             = 97,
 219:lvgl/src/core/../misc/lv_style.h ****     LV_STYLE_OPA                     = 98 | LV_STYLE_PROP_INHERIT,
 220:lvgl/src/core/../misc/lv_style.h ****     LV_STYLE_COLOR_FILTER_DSC        = 99,
 221:lvgl/src/core/../misc/lv_style.h ****     LV_STYLE_COLOR_FILTER_OPA        = 100,
 222:lvgl/src/core/../misc/lv_style.h ****     LV_STYLE_ANIM_TIME               = 101,
 223:lvgl/src/core/../misc/lv_style.h ****     LV_STYLE_ANIM_SPEED              = 102,
 224:lvgl/src/core/../misc/lv_style.h ****     LV_STYLE_TRANSITION              = 103,
 225:lvgl/src/core/../misc/lv_style.h ****     LV_STYLE_BLEND_MODE              = 104,
 226:lvgl/src/core/../misc/lv_style.h ****     LV_STYLE_LAYOUT                  = 105 | LV_STYLE_PROP_LAYOUT_REFR,
 227:lvgl/src/core/../misc/lv_style.h ****     LV_STYLE_BASE_DIR                = 106 | LV_STYLE_PROP_INHERIT | LV_STYLE_PROP_LAYOUT_REFR,
 228:lvgl/src/core/../misc/lv_style.h **** 
 229:lvgl/src/core/../misc/lv_style.h ****     _LV_STYLE_LAST_BUILT_IN_PROP     = 111,
 230:lvgl/src/core/../misc/lv_style.h **** 
 231:lvgl/src/core/../misc/lv_style.h ****     LV_STYLE_PROP_ANY                = 0xFFFF
 232:lvgl/src/core/../misc/lv_style.h **** }lv_style_prop_t;
 233:lvgl/src/core/../misc/lv_style.h **** 
 234:lvgl/src/core/../misc/lv_style.h **** /**
 235:lvgl/src/core/../misc/lv_style.h ****  * Descriptor for style transitions
 236:lvgl/src/core/../misc/lv_style.h ****  */
 237:lvgl/src/core/../misc/lv_style.h **** typedef struct {
 238:lvgl/src/core/../misc/lv_style.h ****     const lv_style_prop_t * props; /**< An array with the properties to animate.*/
 239:lvgl/src/core/../misc/lv_style.h **** #if LV_USE_USER_DATA
 240:lvgl/src/core/../misc/lv_style.h ****     void * user_data;              /**< A custom user data that will be passed to the animation's u
 241:lvgl/src/core/../misc/lv_style.h **** #endif
 242:lvgl/src/core/../misc/lv_style.h ****     lv_anim_path_cb_t path_xcb;     /**< A path for the animation.*/
 243:lvgl/src/core/../misc/lv_style.h ****     uint32_t time;                 /**< Duration of the transition in [ms]*/
 244:lvgl/src/core/../misc/lv_style.h ****     uint32_t delay;                /**< Delay before the transition in [ms]*/
 245:lvgl/src/core/../misc/lv_style.h **** }lv_style_transition_dsc_t;
 246:lvgl/src/core/../misc/lv_style.h **** 
 247:lvgl/src/core/../misc/lv_style.h **** /**
 248:lvgl/src/core/../misc/lv_style.h ****  * Descriptor of a constant style property.
 249:lvgl/src/core/../misc/lv_style.h ****  */
 250:lvgl/src/core/../misc/lv_style.h **** typedef struct {
 251:lvgl/src/core/../misc/lv_style.h ****     lv_style_prop_t prop;
 252:lvgl/src/core/../misc/lv_style.h ****     lv_style_value_t value;
 253:lvgl/src/core/../misc/lv_style.h **** } lv_style_const_prop_t;
 254:lvgl/src/core/../misc/lv_style.h **** 
 255:lvgl/src/core/../misc/lv_style.h **** /**
 256:lvgl/src/core/../misc/lv_style.h ****  * Descriptor of a style (a collection of properties and values).
 257:lvgl/src/core/../misc/lv_style.h ****  */
 258:lvgl/src/core/../misc/lv_style.h **** typedef struct {
 259:lvgl/src/core/../misc/lv_style.h **** 
 260:lvgl/src/core/../misc/lv_style.h **** #if LV_USE_ASSERT_STYLE
 261:lvgl/src/core/../misc/lv_style.h ****     uint32_t sentinel;
 262:lvgl/src/core/../misc/lv_style.h **** #endif
 263:lvgl/src/core/../misc/lv_style.h **** 
 264:lvgl/src/core/../misc/lv_style.h ****     /*If there is only one property store it directly.
ARM GAS  C:\Users\BLACK_~1\AppData\Local\Temp\ccVQcfpA.s 			page 66


 265:lvgl/src/core/../misc/lv_style.h ****      *For more properties allocate an array*/
 266:lvgl/src/core/../misc/lv_style.h ****     union {
 267:lvgl/src/core/../misc/lv_style.h ****         lv_style_value_t value1;
 268:lvgl/src/core/../misc/lv_style.h ****         uint8_t * values_and_props;
 269:lvgl/src/core/../misc/lv_style.h ****         const lv_style_const_prop_t * const_props;
 270:lvgl/src/core/../misc/lv_style.h ****     } v_p;
 271:lvgl/src/core/../misc/lv_style.h **** 
 272:lvgl/src/core/../misc/lv_style.h ****     uint16_t prop1 :15;
 273:lvgl/src/core/../misc/lv_style.h ****     uint16_t is_const :1;
 274:lvgl/src/core/../misc/lv_style.h ****     uint8_t has_group;
 275:lvgl/src/core/../misc/lv_style.h ****     uint8_t prop_cnt;
 276:lvgl/src/core/../misc/lv_style.h **** } lv_style_t;
 277:lvgl/src/core/../misc/lv_style.h **** 
 278:lvgl/src/core/../misc/lv_style.h **** /**********************
 279:lvgl/src/core/../misc/lv_style.h ****  * GLOBAL PROTOTYPES
 280:lvgl/src/core/../misc/lv_style.h ****  **********************/
 281:lvgl/src/core/../misc/lv_style.h **** 
 282:lvgl/src/core/../misc/lv_style.h **** 
 283:lvgl/src/core/../misc/lv_style.h **** /**
 284:lvgl/src/core/../misc/lv_style.h ****  * Initialize a style
 285:lvgl/src/core/../misc/lv_style.h ****  * @param style pointer to a style to initialize
 286:lvgl/src/core/../misc/lv_style.h ****  * @note Do not call `lv_style_init` on styles that are already have some properties
 287:lvgl/src/core/../misc/lv_style.h ****  *       because this function won't free the used memory just set a default state for the style.
 288:lvgl/src/core/../misc/lv_style.h ****  *       In other words be sure to initialize styles only once!
 289:lvgl/src/core/../misc/lv_style.h ****  */
 290:lvgl/src/core/../misc/lv_style.h **** void lv_style_init(lv_style_t * style);
 291:lvgl/src/core/../misc/lv_style.h **** 
 292:lvgl/src/core/../misc/lv_style.h **** /**
 293:lvgl/src/core/../misc/lv_style.h ****  * Clear all properties from a style and free all allocated memories.
 294:lvgl/src/core/../misc/lv_style.h ****  * @param style pointer to a style
 295:lvgl/src/core/../misc/lv_style.h ****  */
 296:lvgl/src/core/../misc/lv_style.h **** void lv_style_reset(lv_style_t * style);
 297:lvgl/src/core/../misc/lv_style.h **** 
 298:lvgl/src/core/../misc/lv_style.h **** /**
 299:lvgl/src/core/../misc/lv_style.h ****  * Register a new style property for custom usage
 300:lvgl/src/core/../misc/lv_style.h ****  * @return a new property ID.
 301:lvgl/src/core/../misc/lv_style.h ****  * @example
 302:lvgl/src/core/../misc/lv_style.h ****  * lv_style_prop_t MY_PROP;
 303:lvgl/src/core/../misc/lv_style.h ****  * static inline void lv_style_set_my_prop(lv_style_t * style, lv_color_t value) {
 304:lvgl/src/core/../misc/lv_style.h ****  * lv_style_value_t v = {.color = value}; lv_style_set_prop(style, MY_PROP, v); }
 305:lvgl/src/core/../misc/lv_style.h ****  *
 306:lvgl/src/core/../misc/lv_style.h ****  * ...
 307:lvgl/src/core/../misc/lv_style.h ****  * MY_PROP = lv_style_register_prop();
 308:lvgl/src/core/../misc/lv_style.h ****  * ...
 309:lvgl/src/core/../misc/lv_style.h ****  * lv_style_set_my_prop(&style1, lv_palette_main(LV_PALETTE_RED));
 310:lvgl/src/core/../misc/lv_style.h ****  */
 311:lvgl/src/core/../misc/lv_style.h **** lv_style_prop_t lv_style_register_prop(void);
 312:lvgl/src/core/../misc/lv_style.h **** 
 313:lvgl/src/core/../misc/lv_style.h **** /**
 314:lvgl/src/core/../misc/lv_style.h ****  * Remove a property from a style
 315:lvgl/src/core/../misc/lv_style.h ****  * @param style pointer to a style
 316:lvgl/src/core/../misc/lv_style.h ****  * @param prop  a style property ORed with a state.
 317:lvgl/src/core/../misc/lv_style.h ****  * @return true: the property was found and removed; false: the property wasn't found
 318:lvgl/src/core/../misc/lv_style.h ****  */
 319:lvgl/src/core/../misc/lv_style.h **** bool lv_style_remove_prop(lv_style_t * style, lv_style_prop_t prop);
 320:lvgl/src/core/../misc/lv_style.h **** 
 321:lvgl/src/core/../misc/lv_style.h **** /**
ARM GAS  C:\Users\BLACK_~1\AppData\Local\Temp\ccVQcfpA.s 			page 67


 322:lvgl/src/core/../misc/lv_style.h ****  * Set the value of property in a style.
 323:lvgl/src/core/../misc/lv_style.h ****  * This function shouldn't be used directly by the user.
 324:lvgl/src/core/../misc/lv_style.h ****  * Instead use `lv_style_set_<prop_name>()`. E.g. `lv_style_set_bg_color()`
 325:lvgl/src/core/../misc/lv_style.h ****  * @param style pointer to style
 326:lvgl/src/core/../misc/lv_style.h ****  * @param prop the ID of a property (e.g. `LV_STLYE_BG_COLOR`)
 327:lvgl/src/core/../misc/lv_style.h ****  * @param value `lv_style_value_t` variable in which a filed is set according to the type of `prop`
 328:lvgl/src/core/../misc/lv_style.h ****  */
 329:lvgl/src/core/../misc/lv_style.h **** void lv_style_set_prop(lv_style_t * style, lv_style_prop_t prop, lv_style_value_t value);
 330:lvgl/src/core/../misc/lv_style.h **** 
 331:lvgl/src/core/../misc/lv_style.h **** /**
 332:lvgl/src/core/../misc/lv_style.h ****  * Get the value of a property
 333:lvgl/src/core/../misc/lv_style.h ****  * @param style pointer to a style
 334:lvgl/src/core/../misc/lv_style.h ****  * @param prop  the ID of a property
 335:lvgl/src/core/../misc/lv_style.h ****  * @param value pointer to a `lv_style_value_t` variable to store the value
 336:lvgl/src/core/../misc/lv_style.h ****  * @return LV_RES_INV: the property wsn't found in the style (`value` is unchanged)
 337:lvgl/src/core/../misc/lv_style.h ****  *         LV_RES_OK: the property was fond, and `value` is set accordingly
 338:lvgl/src/core/../misc/lv_style.h ****  * @note For performance reasons there are no sanity check on `style`
 339:lvgl/src/core/../misc/lv_style.h ****  */
 340:lvgl/src/core/../misc/lv_style.h **** lv_res_t lv_style_get_prop(lv_style_t * style, lv_style_prop_t prop, lv_style_value_t * value);
 341:lvgl/src/core/../misc/lv_style.h **** 
 342:lvgl/src/core/../misc/lv_style.h **** 
 343:lvgl/src/core/../misc/lv_style.h **** /**
 344:lvgl/src/core/../misc/lv_style.h ****  * Get the value of a property
 345:lvgl/src/core/../misc/lv_style.h ****  * @param style pointer to a style
 346:lvgl/src/core/../misc/lv_style.h ****  * @param prop  the ID of a property
 347:lvgl/src/core/../misc/lv_style.h ****  * @param value pointer to a `lv_style_value_t` variable to store the value
 348:lvgl/src/core/../misc/lv_style.h ****  * @return LV_RES_INV: the property wsn't found in the style (`value` is unchanged)
 349:lvgl/src/core/../misc/lv_style.h ****  *         LV_RES_OK: the property was fond, and `value` is set accordingly
 350:lvgl/src/core/../misc/lv_style.h ****  * @note For performance reasons there are no sanity check on `style`
 351:lvgl/src/core/../misc/lv_style.h ****  * @note This function is the same as ::lv_style_get_prop but inlined. Use it only on performance c
 352:lvgl/src/core/../misc/lv_style.h ****  */
 353:lvgl/src/core/../misc/lv_style.h **** static inline lv_res_t lv_style_get_prop_inlined(lv_style_t * style, lv_style_prop_t prop, lv_style
 354:lvgl/src/core/../misc/lv_style.h **** {
 355:lvgl/src/core/../misc/lv_style.h ****     if(style->is_const) {
 356:lvgl/src/core/../misc/lv_style.h ****         const lv_style_const_prop_t *const_prop;
 1575              		.loc 4 356 9 is_stmt 1 view .LVU537
 357:lvgl/src/core/../misc/lv_style.h ****         for(const_prop = style->v_p.const_props; const_prop->prop != LV_STYLE_PROP_INV; const_prop+
 1576              		.loc 4 357 9 view .LVU538
 1577              		.loc 4 357 24 is_stmt 0 view .LVU539
 1578 0040 1B68     		ldr	r3, [r3]
 1579              	.LVL151:
 1580              	.L65:
 1581              		.loc 4 357 50 is_stmt 1 view .LVU540
 1582              		.loc 4 357 60 is_stmt 0 view .LVU541
 1583 0042 1A88     		ldrh	r2, [r3]
 1584              		.loc 4 357 9 view .LVU542
 1585 0044 B2B1     		cbz	r2, .L67
 358:lvgl/src/core/../misc/lv_style.h ****             if(const_prop->prop == prop) {
 1586              		.loc 4 358 13 is_stmt 1 view .LVU543
 1587              		.loc 4 358 15 is_stmt 0 view .LVU544
 1588 0046 672A     		cmp	r2, #103
 1589 0048 01D0     		beq	.L93
 357:lvgl/src/core/../misc/lv_style.h ****         for(const_prop = style->v_p.const_props; const_prop->prop != LV_STYLE_PROP_INV; const_prop+
 1590              		.loc 4 357 89 is_stmt 1 view .LVU545
 357:lvgl/src/core/../misc/lv_style.h ****         for(const_prop = style->v_p.const_props; const_prop->prop != LV_STYLE_PROP_INV; const_prop+
 1591              		.loc 4 357 99 is_stmt 0 view .LVU546
 1592 004a 0833     		adds	r3, r3, #8
ARM GAS  C:\Users\BLACK_~1\AppData\Local\Temp\ccVQcfpA.s 			page 68


 1593              	.LVL152:
 357:lvgl/src/core/../misc/lv_style.h ****         for(const_prop = style->v_p.const_props; const_prop->prop != LV_STYLE_PROP_INV; const_prop+
 1594              		.loc 4 357 99 view .LVU547
 1595 004c F9E7     		b	.L65
 1596              	.L93:
 359:lvgl/src/core/../misc/lv_style.h ****                 *value = const_prop->value;
 1597              		.loc 4 359 17 is_stmt 1 view .LVU548
 1598              		.loc 4 359 24 is_stmt 0 view .LVU549
 1599 004e 5B68     		ldr	r3, [r3, #4]
 1600              	.LVL153:
 1601              		.loc 4 359 24 view .LVU550
 1602 0050 0B93     		str	r3, [sp, #44]
 360:lvgl/src/core/../misc/lv_style.h ****                 return LV_RES_OK;
 1603              		.loc 4 360 17 is_stmt 1 view .LVU551
 1604              		.loc 4 360 24 is_stmt 0 view .LVU552
 1605 0052 0121     		movs	r1, #1
 1606 0054 0EE0     		b	.L67
 1607              	.LVL154:
 1608              	.L97:
 1609              		.loc 4 360 24 view .LVU553
 1610              	.LBE185:
 1611              	.LBB186:
 1612              	.LBB187:
 361:lvgl/src/core/../misc/lv_style.h ****             }
 362:lvgl/src/core/../misc/lv_style.h ****         }
 363:lvgl/src/core/../misc/lv_style.h ****         return LV_RES_INV;
 364:lvgl/src/core/../misc/lv_style.h ****     }
 365:lvgl/src/core/../misc/lv_style.h **** 
 366:lvgl/src/core/../misc/lv_style.h ****     if(style->prop_cnt == 0) return LV_RES_INV;
 367:lvgl/src/core/../misc/lv_style.h **** 
 368:lvgl/src/core/../misc/lv_style.h ****     if(style->prop_cnt > 1) {
 369:lvgl/src/core/../misc/lv_style.h ****         uint8_t * tmp = style->v_p.values_and_props + style->prop_cnt * sizeof(lv_style_value_t);
 370:lvgl/src/core/../misc/lv_style.h ****         uint16_t * props = (uint16_t *)tmp;
 371:lvgl/src/core/../misc/lv_style.h ****         uint32_t i;
 372:lvgl/src/core/../misc/lv_style.h ****         for(i = 0; i < style->prop_cnt; i++) {
 373:lvgl/src/core/../misc/lv_style.h ****             if(props[i] == prop) {
 374:lvgl/src/core/../misc/lv_style.h ****                 lv_style_value_t * values = (lv_style_value_t *)style->v_p.values_and_props;
 1613              		.loc 4 374 17 is_stmt 1 view .LVU554
 375:lvgl/src/core/../misc/lv_style.h ****                 *value = values[i];
 1614              		.loc 4 375 17 view .LVU555
 1615              		.loc 4 375 24 is_stmt 0 view .LVU556
 1616 0056 54F82330 		ldr	r3, [r4, r3, lsl #2]
 1617              	.LVL155:
 1618              		.loc 4 375 24 view .LVU557
 1619 005a 0B93     		str	r3, [sp, #44]
 376:lvgl/src/core/../misc/lv_style.h ****                 return LV_RES_OK;
 1620              		.loc 4 376 17 is_stmt 1 view .LVU558
 1621              		.loc 4 376 24 is_stmt 0 view .LVU559
 1622 005c 0121     		movs	r1, #1
 1623 005e 09E0     		b	.L67
 1624              	.LVL156:
 1625              	.L69:
 1626              		.loc 4 376 24 view .LVU560
 1627              	.LBE187:
 1628              	.LBE186:
 377:lvgl/src/core/../misc/lv_style.h ****             }
 378:lvgl/src/core/../misc/lv_style.h ****         }
ARM GAS  C:\Users\BLACK_~1\AppData\Local\Temp\ccVQcfpA.s 			page 69


 379:lvgl/src/core/../misc/lv_style.h ****     } else if(style->prop1 == prop) {
 1629              		.loc 4 379 12 is_stmt 1 view .LVU561
 1630              		.loc 4 379 20 is_stmt 0 view .LVU562
 1631 0060 9A88     		ldrh	r2, [r3, #4]
 1632 0062 C2F30E02 		ubfx	r2, r2, #0, #15
 1633              		.loc 4 379 14 view .LVU563
 1634 0066 672A     		cmp	r2, #103
 1635 0068 04D1     		bne	.L67
 380:lvgl/src/core/../misc/lv_style.h ****         *value = style->v_p.value1;
 1636              		.loc 4 380 9 is_stmt 1 view .LVU564
 1637              		.loc 4 380 16 is_stmt 0 view .LVU565
 1638 006a 1B68     		ldr	r3, [r3]
 1639              	.LVL157:
 1640              		.loc 4 380 16 view .LVU566
 1641 006c 0B93     		str	r3, [sp, #44]
 381:lvgl/src/core/../misc/lv_style.h ****         return LV_RES_OK;
 1642              		.loc 4 381 9 is_stmt 1 view .LVU567
 1643              		.loc 4 381 16 is_stmt 0 view .LVU568
 1644 006e 0121     		movs	r1, #1
 1645 0070 00E0     		b	.L67
 1646              	.LVL158:
 1647              	.L87:
 366:lvgl/src/core/../misc/lv_style.h **** 
 1648              		.loc 4 366 37 view .LVU569
 1649 0072 1146     		mov	r1, r2
 1650              	.LVL159:
 1651              	.L67:
 366:lvgl/src/core/../misc/lv_style.h **** 
 1652              		.loc 4 366 37 view .LVU570
 1653              	.LBE184:
 1654              	.LBE183:
 764:lvgl/src/core/lv_obj.c ****         const lv_style_transition_dsc_t * tr = v.ptr;
 1655              		.loc 1 764 11 view .LVU571
 1656 0074 0029     		cmp	r1, #0
 1657 0076 42D1     		bne	.L94
 1658              	.LVL160:
 1659              	.L80:
 764:lvgl/src/core/lv_obj.c ****         const lv_style_transition_dsc_t * tr = v.ptr;
 1660              		.loc 1 764 11 view .LVU572
 1661              	.LBE182:
 756:lvgl/src/core/lv_obj.c ****         _lv_obj_style_t * obj_style = &obj->styles[i];
 1662              		.loc 1 756 66 is_stmt 1 discriminator 2 view .LVU573
 756:lvgl/src/core/lv_obj.c ****         _lv_obj_style_t * obj_style = &obj->styles[i];
 1663              		.loc 1 756 67 is_stmt 0 discriminator 2 view .LVU574
 1664 0078 039B     		ldr	r3, [sp, #12]
 1665              	.LVL161:
 756:lvgl/src/core/lv_obj.c ****         _lv_obj_style_t * obj_style = &obj->styles[i];
 1666              		.loc 1 756 67 discriminator 2 view .LVU575
 1667 007a 0133     		adds	r3, r3, #1
 1668 007c 0393     		str	r3, [sp, #12]
 1669              	.LVL162:
 1670              	.L62:
 756:lvgl/src/core/lv_obj.c ****         _lv_obj_style_t * obj_style = &obj->styles[i];
 1671              		.loc 1 756 16 is_stmt 1 discriminator 1 view .LVU576
 756:lvgl/src/core/lv_obj.c ****         _lv_obj_style_t * obj_style = &obj->styles[i];
 1672              		.loc 1 756 23 is_stmt 0 discriminator 1 view .LVU577
 1673 007e 069B     		ldr	r3, [sp, #24]
ARM GAS  C:\Users\BLACK_~1\AppData\Local\Temp\ccVQcfpA.s 			page 70


 1674 0080 5B8C     		ldrh	r3, [r3, #34]
 1675 0082 C3F3C503 		ubfx	r3, r3, #3, #6
 756:lvgl/src/core/lv_obj.c ****         _lv_obj_style_t * obj_style = &obj->styles[i];
 1676              		.loc 1 756 5 discriminator 1 view .LVU578
 1677 0086 039A     		ldr	r2, [sp, #12]
 1678 0088 9342     		cmp	r3, r2
 1679 008a 40F2B680 		bls	.L89
 756:lvgl/src/core/lv_obj.c ****         _lv_obj_style_t * obj_style = &obj->styles[i];
 1680              		.loc 1 756 35 discriminator 3 view .LVU579
 1681 008e BBF11F0F 		cmp	fp, #31
 1682 0092 00F28680 		bhi	.L95
 1683              	.LBB194:
 757:lvgl/src/core/lv_obj.c ****         lv_state_t state_act = lv_obj_style_get_selector_state(obj->styles[i].selector);
 1684              		.loc 1 757 9 is_stmt 1 view .LVU580
 757:lvgl/src/core/lv_obj.c ****         lv_state_t state_act = lv_obj_style_get_selector_state(obj->styles[i].selector);
 1685              		.loc 1 757 43 is_stmt 0 view .LVU581
 1686 0096 069E     		ldr	r6, [sp, #24]
 1687 0098 F568     		ldr	r5, [r6, #12]
 757:lvgl/src/core/lv_obj.c ****         lv_state_t state_act = lv_obj_style_get_selector_state(obj->styles[i].selector);
 1688              		.loc 1 757 51 view .LVU582
 1689 009a 039B     		ldr	r3, [sp, #12]
 1690 009c DC00     		lsls	r4, r3, #3
 757:lvgl/src/core/lv_obj.c ****         lv_state_t state_act = lv_obj_style_get_selector_state(obj->styles[i].selector);
 1691              		.loc 1 757 27 view .LVU583
 1692 009e 05EBC307 		add	r7, r5, r3, lsl #3
 1693 00a2 0897     		str	r7, [sp, #32]
 1694              	.LVL163:
 758:lvgl/src/core/lv_obj.c ****         lv_part_t part_act = lv_obj_style_get_selector_part(obj->styles[i].selector);
 1695              		.loc 1 758 9 is_stmt 1 view .LVU584
 758:lvgl/src/core/lv_obj.c ****         lv_part_t part_act = lv_obj_style_get_selector_part(obj->styles[i].selector);
 1696              		.loc 1 758 78 is_stmt 0 view .LVU585
 1697 00a4 7868     		ldr	r0, [r7, #4]
 758:lvgl/src/core/lv_obj.c ****         lv_part_t part_act = lv_obj_style_get_selector_part(obj->styles[i].selector);
 1698              		.loc 1 758 32 view .LVU586
 1699 00a6 20F07F40 		bic	r0, r0, #-16777216
 1700 00aa FFF7FEFF 		bl	lv_obj_style_get_selector_state
 1701              	.LVL164:
 1702 00ae 8046     		mov	r8, r0
 1703 00b0 0590     		str	r0, [sp, #20]
 1704              	.LVL165:
 759:lvgl/src/core/lv_obj.c ****         if(state_act & (~new_state)) continue; /*Skip unrelated styles*/
 1705              		.loc 1 759 9 is_stmt 1 view .LVU587
 759:lvgl/src/core/lv_obj.c ****         if(state_act & (~new_state)) continue; /*Skip unrelated styles*/
 1706              		.loc 1 759 64 is_stmt 0 view .LVU588
 1707 00b2 F368     		ldr	r3, [r6, #12]
 759:lvgl/src/core/lv_obj.c ****         if(state_act & (~new_state)) continue; /*Skip unrelated styles*/
 1708              		.loc 1 759 72 view .LVU589
 1709 00b4 2344     		add	r3, r3, r4
 759:lvgl/src/core/lv_obj.c ****         if(state_act & (~new_state)) continue; /*Skip unrelated styles*/
 1710              		.loc 1 759 75 view .LVU590
 1711 00b6 5868     		ldr	r0, [r3, #4]
 759:lvgl/src/core/lv_obj.c ****         if(state_act & (~new_state)) continue; /*Skip unrelated styles*/
 1712              		.loc 1 759 30 view .LVU591
 1713 00b8 20F07F40 		bic	r0, r0, #-16777216
 1714 00bc FFF7FEFF 		bl	lv_obj_style_get_selector_part
 1715              	.LVL166:
 1716 00c0 0646     		mov	r6, r0
ARM GAS  C:\Users\BLACK_~1\AppData\Local\Temp\ccVQcfpA.s 			page 71


 1717              	.LVL167:
 760:lvgl/src/core/lv_obj.c ****         if(obj_style->is_trans) continue;
 1718              		.loc 1 760 9 is_stmt 1 view .LVU592
 760:lvgl/src/core/lv_obj.c ****         if(obj_style->is_trans) continue;
 1719              		.loc 1 760 11 is_stmt 0 view .LVU593
 1720 00c2 4346     		mov	r3, r8
 1721 00c4 079A     		ldr	r2, [sp, #28]
 1722 00c6 9343     		bics	r3, r3, r2
 1723 00c8 D6D1     		bne	.L80
 761:lvgl/src/core/lv_obj.c **** 
 1724              		.loc 1 761 9 is_stmt 1 view .LVU594
 761:lvgl/src/core/lv_obj.c **** 
 1725              		.loc 1 761 12 is_stmt 0 view .LVU595
 1726 00ca FB79     		ldrb	r3, [r7, #7]	@ zero_extendqisi2
 761:lvgl/src/core/lv_obj.c **** 
 1727              		.loc 1 761 11 view .LVU596
 1728 00cc 13F00201 		ands	r1, r3, #2
 1729 00d0 D2D1     		bne	.L80
 763:lvgl/src/core/lv_obj.c ****         if(lv_style_get_prop_inlined(obj_style->style, LV_STYLE_TRANSITION, &v) == false) continue;
 1730              		.loc 1 763 9 is_stmt 1 view .LVU597
 764:lvgl/src/core/lv_obj.c ****         const lv_style_transition_dsc_t * tr = v.ptr;
 1731              		.loc 1 764 9 view .LVU598
 764:lvgl/src/core/lv_obj.c ****         const lv_style_transition_dsc_t * tr = v.ptr;
 1732              		.loc 1 764 12 is_stmt 0 view .LVU599
 1733 00d2 2B59     		ldr	r3, [r5, r4]
 1734              	.LVL168:
 1735              	.LBB190:
 1736              	.LBI183:
 353:lvgl/src/core/../misc/lv_style.h **** {
 1737              		.loc 4 353 24 is_stmt 1 view .LVU600
 1738              	.LBB189:
 355:lvgl/src/core/../misc/lv_style.h ****         const lv_style_const_prop_t *const_prop;
 1739              		.loc 4 355 5 view .LVU601
 355:lvgl/src/core/../misc/lv_style.h ****         const lv_style_const_prop_t *const_prop;
 1740              		.loc 4 355 7 is_stmt 0 view .LVU602
 1741 00d4 93F90520 		ldrsb	r2, [r3, #5]
 1742 00d8 002A     		cmp	r2, #0
 1743 00da B1DB     		blt	.L96
 366:lvgl/src/core/../misc/lv_style.h **** 
 1744              		.loc 4 366 5 is_stmt 1 view .LVU603
 366:lvgl/src/core/../misc/lv_style.h **** 
 1745              		.loc 4 366 13 is_stmt 0 view .LVU604
 1746 00dc DA79     		ldrb	r2, [r3, #7]	@ zero_extendqisi2
 366:lvgl/src/core/../misc/lv_style.h **** 
 1747              		.loc 4 366 7 view .LVU605
 1748 00de 002A     		cmp	r2, #0
 1749 00e0 C7D0     		beq	.L87
 368:lvgl/src/core/../misc/lv_style.h ****         uint8_t * tmp = style->v_p.values_and_props + style->prop_cnt * sizeof(lv_style_value_t);
 1750              		.loc 4 368 5 is_stmt 1 view .LVU606
 368:lvgl/src/core/../misc/lv_style.h ****         uint8_t * tmp = style->v_p.values_and_props + style->prop_cnt * sizeof(lv_style_value_t);
 1751              		.loc 4 368 7 is_stmt 0 view .LVU607
 1752 00e2 012A     		cmp	r2, #1
 1753 00e4 BCD9     		bls	.L69
 1754              	.LBB188:
 369:lvgl/src/core/../misc/lv_style.h ****         uint16_t * props = (uint16_t *)tmp;
 1755              		.loc 4 369 9 is_stmt 1 view .LVU608
 369:lvgl/src/core/../misc/lv_style.h ****         uint16_t * props = (uint16_t *)tmp;
ARM GAS  C:\Users\BLACK_~1\AppData\Local\Temp\ccVQcfpA.s 			page 72


 1756              		.loc 4 369 35 is_stmt 0 view .LVU609
 1757 00e6 1C68     		ldr	r4, [r3]
 369:lvgl/src/core/../misc/lv_style.h ****         uint16_t * props = (uint16_t *)tmp;
 1758              		.loc 4 369 71 view .LVU610
 1759 00e8 9500     		lsls	r5, r2, #2
 1760              	.LVL169:
 370:lvgl/src/core/../misc/lv_style.h ****         uint32_t i;
 1761              		.loc 4 370 9 is_stmt 1 view .LVU611
 371:lvgl/src/core/../misc/lv_style.h ****         for(i = 0; i < style->prop_cnt; i++) {
 1762              		.loc 4 371 9 view .LVU612
 372:lvgl/src/core/../misc/lv_style.h ****             if(props[i] == prop) {
 1763              		.loc 4 372 9 view .LVU613
 372:lvgl/src/core/../misc/lv_style.h ****             if(props[i] == prop) {
 1764              		.loc 4 372 15 is_stmt 0 view .LVU614
 1765 00ea 0023     		movs	r3, #0
 1766              	.LVL170:
 1767              	.L70:
 372:lvgl/src/core/../misc/lv_style.h ****             if(props[i] == prop) {
 1768              		.loc 4 372 20 is_stmt 1 view .LVU615
 372:lvgl/src/core/../misc/lv_style.h ****             if(props[i] == prop) {
 1769              		.loc 4 372 9 is_stmt 0 view .LVU616
 1770 00ec 9A42     		cmp	r2, r3
 1771 00ee C1D9     		bls	.L67
 373:lvgl/src/core/../misc/lv_style.h ****                 lv_style_value_t * values = (lv_style_value_t *)style->v_p.values_and_props;
 1772              		.loc 4 373 13 is_stmt 1 view .LVU617
 373:lvgl/src/core/../misc/lv_style.h ****                 lv_style_value_t * values = (lv_style_value_t *)style->v_p.values_and_props;
 1773              		.loc 4 373 21 is_stmt 0 view .LVU618
 1774 00f0 6019     		adds	r0, r4, r5
 1775 00f2 30F81300 		ldrh	r0, [r0, r3, lsl #1]
 373:lvgl/src/core/../misc/lv_style.h ****                 lv_style_value_t * values = (lv_style_value_t *)style->v_p.values_and_props;
 1776              		.loc 4 373 15 view .LVU619
 1777 00f6 6728     		cmp	r0, #103
 1778 00f8 ADD0     		beq	.L97
 372:lvgl/src/core/../misc/lv_style.h ****             if(props[i] == prop) {
 1779              		.loc 4 372 41 is_stmt 1 view .LVU620
 372:lvgl/src/core/../misc/lv_style.h ****             if(props[i] == prop) {
 1780              		.loc 4 372 42 is_stmt 0 view .LVU621
 1781 00fa 0133     		adds	r3, r3, #1
 1782              	.LVL171:
 372:lvgl/src/core/../misc/lv_style.h ****             if(props[i] == prop) {
 1783              		.loc 4 372 42 view .LVU622
 1784 00fc F6E7     		b	.L70
 1785              	.LVL172:
 1786              	.L94:
 372:lvgl/src/core/../misc/lv_style.h ****             if(props[i] == prop) {
 1787              		.loc 4 372 42 view .LVU623
 1788              	.LBE188:
 1789              	.LBE189:
 1790              	.LBE190:
 765:lvgl/src/core/lv_obj.c **** 
 1791              		.loc 1 765 9 is_stmt 1 view .LVU624
 765:lvgl/src/core/lv_obj.c **** 
 1792              		.loc 1 765 43 is_stmt 0 view .LVU625
 1793 00fe DDF82C80 		ldr	r8, [sp, #44]
 1794              	.LVL173:
 768:lvgl/src/core/lv_obj.c ****         for(j = 0; tr->props[j] != 0 && tsi < STYLE_TRANSITION_MAX; j++) {
 1795              		.loc 1 768 9 is_stmt 1 view .LVU626
ARM GAS  C:\Users\BLACK_~1\AppData\Local\Temp\ccVQcfpA.s 			page 73


 769:lvgl/src/core/lv_obj.c ****             uint32_t t;
 1796              		.loc 1 769 9 view .LVU627
 769:lvgl/src/core/lv_obj.c ****             uint32_t t;
 1797              		.loc 1 769 15 is_stmt 0 view .LVU628
 1798 0102 0023     		movs	r3, #0
 1799              	.LVL174:
 769:lvgl/src/core/lv_obj.c ****             uint32_t t;
 1800              		.loc 1 769 15 view .LVU629
 1801 0104 0493     		str	r3, [sp, #16]
 769:lvgl/src/core/lv_obj.c ****             uint32_t t;
 1802              		.loc 1 769 9 view .LVU630
 1803 0106 20E0     		b	.L73
 1804              	.LVL175:
 1805              	.L74:
 1806              	.LBB191:
 771:lvgl/src/core/lv_obj.c ****                 lv_style_selector_t selector = ts[t].selector;
 1807              		.loc 1 771 33 is_stmt 1 discriminator 2 view .LVU631
 771:lvgl/src/core/lv_obj.c ****                 lv_style_selector_t selector = ts[t].selector;
 1808              		.loc 1 771 34 is_stmt 0 discriminator 2 view .LVU632
 1809 0108 0134     		adds	r4, r4, #1
 1810              	.LVL176:
 1811              	.L79:
 771:lvgl/src/core/lv_obj.c ****                 lv_style_selector_t selector = ts[t].selector;
 1812              		.loc 1 771 24 is_stmt 1 discriminator 1 view .LVU633
 771:lvgl/src/core/lv_obj.c ****                 lv_style_selector_t selector = ts[t].selector;
 1813              		.loc 1 771 13 is_stmt 0 discriminator 1 view .LVU634
 1814 010a A345     		cmp	fp, r4
 1815 010c 18D9     		bls	.L75
 1816              	.LBB192:
 772:lvgl/src/core/lv_obj.c ****                 lv_state_t state_ts = lv_obj_style_get_selector_state(selector);
 1817              		.loc 1 772 17 is_stmt 1 view .LVU635
 772:lvgl/src/core/lv_obj.c ****                 lv_state_t state_ts = lv_obj_style_get_selector_state(selector);
 1818              		.loc 1 772 50 is_stmt 0 view .LVU636
 1819 010e 04EB8405 		add	r5, r4, r4, lsl #2
 1820 0112 0AEB8505 		add	r5, r10, r5, lsl #2
 772:lvgl/src/core/lv_obj.c ****                 lv_state_t state_ts = lv_obj_style_get_selector_state(selector);
 1821              		.loc 1 772 37 view .LVU637
 1822 0116 6F68     		ldr	r7, [r5, #4]
 1823              	.LVL177:
 773:lvgl/src/core/lv_obj.c ****                 lv_part_t part_ts = lv_obj_style_get_selector_part(selector);
 1824              		.loc 1 773 17 is_stmt 1 view .LVU638
 773:lvgl/src/core/lv_obj.c ****                 lv_part_t part_ts = lv_obj_style_get_selector_part(selector);
 1825              		.loc 1 773 39 is_stmt 0 view .LVU639
 1826 0118 3846     		mov	r0, r7
 1827 011a FFF7FEFF 		bl	lv_obj_style_get_selector_state
 1828              	.LVL178:
 1829 011e 0290     		str	r0, [sp, #8]
 1830              	.LVL179:
 774:lvgl/src/core/lv_obj.c ****                 if(ts[t].prop == tr->props[j] && part_ts == part_act && state_ts >= state_act) brea
 1831              		.loc 1 774 17 is_stmt 1 view .LVU640
 774:lvgl/src/core/lv_obj.c ****                 if(ts[t].prop == tr->props[j] && part_ts == part_act && state_ts >= state_act) brea
 1832              		.loc 1 774 37 is_stmt 0 view .LVU641
 1833 0120 3846     		mov	r0, r7
 1834 0122 FFF7FEFF 		bl	lv_obj_style_get_selector_part
 1835              	.LVL180:
 775:lvgl/src/core/lv_obj.c ****             }
 1836              		.loc 1 775 17 is_stmt 1 view .LVU642
ARM GAS  C:\Users\BLACK_~1\AppData\Local\Temp\ccVQcfpA.s 			page 74


 775:lvgl/src/core/lv_obj.c ****             }
 1837              		.loc 1 775 25 is_stmt 0 view .LVU643
 1838 0126 2A89     		ldrh	r2, [r5, #8]
 775:lvgl/src/core/lv_obj.c ****             }
 1839              		.loc 1 775 36 view .LVU644
 1840 0128 D8F80030 		ldr	r3, [r8]
 775:lvgl/src/core/lv_obj.c ****             }
 1841              		.loc 1 775 31 view .LVU645
 1842 012c 33F80930 		ldrh	r3, [r3, r9]
 775:lvgl/src/core/lv_obj.c ****             }
 1843              		.loc 1 775 19 view .LVU646
 1844 0130 9A42     		cmp	r2, r3
 1845 0132 E9D1     		bne	.L74
 775:lvgl/src/core/lv_obj.c ****             }
 1846              		.loc 1 775 47 discriminator 1 view .LVU647
 1847 0134 8642     		cmp	r6, r0
 1848 0136 E7D1     		bne	.L74
 775:lvgl/src/core/lv_obj.c ****             }
 1849              		.loc 1 775 70 discriminator 2 view .LVU648
 1850 0138 059B     		ldr	r3, [sp, #20]
 1851 013a 029A     		ldr	r2, [sp, #8]
 1852 013c 9342     		cmp	r3, r2
 1853 013e E3D8     		bhi	.L74
 1854              	.LVL181:
 1855              	.L75:
 775:lvgl/src/core/lv_obj.c ****             }
 1856              		.loc 1 775 70 discriminator 2 view .LVU649
 1857              	.LBE192:
 779:lvgl/src/core/lv_obj.c ****                 ts[tsi].time = tr->time;
 1858              		.loc 1 779 13 is_stmt 1 view .LVU650
 779:lvgl/src/core/lv_obj.c ****                 ts[tsi].time = tr->time;
 1859              		.loc 1 779 15 is_stmt 0 view .LVU651
 1860 0140 A345     		cmp	fp, r4
 1861 0142 10D0     		beq	.L98
 1862              	.L77:
 779:lvgl/src/core/lv_obj.c ****                 ts[tsi].time = tr->time;
 1863              		.loc 1 779 15 view .LVU652
 1864              	.LBE191:
 769:lvgl/src/core/lv_obj.c ****             uint32_t t;
 1865              		.loc 1 769 69 is_stmt 1 discriminator 2 view .LVU653
 769:lvgl/src/core/lv_obj.c ****             uint32_t t;
 1866              		.loc 1 769 70 is_stmt 0 discriminator 2 view .LVU654
 1867 0144 049B     		ldr	r3, [sp, #16]
 1868 0146 0133     		adds	r3, r3, #1
 1869 0148 0493     		str	r3, [sp, #16]
 1870              	.LVL182:
 1871              	.L73:
 769:lvgl/src/core/lv_obj.c ****             uint32_t t;
 1872              		.loc 1 769 20 is_stmt 1 discriminator 1 view .LVU655
 769:lvgl/src/core/lv_obj.c ****             uint32_t t;
 1873              		.loc 1 769 22 is_stmt 0 discriminator 1 view .LVU656
 1874 014a D8F80030 		ldr	r3, [r8]
 769:lvgl/src/core/lv_obj.c ****             uint32_t t;
 1875              		.loc 1 769 29 discriminator 1 view .LVU657
 1876 014e 049A     		ldr	r2, [sp, #16]
 1877 0150 4FEA4209 		lsl	r9, r2, #1
 1878 0154 33F81230 		ldrh	r3, [r3, r2, lsl #1]
ARM GAS  C:\Users\BLACK_~1\AppData\Local\Temp\ccVQcfpA.s 			page 75


 769:lvgl/src/core/lv_obj.c ****             uint32_t t;
 1879              		.loc 1 769 9 discriminator 1 view .LVU658
 1880 0158 002B     		cmp	r3, #0
 1881 015a 8DD0     		beq	.L80
 769:lvgl/src/core/lv_obj.c ****             uint32_t t;
 1882              		.loc 1 769 38 discriminator 3 view .LVU659
 1883 015c BBF11F0F 		cmp	fp, #31
 1884 0160 8AD8     		bhi	.L80
 1885              	.LBB193:
 771:lvgl/src/core/lv_obj.c ****                 lv_style_selector_t selector = ts[t].selector;
 1886              		.loc 1 771 19 view .LVU660
 1887 0162 0024     		movs	r4, #0
 1888 0164 D1E7     		b	.L79
 1889              	.LVL183:
 1890              	.L98:
 780:lvgl/src/core/lv_obj.c ****                 ts[tsi].delay = tr->delay;
 1891              		.loc 1 780 17 is_stmt 1 view .LVU661
 780:lvgl/src/core/lv_obj.c ****                 ts[tsi].delay = tr->delay;
 1892              		.loc 1 780 34 is_stmt 0 view .LVU662
 1893 0166 D8F80C10 		ldr	r1, [r8, #12]
 780:lvgl/src/core/lv_obj.c ****                 ts[tsi].delay = tr->delay;
 1894              		.loc 1 780 19 view .LVU663
 1895 016a 0BEB8B02 		add	r2, fp, fp, lsl #2
 1896 016e 0AEB8203 		add	r3, r10, r2, lsl #2
 780:lvgl/src/core/lv_obj.c ****                 ts[tsi].delay = tr->delay;
 1897              		.loc 1 780 30 view .LVU664
 1898 0172 2AF82210 		strh	r1, [r10, r2, lsl #2]	@ movhi
 781:lvgl/src/core/lv_obj.c ****                 ts[tsi].path_cb = tr->path_xcb;
 1899              		.loc 1 781 17 is_stmt 1 view .LVU665
 781:lvgl/src/core/lv_obj.c ****                 ts[tsi].path_cb = tr->path_xcb;
 1900              		.loc 1 781 35 is_stmt 0 view .LVU666
 1901 0176 D8F81020 		ldr	r2, [r8, #16]
 781:lvgl/src/core/lv_obj.c ****                 ts[tsi].path_cb = tr->path_xcb;
 1902              		.loc 1 781 31 view .LVU667
 1903 017a 5A80     		strh	r2, [r3, #2]	@ movhi
 782:lvgl/src/core/lv_obj.c ****                 ts[tsi].prop = tr->props[j];
 1904              		.loc 1 782 17 is_stmt 1 view .LVU668
 782:lvgl/src/core/lv_obj.c ****                 ts[tsi].prop = tr->props[j];
 1905              		.loc 1 782 37 is_stmt 0 view .LVU669
 1906 017c D8F80820 		ldr	r2, [r8, #8]
 782:lvgl/src/core/lv_obj.c ****                 ts[tsi].prop = tr->props[j];
 1907              		.loc 1 782 33 view .LVU670
 1908 0180 DA60     		str	r2, [r3, #12]
 783:lvgl/src/core/lv_obj.c **** #if LV_USE_USER_DATA
 1909              		.loc 1 783 17 is_stmt 1 view .LVU671
 783:lvgl/src/core/lv_obj.c **** #if LV_USE_USER_DATA
 1910              		.loc 1 783 34 is_stmt 0 view .LVU672
 1911 0182 D8F80020 		ldr	r2, [r8]
 783:lvgl/src/core/lv_obj.c **** #if LV_USE_USER_DATA
 1912              		.loc 1 783 41 view .LVU673
 1913 0186 32F80920 		ldrh	r2, [r2, r9]
 783:lvgl/src/core/lv_obj.c **** #if LV_USE_USER_DATA
 1914              		.loc 1 783 30 view .LVU674
 1915 018a 1A81     		strh	r2, [r3, #8]	@ movhi
 785:lvgl/src/core/lv_obj.c **** #endif
 1916              		.loc 1 785 17 is_stmt 1 view .LVU675
 785:lvgl/src/core/lv_obj.c **** #endif
ARM GAS  C:\Users\BLACK_~1\AppData\Local\Temp\ccVQcfpA.s 			page 76


 1917              		.loc 1 785 39 is_stmt 0 view .LVU676
 1918 018c D8F80420 		ldr	r2, [r8, #4]
 785:lvgl/src/core/lv_obj.c **** #endif
 1919              		.loc 1 785 35 view .LVU677
 1920 0190 1A61     		str	r2, [r3, #16]
 787:lvgl/src/core/lv_obj.c ****                 tsi++;
 1921              		.loc 1 787 17 is_stmt 1 view .LVU678
 787:lvgl/src/core/lv_obj.c ****                 tsi++;
 1922              		.loc 1 787 45 is_stmt 0 view .LVU679
 1923 0192 089A     		ldr	r2, [sp, #32]
 1924 0194 5268     		ldr	r2, [r2, #4]
 1925 0196 C2F31702 		ubfx	r2, r2, #0, #24
 787:lvgl/src/core/lv_obj.c ****                 tsi++;
 1926              		.loc 1 787 34 view .LVU680
 1927 019a 5A60     		str	r2, [r3, #4]
 788:lvgl/src/core/lv_obj.c ****             }
 1928              		.loc 1 788 17 is_stmt 1 view .LVU681
 788:lvgl/src/core/lv_obj.c ****             }
 1929              		.loc 1 788 20 is_stmt 0 view .LVU682
 1930 019c 0BF1010B 		add	fp, fp, #1
 1931              	.LVL184:
 788:lvgl/src/core/lv_obj.c ****             }
 1932              		.loc 1 788 20 view .LVU683
 1933 01a0 D0E7     		b	.L77
 1934              	.LVL185:
 1935              	.L95:
 788:lvgl/src/core/lv_obj.c ****             }
 1936              		.loc 1 788 20 view .LVU684
 1937              	.LBE193:
 1938              	.LBE194:
 1939 01a2 0024     		movs	r4, #0
 1940 01a4 099E     		ldr	r6, [sp, #36]
 1941 01a6 069F     		ldr	r7, [sp, #24]
 1942 01a8 DDF81C80 		ldr	r8, [sp, #28]
 1943 01ac 0EE0     		b	.L83
 1944              	.LVL186:
 1945              	.L84:
 1946              	.LBB195:
 794:lvgl/src/core/lv_obj.c ****         _lv_obj_style_create_transition(obj, part_act, prev_state, new_state, &ts[i]);
 1947              		.loc 1 794 9 is_stmt 1 discriminator 3 view .LVU685
 794:lvgl/src/core/lv_obj.c ****         _lv_obj_style_create_transition(obj, part_act, prev_state, new_state, &ts[i]);
 1948              		.loc 1 794 63 is_stmt 0 discriminator 3 view .LVU686
 1949 01ae 04EB8405 		add	r5, r4, r4, lsl #2
 1950 01b2 0AEB8505 		add	r5, r10, r5, lsl #2
 794:lvgl/src/core/lv_obj.c ****         _lv_obj_style_create_transition(obj, part_act, prev_state, new_state, &ts[i]);
 1951              		.loc 1 794 30 discriminator 3 view .LVU687
 1952 01b6 6868     		ldr	r0, [r5, #4]
 1953 01b8 FFF7FEFF 		bl	lv_obj_style_get_selector_part
 1954              	.LVL187:
 1955 01bc 0146     		mov	r1, r0
 1956              	.LVL188:
 795:lvgl/src/core/lv_obj.c ****     }
 1957              		.loc 1 795 9 is_stmt 1 discriminator 3 view .LVU688
 1958 01be 0095     		str	r5, [sp]
 1959 01c0 4346     		mov	r3, r8
 1960 01c2 3246     		mov	r2, r6
 1961 01c4 3846     		mov	r0, r7
ARM GAS  C:\Users\BLACK_~1\AppData\Local\Temp\ccVQcfpA.s 			page 77


 1962              	.LVL189:
 795:lvgl/src/core/lv_obj.c ****     }
 1963              		.loc 1 795 9 is_stmt 0 discriminator 3 view .LVU689
 1964 01c6 FFF7FEFF 		bl	_lv_obj_style_create_transition
 1965              	.LVL190:
 795:lvgl/src/core/lv_obj.c ****     }
 1966              		.loc 1 795 9 discriminator 3 view .LVU690
 1967              	.LBE195:
 793:lvgl/src/core/lv_obj.c ****         lv_part_t part_act = lv_obj_style_get_selector_part(ts[i].selector);
 1968              		.loc 1 793 24 is_stmt 1 discriminator 3 view .LVU691
 793:lvgl/src/core/lv_obj.c ****         lv_part_t part_act = lv_obj_style_get_selector_part(ts[i].selector);
 1969              		.loc 1 793 25 is_stmt 0 discriminator 3 view .LVU692
 1970 01ca 0134     		adds	r4, r4, #1
 1971              	.LVL191:
 1972              	.L83:
 793:lvgl/src/core/lv_obj.c ****         lv_part_t part_act = lv_obj_style_get_selector_part(ts[i].selector);
 1973              		.loc 1 793 15 is_stmt 1 discriminator 1 view .LVU693
 793:lvgl/src/core/lv_obj.c ****         lv_part_t part_act = lv_obj_style_get_selector_part(ts[i].selector);
 1974              		.loc 1 793 5 is_stmt 0 discriminator 1 view .LVU694
 1975 01cc A345     		cmp	fp, r4
 1976 01ce EED8     		bhi	.L84
 798:lvgl/src/core/lv_obj.c **** 
 1977              		.loc 1 798 5 is_stmt 1 view .LVU695
 1978 01d0 5046     		mov	r0, r10
 1979 01d2 FFF7FEFF 		bl	lv_mem_buf_release
 1980              	.LVL192:
 800:lvgl/src/core/lv_obj.c ****         lv_obj_invalidate(obj);
 1981              		.loc 1 800 5 view .LVU696
 800:lvgl/src/core/lv_obj.c ****         lv_obj_invalidate(obj);
 1982              		.loc 1 800 7 is_stmt 0 view .LVU697
 1983 01d6 0A9B     		ldr	r3, [sp, #40]
 1984 01d8 012B     		cmp	r3, #1
 1985 01da 14D0     		beq	.L99
 803:lvgl/src/core/lv_obj.c ****         lv_obj_refresh_style(obj, LV_PART_ANY, LV_STYLE_PROP_ANY);
 1986              		.loc 1 803 10 is_stmt 1 view .LVU698
 803:lvgl/src/core/lv_obj.c ****         lv_obj_refresh_style(obj, LV_PART_ANY, LV_STYLE_PROP_ANY);
 1987              		.loc 1 803 12 is_stmt 0 view .LVU699
 1988 01dc 0A9B     		ldr	r3, [sp, #40]
 1989 01de 032B     		cmp	r3, #3
 1990 01e0 15D0     		beq	.L100
 806:lvgl/src/core/lv_obj.c ****         lv_obj_invalidate(obj);
 1991              		.loc 1 806 10 is_stmt 1 view .LVU700
 806:lvgl/src/core/lv_obj.c ****         lv_obj_invalidate(obj);
 1992              		.loc 1 806 12 is_stmt 0 view .LVU701
 1993 01e2 0A9B     		ldr	r3, [sp, #40]
 1994 01e4 022B     		cmp	r3, #2
 1995 01e6 7FF41BAF 		bne	.L60
 807:lvgl/src/core/lv_obj.c ****         lv_obj_refresh_ext_draw_size(obj);
 1996              		.loc 1 807 9 is_stmt 1 view .LVU702
 1997 01ea 069C     		ldr	r4, [sp, #24]
 1998              	.LVL193:
 807:lvgl/src/core/lv_obj.c ****         lv_obj_refresh_ext_draw_size(obj);
 1999              		.loc 1 807 9 is_stmt 0 view .LVU703
 2000 01ec 2046     		mov	r0, r4
 2001 01ee FFF7FEFF 		bl	lv_obj_invalidate
 2002              	.LVL194:
 808:lvgl/src/core/lv_obj.c ****     }
ARM GAS  C:\Users\BLACK_~1\AppData\Local\Temp\ccVQcfpA.s 			page 78


 2003              		.loc 1 808 9 is_stmt 1 view .LVU704
 2004 01f2 2046     		mov	r0, r4
 2005 01f4 FFF7FEFF 		bl	lv_obj_refresh_ext_draw_size
 2006              	.LVL195:
 2007 01f8 12E7     		b	.L60
 2008              	.LVL196:
 2009              	.L89:
 808:lvgl/src/core/lv_obj.c ****     }
 2010              		.loc 1 808 9 is_stmt 0 view .LVU705
 2011 01fa 0024     		movs	r4, #0
 2012 01fc 099E     		ldr	r6, [sp, #36]
 2013 01fe 069F     		ldr	r7, [sp, #24]
 2014 0200 DDF81C80 		ldr	r8, [sp, #28]
 2015 0204 E2E7     		b	.L83
 2016              	.LVL197:
 2017              	.L99:
 801:lvgl/src/core/lv_obj.c ****     }
 2018              		.loc 1 801 9 is_stmt 1 view .LVU706
 2019 0206 0698     		ldr	r0, [sp, #24]
 2020 0208 FFF7FEFF 		bl	lv_obj_invalidate
 2021              	.LVL198:
 2022 020c 08E7     		b	.L60
 2023              	.L100:
 804:lvgl/src/core/lv_obj.c ****     }
 2024              		.loc 1 804 9 view .LVU707
 2025 020e 4FF6FF72 		movw	r2, #65535
 2026 0212 4FF47021 		mov	r1, #983040
 2027 0216 0698     		ldr	r0, [sp, #24]
 2028 0218 FFF7FEFF 		bl	lv_obj_refresh_style
 2029              	.LVL199:
 2030 021c 00E7     		b	.L60
 2031              		.cfi_endproc
 2032              	.LFE176:
 2034              		.section	.text.lv_init,"ax",%progbits
 2035              		.align	1
 2036              		.global	lv_init
 2037              		.syntax unified
 2038              		.thumb
 2039              		.thumb_func
 2041              	lv_init:
 2042              	.LFB153:
  88:lvgl/src/core/lv_obj.c ****     /*Do nothing if already initialized*/
 2043              		.loc 1 88 1 view -0
 2044              		.cfi_startproc
 2045              		@ args = 0, pretend = 0, frame = 0
 2046              		@ frame_needed = 0, uses_anonymous_args = 0
 2047 0000 08B5     		push	{r3, lr}
 2048              	.LCFI15:
 2049              		.cfi_def_cfa_offset 8
 2050              		.cfi_offset 3, -8
 2051              		.cfi_offset 14, -4
  90:lvgl/src/core/lv_obj.c ****         LV_LOG_WARN("lv_init: already inited");
 2052              		.loc 1 90 5 view .LVU709
  90:lvgl/src/core/lv_obj.c ****         LV_LOG_WARN("lv_init: already inited");
 2053              		.loc 1 90 8 is_stmt 0 view .LVU710
 2054 0002 114B     		ldr	r3, .L105
 2055 0004 1B78     		ldrb	r3, [r3]	@ zero_extendqisi2
ARM GAS  C:\Users\BLACK_~1\AppData\Local\Temp\ccVQcfpA.s 			page 79


  90:lvgl/src/core/lv_obj.c ****         LV_LOG_WARN("lv_init: already inited");
 2056              		.loc 1 90 7 view .LVU711
 2057 0006 03B1     		cbz	r3, .L104
 2058              	.L101:
 166:lvgl/src/core/lv_obj.c **** 
 2059              		.loc 1 166 1 view .LVU712
 2060 0008 08BD     		pop	{r3, pc}
 2061              	.L104:
  95:lvgl/src/core/lv_obj.c **** 
 2062              		.loc 1 95 25 is_stmt 1 view .LVU713
  98:lvgl/src/core/lv_obj.c **** 
 2063              		.loc 1 98 5 view .LVU714
 2064 000a FFF7FEFF 		bl	lv_mem_init
 2065              	.LVL200:
 100:lvgl/src/core/lv_obj.c **** 
 2066              		.loc 1 100 5 view .LVU715
 2067 000e FFF7FEFF 		bl	_lv_timer_core_init
 2068              	.LVL201:
 102:lvgl/src/core/lv_obj.c **** 
 2069              		.loc 1 102 5 view .LVU716
 2070 0012 FFF7FEFF 		bl	_lv_fs_init
 2071              	.LVL202:
 104:lvgl/src/core/lv_obj.c **** 
 2072              		.loc 1 104 5 view .LVU717
 2073 0016 FFF7FEFF 		bl	_lv_anim_core_init
 2074              	.LVL203:
 106:lvgl/src/core/lv_obj.c **** 
 2075              		.loc 1 106 5 view .LVU718
 2076 001a FFF7FEFF 		bl	_lv_group_init
 2077              	.LVL204:
 120:lvgl/src/core/lv_obj.c ****     _lv_ll_init(&LV_GC_ROOT(_lv_disp_ll), sizeof(lv_disp_t));
 2078              		.loc 1 120 5 view .LVU719
 2079 001e FFF7FEFF 		bl	_lv_obj_style_init
 2080              	.LVL205:
 121:lvgl/src/core/lv_obj.c ****     _lv_ll_init(&LV_GC_ROOT(_lv_indev_ll), sizeof(lv_indev_t));
 2081              		.loc 1 121 5 view .LVU720
 2082 0022 4FF4AC71 		mov	r1, #344
 2083 0026 0948     		ldr	r0, .L105+4
 2084 0028 FFF7FEFF 		bl	_lv_ll_init
 2085              	.LVL206:
 122:lvgl/src/core/lv_obj.c **** 
 2086              		.loc 1 122 5 view .LVU721
 2087 002c 5821     		movs	r1, #88
 2088 002e 0848     		ldr	r0, .L105+8
 2089 0030 FFF7FEFF 		bl	_lv_ll_init
 2090              	.LVL207:
 125:lvgl/src/core/lv_obj.c **** 
 2091              		.loc 1 125 5 view .LVU722
 2092 0034 FFF7FEFF 		bl	_lv_refr_init
 2093              	.LVL208:
 127:lvgl/src/core/lv_obj.c **** #if LV_IMG_CACHE_DEF_SIZE
 2094              		.loc 1 127 5 view .LVU723
 2095 0038 FFF7FEFF 		bl	_lv_img_decoder_init
 2096              	.LVL209:
 132:lvgl/src/core/lv_obj.c **** 
 2097              		.loc 1 132 5 view .LVU724
 134:lvgl/src/core/lv_obj.c ****     if(txt_u8[0] != 0xc3 || txt_u8[1] != 0x81 || txt_u8[2] != 0x00) {
ARM GAS  C:\Users\BLACK_~1\AppData\Local\Temp\ccVQcfpA.s 			page 80


 2098              		.loc 1 134 5 view .LVU725
 135:lvgl/src/core/lv_obj.c ****         LV_LOG_WARN("The strings has no UTF-8 encoding. Non-ASCII characters won't be displayed.")
 2099              		.loc 1 135 5 view .LVU726
 137:lvgl/src/core/lv_obj.c **** 
 2100              		.loc 1 137 5 view .LVU727
 139:lvgl/src/core/lv_obj.c ****     uint8_t * endianess_test_p = (uint8_t*) &endianess_test;
 2101              		.loc 1 139 5 view .LVU728
 140:lvgl/src/core/lv_obj.c ****     bool big_endian = endianess_test_p[0] == 0x11 ? true : false;
 2102              		.loc 1 140 5 view .LVU729
 141:lvgl/src/core/lv_obj.c **** 
 2103              		.loc 1 141 5 view .LVU730
 143:lvgl/src/core/lv_obj.c ****         LV_ASSERT_MSG(LV_BIG_ENDIAN_SYSTEM == 1, "It's a big endian system but LV_BIG_ENDIAN_SYSTEM
 2104              		.loc 1 143 5 view .LVU731
 146:lvgl/src/core/lv_obj.c ****     }
 2105              		.loc 1 146 9 view .LVU732
 146:lvgl/src/core/lv_obj.c ****     }
 2106              		.loc 1 146 9 view .LVU733
 146:lvgl/src/core/lv_obj.c ****     }
 2107              		.loc 1 146 9 view .LVU734
 161:lvgl/src/core/lv_obj.c **** 
 2108              		.loc 1 161 5 view .LVU735
 2109 003c FFF7FEFF 		bl	lv_extra_init
 2110              	.LVL210:
 163:lvgl/src/core/lv_obj.c **** 
 2111              		.loc 1 163 5 view .LVU736
 163:lvgl/src/core/lv_obj.c **** 
 2112              		.loc 1 163 20 is_stmt 0 view .LVU737
 2113 0040 014B     		ldr	r3, .L105
 2114 0042 0122     		movs	r2, #1
 2115 0044 1A70     		strb	r2, [r3]
 165:lvgl/src/core/lv_obj.c **** }
 2116              		.loc 1 165 29 is_stmt 1 view .LVU738
 2117              	.LVL211:
 165:lvgl/src/core/lv_obj.c **** }
 2118              		.loc 1 165 29 is_stmt 0 view .LVU739
 2119 0046 DFE7     		b	.L101
 2120              	.L106:
 2121              		.align	2
 2122              	.L105:
 2123 0048 00000000 		.word	.LANCHOR0
 2124 004c 00000000 		.word	_lv_disp_ll
 2125 0050 00000000 		.word	_lv_indev_ll
 2126              		.cfi_endproc
 2127              	.LFE153:
 2129              		.section	.text.lv_deinit,"ax",%progbits
 2130              		.align	1
 2131              		.global	lv_deinit
 2132              		.syntax unified
 2133              		.thumb
 2134              		.thumb_func
 2136              	lv_deinit:
 2137              	.LFB154:
 171:lvgl/src/core/lv_obj.c ****     _lv_gc_clear_roots();
 2138              		.loc 1 171 1 is_stmt 1 view -0
 2139              		.cfi_startproc
 2140              		@ args = 0, pretend = 0, frame = 0
 2141              		@ frame_needed = 0, uses_anonymous_args = 0
ARM GAS  C:\Users\BLACK_~1\AppData\Local\Temp\ccVQcfpA.s 			page 81


 2142 0000 08B5     		push	{r3, lr}
 2143              	.LCFI16:
 2144              		.cfi_def_cfa_offset 8
 2145              		.cfi_offset 3, -8
 2146              		.cfi_offset 14, -4
 172:lvgl/src/core/lv_obj.c **** 
 2147              		.loc 1 172 5 view .LVU741
 2148 0002 FFF7FEFF 		bl	_lv_gc_clear_roots
 2149              	.LVL212:
 174:lvgl/src/core/lv_obj.c ****     lv_mem_deinit();
 2150              		.loc 1 174 5 view .LVU742
 2151 0006 0020     		movs	r0, #0
 2152 0008 FFF7FEFF 		bl	lv_disp_set_default
 2153              	.LVL213:
 175:lvgl/src/core/lv_obj.c ****     lv_initialized = false;
 2154              		.loc 1 175 5 view .LVU743
 2155 000c FFF7FEFF 		bl	lv_mem_deinit
 2156              	.LVL214:
 176:lvgl/src/core/lv_obj.c **** 
 2157              		.loc 1 176 5 view .LVU744
 176:lvgl/src/core/lv_obj.c **** 
 2158              		.loc 1 176 20 is_stmt 0 view .LVU745
 2159 0010 014B     		ldr	r3, .L109
 2160 0012 0022     		movs	r2, #0
 2161 0014 1A70     		strb	r2, [r3]
 178:lvgl/src/core/lv_obj.c **** 
 2162              		.loc 1 178 34 is_stmt 1 view .LVU746
 183:lvgl/src/core/lv_obj.c **** #endif
 2163              		.loc 1 183 1 is_stmt 0 view .LVU747
 2164 0016 08BD     		pop	{r3, pc}
 2165              	.L110:
 2166              		.align	2
 2167              	.L109:
 2168 0018 00000000 		.word	.LANCHOR0
 2169              		.cfi_endproc
 2170              	.LFE154:
 2172              		.section	.text.lv_obj_create,"ax",%progbits
 2173              		.align	1
 2174              		.global	lv_obj_create
 2175              		.syntax unified
 2176              		.thumb
 2177              		.thumb_func
 2179              	lv_obj_create:
 2180              	.LVL215:
 2181              	.LFB155:
 187:lvgl/src/core/lv_obj.c ****     LV_LOG_INFO("begin")
 2182              		.loc 1 187 1 is_stmt 1 view -0
 2183              		.cfi_startproc
 2184              		@ args = 0, pretend = 0, frame = 0
 2185              		@ frame_needed = 0, uses_anonymous_args = 0
 187:lvgl/src/core/lv_obj.c ****     LV_LOG_INFO("begin")
 2186              		.loc 1 187 1 is_stmt 0 view .LVU749
 2187 0000 10B5     		push	{r4, lr}
 2188              	.LCFI17:
 2189              		.cfi_def_cfa_offset 8
 2190              		.cfi_offset 4, -8
 2191              		.cfi_offset 14, -4
ARM GAS  C:\Users\BLACK_~1\AppData\Local\Temp\ccVQcfpA.s 			page 82


 2192 0002 0146     		mov	r1, r0
 189:lvgl/src/core/lv_obj.c ****     lv_obj_class_init_obj(obj);
 2193              		.loc 1 189 5 is_stmt 1 view .LVU750
 189:lvgl/src/core/lv_obj.c ****     lv_obj_class_init_obj(obj);
 2194              		.loc 1 189 22 is_stmt 0 view .LVU751
 2195 0004 0348     		ldr	r0, .L113
 2196              	.LVL216:
 189:lvgl/src/core/lv_obj.c ****     lv_obj_class_init_obj(obj);
 2197              		.loc 1 189 22 view .LVU752
 2198 0006 FFF7FEFF 		bl	lv_obj_class_create_obj
 2199              	.LVL217:
 189:lvgl/src/core/lv_obj.c ****     lv_obj_class_init_obj(obj);
 2200              		.loc 1 189 22 view .LVU753
 2201 000a 0446     		mov	r4, r0
 2202              	.LVL218:
 190:lvgl/src/core/lv_obj.c ****     return obj;
 2203              		.loc 1 190 5 is_stmt 1 view .LVU754
 2204 000c FFF7FEFF 		bl	lv_obj_class_init_obj
 2205              	.LVL219:
 191:lvgl/src/core/lv_obj.c **** }
 2206              		.loc 1 191 5 view .LVU755
 192:lvgl/src/core/lv_obj.c **** 
 2207              		.loc 1 192 1 is_stmt 0 view .LVU756
 2208 0010 2046     		mov	r0, r4
 2209 0012 10BD     		pop	{r4, pc}
 2210              	.LVL220:
 2211              	.L114:
 192:lvgl/src/core/lv_obj.c **** 
 2212              		.loc 1 192 1 view .LVU757
 2213              		.align	2
 2214              	.L113:
 2215 0014 00000000 		.word	.LANCHOR1
 2216              		.cfi_endproc
 2217              	.LFE155:
 2219              		.section	.text.lv_obj_add_flag,"ax",%progbits
 2220              		.align	1
 2221              		.global	lv_obj_add_flag
 2222              		.syntax unified
 2223              		.thumb
 2224              		.thumb_func
 2226              	lv_obj_add_flag:
 2227              	.LVL221:
 2228              	.LFB156:
 203:lvgl/src/core/lv_obj.c ****     LV_ASSERT_OBJ(obj, MY_CLASS);
 2229              		.loc 1 203 1 is_stmt 1 view -0
 2230              		.cfi_startproc
 2231              		@ args = 0, pretend = 0, frame = 0
 2232              		@ frame_needed = 0, uses_anonymous_args = 0
 203:lvgl/src/core/lv_obj.c ****     LV_ASSERT_OBJ(obj, MY_CLASS);
 2233              		.loc 1 203 1 is_stmt 0 view .LVU759
 2234 0000 F8B5     		push	{r3, r4, r5, r6, r7, lr}
 2235              	.LCFI18:
 2236              		.cfi_def_cfa_offset 24
 2237              		.cfi_offset 3, -24
 2238              		.cfi_offset 4, -20
 2239              		.cfi_offset 5, -16
 2240              		.cfi_offset 6, -12
ARM GAS  C:\Users\BLACK_~1\AppData\Local\Temp\ccVQcfpA.s 			page 83


 2241              		.cfi_offset 7, -8
 2242              		.cfi_offset 14, -4
 2243 0002 0446     		mov	r4, r0
 2244 0004 0D46     		mov	r5, r1
 204:lvgl/src/core/lv_obj.c **** 
 2245              		.loc 1 204 5 is_stmt 1 view .LVU760
 204:lvgl/src/core/lv_obj.c **** 
 2246              		.loc 1 204 5 view .LVU761
 204:lvgl/src/core/lv_obj.c **** 
 2247              		.loc 1 204 5 view .LVU762
 206:lvgl/src/core/lv_obj.c **** 
 2248              		.loc 1 206 5 view .LVU763
 206:lvgl/src/core/lv_obj.c **** 
 2249              		.loc 1 206 26 is_stmt 0 view .LVU764
 2250 0006 FFF7FEFF 		bl	lv_obj_is_layout_positioned
 2251              	.LVL222:
 206:lvgl/src/core/lv_obj.c **** 
 2252              		.loc 1 206 26 view .LVU765
 2253 000a 0646     		mov	r6, r0
 2254              	.LVL223:
 208:lvgl/src/core/lv_obj.c **** 
 2255              		.loc 1 208 5 is_stmt 1 view .LVU766
 208:lvgl/src/core/lv_obj.c **** 
 2256              		.loc 1 208 7 is_stmt 0 view .LVU767
 2257 000c 15F00107 		ands	r7, r5, #1
 2258 0010 11D1     		bne	.L121
 2259              	.L116:
 210:lvgl/src/core/lv_obj.c **** 
 2260              		.loc 1 210 5 is_stmt 1 view .LVU768
 210:lvgl/src/core/lv_obj.c **** 
 2261              		.loc 1 210 16 is_stmt 0 view .LVU769
 2262 0012 E369     		ldr	r3, [r4, #28]
 2263 0014 2B43     		orrs	r3, r3, r5
 2264 0016 E361     		str	r3, [r4, #28]
 212:lvgl/src/core/lv_obj.c ****         lv_obj_invalidate(obj);
 2265              		.loc 1 212 5 is_stmt 1 view .LVU770
 212:lvgl/src/core/lv_obj.c ****         lv_obj_invalidate(obj);
 2266              		.loc 1 212 7 is_stmt 0 view .LVU771
 2267 0018 8FB9     		cbnz	r7, .L122
 2268              	.L117:
 216:lvgl/src/core/lv_obj.c ****         lv_obj_mark_layout_as_dirty(lv_obj_get_parent(obj));
 2269              		.loc 1 216 5 is_stmt 1 view .LVU772
 216:lvgl/src/core/lv_obj.c ****         lv_obj_mark_layout_as_dirty(lv_obj_get_parent(obj));
 2270              		.loc 1 216 26 is_stmt 0 view .LVU773
 2271 001a 2046     		mov	r0, r4
 2272 001c FFF7FEFF 		bl	lv_obj_is_layout_positioned
 2273              	.LVL224:
 216:lvgl/src/core/lv_obj.c ****         lv_obj_mark_layout_as_dirty(lv_obj_get_parent(obj));
 2274              		.loc 1 216 7 view .LVU774
 2275 0020 B042     		cmp	r0, r6
 2276 0022 02D1     		bne	.L118
 216:lvgl/src/core/lv_obj.c ****         lv_obj_mark_layout_as_dirty(lv_obj_get_parent(obj));
 2277              		.loc 1 216 60 discriminator 1 view .LVU775
 2278 0024 15F0C07F 		tst	r5, #25165824
 2279 0028 04D0     		beq	.L115
 2280              	.L118:
 217:lvgl/src/core/lv_obj.c ****     }
ARM GAS  C:\Users\BLACK_~1\AppData\Local\Temp\ccVQcfpA.s 			page 84


 2281              		.loc 1 217 9 is_stmt 1 view .LVU776
 2282 002a 2046     		mov	r0, r4
 2283 002c FFF7FEFF 		bl	lv_obj_get_parent
 2284              	.LVL225:
 2285 0030 FFF7FEFF 		bl	lv_obj_mark_layout_as_dirty
 2286              	.LVL226:
 2287              	.L115:
 219:lvgl/src/core/lv_obj.c **** 
 2288              		.loc 1 219 1 is_stmt 0 view .LVU777
 2289 0034 F8BD     		pop	{r3, r4, r5, r6, r7, pc}
 2290              	.LVL227:
 2291              	.L121:
 208:lvgl/src/core/lv_obj.c **** 
 2292              		.loc 1 208 32 is_stmt 1 discriminator 1 view .LVU778
 2293 0036 2046     		mov	r0, r4
 2294 0038 FFF7FEFF 		bl	lv_obj_invalidate
 2295              	.LVL228:
 2296 003c E9E7     		b	.L116
 2297              	.L122:
 213:lvgl/src/core/lv_obj.c ****     }
 2298              		.loc 1 213 9 view .LVU779
 2299 003e 2046     		mov	r0, r4
 2300 0040 FFF7FEFF 		bl	lv_obj_invalidate
 2301              	.LVL229:
 2302 0044 E9E7     		b	.L117
 2303              		.cfi_endproc
 2304              	.LFE156:
 2306              		.section	.text.lv_obj_clear_flag,"ax",%progbits
 2307              		.align	1
 2308              		.global	lv_obj_clear_flag
 2309              		.syntax unified
 2310              		.thumb
 2311              		.thumb_func
 2313              	lv_obj_clear_flag:
 2314              	.LVL230:
 2315              	.LFB157:
 222:lvgl/src/core/lv_obj.c ****     LV_ASSERT_OBJ(obj, MY_CLASS);
 2316              		.loc 1 222 1 view -0
 2317              		.cfi_startproc
 2318              		@ args = 0, pretend = 0, frame = 0
 2319              		@ frame_needed = 0, uses_anonymous_args = 0
 222:lvgl/src/core/lv_obj.c ****     LV_ASSERT_OBJ(obj, MY_CLASS);
 2320              		.loc 1 222 1 is_stmt 0 view .LVU781
 2321 0000 70B5     		push	{r4, r5, r6, lr}
 2322              	.LCFI19:
 2323              		.cfi_def_cfa_offset 16
 2324              		.cfi_offset 4, -16
 2325              		.cfi_offset 5, -12
 2326              		.cfi_offset 6, -8
 2327              		.cfi_offset 14, -4
 2328 0002 0446     		mov	r4, r0
 2329 0004 0D46     		mov	r5, r1
 223:lvgl/src/core/lv_obj.c **** 
 2330              		.loc 1 223 5 is_stmt 1 view .LVU782
 223:lvgl/src/core/lv_obj.c **** 
 2331              		.loc 1 223 5 view .LVU783
 223:lvgl/src/core/lv_obj.c **** 
ARM GAS  C:\Users\BLACK_~1\AppData\Local\Temp\ccVQcfpA.s 			page 85


 2332              		.loc 1 223 5 view .LVU784
 225:lvgl/src/core/lv_obj.c **** 
 2333              		.loc 1 225 5 view .LVU785
 225:lvgl/src/core/lv_obj.c **** 
 2334              		.loc 1 225 26 is_stmt 0 view .LVU786
 2335 0006 FFF7FEFF 		bl	lv_obj_is_layout_positioned
 2336              	.LVL231:
 225:lvgl/src/core/lv_obj.c **** 
 2337              		.loc 1 225 26 view .LVU787
 2338 000a 0646     		mov	r6, r0
 2339              	.LVL232:
 227:lvgl/src/core/lv_obj.c **** 
 2340              		.loc 1 227 5 is_stmt 1 view .LVU788
 227:lvgl/src/core/lv_obj.c **** 
 2341              		.loc 1 227 16 is_stmt 0 view .LVU789
 2342 000c E369     		ldr	r3, [r4, #28]
 2343 000e 23EA0503 		bic	r3, r3, r5
 2344 0012 E361     		str	r3, [r4, #28]
 229:lvgl/src/core/lv_obj.c ****         lv_obj_invalidate(obj);
 2345              		.loc 1 229 5 is_stmt 1 view .LVU790
 229:lvgl/src/core/lv_obj.c ****         lv_obj_invalidate(obj);
 2346              		.loc 1 229 7 is_stmt 0 view .LVU791
 2347 0014 15F0010F 		tst	r5, #1
 2348 0018 0DD1     		bne	.L128
 2349              	.L124:
 236:lvgl/src/core/lv_obj.c ****         lv_obj_mark_layout_as_dirty(lv_obj_get_parent(obj));
 2350              		.loc 1 236 5 is_stmt 1 view .LVU792
 236:lvgl/src/core/lv_obj.c ****         lv_obj_mark_layout_as_dirty(lv_obj_get_parent(obj));
 2351              		.loc 1 236 26 is_stmt 0 view .LVU793
 2352 001a 2046     		mov	r0, r4
 2353 001c FFF7FEFF 		bl	lv_obj_is_layout_positioned
 2354              	.LVL233:
 236:lvgl/src/core/lv_obj.c ****         lv_obj_mark_layout_as_dirty(lv_obj_get_parent(obj));
 2355              		.loc 1 236 7 view .LVU794
 2356 0020 B042     		cmp	r0, r6
 2357 0022 02D1     		bne	.L125
 236:lvgl/src/core/lv_obj.c ****         lv_obj_mark_layout_as_dirty(lv_obj_get_parent(obj));
 2358              		.loc 1 236 60 discriminator 1 view .LVU795
 2359 0024 15F0C07F 		tst	r5, #25165824
 2360 0028 04D0     		beq	.L123
 2361              	.L125:
 237:lvgl/src/core/lv_obj.c ****     }
 2362              		.loc 1 237 9 is_stmt 1 view .LVU796
 2363 002a 2046     		mov	r0, r4
 2364 002c FFF7FEFF 		bl	lv_obj_get_parent
 2365              	.LVL234:
 2366 0030 FFF7FEFF 		bl	lv_obj_mark_layout_as_dirty
 2367              	.LVL235:
 2368              	.L123:
 239:lvgl/src/core/lv_obj.c **** 
 2369              		.loc 1 239 1 is_stmt 0 view .LVU797
 2370 0034 70BD     		pop	{r4, r5, r6, pc}
 2371              	.LVL236:
 2372              	.L128:
 230:lvgl/src/core/lv_obj.c ****         if(lv_obj_is_layout_positioned(obj)) {
 2373              		.loc 1 230 9 is_stmt 1 view .LVU798
 2374 0036 2046     		mov	r0, r4
ARM GAS  C:\Users\BLACK_~1\AppData\Local\Temp\ccVQcfpA.s 			page 86


 2375 0038 FFF7FEFF 		bl	lv_obj_invalidate
 2376              	.LVL237:
 231:lvgl/src/core/lv_obj.c ****             lv_obj_mark_layout_as_dirty(lv_obj_get_parent(obj));
 2377              		.loc 1 231 9 view .LVU799
 231:lvgl/src/core/lv_obj.c ****             lv_obj_mark_layout_as_dirty(lv_obj_get_parent(obj));
 2378              		.loc 1 231 12 is_stmt 0 view .LVU800
 2379 003c 2046     		mov	r0, r4
 2380 003e FFF7FEFF 		bl	lv_obj_is_layout_positioned
 2381              	.LVL238:
 231:lvgl/src/core/lv_obj.c ****             lv_obj_mark_layout_as_dirty(lv_obj_get_parent(obj));
 2382              		.loc 1 231 11 view .LVU801
 2383 0042 0028     		cmp	r0, #0
 2384 0044 E9D0     		beq	.L124
 232:lvgl/src/core/lv_obj.c ****         }
 2385              		.loc 1 232 13 is_stmt 1 view .LVU802
 2386 0046 2046     		mov	r0, r4
 2387 0048 FFF7FEFF 		bl	lv_obj_get_parent
 2388              	.LVL239:
 2389 004c FFF7FEFF 		bl	lv_obj_mark_layout_as_dirty
 2390              	.LVL240:
 2391 0050 E3E7     		b	.L124
 2392              		.cfi_endproc
 2393              	.LFE157:
 2395              		.section	.text.lv_obj_add_state,"ax",%progbits
 2396              		.align	1
 2397              		.global	lv_obj_add_state
 2398              		.syntax unified
 2399              		.thumb
 2400              		.thumb_func
 2402              	lv_obj_add_state:
 2403              	.LVL241:
 2404              	.LFB158:
 242:lvgl/src/core/lv_obj.c ****     LV_ASSERT_OBJ(obj, MY_CLASS);
 2405              		.loc 1 242 1 view -0
 2406              		.cfi_startproc
 2407              		@ args = 0, pretend = 0, frame = 0
 2408              		@ frame_needed = 0, uses_anonymous_args = 0
 242:lvgl/src/core/lv_obj.c ****     LV_ASSERT_OBJ(obj, MY_CLASS);
 2409              		.loc 1 242 1 is_stmt 0 view .LVU804
 2410 0000 08B5     		push	{r3, lr}
 2411              	.LCFI20:
 2412              		.cfi_def_cfa_offset 8
 2413              		.cfi_offset 3, -8
 2414              		.cfi_offset 14, -4
 243:lvgl/src/core/lv_obj.c **** 
 2415              		.loc 1 243 5 is_stmt 1 view .LVU805
 243:lvgl/src/core/lv_obj.c **** 
 2416              		.loc 1 243 5 view .LVU806
 243:lvgl/src/core/lv_obj.c **** 
 2417              		.loc 1 243 5 view .LVU807
 245:lvgl/src/core/lv_obj.c ****     if(obj->state != new_state) {
 2418              		.loc 1 245 5 view .LVU808
 245:lvgl/src/core/lv_obj.c ****     if(obj->state != new_state) {
 2419              		.loc 1 245 31 is_stmt 0 view .LVU809
 2420 0002 038C     		ldrh	r3, [r0, #32]
 245:lvgl/src/core/lv_obj.c ****     if(obj->state != new_state) {
 2421              		.loc 1 245 16 view .LVU810
ARM GAS  C:\Users\BLACK_~1\AppData\Local\Temp\ccVQcfpA.s 			page 87


 2422 0004 43EA0102 		orr	r2, r3, r1
 2423              	.LVL242:
 246:lvgl/src/core/lv_obj.c ****         lv_obj_set_state(obj, new_state);
 2424              		.loc 1 246 5 is_stmt 1 view .LVU811
 246:lvgl/src/core/lv_obj.c ****         lv_obj_set_state(obj, new_state);
 2425              		.loc 1 246 7 is_stmt 0 view .LVU812
 2426 0008 31EA0303 		bics	r3, r1, r3
 2427 000c 00D1     		bne	.L132
 2428              	.LVL243:
 2429              	.L129:
 249:lvgl/src/core/lv_obj.c **** 
 2430              		.loc 1 249 1 view .LVU813
 2431 000e 08BD     		pop	{r3, pc}
 2432              	.LVL244:
 2433              	.L132:
 247:lvgl/src/core/lv_obj.c ****     }
 2434              		.loc 1 247 9 is_stmt 1 view .LVU814
 2435 0010 1146     		mov	r1, r2
 2436              	.LVL245:
 247:lvgl/src/core/lv_obj.c ****     }
 2437              		.loc 1 247 9 is_stmt 0 view .LVU815
 2438 0012 FFF7FEFF 		bl	lv_obj_set_state
 2439              	.LVL246:
 249:lvgl/src/core/lv_obj.c **** 
 2440              		.loc 1 249 1 view .LVU816
 2441 0016 FAE7     		b	.L129
 2442              		.cfi_endproc
 2443              	.LFE158:
 2445              		.section	.text.lv_obj_clear_state,"ax",%progbits
 2446              		.align	1
 2447              		.global	lv_obj_clear_state
 2448              		.syntax unified
 2449              		.thumb
 2450              		.thumb_func
 2452              	lv_obj_clear_state:
 2453              	.LVL247:
 2454              	.LFB159:
 252:lvgl/src/core/lv_obj.c ****     LV_ASSERT_OBJ(obj, MY_CLASS);
 2455              		.loc 1 252 1 is_stmt 1 view -0
 2456              		.cfi_startproc
 2457              		@ args = 0, pretend = 0, frame = 0
 2458              		@ frame_needed = 0, uses_anonymous_args = 0
 252:lvgl/src/core/lv_obj.c ****     LV_ASSERT_OBJ(obj, MY_CLASS);
 2459              		.loc 1 252 1 is_stmt 0 view .LVU818
 2460 0000 08B5     		push	{r3, lr}
 2461              	.LCFI21:
 2462              		.cfi_def_cfa_offset 8
 2463              		.cfi_offset 3, -8
 2464              		.cfi_offset 14, -4
 253:lvgl/src/core/lv_obj.c **** 
 2465              		.loc 1 253 5 is_stmt 1 view .LVU819
 253:lvgl/src/core/lv_obj.c **** 
 2466              		.loc 1 253 5 view .LVU820
 253:lvgl/src/core/lv_obj.c **** 
 2467              		.loc 1 253 5 view .LVU821
 255:lvgl/src/core/lv_obj.c ****     if(obj->state != new_state) {
 2468              		.loc 1 255 5 view .LVU822
ARM GAS  C:\Users\BLACK_~1\AppData\Local\Temp\ccVQcfpA.s 			page 88


 255:lvgl/src/core/lv_obj.c ****     if(obj->state != new_state) {
 2469              		.loc 1 255 31 is_stmt 0 view .LVU823
 2470 0002 028C     		ldrh	r2, [r0, #32]
 2471 0004 B0F92030 		ldrsh	r3, [r0, #32]
 255:lvgl/src/core/lv_obj.c ****     if(obj->state != new_state) {
 2472              		.loc 1 255 39 view .LVU824
 2473 0008 23EA0101 		bic	r1, r3, r1
 2474              	.LVL248:
 255:lvgl/src/core/lv_obj.c ****     if(obj->state != new_state) {
 2475              		.loc 1 255 16 view .LVU825
 2476 000c 89B2     		uxth	r1, r1
 2477              	.LVL249:
 256:lvgl/src/core/lv_obj.c ****         lv_obj_set_state(obj, new_state);
 2478              		.loc 1 256 5 is_stmt 1 view .LVU826
 256:lvgl/src/core/lv_obj.c ****         lv_obj_set_state(obj, new_state);
 2479              		.loc 1 256 7 is_stmt 0 view .LVU827
 2480 000e 8A42     		cmp	r2, r1
 2481 0010 00D1     		bne	.L136
 2482              	.LVL250:
 2483              	.L133:
 259:lvgl/src/core/lv_obj.c **** 
 2484              		.loc 1 259 1 view .LVU828
 2485 0012 08BD     		pop	{r3, pc}
 2486              	.LVL251:
 2487              	.L136:
 257:lvgl/src/core/lv_obj.c ****     }
 2488              		.loc 1 257 9 is_stmt 1 view .LVU829
 2489 0014 FFF7FEFF 		bl	lv_obj_set_state
 2490              	.LVL252:
 259:lvgl/src/core/lv_obj.c **** 
 2491              		.loc 1 259 1 is_stmt 0 view .LVU830
 2492 0018 FBE7     		b	.L133
 2493              		.cfi_endproc
 2494              	.LFE159:
 2496              		.section	.text.lv_obj_has_flag,"ax",%progbits
 2497              		.align	1
 2498              		.global	lv_obj_has_flag
 2499              		.syntax unified
 2500              		.thumb
 2501              		.thumb_func
 2503              	lv_obj_has_flag:
 2504              	.LVL253:
 2505              	.LFB160:
 266:lvgl/src/core/lv_obj.c ****     LV_ASSERT_OBJ(obj, MY_CLASS);
 2506              		.loc 1 266 1 is_stmt 1 view -0
 2507              		.cfi_startproc
 2508              		@ args = 0, pretend = 0, frame = 0
 2509              		@ frame_needed = 0, uses_anonymous_args = 0
 2510              		@ link register save eliminated.
 267:lvgl/src/core/lv_obj.c **** 
 2511              		.loc 1 267 5 view .LVU832
 267:lvgl/src/core/lv_obj.c **** 
 2512              		.loc 1 267 5 view .LVU833
 267:lvgl/src/core/lv_obj.c **** 
 2513              		.loc 1 267 5 view .LVU834
 269:lvgl/src/core/lv_obj.c **** }
 2514              		.loc 1 269 5 view .LVU835
ARM GAS  C:\Users\BLACK_~1\AppData\Local\Temp\ccVQcfpA.s 			page 89


 269:lvgl/src/core/lv_obj.c **** }
 2515              		.loc 1 269 16 is_stmt 0 view .LVU836
 2516 0000 C369     		ldr	r3, [r0, #28]
 269:lvgl/src/core/lv_obj.c **** }
 2517              		.loc 1 269 42 view .LVU837
 2518 0002 31EA0303 		bics	r3, r1, r3
 270:lvgl/src/core/lv_obj.c **** 
 2519              		.loc 1 270 1 view .LVU838
 2520 0006 0CBF     		ite	eq
 2521 0008 0120     		moveq	r0, #1
 2522              	.LVL254:
 270:lvgl/src/core/lv_obj.c **** 
 2523              		.loc 1 270 1 view .LVU839
 2524 000a 0020     		movne	r0, #0
 2525 000c 7047     		bx	lr
 2526              		.cfi_endproc
 2527              	.LFE160:
 2529              		.section	.text.lv_obj_has_flag_any,"ax",%progbits
 2530              		.align	1
 2531              		.global	lv_obj_has_flag_any
 2532              		.syntax unified
 2533              		.thumb
 2534              		.thumb_func
 2536              	lv_obj_has_flag_any:
 2537              	.LVL255:
 2538              	.LFB161:
 273:lvgl/src/core/lv_obj.c ****     LV_ASSERT_OBJ(obj, MY_CLASS);
 2539              		.loc 1 273 1 is_stmt 1 view -0
 2540              		.cfi_startproc
 2541              		@ args = 0, pretend = 0, frame = 0
 2542              		@ frame_needed = 0, uses_anonymous_args = 0
 2543              		@ link register save eliminated.
 274:lvgl/src/core/lv_obj.c **** 
 2544              		.loc 1 274 5 view .LVU841
 274:lvgl/src/core/lv_obj.c **** 
 2545              		.loc 1 274 5 view .LVU842
 274:lvgl/src/core/lv_obj.c **** 
 2546              		.loc 1 274 5 view .LVU843
 276:lvgl/src/core/lv_obj.c **** }
 2547              		.loc 1 276 5 view .LVU844
 276:lvgl/src/core/lv_obj.c **** }
 2548              		.loc 1 276 16 is_stmt 0 view .LVU845
 2549 0000 C369     		ldr	r3, [r0, #28]
 276:lvgl/src/core/lv_obj.c **** }
 2550              		.loc 1 276 36 view .LVU846
 2551 0002 0B42     		tst	r3, r1
 277:lvgl/src/core/lv_obj.c **** 
 2552              		.loc 1 277 1 view .LVU847
 2553 0004 14BF     		ite	ne
 2554 0006 0120     		movne	r0, #1
 2555              	.LVL256:
 277:lvgl/src/core/lv_obj.c **** 
 2556              		.loc 1 277 1 view .LVU848
 2557 0008 0020     		moveq	r0, #0
 2558 000a 7047     		bx	lr
 2559              		.cfi_endproc
 2560              	.LFE161:
ARM GAS  C:\Users\BLACK_~1\AppData\Local\Temp\ccVQcfpA.s 			page 90


 2562              		.section	.text.lv_obj_get_state,"ax",%progbits
 2563              		.align	1
 2564              		.global	lv_obj_get_state
 2565              		.syntax unified
 2566              		.thumb
 2567              		.thumb_func
 2569              	lv_obj_get_state:
 2570              	.LVL257:
 2571              	.LFB162:
 280:lvgl/src/core/lv_obj.c ****     LV_ASSERT_OBJ(obj, MY_CLASS);
 2572              		.loc 1 280 1 is_stmt 1 view -0
 2573              		.cfi_startproc
 2574              		@ args = 0, pretend = 0, frame = 0
 2575              		@ frame_needed = 0, uses_anonymous_args = 0
 2576              		@ link register save eliminated.
 281:lvgl/src/core/lv_obj.c **** 
 2577              		.loc 1 281 5 view .LVU850
 281:lvgl/src/core/lv_obj.c **** 
 2578              		.loc 1 281 5 view .LVU851
 281:lvgl/src/core/lv_obj.c **** 
 2579              		.loc 1 281 5 view .LVU852
 283:lvgl/src/core/lv_obj.c **** }
 2580              		.loc 1 283 5 view .LVU853
 284:lvgl/src/core/lv_obj.c **** 
 2581              		.loc 1 284 1 is_stmt 0 view .LVU854
 2582 0000 008C     		ldrh	r0, [r0, #32]
 2583              	.LVL258:
 284:lvgl/src/core/lv_obj.c **** 
 2584              		.loc 1 284 1 view .LVU855
 2585 0002 7047     		bx	lr
 2586              		.cfi_endproc
 2587              	.LFE162:
 2589              		.section	.text.lv_obj_has_state,"ax",%progbits
 2590              		.align	1
 2591              		.global	lv_obj_has_state
 2592              		.syntax unified
 2593              		.thumb
 2594              		.thumb_func
 2596              	lv_obj_has_state:
 2597              	.LVL259:
 2598              	.LFB163:
 287:lvgl/src/core/lv_obj.c ****     LV_ASSERT_OBJ(obj, MY_CLASS);
 2599              		.loc 1 287 1 is_stmt 1 view -0
 2600              		.cfi_startproc
 2601              		@ args = 0, pretend = 0, frame = 0
 2602              		@ frame_needed = 0, uses_anonymous_args = 0
 2603              		@ link register save eliminated.
 288:lvgl/src/core/lv_obj.c **** 
 2604              		.loc 1 288 5 view .LVU857
 288:lvgl/src/core/lv_obj.c **** 
 2605              		.loc 1 288 5 view .LVU858
 288:lvgl/src/core/lv_obj.c **** 
 2606              		.loc 1 288 5 view .LVU859
 290:lvgl/src/core/lv_obj.c **** }
 2607              		.loc 1 290 5 view .LVU860
 290:lvgl/src/core/lv_obj.c **** }
 2608              		.loc 1 290 15 is_stmt 0 view .LVU861
ARM GAS  C:\Users\BLACK_~1\AppData\Local\Temp\ccVQcfpA.s 			page 91


 2609 0000 038C     		ldrh	r3, [r0, #32]
 290:lvgl/src/core/lv_obj.c **** }
 2610              		.loc 1 290 38 view .LVU862
 2611 0002 0B42     		tst	r3, r1
 291:lvgl/src/core/lv_obj.c **** 
 2612              		.loc 1 291 1 view .LVU863
 2613 0004 14BF     		ite	ne
 2614 0006 0120     		movne	r0, #1
 2615              	.LVL260:
 291:lvgl/src/core/lv_obj.c **** 
 2616              		.loc 1 291 1 view .LVU864
 2617 0008 0020     		moveq	r0, #0
 2618 000a 7047     		bx	lr
 2619              		.cfi_endproc
 2620              	.LFE163:
 2622              		.section	.text.lv_obj_get_group,"ax",%progbits
 2623              		.align	1
 2624              		.global	lv_obj_get_group
 2625              		.syntax unified
 2626              		.thumb
 2627              		.thumb_func
 2629              	lv_obj_get_group:
 2630              	.LVL261:
 2631              	.LFB164:
 294:lvgl/src/core/lv_obj.c ****     LV_ASSERT_OBJ(obj, MY_CLASS);
 2632              		.loc 1 294 1 is_stmt 1 view -0
 2633              		.cfi_startproc
 2634              		@ args = 0, pretend = 0, frame = 0
 2635              		@ frame_needed = 0, uses_anonymous_args = 0
 2636              		@ link register save eliminated.
 295:lvgl/src/core/lv_obj.c **** 
 2637              		.loc 1 295 5 view .LVU866
 295:lvgl/src/core/lv_obj.c **** 
 2638              		.loc 1 295 5 view .LVU867
 295:lvgl/src/core/lv_obj.c **** 
 2639              		.loc 1 295 5 view .LVU868
 297:lvgl/src/core/lv_obj.c ****     else return NULL;
 2640              		.loc 1 297 5 view .LVU869
 297:lvgl/src/core/lv_obj.c ****     else return NULL;
 2641              		.loc 1 297 11 is_stmt 0 view .LVU870
 2642 0000 8068     		ldr	r0, [r0, #8]
 2643              	.LVL262:
 297:lvgl/src/core/lv_obj.c ****     else return NULL;
 2644              		.loc 1 297 7 view .LVU871
 2645 0002 00B1     		cbz	r0, .L141
 297:lvgl/src/core/lv_obj.c ****     else return NULL;
 2646              		.loc 1 297 24 is_stmt 1 discriminator 1 view .LVU872
 297:lvgl/src/core/lv_obj.c ****     else return NULL;
 2647              		.loc 1 297 45 is_stmt 0 discriminator 1 view .LVU873
 2648 0004 8068     		ldr	r0, [r0, #8]
 2649              	.L141:
 299:lvgl/src/core/lv_obj.c **** 
 2650              		.loc 1 299 1 view .LVU874
 2651 0006 7047     		bx	lr
 2652              		.cfi_endproc
 2653              	.LFE164:
 2655              		.section	.text.lv_obj_event,"ax",%progbits
ARM GAS  C:\Users\BLACK_~1\AppData\Local\Temp\ccVQcfpA.s 			page 92


 2656              		.align	1
 2657              		.syntax unified
 2658              		.thumb
 2659              		.thumb_func
 2661              	lv_obj_event:
 2662              	.LVL263:
 2663              	.LFB175:
 614:lvgl/src/core/lv_obj.c ****     LV_UNUSED(class_p);
 2664              		.loc 1 614 1 is_stmt 1 view -0
 2665              		.cfi_startproc
 2666              		@ args = 0, pretend = 0, frame = 0
 2667              		@ frame_needed = 0, uses_anonymous_args = 0
 614:lvgl/src/core/lv_obj.c ****     LV_UNUSED(class_p);
 2668              		.loc 1 614 1 is_stmt 0 view .LVU876
 2669 0000 F8B5     		push	{r3, r4, r5, r6, r7, lr}
 2670              	.LCFI22:
 2671              		.cfi_def_cfa_offset 24
 2672              		.cfi_offset 3, -24
 2673              		.cfi_offset 4, -20
 2674              		.cfi_offset 5, -16
 2675              		.cfi_offset 6, -12
 2676              		.cfi_offset 7, -8
 2677              		.cfi_offset 14, -4
 2678 0002 0E46     		mov	r6, r1
 615:lvgl/src/core/lv_obj.c **** 
 2679              		.loc 1 615 5 is_stmt 1 view .LVU877
 617:lvgl/src/core/lv_obj.c ****     lv_obj_t * obj = lv_event_get_target(e);
 2680              		.loc 1 617 5 view .LVU878
 617:lvgl/src/core/lv_obj.c ****     lv_obj_t * obj = lv_event_get_target(e);
 2681              		.loc 1 617 28 is_stmt 0 view .LVU879
 2682 0004 0846     		mov	r0, r1
 2683              	.LVL264:
 617:lvgl/src/core/lv_obj.c ****     lv_obj_t * obj = lv_event_get_target(e);
 2684              		.loc 1 617 28 view .LVU880
 2685 0006 FFF7FEFF 		bl	lv_event_get_code
 2686              	.LVL265:
 617:lvgl/src/core/lv_obj.c ****     lv_obj_t * obj = lv_event_get_target(e);
 2687              		.loc 1 617 28 view .LVU881
 2688 000a 0446     		mov	r4, r0
 2689              	.LVL266:
 618:lvgl/src/core/lv_obj.c ****     if(code == LV_EVENT_PRESSED) {
 2690              		.loc 1 618 5 is_stmt 1 view .LVU882
 618:lvgl/src/core/lv_obj.c ****     if(code == LV_EVENT_PRESSED) {
 2691              		.loc 1 618 22 is_stmt 0 view .LVU883
 2692 000c 3046     		mov	r0, r6
 2693 000e FFF7FEFF 		bl	lv_event_get_target
 2694              	.LVL267:
 2695 0012 0546     		mov	r5, r0
 2696              	.LVL268:
 619:lvgl/src/core/lv_obj.c ****         lv_obj_add_state(obj, LV_STATE_PRESSED);
 2697              		.loc 1 619 5 is_stmt 1 view .LVU884
 619:lvgl/src/core/lv_obj.c ****         lv_obj_add_state(obj, LV_STATE_PRESSED);
 2698              		.loc 1 619 7 is_stmt 0 view .LVU885
 2699 0014 012C     		cmp	r4, #1
 2700 0016 25D0     		beq	.L178
 622:lvgl/src/core/lv_obj.c ****         lv_obj_clear_state(obj, LV_STATE_PRESSED);
 2701              		.loc 1 622 10 is_stmt 1 view .LVU886
ARM GAS  C:\Users\BLACK_~1\AppData\Local\Temp\ccVQcfpA.s 			page 93


 622:lvgl/src/core/lv_obj.c ****         lv_obj_clear_state(obj, LV_STATE_PRESSED);
 2702              		.loc 1 622 12 is_stmt 0 view .LVU887
 2703 0018 082C     		cmp	r4, #8
 2704 001a 27D0     		beq	.L179
 634:lvgl/src/core/lv_obj.c ****         lv_obj_clear_state(obj, LV_STATE_PRESSED);
 2705              		.loc 1 634 10 is_stmt 1 view .LVU888
 634:lvgl/src/core/lv_obj.c ****         lv_obj_clear_state(obj, LV_STATE_PRESSED);
 2706              		.loc 1 634 12 is_stmt 0 view .LVU889
 2707 001c 032C     		cmp	r4, #3
 2708 001e 4AD0     		beq	.L180
 637:lvgl/src/core/lv_obj.c ****         uint32_t child_cnt = lv_obj_get_child_cnt(obj);
 2709              		.loc 1 637 10 is_stmt 1 view .LVU890
 637:lvgl/src/core/lv_obj.c ****         uint32_t child_cnt = lv_obj_get_child_cnt(obj);
 2710              		.loc 1 637 12 is_stmt 0 view .LVU891
 2711 0020 242C     		cmp	r4, #36
 2712 0022 4CD0     		beq	.L181
 644:lvgl/src/core/lv_obj.c ****         if(lv_obj_has_flag(obj, LV_OBJ_FLAG_CHECKABLE)) {
 2713              		.loc 1 644 10 is_stmt 1 view .LVU892
 644:lvgl/src/core/lv_obj.c ****         if(lv_obj_has_flag(obj, LV_OBJ_FLAG_CHECKABLE)) {
 2714              		.loc 1 644 12 is_stmt 0 view .LVU893
 2715 0024 0D2C     		cmp	r4, #13
 2716 0026 58D0     		beq	.L182
 661:lvgl/src/core/lv_obj.c ****         if(lv_obj_has_flag(obj, LV_OBJ_FLAG_SCROLL_ON_FOCUS)) {
 2717              		.loc 1 661 10 is_stmt 1 view .LVU894
 661:lvgl/src/core/lv_obj.c ****         if(lv_obj_has_flag(obj, LV_OBJ_FLAG_SCROLL_ON_FOCUS)) {
 2718              		.loc 1 661 12 is_stmt 0 view .LVU895
 2719 0028 0E2C     		cmp	r4, #14
 2720 002a 78D0     		beq	.L183
 687:lvgl/src/core/lv_obj.c ****         lv_obj_add_state(obj, LV_STATE_SCROLLED);
 2721              		.loc 1 687 10 is_stmt 1 view .LVU896
 687:lvgl/src/core/lv_obj.c ****         lv_obj_add_state(obj, LV_STATE_SCROLLED);
 2722              		.loc 1 687 12 is_stmt 0 view .LVU897
 2723 002c 092C     		cmp	r4, #9
 2724 002e 00F0A780 		beq	.L184
 690:lvgl/src/core/lv_obj.c ****         lv_obj_clear_state(obj, LV_STATE_SCROLLED);
 2725              		.loc 1 690 10 is_stmt 1 view .LVU898
 690:lvgl/src/core/lv_obj.c ****         lv_obj_clear_state(obj, LV_STATE_SCROLLED);
 2726              		.loc 1 690 12 is_stmt 0 view .LVU899
 2727 0032 0A2C     		cmp	r4, #10
 2728 0034 00F0A880 		beq	.L185
 693:lvgl/src/core/lv_obj.c ****         lv_obj_clear_state(obj, LV_STATE_FOCUSED | LV_STATE_EDITED | LV_STATE_FOCUS_KEY);
 2729              		.loc 1 693 10 is_stmt 1 view .LVU900
 693:lvgl/src/core/lv_obj.c ****         lv_obj_clear_state(obj, LV_STATE_FOCUSED | LV_STATE_EDITED | LV_STATE_FOCUS_KEY);
 2730              		.loc 1 693 12 is_stmt 0 view .LVU901
 2731 0038 0F2C     		cmp	r4, #15
 2732 003a 00F0A980 		beq	.L186
 696:lvgl/src/core/lv_obj.c ****         lv_coord_t align = lv_obj_get_style_align(obj, LV_PART_MAIN);
 2733              		.loc 1 696 10 is_stmt 1 view .LVU902
 696:lvgl/src/core/lv_obj.c ****         lv_coord_t align = lv_obj_get_style_align(obj, LV_PART_MAIN);
 2734              		.loc 1 696 12 is_stmt 0 view .LVU903
 2735 003e 232C     		cmp	r4, #35
 2736 0040 00F0AA80 		beq	.L187
 709:lvgl/src/core/lv_obj.c ****         lv_coord_t w = lv_obj_get_style_width(obj, LV_PART_MAIN);
 2737              		.loc 1 709 10 is_stmt 1 view .LVU904
 709:lvgl/src/core/lv_obj.c ****         lv_coord_t w = lv_obj_get_style_width(obj, LV_PART_MAIN);
 2738              		.loc 1 709 12 is_stmt 0 view .LVU905
 2739 0044 222C     		cmp	r4, #34
ARM GAS  C:\Users\BLACK_~1\AppData\Local\Temp\ccVQcfpA.s 			page 94


 2740 0046 00F0C880 		beq	.L188
 718:lvgl/src/core/lv_obj.c ****         if(lv_obj_get_scrollbar_mode(obj) == LV_SCROLLBAR_MODE_ACTIVE) {
 2741              		.loc 1 718 10 is_stmt 1 view .LVU906
 723:lvgl/src/core/lv_obj.c ****         lv_coord_t * s = lv_event_get_param(e);
 2742              		.loc 1 723 10 view .LVU907
 723:lvgl/src/core/lv_obj.c ****         lv_coord_t * s = lv_event_get_param(e);
 2743              		.loc 1 723 12 is_stmt 0 view .LVU908
 2744 004a 132C     		cmp	r4, #19
 2745 004c 00F0ED80 		beq	.L189
 728:lvgl/src/core/lv_obj.c ****         lv_obj_draw(e);
 2746              		.loc 1 728 10 is_stmt 1 view .LVU909
 728:lvgl/src/core/lv_obj.c ****         lv_obj_draw(e);
 2747              		.loc 1 728 12 is_stmt 0 view .LVU910
 2748 0050 152C     		cmp	r4, #21
 2749 0052 03D0     		beq	.L174
 728:lvgl/src/core/lv_obj.c ****         lv_obj_draw(e);
 2750              		.loc 1 728 40 discriminator 1 view .LVU911
 2751 0054 182C     		cmp	r4, #24
 2752 0056 01D0     		beq	.L174
 728:lvgl/src/core/lv_obj.c ****         lv_obj_draw(e);
 2753              		.loc 1 728 70 discriminator 2 view .LVU912
 2754 0058 122C     		cmp	r4, #18
 2755 005a 06D1     		bne	.L143
 2756              	.L174:
 729:lvgl/src/core/lv_obj.c ****     }
 2757              		.loc 1 729 9 is_stmt 1 view .LVU913
 2758 005c 3046     		mov	r0, r6
 2759              	.LVL269:
 729:lvgl/src/core/lv_obj.c ****     }
 2760              		.loc 1 729 9 is_stmt 0 view .LVU914
 2761 005e FFF7FEFF 		bl	lv_obj_draw
 2762              	.LVL270:
 2763 0062 02E0     		b	.L143
 2764              	.LVL271:
 2765              	.L178:
 620:lvgl/src/core/lv_obj.c ****     }
 2766              		.loc 1 620 9 is_stmt 1 view .LVU915
 2767 0064 2021     		movs	r1, #32
 2768 0066 FFF7FEFF 		bl	lv_obj_add_state
 2769              	.LVL272:
 2770              	.L143:
 731:lvgl/src/core/lv_obj.c **** 
 2771              		.loc 1 731 1 is_stmt 0 view .LVU916
 2772 006a F8BD     		pop	{r3, r4, r5, r6, r7, pc}
 2773              	.LVL273:
 2774              	.L179:
 2775              	.LBB196:
 623:lvgl/src/core/lv_obj.c ****         void * param = lv_event_get_param(e);
 2776              		.loc 1 623 9 is_stmt 1 view .LVU917
 2777 006c 2021     		movs	r1, #32
 2778 006e FFF7FEFF 		bl	lv_obj_clear_state
 2779              	.LVL274:
 624:lvgl/src/core/lv_obj.c ****         /*Go the checked state if enabled*/
 2780              		.loc 1 624 9 view .LVU918
 624:lvgl/src/core/lv_obj.c ****         /*Go the checked state if enabled*/
 2781              		.loc 1 624 24 is_stmt 0 view .LVU919
 2782 0072 3046     		mov	r0, r6
ARM GAS  C:\Users\BLACK_~1\AppData\Local\Temp\ccVQcfpA.s 			page 95


 2783 0074 FFF7FEFF 		bl	lv_event_get_param
 2784              	.LVL275:
 626:lvgl/src/core/lv_obj.c ****             if(!(lv_obj_get_state(obj) & LV_STATE_CHECKED)) lv_obj_add_state(obj, LV_STATE_CHECKED)
 2785              		.loc 1 626 9 is_stmt 1 view .LVU920
 626:lvgl/src/core/lv_obj.c ****             if(!(lv_obj_get_state(obj) & LV_STATE_CHECKED)) lv_obj_add_state(obj, LV_STATE_CHECKED)
 2786              		.loc 1 626 12 is_stmt 0 view .LVU921
 2787 0078 FFF7FEFF 		bl	lv_indev_get_scroll_obj
 2788              	.LVL276:
 626:lvgl/src/core/lv_obj.c ****             if(!(lv_obj_get_state(obj) & LV_STATE_CHECKED)) lv_obj_add_state(obj, LV_STATE_CHECKED)
 2789              		.loc 1 626 11 view .LVU922
 2790 007c 0028     		cmp	r0, #0
 2791 007e F4D1     		bne	.L143
 626:lvgl/src/core/lv_obj.c ****             if(!(lv_obj_get_state(obj) & LV_STATE_CHECKED)) lv_obj_add_state(obj, LV_STATE_CHECKED)
 2792              		.loc 1 626 54 discriminator 1 view .LVU923
 2793 0080 0821     		movs	r1, #8
 2794 0082 2846     		mov	r0, r5
 2795 0084 FFF7FEFF 		bl	lv_obj_has_flag
 2796              	.LVL277:
 626:lvgl/src/core/lv_obj.c ****             if(!(lv_obj_get_state(obj) & LV_STATE_CHECKED)) lv_obj_add_state(obj, LV_STATE_CHECKED)
 2797              		.loc 1 626 51 discriminator 1 view .LVU924
 2798 0088 0028     		cmp	r0, #0
 2799 008a EED0     		beq	.L143
 2800              	.LBB197:
 627:lvgl/src/core/lv_obj.c ****             else lv_obj_clear_state(obj, LV_STATE_CHECKED);
 2801              		.loc 1 627 13 is_stmt 1 view .LVU925
 627:lvgl/src/core/lv_obj.c ****             else lv_obj_clear_state(obj, LV_STATE_CHECKED);
 2802              		.loc 1 627 18 is_stmt 0 view .LVU926
 2803 008c 2846     		mov	r0, r5
 2804 008e FFF7FEFF 		bl	lv_obj_get_state
 2805              	.LVL278:
 627:lvgl/src/core/lv_obj.c ****             else lv_obj_clear_state(obj, LV_STATE_CHECKED);
 2806              		.loc 1 627 15 view .LVU927
 2807 0092 10F0010F 		tst	r0, #1
 2808 0096 09D1     		bne	.L147
 627:lvgl/src/core/lv_obj.c ****             else lv_obj_clear_state(obj, LV_STATE_CHECKED);
 2809              		.loc 1 627 61 is_stmt 1 discriminator 1 view .LVU928
 2810 0098 0121     		movs	r1, #1
 2811 009a 2846     		mov	r0, r5
 2812 009c FFF7FEFF 		bl	lv_obj_add_state
 2813              	.LVL279:
 2814              	.L148:
 630:lvgl/src/core/lv_obj.c ****             if(res != LV_RES_OK) return;
 2815              		.loc 1 630 13 view .LVU929
 630:lvgl/src/core/lv_obj.c ****             if(res != LV_RES_OK) return;
 2816              		.loc 1 630 28 is_stmt 0 view .LVU930
 2817 00a0 0022     		movs	r2, #0
 2818 00a2 1C21     		movs	r1, #28
 2819 00a4 2846     		mov	r0, r5
 2820 00a6 FFF7FEFF 		bl	lv_event_send
 2821              	.LVL280:
 631:lvgl/src/core/lv_obj.c ****         }
 2822              		.loc 1 631 13 is_stmt 1 view .LVU931
 2823 00aa DEE7     		b	.L143
 2824              	.L147:
 628:lvgl/src/core/lv_obj.c **** 
 2825              		.loc 1 628 18 view .LVU932
 2826 00ac 0121     		movs	r1, #1
ARM GAS  C:\Users\BLACK_~1\AppData\Local\Temp\ccVQcfpA.s 			page 96


 2827 00ae 2846     		mov	r0, r5
 2828 00b0 FFF7FEFF 		bl	lv_obj_clear_state
 2829              	.LVL281:
 2830 00b4 F4E7     		b	.L148
 2831              	.LVL282:
 2832              	.L180:
 628:lvgl/src/core/lv_obj.c **** 
 2833              		.loc 1 628 18 is_stmt 0 view .LVU933
 2834              	.LBE197:
 2835              	.LBE196:
 635:lvgl/src/core/lv_obj.c ****     }
 2836              		.loc 1 635 9 is_stmt 1 view .LVU934
 2837 00b6 2021     		movs	r1, #32
 2838 00b8 FFF7FEFF 		bl	lv_obj_clear_state
 2839              	.LVL283:
 635:lvgl/src/core/lv_obj.c ****     }
 2840              		.loc 1 635 9 is_stmt 0 view .LVU935
 2841 00bc D5E7     		b	.L143
 2842              	.LVL284:
 2843              	.L181:
 2844              	.LBB198:
 638:lvgl/src/core/lv_obj.c ****         for(uint32_t i = 0; i < child_cnt; i++) {
 2845              		.loc 1 638 9 is_stmt 1 view .LVU936
 638:lvgl/src/core/lv_obj.c ****         for(uint32_t i = 0; i < child_cnt; i++) {
 2846              		.loc 1 638 30 is_stmt 0 view .LVU937
 2847 00be FFF7FEFF 		bl	lv_obj_get_child_cnt
 2848              	.LVL285:
 638:lvgl/src/core/lv_obj.c ****         for(uint32_t i = 0; i < child_cnt; i++) {
 2849              		.loc 1 638 30 view .LVU938
 2850 00c2 0646     		mov	r6, r0
 2851              	.LVL286:
 639:lvgl/src/core/lv_obj.c ****             lv_obj_t * child = obj->spec_attr->children[i];
 2852              		.loc 1 639 9 is_stmt 1 view .LVU939
 2853              	.LBB199:
 639:lvgl/src/core/lv_obj.c ****             lv_obj_t * child = obj->spec_attr->children[i];
 2854              		.loc 1 639 13 view .LVU940
 639:lvgl/src/core/lv_obj.c ****             lv_obj_t * child = obj->spec_attr->children[i];
 2855              		.loc 1 639 22 is_stmt 0 view .LVU941
 2856 00c4 0024     		movs	r4, #0
 2857              	.LVL287:
 2858              	.L151:
 639:lvgl/src/core/lv_obj.c ****             lv_obj_t * child = obj->spec_attr->children[i];
 2859              		.loc 1 639 29 is_stmt 1 discriminator 1 view .LVU942
 639:lvgl/src/core/lv_obj.c ****             lv_obj_t * child = obj->spec_attr->children[i];
 2860              		.loc 1 639 9 is_stmt 0 discriminator 1 view .LVU943
 2861 00c6 B442     		cmp	r4, r6
 2862 00c8 CFD2     		bcs	.L143
 2863              	.LBB200:
 640:lvgl/src/core/lv_obj.c ****             lv_obj_mark_layout_as_dirty(child);
 2864              		.loc 1 640 13 is_stmt 1 discriminator 3 view .LVU944
 640:lvgl/src/core/lv_obj.c ****             lv_obj_mark_layout_as_dirty(child);
 2865              		.loc 1 640 35 is_stmt 0 discriminator 3 view .LVU945
 2866 00ca AB68     		ldr	r3, [r5, #8]
 640:lvgl/src/core/lv_obj.c ****             lv_obj_mark_layout_as_dirty(child);
 2867              		.loc 1 640 46 discriminator 3 view .LVU946
 2868 00cc 1B68     		ldr	r3, [r3]
 2869              	.LVL288:
ARM GAS  C:\Users\BLACK_~1\AppData\Local\Temp\ccVQcfpA.s 			page 97


 641:lvgl/src/core/lv_obj.c ****         }
 2870              		.loc 1 641 13 is_stmt 1 discriminator 3 view .LVU947
 2871 00ce 53F82400 		ldr	r0, [r3, r4, lsl #2]
 2872 00d2 FFF7FEFF 		bl	lv_obj_mark_layout_as_dirty
 2873              	.LVL289:
 641:lvgl/src/core/lv_obj.c ****         }
 2874              		.loc 1 641 13 is_stmt 0 discriminator 3 view .LVU948
 2875              	.LBE200:
 639:lvgl/src/core/lv_obj.c ****             lv_obj_t * child = obj->spec_attr->children[i];
 2876              		.loc 1 639 44 is_stmt 1 discriminator 3 view .LVU949
 639:lvgl/src/core/lv_obj.c ****             lv_obj_t * child = obj->spec_attr->children[i];
 2877              		.loc 1 639 45 is_stmt 0 discriminator 3 view .LVU950
 2878 00d6 0134     		adds	r4, r4, #1
 2879              	.LVL290:
 639:lvgl/src/core/lv_obj.c ****             lv_obj_t * child = obj->spec_attr->children[i];
 2880              		.loc 1 639 45 discriminator 3 view .LVU951
 2881 00d8 F5E7     		b	.L151
 2882              	.LVL291:
 2883              	.L182:
 639:lvgl/src/core/lv_obj.c ****             lv_obj_t * child = obj->spec_attr->children[i];
 2884              		.loc 1 639 45 discriminator 3 view .LVU952
 2885              	.LBE199:
 2886              	.LBE198:
 645:lvgl/src/core/lv_obj.c ****             char c = *((char *)lv_event_get_param(e));
 2887              		.loc 1 645 9 is_stmt 1 view .LVU953
 645:lvgl/src/core/lv_obj.c ****             char c = *((char *)lv_event_get_param(e));
 2888              		.loc 1 645 12 is_stmt 0 view .LVU954
 2889 00da 0821     		movs	r1, #8
 2890 00dc FFF7FEFF 		bl	lv_obj_has_flag
 2891              	.LVL292:
 645:lvgl/src/core/lv_obj.c ****             char c = *((char *)lv_event_get_param(e));
 2892              		.loc 1 645 11 view .LVU955
 2893 00e0 0028     		cmp	r0, #0
 2894 00e2 C2D0     		beq	.L143
 2895              	.LBB201:
 646:lvgl/src/core/lv_obj.c ****             if(c == LV_KEY_RIGHT || c == LV_KEY_UP) {
 2896              		.loc 1 646 13 is_stmt 1 view .LVU956
 646:lvgl/src/core/lv_obj.c ****             if(c == LV_KEY_RIGHT || c == LV_KEY_UP) {
 2897              		.loc 1 646 32 is_stmt 0 view .LVU957
 2898 00e4 3046     		mov	r0, r6
 2899 00e6 FFF7FEFF 		bl	lv_event_get_param
 2900              	.LVL293:
 646:lvgl/src/core/lv_obj.c ****             if(c == LV_KEY_RIGHT || c == LV_KEY_UP) {
 2901              		.loc 1 646 18 view .LVU958
 2902 00ea 0478     		ldrb	r4, [r0]	@ zero_extendqisi2
 2903              	.LVL294:
 647:lvgl/src/core/lv_obj.c ****                 lv_obj_add_state(obj, LV_STATE_CHECKED);
 2904              		.loc 1 647 13 is_stmt 1 view .LVU959
 647:lvgl/src/core/lv_obj.c ****                 lv_obj_add_state(obj, LV_STATE_CHECKED);
 2905              		.loc 1 647 15 is_stmt 0 view .LVU960
 2906 00ec 132C     		cmp	r4, #19
 2907 00ee 0AD0     		beq	.L154
 647:lvgl/src/core/lv_obj.c ****                 lv_obj_add_state(obj, LV_STATE_CHECKED);
 2908              		.loc 1 647 34 discriminator 1 view .LVU961
 2909 00f0 112C     		cmp	r4, #17
 2910 00f2 08D0     		beq	.L154
 650:lvgl/src/core/lv_obj.c ****                 lv_obj_clear_state(obj, LV_STATE_CHECKED);
ARM GAS  C:\Users\BLACK_~1\AppData\Local\Temp\ccVQcfpA.s 			page 98


 2911              		.loc 1 650 18 is_stmt 1 view .LVU962
 650:lvgl/src/core/lv_obj.c ****                 lv_obj_clear_state(obj, LV_STATE_CHECKED);
 2912              		.loc 1 650 20 is_stmt 0 view .LVU963
 2913 00f4 142C     		cmp	r4, #20
 2914 00f6 01D0     		beq	.L157
 650:lvgl/src/core/lv_obj.c ****                 lv_obj_clear_state(obj, LV_STATE_CHECKED);
 2915              		.loc 1 650 38 discriminator 1 view .LVU964
 2916 00f8 122C     		cmp	r4, #18
 2917 00fa 08D1     		bne	.L156
 2918              	.L157:
 651:lvgl/src/core/lv_obj.c ****             }
 2919              		.loc 1 651 17 is_stmt 1 view .LVU965
 2920 00fc 0121     		movs	r1, #1
 2921 00fe 2846     		mov	r0, r5
 2922 0100 FFF7FEFF 		bl	lv_obj_clear_state
 2923              	.LVL295:
 2924 0104 03E0     		b	.L156
 2925              	.L154:
 648:lvgl/src/core/lv_obj.c ****             }
 2926              		.loc 1 648 17 view .LVU966
 2927 0106 0121     		movs	r1, #1
 2928 0108 2846     		mov	r0, r5
 2929 010a FFF7FEFF 		bl	lv_obj_add_state
 2930              	.LVL296:
 2931              	.L156:
 655:lvgl/src/core/lv_obj.c ****                 lv_res_t res = lv_event_send(obj, LV_EVENT_VALUE_CHANGED, NULL);
 2932              		.loc 1 655 13 view .LVU967
 655:lvgl/src/core/lv_obj.c ****                 lv_res_t res = lv_event_send(obj, LV_EVENT_VALUE_CHANGED, NULL);
 2933              		.loc 1 655 15 is_stmt 0 view .LVU968
 2934 010e 0A2C     		cmp	r4, #10
 2935 0110 ABD0     		beq	.L143
 2936              	.LBB202:
 656:lvgl/src/core/lv_obj.c ****                 if(res != LV_RES_OK) return;
 2937              		.loc 1 656 17 is_stmt 1 view .LVU969
 656:lvgl/src/core/lv_obj.c ****                 if(res != LV_RES_OK) return;
 2938              		.loc 1 656 32 is_stmt 0 view .LVU970
 2939 0112 0022     		movs	r2, #0
 2940 0114 1C21     		movs	r1, #28
 2941 0116 2846     		mov	r0, r5
 2942 0118 FFF7FEFF 		bl	lv_event_send
 2943              	.LVL297:
 657:lvgl/src/core/lv_obj.c ****             }
 2944              		.loc 1 657 17 is_stmt 1 view .LVU971
 2945 011c A5E7     		b	.L143
 2946              	.LVL298:
 2947              	.L183:
 657:lvgl/src/core/lv_obj.c ****             }
 2948              		.loc 1 657 17 is_stmt 0 view .LVU972
 2949              	.LBE202:
 2950              	.LBE201:
 2951              	.LBB203:
 662:lvgl/src/core/lv_obj.c ****             lv_obj_scroll_to_view_recursive(obj, LV_ANIM_ON);
 2952              		.loc 1 662 9 is_stmt 1 view .LVU973
 662:lvgl/src/core/lv_obj.c ****             lv_obj_scroll_to_view_recursive(obj, LV_ANIM_ON);
 2953              		.loc 1 662 12 is_stmt 0 view .LVU974
 2954 011e 4FF40071 		mov	r1, #512
 2955 0122 FFF7FEFF 		bl	lv_obj_has_flag
ARM GAS  C:\Users\BLACK_~1\AppData\Local\Temp\ccVQcfpA.s 			page 99


 2956              	.LVL299:
 662:lvgl/src/core/lv_obj.c ****             lv_obj_scroll_to_view_recursive(obj, LV_ANIM_ON);
 2957              		.loc 1 662 11 view .LVU975
 2958 0126 B0B9     		cbnz	r0, .L190
 2959              	.L159:
 666:lvgl/src/core/lv_obj.c ****         editing = lv_group_get_editing(lv_obj_get_group(obj));
 2960              		.loc 1 666 9 is_stmt 1 view .LVU976
 2961              	.LVL300:
 667:lvgl/src/core/lv_obj.c ****         lv_state_t state = LV_STATE_FOCUSED;
 2962              		.loc 1 667 9 view .LVU977
 667:lvgl/src/core/lv_obj.c ****         lv_state_t state = LV_STATE_FOCUSED;
 2963              		.loc 1 667 40 is_stmt 0 view .LVU978
 2964 0128 2846     		mov	r0, r5
 2965 012a FFF7FEFF 		bl	lv_obj_get_group
 2966              	.LVL301:
 667:lvgl/src/core/lv_obj.c ****         lv_state_t state = LV_STATE_FOCUSED;
 2967              		.loc 1 667 19 view .LVU979
 2968 012e FFF7FEFF 		bl	lv_group_get_editing
 2969              	.LVL302:
 2970 0132 0446     		mov	r4, r0
 2971              	.LVL303:
 668:lvgl/src/core/lv_obj.c **** 
 2972              		.loc 1 668 9 is_stmt 1 view .LVU980
 673:lvgl/src/core/lv_obj.c ****         if(indev == NULL) indev = lv_event_get_indev(e);
 2973              		.loc 1 673 9 view .LVU981
 673:lvgl/src/core/lv_obj.c ****         if(indev == NULL) indev = lv_event_get_indev(e);
 2974              		.loc 1 673 30 is_stmt 0 view .LVU982
 2975 0134 FFF7FEFF 		bl	lv_indev_get_act
 2976              	.LVL304:
 674:lvgl/src/core/lv_obj.c **** 
 2977              		.loc 1 674 9 is_stmt 1 view .LVU983
 674:lvgl/src/core/lv_obj.c **** 
 2978              		.loc 1 674 11 is_stmt 0 view .LVU984
 2979 0138 90B1     		cbz	r0, .L191
 2980              	.L160:
 676:lvgl/src/core/lv_obj.c ****         if(indev_type == LV_INDEV_TYPE_KEYPAD || indev_type == LV_INDEV_TYPE_ENCODER) state |= LV_S
 2981              		.loc 1 676 9 is_stmt 1 view .LVU985
 676:lvgl/src/core/lv_obj.c ****         if(indev_type == LV_INDEV_TYPE_KEYPAD || indev_type == LV_INDEV_TYPE_ENCODER) state |= LV_S
 2982              		.loc 1 676 38 is_stmt 0 view .LVU986
 2983 013a FFF7FEFF 		bl	lv_indev_get_type
 2984              	.LVL305:
 677:lvgl/src/core/lv_obj.c ****         if(editing) {
 2985              		.loc 1 677 9 is_stmt 1 view .LVU987
 677:lvgl/src/core/lv_obj.c ****         if(editing) {
 2986              		.loc 1 677 11 is_stmt 0 view .LVU988
 2987 013e 0228     		cmp	r0, #2
 2988 0140 12D0     		beq	.L175
 677:lvgl/src/core/lv_obj.c ****         if(editing) {
 2989              		.loc 1 677 47 discriminator 2 view .LVU989
 2990 0142 0428     		cmp	r0, #4
 2991 0144 12D0     		beq	.L176
 668:lvgl/src/core/lv_obj.c **** 
 2992              		.loc 1 668 20 view .LVU990
 2993 0146 0221     		movs	r1, #2
 2994              	.L161:
 2995              	.LVL306:
 678:lvgl/src/core/lv_obj.c ****             state |= LV_STATE_EDITED;
ARM GAS  C:\Users\BLACK_~1\AppData\Local\Temp\ccVQcfpA.s 			page 100


 2996              		.loc 1 678 9 is_stmt 1 view .LVU991
 678:lvgl/src/core/lv_obj.c ****             state |= LV_STATE_EDITED;
 2997              		.loc 1 678 11 is_stmt 0 view .LVU992
 2998 0148 94B1     		cbz	r4, .L162
 679:lvgl/src/core/lv_obj.c ****             lv_obj_add_state(obj, state);
 2999              		.loc 1 679 13 is_stmt 1 view .LVU993
 3000              	.LVL307:
 680:lvgl/src/core/lv_obj.c ****         }
 3001              		.loc 1 680 13 view .LVU994
 3002 014a 41F00801 		orr	r1, r1, #8
 3003              	.LVL308:
 680:lvgl/src/core/lv_obj.c ****         }
 3004              		.loc 1 680 13 is_stmt 0 view .LVU995
 3005 014e 2846     		mov	r0, r5
 3006              	.LVL309:
 680:lvgl/src/core/lv_obj.c ****         }
 3007              		.loc 1 680 13 view .LVU996
 3008 0150 FFF7FEFF 		bl	lv_obj_add_state
 3009              	.LVL310:
 3010 0154 89E7     		b	.L143
 3011              	.LVL311:
 3012              	.L190:
 663:lvgl/src/core/lv_obj.c ****         }
 3013              		.loc 1 663 13 is_stmt 1 view .LVU997
 3014 0156 0121     		movs	r1, #1
 3015 0158 2846     		mov	r0, r5
 3016 015a FFF7FEFF 		bl	lv_obj_scroll_to_view_recursive
 3017              	.LVL312:
 3018 015e E3E7     		b	.L159
 3019              	.LVL313:
 3020              	.L191:
 674:lvgl/src/core/lv_obj.c **** 
 3021              		.loc 1 674 27 discriminator 1 view .LVU998
 674:lvgl/src/core/lv_obj.c **** 
 3022              		.loc 1 674 35 is_stmt 0 discriminator 1 view .LVU999
 3023 0160 3046     		mov	r0, r6
 3024              	.LVL314:
 674:lvgl/src/core/lv_obj.c **** 
 3025              		.loc 1 674 35 discriminator 1 view .LVU1000
 3026 0162 FFF7FEFF 		bl	lv_event_get_indev
 3027              	.LVL315:
 674:lvgl/src/core/lv_obj.c **** 
 3028              		.loc 1 674 35 discriminator 1 view .LVU1001
 3029 0166 E8E7     		b	.L160
 3030              	.LVL316:
 3031              	.L175:
 677:lvgl/src/core/lv_obj.c ****         if(editing) {
 3032              		.loc 1 677 93 view .LVU1002
 3033 0168 0621     		movs	r1, #6
 3034 016a EDE7     		b	.L161
 3035              	.L176:
 3036 016c 0621     		movs	r1, #6
 3037 016e EBE7     		b	.L161
 3038              	.LVL317:
 3039              	.L162:
 683:lvgl/src/core/lv_obj.c ****             lv_obj_clear_state(obj, LV_STATE_EDITED);
 3040              		.loc 1 683 13 is_stmt 1 view .LVU1003
ARM GAS  C:\Users\BLACK_~1\AppData\Local\Temp\ccVQcfpA.s 			page 101


 3041 0170 2846     		mov	r0, r5
 3042              	.LVL318:
 683:lvgl/src/core/lv_obj.c ****             lv_obj_clear_state(obj, LV_STATE_EDITED);
 3043              		.loc 1 683 13 is_stmt 0 view .LVU1004
 3044 0172 FFF7FEFF 		bl	lv_obj_add_state
 3045              	.LVL319:
 684:lvgl/src/core/lv_obj.c ****         }
 3046              		.loc 1 684 13 is_stmt 1 view .LVU1005
 3047 0176 0821     		movs	r1, #8
 3048 0178 2846     		mov	r0, r5
 3049 017a FFF7FEFF 		bl	lv_obj_clear_state
 3050              	.LVL320:
 3051 017e 74E7     		b	.L143
 3052              	.LVL321:
 3053              	.L184:
 684:lvgl/src/core/lv_obj.c ****         }
 3054              		.loc 1 684 13 is_stmt 0 view .LVU1006
 3055              	.LBE203:
 688:lvgl/src/core/lv_obj.c ****     }
 3056              		.loc 1 688 9 is_stmt 1 view .LVU1007
 3057 0180 4021     		movs	r1, #64
 3058 0182 FFF7FEFF 		bl	lv_obj_add_state
 3059              	.LVL322:
 688:lvgl/src/core/lv_obj.c ****     }
 3060              		.loc 1 688 9 is_stmt 0 view .LVU1008
 3061 0186 70E7     		b	.L143
 3062              	.LVL323:
 3063              	.L185:
 691:lvgl/src/core/lv_obj.c ****     }
 3064              		.loc 1 691 9 is_stmt 1 view .LVU1009
 3065 0188 4021     		movs	r1, #64
 3066 018a FFF7FEFF 		bl	lv_obj_clear_state
 3067              	.LVL324:
 691:lvgl/src/core/lv_obj.c ****     }
 3068              		.loc 1 691 9 is_stmt 0 view .LVU1010
 3069 018e 6CE7     		b	.L143
 3070              	.LVL325:
 3071              	.L186:
 694:lvgl/src/core/lv_obj.c ****     }
 3072              		.loc 1 694 9 is_stmt 1 view .LVU1011
 3073 0190 0E21     		movs	r1, #14
 3074 0192 FFF7FEFF 		bl	lv_obj_clear_state
 3075              	.LVL326:
 694:lvgl/src/core/lv_obj.c ****     }
 3076              		.loc 1 694 9 is_stmt 0 view .LVU1012
 3077 0196 68E7     		b	.L143
 3078              	.LVL327:
 3079              	.L187:
 3080              	.LBB204:
 697:lvgl/src/core/lv_obj.c ****         uint16_t layout = lv_obj_get_style_layout(obj, LV_PART_MAIN);
 3081              		.loc 1 697 9 is_stmt 1 view .LVU1013
 3082              	.LBB205:
 3083              	.LBI205:
  49:lvgl/src/core/lv_obj_style_gen.h **** {
 3084              		.loc 2 49 26 view .LVU1014
 3085              	.LBB206:
  51:lvgl/src/core/lv_obj_style_gen.h ****     return (lv_align_t)v.num;
ARM GAS  C:\Users\BLACK_~1\AppData\Local\Temp\ccVQcfpA.s 			page 102


 3086              		.loc 2 51 5 view .LVU1015
  51:lvgl/src/core/lv_obj_style_gen.h ****     return (lv_align_t)v.num;
 3087              		.loc 2 51 26 is_stmt 0 view .LVU1016
 3088 0198 41F20902 		movw	r2, #4105
 3089 019c 0021     		movs	r1, #0
 3090 019e FFF7FEFF 		bl	lv_obj_get_style_prop
 3091              	.LVL328:
  52:lvgl/src/core/lv_obj_style_gen.h **** }
 3092              		.loc 2 52 5 is_stmt 1 view .LVU1017
  52:lvgl/src/core/lv_obj_style_gen.h **** }
 3093              		.loc 2 52 12 is_stmt 0 view .LVU1018
 3094 01a2 C4B2     		uxtb	r4, r0
 3095              	.LVL329:
  52:lvgl/src/core/lv_obj_style_gen.h **** }
 3096              		.loc 2 52 12 view .LVU1019
 3097              	.LBE206:
 3098              	.LBE205:
 698:lvgl/src/core/lv_obj.c ****         if(layout || align) {
 3099              		.loc 1 698 9 is_stmt 1 view .LVU1020
 3100              	.LBB207:
 3101              	.LBI207:
 181:lvgl/src/core/lv_obj_style_gen.h **** {
 3102              		.loc 2 181 24 view .LVU1021
 3103              	.LBB208:
 183:lvgl/src/core/lv_obj_style_gen.h ****     return (uint16_t)v.num;
 3104              		.loc 2 183 5 view .LVU1022
 183:lvgl/src/core/lv_obj_style_gen.h ****     return (uint16_t)v.num;
 3105              		.loc 2 183 26 is_stmt 0 view .LVU1023
 3106 01a4 41F26902 		movw	r2, #4201
 3107 01a8 0021     		movs	r1, #0
 3108 01aa 2846     		mov	r0, r5
 3109 01ac FFF7FEFF 		bl	lv_obj_get_style_prop
 3110              	.LVL330:
 184:lvgl/src/core/lv_obj_style_gen.h **** }
 3111              		.loc 2 184 5 is_stmt 1 view .LVU1024
 184:lvgl/src/core/lv_obj_style_gen.h **** }
 3112              		.loc 2 184 12 is_stmt 0 view .LVU1025
 3113 01b0 80B2     		uxth	r0, r0
 3114              	.LVL331:
 184:lvgl/src/core/lv_obj_style_gen.h **** }
 3115              		.loc 2 184 12 view .LVU1026
 3116              	.LBE208:
 3117              	.LBE207:
 699:lvgl/src/core/lv_obj.c ****             lv_obj_mark_layout_as_dirty(obj);
 3118              		.loc 1 699 9 is_stmt 1 view .LVU1027
 699:lvgl/src/core/lv_obj.c ****             lv_obj_mark_layout_as_dirty(obj);
 3119              		.loc 1 699 11 is_stmt 0 view .LVU1028
 3120 01b2 00B9     		cbnz	r0, .L167
 699:lvgl/src/core/lv_obj.c ****             lv_obj_mark_layout_as_dirty(obj);
 3121              		.loc 1 699 19 discriminator 1 view .LVU1029
 3122 01b4 14B1     		cbz	r4, .L168
 3123              	.L167:
 700:lvgl/src/core/lv_obj.c ****         }
 3124              		.loc 1 700 13 is_stmt 1 view .LVU1030
 3125 01b6 2846     		mov	r0, r5
 3126              	.LVL332:
 700:lvgl/src/core/lv_obj.c ****         }
ARM GAS  C:\Users\BLACK_~1\AppData\Local\Temp\ccVQcfpA.s 			page 103


 3127              		.loc 1 700 13 is_stmt 0 view .LVU1031
 3128 01b8 FFF7FEFF 		bl	lv_obj_mark_layout_as_dirty
 3129              	.LVL333:
 3130              	.L168:
 700:lvgl/src/core/lv_obj.c ****         }
 3131              		.loc 1 700 13 view .LVU1032
 3132              	.LBE204:
 3133              	.LBB210:
 677:lvgl/src/core/lv_obj.c ****         if(editing) {
 3134              		.loc 1 677 93 discriminator 1 view .LVU1033
 3135 01bc 0024     		movs	r4, #0
 3136              	.LVL334:
 677:lvgl/src/core/lv_obj.c ****         if(editing) {
 3137              		.loc 1 677 93 discriminator 1 view .LVU1034
 3138 01be 06E0     		b	.L169
 3139              	.LVL335:
 3140              	.L170:
 677:lvgl/src/core/lv_obj.c ****         if(editing) {
 3141              		.loc 1 677 93 discriminator 1 view .LVU1035
 3142              	.LBE210:
 3143              	.LBB211:
 3144              	.LBB209:
 705:lvgl/src/core/lv_obj.c ****             lv_obj_mark_layout_as_dirty(child);
 3145              		.loc 1 705 13 is_stmt 1 discriminator 3 view .LVU1036
 705:lvgl/src/core/lv_obj.c ****             lv_obj_mark_layout_as_dirty(child);
 3146              		.loc 1 705 32 is_stmt 0 discriminator 3 view .LVU1037
 3147 01c0 2146     		mov	r1, r4
 3148 01c2 2846     		mov	r0, r5
 3149 01c4 FFF7FEFF 		bl	lv_obj_get_child
 3150              	.LVL336:
 706:lvgl/src/core/lv_obj.c ****         }
 3151              		.loc 1 706 13 is_stmt 1 discriminator 3 view .LVU1038
 3152 01c8 FFF7FEFF 		bl	lv_obj_mark_layout_as_dirty
 3153              	.LVL337:
 706:lvgl/src/core/lv_obj.c ****         }
 3154              		.loc 1 706 13 is_stmt 0 discriminator 3 view .LVU1039
 3155              	.LBE209:
 704:lvgl/src/core/lv_obj.c ****             lv_obj_t * child = lv_obj_get_child(obj, i);
 3156              		.loc 1 704 51 is_stmt 1 discriminator 3 view .LVU1040
 704:lvgl/src/core/lv_obj.c ****             lv_obj_t * child = lv_obj_get_child(obj, i);
 3157              		.loc 1 704 52 is_stmt 0 discriminator 3 view .LVU1041
 3158 01cc 0134     		adds	r4, r4, #1
 3159              	.LVL338:
 3160              	.L169:
 704:lvgl/src/core/lv_obj.c ****             lv_obj_t * child = lv_obj_get_child(obj, i);
 3161              		.loc 1 704 20 is_stmt 1 discriminator 1 view .LVU1042
 704:lvgl/src/core/lv_obj.c ****             lv_obj_t * child = lv_obj_get_child(obj, i);
 3162              		.loc 1 704 24 is_stmt 0 discriminator 1 view .LVU1043
 3163 01ce 2846     		mov	r0, r5
 3164 01d0 FFF7FEFF 		bl	lv_obj_get_child_cnt
 3165              	.LVL339:
 704:lvgl/src/core/lv_obj.c ****             lv_obj_t * child = lv_obj_get_child(obj, i);
 3166              		.loc 1 704 9 discriminator 1 view .LVU1044
 3167 01d4 A042     		cmp	r0, r4
 3168 01d6 F3D8     		bhi	.L170
 3169 01d8 47E7     		b	.L143
 3170              	.LVL340:
ARM GAS  C:\Users\BLACK_~1\AppData\Local\Temp\ccVQcfpA.s 			page 104


 3171              	.L188:
 704:lvgl/src/core/lv_obj.c ****             lv_obj_t * child = lv_obj_get_child(obj, i);
 3172              		.loc 1 704 9 discriminator 1 view .LVU1045
 3173              	.LBE211:
 3174              	.LBB212:
 710:lvgl/src/core/lv_obj.c ****         lv_coord_t h = lv_obj_get_style_height(obj, LV_PART_MAIN);
 3175              		.loc 1 710 9 is_stmt 1 view .LVU1046
 3176              	.LBB213:
 3177              	.LBI213:
   1:lvgl/src/core/lv_obj_style_gen.h **** {
 3178              		.loc 2 1 26 view .LVU1047
 3179              	.LBB214:
   3:lvgl/src/core/lv_obj_style_gen.h ****     return (lv_coord_t)v.num;
 3180              		.loc 2 3 5 view .LVU1048
   3:lvgl/src/core/lv_obj_style_gen.h ****     return (lv_coord_t)v.num;
 3181              		.loc 2 3 26 is_stmt 0 view .LVU1049
 3182 01da 41F20102 		movw	r2, #4097
 3183 01de 0021     		movs	r1, #0
 3184 01e0 FFF7FEFF 		bl	lv_obj_get_style_prop
 3185              	.LVL341:
   4:lvgl/src/core/lv_obj_style_gen.h **** }
 3186              		.loc 2 4 5 is_stmt 1 view .LVU1050
   4:lvgl/src/core/lv_obj_style_gen.h **** }
 3187              		.loc 2 4 12 is_stmt 0 view .LVU1051
 3188 01e4 07B2     		sxth	r7, r0
 3189              	.LVL342:
   4:lvgl/src/core/lv_obj_style_gen.h **** }
 3190              		.loc 2 4 12 view .LVU1052
 3191              	.LBE214:
 3192              	.LBE213:
 711:lvgl/src/core/lv_obj.c ****         lv_coord_t align = lv_obj_get_style_align(obj, LV_PART_MAIN);
 3193              		.loc 1 711 9 is_stmt 1 view .LVU1053
 3194              	.LBB215:
 3195              	.LBI215:
  19:lvgl/src/core/lv_obj_style_gen.h **** {
 3196              		.loc 2 19 26 view .LVU1054
 3197              	.LBB216:
  21:lvgl/src/core/lv_obj_style_gen.h ****     return (lv_coord_t)v.num;
 3198              		.loc 2 21 5 view .LVU1055
  21:lvgl/src/core/lv_obj_style_gen.h ****     return (lv_coord_t)v.num;
 3199              		.loc 2 21 26 is_stmt 0 view .LVU1056
 3200 01e6 41F20402 		movw	r2, #4100
 3201 01ea 0021     		movs	r1, #0
 3202 01ec 2846     		mov	r0, r5
 3203 01ee FFF7FEFF 		bl	lv_obj_get_style_prop
 3204              	.LVL343:
  22:lvgl/src/core/lv_obj_style_gen.h **** }
 3205              		.loc 2 22 5 is_stmt 1 view .LVU1057
  22:lvgl/src/core/lv_obj_style_gen.h **** }
 3206              		.loc 2 22 12 is_stmt 0 view .LVU1058
 3207 01f2 06B2     		sxth	r6, r0
 3208              	.LVL344:
  22:lvgl/src/core/lv_obj_style_gen.h **** }
 3209              		.loc 2 22 12 view .LVU1059
 3210              	.LBE216:
 3211              	.LBE215:
 712:lvgl/src/core/lv_obj.c ****         uint16_t layout = lv_obj_get_style_layout(obj, LV_PART_MAIN);
ARM GAS  C:\Users\BLACK_~1\AppData\Local\Temp\ccVQcfpA.s 			page 105


 3212              		.loc 1 712 9 is_stmt 1 view .LVU1060
 3213              	.LBB217:
 3214              	.LBI217:
  49:lvgl/src/core/lv_obj_style_gen.h **** {
 3215              		.loc 2 49 26 view .LVU1061
 3216              	.LBB218:
  51:lvgl/src/core/lv_obj_style_gen.h ****     return (lv_align_t)v.num;
 3217              		.loc 2 51 5 view .LVU1062
  51:lvgl/src/core/lv_obj_style_gen.h ****     return (lv_align_t)v.num;
 3218              		.loc 2 51 26 is_stmt 0 view .LVU1063
 3219 01f4 41F20902 		movw	r2, #4105
 3220 01f8 0021     		movs	r1, #0
 3221 01fa 2846     		mov	r0, r5
 3222 01fc FFF7FEFF 		bl	lv_obj_get_style_prop
 3223              	.LVL345:
  52:lvgl/src/core/lv_obj_style_gen.h **** }
 3224              		.loc 2 52 5 is_stmt 1 view .LVU1064
  52:lvgl/src/core/lv_obj_style_gen.h **** }
 3225              		.loc 2 52 12 is_stmt 0 view .LVU1065
 3226 0200 C4B2     		uxtb	r4, r0
 3227              	.LVL346:
  52:lvgl/src/core/lv_obj_style_gen.h **** }
 3228              		.loc 2 52 12 view .LVU1066
 3229              	.LBE218:
 3230              	.LBE217:
 713:lvgl/src/core/lv_obj.c ****         if(layout || align || w == LV_SIZE_CONTENT || h == LV_SIZE_CONTENT) {
 3231              		.loc 1 713 9 is_stmt 1 view .LVU1067
 3232              	.LBB219:
 3233              	.LBI219:
 181:lvgl/src/core/lv_obj_style_gen.h **** {
 3234              		.loc 2 181 24 view .LVU1068
 3235              	.LBB220:
 183:lvgl/src/core/lv_obj_style_gen.h ****     return (uint16_t)v.num;
 3236              		.loc 2 183 5 view .LVU1069
 183:lvgl/src/core/lv_obj_style_gen.h ****     return (uint16_t)v.num;
 3237              		.loc 2 183 26 is_stmt 0 view .LVU1070
 3238 0202 41F26902 		movw	r2, #4201
 3239 0206 0021     		movs	r1, #0
 3240 0208 2846     		mov	r0, r5
 3241 020a FFF7FEFF 		bl	lv_obj_get_style_prop
 3242              	.LVL347:
 184:lvgl/src/core/lv_obj_style_gen.h **** }
 3243              		.loc 2 184 5 is_stmt 1 view .LVU1071
 184:lvgl/src/core/lv_obj_style_gen.h **** }
 3244              		.loc 2 184 12 is_stmt 0 view .LVU1072
 3245 020e 80B2     		uxth	r0, r0
 3246              	.LVL348:
 184:lvgl/src/core/lv_obj_style_gen.h **** }
 3247              		.loc 2 184 12 view .LVU1073
 3248              	.LBE220:
 3249              	.LBE219:
 714:lvgl/src/core/lv_obj.c ****             lv_obj_mark_layout_as_dirty(obj);
 3250              		.loc 1 714 9 is_stmt 1 view .LVU1074
 714:lvgl/src/core/lv_obj.c ****             lv_obj_mark_layout_as_dirty(obj);
 3251              		.loc 1 714 11 is_stmt 0 view .LVU1075
 3252 0210 38B9     		cbnz	r0, .L172
 714:lvgl/src/core/lv_obj.c ****             lv_obj_mark_layout_as_dirty(obj);
ARM GAS  C:\Users\BLACK_~1\AppData\Local\Temp\ccVQcfpA.s 			page 106


 3253              		.loc 1 714 19 discriminator 1 view .LVU1076
 3254 0212 34B9     		cbnz	r4, .L172
 714:lvgl/src/core/lv_obj.c ****             lv_obj_mark_layout_as_dirty(obj);
 3255              		.loc 1 714 28 discriminator 2 view .LVU1077
 3256 0214 42F2D173 		movw	r3, #10193
 3257 0218 9F42     		cmp	r7, r3
 3258 021a 02D0     		beq	.L172
 714:lvgl/src/core/lv_obj.c ****             lv_obj_mark_layout_as_dirty(obj);
 3259              		.loc 1 714 52 discriminator 3 view .LVU1078
 3260 021c 9E42     		cmp	r6, r3
 3261 021e 7FF424AF 		bne	.L143
 3262              	.L172:
 715:lvgl/src/core/lv_obj.c ****         }
 3263              		.loc 1 715 13 is_stmt 1 view .LVU1079
 3264 0222 2846     		mov	r0, r5
 3265              	.LVL349:
 715:lvgl/src/core/lv_obj.c ****         }
 3266              		.loc 1 715 13 is_stmt 0 view .LVU1080
 3267 0224 FFF7FEFF 		bl	lv_obj_mark_layout_as_dirty
 3268              	.LVL350:
 3269 0228 1FE7     		b	.L143
 3270              	.LVL351:
 3271              	.L189:
 715:lvgl/src/core/lv_obj.c ****         }
 3272              		.loc 1 715 13 view .LVU1081
 3273              	.LBE212:
 3274              	.LBB221:
 724:lvgl/src/core/lv_obj.c ****         lv_coord_t d = lv_obj_calculate_ext_draw_size(obj, LV_PART_MAIN);
 3275              		.loc 1 724 9 is_stmt 1 view .LVU1082
 724:lvgl/src/core/lv_obj.c ****         lv_coord_t d = lv_obj_calculate_ext_draw_size(obj, LV_PART_MAIN);
 3276              		.loc 1 724 26 is_stmt 0 view .LVU1083
 3277 022a 3046     		mov	r0, r6
 3278              	.LVL352:
 724:lvgl/src/core/lv_obj.c ****         lv_coord_t d = lv_obj_calculate_ext_draw_size(obj, LV_PART_MAIN);
 3279              		.loc 1 724 26 view .LVU1084
 3280 022c FFF7FEFF 		bl	lv_event_get_param
 3281              	.LVL353:
 3282 0230 0446     		mov	r4, r0
 3283              	.LVL354:
 725:lvgl/src/core/lv_obj.c ****         *s = LV_MAX(*s, d);
 3284              		.loc 1 725 9 is_stmt 1 view .LVU1085
 725:lvgl/src/core/lv_obj.c ****         *s = LV_MAX(*s, d);
 3285              		.loc 1 725 24 is_stmt 0 view .LVU1086
 3286 0232 0021     		movs	r1, #0
 3287 0234 2846     		mov	r0, r5
 3288              	.LVL355:
 725:lvgl/src/core/lv_obj.c ****         *s = LV_MAX(*s, d);
 3289              		.loc 1 725 24 view .LVU1087
 3290 0236 FFF7FEFF 		bl	lv_obj_calculate_ext_draw_size
 3291              	.LVL356:
 726:lvgl/src/core/lv_obj.c ****     }
 3292              		.loc 1 726 9 is_stmt 1 view .LVU1088
 726:lvgl/src/core/lv_obj.c ****     }
 3293              		.loc 1 726 14 is_stmt 0 view .LVU1089
 3294 023a B4F90030 		ldrsh	r3, [r4]
 3295 023e 8342     		cmp	r3, r0
 3296 0240 B8BF     		it	lt
ARM GAS  C:\Users\BLACK_~1\AppData\Local\Temp\ccVQcfpA.s 			page 107


 3297 0242 0346     		movlt	r3, r0
 726:lvgl/src/core/lv_obj.c ****     }
 3298              		.loc 1 726 12 view .LVU1090
 3299 0244 2380     		strh	r3, [r4]	@ movhi
 3300              	.LBE221:
 3301 0246 10E7     		b	.L143
 3302              		.cfi_endproc
 3303              	.LFE175:
 3305              		.section	.text.lv_obj_destructor,"ax",%progbits
 3306              		.align	1
 3307              		.syntax unified
 3308              		.thumb
 3309              		.thumb_func
 3311              	lv_obj_destructor:
 3312              	.LVL357:
 3313              	.LFB171:
 397:lvgl/src/core/lv_obj.c ****     LV_UNUSED(class_p);
 3314              		.loc 1 397 1 is_stmt 1 view -0
 3315              		.cfi_startproc
 3316              		@ args = 0, pretend = 0, frame = 0
 3317              		@ frame_needed = 0, uses_anonymous_args = 0
 397:lvgl/src/core/lv_obj.c ****     LV_UNUSED(class_p);
 3318              		.loc 1 397 1 is_stmt 0 view .LVU1092
 3319 0000 10B5     		push	{r4, lr}
 3320              	.LCFI23:
 3321              		.cfi_def_cfa_offset 8
 3322              		.cfi_offset 4, -8
 3323              		.cfi_offset 14, -4
 3324 0002 0C46     		mov	r4, r1
 398:lvgl/src/core/lv_obj.c **** 
 3325              		.loc 1 398 5 is_stmt 1 view .LVU1093
 400:lvgl/src/core/lv_obj.c **** 
 3326              		.loc 1 400 5 view .LVU1094
 3327 0004 0846     		mov	r0, r1
 3328              	.LVL358:
 400:lvgl/src/core/lv_obj.c **** 
 3329              		.loc 1 400 5 is_stmt 0 view .LVU1095
 3330 0006 FFF7FEFF 		bl	_lv_event_mark_deleted
 3331              	.LVL359:
 403:lvgl/src/core/lv_obj.c ****     lv_obj_remove_style_all(obj);
 3332              		.loc 1 403 5 is_stmt 1 view .LVU1096
 3333 000a 0020     		movs	r0, #0
 3334 000c FFF7FEFF 		bl	lv_obj_enable_style_refresh
 3335              	.LVL360:
 404:lvgl/src/core/lv_obj.c ****     lv_obj_enable_style_refresh(true);
 3336              		.loc 1 404 5 view .LVU1097
 3337              	.LBB222:
 3338              	.LBI222:
 3339              		.file 5 "lvgl/src/core/lv_obj_style.h"
   1:lvgl/src/core/lv_obj_style.h **** /**
   2:lvgl/src/core/lv_obj_style.h ****  * @file lv_obj_style.h
   3:lvgl/src/core/lv_obj_style.h ****  *
   4:lvgl/src/core/lv_obj_style.h ****  */
   5:lvgl/src/core/lv_obj_style.h **** 
   6:lvgl/src/core/lv_obj_style.h **** #ifndef LV_OBJ_STYLE_H
   7:lvgl/src/core/lv_obj_style.h **** #define LV_OBJ_STYLE_H
   8:lvgl/src/core/lv_obj_style.h **** 
ARM GAS  C:\Users\BLACK_~1\AppData\Local\Temp\ccVQcfpA.s 			page 108


   9:lvgl/src/core/lv_obj_style.h **** #ifdef __cplusplus
  10:lvgl/src/core/lv_obj_style.h **** extern "C" {
  11:lvgl/src/core/lv_obj_style.h **** #endif
  12:lvgl/src/core/lv_obj_style.h **** 
  13:lvgl/src/core/lv_obj_style.h **** /*********************
  14:lvgl/src/core/lv_obj_style.h ****  *      INCLUDES
  15:lvgl/src/core/lv_obj_style.h ****  *********************/
  16:lvgl/src/core/lv_obj_style.h **** #include <stdint.h>
  17:lvgl/src/core/lv_obj_style.h **** #include <stdbool.h>
  18:lvgl/src/core/lv_obj_style.h **** #include "../misc/lv_bidi.h"
  19:lvgl/src/core/lv_obj_style.h **** 
  20:lvgl/src/core/lv_obj_style.h **** /*********************
  21:lvgl/src/core/lv_obj_style.h ****  *      DEFINES
  22:lvgl/src/core/lv_obj_style.h ****  *********************/
  23:lvgl/src/core/lv_obj_style.h **** 
  24:lvgl/src/core/lv_obj_style.h **** /**********************
  25:lvgl/src/core/lv_obj_style.h ****  *      TYPEDEFS
  26:lvgl/src/core/lv_obj_style.h ****  **********************/
  27:lvgl/src/core/lv_obj_style.h **** /*Can't include lv_obj.h because it includes this header file*/
  28:lvgl/src/core/lv_obj_style.h **** struct _lv_obj_t;
  29:lvgl/src/core/lv_obj_style.h **** 
  30:lvgl/src/core/lv_obj_style.h **** typedef enum {
  31:lvgl/src/core/lv_obj_style.h ****     _LV_STYLE_STATE_CMP_SAME,           /*The style properties in the 2 states are identical*/
  32:lvgl/src/core/lv_obj_style.h ****     _LV_STYLE_STATE_CMP_DIFF_REDRAW,    /*The differences can be shown with a simple redraw*/
  33:lvgl/src/core/lv_obj_style.h ****     _LV_STYLE_STATE_CMP_DIFF_DRAW_PAD,  /*The differences can be shown with a simple redraw*/
  34:lvgl/src/core/lv_obj_style.h ****     _LV_STYLE_STATE_CMP_DIFF_LAYOUT,    /*The differences can be shown with a simple redraw*/
  35:lvgl/src/core/lv_obj_style.h **** } _lv_style_state_cmp_t;
  36:lvgl/src/core/lv_obj_style.h **** 
  37:lvgl/src/core/lv_obj_style.h **** typedef uint32_t lv_style_selector_t;
  38:lvgl/src/core/lv_obj_style.h **** 
  39:lvgl/src/core/lv_obj_style.h **** typedef struct {
  40:lvgl/src/core/lv_obj_style.h ****     lv_style_t * style;
  41:lvgl/src/core/lv_obj_style.h ****     uint32_t selector :24;
  42:lvgl/src/core/lv_obj_style.h ****     uint32_t is_local :1;
  43:lvgl/src/core/lv_obj_style.h ****     uint32_t is_trans :1;
  44:lvgl/src/core/lv_obj_style.h **** }_lv_obj_style_t;
  45:lvgl/src/core/lv_obj_style.h **** 
  46:lvgl/src/core/lv_obj_style.h **** typedef struct {
  47:lvgl/src/core/lv_obj_style.h ****     uint16_t time;
  48:lvgl/src/core/lv_obj_style.h ****     uint16_t delay;
  49:lvgl/src/core/lv_obj_style.h ****     lv_style_selector_t selector;
  50:lvgl/src/core/lv_obj_style.h ****     lv_style_prop_t prop;
  51:lvgl/src/core/lv_obj_style.h ****     lv_anim_path_cb_t path_cb;
  52:lvgl/src/core/lv_obj_style.h **** #if LV_USE_USER_DATA
  53:lvgl/src/core/lv_obj_style.h ****     void * user_data;
  54:lvgl/src/core/lv_obj_style.h **** #endif
  55:lvgl/src/core/lv_obj_style.h **** }_lv_obj_style_transition_dsc_t;
  56:lvgl/src/core/lv_obj_style.h **** 
  57:lvgl/src/core/lv_obj_style.h **** /**********************
  58:lvgl/src/core/lv_obj_style.h ****  * GLOBAL PROTOTYPES
  59:lvgl/src/core/lv_obj_style.h ****  **********************/
  60:lvgl/src/core/lv_obj_style.h **** 
  61:lvgl/src/core/lv_obj_style.h **** /**
  62:lvgl/src/core/lv_obj_style.h ****  * Initialize the object related style manager module.
  63:lvgl/src/core/lv_obj_style.h ****  * Called by LVGL in `lv_init()`
  64:lvgl/src/core/lv_obj_style.h ****  */
  65:lvgl/src/core/lv_obj_style.h **** void _lv_obj_style_init(void);
ARM GAS  C:\Users\BLACK_~1\AppData\Local\Temp\ccVQcfpA.s 			page 109


  66:lvgl/src/core/lv_obj_style.h **** 
  67:lvgl/src/core/lv_obj_style.h **** /**
  68:lvgl/src/core/lv_obj_style.h ****  * Add a style to an object.
  69:lvgl/src/core/lv_obj_style.h ****  * @param obj       pointer to an object
  70:lvgl/src/core/lv_obj_style.h ****  * @param style     pointer to a style to add
  71:lvgl/src/core/lv_obj_style.h ****  * @param selector  OR-ed value of parts and state to which the style should be added
  72:lvgl/src/core/lv_obj_style.h ****  * @example         lv_obj_add_style(btn, &style_btn, 0); //Default button style
  73:lvgl/src/core/lv_obj_style.h ****  * @example         lv_obj_add_style(btn, &btn_red, LV_STATE_PRESSED); //Overwrite only some colors
  74:lvgl/src/core/lv_obj_style.h ****  */
  75:lvgl/src/core/lv_obj_style.h **** void lv_obj_add_style(struct _lv_obj_t * obj, lv_style_t * style, lv_style_selector_t selector);
  76:lvgl/src/core/lv_obj_style.h **** 
  77:lvgl/src/core/lv_obj_style.h **** /**
  78:lvgl/src/core/lv_obj_style.h ****  * Add a style to an object.
  79:lvgl/src/core/lv_obj_style.h ****  * @param obj       pointer to an object
  80:lvgl/src/core/lv_obj_style.h ****  * @param style     pointer to a style to remove. Can be NULL to check only the selector
  81:lvgl/src/core/lv_obj_style.h ****  * @param selector  OR-ed values of states and a part to remove only styles with matching selectors
  82:lvgl/src/core/lv_obj_style.h ****  * @example lv_obj_remove_style(obj, &style, LV_PART_ANY | LV_STATE_ANY); //Remove a specific style
  83:lvgl/src/core/lv_obj_style.h ****  * @example lv_obj_remove_style(obj, NULL, LV_PART_MAIN | LV_STATE_ANY); //Remove all styles from t
  84:lvgl/src/core/lv_obj_style.h ****  * @example lv_obj_remove_style(obj, NULL, LV_PART_ANY | LV_STATE_ANY); //Remove all styles
  85:lvgl/src/core/lv_obj_style.h ****  */
  86:lvgl/src/core/lv_obj_style.h **** void lv_obj_remove_style(struct _lv_obj_t * obj, lv_style_t * style, lv_style_selector_t selector);
  87:lvgl/src/core/lv_obj_style.h **** 
  88:lvgl/src/core/lv_obj_style.h **** /**
  89:lvgl/src/core/lv_obj_style.h ****  * Remove all styles from an object
  90:lvgl/src/core/lv_obj_style.h ****  * @param obj       pointer to an object
  91:lvgl/src/core/lv_obj_style.h ****  */
  92:lvgl/src/core/lv_obj_style.h **** static inline void lv_obj_remove_style_all(struct _lv_obj_t * obj)
 3340              		.loc 5 92 20 view .LVU1098
 3341              	.LBB223:
  93:lvgl/src/core/lv_obj_style.h **** {
  94:lvgl/src/core/lv_obj_style.h ****     lv_obj_remove_style(obj, NULL, LV_PART_ANY | LV_STATE_ANY);
 3342              		.loc 5 94 5 view .LVU1099
 3343 0010 144A     		ldr	r2, .L198
 3344 0012 0021     		movs	r1, #0
 3345 0014 2046     		mov	r0, r4
 3346 0016 FFF7FEFF 		bl	lv_obj_remove_style
 3347              	.LVL361:
 3348              		.loc 5 94 5 is_stmt 0 view .LVU1100
 3349              	.LBE223:
 3350              	.LBE222:
 405:lvgl/src/core/lv_obj.c **** 
 3351              		.loc 1 405 5 is_stmt 1 view .LVU1101
 3352 001a 0120     		movs	r0, #1
 3353 001c FFF7FEFF 		bl	lv_obj_enable_style_refresh
 3354              	.LVL362:
 408:lvgl/src/core/lv_obj.c **** 
 3355              		.loc 1 408 5 view .LVU1102
 3356 0020 0021     		movs	r1, #0
 3357 0022 2046     		mov	r0, r4
 3358 0024 FFF7FEFF 		bl	lv_anim_del
 3359              	.LVL363:
 411:lvgl/src/core/lv_obj.c ****     if(group) lv_group_remove_obj(obj);
 3360              		.loc 1 411 5 view .LVU1103
 411:lvgl/src/core/lv_obj.c ****     if(group) lv_group_remove_obj(obj);
 3361              		.loc 1 411 26 is_stmt 0 view .LVU1104
 3362 0028 2046     		mov	r0, r4
 3363 002a FFF7FEFF 		bl	lv_obj_get_group
ARM GAS  C:\Users\BLACK_~1\AppData\Local\Temp\ccVQcfpA.s 			page 110


 3364              	.LVL364:
 412:lvgl/src/core/lv_obj.c **** 
 3365              		.loc 1 412 5 is_stmt 1 view .LVU1105
 412:lvgl/src/core/lv_obj.c **** 
 3366              		.loc 1 412 7 is_stmt 0 view .LVU1106
 3367 002e 10B1     		cbz	r0, .L193
 412:lvgl/src/core/lv_obj.c **** 
 3368              		.loc 1 412 15 is_stmt 1 discriminator 1 view .LVU1107
 3369 0030 2046     		mov	r0, r4
 3370              	.LVL365:
 412:lvgl/src/core/lv_obj.c **** 
 3371              		.loc 1 412 15 is_stmt 0 discriminator 1 view .LVU1108
 3372 0032 FFF7FEFF 		bl	lv_group_remove_obj
 3373              	.LVL366:
 3374              	.L193:
 414:lvgl/src/core/lv_obj.c ****         if(obj->spec_attr->children) {
 3375              		.loc 1 414 5 is_stmt 1 view .LVU1109
 414:lvgl/src/core/lv_obj.c ****         if(obj->spec_attr->children) {
 3376              		.loc 1 414 11 is_stmt 0 view .LVU1110
 3377 0036 A368     		ldr	r3, [r4, #8]
 414:lvgl/src/core/lv_obj.c ****         if(obj->spec_attr->children) {
 3378              		.loc 1 414 7 view .LVU1111
 3379 0038 9BB1     		cbz	r3, .L192
 415:lvgl/src/core/lv_obj.c ****             lv_mem_free(obj->spec_attr->children);
 3380              		.loc 1 415 9 is_stmt 1 view .LVU1112
 415:lvgl/src/core/lv_obj.c ****             lv_mem_free(obj->spec_attr->children);
 3381              		.loc 1 415 26 is_stmt 0 view .LVU1113
 3382 003a 1868     		ldr	r0, [r3]
 415:lvgl/src/core/lv_obj.c ****             lv_mem_free(obj->spec_attr->children);
 3383              		.loc 1 415 11 view .LVU1114
 3384 003c 20B1     		cbz	r0, .L195
 416:lvgl/src/core/lv_obj.c ****             obj->spec_attr->children = NULL;
 3385              		.loc 1 416 13 is_stmt 1 view .LVU1115
 3386 003e FFF7FEFF 		bl	lv_mem_free
 3387              	.LVL367:
 417:lvgl/src/core/lv_obj.c ****         }
 3388              		.loc 1 417 13 view .LVU1116
 417:lvgl/src/core/lv_obj.c ****         }
 3389              		.loc 1 417 16 is_stmt 0 view .LVU1117
 3390 0042 A368     		ldr	r3, [r4, #8]
 417:lvgl/src/core/lv_obj.c ****         }
 3391              		.loc 1 417 38 view .LVU1118
 3392 0044 0022     		movs	r2, #0
 3393 0046 1A60     		str	r2, [r3]
 3394              	.L195:
 419:lvgl/src/core/lv_obj.c ****             lv_mem_free(obj->spec_attr->event_dsc);
 3395              		.loc 1 419 9 is_stmt 1 view .LVU1119
 419:lvgl/src/core/lv_obj.c ****             lv_mem_free(obj->spec_attr->event_dsc);
 3396              		.loc 1 419 15 is_stmt 0 view .LVU1120
 3397 0048 A368     		ldr	r3, [r4, #8]
 419:lvgl/src/core/lv_obj.c ****             lv_mem_free(obj->spec_attr->event_dsc);
 3398              		.loc 1 419 26 view .LVU1121
 3399 004a D868     		ldr	r0, [r3, #12]
 419:lvgl/src/core/lv_obj.c ****             lv_mem_free(obj->spec_attr->event_dsc);
 3400              		.loc 1 419 11 view .LVU1122
 3401 004c 20B1     		cbz	r0, .L196
 420:lvgl/src/core/lv_obj.c ****             obj->spec_attr->event_dsc = NULL;
ARM GAS  C:\Users\BLACK_~1\AppData\Local\Temp\ccVQcfpA.s 			page 111


 3402              		.loc 1 420 13 is_stmt 1 view .LVU1123
 3403 004e FFF7FEFF 		bl	lv_mem_free
 3404              	.LVL368:
 421:lvgl/src/core/lv_obj.c ****         }
 3405              		.loc 1 421 13 view .LVU1124
 421:lvgl/src/core/lv_obj.c ****         }
 3406              		.loc 1 421 16 is_stmt 0 view .LVU1125
 3407 0052 A368     		ldr	r3, [r4, #8]
 421:lvgl/src/core/lv_obj.c ****         }
 3408              		.loc 1 421 39 view .LVU1126
 3409 0054 0022     		movs	r2, #0
 3410 0056 DA60     		str	r2, [r3, #12]
 3411              	.L196:
 424:lvgl/src/core/lv_obj.c ****         obj->spec_attr = NULL;
 3412              		.loc 1 424 9 is_stmt 1 view .LVU1127
 3413 0058 A068     		ldr	r0, [r4, #8]
 3414 005a FFF7FEFF 		bl	lv_mem_free
 3415              	.LVL369:
 425:lvgl/src/core/lv_obj.c ****     }
 3416              		.loc 1 425 9 view .LVU1128
 425:lvgl/src/core/lv_obj.c ****     }
 3417              		.loc 1 425 24 is_stmt 0 view .LVU1129
 3418 005e 0023     		movs	r3, #0
 3419 0060 A360     		str	r3, [r4, #8]
 3420              	.L192:
 427:lvgl/src/core/lv_obj.c **** 
 3421              		.loc 1 427 1 view .LVU1130
 3422 0062 10BD     		pop	{r4, pc}
 3423              	.LVL370:
 3424              	.L199:
 427:lvgl/src/core/lv_obj.c **** 
 3425              		.loc 1 427 1 view .LVU1131
 3426              		.align	2
 3427              	.L198:
 3428 0064 FFFF0F00 		.word	1048575
 3429              		.cfi_endproc
 3430              	.LFE171:
 3432              		.section	.text.lv_obj_allocate_spec_attr,"ax",%progbits
 3433              		.align	1
 3434              		.global	lv_obj_allocate_spec_attr
 3435              		.syntax unified
 3436              		.thumb
 3437              		.thumb_func
 3439              	lv_obj_allocate_spec_attr:
 3440              	.LVL371:
 3441              	.LFB165:
 306:lvgl/src/core/lv_obj.c ****     LV_ASSERT_OBJ(obj, MY_CLASS);
 3442              		.loc 1 306 1 is_stmt 1 view -0
 3443              		.cfi_startproc
 3444              		@ args = 0, pretend = 0, frame = 0
 3445              		@ frame_needed = 0, uses_anonymous_args = 0
 307:lvgl/src/core/lv_obj.c **** 
 3446              		.loc 1 307 5 view .LVU1133
 307:lvgl/src/core/lv_obj.c **** 
 3447              		.loc 1 307 5 view .LVU1134
 307:lvgl/src/core/lv_obj.c **** 
 3448              		.loc 1 307 5 view .LVU1135
ARM GAS  C:\Users\BLACK_~1\AppData\Local\Temp\ccVQcfpA.s 			page 112


 309:lvgl/src/core/lv_obj.c ****         static uint32_t x = 0;
 3449              		.loc 1 309 5 view .LVU1136
 309:lvgl/src/core/lv_obj.c ****         static uint32_t x = 0;
 3450              		.loc 1 309 11 is_stmt 0 view .LVU1137
 3451 0000 8368     		ldr	r3, [r0, #8]
 309:lvgl/src/core/lv_obj.c ****         static uint32_t x = 0;
 3452              		.loc 1 309 7 view .LVU1138
 3453 0002 03B1     		cbz	r3, .L208
 3454 0004 7047     		bx	lr
 3455              	.L208:
 306:lvgl/src/core/lv_obj.c ****     LV_ASSERT_OBJ(obj, MY_CLASS);
 3456              		.loc 1 306 1 view .LVU1139
 3457 0006 10B5     		push	{r4, lr}
 3458              	.LCFI24:
 3459              		.cfi_def_cfa_offset 8
 3460              		.cfi_offset 4, -8
 3461              		.cfi_offset 14, -4
 3462 0008 0446     		mov	r4, r0
 3463              	.LBB224:
 310:lvgl/src/core/lv_obj.c ****         x++;
 3464              		.loc 1 310 9 is_stmt 1 view .LVU1140
 311:lvgl/src/core/lv_obj.c ****         obj->spec_attr = lv_mem_alloc(sizeof(_lv_obj_spec_attr_t));
 3465              		.loc 1 311 9 view .LVU1141
 311:lvgl/src/core/lv_obj.c ****         obj->spec_attr = lv_mem_alloc(sizeof(_lv_obj_spec_attr_t));
 3466              		.loc 1 311 10 is_stmt 0 view .LVU1142
 3467 000a 0C4A     		ldr	r2, .L209
 3468 000c 1368     		ldr	r3, [r2]
 3469 000e 0133     		adds	r3, r3, #1
 3470 0010 1360     		str	r3, [r2]
 312:lvgl/src/core/lv_obj.c ****         LV_ASSERT_MALLOC(obj->spec_attr);
 3471              		.loc 1 312 9 is_stmt 1 view .LVU1143
 312:lvgl/src/core/lv_obj.c ****         LV_ASSERT_MALLOC(obj->spec_attr);
 3472              		.loc 1 312 26 is_stmt 0 view .LVU1144
 3473 0012 1C20     		movs	r0, #28
 3474              	.LVL372:
 312:lvgl/src/core/lv_obj.c ****         LV_ASSERT_MALLOC(obj->spec_attr);
 3475              		.loc 1 312 26 view .LVU1145
 3476 0014 FFF7FEFF 		bl	lv_mem_alloc
 3477              	.LVL373:
 312:lvgl/src/core/lv_obj.c ****         LV_ASSERT_MALLOC(obj->spec_attr);
 3478              		.loc 1 312 24 view .LVU1146
 3479 0018 A060     		str	r0, [r4, #8]
 313:lvgl/src/core/lv_obj.c ****         if(obj->spec_attr == NULL) return;
 3480              		.loc 1 313 9 is_stmt 1 view .LVU1147
 313:lvgl/src/core/lv_obj.c ****         if(obj->spec_attr == NULL) return;
 3481              		.loc 1 313 9 view .LVU1148
 3482 001a 68B1     		cbz	r0, .L203
 313:lvgl/src/core/lv_obj.c ****         if(obj->spec_attr == NULL) return;
 3483              		.loc 1 313 9 view .LVU1149
 313:lvgl/src/core/lv_obj.c ****         if(obj->spec_attr == NULL) return;
 3484              		.loc 1 313 41 view .LVU1150
 314:lvgl/src/core/lv_obj.c **** 
 3485              		.loc 1 314 9 view .LVU1151
 316:lvgl/src/core/lv_obj.c **** 
 3486              		.loc 1 316 9 view .LVU1152
 3487 001c 1C21     		movs	r1, #28
 3488 001e FFF7FEFF 		bl	lv_memset_00
ARM GAS  C:\Users\BLACK_~1\AppData\Local\Temp\ccVQcfpA.s 			page 113


 3489              	.LVL374:
 318:lvgl/src/core/lv_obj.c ****         obj->spec_attr->scrollbar_mode = LV_SCROLLBAR_MODE_AUTO;
 3490              		.loc 1 318 9 view .LVU1153
 318:lvgl/src/core/lv_obj.c ****         obj->spec_attr->scrollbar_mode = LV_SCROLLBAR_MODE_AUTO;
 3491              		.loc 1 318 12 is_stmt 0 view .LVU1154
 3492 0022 A268     		ldr	r2, [r4, #8]
 318:lvgl/src/core/lv_obj.c ****         obj->spec_attr->scrollbar_mode = LV_SCROLLBAR_MODE_AUTO;
 3493              		.loc 1 318 36 view .LVU1155
 3494 0024 537E     		ldrb	r3, [r2, #25]	@ zero_extendqisi2
 3495 0026 43F00F03 		orr	r3, r3, #15
 3496 002a 5376     		strb	r3, [r2, #25]
 319:lvgl/src/core/lv_obj.c ****     }
 3497              		.loc 1 319 9 is_stmt 1 view .LVU1156
 319:lvgl/src/core/lv_obj.c ****     }
 3498              		.loc 1 319 12 is_stmt 0 view .LVU1157
 3499 002c A268     		ldr	r2, [r4, #8]
 319:lvgl/src/core/lv_obj.c ****     }
 3500              		.loc 1 319 40 view .LVU1158
 3501 002e 137E     		ldrb	r3, [r2, #24]	@ zero_extendqisi2
 3502 0030 43F00303 		orr	r3, r3, #3
 3503 0034 1376     		strb	r3, [r2, #24]
 3504              	.LBE224:
 321:lvgl/src/core/lv_obj.c **** 
 3505              		.loc 1 321 1 view .LVU1159
 3506 0036 10BD     		pop	{r4, pc}
 3507              	.LVL375:
 3508              	.L203:
 3509              	.LBB225:
 313:lvgl/src/core/lv_obj.c ****         if(obj->spec_attr == NULL) return;
 3510              		.loc 1 313 9 is_stmt 1 discriminator 1 view .LVU1160
 313:lvgl/src/core/lv_obj.c ****         if(obj->spec_attr == NULL) return;
 3511              		.loc 1 313 9 discriminator 1 view .LVU1161
 313:lvgl/src/core/lv_obj.c ****         if(obj->spec_attr == NULL) return;
 3512              		.loc 1 313 9 discriminator 1 view .LVU1162
 313:lvgl/src/core/lv_obj.c ****         if(obj->spec_attr == NULL) return;
 3513              		.loc 1 313 9 discriminator 1 view .LVU1163
 3514 0038 FEE7     		b	.L203
 3515              	.L210:
 3516 003a 00BF     		.align	2
 3517              	.L209:
 3518 003c 00000000 		.word	.LANCHOR2
 3519              	.LBE225:
 3520              		.cfi_endproc
 3521              	.LFE165:
 3523              		.section	.text.lv_obj_check_type,"ax",%progbits
 3524              		.align	1
 3525              		.global	lv_obj_check_type
 3526              		.syntax unified
 3527              		.thumb
 3528              		.thumb_func
 3530              	lv_obj_check_type:
 3531              	.LVL376:
 3532              	.LFB166:
 324:lvgl/src/core/lv_obj.c ****     if(obj == NULL) return false;
 3533              		.loc 1 324 1 view -0
 3534              		.cfi_startproc
 3535              		@ args = 0, pretend = 0, frame = 0
ARM GAS  C:\Users\BLACK_~1\AppData\Local\Temp\ccVQcfpA.s 			page 114


 3536              		@ frame_needed = 0, uses_anonymous_args = 0
 3537              		@ link register save eliminated.
 325:lvgl/src/core/lv_obj.c ****     return obj->class_p == class_p ? true : false;
 3538              		.loc 1 325 5 view .LVU1165
 325:lvgl/src/core/lv_obj.c ****     return obj->class_p == class_p ? true : false;
 3539              		.loc 1 325 7 is_stmt 0 view .LVU1166
 3540 0000 28B1     		cbz	r0, .L213
 326:lvgl/src/core/lv_obj.c **** }
 3541              		.loc 1 326 5 is_stmt 1 view .LVU1167
 326:lvgl/src/core/lv_obj.c **** }
 3542              		.loc 1 326 15 is_stmt 0 view .LVU1168
 3543 0002 0068     		ldr	r0, [r0]
 3544              	.LVL377:
 326:lvgl/src/core/lv_obj.c **** }
 3545              		.loc 1 326 43 view .LVU1169
 3546 0004 8842     		cmp	r0, r1
 3547 0006 14BF     		ite	ne
 3548 0008 0020     		movne	r0, #0
 3549 000a 0120     		moveq	r0, #1
 3550 000c 7047     		bx	lr
 3551              	.LVL378:
 3552              	.L213:
 325:lvgl/src/core/lv_obj.c ****     return obj->class_p == class_p ? true : false;
 3553              		.loc 1 325 28 view .LVU1170
 3554 000e 0020     		movs	r0, #0
 3555              	.LVL379:
 327:lvgl/src/core/lv_obj.c **** 
 3556              		.loc 1 327 1 view .LVU1171
 3557 0010 7047     		bx	lr
 3558              		.cfi_endproc
 3559              	.LFE166:
 3561              		.section	.text.lv_obj_has_class,"ax",%progbits
 3562              		.align	1
 3563              		.global	lv_obj_has_class
 3564              		.syntax unified
 3565              		.thumb
 3566              		.thumb_func
 3568              	lv_obj_has_class:
 3569              	.LVL380:
 3570              	.LFB167:
 330:lvgl/src/core/lv_obj.c ****     const lv_obj_class_t * obj_class = obj->class_p;
 3571              		.loc 1 330 1 is_stmt 1 view -0
 3572              		.cfi_startproc
 3573              		@ args = 0, pretend = 0, frame = 0
 3574              		@ frame_needed = 0, uses_anonymous_args = 0
 3575              		@ link register save eliminated.
 331:lvgl/src/core/lv_obj.c ****     while(obj_class) {
 3576              		.loc 1 331 5 view .LVU1173
 331:lvgl/src/core/lv_obj.c ****     while(obj_class) {
 3577              		.loc 1 331 28 is_stmt 0 view .LVU1174
 3578 0000 0368     		ldr	r3, [r0]
 3579              	.LVL381:
 332:lvgl/src/core/lv_obj.c ****         if(obj_class == class_p) return true;
 3580              		.loc 1 332 5 is_stmt 1 view .LVU1175
 332:lvgl/src/core/lv_obj.c ****         if(obj_class == class_p) return true;
 3581              		.loc 1 332 10 is_stmt 0 view .LVU1176
 3582 0002 00E0     		b	.L215
ARM GAS  C:\Users\BLACK_~1\AppData\Local\Temp\ccVQcfpA.s 			page 115


 3583              	.L220:
 334:lvgl/src/core/lv_obj.c ****     }
 3584              		.loc 1 334 9 is_stmt 1 view .LVU1177
 334:lvgl/src/core/lv_obj.c ****     }
 3585              		.loc 1 334 19 is_stmt 0 view .LVU1178
 3586 0004 1B68     		ldr	r3, [r3]
 3587              	.LVL382:
 3588              	.L215:
 332:lvgl/src/core/lv_obj.c ****         if(obj_class == class_p) return true;
 3589              		.loc 1 332 10 is_stmt 1 view .LVU1179
 3590 0006 1BB1     		cbz	r3, .L219
 333:lvgl/src/core/lv_obj.c ****         obj_class = obj_class->base_class;
 3591              		.loc 1 333 9 view .LVU1180
 333:lvgl/src/core/lv_obj.c ****         obj_class = obj_class->base_class;
 3592              		.loc 1 333 11 is_stmt 0 view .LVU1181
 3593 0008 8B42     		cmp	r3, r1
 3594 000a FBD1     		bne	.L220
 333:lvgl/src/core/lv_obj.c ****         obj_class = obj_class->base_class;
 3595              		.loc 1 333 41 view .LVU1182
 3596 000c 0120     		movs	r0, #1
 3597              	.LVL383:
 338:lvgl/src/core/lv_obj.c **** 
 3598              		.loc 1 338 1 view .LVU1183
 3599 000e 7047     		bx	lr
 3600              	.LVL384:
 3601              	.L219:
 337:lvgl/src/core/lv_obj.c **** }
 3602              		.loc 1 337 12 view .LVU1184
 3603 0010 0020     		movs	r0, #0
 3604              	.LVL385:
 337:lvgl/src/core/lv_obj.c **** }
 3605              		.loc 1 337 12 view .LVU1185
 3606 0012 7047     		bx	lr
 3607              		.cfi_endproc
 3608              	.LFE167:
 3610              		.section	.text.lv_obj_get_class,"ax",%progbits
 3611              		.align	1
 3612              		.global	lv_obj_get_class
 3613              		.syntax unified
 3614              		.thumb
 3615              		.thumb_func
 3617              	lv_obj_get_class:
 3618              	.LVL386:
 3619              	.LFB168:
 341:lvgl/src/core/lv_obj.c ****     return obj->class_p;
 3620              		.loc 1 341 1 is_stmt 1 view -0
 3621              		.cfi_startproc
 3622              		@ args = 0, pretend = 0, frame = 0
 3623              		@ frame_needed = 0, uses_anonymous_args = 0
 3624              		@ link register save eliminated.
 342:lvgl/src/core/lv_obj.c **** }
 3625              		.loc 1 342 5 view .LVU1187
 343:lvgl/src/core/lv_obj.c **** 
 3626              		.loc 1 343 1 is_stmt 0 view .LVU1188
 3627 0000 0068     		ldr	r0, [r0]
 3628              	.LVL387:
 343:lvgl/src/core/lv_obj.c **** 
ARM GAS  C:\Users\BLACK_~1\AppData\Local\Temp\ccVQcfpA.s 			page 116


 3629              		.loc 1 343 1 view .LVU1189
 3630 0002 7047     		bx	lr
 3631              		.cfi_endproc
 3632              	.LFE168:
 3634              		.section	.text.lv_obj_is_valid,"ax",%progbits
 3635              		.align	1
 3636              		.global	lv_obj_is_valid
 3637              		.syntax unified
 3638              		.thumb
 3639              		.thumb_func
 3641              	lv_obj_is_valid:
 3642              	.LVL388:
 3643              	.LFB169:
 346:lvgl/src/core/lv_obj.c ****     lv_disp_t * disp = lv_disp_get_next(NULL);
 3644              		.loc 1 346 1 is_stmt 1 view -0
 3645              		.cfi_startproc
 3646              		@ args = 0, pretend = 0, frame = 0
 3647              		@ frame_needed = 0, uses_anonymous_args = 0
 346:lvgl/src/core/lv_obj.c ****     lv_disp_t * disp = lv_disp_get_next(NULL);
 3648              		.loc 1 346 1 is_stmt 0 view .LVU1191
 3649 0000 70B5     		push	{r4, r5, r6, lr}
 3650              	.LCFI25:
 3651              		.cfi_def_cfa_offset 16
 3652              		.cfi_offset 4, -16
 3653              		.cfi_offset 5, -12
 3654              		.cfi_offset 6, -8
 3655              		.cfi_offset 14, -4
 3656 0002 0646     		mov	r6, r0
 347:lvgl/src/core/lv_obj.c ****     while(disp) {
 3657              		.loc 1 347 5 is_stmt 1 view .LVU1192
 347:lvgl/src/core/lv_obj.c ****     while(disp) {
 3658              		.loc 1 347 24 is_stmt 0 view .LVU1193
 3659 0004 0020     		movs	r0, #0
 3660              	.LVL389:
 347:lvgl/src/core/lv_obj.c ****     while(disp) {
 3661              		.loc 1 347 24 view .LVU1194
 3662 0006 FFF7FEFF 		bl	lv_disp_get_next
 3663              	.LVL390:
 3664 000a 0546     		mov	r5, r0
 3665              	.LVL391:
 348:lvgl/src/core/lv_obj.c ****         uint32_t i;
 3666              		.loc 1 348 5 is_stmt 1 view .LVU1195
 3667              	.L223:
 348:lvgl/src/core/lv_obj.c ****         uint32_t i;
 3668              		.loc 1 348 10 view .LVU1196
 3669 000c B5B1     		cbz	r5, .L230
 3670              	.LBB226:
 350:lvgl/src/core/lv_obj.c ****             if(disp->screens[i] == obj) return true;
 3671              		.loc 1 350 15 is_stmt 0 view .LVU1197
 3672 000e 0024     		movs	r4, #0
 3673 0010 00E0     		b	.L226
 3674              	.LVL392:
 3675              	.L232:
 350:lvgl/src/core/lv_obj.c ****             if(disp->screens[i] == obj) return true;
 3676              		.loc 1 350 42 is_stmt 1 discriminator 2 view .LVU1198
 350:lvgl/src/core/lv_obj.c ****             if(disp->screens[i] == obj) return true;
 3677              		.loc 1 350 43 is_stmt 0 discriminator 2 view .LVU1199
ARM GAS  C:\Users\BLACK_~1\AppData\Local\Temp\ccVQcfpA.s 			page 117


 3678 0012 0134     		adds	r4, r4, #1
 3679              	.LVL393:
 3680              	.L226:
 350:lvgl/src/core/lv_obj.c ****             if(disp->screens[i] == obj) return true;
 3681              		.loc 1 350 20 is_stmt 1 discriminator 1 view .LVU1200
 350:lvgl/src/core/lv_obj.c ****             if(disp->screens[i] == obj) return true;
 3682              		.loc 1 350 28 is_stmt 0 discriminator 1 view .LVU1201
 3683 0014 6B6A     		ldr	r3, [r5, #36]
 350:lvgl/src/core/lv_obj.c ****             if(disp->screens[i] == obj) return true;
 3684              		.loc 1 350 9 discriminator 1 view .LVU1202
 3685 0016 A342     		cmp	r3, r4
 3686 0018 0BD9     		bls	.L231
 3687              	.LBB227:
 351:lvgl/src/core/lv_obj.c ****             bool found = obj_valid_child(disp->screens[i], obj);
 3688              		.loc 1 351 13 is_stmt 1 view .LVU1203
 351:lvgl/src/core/lv_obj.c ****             bool found = obj_valid_child(disp->screens[i], obj);
 3689              		.loc 1 351 20 is_stmt 0 view .LVU1204
 3690 001a EB68     		ldr	r3, [r5, #12]
 351:lvgl/src/core/lv_obj.c ****             bool found = obj_valid_child(disp->screens[i], obj);
 3691              		.loc 1 351 29 view .LVU1205
 3692 001c 53F82400 		ldr	r0, [r3, r4, lsl #2]
 351:lvgl/src/core/lv_obj.c ****             bool found = obj_valid_child(disp->screens[i], obj);
 3693              		.loc 1 351 15 view .LVU1206
 3694 0020 B042     		cmp	r0, r6
 3695 0022 0DD0     		beq	.L227
 352:lvgl/src/core/lv_obj.c ****             if(found) return true;
 3696              		.loc 1 352 13 is_stmt 1 view .LVU1207
 352:lvgl/src/core/lv_obj.c ****             if(found) return true;
 3697              		.loc 1 352 26 is_stmt 0 view .LVU1208
 3698 0024 3146     		mov	r1, r6
 3699 0026 FFF7FEFF 		bl	obj_valid_child
 3700              	.LVL394:
 353:lvgl/src/core/lv_obj.c ****         }
 3701              		.loc 1 353 13 is_stmt 1 view .LVU1209
 353:lvgl/src/core/lv_obj.c ****         }
 3702              		.loc 1 353 15 is_stmt 0 view .LVU1210
 3703 002a 0346     		mov	r3, r0
 3704 002c 0028     		cmp	r0, #0
 3705 002e F0D0     		beq	.L232
 3706 0030 07E0     		b	.L224
 3707              	.LVL395:
 3708              	.L231:
 353:lvgl/src/core/lv_obj.c ****         }
 3709              		.loc 1 353 15 view .LVU1211
 3710              	.LBE227:
 356:lvgl/src/core/lv_obj.c ****     }
 3711              		.loc 1 356 9 is_stmt 1 view .LVU1212
 356:lvgl/src/core/lv_obj.c ****     }
 3712              		.loc 1 356 16 is_stmt 0 view .LVU1213
 3713 0032 2846     		mov	r0, r5
 3714 0034 FFF7FEFF 		bl	lv_disp_get_next
 3715              	.LVL396:
 3716 0038 0546     		mov	r5, r0
 3717              	.LVL397:
 356:lvgl/src/core/lv_obj.c ****     }
 3718              		.loc 1 356 16 view .LVU1214
 3719 003a E7E7     		b	.L223
ARM GAS  C:\Users\BLACK_~1\AppData\Local\Temp\ccVQcfpA.s 			page 118


 3720              	.LVL398:
 3721              	.L230:
 356:lvgl/src/core/lv_obj.c ****     }
 3722              		.loc 1 356 16 view .LVU1215
 3723              	.LBE226:
 359:lvgl/src/core/lv_obj.c **** }
 3724              		.loc 1 359 12 view .LVU1216
 3725 003c 0023     		movs	r3, #0
 3726 003e 00E0     		b	.L224
 3727              	.LVL399:
 3728              	.L227:
 3729              	.LBB229:
 3730              	.LBB228:
 351:lvgl/src/core/lv_obj.c ****             bool found = obj_valid_child(disp->screens[i], obj);
 3731              		.loc 1 351 48 view .LVU1217
 3732 0040 0123     		movs	r3, #1
 3733              	.LVL400:
 3734              	.L224:
 351:lvgl/src/core/lv_obj.c ****             bool found = obj_valid_child(disp->screens[i], obj);
 3735              		.loc 1 351 48 view .LVU1218
 3736              	.LBE228:
 3737              	.LBE229:
 360:lvgl/src/core/lv_obj.c **** 
 3738              		.loc 1 360 1 view .LVU1219
 3739 0042 1846     		mov	r0, r3
 3740 0044 70BD     		pop	{r4, r5, r6, pc}
 360:lvgl/src/core/lv_obj.c **** 
 3741              		.loc 1 360 1 view .LVU1220
 3742              		.cfi_endproc
 3743              	.LFE169:
 3745              		.global	lv_obj_class
 3746              		.section	.bss.lv_initialized,"aw",%nobits
 3747              		.set	.LANCHOR0,. + 0
 3750              	lv_initialized:
 3751 0000 00       		.space	1
 3752              		.section	.bss.x.0,"aw",%nobits
 3753              		.align	2
 3754              		.set	.LANCHOR2,. + 0
 3757              	x.0:
 3758 0000 00000000 		.space	4
 3759              		.section	.rodata.lv_obj_class,"a"
 3760              		.align	2
 3761              		.set	.LANCHOR1,. + 0
 3764              	lv_obj_class:
 3765 0000 00000000 		.word	0
 3766 0004 00000000 		.word	lv_obj_constructor
 3767 0008 00000000 		.word	lv_obj_destructor
 3768 000c 00000000 		.space	4
 3769 0010 00000000 		.word	lv_obj_event
 3770 0014 8200     		.short	130
 3771 0016 8200     		.short	130
 3772 0018 4A       		.byte	74
 3773 0019 02       		.byte	2
 3774 001a 00       		.byte	0
 3775 001b 00       		.space	1
 3776              		.text
 3777              	.Letext0:
ARM GAS  C:\Users\BLACK_~1\AppData\Local\Temp\ccVQcfpA.s 			page 119


 3778              		.file 6 "e:\\gnu arm embedded toolchain\\10 2021.10\\arm-none-eabi\\include\\machine\\_default_typ
 3779              		.file 7 "e:\\gnu arm embedded toolchain\\10 2021.10\\arm-none-eabi\\include\\sys\\_stdint.h"
 3780              		.file 8 "lvgl/src/core/../misc/../font/lv_font.h"
 3781              		.file 9 "lvgl/src/core/../misc/lv_math.h"
 3782              		.file 10 "lvgl/src/core/../misc/lv_types.h"
 3783              		.file 11 "lvgl/src/core/../misc/lv_color.h"
 3784              		.file 12 "lvgl/src/core/../misc/lv_anim.h"
 3785              		.file 13 "lvgl/src/core/../hal/../misc/lv_ll.h"
 3786              		.file 14 "lvgl/src/core/../hal/../misc/lv_timer.h"
 3787              		.file 15 "lvgl/src/core/../hal/lv_hal_disp.h"
 3788              		.file 16 "lvgl/src/core/lv_theme.h"
 3789              		.file 17 "lvgl/src/core/lv_obj.h"
 3790              		.file 18 "lvgl/src/core/../hal/lv_hal_indev.h"
 3791              		.file 19 "lvgl/src/core/lv_group.h"
 3792              		.file 20 "lvgl/src/core/lv_obj_scroll.h"
 3793              		.file 21 "lvgl/src/core/../draw/lv_draw_mask.h"
 3794              		.file 22 "lvgl/src/core/../draw/lv_draw_rect.h"
 3795              		.file 23 "lvgl/src/core/lv_obj_draw.h"
 3796              		.file 24 "lvgl/src/core/lv_obj_class.h"
 3797              		.file 25 "lvgl/src/core/lv_event.h"
 3798              		.file 26 "lvgl/src/core/../misc/lv_gc.h"
 3799              		.file 27 "lvgl/src/core/../hal/../misc/lv_mem.h"
 3800              		.file 28 "lvgl/src/core/lv_obj_pos.h"
 3801              		.file 29 "lvgl/src/core/lv_indev.h"
 3802              		.file 30 "lvgl/src/core/lv_obj_tree.h"
 3803              		.file 31 "lvgl/src/core/../draw/../misc/lv_fs.h"
 3804              		.file 32 "lvgl/src/core/lv_refr.h"
 3805              		.file 33 "lvgl/src/core/../draw/lv_img_decoder.h"
 3806              		.file 34 "lvgl/src/core/../extra/lv_extra.h"
ARM GAS  C:\Users\BLACK_~1\AppData\Local\Temp\ccVQcfpA.s 			page 120


DEFINED SYMBOLS
                            *ABS*:00000000 lv_obj.c
C:\Users\BLACK_~1\AppData\Local\Temp\ccVQcfpA.s:20     .text.obj_valid_child:00000000 $t
C:\Users\BLACK_~1\AppData\Local\Temp\ccVQcfpA.s:25     .text.obj_valid_child:00000000 obj_valid_child
C:\Users\BLACK_~1\AppData\Local\Temp\ccVQcfpA.s:124    .text.scrollbar_init_draw_dsc:00000000 $t
C:\Users\BLACK_~1\AppData\Local\Temp\ccVQcfpA.s:129    .text.scrollbar_init_draw_dsc:00000000 scrollbar_init_draw_dsc
C:\Users\BLACK_~1\AppData\Local\Temp\ccVQcfpA.s:468    .text.draw_scrollbar:00000000 $t
C:\Users\BLACK_~1\AppData\Local\Temp\ccVQcfpA.s:473    .text.draw_scrollbar:00000000 draw_scrollbar
C:\Users\BLACK_~1\AppData\Local\Temp\ccVQcfpA.s:576    .text.lv_obj_draw:00000000 $t
C:\Users\BLACK_~1\AppData\Local\Temp\ccVQcfpA.s:581    .text.lv_obj_draw:00000000 lv_obj_draw
C:\Users\BLACK_~1\AppData\Local\Temp\ccVQcfpA.s:1299   .text.lv_obj_constructor:00000000 $t
C:\Users\BLACK_~1\AppData\Local\Temp\ccVQcfpA.s:1304   .text.lv_obj_constructor:00000000 lv_obj_constructor
C:\Users\BLACK_~1\AppData\Local\Temp\ccVQcfpA.s:1475   .text.lv_obj_set_state:00000000 $t
C:\Users\BLACK_~1\AppData\Local\Temp\ccVQcfpA.s:1480   .text.lv_obj_set_state:00000000 lv_obj_set_state
C:\Users\BLACK_~1\AppData\Local\Temp\ccVQcfpA.s:2035   .text.lv_init:00000000 $t
C:\Users\BLACK_~1\AppData\Local\Temp\ccVQcfpA.s:2041   .text.lv_init:00000000 lv_init
C:\Users\BLACK_~1\AppData\Local\Temp\ccVQcfpA.s:2123   .text.lv_init:00000048 $d
C:\Users\BLACK_~1\AppData\Local\Temp\ccVQcfpA.s:2130   .text.lv_deinit:00000000 $t
C:\Users\BLACK_~1\AppData\Local\Temp\ccVQcfpA.s:2136   .text.lv_deinit:00000000 lv_deinit
C:\Users\BLACK_~1\AppData\Local\Temp\ccVQcfpA.s:2168   .text.lv_deinit:00000018 $d
C:\Users\BLACK_~1\AppData\Local\Temp\ccVQcfpA.s:2173   .text.lv_obj_create:00000000 $t
C:\Users\BLACK_~1\AppData\Local\Temp\ccVQcfpA.s:2179   .text.lv_obj_create:00000000 lv_obj_create
C:\Users\BLACK_~1\AppData\Local\Temp\ccVQcfpA.s:2215   .text.lv_obj_create:00000014 $d
C:\Users\BLACK_~1\AppData\Local\Temp\ccVQcfpA.s:2220   .text.lv_obj_add_flag:00000000 $t
C:\Users\BLACK_~1\AppData\Local\Temp\ccVQcfpA.s:2226   .text.lv_obj_add_flag:00000000 lv_obj_add_flag
C:\Users\BLACK_~1\AppData\Local\Temp\ccVQcfpA.s:2307   .text.lv_obj_clear_flag:00000000 $t
C:\Users\BLACK_~1\AppData\Local\Temp\ccVQcfpA.s:2313   .text.lv_obj_clear_flag:00000000 lv_obj_clear_flag
C:\Users\BLACK_~1\AppData\Local\Temp\ccVQcfpA.s:2396   .text.lv_obj_add_state:00000000 $t
C:\Users\BLACK_~1\AppData\Local\Temp\ccVQcfpA.s:2402   .text.lv_obj_add_state:00000000 lv_obj_add_state
C:\Users\BLACK_~1\AppData\Local\Temp\ccVQcfpA.s:2446   .text.lv_obj_clear_state:00000000 $t
C:\Users\BLACK_~1\AppData\Local\Temp\ccVQcfpA.s:2452   .text.lv_obj_clear_state:00000000 lv_obj_clear_state
C:\Users\BLACK_~1\AppData\Local\Temp\ccVQcfpA.s:2497   .text.lv_obj_has_flag:00000000 $t
C:\Users\BLACK_~1\AppData\Local\Temp\ccVQcfpA.s:2503   .text.lv_obj_has_flag:00000000 lv_obj_has_flag
C:\Users\BLACK_~1\AppData\Local\Temp\ccVQcfpA.s:2530   .text.lv_obj_has_flag_any:00000000 $t
C:\Users\BLACK_~1\AppData\Local\Temp\ccVQcfpA.s:2536   .text.lv_obj_has_flag_any:00000000 lv_obj_has_flag_any
C:\Users\BLACK_~1\AppData\Local\Temp\ccVQcfpA.s:2563   .text.lv_obj_get_state:00000000 $t
C:\Users\BLACK_~1\AppData\Local\Temp\ccVQcfpA.s:2569   .text.lv_obj_get_state:00000000 lv_obj_get_state
C:\Users\BLACK_~1\AppData\Local\Temp\ccVQcfpA.s:2590   .text.lv_obj_has_state:00000000 $t
C:\Users\BLACK_~1\AppData\Local\Temp\ccVQcfpA.s:2596   .text.lv_obj_has_state:00000000 lv_obj_has_state
C:\Users\BLACK_~1\AppData\Local\Temp\ccVQcfpA.s:2623   .text.lv_obj_get_group:00000000 $t
C:\Users\BLACK_~1\AppData\Local\Temp\ccVQcfpA.s:2629   .text.lv_obj_get_group:00000000 lv_obj_get_group
C:\Users\BLACK_~1\AppData\Local\Temp\ccVQcfpA.s:2656   .text.lv_obj_event:00000000 $t
C:\Users\BLACK_~1\AppData\Local\Temp\ccVQcfpA.s:2661   .text.lv_obj_event:00000000 lv_obj_event
C:\Users\BLACK_~1\AppData\Local\Temp\ccVQcfpA.s:3306   .text.lv_obj_destructor:00000000 $t
C:\Users\BLACK_~1\AppData\Local\Temp\ccVQcfpA.s:3311   .text.lv_obj_destructor:00000000 lv_obj_destructor
C:\Users\BLACK_~1\AppData\Local\Temp\ccVQcfpA.s:3428   .text.lv_obj_destructor:00000064 $d
C:\Users\BLACK_~1\AppData\Local\Temp\ccVQcfpA.s:3433   .text.lv_obj_allocate_spec_attr:00000000 $t
C:\Users\BLACK_~1\AppData\Local\Temp\ccVQcfpA.s:3439   .text.lv_obj_allocate_spec_attr:00000000 lv_obj_allocate_spec_attr
C:\Users\BLACK_~1\AppData\Local\Temp\ccVQcfpA.s:3518   .text.lv_obj_allocate_spec_attr:0000003c $d
C:\Users\BLACK_~1\AppData\Local\Temp\ccVQcfpA.s:3524   .text.lv_obj_check_type:00000000 $t
C:\Users\BLACK_~1\AppData\Local\Temp\ccVQcfpA.s:3530   .text.lv_obj_check_type:00000000 lv_obj_check_type
C:\Users\BLACK_~1\AppData\Local\Temp\ccVQcfpA.s:3562   .text.lv_obj_has_class:00000000 $t
C:\Users\BLACK_~1\AppData\Local\Temp\ccVQcfpA.s:3568   .text.lv_obj_has_class:00000000 lv_obj_has_class
C:\Users\BLACK_~1\AppData\Local\Temp\ccVQcfpA.s:3611   .text.lv_obj_get_class:00000000 $t
C:\Users\BLACK_~1\AppData\Local\Temp\ccVQcfpA.s:3617   .text.lv_obj_get_class:00000000 lv_obj_get_class
C:\Users\BLACK_~1\AppData\Local\Temp\ccVQcfpA.s:3635   .text.lv_obj_is_valid:00000000 $t
C:\Users\BLACK_~1\AppData\Local\Temp\ccVQcfpA.s:3641   .text.lv_obj_is_valid:00000000 lv_obj_is_valid
ARM GAS  C:\Users\BLACK_~1\AppData\Local\Temp\ccVQcfpA.s 			page 121


C:\Users\BLACK_~1\AppData\Local\Temp\ccVQcfpA.s:3764   .rodata.lv_obj_class:00000000 lv_obj_class
C:\Users\BLACK_~1\AppData\Local\Temp\ccVQcfpA.s:3750   .bss.lv_initialized:00000000 lv_initialized
C:\Users\BLACK_~1\AppData\Local\Temp\ccVQcfpA.s:3751   .bss.lv_initialized:00000000 $d
C:\Users\BLACK_~1\AppData\Local\Temp\ccVQcfpA.s:3753   .bss.x.0:00000000 $d
C:\Users\BLACK_~1\AppData\Local\Temp\ccVQcfpA.s:3757   .bss.x.0:00000000 x.0
C:\Users\BLACK_~1\AppData\Local\Temp\ccVQcfpA.s:3760   .rodata.lv_obj_class:00000000 $d

UNDEFINED SYMBOLS
lv_draw_rect_dsc_init
lv_obj_get_style_prop
lv_obj_get_scrollbar_area
lv_area_get_size
lv_draw_rect
lv_event_get_code
lv_event_get_target
lv_event_get_param
_lv_area_is_in
lv_obj_init_draw_rect_dsc
lv_mem_buf_get
lv_draw_mask_radius_init
lv_draw_mask_add
lv_draw_mask_remove_custom
lv_mem_buf_release
lv_obj_get_scroll_left
lv_obj_get_scroll_top
_lv_obj_style_state_compare
lv_memset_00
lv_obj_style_get_selector_state
lv_obj_style_get_selector_part
_lv_obj_style_create_transition
lv_obj_invalidate
lv_obj_refresh_ext_draw_size
lv_obj_refresh_style
lv_mem_init
_lv_timer_core_init
_lv_fs_init
_lv_anim_core_init
_lv_group_init
_lv_obj_style_init
_lv_ll_init
_lv_refr_init
_lv_img_decoder_init
lv_extra_init
_lv_disp_ll
_lv_indev_ll
_lv_gc_clear_roots
lv_disp_set_default
lv_mem_deinit
lv_obj_class_create_obj
lv_obj_class_init_obj
lv_obj_is_layout_positioned
lv_obj_get_parent
lv_obj_mark_layout_as_dirty
lv_indev_get_scroll_obj
lv_event_send
lv_obj_get_child_cnt
lv_group_get_editing
ARM GAS  C:\Users\BLACK_~1\AppData\Local\Temp\ccVQcfpA.s 			page 122


lv_indev_get_act
lv_indev_get_type
lv_obj_scroll_to_view_recursive
lv_event_get_indev
lv_obj_get_child
lv_obj_calculate_ext_draw_size
_lv_event_mark_deleted
lv_obj_enable_style_refresh
lv_obj_remove_style
lv_anim_del
lv_group_remove_obj
lv_mem_free
lv_mem_alloc
lv_disp_get_next
