ARM GAS  C:\Users\BLACK_~1\AppData\Local\Temp\ccbv02In.s 			page 1


   1              		.cpu cortex-m4
   2              		.arch armv7e-m
   3              		.fpu fpv4-sp-d16
   4              		.eabi_attribute 27, 1
   5              		.eabi_attribute 28, 1
   6              		.eabi_attribute 20, 1
   7              		.eabi_attribute 21, 1
   8              		.eabi_attribute 23, 3
   9              		.eabi_attribute 24, 1
  10              		.eabi_attribute 25, 1
  11              		.eabi_attribute 26, 1
  12              		.eabi_attribute 30, 1
  13              		.eabi_attribute 34, 1
  14              		.eabi_attribute 18, 4
  15              		.file	"lv_obj_style.c"
  16              		.text
  17              	.Ltext0:
  18              		.cfi_sections	.debug_frame
  19              		.section	.text.trans_del,"ax",%progbits
  20              		.align	1
  21              		.syntax unified
  22              		.thumb
  23              		.thumb_func
  25              	trans_del:
  26              	.LVL0:
  27              	.LFB175:
  28              		.file 1 "lvgl/src/core/lv_obj_style.c"
   1:lvgl/src/core/lv_obj_style.c **** /**
   2:lvgl/src/core/lv_obj_style.c ****  * @file lv_obj_style.c
   3:lvgl/src/core/lv_obj_style.c ****  *
   4:lvgl/src/core/lv_obj_style.c ****  */
   5:lvgl/src/core/lv_obj_style.c **** 
   6:lvgl/src/core/lv_obj_style.c **** /*********************
   7:lvgl/src/core/lv_obj_style.c ****  *      INCLUDES
   8:lvgl/src/core/lv_obj_style.c ****  *********************/
   9:lvgl/src/core/lv_obj_style.c **** #include "lv_obj.h"
  10:lvgl/src/core/lv_obj_style.c **** #include "lv_disp.h"
  11:lvgl/src/core/lv_obj_style.c **** #include "../misc/lv_gc.h"
  12:lvgl/src/core/lv_obj_style.c **** 
  13:lvgl/src/core/lv_obj_style.c **** /*********************
  14:lvgl/src/core/lv_obj_style.c ****  *      DEFINES
  15:lvgl/src/core/lv_obj_style.c ****  *********************/
  16:lvgl/src/core/lv_obj_style.c **** #define MY_CLASS &lv_obj_class
  17:lvgl/src/core/lv_obj_style.c **** 
  18:lvgl/src/core/lv_obj_style.c **** /**********************
  19:lvgl/src/core/lv_obj_style.c ****  *      TYPEDEFS
  20:lvgl/src/core/lv_obj_style.c ****  **********************/
  21:lvgl/src/core/lv_obj_style.c **** 
  22:lvgl/src/core/lv_obj_style.c **** typedef struct {
  23:lvgl/src/core/lv_obj_style.c ****     lv_obj_t * obj;
  24:lvgl/src/core/lv_obj_style.c ****     lv_style_prop_t prop;
  25:lvgl/src/core/lv_obj_style.c ****     lv_style_selector_t selector;
  26:lvgl/src/core/lv_obj_style.c ****     lv_style_value_t start_value;
  27:lvgl/src/core/lv_obj_style.c ****     lv_style_value_t end_value;
  28:lvgl/src/core/lv_obj_style.c **** } trans_t;
  29:lvgl/src/core/lv_obj_style.c **** 
  30:lvgl/src/core/lv_obj_style.c **** typedef enum {
ARM GAS  C:\Users\BLACK_~1\AppData\Local\Temp\ccbv02In.s 			page 2


  31:lvgl/src/core/lv_obj_style.c ****     CACHE_ZERO = 0,
  32:lvgl/src/core/lv_obj_style.c ****     CACHE_TRUE = 1,
  33:lvgl/src/core/lv_obj_style.c ****     CACHE_UNSET = 2,
  34:lvgl/src/core/lv_obj_style.c ****     CACHE_255 = 3,
  35:lvgl/src/core/lv_obj_style.c ****     CACHE_NEED_CHECK = 4,
  36:lvgl/src/core/lv_obj_style.c **** }cache_t;
  37:lvgl/src/core/lv_obj_style.c **** 
  38:lvgl/src/core/lv_obj_style.c **** /**********************
  39:lvgl/src/core/lv_obj_style.c ****  *  GLOBAL PROTOTYPES
  40:lvgl/src/core/lv_obj_style.c ****  **********************/
  41:lvgl/src/core/lv_obj_style.c **** 
  42:lvgl/src/core/lv_obj_style.c **** /**********************
  43:lvgl/src/core/lv_obj_style.c ****  *  STATIC PROTOTYPES
  44:lvgl/src/core/lv_obj_style.c ****  **********************/
  45:lvgl/src/core/lv_obj_style.c **** static lv_style_t * get_local_style(lv_obj_t * obj, lv_style_selector_t selector);
  46:lvgl/src/core/lv_obj_style.c **** static _lv_obj_style_t * get_trans_style(lv_obj_t * obj, uint32_t part);
  47:lvgl/src/core/lv_obj_style.c **** static bool get_prop_core(const lv_obj_t * obj, lv_part_t part, lv_style_prop_t prop, lv_style_valu
  48:lvgl/src/core/lv_obj_style.c **** static lv_style_value_t apply_color_filter(const lv_obj_t * obj, uint32_t part, lv_style_value_t v)
  49:lvgl/src/core/lv_obj_style.c **** static void report_style_change_core(void * style, lv_obj_t * obj);
  50:lvgl/src/core/lv_obj_style.c **** static void refresh_children_style(lv_obj_t * obj);
  51:lvgl/src/core/lv_obj_style.c **** static bool trans_del(lv_obj_t * obj, lv_part_t part, lv_style_prop_t prop, trans_t * tr_limit);
  52:lvgl/src/core/lv_obj_style.c **** static void trans_anim_cb(void * _tr, int32_t v);
  53:lvgl/src/core/lv_obj_style.c **** static void trans_anim_start_cb(lv_anim_t * a);
  54:lvgl/src/core/lv_obj_style.c **** static void trans_anim_ready_cb(lv_anim_t * a);
  55:lvgl/src/core/lv_obj_style.c **** static void fade_anim_cb(void * obj, int32_t v);
  56:lvgl/src/core/lv_obj_style.c **** static void fade_in_anim_ready(lv_anim_t * a);
  57:lvgl/src/core/lv_obj_style.c **** 
  58:lvgl/src/core/lv_obj_style.c **** /**********************
  59:lvgl/src/core/lv_obj_style.c ****  *  STATIC VARIABLES
  60:lvgl/src/core/lv_obj_style.c ****  **********************/
  61:lvgl/src/core/lv_obj_style.c **** static bool style_refr = true;
  62:lvgl/src/core/lv_obj_style.c **** 
  63:lvgl/src/core/lv_obj_style.c **** /**********************
  64:lvgl/src/core/lv_obj_style.c ****  *      MACROS
  65:lvgl/src/core/lv_obj_style.c ****  **********************/
  66:lvgl/src/core/lv_obj_style.c **** 
  67:lvgl/src/core/lv_obj_style.c **** /**********************
  68:lvgl/src/core/lv_obj_style.c ****  *   GLOBAL FUNCTIONS
  69:lvgl/src/core/lv_obj_style.c ****  **********************/
  70:lvgl/src/core/lv_obj_style.c **** 
  71:lvgl/src/core/lv_obj_style.c **** void _lv_obj_style_init(void)
  72:lvgl/src/core/lv_obj_style.c **** {
  73:lvgl/src/core/lv_obj_style.c ****     _lv_ll_init(&LV_GC_ROOT(_lv_obj_style_trans_ll), sizeof(trans_t));
  74:lvgl/src/core/lv_obj_style.c **** }
  75:lvgl/src/core/lv_obj_style.c **** 
  76:lvgl/src/core/lv_obj_style.c **** void lv_obj_add_style(lv_obj_t * obj, lv_style_t * style, lv_style_selector_t selector)
  77:lvgl/src/core/lv_obj_style.c **** {
  78:lvgl/src/core/lv_obj_style.c ****     trans_del(obj, selector, LV_STYLE_PROP_ANY, NULL);
  79:lvgl/src/core/lv_obj_style.c **** 
  80:lvgl/src/core/lv_obj_style.c ****     uint32_t i;
  81:lvgl/src/core/lv_obj_style.c ****     /*Go after the transition and local styles*/
  82:lvgl/src/core/lv_obj_style.c ****     for(i = 0; i < obj->style_cnt; i++) {
  83:lvgl/src/core/lv_obj_style.c ****         if(obj->styles[i].is_trans) continue;
  84:lvgl/src/core/lv_obj_style.c ****         if(obj->styles[i].is_local) continue;
  85:lvgl/src/core/lv_obj_style.c ****         break;
  86:lvgl/src/core/lv_obj_style.c ****     }
  87:lvgl/src/core/lv_obj_style.c **** 
ARM GAS  C:\Users\BLACK_~1\AppData\Local\Temp\ccbv02In.s 			page 3


  88:lvgl/src/core/lv_obj_style.c ****     /*Now `i` is at the first normal style. Insert the new style before this*/
  89:lvgl/src/core/lv_obj_style.c **** 
  90:lvgl/src/core/lv_obj_style.c ****     /*Allocate space for the new style and shift the rest of the style to the end*/
  91:lvgl/src/core/lv_obj_style.c ****     obj->style_cnt++;
  92:lvgl/src/core/lv_obj_style.c ****     obj->styles = lv_mem_realloc(obj->styles, obj->style_cnt * sizeof(_lv_obj_style_t));
  93:lvgl/src/core/lv_obj_style.c **** 
  94:lvgl/src/core/lv_obj_style.c ****     uint32_t j;
  95:lvgl/src/core/lv_obj_style.c ****     for(j = obj->style_cnt - 1; j > i ; j--) {
  96:lvgl/src/core/lv_obj_style.c ****         obj->styles[j] = obj->styles[j - 1];
  97:lvgl/src/core/lv_obj_style.c ****     }
  98:lvgl/src/core/lv_obj_style.c **** 
  99:lvgl/src/core/lv_obj_style.c ****     lv_memset_00(&obj->styles[i], sizeof(_lv_obj_style_t));
 100:lvgl/src/core/lv_obj_style.c ****     obj->styles[i].style = style;
 101:lvgl/src/core/lv_obj_style.c ****     obj->styles[i].selector = selector;
 102:lvgl/src/core/lv_obj_style.c **** 
 103:lvgl/src/core/lv_obj_style.c ****     lv_obj_refresh_style(obj, selector, LV_STYLE_PROP_ANY);
 104:lvgl/src/core/lv_obj_style.c **** }
 105:lvgl/src/core/lv_obj_style.c **** 
 106:lvgl/src/core/lv_obj_style.c **** void lv_obj_remove_style(lv_obj_t * obj, lv_style_t * style, lv_style_selector_t selector)
 107:lvgl/src/core/lv_obj_style.c **** {
 108:lvgl/src/core/lv_obj_style.c ****     lv_state_t state = lv_obj_style_get_selector_state(selector);
 109:lvgl/src/core/lv_obj_style.c ****     lv_part_t part = lv_obj_style_get_selector_part(selector);
 110:lvgl/src/core/lv_obj_style.c ****     lv_style_prop_t prop = LV_STYLE_PROP_ANY;
 111:lvgl/src/core/lv_obj_style.c ****     if(style && style->prop_cnt == 0) prop = LV_STYLE_PROP_INV;
 112:lvgl/src/core/lv_obj_style.c **** 
 113:lvgl/src/core/lv_obj_style.c ****     uint32_t i = 0;
 114:lvgl/src/core/lv_obj_style.c ****     bool deleted = false;
 115:lvgl/src/core/lv_obj_style.c ****     while(i <  obj->style_cnt) {
 116:lvgl/src/core/lv_obj_style.c ****         lv_state_t state_act = lv_obj_style_get_selector_state(obj->styles[i].selector);
 117:lvgl/src/core/lv_obj_style.c ****         lv_part_t part_act = lv_obj_style_get_selector_part(obj->styles[i].selector);
 118:lvgl/src/core/lv_obj_style.c ****         if((state != LV_STATE_ANY && state_act != state) ||
 119:lvgl/src/core/lv_obj_style.c ****            (part != LV_PART_ANY && part_act != part) ||
 120:lvgl/src/core/lv_obj_style.c ****            (style != NULL && style != obj->styles[i].style))
 121:lvgl/src/core/lv_obj_style.c ****         {
 122:lvgl/src/core/lv_obj_style.c ****             i++;
 123:lvgl/src/core/lv_obj_style.c ****             continue;
 124:lvgl/src/core/lv_obj_style.c ****         }
 125:lvgl/src/core/lv_obj_style.c **** 
 126:lvgl/src/core/lv_obj_style.c ****         if(obj->styles[i].is_trans) {
 127:lvgl/src/core/lv_obj_style.c ****             trans_del(obj, part, LV_STYLE_PROP_ANY, NULL);
 128:lvgl/src/core/lv_obj_style.c ****         }
 129:lvgl/src/core/lv_obj_style.c **** 
 130:lvgl/src/core/lv_obj_style.c ****         if(obj->styles[i].is_local || obj->styles[i].is_trans) {
 131:lvgl/src/core/lv_obj_style.c ****             lv_style_reset(obj->styles[i].style);
 132:lvgl/src/core/lv_obj_style.c ****             lv_mem_free(obj->styles[i].style);
 133:lvgl/src/core/lv_obj_style.c ****             obj->styles[i].style = NULL;
 134:lvgl/src/core/lv_obj_style.c ****         }
 135:lvgl/src/core/lv_obj_style.c **** 
 136:lvgl/src/core/lv_obj_style.c ****         /*Shift the styles after `i` by one*/
 137:lvgl/src/core/lv_obj_style.c ****         uint32_t j;
 138:lvgl/src/core/lv_obj_style.c ****         for(j = i; j < (uint32_t)obj->style_cnt - 1 ; j++) {
 139:lvgl/src/core/lv_obj_style.c ****             obj->styles[j] = obj->styles[j + 1];
 140:lvgl/src/core/lv_obj_style.c ****         }
 141:lvgl/src/core/lv_obj_style.c **** 
 142:lvgl/src/core/lv_obj_style.c ****         obj->style_cnt--;
 143:lvgl/src/core/lv_obj_style.c ****         obj->styles = lv_mem_realloc(obj->styles, obj->style_cnt * sizeof(_lv_obj_style_t));
 144:lvgl/src/core/lv_obj_style.c **** 
ARM GAS  C:\Users\BLACK_~1\AppData\Local\Temp\ccbv02In.s 			page 4


 145:lvgl/src/core/lv_obj_style.c ****         deleted = true;
 146:lvgl/src/core/lv_obj_style.c ****         /*The style from the current `i` index is removed, so `i` points to the next style.
 147:lvgl/src/core/lv_obj_style.c ****          *Therefore it doesn't needs to be incremented*/
 148:lvgl/src/core/lv_obj_style.c ****     }
 149:lvgl/src/core/lv_obj_style.c ****     if(deleted && prop != LV_STYLE_PROP_INV) {
 150:lvgl/src/core/lv_obj_style.c ****         lv_obj_refresh_style(obj, part, prop);
 151:lvgl/src/core/lv_obj_style.c ****     }
 152:lvgl/src/core/lv_obj_style.c **** }
 153:lvgl/src/core/lv_obj_style.c **** 
 154:lvgl/src/core/lv_obj_style.c **** void lv_obj_report_style_change(lv_style_t * style)
 155:lvgl/src/core/lv_obj_style.c **** {
 156:lvgl/src/core/lv_obj_style.c ****     if(!style_refr) return;
 157:lvgl/src/core/lv_obj_style.c ****     lv_disp_t * d = lv_disp_get_next(NULL);
 158:lvgl/src/core/lv_obj_style.c **** 
 159:lvgl/src/core/lv_obj_style.c ****     while(d) {
 160:lvgl/src/core/lv_obj_style.c ****         uint32_t i;
 161:lvgl/src/core/lv_obj_style.c ****         for(i = 0; i < d->screen_cnt; i++) {
 162:lvgl/src/core/lv_obj_style.c ****             report_style_change_core(style, d->screens[i]);
 163:lvgl/src/core/lv_obj_style.c ****         }
 164:lvgl/src/core/lv_obj_style.c ****         d = lv_disp_get_next(d);
 165:lvgl/src/core/lv_obj_style.c ****     }
 166:lvgl/src/core/lv_obj_style.c **** }
 167:lvgl/src/core/lv_obj_style.c **** 
 168:lvgl/src/core/lv_obj_style.c **** void lv_obj_refresh_style(lv_obj_t * obj, lv_style_selector_t selector, lv_style_prop_t prop)
 169:lvgl/src/core/lv_obj_style.c **** {
 170:lvgl/src/core/lv_obj_style.c ****     LV_ASSERT_OBJ(obj, MY_CLASS);
 171:lvgl/src/core/lv_obj_style.c **** 
 172:lvgl/src/core/lv_obj_style.c ****     if(!style_refr) return;
 173:lvgl/src/core/lv_obj_style.c **** 
 174:lvgl/src/core/lv_obj_style.c ****     lv_obj_invalidate(obj);
 175:lvgl/src/core/lv_obj_style.c **** 
 176:lvgl/src/core/lv_obj_style.c ****     lv_part_t part = lv_obj_style_get_selector_part(selector);
 177:lvgl/src/core/lv_obj_style.c **** 
 178:lvgl/src/core/lv_obj_style.c ****     if((part == LV_PART_ANY || part == LV_PART_MAIN) && (prop == LV_STYLE_PROP_ANY || (prop & LV_ST
 179:lvgl/src/core/lv_obj_style.c ****         lv_event_send(obj, LV_EVENT_STYLE_CHANGED, NULL);
 180:lvgl/src/core/lv_obj_style.c ****         lv_obj_mark_layout_as_dirty(obj);
 181:lvgl/src/core/lv_obj_style.c ****     }
 182:lvgl/src/core/lv_obj_style.c ****     if((part == LV_PART_ANY || part == LV_PART_MAIN) && (prop == LV_STYLE_PROP_ANY || (prop & LV_ST
 183:lvgl/src/core/lv_obj_style.c ****         lv_obj_t * parent = lv_obj_get_parent(obj);
 184:lvgl/src/core/lv_obj_style.c ****         if(parent) lv_obj_mark_layout_as_dirty(parent);
 185:lvgl/src/core/lv_obj_style.c ****     }
 186:lvgl/src/core/lv_obj_style.c **** 
 187:lvgl/src/core/lv_obj_style.c ****     if(prop == LV_STYLE_PROP_ANY || (prop & LV_STYLE_PROP_EXT_DRAW)) {
 188:lvgl/src/core/lv_obj_style.c ****         lv_obj_refresh_ext_draw_size(obj);
 189:lvgl/src/core/lv_obj_style.c ****     }
 190:lvgl/src/core/lv_obj_style.c ****     lv_obj_invalidate(obj);
 191:lvgl/src/core/lv_obj_style.c **** 
 192:lvgl/src/core/lv_obj_style.c ****     if(prop == LV_STYLE_PROP_ANY ||
 193:lvgl/src/core/lv_obj_style.c ****       ((prop & LV_STYLE_PROP_INHERIT) && ((prop & LV_STYLE_PROP_EXT_DRAW) || (prop & LV_STYLE_PROP_
 194:lvgl/src/core/lv_obj_style.c ****     {
 195:lvgl/src/core/lv_obj_style.c ****         if(part != LV_PART_SCROLLBAR) {
 196:lvgl/src/core/lv_obj_style.c ****             refresh_children_style(obj);
 197:lvgl/src/core/lv_obj_style.c ****         }
 198:lvgl/src/core/lv_obj_style.c ****     }
 199:lvgl/src/core/lv_obj_style.c **** }
 200:lvgl/src/core/lv_obj_style.c **** 
 201:lvgl/src/core/lv_obj_style.c **** void lv_obj_enable_style_refresh(bool en)
ARM GAS  C:\Users\BLACK_~1\AppData\Local\Temp\ccbv02In.s 			page 5


 202:lvgl/src/core/lv_obj_style.c **** {
 203:lvgl/src/core/lv_obj_style.c ****     style_refr = en;
 204:lvgl/src/core/lv_obj_style.c **** }
 205:lvgl/src/core/lv_obj_style.c **** 
 206:lvgl/src/core/lv_obj_style.c **** lv_style_value_t lv_obj_get_style_prop(const lv_obj_t * obj, lv_part_t part, lv_style_prop_t prop)
 207:lvgl/src/core/lv_obj_style.c **** {
 208:lvgl/src/core/lv_obj_style.c ****     lv_style_value_t value_act;
 209:lvgl/src/core/lv_obj_style.c ****     bool inherit = prop & LV_STYLE_PROP_INHERIT ? true : false;
 210:lvgl/src/core/lv_obj_style.c ****     bool filter = prop & LV_STYLE_PROP_FILTER ? true : false;
 211:lvgl/src/core/lv_obj_style.c ****     if(filter) {
 212:lvgl/src/core/lv_obj_style.c ****         prop &= ~LV_STYLE_PROP_FILTER;
 213:lvgl/src/core/lv_obj_style.c ****     }
 214:lvgl/src/core/lv_obj_style.c ****     bool found = false;
 215:lvgl/src/core/lv_obj_style.c ****     while(obj) {
 216:lvgl/src/core/lv_obj_style.c ****         found = get_prop_core(obj, part, prop, &value_act);
 217:lvgl/src/core/lv_obj_style.c ****         if(found) break;
 218:lvgl/src/core/lv_obj_style.c ****         if(!inherit) break;
 219:lvgl/src/core/lv_obj_style.c **** 
 220:lvgl/src/core/lv_obj_style.c ****         /*If not found, check the `MAIN` style first*/
 221:lvgl/src/core/lv_obj_style.c ****         if(part != LV_PART_MAIN) {
 222:lvgl/src/core/lv_obj_style.c ****             part = LV_PART_MAIN;
 223:lvgl/src/core/lv_obj_style.c ****             continue;
 224:lvgl/src/core/lv_obj_style.c ****         }
 225:lvgl/src/core/lv_obj_style.c **** 
 226:lvgl/src/core/lv_obj_style.c ****         /*Check the parent too.*/
 227:lvgl/src/core/lv_obj_style.c ****         obj = lv_obj_get_parent(obj);
 228:lvgl/src/core/lv_obj_style.c ****     }
 229:lvgl/src/core/lv_obj_style.c **** 
 230:lvgl/src/core/lv_obj_style.c ****     if(!found) {
 231:lvgl/src/core/lv_obj_style.c ****         if(part == LV_PART_MAIN && (prop == LV_STYLE_WIDTH || prop == LV_STYLE_HEIGHT)) {
 232:lvgl/src/core/lv_obj_style.c ****             const lv_obj_class_t * cls = obj->class_p;
 233:lvgl/src/core/lv_obj_style.c ****             while(cls) {
 234:lvgl/src/core/lv_obj_style.c ****                 if(prop == LV_STYLE_WIDTH) {
 235:lvgl/src/core/lv_obj_style.c ****                     if(cls->width_def != 0) break;
 236:lvgl/src/core/lv_obj_style.c ****                 } else {
 237:lvgl/src/core/lv_obj_style.c ****                     if(cls->height_def != 0) break;
 238:lvgl/src/core/lv_obj_style.c ****                 }
 239:lvgl/src/core/lv_obj_style.c ****                 cls = cls->base_class;
 240:lvgl/src/core/lv_obj_style.c ****             }
 241:lvgl/src/core/lv_obj_style.c **** 
 242:lvgl/src/core/lv_obj_style.c ****             value_act.num = prop == LV_STYLE_WIDTH ? cls->width_def : cls->height_def;
 243:lvgl/src/core/lv_obj_style.c ****         } else {
 244:lvgl/src/core/lv_obj_style.c ****             value_act = lv_style_prop_get_default(prop);
 245:lvgl/src/core/lv_obj_style.c ****         }
 246:lvgl/src/core/lv_obj_style.c ****     }
 247:lvgl/src/core/lv_obj_style.c ****     if(filter) value_act = apply_color_filter(obj, part, value_act);
 248:lvgl/src/core/lv_obj_style.c ****     return value_act;
 249:lvgl/src/core/lv_obj_style.c **** }
 250:lvgl/src/core/lv_obj_style.c **** 
 251:lvgl/src/core/lv_obj_style.c **** void lv_obj_set_local_style_prop(lv_obj_t * obj, lv_style_prop_t prop, lv_style_value_t value, lv_s
 252:lvgl/src/core/lv_obj_style.c **** {
 253:lvgl/src/core/lv_obj_style.c ****     lv_style_t * style = get_local_style(obj, selector);
 254:lvgl/src/core/lv_obj_style.c ****     lv_style_set_prop(style, prop, value);
 255:lvgl/src/core/lv_obj_style.c ****     lv_obj_refresh_style(obj, selector, prop);
 256:lvgl/src/core/lv_obj_style.c **** }
 257:lvgl/src/core/lv_obj_style.c **** 
 258:lvgl/src/core/lv_obj_style.c **** 
ARM GAS  C:\Users\BLACK_~1\AppData\Local\Temp\ccbv02In.s 			page 6


 259:lvgl/src/core/lv_obj_style.c **** lv_res_t lv_obj_get_local_style_prop(lv_obj_t * obj, lv_style_prop_t prop, lv_style_value_t * value
 260:lvgl/src/core/lv_obj_style.c **** {
 261:lvgl/src/core/lv_obj_style.c ****     uint32_t i;
 262:lvgl/src/core/lv_obj_style.c ****     for(i = 0; i < obj->style_cnt; i++) {
 263:lvgl/src/core/lv_obj_style.c ****         if(obj->styles[i].is_local &&
 264:lvgl/src/core/lv_obj_style.c ****            obj->styles[i].selector ==  selector)
 265:lvgl/src/core/lv_obj_style.c ****         {
 266:lvgl/src/core/lv_obj_style.c ****             return lv_style_get_prop(obj->styles[i].style, prop, value);
 267:lvgl/src/core/lv_obj_style.c ****         }
 268:lvgl/src/core/lv_obj_style.c ****     }
 269:lvgl/src/core/lv_obj_style.c **** 
 270:lvgl/src/core/lv_obj_style.c ****     return LV_RES_INV;
 271:lvgl/src/core/lv_obj_style.c **** }
 272:lvgl/src/core/lv_obj_style.c **** 
 273:lvgl/src/core/lv_obj_style.c **** bool lv_obj_remove_local_style_prop(lv_obj_t * obj, lv_style_prop_t prop, lv_style_selector_t selec
 274:lvgl/src/core/lv_obj_style.c **** {
 275:lvgl/src/core/lv_obj_style.c ****     LV_ASSERT_OBJ(obj, MY_CLASS);
 276:lvgl/src/core/lv_obj_style.c **** 
 277:lvgl/src/core/lv_obj_style.c ****     uint32_t i;
 278:lvgl/src/core/lv_obj_style.c ****     /*Find the style*/
 279:lvgl/src/core/lv_obj_style.c ****     for(i = 0; i < obj->style_cnt; i++) {
 280:lvgl/src/core/lv_obj_style.c ****         if(obj->styles[i].is_local &&
 281:lvgl/src/core/lv_obj_style.c ****            obj->styles[i].selector == selector) {
 282:lvgl/src/core/lv_obj_style.c ****             break;
 283:lvgl/src/core/lv_obj_style.c ****         }
 284:lvgl/src/core/lv_obj_style.c ****     }
 285:lvgl/src/core/lv_obj_style.c **** 
 286:lvgl/src/core/lv_obj_style.c ****     /*The style is not found*/
 287:lvgl/src/core/lv_obj_style.c ****     if(i == obj->style_cnt) return false;
 288:lvgl/src/core/lv_obj_style.c **** 
 289:lvgl/src/core/lv_obj_style.c ****     return lv_style_remove_prop(obj->styles[i].style, prop);
 290:lvgl/src/core/lv_obj_style.c **** }
 291:lvgl/src/core/lv_obj_style.c **** 
 292:lvgl/src/core/lv_obj_style.c **** void _lv_obj_style_create_transition(lv_obj_t * obj, lv_part_t part, lv_state_t prev_state, lv_stat
 293:lvgl/src/core/lv_obj_style.c **** {
 294:lvgl/src/core/lv_obj_style.c ****     trans_t * tr;
 295:lvgl/src/core/lv_obj_style.c **** 
 296:lvgl/src/core/lv_obj_style.c ****     /*Get the previous and current values*/
 297:lvgl/src/core/lv_obj_style.c ****     obj->skip_trans = 1;
 298:lvgl/src/core/lv_obj_style.c ****     obj->state = prev_state;
 299:lvgl/src/core/lv_obj_style.c ****     lv_style_value_t v1 = lv_obj_get_style_prop(obj, part, tr_dsc->prop);
 300:lvgl/src/core/lv_obj_style.c ****     obj->state = new_state;
 301:lvgl/src/core/lv_obj_style.c ****     lv_style_value_t v2 = lv_obj_get_style_prop(obj, part, tr_dsc->prop);
 302:lvgl/src/core/lv_obj_style.c ****     obj->skip_trans = 0;
 303:lvgl/src/core/lv_obj_style.c **** 
 304:lvgl/src/core/lv_obj_style.c ****     if(v1.ptr == v2.ptr && v1.num == v2.num && v1.color.full == v2.color.full)  return;
 305:lvgl/src/core/lv_obj_style.c ****     obj->state = prev_state;
 306:lvgl/src/core/lv_obj_style.c ****     v1 = lv_obj_get_style_prop(obj, part, tr_dsc->prop);
 307:lvgl/src/core/lv_obj_style.c ****     obj->state = new_state;
 308:lvgl/src/core/lv_obj_style.c **** 
 309:lvgl/src/core/lv_obj_style.c ****     _lv_obj_style_t * style_trans = get_trans_style(obj, part);
 310:lvgl/src/core/lv_obj_style.c ****     lv_style_set_prop(style_trans->style, tr_dsc->prop, v1);   /*Be sure `trans_style` has a valid 
 311:lvgl/src/core/lv_obj_style.c **** 
 312:lvgl/src/core/lv_obj_style.c ****     if(tr_dsc->prop == LV_STYLE_RADIUS) {
 313:lvgl/src/core/lv_obj_style.c ****         if(v1.num == LV_RADIUS_CIRCLE || v2.num == LV_RADIUS_CIRCLE) {
 314:lvgl/src/core/lv_obj_style.c ****             lv_coord_t whalf = lv_obj_get_width(obj) / 2;
 315:lvgl/src/core/lv_obj_style.c ****             lv_coord_t hhalf = lv_obj_get_width(obj) / 2;
ARM GAS  C:\Users\BLACK_~1\AppData\Local\Temp\ccbv02In.s 			page 7


 316:lvgl/src/core/lv_obj_style.c ****             if(v1.num == LV_RADIUS_CIRCLE) v1.num = LV_MIN(whalf + 1, hhalf + 1);
 317:lvgl/src/core/lv_obj_style.c ****             if(v2.num == LV_RADIUS_CIRCLE) v2.num = LV_MIN(whalf + 1, hhalf + 1);
 318:lvgl/src/core/lv_obj_style.c ****         }
 319:lvgl/src/core/lv_obj_style.c ****     }
 320:lvgl/src/core/lv_obj_style.c **** 
 321:lvgl/src/core/lv_obj_style.c ****     tr = _lv_ll_ins_head(&LV_GC_ROOT(_lv_obj_style_trans_ll));
 322:lvgl/src/core/lv_obj_style.c ****     LV_ASSERT_MALLOC(tr);
 323:lvgl/src/core/lv_obj_style.c ****     if(tr == NULL) return;
 324:lvgl/src/core/lv_obj_style.c ****     tr->start_value = v1;
 325:lvgl/src/core/lv_obj_style.c ****     tr->end_value = v2;
 326:lvgl/src/core/lv_obj_style.c **** 
 327:lvgl/src/core/lv_obj_style.c ****     if(tr) {
 328:lvgl/src/core/lv_obj_style.c ****         tr->obj = obj;
 329:lvgl/src/core/lv_obj_style.c ****         tr->prop = tr_dsc->prop;
 330:lvgl/src/core/lv_obj_style.c ****         tr->selector = part;
 331:lvgl/src/core/lv_obj_style.c **** 
 332:lvgl/src/core/lv_obj_style.c ****         lv_anim_t a;
 333:lvgl/src/core/lv_obj_style.c ****         lv_anim_init(&a);
 334:lvgl/src/core/lv_obj_style.c ****         lv_anim_set_var(&a, tr);
 335:lvgl/src/core/lv_obj_style.c ****         lv_anim_set_exec_cb(&a, trans_anim_cb);
 336:lvgl/src/core/lv_obj_style.c ****         lv_anim_set_start_cb(&a, trans_anim_start_cb);
 337:lvgl/src/core/lv_obj_style.c ****         lv_anim_set_ready_cb(&a, trans_anim_ready_cb);
 338:lvgl/src/core/lv_obj_style.c ****         lv_anim_set_values(&a, 0x00, 0xFF);
 339:lvgl/src/core/lv_obj_style.c ****         lv_anim_set_time(&a, tr_dsc->time);
 340:lvgl/src/core/lv_obj_style.c ****         lv_anim_set_delay(&a, tr_dsc->delay);
 341:lvgl/src/core/lv_obj_style.c ****         lv_anim_set_path_cb(&a, tr_dsc->path_cb);
 342:lvgl/src/core/lv_obj_style.c ****         lv_anim_set_early_apply(&a, false);
 343:lvgl/src/core/lv_obj_style.c **** #if LV_USE_USER_DATA
 344:lvgl/src/core/lv_obj_style.c ****         a.user_data = tr_dsc->user_data;
 345:lvgl/src/core/lv_obj_style.c **** #endif
 346:lvgl/src/core/lv_obj_style.c ****         lv_anim_start(&a);
 347:lvgl/src/core/lv_obj_style.c ****     }
 348:lvgl/src/core/lv_obj_style.c **** }
 349:lvgl/src/core/lv_obj_style.c **** 
 350:lvgl/src/core/lv_obj_style.c **** _lv_style_state_cmp_t _lv_obj_style_state_compare(lv_obj_t * obj, lv_state_t state1, lv_state_t sta
 351:lvgl/src/core/lv_obj_style.c **** {
 352:lvgl/src/core/lv_obj_style.c ****     _lv_style_state_cmp_t res = _LV_STYLE_STATE_CMP_SAME;
 353:lvgl/src/core/lv_obj_style.c **** 
 354:lvgl/src/core/lv_obj_style.c ****     /*Are there any new styles for the new state?*/
 355:lvgl/src/core/lv_obj_style.c ****     uint32_t i;
 356:lvgl/src/core/lv_obj_style.c ****     for(i = 0; i < obj->style_cnt; i++) {
 357:lvgl/src/core/lv_obj_style.c ****         if(obj->styles[i].is_trans) continue;
 358:lvgl/src/core/lv_obj_style.c **** 
 359:lvgl/src/core/lv_obj_style.c ****         lv_state_t state_act = lv_obj_style_get_selector_state(obj->styles[i].selector);
 360:lvgl/src/core/lv_obj_style.c ****         lv_part_t part_act = lv_obj_style_get_selector_part(obj->styles[i].selector);
 361:lvgl/src/core/lv_obj_style.c ****         /*The style is valid for a stat but not the other*/
 362:lvgl/src/core/lv_obj_style.c ****         bool valid1 = state_act & (~state1) ? false : true;
 363:lvgl/src/core/lv_obj_style.c ****         bool valid2 = state_act & (~state2) ? false : true;
 364:lvgl/src/core/lv_obj_style.c ****         if(valid1 != valid2) {
 365:lvgl/src/core/lv_obj_style.c ****             lv_style_t * style = obj->styles[i].style;
 366:lvgl/src/core/lv_obj_style.c ****             lv_style_value_t v;
 367:lvgl/src/core/lv_obj_style.c ****             /*If there is layout difference on the main part, return immediately. There is no more 
 368:lvgl/src/core/lv_obj_style.c ****             bool layout_diff = false;
 369:lvgl/src/core/lv_obj_style.c ****             if(lv_style_get_prop(style, LV_STYLE_PAD_TOP, &v))layout_diff = true;
 370:lvgl/src/core/lv_obj_style.c ****             else if(lv_style_get_prop(style, LV_STYLE_PAD_BOTTOM, &v)) layout_diff = true;
 371:lvgl/src/core/lv_obj_style.c ****             else if(lv_style_get_prop(style, LV_STYLE_PAD_LEFT, &v)) layout_diff = true;
 372:lvgl/src/core/lv_obj_style.c ****             else if(lv_style_get_prop(style, LV_STYLE_PAD_RIGHT, &v)) layout_diff = true;
ARM GAS  C:\Users\BLACK_~1\AppData\Local\Temp\ccbv02In.s 			page 8


 373:lvgl/src/core/lv_obj_style.c ****             else if(lv_style_get_prop(style, LV_STYLE_PAD_COLUMN, &v)) layout_diff = true;
 374:lvgl/src/core/lv_obj_style.c ****             else if(lv_style_get_prop(style, LV_STYLE_PAD_ROW, &v)) layout_diff = true;
 375:lvgl/src/core/lv_obj_style.c ****             else if(lv_style_get_prop(style, LV_STYLE_LAYOUT, &v)) layout_diff = true;
 376:lvgl/src/core/lv_obj_style.c ****             else if(lv_style_get_prop(style, LV_STYLE_TRANSLATE_X, &v)) layout_diff = true;
 377:lvgl/src/core/lv_obj_style.c ****             else if(lv_style_get_prop(style, LV_STYLE_TRANSLATE_Y, &v)) layout_diff = true;
 378:lvgl/src/core/lv_obj_style.c ****             else if(lv_style_get_prop(style, LV_STYLE_WIDTH, &v)) layout_diff = true;
 379:lvgl/src/core/lv_obj_style.c ****             else if(lv_style_get_prop(style, LV_STYLE_HEIGHT, &v)) layout_diff = true;
 380:lvgl/src/core/lv_obj_style.c ****             else if(lv_style_get_prop(style, LV_STYLE_MIN_WIDTH, &v)) layout_diff = true;
 381:lvgl/src/core/lv_obj_style.c ****             else if(lv_style_get_prop(style, LV_STYLE_MAX_WIDTH, &v)) layout_diff = true;
 382:lvgl/src/core/lv_obj_style.c ****             else if(lv_style_get_prop(style, LV_STYLE_MIN_HEIGHT, &v)) layout_diff = true;
 383:lvgl/src/core/lv_obj_style.c ****             else if(lv_style_get_prop(style, LV_STYLE_MAX_HEIGHT, &v)) layout_diff = true;
 384:lvgl/src/core/lv_obj_style.c ****             else if(lv_style_get_prop(style, LV_STYLE_BORDER_WIDTH, &v)) layout_diff = true;
 385:lvgl/src/core/lv_obj_style.c **** 
 386:lvgl/src/core/lv_obj_style.c ****             if(layout_diff) {
 387:lvgl/src/core/lv_obj_style.c ****                 if(part_act == LV_PART_MAIN) {
 388:lvgl/src/core/lv_obj_style.c ****                     return _LV_STYLE_STATE_CMP_DIFF_LAYOUT;
 389:lvgl/src/core/lv_obj_style.c ****                 }
 390:lvgl/src/core/lv_obj_style.c ****                 else {
 391:lvgl/src/core/lv_obj_style.c ****                     res = _LV_STYLE_STATE_CMP_DIFF_DRAW_PAD;
 392:lvgl/src/core/lv_obj_style.c ****                     continue;
 393:lvgl/src/core/lv_obj_style.c ****                 }
 394:lvgl/src/core/lv_obj_style.c ****             }
 395:lvgl/src/core/lv_obj_style.c **** 
 396:lvgl/src/core/lv_obj_style.c ****             /*Check for draw pad changes*/
 397:lvgl/src/core/lv_obj_style.c ****             if(lv_style_get_prop(style, LV_STYLE_TRANSFORM_WIDTH, &v)) res = _LV_STYLE_STATE_CMP_DI
 398:lvgl/src/core/lv_obj_style.c ****             else if(lv_style_get_prop(style, LV_STYLE_TRANSFORM_HEIGHT, &v)) res = _LV_STYLE_STATE_
 399:lvgl/src/core/lv_obj_style.c ****             else if(lv_style_get_prop(style, LV_STYLE_TRANSFORM_ANGLE, &v)) res = _LV_STYLE_STATE_C
 400:lvgl/src/core/lv_obj_style.c ****             else if(lv_style_get_prop(style, LV_STYLE_TRANSFORM_ZOOM, &v)) res = _LV_STYLE_STATE_CM
 401:lvgl/src/core/lv_obj_style.c ****             else if(lv_style_get_prop(style, LV_STYLE_OUTLINE_OPA, &v)) res = _LV_STYLE_STATE_CMP_D
 402:lvgl/src/core/lv_obj_style.c ****             else if(lv_style_get_prop(style, LV_STYLE_OUTLINE_PAD, &v)) res = _LV_STYLE_STATE_CMP_D
 403:lvgl/src/core/lv_obj_style.c ****             else if(lv_style_get_prop(style, LV_STYLE_OUTLINE_WIDTH, &v)) res = _LV_STYLE_STATE_CMP
 404:lvgl/src/core/lv_obj_style.c ****             else if(lv_style_get_prop(style, LV_STYLE_SHADOW_WIDTH, &v)) res = _LV_STYLE_STATE_CMP_
 405:lvgl/src/core/lv_obj_style.c ****             else if(lv_style_get_prop(style, LV_STYLE_SHADOW_OPA, &v)) res = _LV_STYLE_STATE_CMP_DI
 406:lvgl/src/core/lv_obj_style.c ****             else if(lv_style_get_prop(style, LV_STYLE_SHADOW_OFS_X, &v)) res = _LV_STYLE_STATE_CMP_
 407:lvgl/src/core/lv_obj_style.c ****             else if(lv_style_get_prop(style, LV_STYLE_SHADOW_OFS_Y, &v)) res = _LV_STYLE_STATE_CMP_
 408:lvgl/src/core/lv_obj_style.c ****             else if(lv_style_get_prop(style, LV_STYLE_SHADOW_SPREAD, &v)) res = _LV_STYLE_STATE_CMP
 409:lvgl/src/core/lv_obj_style.c ****             else if(lv_style_get_prop(style, LV_STYLE_LINE_WIDTH, &v)) res = _LV_STYLE_STATE_CMP_DI
 410:lvgl/src/core/lv_obj_style.c ****             else if(res == _LV_STYLE_STATE_CMP_SAME) res = _LV_STYLE_STATE_CMP_DIFF_REDRAW;
 411:lvgl/src/core/lv_obj_style.c ****         }
 412:lvgl/src/core/lv_obj_style.c ****     }
 413:lvgl/src/core/lv_obj_style.c **** 
 414:lvgl/src/core/lv_obj_style.c ****     return res;
 415:lvgl/src/core/lv_obj_style.c **** }
 416:lvgl/src/core/lv_obj_style.c **** 
 417:lvgl/src/core/lv_obj_style.c **** void lv_obj_fade_in(lv_obj_t * obj, uint32_t time, uint32_t delay)
 418:lvgl/src/core/lv_obj_style.c **** {
 419:lvgl/src/core/lv_obj_style.c ****     lv_anim_t a;
 420:lvgl/src/core/lv_obj_style.c ****     lv_anim_init(&a);
 421:lvgl/src/core/lv_obj_style.c ****     lv_anim_set_var(&a, obj);
 422:lvgl/src/core/lv_obj_style.c ****     lv_anim_set_values(&a, LV_OPA_TRANSP, LV_OPA_COVER);
 423:lvgl/src/core/lv_obj_style.c ****     lv_anim_set_exec_cb(&a, fade_anim_cb);
 424:lvgl/src/core/lv_obj_style.c ****     lv_anim_set_ready_cb(&a, fade_in_anim_ready);
 425:lvgl/src/core/lv_obj_style.c ****     lv_anim_set_time(&a, time);
 426:lvgl/src/core/lv_obj_style.c ****     lv_anim_set_delay(&a, delay);
 427:lvgl/src/core/lv_obj_style.c ****     lv_anim_start(&a);
 428:lvgl/src/core/lv_obj_style.c **** }
 429:lvgl/src/core/lv_obj_style.c **** 
ARM GAS  C:\Users\BLACK_~1\AppData\Local\Temp\ccbv02In.s 			page 9


 430:lvgl/src/core/lv_obj_style.c **** void lv_obj_fade_out(lv_obj_t * obj, uint32_t time, uint32_t delay)
 431:lvgl/src/core/lv_obj_style.c **** {
 432:lvgl/src/core/lv_obj_style.c ****     lv_anim_t a;
 433:lvgl/src/core/lv_obj_style.c ****     lv_anim_init(&a);
 434:lvgl/src/core/lv_obj_style.c ****     lv_anim_set_var(&a, obj);
 435:lvgl/src/core/lv_obj_style.c ****     lv_anim_set_values(&a, LV_OPA_COVER, LV_OPA_TRANSP);
 436:lvgl/src/core/lv_obj_style.c ****     lv_anim_set_exec_cb(&a, fade_anim_cb);
 437:lvgl/src/core/lv_obj_style.c ****     lv_anim_set_time(&a, time);
 438:lvgl/src/core/lv_obj_style.c ****     lv_anim_set_delay(&a, delay);
 439:lvgl/src/core/lv_obj_style.c ****     lv_anim_start(&a);
 440:lvgl/src/core/lv_obj_style.c **** }
 441:lvgl/src/core/lv_obj_style.c **** 
 442:lvgl/src/core/lv_obj_style.c **** lv_state_t lv_obj_style_get_selector_state(lv_style_selector_t selector)
 443:lvgl/src/core/lv_obj_style.c **** {
 444:lvgl/src/core/lv_obj_style.c ****     return selector & 0xFFFF;
 445:lvgl/src/core/lv_obj_style.c **** }
 446:lvgl/src/core/lv_obj_style.c **** 
 447:lvgl/src/core/lv_obj_style.c **** lv_part_t lv_obj_style_get_selector_part(lv_style_selector_t selector)
 448:lvgl/src/core/lv_obj_style.c **** {
 449:lvgl/src/core/lv_obj_style.c ****     return selector & 0xFF0000;
 450:lvgl/src/core/lv_obj_style.c **** }
 451:lvgl/src/core/lv_obj_style.c **** 
 452:lvgl/src/core/lv_obj_style.c **** /**********************
 453:lvgl/src/core/lv_obj_style.c ****  *   STATIC FUNCTIONS
 454:lvgl/src/core/lv_obj_style.c ****  **********************/
 455:lvgl/src/core/lv_obj_style.c **** 
 456:lvgl/src/core/lv_obj_style.c **** /**
 457:lvgl/src/core/lv_obj_style.c ****  * Get the local style of an object for a given part and for a given state.
 458:lvgl/src/core/lv_obj_style.c ****  * If the local style for the part-state pair doesn't exist allocate and return it.
 459:lvgl/src/core/lv_obj_style.c ****  * @param obj   pointer to an object
 460:lvgl/src/core/lv_obj_style.c ****  * @param part  the part in whose local style to get
 461:lvgl/src/core/lv_obj_style.c ****  * @param state the state in whose local style to get
 462:lvgl/src/core/lv_obj_style.c ****  * @return pointer to the local style
 463:lvgl/src/core/lv_obj_style.c ****  */
 464:lvgl/src/core/lv_obj_style.c **** static lv_style_t * get_local_style(lv_obj_t * obj,  lv_style_selector_t selector)
 465:lvgl/src/core/lv_obj_style.c **** {
 466:lvgl/src/core/lv_obj_style.c ****     uint32_t i;
 467:lvgl/src/core/lv_obj_style.c ****     for(i = 0; i < obj->style_cnt; i++) {
 468:lvgl/src/core/lv_obj_style.c ****         if(obj->styles[i].is_local &&
 469:lvgl/src/core/lv_obj_style.c ****            obj->styles[i].selector == selector)
 470:lvgl/src/core/lv_obj_style.c ****         {
 471:lvgl/src/core/lv_obj_style.c ****             return obj->styles[i].style;
 472:lvgl/src/core/lv_obj_style.c ****         }
 473:lvgl/src/core/lv_obj_style.c ****     }
 474:lvgl/src/core/lv_obj_style.c **** 
 475:lvgl/src/core/lv_obj_style.c ****     obj->style_cnt++;
 476:lvgl/src/core/lv_obj_style.c ****     obj->styles = lv_mem_realloc(obj->styles, obj->style_cnt * sizeof(_lv_obj_style_t));
 477:lvgl/src/core/lv_obj_style.c ****     LV_ASSERT_MALLOC(obj->styles);
 478:lvgl/src/core/lv_obj_style.c **** 
 479:lvgl/src/core/lv_obj_style.c ****     for(i = obj->style_cnt - 1; i > 0 ; i--) {
 480:lvgl/src/core/lv_obj_style.c ****         /*Copy only normal styles (not local and transition).
 481:lvgl/src/core/lv_obj_style.c ****          *The new local style will be added as the last local style*/
 482:lvgl/src/core/lv_obj_style.c ****         if(obj->styles[i - 1].is_local || obj->styles[i - 1].is_trans) break;
 483:lvgl/src/core/lv_obj_style.c ****         obj->styles[i] = obj->styles[i - 1];
 484:lvgl/src/core/lv_obj_style.c ****     }
 485:lvgl/src/core/lv_obj_style.c **** 
 486:lvgl/src/core/lv_obj_style.c ****     lv_memset_00(&obj->styles[i], sizeof(_lv_obj_style_t));
ARM GAS  C:\Users\BLACK_~1\AppData\Local\Temp\ccbv02In.s 			page 10


 487:lvgl/src/core/lv_obj_style.c ****     obj->styles[i].style = lv_mem_alloc(sizeof(lv_style_t));
 488:lvgl/src/core/lv_obj_style.c ****     lv_style_init(obj->styles[i].style);
 489:lvgl/src/core/lv_obj_style.c ****     obj->styles[i].is_local = 1;
 490:lvgl/src/core/lv_obj_style.c ****     obj->styles[i].selector = selector;
 491:lvgl/src/core/lv_obj_style.c ****     return obj->styles[i].style;
 492:lvgl/src/core/lv_obj_style.c **** }
 493:lvgl/src/core/lv_obj_style.c **** 
 494:lvgl/src/core/lv_obj_style.c **** /**
 495:lvgl/src/core/lv_obj_style.c ****  * Get the transition style of an object for a given part and for a given state.
 496:lvgl/src/core/lv_obj_style.c ****  * If the transition style for the part-state pair doesn't exist allocate and return it.
 497:lvgl/src/core/lv_obj_style.c ****  * @param obj   pointer to an object
 498:lvgl/src/core/lv_obj_style.c ****  * @param part  the part in whose local style to get
 499:lvgl/src/core/lv_obj_style.c ****  * @param state the state in whose local style to get
 500:lvgl/src/core/lv_obj_style.c ****  * @return pointer to the transition style
 501:lvgl/src/core/lv_obj_style.c ****  */
 502:lvgl/src/core/lv_obj_style.c **** static _lv_obj_style_t * get_trans_style(lv_obj_t * obj,  lv_style_selector_t selector)
 503:lvgl/src/core/lv_obj_style.c **** {
 504:lvgl/src/core/lv_obj_style.c ****     uint32_t i;
 505:lvgl/src/core/lv_obj_style.c ****     for(i = 0; i < obj->style_cnt; i++) {
 506:lvgl/src/core/lv_obj_style.c ****         if(obj->styles[i].is_trans && obj->styles[i].selector == selector) break;
 507:lvgl/src/core/lv_obj_style.c ****     }
 508:lvgl/src/core/lv_obj_style.c **** 
 509:lvgl/src/core/lv_obj_style.c ****     /*Already have a transition style for it*/
 510:lvgl/src/core/lv_obj_style.c ****     if(i != obj->style_cnt) return &obj->styles[i];
 511:lvgl/src/core/lv_obj_style.c **** 
 512:lvgl/src/core/lv_obj_style.c ****     obj->style_cnt++;
 513:lvgl/src/core/lv_obj_style.c ****     obj->styles = lv_mem_realloc(obj->styles, obj->style_cnt * sizeof(_lv_obj_style_t));
 514:lvgl/src/core/lv_obj_style.c **** 
 515:lvgl/src/core/lv_obj_style.c ****     for(i = obj->style_cnt - 1; i > 0 ; i--) {
 516:lvgl/src/core/lv_obj_style.c ****         obj->styles[i] = obj->styles[i - 1];
 517:lvgl/src/core/lv_obj_style.c ****     }
 518:lvgl/src/core/lv_obj_style.c **** 
 519:lvgl/src/core/lv_obj_style.c ****     lv_memset_00(&obj->styles[0], sizeof(_lv_obj_style_t));
 520:lvgl/src/core/lv_obj_style.c ****     obj->styles[0].style = lv_mem_alloc(sizeof(lv_style_t));
 521:lvgl/src/core/lv_obj_style.c ****     lv_style_init(obj->styles[0].style);
 522:lvgl/src/core/lv_obj_style.c ****     obj->styles[0].is_trans = 1;
 523:lvgl/src/core/lv_obj_style.c ****     obj->styles[0].selector = selector;
 524:lvgl/src/core/lv_obj_style.c ****     return &obj->styles[0];
 525:lvgl/src/core/lv_obj_style.c **** }
 526:lvgl/src/core/lv_obj_style.c **** 
 527:lvgl/src/core/lv_obj_style.c **** 
 528:lvgl/src/core/lv_obj_style.c **** static bool get_prop_core(const lv_obj_t * obj, lv_part_t part, lv_style_prop_t prop, lv_style_valu
 529:lvgl/src/core/lv_obj_style.c **** {
 530:lvgl/src/core/lv_obj_style.c ****     uint8_t group = 1 << _lv_style_get_prop_group(prop);
 531:lvgl/src/core/lv_obj_style.c ****     int32_t weight = -1;
 532:lvgl/src/core/lv_obj_style.c ****     lv_state_t state = obj->state;
 533:lvgl/src/core/lv_obj_style.c ****     lv_state_t state_inv = ~state;
 534:lvgl/src/core/lv_obj_style.c ****     lv_style_value_t value_tmp;
 535:lvgl/src/core/lv_obj_style.c ****     bool skip_trans = obj->skip_trans;
 536:lvgl/src/core/lv_obj_style.c ****     uint32_t i;
 537:lvgl/src/core/lv_obj_style.c ****     bool found;
 538:lvgl/src/core/lv_obj_style.c ****     for(i = 0; i < obj->style_cnt; i++) {
 539:lvgl/src/core/lv_obj_style.c ****         _lv_obj_style_t * obj_style = &obj->styles[i];
 540:lvgl/src/core/lv_obj_style.c ****         if(obj_style->is_trans == false) break;
 541:lvgl/src/core/lv_obj_style.c ****         if(skip_trans) continue;
 542:lvgl/src/core/lv_obj_style.c **** 
 543:lvgl/src/core/lv_obj_style.c ****         lv_part_t part_act = lv_obj_style_get_selector_part(obj->styles[i].selector);
ARM GAS  C:\Users\BLACK_~1\AppData\Local\Temp\ccbv02In.s 			page 11


 544:lvgl/src/core/lv_obj_style.c **** 
 545:lvgl/src/core/lv_obj_style.c ****         if(part_act != part) continue;
 546:lvgl/src/core/lv_obj_style.c ****         if((obj_style->style->has_group & group) == 0) continue;
 547:lvgl/src/core/lv_obj_style.c ****         found = lv_style_get_prop(obj_style->style, prop, &value_tmp);
 548:lvgl/src/core/lv_obj_style.c ****         if(found) {
 549:lvgl/src/core/lv_obj_style.c ****             *v = value_tmp;
 550:lvgl/src/core/lv_obj_style.c ****             return true;
 551:lvgl/src/core/lv_obj_style.c ****         }
 552:lvgl/src/core/lv_obj_style.c ****     }
 553:lvgl/src/core/lv_obj_style.c **** 
 554:lvgl/src/core/lv_obj_style.c ****     for(; i < obj->style_cnt; i++) {
 555:lvgl/src/core/lv_obj_style.c ****         _lv_obj_style_t * obj_style = &obj->styles[i];
 556:lvgl/src/core/lv_obj_style.c ****         lv_part_t part_act = lv_obj_style_get_selector_part(obj->styles[i].selector);
 557:lvgl/src/core/lv_obj_style.c ****         lv_state_t state_act = lv_obj_style_get_selector_state(obj->styles[i].selector);
 558:lvgl/src/core/lv_obj_style.c ****         if(part_act != part) continue;
 559:lvgl/src/core/lv_obj_style.c **** 
 560:lvgl/src/core/lv_obj_style.c ****         if((obj_style->style->has_group & group) == 0) continue;
 561:lvgl/src/core/lv_obj_style.c **** 
 562:lvgl/src/core/lv_obj_style.c ****         /*Be sure the style not specifies other state than the requested.
 563:lvgl/src/core/lv_obj_style.c ****          *E.g. For HOVER+PRESS object state, HOVER style only is OK, but HOVER+FOCUS style is not*/
 564:lvgl/src/core/lv_obj_style.c ****         if((state_act & state_inv)) continue;
 565:lvgl/src/core/lv_obj_style.c **** 
 566:lvgl/src/core/lv_obj_style.c ****         /*Check only better candidates*/
 567:lvgl/src/core/lv_obj_style.c ****         if(state_act <= weight) continue;
 568:lvgl/src/core/lv_obj_style.c **** 
 569:lvgl/src/core/lv_obj_style.c ****         found = lv_style_get_prop(obj_style->style, prop, &value_tmp);
 570:lvgl/src/core/lv_obj_style.c **** 
 571:lvgl/src/core/lv_obj_style.c ****         if(found) {
 572:lvgl/src/core/lv_obj_style.c ****             if(state_act == state) {
 573:lvgl/src/core/lv_obj_style.c ****                 *v = value_tmp;
 574:lvgl/src/core/lv_obj_style.c ****                 return true;
 575:lvgl/src/core/lv_obj_style.c ****             }
 576:lvgl/src/core/lv_obj_style.c ****             if(weight < state_act) {
 577:lvgl/src/core/lv_obj_style.c ****                 weight = state_act;
 578:lvgl/src/core/lv_obj_style.c ****                 *v = value_tmp;
 579:lvgl/src/core/lv_obj_style.c ****             }
 580:lvgl/src/core/lv_obj_style.c ****         }
 581:lvgl/src/core/lv_obj_style.c ****     }
 582:lvgl/src/core/lv_obj_style.c **** 
 583:lvgl/src/core/lv_obj_style.c ****     if(weight >= 0) {
 584:lvgl/src/core/lv_obj_style.c ****         *v = value_tmp;
 585:lvgl/src/core/lv_obj_style.c ****         return true;
 586:lvgl/src/core/lv_obj_style.c ****     }
 587:lvgl/src/core/lv_obj_style.c ****     else return false;
 588:lvgl/src/core/lv_obj_style.c **** }
 589:lvgl/src/core/lv_obj_style.c **** 
 590:lvgl/src/core/lv_obj_style.c **** static lv_style_value_t apply_color_filter(const lv_obj_t * obj, uint32_t part, lv_style_value_t v)
 591:lvgl/src/core/lv_obj_style.c **** {
 592:lvgl/src/core/lv_obj_style.c ****     if(obj == NULL) return v;
 593:lvgl/src/core/lv_obj_style.c ****     const lv_color_filter_dsc_t * f = lv_obj_get_style_color_filter_dsc(obj, part);
 594:lvgl/src/core/lv_obj_style.c ****     if(f && f->filter_cb) {
 595:lvgl/src/core/lv_obj_style.c ****         lv_opa_t f_opa = lv_obj_get_style_color_filter_opa(obj, part);
 596:lvgl/src/core/lv_obj_style.c ****         if(f_opa != 0) v.color = f->filter_cb(f, v.color, f_opa);
 597:lvgl/src/core/lv_obj_style.c ****     }
 598:lvgl/src/core/lv_obj_style.c ****     return v;
 599:lvgl/src/core/lv_obj_style.c **** }
 600:lvgl/src/core/lv_obj_style.c **** 
ARM GAS  C:\Users\BLACK_~1\AppData\Local\Temp\ccbv02In.s 			page 12


 601:lvgl/src/core/lv_obj_style.c **** /**
 602:lvgl/src/core/lv_obj_style.c ****  * Refresh the style of all children of an object. (Called recursively)
 603:lvgl/src/core/lv_obj_style.c ****  * @param style refresh objects only with this
 604:lvgl/src/core/lv_obj_style.c ****  * @param obj pointer to an object
 605:lvgl/src/core/lv_obj_style.c ****  */
 606:lvgl/src/core/lv_obj_style.c **** static void report_style_change_core(void * style, lv_obj_t * obj)
 607:lvgl/src/core/lv_obj_style.c **** {
 608:lvgl/src/core/lv_obj_style.c ****     uint32_t i;
 609:lvgl/src/core/lv_obj_style.c ****     for(i = 0; i < obj->style_cnt; i++) {
 610:lvgl/src/core/lv_obj_style.c ****         if(style == NULL || obj->styles[i].style == style) {
 611:lvgl/src/core/lv_obj_style.c ****             lv_obj_refresh_style(obj, LV_PART_ANY, LV_STYLE_PROP_ANY);
 612:lvgl/src/core/lv_obj_style.c ****             break;
 613:lvgl/src/core/lv_obj_style.c ****         }
 614:lvgl/src/core/lv_obj_style.c ****     }
 615:lvgl/src/core/lv_obj_style.c **** 
 616:lvgl/src/core/lv_obj_style.c ****     for(i = 0; i < lv_obj_get_child_cnt(obj); i++) {
 617:lvgl/src/core/lv_obj_style.c ****         report_style_change_core(style, lv_obj_get_child(obj, i));
 618:lvgl/src/core/lv_obj_style.c ****     }
 619:lvgl/src/core/lv_obj_style.c **** }
 620:lvgl/src/core/lv_obj_style.c **** 
 621:lvgl/src/core/lv_obj_style.c **** /**
 622:lvgl/src/core/lv_obj_style.c ****  * Recursively refresh the style of the children. Go deeper until a not NULL style is found
 623:lvgl/src/core/lv_obj_style.c ****  * because the NULL styles are inherited from the parent
 624:lvgl/src/core/lv_obj_style.c ****  * @param obj pointer to an object
 625:lvgl/src/core/lv_obj_style.c ****  */
 626:lvgl/src/core/lv_obj_style.c **** static void refresh_children_style(lv_obj_t * obj)
 627:lvgl/src/core/lv_obj_style.c **** {
 628:lvgl/src/core/lv_obj_style.c ****     uint32_t i;
 629:lvgl/src/core/lv_obj_style.c ****     for(i = 0; i < lv_obj_get_child_cnt(obj); i++) {
 630:lvgl/src/core/lv_obj_style.c ****         lv_obj_t * child = lv_obj_get_child(obj, i);
 631:lvgl/src/core/lv_obj_style.c ****         lv_obj_invalidate(child);
 632:lvgl/src/core/lv_obj_style.c ****         lv_event_send(child, LV_EVENT_STYLE_CHANGED, NULL);
 633:lvgl/src/core/lv_obj_style.c ****         lv_obj_invalidate(child);
 634:lvgl/src/core/lv_obj_style.c **** 
 635:lvgl/src/core/lv_obj_style.c ****         refresh_children_style(child); /*Check children too*/
 636:lvgl/src/core/lv_obj_style.c ****     }
 637:lvgl/src/core/lv_obj_style.c **** }
 638:lvgl/src/core/lv_obj_style.c **** 
 639:lvgl/src/core/lv_obj_style.c **** /**
 640:lvgl/src/core/lv_obj_style.c ****  * Remove the transition from object's part's property.
 641:lvgl/src/core/lv_obj_style.c ****  * - Remove the transition from `_lv_obj_style_trans_ll` and free it
 642:lvgl/src/core/lv_obj_style.c ****  * - Delete pending transitions
 643:lvgl/src/core/lv_obj_style.c ****  * @param obj pointer to an object which transition(s) should be removed
 644:lvgl/src/core/lv_obj_style.c ****  * @param part a part of object or 0xFF to remove from all parts
 645:lvgl/src/core/lv_obj_style.c ****  * @param prop a property or 0xFF to remove all properties
 646:lvgl/src/core/lv_obj_style.c ****  * @param tr_limit delete transitions only "older" than this. `NULL` if not used
 647:lvgl/src/core/lv_obj_style.c ****  */
 648:lvgl/src/core/lv_obj_style.c **** static bool trans_del(lv_obj_t * obj, lv_part_t part, lv_style_prop_t prop, trans_t * tr_limit)
 649:lvgl/src/core/lv_obj_style.c **** {
  29              		.loc 1 649 1 view -0
  30              		.cfi_startproc
  31              		@ args = 0, pretend = 0, frame = 0
  32              		@ frame_needed = 0, uses_anonymous_args = 0
  33              		.loc 1 649 1 is_stmt 0 view .LVU1
  34 0000 2DE9F84F 		push	{r3, r4, r5, r6, r7, r8, r9, r10, fp, lr}
  35              	.LCFI0:
  36              		.cfi_def_cfa_offset 40
ARM GAS  C:\Users\BLACK_~1\AppData\Local\Temp\ccbv02In.s 			page 13


  37              		.cfi_offset 3, -40
  38              		.cfi_offset 4, -36
  39              		.cfi_offset 5, -32
  40              		.cfi_offset 6, -28
  41              		.cfi_offset 7, -24
  42              		.cfi_offset 8, -20
  43              		.cfi_offset 9, -16
  44              		.cfi_offset 10, -12
  45              		.cfi_offset 11, -8
  46              		.cfi_offset 14, -4
  47 0004 0646     		mov	r6, r0
  48 0006 8946     		mov	r9, r1
  49 0008 9246     		mov	r10, r2
  50 000a 9846     		mov	r8, r3
 650:lvgl/src/core/lv_obj_style.c ****     trans_t * tr;
  51              		.loc 1 650 5 is_stmt 1 view .LVU2
 651:lvgl/src/core/lv_obj_style.c ****     trans_t * tr_prev;
  52              		.loc 1 651 5 view .LVU3
 652:lvgl/src/core/lv_obj_style.c ****     bool removed = false;
  53              		.loc 1 652 5 view .LVU4
  54              	.LVL1:
 653:lvgl/src/core/lv_obj_style.c ****     tr = _lv_ll_get_tail(&LV_GC_ROOT(_lv_obj_style_trans_ll));
  55              		.loc 1 653 5 view .LVU5
  56              		.loc 1 653 10 is_stmt 0 view .LVU6
  57 000c 2848     		ldr	r0, .L16
  58              	.LVL2:
  59              		.loc 1 653 10 view .LVU7
  60 000e FFF7FEFF 		bl	_lv_ll_get_tail
  61              	.LVL3:
  62              		.loc 1 653 10 view .LVU8
  63 0012 0446     		mov	r4, r0
  64              	.LVL4:
 654:lvgl/src/core/lv_obj_style.c ****     while(tr != NULL) {
  65              		.loc 1 654 5 is_stmt 1 view .LVU9
 652:lvgl/src/core/lv_obj_style.c ****     bool removed = false;
  66              		.loc 1 652 10 is_stmt 0 view .LVU10
  67 0014 4FF0000B 		mov	fp, #0
  68              		.loc 1 654 10 view .LVU11
  69 0018 07E0     		b	.L2
  70              	.LVL5:
  71              	.L5:
 655:lvgl/src/core/lv_obj_style.c ****         if(tr == tr_limit) break;
 656:lvgl/src/core/lv_obj_style.c **** 
 657:lvgl/src/core/lv_obj_style.c ****         /*'tr' might be deleted, so get the next object while 'tr' is valid*/
 658:lvgl/src/core/lv_obj_style.c ****         tr_prev = _lv_ll_get_prev(&LV_GC_ROOT(_lv_obj_style_trans_ll), tr);
 659:lvgl/src/core/lv_obj_style.c **** 
 660:lvgl/src/core/lv_obj_style.c ****         if(tr->obj == obj && (part == tr->selector || part == LV_PART_ANY) && (prop == tr->prop || 
  72              		.loc 1 660 90 discriminator 4 view .LVU12
  73 001a A388     		ldrh	r3, [r4, #4]
  74              		.loc 1 660 76 discriminator 4 view .LVU13
  75 001c 5345     		cmp	r3, r10
  76 001e 3FD0     		beq	.L12
  77              		.loc 1 660 97 discriminator 5 view .LVU14
  78 0020 4FF6FF73 		movw	r3, #65535
  79 0024 9A45     		cmp	r10, r3
  80 0026 3DD0     		beq	.L15
  81              	.LVL6:
ARM GAS  C:\Users\BLACK_~1\AppData\Local\Temp\ccbv02In.s 			page 14


  82              	.L4:
  83              		.loc 1 660 97 discriminator 5 view .LVU15
  84 0028 2C46     		mov	r4, r5
  85              	.LVL7:
  86              	.L2:
 654:lvgl/src/core/lv_obj_style.c ****     while(tr != NULL) {
  87              		.loc 1 654 10 is_stmt 1 view .LVU16
  88 002a 002C     		cmp	r4, #0
  89 002c 3CD0     		beq	.L3
 655:lvgl/src/core/lv_obj_style.c ****         if(tr == tr_limit) break;
  90              		.loc 1 655 9 view .LVU17
 655:lvgl/src/core/lv_obj_style.c ****         if(tr == tr_limit) break;
  91              		.loc 1 655 11 is_stmt 0 view .LVU18
  92 002e 4445     		cmp	r4, r8
  93 0030 3AD0     		beq	.L3
 658:lvgl/src/core/lv_obj_style.c **** 
  94              		.loc 1 658 9 is_stmt 1 view .LVU19
 658:lvgl/src/core/lv_obj_style.c **** 
  95              		.loc 1 658 19 is_stmt 0 view .LVU20
  96 0032 2146     		mov	r1, r4
  97 0034 1E48     		ldr	r0, .L16
  98 0036 FFF7FEFF 		bl	_lv_ll_get_prev
  99              	.LVL8:
 100 003a 0546     		mov	r5, r0
 101              	.LVL9:
 102              		.loc 1 660 9 is_stmt 1 view .LVU21
 103              		.loc 1 660 14 is_stmt 0 view .LVU22
 104 003c 2368     		ldr	r3, [r4]
 105              		.loc 1 660 11 view .LVU23
 106 003e B342     		cmp	r3, r6
 107 0040 F2D1     		bne	.L4
 108              		.loc 1 660 41 discriminator 1 view .LVU24
 109 0042 A368     		ldr	r3, [r4, #8]
 110              		.loc 1 660 27 discriminator 1 view .LVU25
 111 0044 4B45     		cmp	r3, r9
 112 0046 E8D0     		beq	.L5
 113              		.loc 1 660 52 discriminator 3 view .LVU26
 114 0048 B9F5702F 		cmp	r9, #983040
 115 004c ECD1     		bne	.L4
 116 004e E4E7     		b	.L5
 117              	.LVL10:
 118              	.L8:
 119              	.LBB49:
 661:lvgl/src/core/lv_obj_style.c ****             /*Remove the transitioned property from trans. style
 662:lvgl/src/core/lv_obj_style.c ****              *to allow changing it by normal styles*/
 663:lvgl/src/core/lv_obj_style.c ****             uint32_t i;
 664:lvgl/src/core/lv_obj_style.c ****             for(i = 0; i < obj->style_cnt; i++) {
 665:lvgl/src/core/lv_obj_style.c ****                 if(obj->styles[i].is_trans && (part == LV_PART_ANY || obj->styles[i].selector == pa
 666:lvgl/src/core/lv_obj_style.c ****                     lv_style_remove_prop(obj->styles[i].style, tr->prop);
 120              		.loc 1 666 21 is_stmt 1 view .LVU27
 121 0050 A188     		ldrh	r1, [r4, #4]
 122 0052 1058     		ldr	r0, [r2, r0]
 123 0054 FFF7FEFF 		bl	lv_style_remove_prop
 124              	.LVL11:
 667:lvgl/src/core/lv_obj_style.c ****                     lv_anim_del(tr, NULL);
 125              		.loc 1 667 21 view .LVU28
 126 0058 0021     		movs	r1, #0
ARM GAS  C:\Users\BLACK_~1\AppData\Local\Temp\ccbv02In.s 			page 15


 127 005a 2046     		mov	r0, r4
 128 005c FFF7FEFF 		bl	lv_anim_del
 129              	.LVL12:
 668:lvgl/src/core/lv_obj_style.c ****                     _lv_ll_remove(&LV_GC_ROOT(_lv_obj_style_trans_ll), tr);
 130              		.loc 1 668 21 view .LVU29
 131 0060 2146     		mov	r1, r4
 132 0062 1348     		ldr	r0, .L16
 133 0064 FFF7FEFF 		bl	_lv_ll_remove
 134              	.LVL13:
 669:lvgl/src/core/lv_obj_style.c ****                     lv_mem_free(tr);
 135              		.loc 1 669 21 view .LVU30
 136 0068 2046     		mov	r0, r4
 137 006a FFF7FEFF 		bl	lv_mem_free
 138              	.LVL14:
 670:lvgl/src/core/lv_obj_style.c ****                     removed = true;
 139              		.loc 1 670 21 view .LVU31
 140              		.loc 1 670 29 is_stmt 0 view .LVU32
 141 006e 4FF0010B 		mov	fp, #1
 142              	.LVL15:
 143              	.L7:
 664:lvgl/src/core/lv_obj_style.c ****                 if(obj->styles[i].is_trans && (part == LV_PART_ANY || obj->styles[i].selector == pa
 144              		.loc 1 664 44 is_stmt 1 discriminator 2 view .LVU33
 664:lvgl/src/core/lv_obj_style.c ****                 if(obj->styles[i].is_trans && (part == LV_PART_ANY || obj->styles[i].selector == pa
 145              		.loc 1 664 45 is_stmt 0 discriminator 2 view .LVU34
 146 0072 0137     		adds	r7, r7, #1
 147              	.LVL16:
 148              	.L9:
 664:lvgl/src/core/lv_obj_style.c ****                 if(obj->styles[i].is_trans && (part == LV_PART_ANY || obj->styles[i].selector == pa
 149              		.loc 1 664 24 is_stmt 1 discriminator 1 view .LVU35
 664:lvgl/src/core/lv_obj_style.c ****                 if(obj->styles[i].is_trans && (part == LV_PART_ANY || obj->styles[i].selector == pa
 150              		.loc 1 664 31 is_stmt 0 discriminator 1 view .LVU36
 151 0074 738C     		ldrh	r3, [r6, #34]
 152 0076 C3F3C503 		ubfx	r3, r3, #3, #6
 664:lvgl/src/core/lv_obj_style.c ****                 if(obj->styles[i].is_trans && (part == LV_PART_ANY || obj->styles[i].selector == pa
 153              		.loc 1 664 13 discriminator 1 view .LVU37
 154 007a BB42     		cmp	r3, r7
 155 007c D4D9     		bls	.L4
 665:lvgl/src/core/lv_obj_style.c ****                     lv_style_remove_prop(obj->styles[i].style, tr->prop);
 156              		.loc 1 665 17 is_stmt 1 view .LVU38
 665:lvgl/src/core/lv_obj_style.c ****                     lv_style_remove_prop(obj->styles[i].style, tr->prop);
 157              		.loc 1 665 23 is_stmt 0 view .LVU39
 158 007e F268     		ldr	r2, [r6, #12]
 665:lvgl/src/core/lv_obj_style.c ****                     lv_style_remove_prop(obj->styles[i].style, tr->prop);
 159              		.loc 1 665 31 view .LVU40
 160 0080 F800     		lsls	r0, r7, #3
 161 0082 02EBC703 		add	r3, r2, r7, lsl #3
 665:lvgl/src/core/lv_obj_style.c ****                     lv_style_remove_prop(obj->styles[i].style, tr->prop);
 162              		.loc 1 665 20 view .LVU41
 163 0086 D979     		ldrb	r1, [r3, #7]	@ zero_extendqisi2
 665:lvgl/src/core/lv_obj_style.c ****                     lv_style_remove_prop(obj->styles[i].style, tr->prop);
 164              		.loc 1 665 19 view .LVU42
 165 0088 11F0020F 		tst	r1, #2
 166 008c F1D0     		beq	.L7
 665:lvgl/src/core/lv_obj_style.c ****                     lv_style_remove_prop(obj->styles[i].style, tr->prop);
 167              		.loc 1 665 44 discriminator 1 view .LVU43
 168 008e B9F5702F 		cmp	r9, #983040
 169 0092 DDD0     		beq	.L8
ARM GAS  C:\Users\BLACK_~1\AppData\Local\Temp\ccbv02In.s 			page 16


 665:lvgl/src/core/lv_obj_style.c ****                     lv_style_remove_prop(obj->styles[i].style, tr->prop);
 170              		.loc 1 665 85 discriminator 2 view .LVU44
 171 0094 5B68     		ldr	r3, [r3, #4]
 172 0096 C3F31703 		ubfx	r3, r3, #0, #24
 665:lvgl/src/core/lv_obj_style.c ****                     lv_style_remove_prop(obj->styles[i].style, tr->prop);
 173              		.loc 1 665 68 discriminator 2 view .LVU45
 174 009a 4B45     		cmp	r3, r9
 175 009c E9D1     		bne	.L7
 176 009e D7E7     		b	.L8
 177              	.LVL17:
 178              	.L12:
 665:lvgl/src/core/lv_obj_style.c ****                     lv_style_remove_prop(obj->styles[i].style, tr->prop);
 179              		.loc 1 665 68 discriminator 2 view .LVU46
 180              	.LBE49:
 181 00a0 0027     		movs	r7, #0
 182 00a2 E7E7     		b	.L9
 183              	.L15:
 184 00a4 0027     		movs	r7, #0
 185 00a6 E5E7     		b	.L9
 186              	.LVL18:
 187              	.L3:
 671:lvgl/src/core/lv_obj_style.c ****                 }
 672:lvgl/src/core/lv_obj_style.c ****             }
 673:lvgl/src/core/lv_obj_style.c **** 
 674:lvgl/src/core/lv_obj_style.c ****         }
 675:lvgl/src/core/lv_obj_style.c ****         tr = tr_prev;
 676:lvgl/src/core/lv_obj_style.c ****     }
 677:lvgl/src/core/lv_obj_style.c ****     return removed;
 188              		.loc 1 677 5 is_stmt 1 view .LVU47
 678:lvgl/src/core/lv_obj_style.c **** }
 189              		.loc 1 678 1 is_stmt 0 view .LVU48
 190 00a8 5846     		mov	r0, fp
 191 00aa BDE8F88F 		pop	{r3, r4, r5, r6, r7, r8, r9, r10, fp, pc}
 192              	.LVL19:
 193              	.L17:
 194              		.loc 1 678 1 view .LVU49
 195 00ae 00BF     		.align	2
 196              	.L16:
 197 00b0 00000000 		.word	_lv_obj_style_trans_ll
 198              		.cfi_endproc
 199              	.LFE175:
 201              		.section	.text.refresh_children_style,"ax",%progbits
 202              		.align	1
 203              		.syntax unified
 204              		.thumb
 205              		.thumb_func
 207              	refresh_children_style:
 208              	.LVL20:
 209              	.LFB174:
 627:lvgl/src/core/lv_obj_style.c ****     uint32_t i;
 210              		.loc 1 627 1 is_stmt 1 view -0
 211              		.cfi_startproc
 212              		@ args = 0, pretend = 0, frame = 0
 213              		@ frame_needed = 0, uses_anonymous_args = 0
 627:lvgl/src/core/lv_obj_style.c ****     uint32_t i;
 214              		.loc 1 627 1 is_stmt 0 view .LVU51
 215 0000 70B5     		push	{r4, r5, r6, lr}
ARM GAS  C:\Users\BLACK_~1\AppData\Local\Temp\ccbv02In.s 			page 17


 216              	.LCFI1:
 217              		.cfi_def_cfa_offset 16
 218              		.cfi_offset 4, -16
 219              		.cfi_offset 5, -12
 220              		.cfi_offset 6, -8
 221              		.cfi_offset 14, -4
 222 0002 0646     		mov	r6, r0
 628:lvgl/src/core/lv_obj_style.c ****     for(i = 0; i < lv_obj_get_child_cnt(obj); i++) {
 223              		.loc 1 628 5 is_stmt 1 view .LVU52
 629:lvgl/src/core/lv_obj_style.c ****         lv_obj_t * child = lv_obj_get_child(obj, i);
 224              		.loc 1 629 5 view .LVU53
 225              	.LVL21:
 629:lvgl/src/core/lv_obj_style.c ****         lv_obj_t * child = lv_obj_get_child(obj, i);
 226              		.loc 1 629 11 is_stmt 0 view .LVU54
 227 0004 0025     		movs	r5, #0
 629:lvgl/src/core/lv_obj_style.c ****         lv_obj_t * child = lv_obj_get_child(obj, i);
 228              		.loc 1 629 5 view .LVU55
 229 0006 12E0     		b	.L19
 230              	.LVL22:
 231              	.L20:
 232              	.LBB50:
 630:lvgl/src/core/lv_obj_style.c ****         lv_obj_invalidate(child);
 233              		.loc 1 630 9 is_stmt 1 discriminator 3 view .LVU56
 630:lvgl/src/core/lv_obj_style.c ****         lv_obj_invalidate(child);
 234              		.loc 1 630 28 is_stmt 0 discriminator 3 view .LVU57
 235 0008 2946     		mov	r1, r5
 236 000a 3046     		mov	r0, r6
 237 000c FFF7FEFF 		bl	lv_obj_get_child
 238              	.LVL23:
 239 0010 0446     		mov	r4, r0
 240              	.LVL24:
 631:lvgl/src/core/lv_obj_style.c ****         lv_event_send(child, LV_EVENT_STYLE_CHANGED, NULL);
 241              		.loc 1 631 9 is_stmt 1 discriminator 3 view .LVU58
 242 0012 FFF7FEFF 		bl	lv_obj_invalidate
 243              	.LVL25:
 632:lvgl/src/core/lv_obj_style.c ****         lv_obj_invalidate(child);
 244              		.loc 1 632 9 discriminator 3 view .LVU59
 245 0016 0022     		movs	r2, #0
 246 0018 2421     		movs	r1, #36
 247 001a 2046     		mov	r0, r4
 248 001c FFF7FEFF 		bl	lv_event_send
 249              	.LVL26:
 633:lvgl/src/core/lv_obj_style.c **** 
 250              		.loc 1 633 9 discriminator 3 view .LVU60
 251 0020 2046     		mov	r0, r4
 252 0022 FFF7FEFF 		bl	lv_obj_invalidate
 253              	.LVL27:
 635:lvgl/src/core/lv_obj_style.c ****     }
 254              		.loc 1 635 9 discriminator 3 view .LVU61
 255 0026 2046     		mov	r0, r4
 256 0028 FFF7EAFF 		bl	refresh_children_style
 257              	.LVL28:
 258              	.LBE50:
 629:lvgl/src/core/lv_obj_style.c ****         lv_obj_t * child = lv_obj_get_child(obj, i);
 259              		.loc 1 629 47 discriminator 3 view .LVU62
 629:lvgl/src/core/lv_obj_style.c ****         lv_obj_t * child = lv_obj_get_child(obj, i);
 260              		.loc 1 629 48 is_stmt 0 discriminator 3 view .LVU63
ARM GAS  C:\Users\BLACK_~1\AppData\Local\Temp\ccbv02In.s 			page 18


 261 002c 0135     		adds	r5, r5, #1
 262              	.LVL29:
 263              	.L19:
 629:lvgl/src/core/lv_obj_style.c ****         lv_obj_t * child = lv_obj_get_child(obj, i);
 264              		.loc 1 629 16 is_stmt 1 discriminator 1 view .LVU64
 629:lvgl/src/core/lv_obj_style.c ****         lv_obj_t * child = lv_obj_get_child(obj, i);
 265              		.loc 1 629 20 is_stmt 0 discriminator 1 view .LVU65
 266 002e 3046     		mov	r0, r6
 267 0030 FFF7FEFF 		bl	lv_obj_get_child_cnt
 268              	.LVL30:
 629:lvgl/src/core/lv_obj_style.c ****         lv_obj_t * child = lv_obj_get_child(obj, i);
 269              		.loc 1 629 5 discriminator 1 view .LVU66
 270 0034 A842     		cmp	r0, r5
 271 0036 E7D8     		bhi	.L20
 637:lvgl/src/core/lv_obj_style.c **** 
 272              		.loc 1 637 1 view .LVU67
 273 0038 70BD     		pop	{r4, r5, r6, pc}
 637:lvgl/src/core/lv_obj_style.c **** 
 274              		.loc 1 637 1 view .LVU68
 275              		.cfi_endproc
 276              	.LFE174:
 278              		.section	.text.get_local_style,"ax",%progbits
 279              		.align	1
 280              		.syntax unified
 281              		.thumb
 282              		.thumb_func
 284              	get_local_style:
 285              	.LVL31:
 286              	.LFB169:
 465:lvgl/src/core/lv_obj_style.c ****     uint32_t i;
 287              		.loc 1 465 1 is_stmt 1 view -0
 288              		.cfi_startproc
 289              		@ args = 0, pretend = 0, frame = 0
 290              		@ frame_needed = 0, uses_anonymous_args = 0
 465:lvgl/src/core/lv_obj_style.c ****     uint32_t i;
 291              		.loc 1 465 1 is_stmt 0 view .LVU70
 292 0000 2DE9F041 		push	{r4, r5, r6, r7, r8, lr}
 293              	.LCFI2:
 294              		.cfi_def_cfa_offset 24
 295              		.cfi_offset 4, -24
 296              		.cfi_offset 5, -20
 297              		.cfi_offset 6, -16
 298              		.cfi_offset 7, -12
 299              		.cfi_offset 8, -8
 300              		.cfi_offset 14, -4
 301 0004 0446     		mov	r4, r0
 302 0006 0D46     		mov	r5, r1
 466:lvgl/src/core/lv_obj_style.c ****     for(i = 0; i < obj->style_cnt; i++) {
 303              		.loc 1 466 5 is_stmt 1 view .LVU71
 467:lvgl/src/core/lv_obj_style.c ****         if(obj->styles[i].is_local &&
 304              		.loc 1 467 5 view .LVU72
 305              	.LVL32:
 467:lvgl/src/core/lv_obj_style.c ****         if(obj->styles[i].is_local &&
 306              		.loc 1 467 11 is_stmt 0 view .LVU73
 307 0008 0022     		movs	r2, #0
 467:lvgl/src/core/lv_obj_style.c ****         if(obj->styles[i].is_local &&
 308              		.loc 1 467 5 view .LVU74
ARM GAS  C:\Users\BLACK_~1\AppData\Local\Temp\ccbv02In.s 			page 19


 309 000a 00E0     		b	.L23
 310              	.LVL33:
 311              	.L24:
 467:lvgl/src/core/lv_obj_style.c ****         if(obj->styles[i].is_local &&
 312              		.loc 1 467 36 is_stmt 1 discriminator 2 view .LVU75
 467:lvgl/src/core/lv_obj_style.c ****         if(obj->styles[i].is_local &&
 313              		.loc 1 467 37 is_stmt 0 discriminator 2 view .LVU76
 314 000c 0132     		adds	r2, r2, #1
 315              	.LVL34:
 316              	.L23:
 467:lvgl/src/core/lv_obj_style.c ****         if(obj->styles[i].is_local &&
 317              		.loc 1 467 16 is_stmt 1 discriminator 1 view .LVU77
 467:lvgl/src/core/lv_obj_style.c ****         if(obj->styles[i].is_local &&
 318              		.loc 1 467 23 is_stmt 0 discriminator 1 view .LVU78
 319 000e 638C     		ldrh	r3, [r4, #34]
 320 0010 C3F3C503 		ubfx	r3, r3, #3, #6
 467:lvgl/src/core/lv_obj_style.c ****         if(obj->styles[i].is_local &&
 321              		.loc 1 467 5 discriminator 1 view .LVU79
 322 0014 9342     		cmp	r3, r2
 323 0016 0DD9     		bls	.L33
 468:lvgl/src/core/lv_obj_style.c ****            obj->styles[i].selector == selector)
 324              		.loc 1 468 9 is_stmt 1 view .LVU80
 468:lvgl/src/core/lv_obj_style.c ****            obj->styles[i].selector == selector)
 325              		.loc 1 468 15 is_stmt 0 view .LVU81
 326 0018 E368     		ldr	r3, [r4, #12]
 468:lvgl/src/core/lv_obj_style.c ****            obj->styles[i].selector == selector)
 327              		.loc 1 468 23 view .LVU82
 328 001a 03EBC203 		add	r3, r3, r2, lsl #3
 468:lvgl/src/core/lv_obj_style.c ****            obj->styles[i].selector == selector)
 329              		.loc 1 468 12 view .LVU83
 330 001e D979     		ldrb	r1, [r3, #7]	@ zero_extendqisi2
 468:lvgl/src/core/lv_obj_style.c ****            obj->styles[i].selector == selector)
 331              		.loc 1 468 11 view .LVU84
 332 0020 11F0010F 		tst	r1, #1
 333 0024 F2D0     		beq	.L24
 469:lvgl/src/core/lv_obj_style.c ****         {
 334              		.loc 1 469 26 discriminator 1 view .LVU85
 335 0026 5968     		ldr	r1, [r3, #4]
 336 0028 C1F31701 		ubfx	r1, r1, #0, #24
 468:lvgl/src/core/lv_obj_style.c ****            obj->styles[i].selector == selector)
 337              		.loc 1 468 36 discriminator 1 view .LVU86
 338 002c A942     		cmp	r1, r5
 339 002e EDD1     		bne	.L24
 471:lvgl/src/core/lv_obj_style.c ****         }
 340              		.loc 1 471 13 is_stmt 1 view .LVU87
 471:lvgl/src/core/lv_obj_style.c ****         }
 341              		.loc 1 471 34 is_stmt 0 view .LVU88
 342 0030 1868     		ldr	r0, [r3]
 343              	.LVL35:
 471:lvgl/src/core/lv_obj_style.c ****         }
 344              		.loc 1 471 34 view .LVU89
 345 0032 46E0     		b	.L22
 346              	.LVL36:
 347              	.L33:
 475:lvgl/src/core/lv_obj_style.c ****     obj->styles = lv_mem_realloc(obj->styles, obj->style_cnt * sizeof(_lv_obj_style_t));
 348              		.loc 1 475 5 is_stmt 1 view .LVU90
 475:lvgl/src/core/lv_obj_style.c ****     obj->styles = lv_mem_realloc(obj->styles, obj->style_cnt * sizeof(_lv_obj_style_t));
ARM GAS  C:\Users\BLACK_~1\AppData\Local\Temp\ccbv02In.s 			page 20


 349              		.loc 1 475 19 is_stmt 0 view .LVU91
 350 0034 0133     		adds	r3, r3, #1
 351 0036 03F03F03 		and	r3, r3, #63
 352 003a 628C     		ldrh	r2, [r4, #34]
 353              	.LVL37:
 475:lvgl/src/core/lv_obj_style.c ****     obj->styles = lv_mem_realloc(obj->styles, obj->style_cnt * sizeof(_lv_obj_style_t));
 354              		.loc 1 475 19 view .LVU92
 355 003c 63F3C802 		bfi	r2, r3, #3, #6
 356 0040 6284     		strh	r2, [r4, #34]	@ movhi
 476:lvgl/src/core/lv_obj_style.c ****     LV_ASSERT_MALLOC(obj->styles);
 357              		.loc 1 476 5 is_stmt 1 view .LVU93
 476:lvgl/src/core/lv_obj_style.c ****     LV_ASSERT_MALLOC(obj->styles);
 358              		.loc 1 476 19 is_stmt 0 view .LVU94
 359 0042 D900     		lsls	r1, r3, #3
 360 0044 E068     		ldr	r0, [r4, #12]
 361              	.LVL38:
 476:lvgl/src/core/lv_obj_style.c ****     LV_ASSERT_MALLOC(obj->styles);
 362              		.loc 1 476 19 view .LVU95
 363 0046 FFF7FEFF 		bl	lv_mem_realloc
 364              	.LVL39:
 476:lvgl/src/core/lv_obj_style.c ****     LV_ASSERT_MALLOC(obj->styles);
 365              		.loc 1 476 17 view .LVU96
 366 004a E060     		str	r0, [r4, #12]
 477:lvgl/src/core/lv_obj_style.c **** 
 367              		.loc 1 477 5 is_stmt 1 view .LVU97
 477:lvgl/src/core/lv_obj_style.c **** 
 368              		.loc 1 477 5 view .LVU98
 369 004c B0B1     		cbz	r0, .L28
 477:lvgl/src/core/lv_obj_style.c **** 
 370              		.loc 1 477 5 discriminator 2 view .LVU99
 477:lvgl/src/core/lv_obj_style.c **** 
 371              		.loc 1 477 34 discriminator 2 view .LVU100
 479:lvgl/src/core/lv_obj_style.c ****         /*Copy only normal styles (not local and transition).
 372              		.loc 1 479 5 discriminator 2 view .LVU101
 479:lvgl/src/core/lv_obj_style.c ****         /*Copy only normal styles (not local and transition).
 373              		.loc 1 479 16 is_stmt 0 discriminator 2 view .LVU102
 374 004e 668C     		ldrh	r6, [r4, #34]
 375 0050 C6F3C506 		ubfx	r6, r6, #3, #6
 479:lvgl/src/core/lv_obj_style.c ****         /*Copy only normal styles (not local and transition).
 376              		.loc 1 479 28 discriminator 2 view .LVU103
 377 0054 013E     		subs	r6, r6, #1
 378              	.LVL40:
 379              	.L29:
 479:lvgl/src/core/lv_obj_style.c ****         /*Copy only normal styles (not local and transition).
 380              		.loc 1 479 33 is_stmt 1 discriminator 1 view .LVU104
 479:lvgl/src/core/lv_obj_style.c ****         /*Copy only normal styles (not local and transition).
 381              		.loc 1 479 5 is_stmt 0 discriminator 1 view .LVU105
 382 0056 96B1     		cbz	r6, .L30
 482:lvgl/src/core/lv_obj_style.c ****         obj->styles[i] = obj->styles[i - 1];
 383              		.loc 1 482 9 is_stmt 1 view .LVU106
 482:lvgl/src/core/lv_obj_style.c ****         obj->styles[i] = obj->styles[i - 1];
 384              		.loc 1 482 15 is_stmt 0 view .LVU107
 385 0058 E268     		ldr	r2, [r4, #12]
 482:lvgl/src/core/lv_obj_style.c ****         obj->styles[i] = obj->styles[i - 1];
 386              		.loc 1 482 23 view .LVU108
 387 005a 06F10053 		add	r3, r6, #536870912
 388 005e 013B     		subs	r3, r3, #1
ARM GAS  C:\Users\BLACK_~1\AppData\Local\Temp\ccbv02In.s 			page 21


 389 0060 02EBC303 		add	r3, r2, r3, lsl #3
 482:lvgl/src/core/lv_obj_style.c ****         obj->styles[i] = obj->styles[i - 1];
 390              		.loc 1 482 40 view .LVU109
 391 0064 D979     		ldrb	r1, [r3, #7]	@ zero_extendqisi2
 482:lvgl/src/core/lv_obj_style.c ****         obj->styles[i] = obj->styles[i - 1];
 392              		.loc 1 482 11 view .LVU110
 393 0066 11F0030F 		tst	r1, #3
 394 006a 08D1     		bne	.L30
 483:lvgl/src/core/lv_obj_style.c ****     }
 395              		.loc 1 483 9 is_stmt 1 discriminator 2 view .LVU111
 483:lvgl/src/core/lv_obj_style.c ****     }
 396              		.loc 1 483 20 is_stmt 0 discriminator 2 view .LVU112
 397 006c 02EBC602 		add	r2, r2, r6, lsl #3
 483:lvgl/src/core/lv_obj_style.c ****     }
 398              		.loc 1 483 24 discriminator 2 view .LVU113
 399 0070 93E80300 		ldm	r3, {r0, r1}
 400 0074 82E80300 		stm	r2, {r0, r1}
 479:lvgl/src/core/lv_obj_style.c ****         /*Copy only normal styles (not local and transition).
 401              		.loc 1 479 41 is_stmt 1 discriminator 2 view .LVU114
 479:lvgl/src/core/lv_obj_style.c ****         /*Copy only normal styles (not local and transition).
 402              		.loc 1 479 42 is_stmt 0 discriminator 2 view .LVU115
 403 0078 013E     		subs	r6, r6, #1
 404              	.LVL41:
 479:lvgl/src/core/lv_obj_style.c ****         /*Copy only normal styles (not local and transition).
 405              		.loc 1 479 42 discriminator 2 view .LVU116
 406 007a ECE7     		b	.L29
 407              	.LVL42:
 408              	.L28:
 477:lvgl/src/core/lv_obj_style.c **** 
 409              		.loc 1 477 5 is_stmt 1 discriminator 1 view .LVU117
 477:lvgl/src/core/lv_obj_style.c **** 
 410              		.loc 1 477 5 discriminator 1 view .LVU118
 477:lvgl/src/core/lv_obj_style.c **** 
 411              		.loc 1 477 5 discriminator 1 view .LVU119
 477:lvgl/src/core/lv_obj_style.c **** 
 412              		.loc 1 477 5 discriminator 1 view .LVU120
 413 007c FEE7     		b	.L28
 414              	.LVL43:
 415              	.L30:
 486:lvgl/src/core/lv_obj_style.c ****     obj->styles[i].style = lv_mem_alloc(sizeof(lv_style_t));
 416              		.loc 1 486 5 view .LVU121
 486:lvgl/src/core/lv_obj_style.c ****     obj->styles[i].style = lv_mem_alloc(sizeof(lv_style_t));
 417              		.loc 1 486 22 is_stmt 0 view .LVU122
 418 007e E068     		ldr	r0, [r4, #12]
 486:lvgl/src/core/lv_obj_style.c ****     obj->styles[i].style = lv_mem_alloc(sizeof(lv_style_t));
 419              		.loc 1 486 30 view .LVU123
 420 0080 F700     		lsls	r7, r6, #3
 486:lvgl/src/core/lv_obj_style.c ****     obj->styles[i].style = lv_mem_alloc(sizeof(lv_style_t));
 421              		.loc 1 486 5 view .LVU124
 422 0082 0821     		movs	r1, #8
 423 0084 00EBC600 		add	r0, r0, r6, lsl #3
 424 0088 FFF7FEFF 		bl	lv_memset_00
 425              	.LVL44:
 487:lvgl/src/core/lv_obj_style.c ****     lv_style_init(obj->styles[i].style);
 426              		.loc 1 487 5 is_stmt 1 view .LVU125
 487:lvgl/src/core/lv_obj_style.c ****     lv_style_init(obj->styles[i].style);
 427              		.loc 1 487 8 is_stmt 0 view .LVU126
ARM GAS  C:\Users\BLACK_~1\AppData\Local\Temp\ccbv02In.s 			page 22


 428 008c D4F80C80 		ldr	r8, [r4, #12]
 487:lvgl/src/core/lv_obj_style.c ****     lv_style_init(obj->styles[i].style);
 429              		.loc 1 487 28 view .LVU127
 430 0090 0820     		movs	r0, #8
 431 0092 FFF7FEFF 		bl	lv_mem_alloc
 432              	.LVL45:
 487:lvgl/src/core/lv_obj_style.c ****     lv_style_init(obj->styles[i].style);
 433              		.loc 1 487 26 view .LVU128
 434 0096 48F83600 		str	r0, [r8, r6, lsl #3]
 488:lvgl/src/core/lv_obj_style.c ****     obj->styles[i].is_local = 1;
 435              		.loc 1 488 5 is_stmt 1 view .LVU129
 488:lvgl/src/core/lv_obj_style.c ****     obj->styles[i].is_local = 1;
 436              		.loc 1 488 22 is_stmt 0 view .LVU130
 437 009a E368     		ldr	r3, [r4, #12]
 488:lvgl/src/core/lv_obj_style.c ****     obj->styles[i].is_local = 1;
 438              		.loc 1 488 5 view .LVU131
 439 009c 53F83600 		ldr	r0, [r3, r6, lsl #3]
 440 00a0 FFF7FEFF 		bl	lv_style_init
 441              	.LVL46:
 489:lvgl/src/core/lv_obj_style.c ****     obj->styles[i].selector = selector;
 442              		.loc 1 489 5 is_stmt 1 view .LVU132
 489:lvgl/src/core/lv_obj_style.c ****     obj->styles[i].selector = selector;
 443              		.loc 1 489 8 is_stmt 0 view .LVU133
 444 00a4 E368     		ldr	r3, [r4, #12]
 489:lvgl/src/core/lv_obj_style.c ****     obj->styles[i].selector = selector;
 445              		.loc 1 489 16 view .LVU134
 446 00a6 3B44     		add	r3, r3, r7
 489:lvgl/src/core/lv_obj_style.c ****     obj->styles[i].selector = selector;
 447              		.loc 1 489 29 view .LVU135
 448 00a8 DA79     		ldrb	r2, [r3, #7]	@ zero_extendqisi2
 449 00aa 42F00102 		orr	r2, r2, #1
 450 00ae DA71     		strb	r2, [r3, #7]
 490:lvgl/src/core/lv_obj_style.c ****     return obj->styles[i].style;
 451              		.loc 1 490 5 is_stmt 1 view .LVU136
 490:lvgl/src/core/lv_obj_style.c ****     return obj->styles[i].style;
 452              		.loc 1 490 8 is_stmt 0 view .LVU137
 453 00b0 E368     		ldr	r3, [r4, #12]
 490:lvgl/src/core/lv_obj_style.c ****     return obj->styles[i].style;
 454              		.loc 1 490 16 view .LVU138
 455 00b2 3B44     		add	r3, r3, r7
 490:lvgl/src/core/lv_obj_style.c ****     return obj->styles[i].style;
 456              		.loc 1 490 29 view .LVU139
 457 00b4 5A68     		ldr	r2, [r3, #4]
 458 00b6 65F31702 		bfi	r2, r5, #0, #24
 459              	.LVL47:
 490:lvgl/src/core/lv_obj_style.c ****     return obj->styles[i].style;
 460              		.loc 1 490 29 view .LVU140
 461 00ba 5A60     		str	r2, [r3, #4]
 491:lvgl/src/core/lv_obj_style.c **** }
 462              		.loc 1 491 5 is_stmt 1 view .LVU141
 491:lvgl/src/core/lv_obj_style.c **** }
 463              		.loc 1 491 15 is_stmt 0 view .LVU142
 464 00bc E368     		ldr	r3, [r4, #12]
 491:lvgl/src/core/lv_obj_style.c **** }
 465              		.loc 1 491 26 view .LVU143
 466 00be 53F83600 		ldr	r0, [r3, r6, lsl #3]
 467              	.LVL48:
ARM GAS  C:\Users\BLACK_~1\AppData\Local\Temp\ccbv02In.s 			page 23


 468              	.L22:
 492:lvgl/src/core/lv_obj_style.c **** 
 469              		.loc 1 492 1 view .LVU144
 470 00c2 BDE8F081 		pop	{r4, r5, r6, r7, r8, pc}
 492:lvgl/src/core/lv_obj_style.c **** 
 471              		.loc 1 492 1 view .LVU145
 472              		.cfi_endproc
 473              	.LFE169:
 475              		.section	.text.get_trans_style,"ax",%progbits
 476              		.align	1
 477              		.syntax unified
 478              		.thumb
 479              		.thumb_func
 481              	get_trans_style:
 482              	.LVL49:
 483              	.LFB170:
 503:lvgl/src/core/lv_obj_style.c ****     uint32_t i;
 484              		.loc 1 503 1 is_stmt 1 view -0
 485              		.cfi_startproc
 486              		@ args = 0, pretend = 0, frame = 0
 487              		@ frame_needed = 0, uses_anonymous_args = 0
 503:lvgl/src/core/lv_obj_style.c ****     uint32_t i;
 488              		.loc 1 503 1 is_stmt 0 view .LVU147
 489 0000 70B5     		push	{r4, r5, r6, lr}
 490              	.LCFI3:
 491              		.cfi_def_cfa_offset 16
 492              		.cfi_offset 4, -16
 493              		.cfi_offset 5, -12
 494              		.cfi_offset 6, -8
 495              		.cfi_offset 14, -4
 496 0002 0446     		mov	r4, r0
 497 0004 0D46     		mov	r5, r1
 504:lvgl/src/core/lv_obj_style.c ****     for(i = 0; i < obj->style_cnt; i++) {
 498              		.loc 1 504 5 is_stmt 1 view .LVU148
 505:lvgl/src/core/lv_obj_style.c ****         if(obj->styles[i].is_trans && obj->styles[i].selector == selector) break;
 499              		.loc 1 505 5 view .LVU149
 500              	.LVL50:
 505:lvgl/src/core/lv_obj_style.c ****         if(obj->styles[i].is_trans && obj->styles[i].selector == selector) break;
 501              		.loc 1 505 11 is_stmt 0 view .LVU150
 502 0006 0020     		movs	r0, #0
 503              	.LVL51:
 505:lvgl/src/core/lv_obj_style.c ****         if(obj->styles[i].is_trans && obj->styles[i].selector == selector) break;
 504              		.loc 1 505 5 view .LVU151
 505 0008 00E0     		b	.L35
 506              	.LVL52:
 507              	.L36:
 505:lvgl/src/core/lv_obj_style.c ****         if(obj->styles[i].is_trans && obj->styles[i].selector == selector) break;
 508              		.loc 1 505 36 is_stmt 1 discriminator 2 view .LVU152
 505:lvgl/src/core/lv_obj_style.c ****         if(obj->styles[i].is_trans && obj->styles[i].selector == selector) break;
 509              		.loc 1 505 37 is_stmt 0 discriminator 2 view .LVU153
 510 000a 0130     		adds	r0, r0, #1
 511              	.LVL53:
 512              	.L35:
 505:lvgl/src/core/lv_obj_style.c ****         if(obj->styles[i].is_trans && obj->styles[i].selector == selector) break;
 513              		.loc 1 505 16 is_stmt 1 discriminator 1 view .LVU154
 505:lvgl/src/core/lv_obj_style.c ****         if(obj->styles[i].is_trans && obj->styles[i].selector == selector) break;
 514              		.loc 1 505 23 is_stmt 0 discriminator 1 view .LVU155
ARM GAS  C:\Users\BLACK_~1\AppData\Local\Temp\ccbv02In.s 			page 24


 515 000c 628C     		ldrh	r2, [r4, #34]
 516 000e C2F3C502 		ubfx	r2, r2, #3, #6
 505:lvgl/src/core/lv_obj_style.c ****         if(obj->styles[i].is_trans && obj->styles[i].selector == selector) break;
 517              		.loc 1 505 5 discriminator 1 view .LVU156
 518 0012 8242     		cmp	r2, r0
 519 0014 0BD9     		bls	.L37
 506:lvgl/src/core/lv_obj_style.c ****     }
 520              		.loc 1 506 9 is_stmt 1 view .LVU157
 506:lvgl/src/core/lv_obj_style.c ****     }
 521              		.loc 1 506 15 is_stmt 0 view .LVU158
 522 0016 E368     		ldr	r3, [r4, #12]
 506:lvgl/src/core/lv_obj_style.c ****     }
 523              		.loc 1 506 23 view .LVU159
 524 0018 03EBC003 		add	r3, r3, r0, lsl #3
 506:lvgl/src/core/lv_obj_style.c ****     }
 525              		.loc 1 506 12 view .LVU160
 526 001c D979     		ldrb	r1, [r3, #7]	@ zero_extendqisi2
 506:lvgl/src/core/lv_obj_style.c ****     }
 527              		.loc 1 506 11 view .LVU161
 528 001e 11F0020F 		tst	r1, #2
 529 0022 F2D0     		beq	.L36
 506:lvgl/src/core/lv_obj_style.c ****     }
 530              		.loc 1 506 53 discriminator 1 view .LVU162
 531 0024 5B68     		ldr	r3, [r3, #4]
 532 0026 C3F31703 		ubfx	r3, r3, #0, #24
 506:lvgl/src/core/lv_obj_style.c ****     }
 533              		.loc 1 506 36 discriminator 1 view .LVU163
 534 002a AB42     		cmp	r3, r5
 535 002c EDD1     		bne	.L36
 536              	.L37:
 510:lvgl/src/core/lv_obj_style.c **** 
 537              		.loc 1 510 5 is_stmt 1 view .LVU164
 510:lvgl/src/core/lv_obj_style.c **** 
 538              		.loc 1 510 7 is_stmt 0 view .LVU165
 539 002e 8242     		cmp	r2, r0
 540 0030 03D0     		beq	.L39
 510:lvgl/src/core/lv_obj_style.c **** 
 541              		.loc 1 510 29 is_stmt 1 discriminator 1 view .LVU166
 510:lvgl/src/core/lv_obj_style.c **** 
 542              		.loc 1 510 40 is_stmt 0 discriminator 1 view .LVU167
 543 0032 E368     		ldr	r3, [r4, #12]
 510:lvgl/src/core/lv_obj_style.c **** 
 544              		.loc 1 510 36 discriminator 1 view .LVU168
 545 0034 03EBC000 		add	r0, r3, r0, lsl #3
 546              	.LVL54:
 547              	.L34:
 525:lvgl/src/core/lv_obj_style.c **** 
 548              		.loc 1 525 1 view .LVU169
 549 0038 70BD     		pop	{r4, r5, r6, pc}
 550              	.LVL55:
 551              	.L39:
 512:lvgl/src/core/lv_obj_style.c ****     obj->styles = lv_mem_realloc(obj->styles, obj->style_cnt * sizeof(_lv_obj_style_t));
 552              		.loc 1 512 5 is_stmt 1 view .LVU170
 512:lvgl/src/core/lv_obj_style.c ****     obj->styles = lv_mem_realloc(obj->styles, obj->style_cnt * sizeof(_lv_obj_style_t));
 553              		.loc 1 512 19 is_stmt 0 view .LVU171
 554 003a 0132     		adds	r2, r2, #1
 555 003c 02F03F02 		and	r2, r2, #63
ARM GAS  C:\Users\BLACK_~1\AppData\Local\Temp\ccbv02In.s 			page 25


 556 0040 638C     		ldrh	r3, [r4, #34]
 557 0042 62F3C803 		bfi	r3, r2, #3, #6
 558 0046 6384     		strh	r3, [r4, #34]	@ movhi
 513:lvgl/src/core/lv_obj_style.c **** 
 559              		.loc 1 513 5 is_stmt 1 view .LVU172
 513:lvgl/src/core/lv_obj_style.c **** 
 560              		.loc 1 513 19 is_stmt 0 view .LVU173
 561 0048 D100     		lsls	r1, r2, #3
 562 004a E068     		ldr	r0, [r4, #12]
 563              	.LVL56:
 513:lvgl/src/core/lv_obj_style.c **** 
 564              		.loc 1 513 19 view .LVU174
 565 004c FFF7FEFF 		bl	lv_mem_realloc
 566              	.LVL57:
 513:lvgl/src/core/lv_obj_style.c **** 
 567              		.loc 1 513 17 view .LVU175
 568 0050 E060     		str	r0, [r4, #12]
 515:lvgl/src/core/lv_obj_style.c ****         obj->styles[i] = obj->styles[i - 1];
 569              		.loc 1 515 5 is_stmt 1 view .LVU176
 515:lvgl/src/core/lv_obj_style.c ****         obj->styles[i] = obj->styles[i - 1];
 570              		.loc 1 515 16 is_stmt 0 view .LVU177
 571 0052 668C     		ldrh	r6, [r4, #34]
 572 0054 C6F3C506 		ubfx	r6, r6, #3, #6
 515:lvgl/src/core/lv_obj_style.c ****         obj->styles[i] = obj->styles[i - 1];
 573              		.loc 1 515 28 view .LVU178
 574 0058 013E     		subs	r6, r6, #1
 575              	.LVL58:
 515:lvgl/src/core/lv_obj_style.c ****         obj->styles[i] = obj->styles[i - 1];
 576              		.loc 1 515 5 view .LVU179
 577 005a 0CE0     		b	.L41
 578              	.L42:
 516:lvgl/src/core/lv_obj_style.c ****     }
 579              		.loc 1 516 9 is_stmt 1 discriminator 3 view .LVU180
 516:lvgl/src/core/lv_obj_style.c ****     }
 580              		.loc 1 516 29 is_stmt 0 discriminator 3 view .LVU181
 581 005c E268     		ldr	r2, [r4, #12]
 516:lvgl/src/core/lv_obj_style.c ****     }
 582              		.loc 1 516 37 discriminator 3 view .LVU182
 583 005e 06F10053 		add	r3, r6, #536870912
 584 0062 013B     		subs	r3, r3, #1
 585 0064 02EBC303 		add	r3, r2, r3, lsl #3
 516:lvgl/src/core/lv_obj_style.c ****     }
 586              		.loc 1 516 20 discriminator 3 view .LVU183
 587 0068 02EBC602 		add	r2, r2, r6, lsl #3
 516:lvgl/src/core/lv_obj_style.c ****     }
 588              		.loc 1 516 24 discriminator 3 view .LVU184
 589 006c 93E80300 		ldm	r3, {r0, r1}
 590 0070 82E80300 		stm	r2, {r0, r1}
 515:lvgl/src/core/lv_obj_style.c ****         obj->styles[i] = obj->styles[i - 1];
 591              		.loc 1 515 41 is_stmt 1 discriminator 3 view .LVU185
 515:lvgl/src/core/lv_obj_style.c ****         obj->styles[i] = obj->styles[i - 1];
 592              		.loc 1 515 42 is_stmt 0 discriminator 3 view .LVU186
 593 0074 013E     		subs	r6, r6, #1
 594              	.LVL59:
 595              	.L41:
 515:lvgl/src/core/lv_obj_style.c ****         obj->styles[i] = obj->styles[i - 1];
 596              		.loc 1 515 33 is_stmt 1 discriminator 1 view .LVU187
ARM GAS  C:\Users\BLACK_~1\AppData\Local\Temp\ccbv02In.s 			page 26


 515:lvgl/src/core/lv_obj_style.c ****         obj->styles[i] = obj->styles[i - 1];
 597              		.loc 1 515 5 is_stmt 0 discriminator 1 view .LVU188
 598 0076 002E     		cmp	r6, #0
 599 0078 F0D1     		bne	.L42
 519:lvgl/src/core/lv_obj_style.c ****     obj->styles[0].style = lv_mem_alloc(sizeof(lv_style_t));
 600              		.loc 1 519 5 is_stmt 1 view .LVU189
 601 007a 0821     		movs	r1, #8
 602 007c E068     		ldr	r0, [r4, #12]
 603 007e FFF7FEFF 		bl	lv_memset_00
 604              	.LVL60:
 520:lvgl/src/core/lv_obj_style.c ****     lv_style_init(obj->styles[0].style);
 605              		.loc 1 520 5 view .LVU190
 520:lvgl/src/core/lv_obj_style.c ****     lv_style_init(obj->styles[0].style);
 606              		.loc 1 520 8 is_stmt 0 view .LVU191
 607 0082 E668     		ldr	r6, [r4, #12]
 608              	.LVL61:
 520:lvgl/src/core/lv_obj_style.c ****     lv_style_init(obj->styles[0].style);
 609              		.loc 1 520 28 view .LVU192
 610 0084 0820     		movs	r0, #8
 611 0086 FFF7FEFF 		bl	lv_mem_alloc
 612              	.LVL62:
 520:lvgl/src/core/lv_obj_style.c ****     lv_style_init(obj->styles[0].style);
 613              		.loc 1 520 26 view .LVU193
 614 008a 3060     		str	r0, [r6]
 521:lvgl/src/core/lv_obj_style.c ****     obj->styles[0].is_trans = 1;
 615              		.loc 1 521 5 is_stmt 1 view .LVU194
 521:lvgl/src/core/lv_obj_style.c ****     obj->styles[0].is_trans = 1;
 616              		.loc 1 521 22 is_stmt 0 view .LVU195
 617 008c E368     		ldr	r3, [r4, #12]
 521:lvgl/src/core/lv_obj_style.c ****     obj->styles[0].is_trans = 1;
 618              		.loc 1 521 5 view .LVU196
 619 008e 1868     		ldr	r0, [r3]
 620 0090 FFF7FEFF 		bl	lv_style_init
 621              	.LVL63:
 522:lvgl/src/core/lv_obj_style.c ****     obj->styles[0].selector = selector;
 622              		.loc 1 522 5 is_stmt 1 view .LVU197
 522:lvgl/src/core/lv_obj_style.c ****     obj->styles[0].selector = selector;
 623              		.loc 1 522 8 is_stmt 0 view .LVU198
 624 0094 E268     		ldr	r2, [r4, #12]
 522:lvgl/src/core/lv_obj_style.c ****     obj->styles[0].selector = selector;
 625              		.loc 1 522 29 view .LVU199
 626 0096 D379     		ldrb	r3, [r2, #7]	@ zero_extendqisi2
 627 0098 43F00203 		orr	r3, r3, #2
 628 009c D371     		strb	r3, [r2, #7]
 523:lvgl/src/core/lv_obj_style.c ****     return &obj->styles[0];
 629              		.loc 1 523 5 is_stmt 1 view .LVU200
 523:lvgl/src/core/lv_obj_style.c ****     return &obj->styles[0];
 630              		.loc 1 523 8 is_stmt 0 view .LVU201
 631 009e E368     		ldr	r3, [r4, #12]
 523:lvgl/src/core/lv_obj_style.c ****     return &obj->styles[0];
 632              		.loc 1 523 29 view .LVU202
 633 00a0 5A68     		ldr	r2, [r3, #4]
 634 00a2 65F31702 		bfi	r2, r5, #0, #24
 635              	.LVL64:
 523:lvgl/src/core/lv_obj_style.c ****     return &obj->styles[0];
 636              		.loc 1 523 29 view .LVU203
 637 00a6 5A60     		str	r2, [r3, #4]
ARM GAS  C:\Users\BLACK_~1\AppData\Local\Temp\ccbv02In.s 			page 27


 524:lvgl/src/core/lv_obj_style.c **** }
 638              		.loc 1 524 5 is_stmt 1 view .LVU204
 524:lvgl/src/core/lv_obj_style.c **** }
 639              		.loc 1 524 12 is_stmt 0 view .LVU205
 640 00a8 E068     		ldr	r0, [r4, #12]
 641 00aa C5E7     		b	.L34
 642              		.cfi_endproc
 643              	.LFE170:
 645              		.section	.text.fade_anim_cb,"ax",%progbits
 646              		.align	1
 647              		.syntax unified
 648              		.thumb
 649              		.thumb_func
 651              	fade_anim_cb:
 652              	.LVL65:
 653              	.LFB179:
 679:lvgl/src/core/lv_obj_style.c **** 
 680:lvgl/src/core/lv_obj_style.c **** static void trans_anim_cb(void * _tr, int32_t v)
 681:lvgl/src/core/lv_obj_style.c **** {
 682:lvgl/src/core/lv_obj_style.c ****     trans_t * tr = _tr;
 683:lvgl/src/core/lv_obj_style.c ****     lv_obj_t * obj = tr->obj;
 684:lvgl/src/core/lv_obj_style.c **** 
 685:lvgl/src/core/lv_obj_style.c ****     uint32_t i;
 686:lvgl/src/core/lv_obj_style.c ****     for(i = 0; i < obj->style_cnt; i++) {
 687:lvgl/src/core/lv_obj_style.c ****         if(obj->styles[i].is_trans == 0 || obj->styles[i].selector != tr->selector) continue;
 688:lvgl/src/core/lv_obj_style.c **** 
 689:lvgl/src/core/lv_obj_style.c ****         lv_style_value_t value_final;
 690:lvgl/src/core/lv_obj_style.c ****         switch (tr->prop) {
 691:lvgl/src/core/lv_obj_style.c **** 
 692:lvgl/src/core/lv_obj_style.c ****             case LV_STYLE_BORDER_SIDE:
 693:lvgl/src/core/lv_obj_style.c ****             case LV_STYLE_BORDER_POST:
 694:lvgl/src/core/lv_obj_style.c ****             case LV_STYLE_BLEND_MODE:
 695:lvgl/src/core/lv_obj_style.c ****                 if(v < 255) value_final.num = tr->start_value.num;
 696:lvgl/src/core/lv_obj_style.c ****                 else value_final.num = tr->end_value.num;
 697:lvgl/src/core/lv_obj_style.c ****                 break;
 698:lvgl/src/core/lv_obj_style.c ****             case LV_STYLE_TRANSITION:
 699:lvgl/src/core/lv_obj_style.c ****             case LV_STYLE_TEXT_FONT:
 700:lvgl/src/core/lv_obj_style.c ****                 if(v < 255) value_final.ptr = tr->start_value.ptr;
 701:lvgl/src/core/lv_obj_style.c ****                 else value_final.ptr = tr->end_value.ptr;
 702:lvgl/src/core/lv_obj_style.c ****                 break;
 703:lvgl/src/core/lv_obj_style.c ****             case LV_STYLE_COLOR_FILTER_DSC:
 704:lvgl/src/core/lv_obj_style.c ****                 if(tr->start_value.ptr == NULL) value_final.ptr = tr->end_value.ptr;
 705:lvgl/src/core/lv_obj_style.c ****                 else if(tr->end_value.ptr == NULL) value_final.ptr = tr->start_value.ptr;
 706:lvgl/src/core/lv_obj_style.c ****                 else if(v < 128) value_final.ptr = tr->start_value.ptr;
 707:lvgl/src/core/lv_obj_style.c ****                 else value_final.ptr = tr->end_value.ptr;
 708:lvgl/src/core/lv_obj_style.c ****                 break;
 709:lvgl/src/core/lv_obj_style.c ****             case LV_STYLE_BG_COLOR:
 710:lvgl/src/core/lv_obj_style.c ****             case LV_STYLE_BORDER_COLOR:
 711:lvgl/src/core/lv_obj_style.c ****             case LV_STYLE_TEXT_COLOR:
 712:lvgl/src/core/lv_obj_style.c ****             case LV_STYLE_SHADOW_COLOR:
 713:lvgl/src/core/lv_obj_style.c ****             case LV_STYLE_OUTLINE_COLOR:
 714:lvgl/src/core/lv_obj_style.c ****             case LV_STYLE_IMG_RECOLOR:
 715:lvgl/src/core/lv_obj_style.c ****                 if(v <= 0) value_final.color = tr->start_value.color;
 716:lvgl/src/core/lv_obj_style.c ****                 else if(v >= 255) value_final.color = tr->end_value.color;
 717:lvgl/src/core/lv_obj_style.c ****                 else value_final.color = lv_color_mix(tr->end_value.color, tr->start_value.color, v
 718:lvgl/src/core/lv_obj_style.c ****                 break;
 719:lvgl/src/core/lv_obj_style.c **** 
ARM GAS  C:\Users\BLACK_~1\AppData\Local\Temp\ccbv02In.s 			page 28


 720:lvgl/src/core/lv_obj_style.c ****             default:
 721:lvgl/src/core/lv_obj_style.c ****                 if(v == 0) value_final.num = tr->start_value.num;
 722:lvgl/src/core/lv_obj_style.c ****                 else if(v == 255) value_final.num = tr->end_value.num;
 723:lvgl/src/core/lv_obj_style.c ****                 else value_final.num = tr->start_value.num + ((int32_t)((int32_t)(tr->end_value.num
 724:lvgl/src/core/lv_obj_style.c ****                 break;
 725:lvgl/src/core/lv_obj_style.c ****         }
 726:lvgl/src/core/lv_obj_style.c **** 
 727:lvgl/src/core/lv_obj_style.c ****         lv_style_value_t old_value;
 728:lvgl/src/core/lv_obj_style.c ****         bool refr = true;
 729:lvgl/src/core/lv_obj_style.c ****         if(lv_style_get_prop(obj->styles[i].style, tr->prop, &old_value)) {
 730:lvgl/src/core/lv_obj_style.c ****             if(value_final.ptr == old_value.ptr && value_final.color.full == old_value.color.full &
 731:lvgl/src/core/lv_obj_style.c ****                 refr = false;
 732:lvgl/src/core/lv_obj_style.c ****             }
 733:lvgl/src/core/lv_obj_style.c ****         }
 734:lvgl/src/core/lv_obj_style.c ****         lv_style_set_prop(obj->styles[i].style, tr->prop, value_final);
 735:lvgl/src/core/lv_obj_style.c ****         if (refr) lv_obj_refresh_style(tr->obj, tr->selector, tr->prop);
 736:lvgl/src/core/lv_obj_style.c ****         break;
 737:lvgl/src/core/lv_obj_style.c **** 
 738:lvgl/src/core/lv_obj_style.c ****     }
 739:lvgl/src/core/lv_obj_style.c **** 
 740:lvgl/src/core/lv_obj_style.c **** }
 741:lvgl/src/core/lv_obj_style.c **** 
 742:lvgl/src/core/lv_obj_style.c **** static void trans_anim_start_cb(lv_anim_t * a)
 743:lvgl/src/core/lv_obj_style.c **** {
 744:lvgl/src/core/lv_obj_style.c ****     trans_t * tr = a->var;
 745:lvgl/src/core/lv_obj_style.c **** 
 746:lvgl/src/core/lv_obj_style.c ****     lv_part_t part = lv_obj_style_get_selector_part(tr->selector);
 747:lvgl/src/core/lv_obj_style.c ****     tr->start_value = lv_obj_get_style_prop(tr->obj, part, tr->prop);
 748:lvgl/src/core/lv_obj_style.c **** 
 749:lvgl/src/core/lv_obj_style.c ****     /*Init prop to an invalid values to be sure `trans_del` won't delete this added `tr`*/
 750:lvgl/src/core/lv_obj_style.c ****     lv_style_prop_t prop_tmp = tr->prop;
 751:lvgl/src/core/lv_obj_style.c ****     tr->prop = LV_STYLE_PROP_INV;
 752:lvgl/src/core/lv_obj_style.c **** 
 753:lvgl/src/core/lv_obj_style.c ****     /*Delete the related transitions if any*/
 754:lvgl/src/core/lv_obj_style.c ****     trans_del(tr->obj, part, prop_tmp, tr);
 755:lvgl/src/core/lv_obj_style.c **** 
 756:lvgl/src/core/lv_obj_style.c ****     tr->prop = prop_tmp;
 757:lvgl/src/core/lv_obj_style.c **** 
 758:lvgl/src/core/lv_obj_style.c ****     _lv_obj_style_t * style_trans = get_trans_style(tr->obj, tr->selector);
 759:lvgl/src/core/lv_obj_style.c ****     lv_style_set_prop(style_trans->style, tr->prop, tr->start_value);   /*Be sure `trans_style` has
 760:lvgl/src/core/lv_obj_style.c **** 
 761:lvgl/src/core/lv_obj_style.c **** }
 762:lvgl/src/core/lv_obj_style.c **** 
 763:lvgl/src/core/lv_obj_style.c **** static void trans_anim_ready_cb(lv_anim_t * a)
 764:lvgl/src/core/lv_obj_style.c **** {
 765:lvgl/src/core/lv_obj_style.c ****     trans_t * tr = a->var;
 766:lvgl/src/core/lv_obj_style.c ****     lv_obj_t * obj = tr->obj;
 767:lvgl/src/core/lv_obj_style.c ****     lv_style_prop_t prop = tr->prop;
 768:lvgl/src/core/lv_obj_style.c **** 
 769:lvgl/src/core/lv_obj_style.c ****     /*Remove the transitioned property from trans. style
 770:lvgl/src/core/lv_obj_style.c ****      *if there no more transitions for this property
 771:lvgl/src/core/lv_obj_style.c ****      *It allows changing it by normal styles*/
 772:lvgl/src/core/lv_obj_style.c ****     bool running = false;
 773:lvgl/src/core/lv_obj_style.c ****     trans_t * tr_i;
 774:lvgl/src/core/lv_obj_style.c ****     _LV_LL_READ(&LV_GC_ROOT(_lv_obj_style_trans_ll), tr_i) {
 775:lvgl/src/core/lv_obj_style.c ****         if(tr_i != tr && tr_i->obj == tr->obj && tr_i->selector == tr->selector && tr_i->prop == tr
 776:lvgl/src/core/lv_obj_style.c ****             running = true;
ARM GAS  C:\Users\BLACK_~1\AppData\Local\Temp\ccbv02In.s 			page 29


 777:lvgl/src/core/lv_obj_style.c ****             break;
 778:lvgl/src/core/lv_obj_style.c ****         }
 779:lvgl/src/core/lv_obj_style.c ****     }
 780:lvgl/src/core/lv_obj_style.c **** 
 781:lvgl/src/core/lv_obj_style.c ****     if(!running) {
 782:lvgl/src/core/lv_obj_style.c ****         uint32_t i;
 783:lvgl/src/core/lv_obj_style.c ****         for(i = 0; i < obj->style_cnt; i++) {
 784:lvgl/src/core/lv_obj_style.c ****             if(obj->styles[i].is_trans && obj->styles[i].selector == tr->selector) {
 785:lvgl/src/core/lv_obj_style.c ****                 _lv_ll_remove(&LV_GC_ROOT(_lv_obj_style_trans_ll), tr);
 786:lvgl/src/core/lv_obj_style.c ****                 lv_mem_free(tr);
 787:lvgl/src/core/lv_obj_style.c **** 
 788:lvgl/src/core/lv_obj_style.c ****                 _lv_obj_style_t * obj_style = &obj->styles[i];
 789:lvgl/src/core/lv_obj_style.c ****                 lv_style_remove_prop(obj_style->style, prop);
 790:lvgl/src/core/lv_obj_style.c **** 
 791:lvgl/src/core/lv_obj_style.c ****                 if(lv_style_is_empty(obj->styles[i].style)) {
 792:lvgl/src/core/lv_obj_style.c ****                     lv_obj_remove_style(obj, obj_style->style, obj_style->selector);
 793:lvgl/src/core/lv_obj_style.c **** 
 794:lvgl/src/core/lv_obj_style.c ****                 }
 795:lvgl/src/core/lv_obj_style.c ****                 break;
 796:lvgl/src/core/lv_obj_style.c ****             }
 797:lvgl/src/core/lv_obj_style.c ****         }
 798:lvgl/src/core/lv_obj_style.c ****     }
 799:lvgl/src/core/lv_obj_style.c **** }
 800:lvgl/src/core/lv_obj_style.c **** 
 801:lvgl/src/core/lv_obj_style.c **** static void fade_anim_cb(void * obj, int32_t v)
 802:lvgl/src/core/lv_obj_style.c **** {
 654              		.loc 1 802 1 is_stmt 1 view -0
 655              		.cfi_startproc
 656              		@ args = 0, pretend = 0, frame = 0
 657              		@ frame_needed = 0, uses_anonymous_args = 0
 658              		.loc 1 802 1 is_stmt 0 view .LVU207
 659 0000 08B5     		push	{r3, lr}
 660              	.LCFI4:
 661              		.cfi_def_cfa_offset 8
 662              		.cfi_offset 3, -8
 663              		.cfi_offset 14, -4
 803:lvgl/src/core/lv_obj_style.c ****     lv_obj_set_style_opa(obj, v, 0);
 664              		.loc 1 803 5 is_stmt 1 view .LVU208
 665 0002 0022     		movs	r2, #0
 666 0004 C9B2     		uxtb	r1, r1
 667              	.LVL66:
 668              		.loc 1 803 5 is_stmt 0 view .LVU209
 669 0006 FFF7FEFF 		bl	lv_obj_set_style_opa
 670              	.LVL67:
 804:lvgl/src/core/lv_obj_style.c **** }
 671              		.loc 1 804 1 view .LVU210
 672 000a 08BD     		pop	{r3, pc}
 673              		.cfi_endproc
 674              	.LFE179:
 676              		.section	.text._lv_obj_style_init,"ax",%progbits
 677              		.align	1
 678              		.global	_lv_obj_style_init
 679              		.syntax unified
 680              		.thumb
 681              		.thumb_func
 683              	_lv_obj_style_init:
 684              	.LFB153:
ARM GAS  C:\Users\BLACK_~1\AppData\Local\Temp\ccbv02In.s 			page 30


  72:lvgl/src/core/lv_obj_style.c ****     _lv_ll_init(&LV_GC_ROOT(_lv_obj_style_trans_ll), sizeof(trans_t));
 685              		.loc 1 72 1 is_stmt 1 view -0
 686              		.cfi_startproc
 687              		@ args = 0, pretend = 0, frame = 0
 688              		@ frame_needed = 0, uses_anonymous_args = 0
 689 0000 08B5     		push	{r3, lr}
 690              	.LCFI5:
 691              		.cfi_def_cfa_offset 8
 692              		.cfi_offset 3, -8
 693              		.cfi_offset 14, -4
  73:lvgl/src/core/lv_obj_style.c **** }
 694              		.loc 1 73 5 view .LVU212
 695 0002 1421     		movs	r1, #20
 696 0004 0148     		ldr	r0, .L48
 697 0006 FFF7FEFF 		bl	_lv_ll_init
 698              	.LVL68:
  74:lvgl/src/core/lv_obj_style.c **** 
 699              		.loc 1 74 1 is_stmt 0 view .LVU213
 700 000a 08BD     		pop	{r3, pc}
 701              	.L49:
 702              		.align	2
 703              	.L48:
 704 000c 00000000 		.word	_lv_obj_style_trans_ll
 705              		.cfi_endproc
 706              	.LFE153:
 708              		.section	.text.lv_obj_enable_style_refresh,"ax",%progbits
 709              		.align	1
 710              		.global	lv_obj_enable_style_refresh
 711              		.syntax unified
 712              		.thumb
 713              		.thumb_func
 715              	lv_obj_enable_style_refresh:
 716              	.LVL69:
 717              	.LFB158:
 202:lvgl/src/core/lv_obj_style.c ****     style_refr = en;
 718              		.loc 1 202 1 is_stmt 1 view -0
 719              		.cfi_startproc
 720              		@ args = 0, pretend = 0, frame = 0
 721              		@ frame_needed = 0, uses_anonymous_args = 0
 722              		@ link register save eliminated.
 203:lvgl/src/core/lv_obj_style.c **** }
 723              		.loc 1 203 5 view .LVU215
 203:lvgl/src/core/lv_obj_style.c **** }
 724              		.loc 1 203 16 is_stmt 0 view .LVU216
 725 0000 014B     		ldr	r3, .L51
 726 0002 1870     		strb	r0, [r3]
 204:lvgl/src/core/lv_obj_style.c **** 
 727              		.loc 1 204 1 view .LVU217
 728 0004 7047     		bx	lr
 729              	.L52:
 730 0006 00BF     		.align	2
 731              	.L51:
 732 0008 00000000 		.word	.LANCHOR0
 733              		.cfi_endproc
 734              	.LFE158:
 736              		.section	.text.lv_obj_get_local_style_prop,"ax",%progbits
 737              		.align	1
ARM GAS  C:\Users\BLACK_~1\AppData\Local\Temp\ccbv02In.s 			page 31


 738              		.global	lv_obj_get_local_style_prop
 739              		.syntax unified
 740              		.thumb
 741              		.thumb_func
 743              	lv_obj_get_local_style_prop:
 744              	.LVL70:
 745              	.LFB161:
 260:lvgl/src/core/lv_obj_style.c ****     uint32_t i;
 746              		.loc 1 260 1 is_stmt 1 view -0
 747              		.cfi_startproc
 748              		@ args = 0, pretend = 0, frame = 0
 749              		@ frame_needed = 0, uses_anonymous_args = 0
 260:lvgl/src/core/lv_obj_style.c ****     uint32_t i;
 750              		.loc 1 260 1 is_stmt 0 view .LVU219
 751 0000 10B5     		push	{r4, lr}
 752              	.LCFI6:
 753              		.cfi_def_cfa_offset 8
 754              		.cfi_offset 4, -8
 755              		.cfi_offset 14, -4
 261:lvgl/src/core/lv_obj_style.c ****     for(i = 0; i < obj->style_cnt; i++) {
 756              		.loc 1 261 5 is_stmt 1 view .LVU220
 262:lvgl/src/core/lv_obj_style.c ****         if(obj->styles[i].is_local &&
 757              		.loc 1 262 5 view .LVU221
 758              	.LVL71:
 262:lvgl/src/core/lv_obj_style.c ****         if(obj->styles[i].is_local &&
 759              		.loc 1 262 11 is_stmt 0 view .LVU222
 760 0002 4FF0000E 		mov	lr, #0
 262:lvgl/src/core/lv_obj_style.c ****         if(obj->styles[i].is_local &&
 761              		.loc 1 262 5 view .LVU223
 762 0006 01E0     		b	.L54
 763              	.LVL72:
 764              	.L55:
 262:lvgl/src/core/lv_obj_style.c ****         if(obj->styles[i].is_local &&
 765              		.loc 1 262 36 is_stmt 1 discriminator 2 view .LVU224
 262:lvgl/src/core/lv_obj_style.c ****         if(obj->styles[i].is_local &&
 766              		.loc 1 262 37 is_stmt 0 discriminator 2 view .LVU225
 767 0008 0EF1010E 		add	lr, lr, #1
 768              	.LVL73:
 769              	.L54:
 262:lvgl/src/core/lv_obj_style.c ****         if(obj->styles[i].is_local &&
 770              		.loc 1 262 16 is_stmt 1 discriminator 1 view .LVU226
 262:lvgl/src/core/lv_obj_style.c ****         if(obj->styles[i].is_local &&
 771              		.loc 1 262 23 is_stmt 0 discriminator 1 view .LVU227
 772 000c B0F822C0 		ldrh	ip, [r0, #34]
 773 0010 CCF3C50C 		ubfx	ip, ip, #3, #6
 262:lvgl/src/core/lv_obj_style.c ****         if(obj->styles[i].is_local &&
 774              		.loc 1 262 5 discriminator 1 view .LVU228
 775 0014 F445     		cmp	ip, lr
 776 0016 12D9     		bls	.L59
 263:lvgl/src/core/lv_obj_style.c ****            obj->styles[i].selector ==  selector)
 777              		.loc 1 263 9 is_stmt 1 view .LVU229
 263:lvgl/src/core/lv_obj_style.c ****            obj->styles[i].selector ==  selector)
 778              		.loc 1 263 23 is_stmt 0 view .LVU230
 779 0018 C468     		ldr	r4, [r0, #12]
 780 001a 04EBCE0C 		add	ip, r4, lr, lsl #3
 263:lvgl/src/core/lv_obj_style.c ****            obj->styles[i].selector ==  selector)
 781              		.loc 1 263 12 view .LVU231
ARM GAS  C:\Users\BLACK_~1\AppData\Local\Temp\ccbv02In.s 			page 32


 782 001e 9CF80740 		ldrb	r4, [ip, #7]	@ zero_extendqisi2
 263:lvgl/src/core/lv_obj_style.c ****            obj->styles[i].selector ==  selector)
 783              		.loc 1 263 11 view .LVU232
 784 0022 14F0010F 		tst	r4, #1
 785 0026 EFD0     		beq	.L55
 264:lvgl/src/core/lv_obj_style.c ****         {
 786              		.loc 1 264 26 discriminator 1 view .LVU233
 787 0028 DCF80440 		ldr	r4, [ip, #4]
 788 002c C4F31704 		ubfx	r4, r4, #0, #24
 263:lvgl/src/core/lv_obj_style.c ****            obj->styles[i].selector ==  selector)
 789              		.loc 1 263 36 discriminator 1 view .LVU234
 790 0030 9C42     		cmp	r4, r3
 791 0032 E9D1     		bne	.L55
 266:lvgl/src/core/lv_obj_style.c ****         }
 792              		.loc 1 266 13 is_stmt 1 view .LVU235
 266:lvgl/src/core/lv_obj_style.c ****         }
 793              		.loc 1 266 20 is_stmt 0 view .LVU236
 794 0034 DCF80000 		ldr	r0, [ip]
 795              	.LVL74:
 266:lvgl/src/core/lv_obj_style.c ****         }
 796              		.loc 1 266 20 view .LVU237
 797 0038 FFF7FEFF 		bl	lv_style_get_prop
 798              	.LVL75:
 266:lvgl/src/core/lv_obj_style.c ****         }
 799              		.loc 1 266 20 view .LVU238
 800 003c 00E0     		b	.L56
 801              	.LVL76:
 802              	.L59:
 270:lvgl/src/core/lv_obj_style.c **** }
 803              		.loc 1 270 12 view .LVU239
 804 003e 0020     		movs	r0, #0
 805              	.LVL77:
 806              	.L56:
 271:lvgl/src/core/lv_obj_style.c **** 
 807              		.loc 1 271 1 view .LVU240
 808 0040 10BD     		pop	{r4, pc}
 809              		.cfi_endproc
 810              	.LFE161:
 812              		.section	.text.lv_obj_remove_local_style_prop,"ax",%progbits
 813              		.align	1
 814              		.global	lv_obj_remove_local_style_prop
 815              		.syntax unified
 816              		.thumb
 817              		.thumb_func
 819              	lv_obj_remove_local_style_prop:
 820              	.LVL78:
 821              	.LFB162:
 274:lvgl/src/core/lv_obj_style.c ****     LV_ASSERT_OBJ(obj, MY_CLASS);
 822              		.loc 1 274 1 is_stmt 1 view -0
 823              		.cfi_startproc
 824              		@ args = 0, pretend = 0, frame = 0
 825              		@ frame_needed = 0, uses_anonymous_args = 0
 274:lvgl/src/core/lv_obj_style.c ****     LV_ASSERT_OBJ(obj, MY_CLASS);
 826              		.loc 1 274 1 is_stmt 0 view .LVU242
 827 0000 10B5     		push	{r4, lr}
 828              	.LCFI7:
 829              		.cfi_def_cfa_offset 8
ARM GAS  C:\Users\BLACK_~1\AppData\Local\Temp\ccbv02In.s 			page 33


 830              		.cfi_offset 4, -8
 831              		.cfi_offset 14, -4
 275:lvgl/src/core/lv_obj_style.c **** 
 832              		.loc 1 275 5 is_stmt 1 view .LVU243
 275:lvgl/src/core/lv_obj_style.c **** 
 833              		.loc 1 275 5 view .LVU244
 275:lvgl/src/core/lv_obj_style.c **** 
 834              		.loc 1 275 5 view .LVU245
 277:lvgl/src/core/lv_obj_style.c ****     /*Find the style*/
 835              		.loc 1 277 5 view .LVU246
 279:lvgl/src/core/lv_obj_style.c ****         if(obj->styles[i].is_local &&
 836              		.loc 1 279 5 view .LVU247
 837              	.LVL79:
 279:lvgl/src/core/lv_obj_style.c ****         if(obj->styles[i].is_local &&
 838              		.loc 1 279 11 is_stmt 0 view .LVU248
 839 0002 4FF0000E 		mov	lr, #0
 279:lvgl/src/core/lv_obj_style.c ****         if(obj->styles[i].is_local &&
 840              		.loc 1 279 5 view .LVU249
 841 0006 01E0     		b	.L61
 842              	.LVL80:
 843              	.L62:
 279:lvgl/src/core/lv_obj_style.c ****         if(obj->styles[i].is_local &&
 844              		.loc 1 279 36 is_stmt 1 discriminator 2 view .LVU250
 279:lvgl/src/core/lv_obj_style.c ****         if(obj->styles[i].is_local &&
 845              		.loc 1 279 37 is_stmt 0 discriminator 2 view .LVU251
 846 0008 0EF1010E 		add	lr, lr, #1
 847              	.LVL81:
 848              	.L61:
 279:lvgl/src/core/lv_obj_style.c ****         if(obj->styles[i].is_local &&
 849              		.loc 1 279 16 is_stmt 1 discriminator 1 view .LVU252
 279:lvgl/src/core/lv_obj_style.c ****         if(obj->styles[i].is_local &&
 850              		.loc 1 279 23 is_stmt 0 discriminator 1 view .LVU253
 851 000c B0F822C0 		ldrh	ip, [r0, #34]
 852 0010 CCF3C50C 		ubfx	ip, ip, #3, #6
 279:lvgl/src/core/lv_obj_style.c ****         if(obj->styles[i].is_local &&
 853              		.loc 1 279 5 discriminator 1 view .LVU254
 854 0014 F445     		cmp	ip, lr
 855 0016 0BD9     		bls	.L63
 280:lvgl/src/core/lv_obj_style.c ****            obj->styles[i].selector == selector) {
 856              		.loc 1 280 9 is_stmt 1 view .LVU255
 280:lvgl/src/core/lv_obj_style.c ****            obj->styles[i].selector == selector) {
 857              		.loc 1 280 15 is_stmt 0 view .LVU256
 858 0018 C368     		ldr	r3, [r0, #12]
 280:lvgl/src/core/lv_obj_style.c ****            obj->styles[i].selector == selector) {
 859              		.loc 1 280 23 view .LVU257
 860 001a 03EBCE03 		add	r3, r3, lr, lsl #3
 280:lvgl/src/core/lv_obj_style.c ****            obj->styles[i].selector == selector) {
 861              		.loc 1 280 12 view .LVU258
 862 001e DC79     		ldrb	r4, [r3, #7]	@ zero_extendqisi2
 280:lvgl/src/core/lv_obj_style.c ****            obj->styles[i].selector == selector) {
 863              		.loc 1 280 11 view .LVU259
 864 0020 14F0010F 		tst	r4, #1
 865 0024 F0D0     		beq	.L62
 281:lvgl/src/core/lv_obj_style.c ****             break;
 866              		.loc 1 281 26 discriminator 1 view .LVU260
 867 0026 5B68     		ldr	r3, [r3, #4]
 868 0028 C3F31703 		ubfx	r3, r3, #0, #24
ARM GAS  C:\Users\BLACK_~1\AppData\Local\Temp\ccbv02In.s 			page 34


 280:lvgl/src/core/lv_obj_style.c ****            obj->styles[i].selector == selector) {
 869              		.loc 1 280 36 discriminator 1 view .LVU261
 870 002c 9342     		cmp	r3, r2
 871 002e EBD1     		bne	.L62
 872              	.L63:
 287:lvgl/src/core/lv_obj_style.c **** 
 873              		.loc 1 287 5 is_stmt 1 view .LVU262
 287:lvgl/src/core/lv_obj_style.c **** 
 874              		.loc 1 287 7 is_stmt 0 view .LVU263
 875 0030 F445     		cmp	ip, lr
 876 0032 05D0     		beq	.L66
 289:lvgl/src/core/lv_obj_style.c **** }
 877              		.loc 1 289 5 is_stmt 1 view .LVU264
 289:lvgl/src/core/lv_obj_style.c **** }
 878              		.loc 1 289 36 is_stmt 0 view .LVU265
 879 0034 C368     		ldr	r3, [r0, #12]
 289:lvgl/src/core/lv_obj_style.c **** }
 880              		.loc 1 289 12 view .LVU266
 881 0036 53F83E00 		ldr	r0, [r3, lr, lsl #3]
 882              	.LVL82:
 289:lvgl/src/core/lv_obj_style.c **** }
 883              		.loc 1 289 12 view .LVU267
 884 003a FFF7FEFF 		bl	lv_style_remove_prop
 885              	.LVL83:
 886              	.L65:
 290:lvgl/src/core/lv_obj_style.c **** 
 887              		.loc 1 290 1 view .LVU268
 888 003e 10BD     		pop	{r4, pc}
 889              	.LVL84:
 890              	.L66:
 287:lvgl/src/core/lv_obj_style.c **** 
 891              		.loc 1 287 36 view .LVU269
 892 0040 0020     		movs	r0, #0
 893              	.LVL85:
 287:lvgl/src/core/lv_obj_style.c **** 
 894              		.loc 1 287 36 view .LVU270
 895 0042 FCE7     		b	.L65
 896              		.cfi_endproc
 897              	.LFE162:
 899              		.section	.text.fade_in_anim_ready,"ax",%progbits
 900              		.align	1
 901              		.syntax unified
 902              		.thumb
 903              		.thumb_func
 905              	fade_in_anim_ready:
 906              	.LVL86:
 907              	.LFB180:
 805:lvgl/src/core/lv_obj_style.c **** 
 806:lvgl/src/core/lv_obj_style.c **** static void fade_in_anim_ready(lv_anim_t * a)
 807:lvgl/src/core/lv_obj_style.c **** {
 908              		.loc 1 807 1 is_stmt 1 view -0
 909              		.cfi_startproc
 910              		@ args = 0, pretend = 0, frame = 0
 911              		@ frame_needed = 0, uses_anonymous_args = 0
 912              		.loc 1 807 1 is_stmt 0 view .LVU272
 913 0000 08B5     		push	{r3, lr}
 914              	.LCFI8:
ARM GAS  C:\Users\BLACK_~1\AppData\Local\Temp\ccbv02In.s 			page 35


 915              		.cfi_def_cfa_offset 8
 916              		.cfi_offset 3, -8
 917              		.cfi_offset 14, -4
 808:lvgl/src/core/lv_obj_style.c ****     lv_obj_remove_local_style_prop(a->var, LV_STYLE_OPA, 0);
 918              		.loc 1 808 5 is_stmt 1 view .LVU273
 919 0002 0022     		movs	r2, #0
 920 0004 40F26241 		movw	r1, #1122
 921 0008 0068     		ldr	r0, [r0]
 922              	.LVL87:
 923              		.loc 1 808 5 is_stmt 0 view .LVU274
 924 000a FFF7FEFF 		bl	lv_obj_remove_local_style_prop
 925              	.LVL88:
 809:lvgl/src/core/lv_obj_style.c **** }
 926              		.loc 1 809 1 view .LVU275
 927 000e 08BD     		pop	{r3, pc}
 928              		.cfi_endproc
 929              	.LFE180:
 931              		.section	.text.lv_obj_fade_in,"ax",%progbits
 932              		.align	1
 933              		.global	lv_obj_fade_in
 934              		.syntax unified
 935              		.thumb
 936              		.thumb_func
 938              	lv_obj_fade_in:
 939              	.LVL89:
 940              	.LFB165:
 418:lvgl/src/core/lv_obj_style.c ****     lv_anim_t a;
 941              		.loc 1 418 1 is_stmt 1 view -0
 942              		.cfi_startproc
 943              		@ args = 0, pretend = 0, frame = 72
 944              		@ frame_needed = 0, uses_anonymous_args = 0
 418:lvgl/src/core/lv_obj_style.c ****     lv_anim_t a;
 945              		.loc 1 418 1 is_stmt 0 view .LVU277
 946 0000 70B5     		push	{r4, r5, r6, lr}
 947              	.LCFI9:
 948              		.cfi_def_cfa_offset 16
 949              		.cfi_offset 4, -16
 950              		.cfi_offset 5, -12
 951              		.cfi_offset 6, -8
 952              		.cfi_offset 14, -4
 953 0002 92B0     		sub	sp, sp, #72
 954              	.LCFI10:
 955              		.cfi_def_cfa_offset 88
 956 0004 0646     		mov	r6, r0
 957 0006 0D46     		mov	r5, r1
 958 0008 1446     		mov	r4, r2
 419:lvgl/src/core/lv_obj_style.c ****     lv_anim_init(&a);
 959              		.loc 1 419 5 is_stmt 1 view .LVU278
 420:lvgl/src/core/lv_obj_style.c ****     lv_anim_set_var(&a, obj);
 960              		.loc 1 420 5 view .LVU279
 961 000a 01A8     		add	r0, sp, #4
 962              	.LVL90:
 420:lvgl/src/core/lv_obj_style.c ****     lv_anim_set_var(&a, obj);
 963              		.loc 1 420 5 is_stmt 0 view .LVU280
 964 000c FFF7FEFF 		bl	lv_anim_init
 965              	.LVL91:
 421:lvgl/src/core/lv_obj_style.c ****     lv_anim_set_values(&a, LV_OPA_TRANSP, LV_OPA_COVER);
ARM GAS  C:\Users\BLACK_~1\AppData\Local\Temp\ccbv02In.s 			page 36


 966              		.loc 1 421 5 is_stmt 1 view .LVU281
 967              	.LBB51:
 968              	.LBI51:
 969              		.file 2 "lvgl/src/core/../misc/lv_anim.h"
   1:lvgl/src/core/../misc/lv_anim.h **** /**
   2:lvgl/src/core/../misc/lv_anim.h ****  * @file lv_anim.h
   3:lvgl/src/core/../misc/lv_anim.h ****  *
   4:lvgl/src/core/../misc/lv_anim.h ****  */
   5:lvgl/src/core/../misc/lv_anim.h **** 
   6:lvgl/src/core/../misc/lv_anim.h **** #ifndef LV_ANIM_H
   7:lvgl/src/core/../misc/lv_anim.h **** #define LV_ANIM_H
   8:lvgl/src/core/../misc/lv_anim.h **** 
   9:lvgl/src/core/../misc/lv_anim.h **** #ifdef __cplusplus
  10:lvgl/src/core/../misc/lv_anim.h **** extern "C" {
  11:lvgl/src/core/../misc/lv_anim.h **** #endif
  12:lvgl/src/core/../misc/lv_anim.h **** 
  13:lvgl/src/core/../misc/lv_anim.h **** /*********************
  14:lvgl/src/core/../misc/lv_anim.h ****  *      INCLUDES
  15:lvgl/src/core/../misc/lv_anim.h ****  *********************/
  16:lvgl/src/core/../misc/lv_anim.h **** #include "../lv_conf_internal.h"
  17:lvgl/src/core/../misc/lv_anim.h **** 
  18:lvgl/src/core/../misc/lv_anim.h **** #include <stdint.h>
  19:lvgl/src/core/../misc/lv_anim.h **** #include <stdbool.h>
  20:lvgl/src/core/../misc/lv_anim.h **** #include <string.h>
  21:lvgl/src/core/../misc/lv_anim.h **** 
  22:lvgl/src/core/../misc/lv_anim.h **** /*********************
  23:lvgl/src/core/../misc/lv_anim.h ****  *      DEFINES
  24:lvgl/src/core/../misc/lv_anim.h ****  *********************/
  25:lvgl/src/core/../misc/lv_anim.h **** 
  26:lvgl/src/core/../misc/lv_anim.h **** /**********************
  27:lvgl/src/core/../misc/lv_anim.h ****  *      TYPEDEFS
  28:lvgl/src/core/../misc/lv_anim.h ****  **********************/
  29:lvgl/src/core/../misc/lv_anim.h **** 
  30:lvgl/src/core/../misc/lv_anim.h **** /** Can be used to indicate if animations are enabled or disabled in a case*/
  31:lvgl/src/core/../misc/lv_anim.h **** typedef enum {
  32:lvgl/src/core/../misc/lv_anim.h ****     LV_ANIM_OFF,
  33:lvgl/src/core/../misc/lv_anim.h ****     LV_ANIM_ON,
  34:lvgl/src/core/../misc/lv_anim.h **** }lv_anim_enable_t;
  35:lvgl/src/core/../misc/lv_anim.h **** 
  36:lvgl/src/core/../misc/lv_anim.h **** #define LV_ANIM_REPEAT_INFINITE      0xFFFF
  37:lvgl/src/core/../misc/lv_anim.h **** LV_EXPORT_CONST_INT(LV_ANIM_REPEAT_INFINITE);
  38:lvgl/src/core/../misc/lv_anim.h **** 
  39:lvgl/src/core/../misc/lv_anim.h **** struct _lv_anim_t;
  40:lvgl/src/core/../misc/lv_anim.h **** 
  41:lvgl/src/core/../misc/lv_anim.h **** /** Get the current value during an animation*/
  42:lvgl/src/core/../misc/lv_anim.h **** typedef int32_t (*lv_anim_path_cb_t)(const struct _lv_anim_t *);
  43:lvgl/src/core/../misc/lv_anim.h **** 
  44:lvgl/src/core/../misc/lv_anim.h **** /** Generic prototype of "animator" functions.
  45:lvgl/src/core/../misc/lv_anim.h ****  * First parameter is the variable to animate.
  46:lvgl/src/core/../misc/lv_anim.h ****  * Second parameter is the value to set.
  47:lvgl/src/core/../misc/lv_anim.h ****  * Compatible with `lv_xxx_set_yyy(obj, value)` functions
  48:lvgl/src/core/../misc/lv_anim.h ****  * The `x` in `_xcb_t` means its not a fully generic prototype because
  49:lvgl/src/core/../misc/lv_anim.h ****  * it doesn't receive `lv_anim_t *` as its first argument*/
  50:lvgl/src/core/../misc/lv_anim.h **** typedef void (*lv_anim_exec_xcb_t)(void *, int32_t);
  51:lvgl/src/core/../misc/lv_anim.h **** 
  52:lvgl/src/core/../misc/lv_anim.h **** /** Same as `lv_anim_exec_xcb_t` but receives `lv_anim_t *` as the first parameter.
  53:lvgl/src/core/../misc/lv_anim.h ****  * It's more consistent but less convenient. Might be used by binding generator functions.*/
ARM GAS  C:\Users\BLACK_~1\AppData\Local\Temp\ccbv02In.s 			page 37


  54:lvgl/src/core/../misc/lv_anim.h **** typedef void (*lv_anim_custom_exec_cb_t)(struct _lv_anim_t *, int32_t);
  55:lvgl/src/core/../misc/lv_anim.h **** 
  56:lvgl/src/core/../misc/lv_anim.h **** /** Callback to call when the animation is ready*/
  57:lvgl/src/core/../misc/lv_anim.h **** typedef void (*lv_anim_ready_cb_t)(struct _lv_anim_t *);
  58:lvgl/src/core/../misc/lv_anim.h **** 
  59:lvgl/src/core/../misc/lv_anim.h **** /** Callback to call when the animation really stars (considering `delay`)*/
  60:lvgl/src/core/../misc/lv_anim.h **** typedef void (*lv_anim_start_cb_t)(struct _lv_anim_t *);
  61:lvgl/src/core/../misc/lv_anim.h **** 
  62:lvgl/src/core/../misc/lv_anim.h **** /** Callback used when the animation values are relative to get the current value*/
  63:lvgl/src/core/../misc/lv_anim.h **** typedef int32_t (*lv_anim_get_value_cb_t)(struct _lv_anim_t *);
  64:lvgl/src/core/../misc/lv_anim.h **** 
  65:lvgl/src/core/../misc/lv_anim.h **** /** Describes an animation*/
  66:lvgl/src/core/../misc/lv_anim.h **** typedef struct _lv_anim_t {
  67:lvgl/src/core/../misc/lv_anim.h ****     void * var;                          /**<Variable to animate*/
  68:lvgl/src/core/../misc/lv_anim.h ****     lv_anim_exec_xcb_t exec_cb;          /**< Function to execute to animate*/
  69:lvgl/src/core/../misc/lv_anim.h ****     lv_anim_start_cb_t start_cb;         /**< Call it when the animation is starts (considering `de
  70:lvgl/src/core/../misc/lv_anim.h ****     lv_anim_ready_cb_t ready_cb;         /**< Call it when the animation is ready*/
  71:lvgl/src/core/../misc/lv_anim.h ****     lv_anim_get_value_cb_t get_value_cb; /**< Get the current value in relative mode*/
  72:lvgl/src/core/../misc/lv_anim.h **** #if LV_USE_USER_DATA
  73:lvgl/src/core/../misc/lv_anim.h ****     void * user_data; /**< Custom user data*/
  74:lvgl/src/core/../misc/lv_anim.h **** #endif
  75:lvgl/src/core/../misc/lv_anim.h ****     lv_anim_path_cb_t path_cb;         /**< Describe the path (curve) of animations*/
  76:lvgl/src/core/../misc/lv_anim.h ****     int32_t start_value;               /**< Start value*/
  77:lvgl/src/core/../misc/lv_anim.h ****     int32_t current_value;             /**< Current value*/
  78:lvgl/src/core/../misc/lv_anim.h ****     int32_t end_value;                 /**< End value*/
  79:lvgl/src/core/../misc/lv_anim.h ****     int32_t time;                /**< Animation time in ms*/
  80:lvgl/src/core/../misc/lv_anim.h ****     int32_t act_time;            /**< Current time in animation. Set to negative to make delay.*/
  81:lvgl/src/core/../misc/lv_anim.h ****     uint32_t playback_delay;     /**< Wait before play back*/
  82:lvgl/src/core/../misc/lv_anim.h ****     uint32_t playback_time;      /**< Duration of playback animation*/
  83:lvgl/src/core/../misc/lv_anim.h ****     uint32_t repeat_delay;       /**< Wait before repeat*/
  84:lvgl/src/core/../misc/lv_anim.h ****     uint16_t repeat_cnt;         /**< Repeat count for the animation*/
  85:lvgl/src/core/../misc/lv_anim.h ****     uint8_t early_apply  : 1;    /**< 1: Apply start value immediately even is there is `delay`*/
  86:lvgl/src/core/../misc/lv_anim.h **** 
  87:lvgl/src/core/../misc/lv_anim.h ****     /*Animation system use these - user shouldn't set*/
  88:lvgl/src/core/../misc/lv_anim.h ****     uint8_t playback_now : 1; /**< Play back is in progress*/
  89:lvgl/src/core/../misc/lv_anim.h ****     uint8_t run_round : 1;    /**< Indicates the animation has run in this round*/
  90:lvgl/src/core/../misc/lv_anim.h ****     uint8_t start_cb_called : 1;    /**< Indicates that the `start_cb` was already called*/
  91:lvgl/src/core/../misc/lv_anim.h ****     uint32_t time_orig;
  92:lvgl/src/core/../misc/lv_anim.h **** } lv_anim_t;
  93:lvgl/src/core/../misc/lv_anim.h **** 
  94:lvgl/src/core/../misc/lv_anim.h **** /**********************
  95:lvgl/src/core/../misc/lv_anim.h ****  * GLOBAL PROTOTYPES
  96:lvgl/src/core/../misc/lv_anim.h ****  **********************/
  97:lvgl/src/core/../misc/lv_anim.h **** 
  98:lvgl/src/core/../misc/lv_anim.h **** /**
  99:lvgl/src/core/../misc/lv_anim.h ****  * Init. the animation module
 100:lvgl/src/core/../misc/lv_anim.h ****  */
 101:lvgl/src/core/../misc/lv_anim.h **** void _lv_anim_core_init(void);
 102:lvgl/src/core/../misc/lv_anim.h **** 
 103:lvgl/src/core/../misc/lv_anim.h **** /**
 104:lvgl/src/core/../misc/lv_anim.h ****  * Initialize an animation variable.
 105:lvgl/src/core/../misc/lv_anim.h ****  * E.g.:
 106:lvgl/src/core/../misc/lv_anim.h ****  * lv_anim_t a;
 107:lvgl/src/core/../misc/lv_anim.h ****  * lv_anim_init(&a);
 108:lvgl/src/core/../misc/lv_anim.h ****  * lv_anim_set_...(&a);
 109:lvgl/src/core/../misc/lv_anim.h ****  * lv_anim_start(&a);
 110:lvgl/src/core/../misc/lv_anim.h ****  * @param a     pointer to an `lv_anim_t` variable to initialize
ARM GAS  C:\Users\BLACK_~1\AppData\Local\Temp\ccbv02In.s 			page 38


 111:lvgl/src/core/../misc/lv_anim.h ****  */
 112:lvgl/src/core/../misc/lv_anim.h **** void lv_anim_init(lv_anim_t * a);
 113:lvgl/src/core/../misc/lv_anim.h **** 
 114:lvgl/src/core/../misc/lv_anim.h **** /**
 115:lvgl/src/core/../misc/lv_anim.h ****  * Set a variable to animate
 116:lvgl/src/core/../misc/lv_anim.h ****  * @param a     pointer to an initialized `lv_anim_t` variable
 117:lvgl/src/core/../misc/lv_anim.h ****  * @param var   pointer to a variable to animate
 118:lvgl/src/core/../misc/lv_anim.h ****  */
 119:lvgl/src/core/../misc/lv_anim.h **** static inline void lv_anim_set_var(lv_anim_t * a, void * var)
 970              		.loc 2 119 20 view .LVU282
 971              	.LBB52:
 120:lvgl/src/core/../misc/lv_anim.h **** {
 121:lvgl/src/core/../misc/lv_anim.h ****     a->var = var;
 972              		.loc 2 121 5 view .LVU283
 973              		.loc 2 121 12 is_stmt 0 view .LVU284
 974 0010 0196     		str	r6, [sp, #4]
 975              	.LVL92:
 976              		.loc 2 121 12 view .LVU285
 977              	.LBE52:
 978              	.LBE51:
 422:lvgl/src/core/lv_obj_style.c ****     lv_anim_set_exec_cb(&a, fade_anim_cb);
 979              		.loc 1 422 5 is_stmt 1 view .LVU286
 980              	.LBB53:
 981              	.LBI53:
 122:lvgl/src/core/../misc/lv_anim.h **** }
 123:lvgl/src/core/../misc/lv_anim.h **** 
 124:lvgl/src/core/../misc/lv_anim.h **** /**
 125:lvgl/src/core/../misc/lv_anim.h ****  * Set a function to animate `var`
 126:lvgl/src/core/../misc/lv_anim.h ****  * @param a         pointer to an initialized `lv_anim_t` variable
 127:lvgl/src/core/../misc/lv_anim.h ****  * @param exec_cb   a function to execute during animation
 128:lvgl/src/core/../misc/lv_anim.h ****  *                  LVGL's built-in functions can be used.
 129:lvgl/src/core/../misc/lv_anim.h ****  *                  E.g. lv_obj_set_x
 130:lvgl/src/core/../misc/lv_anim.h ****  */
 131:lvgl/src/core/../misc/lv_anim.h **** static inline void lv_anim_set_exec_cb(lv_anim_t * a, lv_anim_exec_xcb_t exec_cb)
 132:lvgl/src/core/../misc/lv_anim.h **** {
 133:lvgl/src/core/../misc/lv_anim.h ****     a->exec_cb = exec_cb;
 134:lvgl/src/core/../misc/lv_anim.h **** }
 135:lvgl/src/core/../misc/lv_anim.h **** 
 136:lvgl/src/core/../misc/lv_anim.h **** /**
 137:lvgl/src/core/../misc/lv_anim.h ****  * Set the duration of an animation
 138:lvgl/src/core/../misc/lv_anim.h ****  * @param a         pointer to an initialized `lv_anim_t` variable
 139:lvgl/src/core/../misc/lv_anim.h ****  * @param duration  duration of the animation in milliseconds
 140:lvgl/src/core/../misc/lv_anim.h ****  */
 141:lvgl/src/core/../misc/lv_anim.h **** static inline void lv_anim_set_time(lv_anim_t * a, uint32_t duration)
 142:lvgl/src/core/../misc/lv_anim.h **** {
 143:lvgl/src/core/../misc/lv_anim.h ****     a->time = duration;
 144:lvgl/src/core/../misc/lv_anim.h **** }
 145:lvgl/src/core/../misc/lv_anim.h **** 
 146:lvgl/src/core/../misc/lv_anim.h **** /**
 147:lvgl/src/core/../misc/lv_anim.h ****  * Set a delay before starting the animation
 148:lvgl/src/core/../misc/lv_anim.h ****  * @param a         pointer to an initialized `lv_anim_t` variable
 149:lvgl/src/core/../misc/lv_anim.h ****  * @param delay     delay before the animation in milliseconds
 150:lvgl/src/core/../misc/lv_anim.h ****  */
 151:lvgl/src/core/../misc/lv_anim.h **** static inline void lv_anim_set_delay(lv_anim_t * a, uint32_t delay)
 152:lvgl/src/core/../misc/lv_anim.h **** {
 153:lvgl/src/core/../misc/lv_anim.h ****     a->act_time = -(int32_t)(delay);
 154:lvgl/src/core/../misc/lv_anim.h **** }
ARM GAS  C:\Users\BLACK_~1\AppData\Local\Temp\ccbv02In.s 			page 39


 155:lvgl/src/core/../misc/lv_anim.h **** 
 156:lvgl/src/core/../misc/lv_anim.h **** /**
 157:lvgl/src/core/../misc/lv_anim.h ****  * Set the start and end values of an animation
 158:lvgl/src/core/../misc/lv_anim.h ****  * @param a         pointer to an initialized `lv_anim_t` variable
 159:lvgl/src/core/../misc/lv_anim.h ****  * @param start     the start value
 160:lvgl/src/core/../misc/lv_anim.h ****  * @param end       the end value
 161:lvgl/src/core/../misc/lv_anim.h ****  */
 162:lvgl/src/core/../misc/lv_anim.h **** static inline void lv_anim_set_values(lv_anim_t * a, int32_t start, int32_t end)
 982              		.loc 2 162 20 view .LVU287
 983              	.LBB54:
 163:lvgl/src/core/../misc/lv_anim.h **** {
 164:lvgl/src/core/../misc/lv_anim.h ****     a->start_value = start;
 984              		.loc 2 164 5 view .LVU288
 985              		.loc 2 164 20 is_stmt 0 view .LVU289
 986 0012 0023     		movs	r3, #0
 987 0014 0893     		str	r3, [sp, #32]
 165:lvgl/src/core/../misc/lv_anim.h ****     a->current_value = start;
 988              		.loc 2 165 5 is_stmt 1 view .LVU290
 989              		.loc 2 165 22 is_stmt 0 view .LVU291
 990 0016 0993     		str	r3, [sp, #36]
 166:lvgl/src/core/../misc/lv_anim.h ****     a->end_value = end;
 991              		.loc 2 166 5 is_stmt 1 view .LVU292
 992              		.loc 2 166 18 is_stmt 0 view .LVU293
 993 0018 FF23     		movs	r3, #255
 994 001a 0A93     		str	r3, [sp, #40]
 995              	.LVL93:
 996              		.loc 2 166 18 view .LVU294
 997              	.LBE54:
 998              	.LBE53:
 423:lvgl/src/core/lv_obj_style.c ****     lv_anim_set_ready_cb(&a, fade_in_anim_ready);
 999              		.loc 1 423 5 is_stmt 1 view .LVU295
 1000              	.LBB55:
 1001              	.LBI55:
 131:lvgl/src/core/../misc/lv_anim.h **** {
 1002              		.loc 2 131 20 view .LVU296
 1003              	.LBB56:
 133:lvgl/src/core/../misc/lv_anim.h **** }
 1004              		.loc 2 133 5 view .LVU297
 133:lvgl/src/core/../misc/lv_anim.h **** }
 1005              		.loc 2 133 16 is_stmt 0 view .LVU298
 1006 001c 054B     		ldr	r3, .L72
 1007 001e 0293     		str	r3, [sp, #8]
 1008              	.LVL94:
 133:lvgl/src/core/../misc/lv_anim.h **** }
 1009              		.loc 2 133 16 view .LVU299
 1010              	.LBE56:
 1011              	.LBE55:
 424:lvgl/src/core/lv_obj_style.c ****     lv_anim_set_time(&a, time);
 1012              		.loc 1 424 5 is_stmt 1 view .LVU300
 1013              	.LBB57:
 1014              	.LBI57:
 167:lvgl/src/core/../misc/lv_anim.h **** }
 168:lvgl/src/core/../misc/lv_anim.h **** 
 169:lvgl/src/core/../misc/lv_anim.h **** /**
 170:lvgl/src/core/../misc/lv_anim.h ****  * Similar to `lv_anim_set_exec_cb` but `lv_anim_custom_exec_cb_t` receives
 171:lvgl/src/core/../misc/lv_anim.h ****  * `lv_anim_t * ` as its first parameter instead of `void *`.
 172:lvgl/src/core/../misc/lv_anim.h ****  * This function might be used when LVGL is binded to other languages because
ARM GAS  C:\Users\BLACK_~1\AppData\Local\Temp\ccbv02In.s 			page 40


 173:lvgl/src/core/../misc/lv_anim.h ****  * it's more consistent to have `lv_anim_t *` as first parameter.
 174:lvgl/src/core/../misc/lv_anim.h ****  * The variable to animate can be stored in the animation's `user_sata`
 175:lvgl/src/core/../misc/lv_anim.h ****  * @param a         pointer to an initialized `lv_anim_t` variable
 176:lvgl/src/core/../misc/lv_anim.h ****  * @param exec_cb   a function to execute.
 177:lvgl/src/core/../misc/lv_anim.h ****  */
 178:lvgl/src/core/../misc/lv_anim.h **** static inline void lv_anim_set_custom_exec_cb(lv_anim_t * a, lv_anim_custom_exec_cb_t exec_cb)
 179:lvgl/src/core/../misc/lv_anim.h **** {
 180:lvgl/src/core/../misc/lv_anim.h ****     a->var     = a;
 181:lvgl/src/core/../misc/lv_anim.h ****     a->exec_cb = (lv_anim_exec_xcb_t)exec_cb;
 182:lvgl/src/core/../misc/lv_anim.h **** }
 183:lvgl/src/core/../misc/lv_anim.h **** 
 184:lvgl/src/core/../misc/lv_anim.h **** /**
 185:lvgl/src/core/../misc/lv_anim.h ****  * Set the path (curve) of the animation.
 186:lvgl/src/core/../misc/lv_anim.h ****  * @param a         pointer to an initialized `lv_anim_t` variable
 187:lvgl/src/core/../misc/lv_anim.h ****  * @param path_cb a function the get the current value of the animation.
 188:lvgl/src/core/../misc/lv_anim.h ****  */
 189:lvgl/src/core/../misc/lv_anim.h **** static inline void lv_anim_set_path_cb(lv_anim_t * a, lv_anim_path_cb_t path_cb)
 190:lvgl/src/core/../misc/lv_anim.h **** {
 191:lvgl/src/core/../misc/lv_anim.h ****     a->path_cb = path_cb;
 192:lvgl/src/core/../misc/lv_anim.h **** }
 193:lvgl/src/core/../misc/lv_anim.h **** 
 194:lvgl/src/core/../misc/lv_anim.h **** /**
 195:lvgl/src/core/../misc/lv_anim.h ****  * Set a function call when the animation really starts (considering `delay`)
 196:lvgl/src/core/../misc/lv_anim.h ****  * @param a         pointer to an initialized `lv_anim_t` variable
 197:lvgl/src/core/../misc/lv_anim.h ****  * @param start_cb  a function call when the animation starts
 198:lvgl/src/core/../misc/lv_anim.h ****  */
 199:lvgl/src/core/../misc/lv_anim.h **** static inline void lv_anim_set_start_cb(lv_anim_t * a, lv_anim_ready_cb_t start_cb)
 200:lvgl/src/core/../misc/lv_anim.h **** {
 201:lvgl/src/core/../misc/lv_anim.h ****     a->start_cb = start_cb;
 202:lvgl/src/core/../misc/lv_anim.h **** }
 203:lvgl/src/core/../misc/lv_anim.h **** 
 204:lvgl/src/core/../misc/lv_anim.h **** /**
 205:lvgl/src/core/../misc/lv_anim.h ****  * Set a function to use the current value of the variable and make start and end value
 206:lvgl/src/core/../misc/lv_anim.h ****  * relative the the returned current value.
 207:lvgl/src/core/../misc/lv_anim.h ****  * @param a             pointer to an initialized `lv_anim_t` variable
 208:lvgl/src/core/../misc/lv_anim.h ****  * @param get_value_cb  a function call when the animation starts
 209:lvgl/src/core/../misc/lv_anim.h ****  */
 210:lvgl/src/core/../misc/lv_anim.h **** static inline void lv_anim_set_get_value_cb(lv_anim_t * a, lv_anim_get_value_cb_t get_value_cb)
 211:lvgl/src/core/../misc/lv_anim.h **** {
 212:lvgl/src/core/../misc/lv_anim.h ****     a->get_value_cb = get_value_cb;
 213:lvgl/src/core/../misc/lv_anim.h **** }
 214:lvgl/src/core/../misc/lv_anim.h **** 
 215:lvgl/src/core/../misc/lv_anim.h **** /**
 216:lvgl/src/core/../misc/lv_anim.h ****  * Set a function call when the animation is ready
 217:lvgl/src/core/../misc/lv_anim.h ****  * @param a         pointer to an initialized `lv_anim_t` variable
 218:lvgl/src/core/../misc/lv_anim.h ****  * @param ready_cb  a function call when the animation is ready
 219:lvgl/src/core/../misc/lv_anim.h ****  */
 220:lvgl/src/core/../misc/lv_anim.h **** static inline void lv_anim_set_ready_cb(lv_anim_t * a, lv_anim_ready_cb_t ready_cb)
 1015              		.loc 2 220 20 view .LVU301
 1016              	.LBB58:
 221:lvgl/src/core/../misc/lv_anim.h **** {
 222:lvgl/src/core/../misc/lv_anim.h ****     a->ready_cb = ready_cb;
 1017              		.loc 2 222 5 view .LVU302
 1018              		.loc 2 222 17 is_stmt 0 view .LVU303
 1019 0020 054B     		ldr	r3, .L72+4
 1020 0022 0493     		str	r3, [sp, #16]
 1021              	.LVL95:
ARM GAS  C:\Users\BLACK_~1\AppData\Local\Temp\ccbv02In.s 			page 41


 1022              		.loc 2 222 17 view .LVU304
 1023              	.LBE58:
 1024              	.LBE57:
 425:lvgl/src/core/lv_obj_style.c ****     lv_anim_set_delay(&a, delay);
 1025              		.loc 1 425 5 is_stmt 1 view .LVU305
 1026              	.LBB59:
 1027              	.LBI59:
 141:lvgl/src/core/../misc/lv_anim.h **** {
 1028              		.loc 2 141 20 view .LVU306
 1029              	.LBB60:
 143:lvgl/src/core/../misc/lv_anim.h **** }
 1030              		.loc 2 143 5 view .LVU307
 143:lvgl/src/core/../misc/lv_anim.h **** }
 1031              		.loc 2 143 13 is_stmt 0 view .LVU308
 1032 0024 0B95     		str	r5, [sp, #44]
 1033              	.LVL96:
 143:lvgl/src/core/../misc/lv_anim.h **** }
 1034              		.loc 2 143 13 view .LVU309
 1035              	.LBE60:
 1036              	.LBE59:
 426:lvgl/src/core/lv_obj_style.c ****     lv_anim_start(&a);
 1037              		.loc 1 426 5 is_stmt 1 view .LVU310
 1038              	.LBB61:
 1039              	.LBI61:
 151:lvgl/src/core/../misc/lv_anim.h **** {
 1040              		.loc 2 151 20 view .LVU311
 1041              	.LBB62:
 153:lvgl/src/core/../misc/lv_anim.h **** }
 1042              		.loc 2 153 5 view .LVU312
 153:lvgl/src/core/../misc/lv_anim.h **** }
 1043              		.loc 2 153 19 is_stmt 0 view .LVU313
 1044 0026 6442     		rsbs	r4, r4, #0
 1045              	.LVL97:
 153:lvgl/src/core/../misc/lv_anim.h **** }
 1046              		.loc 2 153 17 view .LVU314
 1047 0028 0C94     		str	r4, [sp, #48]
 1048              	.LVL98:
 153:lvgl/src/core/../misc/lv_anim.h **** }
 1049              		.loc 2 153 17 view .LVU315
 1050              	.LBE62:
 1051              	.LBE61:
 427:lvgl/src/core/lv_obj_style.c **** }
 1052              		.loc 1 427 5 is_stmt 1 view .LVU316
 1053 002a 01A8     		add	r0, sp, #4
 1054 002c FFF7FEFF 		bl	lv_anim_start
 1055              	.LVL99:
 428:lvgl/src/core/lv_obj_style.c **** 
 1056              		.loc 1 428 1 is_stmt 0 view .LVU317
 1057 0030 12B0     		add	sp, sp, #72
 1058              	.LCFI11:
 1059              		.cfi_def_cfa_offset 16
 1060              		@ sp needed
 1061 0032 70BD     		pop	{r4, r5, r6, pc}
 1062              	.LVL100:
 1063              	.L73:
 428:lvgl/src/core/lv_obj_style.c **** 
 1064              		.loc 1 428 1 view .LVU318
ARM GAS  C:\Users\BLACK_~1\AppData\Local\Temp\ccbv02In.s 			page 42


 1065              		.align	2
 1066              	.L72:
 1067 0034 00000000 		.word	fade_anim_cb
 1068 0038 00000000 		.word	fade_in_anim_ready
 1069              		.cfi_endproc
 1070              	.LFE165:
 1072              		.section	.text.lv_obj_fade_out,"ax",%progbits
 1073              		.align	1
 1074              		.global	lv_obj_fade_out
 1075              		.syntax unified
 1076              		.thumb
 1077              		.thumb_func
 1079              	lv_obj_fade_out:
 1080              	.LVL101:
 1081              	.LFB166:
 431:lvgl/src/core/lv_obj_style.c ****     lv_anim_t a;
 1082              		.loc 1 431 1 is_stmt 1 view -0
 1083              		.cfi_startproc
 1084              		@ args = 0, pretend = 0, frame = 72
 1085              		@ frame_needed = 0, uses_anonymous_args = 0
 431:lvgl/src/core/lv_obj_style.c ****     lv_anim_t a;
 1086              		.loc 1 431 1 is_stmt 0 view .LVU320
 1087 0000 70B5     		push	{r4, r5, r6, lr}
 1088              	.LCFI12:
 1089              		.cfi_def_cfa_offset 16
 1090              		.cfi_offset 4, -16
 1091              		.cfi_offset 5, -12
 1092              		.cfi_offset 6, -8
 1093              		.cfi_offset 14, -4
 1094 0002 92B0     		sub	sp, sp, #72
 1095              	.LCFI13:
 1096              		.cfi_def_cfa_offset 88
 1097 0004 0646     		mov	r6, r0
 1098 0006 0D46     		mov	r5, r1
 1099 0008 1446     		mov	r4, r2
 432:lvgl/src/core/lv_obj_style.c ****     lv_anim_init(&a);
 1100              		.loc 1 432 5 is_stmt 1 view .LVU321
 433:lvgl/src/core/lv_obj_style.c ****     lv_anim_set_var(&a, obj);
 1101              		.loc 1 433 5 view .LVU322
 1102 000a 01A8     		add	r0, sp, #4
 1103              	.LVL102:
 433:lvgl/src/core/lv_obj_style.c ****     lv_anim_set_var(&a, obj);
 1104              		.loc 1 433 5 is_stmt 0 view .LVU323
 1105 000c FFF7FEFF 		bl	lv_anim_init
 1106              	.LVL103:
 434:lvgl/src/core/lv_obj_style.c ****     lv_anim_set_values(&a, LV_OPA_COVER, LV_OPA_TRANSP);
 1107              		.loc 1 434 5 is_stmt 1 view .LVU324
 1108              	.LBB63:
 1109              	.LBI63:
 119:lvgl/src/core/../misc/lv_anim.h **** {
 1110              		.loc 2 119 20 view .LVU325
 1111              	.LBB64:
 121:lvgl/src/core/../misc/lv_anim.h **** }
 1112              		.loc 2 121 5 view .LVU326
 121:lvgl/src/core/../misc/lv_anim.h **** }
 1113              		.loc 2 121 12 is_stmt 0 view .LVU327
 1114 0010 0196     		str	r6, [sp, #4]
ARM GAS  C:\Users\BLACK_~1\AppData\Local\Temp\ccbv02In.s 			page 43


 1115              	.LVL104:
 121:lvgl/src/core/../misc/lv_anim.h **** }
 1116              		.loc 2 121 12 view .LVU328
 1117              	.LBE64:
 1118              	.LBE63:
 435:lvgl/src/core/lv_obj_style.c ****     lv_anim_set_exec_cb(&a, fade_anim_cb);
 1119              		.loc 1 435 5 is_stmt 1 view .LVU329
 1120              	.LBB65:
 1121              	.LBI65:
 162:lvgl/src/core/../misc/lv_anim.h **** {
 1122              		.loc 2 162 20 view .LVU330
 1123              	.LBB66:
 164:lvgl/src/core/../misc/lv_anim.h ****     a->current_value = start;
 1124              		.loc 2 164 5 view .LVU331
 164:lvgl/src/core/../misc/lv_anim.h ****     a->current_value = start;
 1125              		.loc 2 164 20 is_stmt 0 view .LVU332
 1126 0012 FF23     		movs	r3, #255
 1127 0014 0893     		str	r3, [sp, #32]
 165:lvgl/src/core/../misc/lv_anim.h ****     a->end_value = end;
 1128              		.loc 2 165 5 is_stmt 1 view .LVU333
 165:lvgl/src/core/../misc/lv_anim.h ****     a->end_value = end;
 1129              		.loc 2 165 22 is_stmt 0 view .LVU334
 1130 0016 0993     		str	r3, [sp, #36]
 166:lvgl/src/core/../misc/lv_anim.h **** }
 1131              		.loc 2 166 5 is_stmt 1 view .LVU335
 166:lvgl/src/core/../misc/lv_anim.h **** }
 1132              		.loc 2 166 18 is_stmt 0 view .LVU336
 1133 0018 0023     		movs	r3, #0
 1134 001a 0A93     		str	r3, [sp, #40]
 1135              	.LVL105:
 166:lvgl/src/core/../misc/lv_anim.h **** }
 1136              		.loc 2 166 18 view .LVU337
 1137              	.LBE66:
 1138              	.LBE65:
 436:lvgl/src/core/lv_obj_style.c ****     lv_anim_set_time(&a, time);
 1139              		.loc 1 436 5 is_stmt 1 view .LVU338
 1140              	.LBB67:
 1141              	.LBI67:
 131:lvgl/src/core/../misc/lv_anim.h **** {
 1142              		.loc 2 131 20 view .LVU339
 1143              	.LBB68:
 133:lvgl/src/core/../misc/lv_anim.h **** }
 1144              		.loc 2 133 5 view .LVU340
 133:lvgl/src/core/../misc/lv_anim.h **** }
 1145              		.loc 2 133 16 is_stmt 0 view .LVU341
 1146 001c 044B     		ldr	r3, .L76
 1147 001e 0293     		str	r3, [sp, #8]
 1148              	.LVL106:
 133:lvgl/src/core/../misc/lv_anim.h **** }
 1149              		.loc 2 133 16 view .LVU342
 1150              	.LBE68:
 1151              	.LBE67:
 437:lvgl/src/core/lv_obj_style.c ****     lv_anim_set_delay(&a, delay);
 1152              		.loc 1 437 5 is_stmt 1 view .LVU343
 1153              	.LBB69:
 1154              	.LBI69:
 141:lvgl/src/core/../misc/lv_anim.h **** {
ARM GAS  C:\Users\BLACK_~1\AppData\Local\Temp\ccbv02In.s 			page 44


 1155              		.loc 2 141 20 view .LVU344
 1156              	.LBB70:
 143:lvgl/src/core/../misc/lv_anim.h **** }
 1157              		.loc 2 143 5 view .LVU345
 143:lvgl/src/core/../misc/lv_anim.h **** }
 1158              		.loc 2 143 13 is_stmt 0 view .LVU346
 1159 0020 0B95     		str	r5, [sp, #44]
 1160              	.LVL107:
 143:lvgl/src/core/../misc/lv_anim.h **** }
 1161              		.loc 2 143 13 view .LVU347
 1162              	.LBE70:
 1163              	.LBE69:
 438:lvgl/src/core/lv_obj_style.c ****     lv_anim_start(&a);
 1164              		.loc 1 438 5 is_stmt 1 view .LVU348
 1165              	.LBB71:
 1166              	.LBI71:
 151:lvgl/src/core/../misc/lv_anim.h **** {
 1167              		.loc 2 151 20 view .LVU349
 1168              	.LBB72:
 153:lvgl/src/core/../misc/lv_anim.h **** }
 1169              		.loc 2 153 5 view .LVU350
 153:lvgl/src/core/../misc/lv_anim.h **** }
 1170              		.loc 2 153 19 is_stmt 0 view .LVU351
 1171 0022 6442     		rsbs	r4, r4, #0
 1172              	.LVL108:
 153:lvgl/src/core/../misc/lv_anim.h **** }
 1173              		.loc 2 153 17 view .LVU352
 1174 0024 0C94     		str	r4, [sp, #48]
 1175              	.LVL109:
 153:lvgl/src/core/../misc/lv_anim.h **** }
 1176              		.loc 2 153 17 view .LVU353
 1177              	.LBE72:
 1178              	.LBE71:
 439:lvgl/src/core/lv_obj_style.c **** }
 1179              		.loc 1 439 5 is_stmt 1 view .LVU354
 1180 0026 01A8     		add	r0, sp, #4
 1181 0028 FFF7FEFF 		bl	lv_anim_start
 1182              	.LVL110:
 440:lvgl/src/core/lv_obj_style.c **** 
 1183              		.loc 1 440 1 is_stmt 0 view .LVU355
 1184 002c 12B0     		add	sp, sp, #72
 1185              	.LCFI14:
 1186              		.cfi_def_cfa_offset 16
 1187              		@ sp needed
 1188 002e 70BD     		pop	{r4, r5, r6, pc}
 1189              	.LVL111:
 1190              	.L77:
 440:lvgl/src/core/lv_obj_style.c **** 
 1191              		.loc 1 440 1 view .LVU356
 1192              		.align	2
 1193              	.L76:
 1194 0030 00000000 		.word	fade_anim_cb
 1195              		.cfi_endproc
 1196              	.LFE166:
 1198              		.section	.text.lv_obj_style_get_selector_state,"ax",%progbits
 1199              		.align	1
 1200              		.global	lv_obj_style_get_selector_state
ARM GAS  C:\Users\BLACK_~1\AppData\Local\Temp\ccbv02In.s 			page 45


 1201              		.syntax unified
 1202              		.thumb
 1203              		.thumb_func
 1205              	lv_obj_style_get_selector_state:
 1206              	.LVL112:
 1207              	.LFB167:
 443:lvgl/src/core/lv_obj_style.c ****     return selector & 0xFFFF;
 1208              		.loc 1 443 1 is_stmt 1 view -0
 1209              		.cfi_startproc
 1210              		@ args = 0, pretend = 0, frame = 0
 1211              		@ frame_needed = 0, uses_anonymous_args = 0
 1212              		@ link register save eliminated.
 444:lvgl/src/core/lv_obj_style.c **** }
 1213              		.loc 1 444 5 view .LVU358
 445:lvgl/src/core/lv_obj_style.c **** 
 1214              		.loc 1 445 1 is_stmt 0 view .LVU359
 1215 0000 80B2     		uxth	r0, r0
 1216              	.LVL113:
 445:lvgl/src/core/lv_obj_style.c **** 
 1217              		.loc 1 445 1 view .LVU360
 1218 0002 7047     		bx	lr
 1219              		.cfi_endproc
 1220              	.LFE167:
 1222              		.section	.text.lv_obj_style_get_selector_part,"ax",%progbits
 1223              		.align	1
 1224              		.global	lv_obj_style_get_selector_part
 1225              		.syntax unified
 1226              		.thumb
 1227              		.thumb_func
 1229              	lv_obj_style_get_selector_part:
 1230              	.LVL114:
 1231              	.LFB168:
 448:lvgl/src/core/lv_obj_style.c ****     return selector & 0xFF0000;
 1232              		.loc 1 448 1 is_stmt 1 view -0
 1233              		.cfi_startproc
 1234              		@ args = 0, pretend = 0, frame = 0
 1235              		@ frame_needed = 0, uses_anonymous_args = 0
 1236              		@ link register save eliminated.
 449:lvgl/src/core/lv_obj_style.c **** }
 1237              		.loc 1 449 5 view .LVU362
 450:lvgl/src/core/lv_obj_style.c **** 
 1238              		.loc 1 450 1 is_stmt 0 view .LVU363
 1239 0000 00F47F00 		and	r0, r0, #16711680
 1240              	.LVL115:
 450:lvgl/src/core/lv_obj_style.c **** 
 1241              		.loc 1 450 1 view .LVU364
 1242 0004 7047     		bx	lr
 1243              		.cfi_endproc
 1244              	.LFE168:
 1246              		.section	.text.lv_obj_refresh_style,"ax",%progbits
 1247              		.align	1
 1248              		.global	lv_obj_refresh_style
 1249              		.syntax unified
 1250              		.thumb
 1251              		.thumb_func
 1253              	lv_obj_refresh_style:
 1254              	.LVL116:
ARM GAS  C:\Users\BLACK_~1\AppData\Local\Temp\ccbv02In.s 			page 46


 1255              	.LFB157:
 169:lvgl/src/core/lv_obj_style.c ****     LV_ASSERT_OBJ(obj, MY_CLASS);
 1256              		.loc 1 169 1 is_stmt 1 view -0
 1257              		.cfi_startproc
 1258              		@ args = 0, pretend = 0, frame = 0
 1259              		@ frame_needed = 0, uses_anonymous_args = 0
 170:lvgl/src/core/lv_obj_style.c **** 
 1260              		.loc 1 170 5 view .LVU366
 170:lvgl/src/core/lv_obj_style.c **** 
 1261              		.loc 1 170 5 view .LVU367
 170:lvgl/src/core/lv_obj_style.c **** 
 1262              		.loc 1 170 5 view .LVU368
 172:lvgl/src/core/lv_obj_style.c **** 
 1263              		.loc 1 172 5 view .LVU369
 172:lvgl/src/core/lv_obj_style.c **** 
 1264              		.loc 1 172 8 is_stmt 0 view .LVU370
 1265 0000 284B     		ldr	r3, .L97
 1266 0002 1B78     		ldrb	r3, [r3]	@ zero_extendqisi2
 172:lvgl/src/core/lv_obj_style.c **** 
 1267              		.loc 1 172 7 view .LVU371
 1268 0004 03B9     		cbnz	r3, .L95
 1269 0006 7047     		bx	lr
 1270              	.L95:
 169:lvgl/src/core/lv_obj_style.c ****     LV_ASSERT_OBJ(obj, MY_CLASS);
 1271              		.loc 1 169 1 view .LVU372
 1272 0008 70B5     		push	{r4, r5, r6, lr}
 1273              	.LCFI15:
 1274              		.cfi_def_cfa_offset 16
 1275              		.cfi_offset 4, -16
 1276              		.cfi_offset 5, -12
 1277              		.cfi_offset 6, -8
 1278              		.cfi_offset 14, -4
 1279 000a 0646     		mov	r6, r0
 1280 000c 0D46     		mov	r5, r1
 1281 000e 1446     		mov	r4, r2
 174:lvgl/src/core/lv_obj_style.c **** 
 1282              		.loc 1 174 5 is_stmt 1 view .LVU373
 1283 0010 FFF7FEFF 		bl	lv_obj_invalidate
 1284              	.LVL117:
 176:lvgl/src/core/lv_obj_style.c **** 
 1285              		.loc 1 176 5 view .LVU374
 176:lvgl/src/core/lv_obj_style.c **** 
 1286              		.loc 1 176 22 is_stmt 0 view .LVU375
 1287 0014 2846     		mov	r0, r5
 1288 0016 FFF7FEFF 		bl	lv_obj_style_get_selector_part
 1289              	.LVL118:
 1290 001a 0546     		mov	r5, r0
 1291              	.LVL119:
 178:lvgl/src/core/lv_obj_style.c ****         lv_event_send(obj, LV_EVENT_STYLE_CHANGED, NULL);
 1292              		.loc 1 178 5 is_stmt 1 view .LVU376
 178:lvgl/src/core/lv_obj_style.c ****         lv_event_send(obj, LV_EVENT_STYLE_CHANGED, NULL);
 1293              		.loc 1 178 7 is_stmt 0 view .LVU377
 1294 001c B0F5702F 		cmp	r0, #983040
 1295 0020 00D0     		beq	.L82
 178:lvgl/src/core/lv_obj_style.c ****         lv_event_send(obj, LV_EVENT_STYLE_CHANGED, NULL);
 1296              		.loc 1 178 29 discriminator 2 view .LVU378
 1297 0022 70B9     		cbnz	r0, .L83
ARM GAS  C:\Users\BLACK_~1\AppData\Local\Temp\ccbv02In.s 			page 47


 1298              	.L82:
 178:lvgl/src/core/lv_obj_style.c ****         lv_event_send(obj, LV_EVENT_STYLE_CHANGED, NULL);
 1299              		.loc 1 178 54 discriminator 3 view .LVU379
 1300 0024 4FF6FF73 		movw	r3, #65535
 1301 0028 9C42     		cmp	r4, r3
 1302 002a 02D0     		beq	.L84
 178:lvgl/src/core/lv_obj_style.c ****         lv_event_send(obj, LV_EVENT_STYLE_CHANGED, NULL);
 1303              		.loc 1 178 84 discriminator 4 view .LVU380
 1304 002c 14F4805F 		tst	r4, #4096
 1305 0030 07D0     		beq	.L83
 1306              	.L84:
 179:lvgl/src/core/lv_obj_style.c ****         lv_obj_mark_layout_as_dirty(obj);
 1307              		.loc 1 179 9 is_stmt 1 view .LVU381
 1308 0032 0022     		movs	r2, #0
 1309 0034 2421     		movs	r1, #36
 1310 0036 3046     		mov	r0, r6
 1311              	.LVL120:
 179:lvgl/src/core/lv_obj_style.c ****         lv_obj_mark_layout_as_dirty(obj);
 1312              		.loc 1 179 9 is_stmt 0 view .LVU382
 1313 0038 FFF7FEFF 		bl	lv_event_send
 1314              	.LVL121:
 180:lvgl/src/core/lv_obj_style.c ****     }
 1315              		.loc 1 180 9 is_stmt 1 view .LVU383
 1316 003c 3046     		mov	r0, r6
 1317 003e FFF7FEFF 		bl	lv_obj_mark_layout_as_dirty
 1318              	.LVL122:
 1319              	.L83:
 182:lvgl/src/core/lv_obj_style.c ****         lv_obj_t * parent = lv_obj_get_parent(obj);
 1320              		.loc 1 182 5 view .LVU384
 182:lvgl/src/core/lv_obj_style.c ****         lv_obj_t * parent = lv_obj_get_parent(obj);
 1321              		.loc 1 182 7 is_stmt 0 view .LVU385
 1322 0042 B5F5702F 		cmp	r5, #983040
 1323 0046 00D0     		beq	.L85
 182:lvgl/src/core/lv_obj_style.c ****         lv_obj_t * parent = lv_obj_get_parent(obj);
 1324              		.loc 1 182 29 discriminator 2 view .LVU386
 1325 0048 65B9     		cbnz	r5, .L86
 1326              	.L85:
 182:lvgl/src/core/lv_obj_style.c ****         lv_obj_t * parent = lv_obj_get_parent(obj);
 1327              		.loc 1 182 54 discriminator 3 view .LVU387
 1328 004a 4FF6FF73 		movw	r3, #65535
 1329 004e 9C42     		cmp	r4, r3
 1330 0050 02D0     		beq	.L87
 182:lvgl/src/core/lv_obj_style.c ****         lv_obj_t * parent = lv_obj_get_parent(obj);
 1331              		.loc 1 182 84 discriminator 4 view .LVU388
 1332 0052 14F4005F 		tst	r4, #8192
 1333 0056 05D0     		beq	.L86
 1334              	.L87:
 1335              	.LBB73:
 183:lvgl/src/core/lv_obj_style.c ****         if(parent) lv_obj_mark_layout_as_dirty(parent);
 1336              		.loc 1 183 9 is_stmt 1 view .LVU389
 183:lvgl/src/core/lv_obj_style.c ****         if(parent) lv_obj_mark_layout_as_dirty(parent);
 1337              		.loc 1 183 29 is_stmt 0 view .LVU390
 1338 0058 3046     		mov	r0, r6
 1339 005a FFF7FEFF 		bl	lv_obj_get_parent
 1340              	.LVL123:
 184:lvgl/src/core/lv_obj_style.c ****     }
 1341              		.loc 1 184 9 is_stmt 1 view .LVU391
ARM GAS  C:\Users\BLACK_~1\AppData\Local\Temp\ccbv02In.s 			page 48


 184:lvgl/src/core/lv_obj_style.c ****     }
 1342              		.loc 1 184 11 is_stmt 0 view .LVU392
 1343 005e 08B1     		cbz	r0, .L86
 184:lvgl/src/core/lv_obj_style.c ****     }
 1344              		.loc 1 184 20 is_stmt 1 discriminator 1 view .LVU393
 1345 0060 FFF7FEFF 		bl	lv_obj_mark_layout_as_dirty
 1346              	.LVL124:
 1347              	.L86:
 184:lvgl/src/core/lv_obj_style.c ****     }
 1348              		.loc 1 184 20 is_stmt 0 discriminator 1 view .LVU394
 1349              	.LBE73:
 187:lvgl/src/core/lv_obj_style.c ****         lv_obj_refresh_ext_draw_size(obj);
 1350              		.loc 1 187 5 is_stmt 1 view .LVU395
 187:lvgl/src/core/lv_obj_style.c ****         lv_obj_refresh_ext_draw_size(obj);
 1351              		.loc 1 187 7 is_stmt 0 view .LVU396
 1352 0064 4FF6FF73 		movw	r3, #65535
 1353 0068 9C42     		cmp	r4, r3
 1354 006a 02D0     		beq	.L88
 187:lvgl/src/core/lv_obj_style.c ****         lv_obj_refresh_ext_draw_size(obj);
 1355              		.loc 1 187 34 discriminator 1 view .LVU397
 1356 006c 14F4006F 		tst	r4, #2048
 1357 0070 02D0     		beq	.L89
 1358              	.L88:
 188:lvgl/src/core/lv_obj_style.c ****     }
 1359              		.loc 1 188 9 is_stmt 1 view .LVU398
 1360 0072 3046     		mov	r0, r6
 1361 0074 FFF7FEFF 		bl	lv_obj_refresh_ext_draw_size
 1362              	.LVL125:
 1363              	.L89:
 190:lvgl/src/core/lv_obj_style.c **** 
 1364              		.loc 1 190 5 view .LVU399
 1365 0078 3046     		mov	r0, r6
 1366 007a FFF7FEFF 		bl	lv_obj_invalidate
 1367              	.LVL126:
 192:lvgl/src/core/lv_obj_style.c ****       ((prop & LV_STYLE_PROP_INHERIT) && ((prop & LV_STYLE_PROP_EXT_DRAW) || (prop & LV_STYLE_PROP_
 1368              		.loc 1 192 5 view .LVU400
 192:lvgl/src/core/lv_obj_style.c ****       ((prop & LV_STYLE_PROP_INHERIT) && ((prop & LV_STYLE_PROP_EXT_DRAW) || (prop & LV_STYLE_PROP_
 1369              		.loc 1 192 7 is_stmt 0 view .LVU401
 1370 007e 4FF6FF73 		movw	r3, #65535
 1371 0082 9C42     		cmp	r4, r3
 1372 0084 05D0     		beq	.L90
 192:lvgl/src/core/lv_obj_style.c ****       ((prop & LV_STYLE_PROP_INHERIT) && ((prop & LV_STYLE_PROP_EXT_DRAW) || (prop & LV_STYLE_PROP_
 1373              		.loc 1 192 34 discriminator 1 view .LVU402
 1374 0086 14F4806F 		tst	r4, #1024
 1375 008a 05D0     		beq	.L80
 193:lvgl/src/core/lv_obj_style.c ****     {
 1376              		.loc 1 193 39 view .LVU403
 1377 008c 14F4C05F 		tst	r4, #6144
 1378 0090 02D0     		beq	.L80
 1379              	.L90:
 195:lvgl/src/core/lv_obj_style.c ****             refresh_children_style(obj);
 1380              		.loc 1 195 9 is_stmt 1 view .LVU404
 195:lvgl/src/core/lv_obj_style.c ****             refresh_children_style(obj);
 1381              		.loc 1 195 11 is_stmt 0 view .LVU405
 1382 0092 B5F5803F 		cmp	r5, #65536
 1383 0096 00D1     		bne	.L96
 1384              	.L80:
ARM GAS  C:\Users\BLACK_~1\AppData\Local\Temp\ccbv02In.s 			page 49


 199:lvgl/src/core/lv_obj_style.c **** 
 1385              		.loc 1 199 1 view .LVU406
 1386 0098 70BD     		pop	{r4, r5, r6, pc}
 1387              	.LVL127:
 1388              	.L96:
 196:lvgl/src/core/lv_obj_style.c ****         }
 1389              		.loc 1 196 13 is_stmt 1 view .LVU407
 1390 009a 3046     		mov	r0, r6
 1391 009c FFF7FEFF 		bl	refresh_children_style
 1392              	.LVL128:
 1393 00a0 FAE7     		b	.L80
 1394              	.L98:
 1395 00a2 00BF     		.align	2
 1396              	.L97:
 1397 00a4 00000000 		.word	.LANCHOR0
 1398              		.cfi_endproc
 1399              	.LFE157:
 1401              		.section	.text.lv_obj_add_style,"ax",%progbits
 1402              		.align	1
 1403              		.global	lv_obj_add_style
 1404              		.syntax unified
 1405              		.thumb
 1406              		.thumb_func
 1408              	lv_obj_add_style:
 1409              	.LVL129:
 1410              	.LFB154:
  77:lvgl/src/core/lv_obj_style.c ****     trans_del(obj, selector, LV_STYLE_PROP_ANY, NULL);
 1411              		.loc 1 77 1 view -0
 1412              		.cfi_startproc
 1413              		@ args = 0, pretend = 0, frame = 0
 1414              		@ frame_needed = 0, uses_anonymous_args = 0
  77:lvgl/src/core/lv_obj_style.c ****     trans_del(obj, selector, LV_STYLE_PROP_ANY, NULL);
 1415              		.loc 1 77 1 is_stmt 0 view .LVU409
 1416 0000 2DE9F041 		push	{r4, r5, r6, r7, r8, lr}
 1417              	.LCFI16:
 1418              		.cfi_def_cfa_offset 24
 1419              		.cfi_offset 4, -24
 1420              		.cfi_offset 5, -20
 1421              		.cfi_offset 6, -16
 1422              		.cfi_offset 7, -12
 1423              		.cfi_offset 8, -8
 1424              		.cfi_offset 14, -4
 1425 0004 0546     		mov	r5, r0
 1426 0006 8846     		mov	r8, r1
 1427 0008 1746     		mov	r7, r2
  78:lvgl/src/core/lv_obj_style.c **** 
 1428              		.loc 1 78 5 is_stmt 1 view .LVU410
 1429 000a 0023     		movs	r3, #0
 1430 000c 4FF6FF72 		movw	r2, #65535
 1431              	.LVL130:
  78:lvgl/src/core/lv_obj_style.c **** 
 1432              		.loc 1 78 5 is_stmt 0 view .LVU411
 1433 0010 3946     		mov	r1, r7
 1434              	.LVL131:
  78:lvgl/src/core/lv_obj_style.c **** 
 1435              		.loc 1 78 5 view .LVU412
 1436 0012 FFF7FEFF 		bl	trans_del
ARM GAS  C:\Users\BLACK_~1\AppData\Local\Temp\ccbv02In.s 			page 50


 1437              	.LVL132:
  80:lvgl/src/core/lv_obj_style.c ****     /*Go after the transition and local styles*/
 1438              		.loc 1 80 5 is_stmt 1 view .LVU413
  82:lvgl/src/core/lv_obj_style.c ****         if(obj->styles[i].is_trans) continue;
 1439              		.loc 1 82 5 view .LVU414
  82:lvgl/src/core/lv_obj_style.c ****         if(obj->styles[i].is_trans) continue;
 1440              		.loc 1 82 11 is_stmt 0 view .LVU415
 1441 0016 0026     		movs	r6, #0
  82:lvgl/src/core/lv_obj_style.c ****         if(obj->styles[i].is_trans) continue;
 1442              		.loc 1 82 5 view .LVU416
 1443 0018 00E0     		b	.L100
 1444              	.LVL133:
 1445              	.L101:
  82:lvgl/src/core/lv_obj_style.c ****         if(obj->styles[i].is_trans) continue;
 1446              		.loc 1 82 36 is_stmt 1 discriminator 2 view .LVU417
  82:lvgl/src/core/lv_obj_style.c ****         if(obj->styles[i].is_trans) continue;
 1447              		.loc 1 82 37 is_stmt 0 discriminator 2 view .LVU418
 1448 001a 0136     		adds	r6, r6, #1
 1449              	.LVL134:
 1450              	.L100:
  82:lvgl/src/core/lv_obj_style.c ****         if(obj->styles[i].is_trans) continue;
 1451              		.loc 1 82 16 is_stmt 1 discriminator 1 view .LVU419
  82:lvgl/src/core/lv_obj_style.c ****         if(obj->styles[i].is_trans) continue;
 1452              		.loc 1 82 23 is_stmt 0 discriminator 1 view .LVU420
 1453 001c 698C     		ldrh	r1, [r5, #34]
 1454 001e C1F3C501 		ubfx	r1, r1, #3, #6
  82:lvgl/src/core/lv_obj_style.c ****         if(obj->styles[i].is_trans) continue;
 1455              		.loc 1 82 5 discriminator 1 view .LVU421
 1456 0022 B142     		cmp	r1, r6
 1457 0024 09D9     		bls	.L102
  83:lvgl/src/core/lv_obj_style.c ****         if(obj->styles[i].is_local) continue;
 1458              		.loc 1 83 9 is_stmt 1 view .LVU422
  83:lvgl/src/core/lv_obj_style.c ****         if(obj->styles[i].is_local) continue;
 1459              		.loc 1 83 15 is_stmt 0 view .LVU423
 1460 0026 EB68     		ldr	r3, [r5, #12]
  83:lvgl/src/core/lv_obj_style.c ****         if(obj->styles[i].is_local) continue;
 1461              		.loc 1 83 23 view .LVU424
 1462 0028 03EBC603 		add	r3, r3, r6, lsl #3
  83:lvgl/src/core/lv_obj_style.c ****         if(obj->styles[i].is_local) continue;
 1463              		.loc 1 83 12 view .LVU425
 1464 002c DB79     		ldrb	r3, [r3, #7]	@ zero_extendqisi2
  83:lvgl/src/core/lv_obj_style.c ****         if(obj->styles[i].is_local) continue;
 1465              		.loc 1 83 11 view .LVU426
 1466 002e 13F0020F 		tst	r3, #2
 1467 0032 F2D1     		bne	.L101
  84:lvgl/src/core/lv_obj_style.c ****         break;
 1468              		.loc 1 84 9 is_stmt 1 view .LVU427
  84:lvgl/src/core/lv_obj_style.c ****         break;
 1469              		.loc 1 84 11 is_stmt 0 view .LVU428
 1470 0034 13F0010F 		tst	r3, #1
 1471 0038 EFD1     		bne	.L101
 1472              	.L102:
  91:lvgl/src/core/lv_obj_style.c ****     obj->styles = lv_mem_realloc(obj->styles, obj->style_cnt * sizeof(_lv_obj_style_t));
 1473              		.loc 1 91 5 is_stmt 1 view .LVU429
  91:lvgl/src/core/lv_obj_style.c ****     obj->styles = lv_mem_realloc(obj->styles, obj->style_cnt * sizeof(_lv_obj_style_t));
 1474              		.loc 1 91 19 is_stmt 0 view .LVU430
 1475 003a 0131     		adds	r1, r1, #1
ARM GAS  C:\Users\BLACK_~1\AppData\Local\Temp\ccbv02In.s 			page 51


 1476 003c 01F03F01 		and	r1, r1, #63
 1477 0040 6B8C     		ldrh	r3, [r5, #34]
 1478 0042 61F3C803 		bfi	r3, r1, #3, #6
 1479 0046 6B84     		strh	r3, [r5, #34]	@ movhi
  92:lvgl/src/core/lv_obj_style.c **** 
 1480              		.loc 1 92 5 is_stmt 1 view .LVU431
  92:lvgl/src/core/lv_obj_style.c **** 
 1481              		.loc 1 92 19 is_stmt 0 view .LVU432
 1482 0048 C900     		lsls	r1, r1, #3
 1483 004a E868     		ldr	r0, [r5, #12]
 1484 004c FFF7FEFF 		bl	lv_mem_realloc
 1485              	.LVL135:
  92:lvgl/src/core/lv_obj_style.c **** 
 1486              		.loc 1 92 17 view .LVU433
 1487 0050 E860     		str	r0, [r5, #12]
  94:lvgl/src/core/lv_obj_style.c ****     for(j = obj->style_cnt - 1; j > i ; j--) {
 1488              		.loc 1 94 5 is_stmt 1 view .LVU434
  95:lvgl/src/core/lv_obj_style.c ****         obj->styles[j] = obj->styles[j - 1];
 1489              		.loc 1 95 5 view .LVU435
  95:lvgl/src/core/lv_obj_style.c ****         obj->styles[j] = obj->styles[j - 1];
 1490              		.loc 1 95 16 is_stmt 0 view .LVU436
 1491 0052 6A8C     		ldrh	r2, [r5, #34]
 1492 0054 C2F3C502 		ubfx	r2, r2, #3, #6
  95:lvgl/src/core/lv_obj_style.c ****         obj->styles[j] = obj->styles[j - 1];
 1493              		.loc 1 95 28 view .LVU437
 1494 0058 013A     		subs	r2, r2, #1
 1495              	.LVL136:
  95:lvgl/src/core/lv_obj_style.c ****         obj->styles[j] = obj->styles[j - 1];
 1496              		.loc 1 95 5 view .LVU438
 1497 005a 0CE0     		b	.L104
 1498              	.L105:
  96:lvgl/src/core/lv_obj_style.c ****     }
 1499              		.loc 1 96 9 is_stmt 1 discriminator 3 view .LVU439
  96:lvgl/src/core/lv_obj_style.c ****     }
 1500              		.loc 1 96 29 is_stmt 0 discriminator 3 view .LVU440
 1501 005c EC68     		ldr	r4, [r5, #12]
  96:lvgl/src/core/lv_obj_style.c ****     }
 1502              		.loc 1 96 37 discriminator 3 view .LVU441
 1503 005e 02F10053 		add	r3, r2, #536870912
 1504 0062 013B     		subs	r3, r3, #1
 1505 0064 04EBC303 		add	r3, r4, r3, lsl #3
  96:lvgl/src/core/lv_obj_style.c ****     }
 1506              		.loc 1 96 20 discriminator 3 view .LVU442
 1507 0068 04EBC20C 		add	ip, r4, r2, lsl #3
  96:lvgl/src/core/lv_obj_style.c ****     }
 1508              		.loc 1 96 24 discriminator 3 view .LVU443
 1509 006c 93E80300 		ldm	r3, {r0, r1}
 1510 0070 8CE80300 		stm	ip, {r0, r1}
  95:lvgl/src/core/lv_obj_style.c ****         obj->styles[j] = obj->styles[j - 1];
 1511              		.loc 1 95 41 is_stmt 1 discriminator 3 view .LVU444
  95:lvgl/src/core/lv_obj_style.c ****         obj->styles[j] = obj->styles[j - 1];
 1512              		.loc 1 95 42 is_stmt 0 discriminator 3 view .LVU445
 1513 0074 013A     		subs	r2, r2, #1
 1514              	.LVL137:
 1515              	.L104:
  95:lvgl/src/core/lv_obj_style.c ****         obj->styles[j] = obj->styles[j - 1];
 1516              		.loc 1 95 33 is_stmt 1 discriminator 1 view .LVU446
ARM GAS  C:\Users\BLACK_~1\AppData\Local\Temp\ccbv02In.s 			page 52


  95:lvgl/src/core/lv_obj_style.c ****         obj->styles[j] = obj->styles[j - 1];
 1517              		.loc 1 95 5 is_stmt 0 discriminator 1 view .LVU447
 1518 0076 9642     		cmp	r6, r2
 1519 0078 F0D3     		bcc	.L105
  99:lvgl/src/core/lv_obj_style.c ****     obj->styles[i].style = style;
 1520              		.loc 1 99 5 is_stmt 1 view .LVU448
  99:lvgl/src/core/lv_obj_style.c ****     obj->styles[i].style = style;
 1521              		.loc 1 99 22 is_stmt 0 view .LVU449
 1522 007a E868     		ldr	r0, [r5, #12]
  99:lvgl/src/core/lv_obj_style.c ****     obj->styles[i].style = style;
 1523              		.loc 1 99 30 view .LVU450
 1524 007c F400     		lsls	r4, r6, #3
  99:lvgl/src/core/lv_obj_style.c ****     obj->styles[i].style = style;
 1525              		.loc 1 99 5 view .LVU451
 1526 007e 0821     		movs	r1, #8
 1527 0080 00EBC600 		add	r0, r0, r6, lsl #3
 1528 0084 FFF7FEFF 		bl	lv_memset_00
 1529              	.LVL138:
 100:lvgl/src/core/lv_obj_style.c ****     obj->styles[i].selector = selector;
 1530              		.loc 1 100 5 is_stmt 1 view .LVU452
 100:lvgl/src/core/lv_obj_style.c ****     obj->styles[i].selector = selector;
 1531              		.loc 1 100 8 is_stmt 0 view .LVU453
 1532 0088 EB68     		ldr	r3, [r5, #12]
 100:lvgl/src/core/lv_obj_style.c ****     obj->styles[i].selector = selector;
 1533              		.loc 1 100 26 view .LVU454
 1534 008a 43F83680 		str	r8, [r3, r6, lsl #3]
 101:lvgl/src/core/lv_obj_style.c **** 
 1535              		.loc 1 101 5 is_stmt 1 view .LVU455
 101:lvgl/src/core/lv_obj_style.c **** 
 1536              		.loc 1 101 8 is_stmt 0 view .LVU456
 1537 008e EB68     		ldr	r3, [r5, #12]
 101:lvgl/src/core/lv_obj_style.c **** 
 1538              		.loc 1 101 16 view .LVU457
 1539 0090 2344     		add	r3, r3, r4
 101:lvgl/src/core/lv_obj_style.c **** 
 1540              		.loc 1 101 29 view .LVU458
 1541 0092 5A68     		ldr	r2, [r3, #4]
 1542 0094 67F31702 		bfi	r2, r7, #0, #24
 1543              	.LVL139:
 101:lvgl/src/core/lv_obj_style.c **** 
 1544              		.loc 1 101 29 view .LVU459
 1545 0098 5A60     		str	r2, [r3, #4]
 103:lvgl/src/core/lv_obj_style.c **** }
 1546              		.loc 1 103 5 is_stmt 1 view .LVU460
 1547 009a 4FF6FF72 		movw	r2, #65535
 1548 009e 3946     		mov	r1, r7
 1549 00a0 2846     		mov	r0, r5
 1550 00a2 FFF7FEFF 		bl	lv_obj_refresh_style
 1551              	.LVL140:
 104:lvgl/src/core/lv_obj_style.c **** 
 1552              		.loc 1 104 1 is_stmt 0 view .LVU461
 1553 00a6 BDE8F081 		pop	{r4, r5, r6, r7, r8, pc}
 104:lvgl/src/core/lv_obj_style.c **** 
 1554              		.loc 1 104 1 view .LVU462
 1555              		.cfi_endproc
 1556              	.LFE154:
 1558              		.section	.text.report_style_change_core,"ax",%progbits
ARM GAS  C:\Users\BLACK_~1\AppData\Local\Temp\ccbv02In.s 			page 53


 1559              		.align	1
 1560              		.syntax unified
 1561              		.thumb
 1562              		.thumb_func
 1564              	report_style_change_core:
 1565              	.LVL141:
 1566              	.LFB173:
 607:lvgl/src/core/lv_obj_style.c ****     uint32_t i;
 1567              		.loc 1 607 1 is_stmt 1 view -0
 1568              		.cfi_startproc
 1569              		@ args = 0, pretend = 0, frame = 0
 1570              		@ frame_needed = 0, uses_anonymous_args = 0
 607:lvgl/src/core/lv_obj_style.c ****     uint32_t i;
 1571              		.loc 1 607 1 is_stmt 0 view .LVU464
 1572 0000 70B5     		push	{r4, r5, r6, lr}
 1573              	.LCFI17:
 1574              		.cfi_def_cfa_offset 16
 1575              		.cfi_offset 4, -16
 1576              		.cfi_offset 5, -12
 1577              		.cfi_offset 6, -8
 1578              		.cfi_offset 14, -4
 1579 0002 0546     		mov	r5, r0
 1580 0004 0C46     		mov	r4, r1
 608:lvgl/src/core/lv_obj_style.c ****     for(i = 0; i < obj->style_cnt; i++) {
 1581              		.loc 1 608 5 is_stmt 1 view .LVU465
 609:lvgl/src/core/lv_obj_style.c ****         if(style == NULL || obj->styles[i].style == style) {
 1582              		.loc 1 609 5 view .LVU466
 1583              	.LVL142:
 609:lvgl/src/core/lv_obj_style.c ****         if(style == NULL || obj->styles[i].style == style) {
 1584              		.loc 1 609 11 is_stmt 0 view .LVU467
 1585 0006 0022     		movs	r2, #0
 609:lvgl/src/core/lv_obj_style.c ****         if(style == NULL || obj->styles[i].style == style) {
 1586              		.loc 1 609 5 view .LVU468
 1587 0008 00E0     		b	.L108
 1588              	.LVL143:
 1589              	.L110:
 609:lvgl/src/core/lv_obj_style.c ****         if(style == NULL || obj->styles[i].style == style) {
 1590              		.loc 1 609 36 is_stmt 1 discriminator 2 view .LVU469
 609:lvgl/src/core/lv_obj_style.c ****         if(style == NULL || obj->styles[i].style == style) {
 1591              		.loc 1 609 37 is_stmt 0 discriminator 2 view .LVU470
 1592 000a 0132     		adds	r2, r2, #1
 1593              	.LVL144:
 1594              	.L108:
 609:lvgl/src/core/lv_obj_style.c ****         if(style == NULL || obj->styles[i].style == style) {
 1595              		.loc 1 609 16 is_stmt 1 discriminator 1 view .LVU471
 609:lvgl/src/core/lv_obj_style.c ****         if(style == NULL || obj->styles[i].style == style) {
 1596              		.loc 1 609 23 is_stmt 0 discriminator 1 view .LVU472
 1597 000c 638C     		ldrh	r3, [r4, #34]
 1598 000e C3F3C503 		ubfx	r3, r3, #3, #6
 609:lvgl/src/core/lv_obj_style.c ****         if(style == NULL || obj->styles[i].style == style) {
 1599              		.loc 1 609 5 discriminator 1 view .LVU473
 1600 0012 9342     		cmp	r3, r2
 1601 0014 0CD9     		bls	.L113
 610:lvgl/src/core/lv_obj_style.c ****             lv_obj_refresh_style(obj, LV_PART_ANY, LV_STYLE_PROP_ANY);
 1602              		.loc 1 610 9 is_stmt 1 view .LVU474
 610:lvgl/src/core/lv_obj_style.c ****             lv_obj_refresh_style(obj, LV_PART_ANY, LV_STYLE_PROP_ANY);
 1603              		.loc 1 610 11 is_stmt 0 view .LVU475
ARM GAS  C:\Users\BLACK_~1\AppData\Local\Temp\ccbv02In.s 			page 54


 1604 0016 25B1     		cbz	r5, .L109
 610:lvgl/src/core/lv_obj_style.c ****             lv_obj_refresh_style(obj, LV_PART_ANY, LV_STYLE_PROP_ANY);
 1605              		.loc 1 610 32 discriminator 1 view .LVU476
 1606 0018 E368     		ldr	r3, [r4, #12]
 610:lvgl/src/core/lv_obj_style.c ****             lv_obj_refresh_style(obj, LV_PART_ANY, LV_STYLE_PROP_ANY);
 1607              		.loc 1 610 43 discriminator 1 view .LVU477
 1608 001a 53F83230 		ldr	r3, [r3, r2, lsl #3]
 610:lvgl/src/core/lv_obj_style.c ****             lv_obj_refresh_style(obj, LV_PART_ANY, LV_STYLE_PROP_ANY);
 1609              		.loc 1 610 26 discriminator 1 view .LVU478
 1610 001e AB42     		cmp	r3, r5
 1611 0020 F3D1     		bne	.L110
 1612              	.L109:
 611:lvgl/src/core/lv_obj_style.c ****             break;
 1613              		.loc 1 611 13 is_stmt 1 view .LVU479
 1614 0022 4FF6FF72 		movw	r2, #65535
 1615              	.LVL145:
 611:lvgl/src/core/lv_obj_style.c ****             break;
 1616              		.loc 1 611 13 is_stmt 0 view .LVU480
 1617 0026 4FF47021 		mov	r1, #983040
 1618              	.LVL146:
 611:lvgl/src/core/lv_obj_style.c ****             break;
 1619              		.loc 1 611 13 view .LVU481
 1620 002a 2046     		mov	r0, r4
 1621              	.LVL147:
 611:lvgl/src/core/lv_obj_style.c ****             break;
 1622              		.loc 1 611 13 view .LVU482
 1623 002c FFF7FEFF 		bl	lv_obj_refresh_style
 1624              	.LVL148:
 612:lvgl/src/core/lv_obj_style.c ****         }
 1625              		.loc 1 612 13 is_stmt 1 view .LVU483
 1626              	.L113:
 609:lvgl/src/core/lv_obj_style.c ****         if(style == NULL || obj->styles[i].style == style) {
 1627              		.loc 1 609 11 is_stmt 0 discriminator 1 view .LVU484
 1628 0030 0026     		movs	r6, #0
 1629 0032 08E0     		b	.L111
 1630              	.LVL149:
 1631              	.L114:
 617:lvgl/src/core/lv_obj_style.c ****     }
 1632              		.loc 1 617 9 is_stmt 1 discriminator 3 view .LVU485
 617:lvgl/src/core/lv_obj_style.c ****     }
 1633              		.loc 1 617 41 is_stmt 0 discriminator 3 view .LVU486
 1634 0034 3146     		mov	r1, r6
 1635 0036 2046     		mov	r0, r4
 1636 0038 FFF7FEFF 		bl	lv_obj_get_child
 1637              	.LVL150:
 1638 003c 0146     		mov	r1, r0
 617:lvgl/src/core/lv_obj_style.c ****     }
 1639              		.loc 1 617 9 discriminator 3 view .LVU487
 1640 003e 2846     		mov	r0, r5
 1641 0040 FFF7DEFF 		bl	report_style_change_core
 1642              	.LVL151:
 616:lvgl/src/core/lv_obj_style.c ****         report_style_change_core(style, lv_obj_get_child(obj, i));
 1643              		.loc 1 616 47 is_stmt 1 discriminator 3 view .LVU488
 616:lvgl/src/core/lv_obj_style.c ****         report_style_change_core(style, lv_obj_get_child(obj, i));
 1644              		.loc 1 616 48 is_stmt 0 discriminator 3 view .LVU489
 1645 0044 0136     		adds	r6, r6, #1
 1646              	.LVL152:
ARM GAS  C:\Users\BLACK_~1\AppData\Local\Temp\ccbv02In.s 			page 55


 1647              	.L111:
 616:lvgl/src/core/lv_obj_style.c ****         report_style_change_core(style, lv_obj_get_child(obj, i));
 1648              		.loc 1 616 16 is_stmt 1 discriminator 1 view .LVU490
 616:lvgl/src/core/lv_obj_style.c ****         report_style_change_core(style, lv_obj_get_child(obj, i));
 1649              		.loc 1 616 20 is_stmt 0 discriminator 1 view .LVU491
 1650 0046 2046     		mov	r0, r4
 1651 0048 FFF7FEFF 		bl	lv_obj_get_child_cnt
 1652              	.LVL153:
 616:lvgl/src/core/lv_obj_style.c ****         report_style_change_core(style, lv_obj_get_child(obj, i));
 1653              		.loc 1 616 5 discriminator 1 view .LVU492
 1654 004c B042     		cmp	r0, r6
 1655 004e F1D8     		bhi	.L114
 619:lvgl/src/core/lv_obj_style.c **** 
 1656              		.loc 1 619 1 view .LVU493
 1657 0050 70BD     		pop	{r4, r5, r6, pc}
 619:lvgl/src/core/lv_obj_style.c **** 
 1658              		.loc 1 619 1 view .LVU494
 1659              		.cfi_endproc
 1660              	.LFE173:
 1662              		.section	.text.lv_obj_report_style_change,"ax",%progbits
 1663              		.align	1
 1664              		.global	lv_obj_report_style_change
 1665              		.syntax unified
 1666              		.thumb
 1667              		.thumb_func
 1669              	lv_obj_report_style_change:
 1670              	.LVL154:
 1671              	.LFB156:
 155:lvgl/src/core/lv_obj_style.c ****     if(!style_refr) return;
 1672              		.loc 1 155 1 is_stmt 1 view -0
 1673              		.cfi_startproc
 1674              		@ args = 0, pretend = 0, frame = 0
 1675              		@ frame_needed = 0, uses_anonymous_args = 0
 156:lvgl/src/core/lv_obj_style.c ****     lv_disp_t * d = lv_disp_get_next(NULL);
 1676              		.loc 1 156 5 view .LVU496
 156:lvgl/src/core/lv_obj_style.c ****     lv_disp_t * d = lv_disp_get_next(NULL);
 1677              		.loc 1 156 8 is_stmt 0 view .LVU497
 1678 0000 0E4B     		ldr	r3, .L128
 1679 0002 1B78     		ldrb	r3, [r3]	@ zero_extendqisi2
 156:lvgl/src/core/lv_obj_style.c ****     lv_disp_t * d = lv_disp_get_next(NULL);
 1680              		.loc 1 156 7 view .LVU498
 1681 0004 03B9     		cbnz	r3, .L126
 1682 0006 7047     		bx	lr
 1683              	.L126:
 155:lvgl/src/core/lv_obj_style.c ****     if(!style_refr) return;
 1684              		.loc 1 155 1 view .LVU499
 1685 0008 70B5     		push	{r4, r5, r6, lr}
 1686              	.LCFI18:
 1687              		.cfi_def_cfa_offset 16
 1688              		.cfi_offset 4, -16
 1689              		.cfi_offset 5, -12
 1690              		.cfi_offset 6, -8
 1691              		.cfi_offset 14, -4
 1692 000a 0646     		mov	r6, r0
 157:lvgl/src/core/lv_obj_style.c **** 
 1693              		.loc 1 157 5 is_stmt 1 view .LVU500
 157:lvgl/src/core/lv_obj_style.c **** 
ARM GAS  C:\Users\BLACK_~1\AppData\Local\Temp\ccbv02In.s 			page 56


 1694              		.loc 1 157 21 is_stmt 0 view .LVU501
 1695 000c 0020     		movs	r0, #0
 1696              	.LVL155:
 157:lvgl/src/core/lv_obj_style.c **** 
 1697              		.loc 1 157 21 view .LVU502
 1698 000e FFF7FEFF 		bl	lv_disp_get_next
 1699              	.LVL156:
 1700 0012 0546     		mov	r5, r0
 1701              	.LVL157:
 159:lvgl/src/core/lv_obj_style.c ****         uint32_t i;
 1702              		.loc 1 159 5 is_stmt 1 view .LVU503
 159:lvgl/src/core/lv_obj_style.c ****         uint32_t i;
 1703              		.loc 1 159 10 is_stmt 0 view .LVU504
 1704 0014 0DE0     		b	.L118
 1705              	.LVL158:
 1706              	.L119:
 1707              	.LBB74:
 162:lvgl/src/core/lv_obj_style.c ****         }
 1708              		.loc 1 162 13 is_stmt 1 discriminator 3 view .LVU505
 162:lvgl/src/core/lv_obj_style.c ****         }
 1709              		.loc 1 162 46 is_stmt 0 discriminator 3 view .LVU506
 1710 0016 EB68     		ldr	r3, [r5, #12]
 162:lvgl/src/core/lv_obj_style.c ****         }
 1711              		.loc 1 162 13 discriminator 3 view .LVU507
 1712 0018 53F82410 		ldr	r1, [r3, r4, lsl #2]
 1713 001c 3046     		mov	r0, r6
 1714 001e FFF7FEFF 		bl	report_style_change_core
 1715              	.LVL159:
 161:lvgl/src/core/lv_obj_style.c ****             report_style_change_core(style, d->screens[i]);
 1716              		.loc 1 161 39 is_stmt 1 discriminator 3 view .LVU508
 161:lvgl/src/core/lv_obj_style.c ****             report_style_change_core(style, d->screens[i]);
 1717              		.loc 1 161 40 is_stmt 0 discriminator 3 view .LVU509
 1718 0022 0134     		adds	r4, r4, #1
 1719              	.LVL160:
 1720              	.L120:
 161:lvgl/src/core/lv_obj_style.c ****             report_style_change_core(style, d->screens[i]);
 1721              		.loc 1 161 20 is_stmt 1 discriminator 1 view .LVU510
 161:lvgl/src/core/lv_obj_style.c ****             report_style_change_core(style, d->screens[i]);
 1722              		.loc 1 161 25 is_stmt 0 discriminator 1 view .LVU511
 1723 0024 6B6A     		ldr	r3, [r5, #36]
 161:lvgl/src/core/lv_obj_style.c ****             report_style_change_core(style, d->screens[i]);
 1724              		.loc 1 161 9 discriminator 1 view .LVU512
 1725 0026 A342     		cmp	r3, r4
 1726 0028 F5D8     		bhi	.L119
 164:lvgl/src/core/lv_obj_style.c ****     }
 1727              		.loc 1 164 9 is_stmt 1 view .LVU513
 164:lvgl/src/core/lv_obj_style.c ****     }
 1728              		.loc 1 164 13 is_stmt 0 view .LVU514
 1729 002a 2846     		mov	r0, r5
 1730 002c FFF7FEFF 		bl	lv_disp_get_next
 1731              	.LVL161:
 1732 0030 0546     		mov	r5, r0
 1733              	.LVL162:
 1734              	.L118:
 164:lvgl/src/core/lv_obj_style.c ****     }
 1735              		.loc 1 164 13 view .LVU515
 1736              	.LBE74:
ARM GAS  C:\Users\BLACK_~1\AppData\Local\Temp\ccbv02In.s 			page 57


 159:lvgl/src/core/lv_obj_style.c ****         uint32_t i;
 1737              		.loc 1 159 10 is_stmt 1 view .LVU516
 1738 0032 0DB1     		cbz	r5, .L127
 1739              	.LBB75:
 161:lvgl/src/core/lv_obj_style.c ****             report_style_change_core(style, d->screens[i]);
 1740              		.loc 1 161 15 is_stmt 0 view .LVU517
 1741 0034 0024     		movs	r4, #0
 1742 0036 F5E7     		b	.L120
 1743              	.L127:
 1744              	.LBE75:
 166:lvgl/src/core/lv_obj_style.c **** 
 1745              		.loc 1 166 1 view .LVU518
 1746 0038 70BD     		pop	{r4, r5, r6, pc}
 1747              	.LVL163:
 1748              	.L129:
 166:lvgl/src/core/lv_obj_style.c **** 
 1749              		.loc 1 166 1 view .LVU519
 1750 003a 00BF     		.align	2
 1751              	.L128:
 1752 003c 00000000 		.word	.LANCHOR0
 1753              		.cfi_endproc
 1754              	.LFE156:
 1756              		.section	.text.lv_obj_set_local_style_prop,"ax",%progbits
 1757              		.align	1
 1758              		.global	lv_obj_set_local_style_prop
 1759              		.syntax unified
 1760              		.thumb
 1761              		.thumb_func
 1763              	lv_obj_set_local_style_prop:
 1764              	.LVL164:
 1765              	.LFB160:
 252:lvgl/src/core/lv_obj_style.c ****     lv_style_t * style = get_local_style(obj, selector);
 1766              		.loc 1 252 1 is_stmt 1 view -0
 1767              		.cfi_startproc
 1768              		@ args = 0, pretend = 0, frame = 0
 1769              		@ frame_needed = 0, uses_anonymous_args = 0
 252:lvgl/src/core/lv_obj_style.c ****     lv_style_t * style = get_local_style(obj, selector);
 1770              		.loc 1 252 1 is_stmt 0 view .LVU521
 1771 0000 F8B5     		push	{r3, r4, r5, r6, r7, lr}
 1772              	.LCFI19:
 1773              		.cfi_def_cfa_offset 24
 1774              		.cfi_offset 3, -24
 1775              		.cfi_offset 4, -20
 1776              		.cfi_offset 5, -16
 1777              		.cfi_offset 6, -12
 1778              		.cfi_offset 7, -8
 1779              		.cfi_offset 14, -4
 1780 0002 0646     		mov	r6, r0
 1781 0004 0D46     		mov	r5, r1
 1782 0006 1746     		mov	r7, r2
 1783              	.LVL165:
 252:lvgl/src/core/lv_obj_style.c ****     lv_style_t * style = get_local_style(obj, selector);
 1784              		.loc 1 252 1 view .LVU522
 1785 0008 1C46     		mov	r4, r3
 253:lvgl/src/core/lv_obj_style.c ****     lv_style_set_prop(style, prop, value);
 1786              		.loc 1 253 5 is_stmt 1 view .LVU523
 253:lvgl/src/core/lv_obj_style.c ****     lv_style_set_prop(style, prop, value);
ARM GAS  C:\Users\BLACK_~1\AppData\Local\Temp\ccbv02In.s 			page 58


 1787              		.loc 1 253 26 is_stmt 0 view .LVU524
 1788 000a 1946     		mov	r1, r3
 1789              	.LVL166:
 253:lvgl/src/core/lv_obj_style.c ****     lv_style_set_prop(style, prop, value);
 1790              		.loc 1 253 26 view .LVU525
 1791 000c FFF7FEFF 		bl	get_local_style
 1792              	.LVL167:
 254:lvgl/src/core/lv_obj_style.c ****     lv_obj_refresh_style(obj, selector, prop);
 1793              		.loc 1 254 5 is_stmt 1 view .LVU526
 254:lvgl/src/core/lv_obj_style.c ****     lv_obj_refresh_style(obj, selector, prop);
 1794              		.loc 1 254 5 is_stmt 0 view .LVU527
 1795 0010 3A46     		mov	r2, r7
 1796 0012 2946     		mov	r1, r5
 1797 0014 FFF7FEFF 		bl	lv_style_set_prop
 1798              	.LVL168:
 255:lvgl/src/core/lv_obj_style.c **** }
 1799              		.loc 1 255 5 is_stmt 1 view .LVU528
 1800 0018 2A46     		mov	r2, r5
 1801 001a 2146     		mov	r1, r4
 1802 001c 3046     		mov	r0, r6
 1803 001e FFF7FEFF 		bl	lv_obj_refresh_style
 1804              	.LVL169:
 256:lvgl/src/core/lv_obj_style.c **** 
 1805              		.loc 1 256 1 is_stmt 0 view .LVU529
 1806 0022 F8BD     		pop	{r3, r4, r5, r6, r7, pc}
 256:lvgl/src/core/lv_obj_style.c **** 
 1807              		.loc 1 256 1 view .LVU530
 1808              		.cfi_endproc
 1809              	.LFE160:
 1811              		.section	.text.trans_anim_cb,"ax",%progbits
 1812              		.align	1
 1813              		.syntax unified
 1814              		.thumb
 1815              		.thumb_func
 1817              	trans_anim_cb:
 1818              	.LVL170:
 1819              	.LFB176:
 681:lvgl/src/core/lv_obj_style.c ****     trans_t * tr = _tr;
 1820              		.loc 1 681 1 is_stmt 1 view -0
 1821              		.cfi_startproc
 1822              		@ args = 0, pretend = 0, frame = 8
 1823              		@ frame_needed = 0, uses_anonymous_args = 0
 681:lvgl/src/core/lv_obj_style.c ****     trans_t * tr = _tr;
 1824              		.loc 1 681 1 is_stmt 0 view .LVU532
 1825 0000 2DE9F043 		push	{r4, r5, r6, r7, r8, r9, lr}
 1826              	.LCFI20:
 1827              		.cfi_def_cfa_offset 28
 1828              		.cfi_offset 4, -28
 1829              		.cfi_offset 5, -24
 1830              		.cfi_offset 6, -20
 1831              		.cfi_offset 7, -16
 1832              		.cfi_offset 8, -12
 1833              		.cfi_offset 9, -8
 1834              		.cfi_offset 14, -4
 1835 0004 83B0     		sub	sp, sp, #12
 1836              	.LCFI21:
 1837              		.cfi_def_cfa_offset 40
ARM GAS  C:\Users\BLACK_~1\AppData\Local\Temp\ccbv02In.s 			page 59


 1838 0006 0446     		mov	r4, r0
 1839 0008 0F46     		mov	r7, r1
 682:lvgl/src/core/lv_obj_style.c ****     lv_obj_t * obj = tr->obj;
 1840              		.loc 1 682 5 is_stmt 1 view .LVU533
 1841              	.LVL171:
 683:lvgl/src/core/lv_obj_style.c **** 
 1842              		.loc 1 683 5 view .LVU534
 683:lvgl/src/core/lv_obj_style.c **** 
 1843              		.loc 1 683 16 is_stmt 0 view .LVU535
 1844 000a 0568     		ldr	r5, [r0]
 1845              	.LVL172:
 685:lvgl/src/core/lv_obj_style.c ****     for(i = 0; i < obj->style_cnt; i++) {
 1846              		.loc 1 685 5 is_stmt 1 view .LVU536
 686:lvgl/src/core/lv_obj_style.c ****         if(obj->styles[i].is_trans == 0 || obj->styles[i].selector != tr->selector) continue;
 1847              		.loc 1 686 5 view .LVU537
 686:lvgl/src/core/lv_obj_style.c ****         if(obj->styles[i].is_trans == 0 || obj->styles[i].selector != tr->selector) continue;
 1848              		.loc 1 686 11 is_stmt 0 view .LVU538
 1849 000c 0022     		movs	r2, #0
 686:lvgl/src/core/lv_obj_style.c ****         if(obj->styles[i].is_trans == 0 || obj->styles[i].selector != tr->selector) continue;
 1850              		.loc 1 686 5 view .LVU539
 1851 000e 00E0     		b	.L133
 1852              	.LVL173:
 1853              	.L134:
 1854              	.LBB79:
 687:lvgl/src/core/lv_obj_style.c **** 
 1855              		.loc 1 687 85 is_stmt 1 discriminator 3 view .LVU540
 1856              	.LBE79:
 686:lvgl/src/core/lv_obj_style.c ****         if(obj->styles[i].is_trans == 0 || obj->styles[i].selector != tr->selector) continue;
 1857              		.loc 1 686 36 discriminator 3 view .LVU541
 686:lvgl/src/core/lv_obj_style.c ****         if(obj->styles[i].is_trans == 0 || obj->styles[i].selector != tr->selector) continue;
 1858              		.loc 1 686 37 is_stmt 0 discriminator 3 view .LVU542
 1859 0010 0132     		adds	r2, r2, #1
 1860              	.LVL174:
 1861              	.L133:
 686:lvgl/src/core/lv_obj_style.c ****         if(obj->styles[i].is_trans == 0 || obj->styles[i].selector != tr->selector) continue;
 1862              		.loc 1 686 16 is_stmt 1 discriminator 1 view .LVU543
 686:lvgl/src/core/lv_obj_style.c ****         if(obj->styles[i].is_trans == 0 || obj->styles[i].selector != tr->selector) continue;
 1863              		.loc 1 686 23 is_stmt 0 discriminator 1 view .LVU544
 1864 0012 6B8C     		ldrh	r3, [r5, #34]
 1865 0014 C3F3C503 		ubfx	r3, r3, #3, #6
 686:lvgl/src/core/lv_obj_style.c ****         if(obj->styles[i].is_trans == 0 || obj->styles[i].selector != tr->selector) continue;
 1866              		.loc 1 686 5 discriminator 1 view .LVU545
 1867 0018 9342     		cmp	r3, r2
 1868 001a 40F2D980 		bls	.L132
 1869              	.LBB82:
 687:lvgl/src/core/lv_obj_style.c **** 
 1870              		.loc 1 687 9 is_stmt 1 view .LVU546
 687:lvgl/src/core/lv_obj_style.c **** 
 1871              		.loc 1 687 15 is_stmt 0 view .LVU547
 1872 001e EB68     		ldr	r3, [r5, #12]
 687:lvgl/src/core/lv_obj_style.c **** 
 1873              		.loc 1 687 23 view .LVU548
 1874 0020 D600     		lsls	r6, r2, #3
 1875 0022 03EBC203 		add	r3, r3, r2, lsl #3
 687:lvgl/src/core/lv_obj_style.c **** 
 1876              		.loc 1 687 36 view .LVU549
 1877 0026 D879     		ldrb	r0, [r3, #7]	@ zero_extendqisi2
ARM GAS  C:\Users\BLACK_~1\AppData\Local\Temp\ccbv02In.s 			page 60


 687:lvgl/src/core/lv_obj_style.c **** 
 1878              		.loc 1 687 11 view .LVU550
 1879 0028 10F0020F 		tst	r0, #2
 1880 002c F0D0     		beq	.L134
 687:lvgl/src/core/lv_obj_style.c **** 
 1881              		.loc 1 687 58 discriminator 2 view .LVU551
 1882 002e 5868     		ldr	r0, [r3, #4]
 1883 0030 C0F31700 		ubfx	r0, r0, #0, #24
 687:lvgl/src/core/lv_obj_style.c **** 
 1884              		.loc 1 687 73 discriminator 2 view .LVU552
 1885 0034 A168     		ldr	r1, [r4, #8]
 687:lvgl/src/core/lv_obj_style.c **** 
 1886              		.loc 1 687 41 discriminator 2 view .LVU553
 1887 0036 8842     		cmp	r0, r1
 1888 0038 EAD1     		bne	.L134
 689:lvgl/src/core/lv_obj_style.c ****         switch (tr->prop) {
 1889              		.loc 1 689 9 is_stmt 1 view .LVU554
 690:lvgl/src/core/lv_obj_style.c **** 
 1890              		.loc 1 690 9 view .LVU555
 690:lvgl/src/core/lv_obj_style.c **** 
 1891              		.loc 1 690 19 is_stmt 0 view .LVU556
 1892 003a A188     		ldrh	r1, [r4, #4]
 690:lvgl/src/core/lv_obj_style.c **** 
 1893              		.loc 1 690 9 view .LVU557
 1894 003c 6829     		cmp	r1, #104
 1895 003e 2ED8     		bhi	.L136
 1896 0040 2029     		cmp	r1, #32
 1897 0042 C0F0A780 		bcc	.L137
 1898 0046 A1F12002 		sub	r2, r1, #32
 1899              	.LVL175:
 690:lvgl/src/core/lv_obj_style.c **** 
 1900              		.loc 1 690 9 view .LVU558
 1901 004a 482A     		cmp	r2, #72
 1902 004c 00F2A280 		bhi	.L137
 1903 0050 DFE802F0 		tbb	[pc, r2]
 1904              	.L139:
 1905 0054 52       		.byte	(.L142-.L139)/2
 1906 0055 A0       		.byte	(.L137-.L139)/2
 1907 0056 A0       		.byte	(.L137-.L139)/2
 1908 0057 A0       		.byte	(.L137-.L139)/2
 1909 0058 A0       		.byte	(.L137-.L139)/2
 1910 0059 A0       		.byte	(.L137-.L139)/2
 1911 005a A0       		.byte	(.L137-.L139)/2
 1912 005b A0       		.byte	(.L137-.L139)/2
 1913 005c A0       		.byte	(.L137-.L139)/2
 1914 005d A0       		.byte	(.L137-.L139)/2
 1915 005e A0       		.byte	(.L137-.L139)/2
 1916 005f A0       		.byte	(.L137-.L139)/2
 1917 0060 A0       		.byte	(.L137-.L139)/2
 1918 0061 A0       		.byte	(.L137-.L139)/2
 1919 0062 A0       		.byte	(.L137-.L139)/2
 1920 0063 A0       		.byte	(.L137-.L139)/2
 1921 0064 52       		.byte	(.L142-.L139)/2
 1922 0065 A0       		.byte	(.L137-.L139)/2
 1923 0066 A0       		.byte	(.L137-.L139)/2
 1924 0067 31       		.byte	(.L138-.L139)/2
 1925 0068 31       		.byte	(.L138-.L139)/2
ARM GAS  C:\Users\BLACK_~1\AppData\Local\Temp\ccbv02In.s 			page 61


 1926 0069 A0       		.byte	(.L137-.L139)/2
 1927 006a A0       		.byte	(.L137-.L139)/2
 1928 006b A0       		.byte	(.L137-.L139)/2
 1929 006c A0       		.byte	(.L137-.L139)/2
 1930 006d A0       		.byte	(.L137-.L139)/2
 1931 006e A0       		.byte	(.L137-.L139)/2
 1932 006f 52       		.byte	(.L142-.L139)/2
 1933 0070 A0       		.byte	(.L137-.L139)/2
 1934 0071 A0       		.byte	(.L137-.L139)/2
 1935 0072 A0       		.byte	(.L137-.L139)/2
 1936 0073 A0       		.byte	(.L137-.L139)/2
 1937 0074 A0       		.byte	(.L137-.L139)/2
 1938 0075 A0       		.byte	(.L137-.L139)/2
 1939 0076 A0       		.byte	(.L137-.L139)/2
 1940 0077 A0       		.byte	(.L137-.L139)/2
 1941 0078 52       		.byte	(.L142-.L139)/2
 1942 0079 A0       		.byte	(.L137-.L139)/2
 1943 007a A0       		.byte	(.L137-.L139)/2
 1944 007b 52       		.byte	(.L142-.L139)/2
 1945 007c A0       		.byte	(.L137-.L139)/2
 1946 007d A0       		.byte	(.L137-.L139)/2
 1947 007e A0       		.byte	(.L137-.L139)/2
 1948 007f A0       		.byte	(.L137-.L139)/2
 1949 0080 A0       		.byte	(.L137-.L139)/2
 1950 0081 A0       		.byte	(.L137-.L139)/2
 1951 0082 A0       		.byte	(.L137-.L139)/2
 1952 0083 A0       		.byte	(.L137-.L139)/2
 1953 0084 A0       		.byte	(.L137-.L139)/2
 1954 0085 A0       		.byte	(.L137-.L139)/2
 1955 0086 A0       		.byte	(.L137-.L139)/2
 1956 0087 A0       		.byte	(.L137-.L139)/2
 1957 0088 A0       		.byte	(.L137-.L139)/2
 1958 0089 A0       		.byte	(.L137-.L139)/2
 1959 008a A0       		.byte	(.L137-.L139)/2
 1960 008b A0       		.byte	(.L137-.L139)/2
 1961 008c A0       		.byte	(.L137-.L139)/2
 1962 008d A0       		.byte	(.L137-.L139)/2
 1963 008e A0       		.byte	(.L137-.L139)/2
 1964 008f A0       		.byte	(.L137-.L139)/2
 1965 0090 A0       		.byte	(.L137-.L139)/2
 1966 0091 A0       		.byte	(.L137-.L139)/2
 1967 0092 A0       		.byte	(.L137-.L139)/2
 1968 0093 A0       		.byte	(.L137-.L139)/2
 1969 0094 A0       		.byte	(.L137-.L139)/2
 1970 0095 A0       		.byte	(.L137-.L139)/2
 1971 0096 A0       		.byte	(.L137-.L139)/2
 1972 0097 44       		.byte	(.L141-.L139)/2
 1973 0098 A0       		.byte	(.L137-.L139)/2
 1974 0099 A0       		.byte	(.L137-.L139)/2
 1975 009a A0       		.byte	(.L137-.L139)/2
 1976 009b 2D       		.byte	(.L140-.L139)/2
 1977 009c 31       		.byte	(.L138-.L139)/2
 1978              	.LVL176:
 1979 009d 00       		.p2align 1
 1980              	.L136:
 690:lvgl/src/core/lv_obj_style.c **** 
 1981              		.loc 1 690 9 view .LVU559
ARM GAS  C:\Users\BLACK_~1\AppData\Local\Temp\ccbv02In.s 			page 62


 1982 009e 40F25742 		movw	r2, #1111
 1983              	.LVL177:
 690:lvgl/src/core/lv_obj_style.c **** 
 1984              		.loc 1 690 9 view .LVU560
 1985 00a2 9142     		cmp	r1, r2
 1986 00a4 28D0     		beq	.L142
 1987 00a6 41F25942 		movw	r2, #5209
 1988 00aa 9142     		cmp	r1, r2
 1989 00ac 72D1     		bne	.L137
 1990              	.L140:
 700:lvgl/src/core/lv_obj_style.c ****                 else value_final.ptr = tr->end_value.ptr;
 1991              		.loc 1 700 17 is_stmt 1 view .LVU561
 700:lvgl/src/core/lv_obj_style.c ****                 else value_final.ptr = tr->end_value.ptr;
 1992              		.loc 1 700 19 is_stmt 0 view .LVU562
 1993 00ae FE2F     		cmp	r7, #254
 1994 00b0 12DC     		bgt	.L145
 700:lvgl/src/core/lv_obj_style.c ****                 else value_final.ptr = tr->end_value.ptr;
 1995              		.loc 1 700 29 is_stmt 1 discriminator 1 view .LVU563
 700:lvgl/src/core/lv_obj_style.c ****                 else value_final.ptr = tr->end_value.ptr;
 1996              		.loc 1 700 62 is_stmt 0 discriminator 1 view .LVU564
 1997 00b2 E768     		ldr	r7, [r4, #12]
 1998              	.LVL178:
 700:lvgl/src/core/lv_obj_style.c ****                 else value_final.ptr = tr->end_value.ptr;
 1999              		.loc 1 700 62 discriminator 1 view .LVU565
 2000 00b4 02E0     		b	.L144
 2001              	.LVL179:
 2002              	.L138:
 695:lvgl/src/core/lv_obj_style.c ****                 else value_final.num = tr->end_value.num;
 2003              		.loc 1 695 17 is_stmt 1 view .LVU566
 695:lvgl/src/core/lv_obj_style.c ****                 else value_final.num = tr->end_value.num;
 2004              		.loc 1 695 19 is_stmt 0 view .LVU567
 2005 00b6 FE2F     		cmp	r7, #254
 2006 00b8 0CDC     		bgt	.L143
 695:lvgl/src/core/lv_obj_style.c ****                 else value_final.num = tr->end_value.num;
 2007              		.loc 1 695 29 is_stmt 1 discriminator 1 view .LVU568
 695:lvgl/src/core/lv_obj_style.c ****                 else value_final.num = tr->end_value.num;
 2008              		.loc 1 695 62 is_stmt 0 discriminator 1 view .LVU569
 2009 00ba E768     		ldr	r7, [r4, #12]
 2010              	.LVL180:
 2011              	.L144:
 727:lvgl/src/core/lv_obj_style.c ****         bool refr = true;
 2012              		.loc 1 727 9 is_stmt 1 view .LVU570
 728:lvgl/src/core/lv_obj_style.c ****         if(lv_style_get_prop(obj->styles[i].style, tr->prop, &old_value)) {
 2013              		.loc 1 728 9 view .LVU571
 729:lvgl/src/core/lv_obj_style.c ****             if(value_final.ptr == old_value.ptr && value_final.color.full == old_value.color.full &
 2014              		.loc 1 729 9 view .LVU572
 729:lvgl/src/core/lv_obj_style.c ****             if(value_final.ptr == old_value.ptr && value_final.color.full == old_value.color.full &
 2015              		.loc 1 729 12 is_stmt 0 view .LVU573
 2016 00bc 01AA     		add	r2, sp, #4
 2017 00be 1868     		ldr	r0, [r3]
 2018 00c0 FFF7FEFF 		bl	lv_style_get_prop
 2019              	.LVL181:
 729:lvgl/src/core/lv_obj_style.c ****             if(value_final.ptr == old_value.ptr && value_final.color.full == old_value.color.full &
 2020              		.loc 1 729 11 view .LVU574
 2021 00c4 0028     		cmp	r0, #0
 2022 00c6 78D0     		beq	.L157
 730:lvgl/src/core/lv_obj_style.c ****                 refr = false;
ARM GAS  C:\Users\BLACK_~1\AppData\Local\Temp\ccbv02In.s 			page 63


 2023              		.loc 1 730 13 is_stmt 1 view .LVU575
 730:lvgl/src/core/lv_obj_style.c ****                 refr = false;
 2024              		.loc 1 730 44 is_stmt 0 view .LVU576
 2025 00c8 019B     		ldr	r3, [sp, #4]
 730:lvgl/src/core/lv_obj_style.c ****                 refr = false;
 2026              		.loc 1 730 15 view .LVU577
 2027 00ca 9F42     		cmp	r7, r3
 2028 00cc 71D0     		beq	.L161
 728:lvgl/src/core/lv_obj_style.c ****         if(lv_style_get_prop(obj->styles[i].style, tr->prop, &old_value)) {
 2029              		.loc 1 728 14 view .LVU578
 2030 00ce 4FF00108 		mov	r8, #1
 2031 00d2 74E0     		b	.L153
 2032              	.LVL182:
 2033              	.L143:
 696:lvgl/src/core/lv_obj_style.c ****                 break;
 2034              		.loc 1 696 22 is_stmt 1 view .LVU579
 696:lvgl/src/core/lv_obj_style.c ****                 break;
 2035              		.loc 1 696 53 is_stmt 0 view .LVU580
 2036 00d4 2769     		ldr	r7, [r4, #16]
 2037              	.LVL183:
 696:lvgl/src/core/lv_obj_style.c ****                 break;
 2038              		.loc 1 696 53 view .LVU581
 2039 00d6 F1E7     		b	.L144
 2040              	.LVL184:
 2041              	.L145:
 701:lvgl/src/core/lv_obj_style.c ****                 break;
 2042              		.loc 1 701 22 is_stmt 1 view .LVU582
 701:lvgl/src/core/lv_obj_style.c ****                 break;
 2043              		.loc 1 701 53 is_stmt 0 view .LVU583
 2044 00d8 2769     		ldr	r7, [r4, #16]
 2045              	.LVL185:
 701:lvgl/src/core/lv_obj_style.c ****                 break;
 2046              		.loc 1 701 53 view .LVU584
 2047 00da EFE7     		b	.L144
 2048              	.LVL186:
 2049              	.L141:
 704:lvgl/src/core/lv_obj_style.c ****                 else if(tr->end_value.ptr == NULL) value_final.ptr = tr->start_value.ptr;
 2050              		.loc 1 704 17 is_stmt 1 view .LVU585
 704:lvgl/src/core/lv_obj_style.c ****                 else if(tr->end_value.ptr == NULL) value_final.ptr = tr->start_value.ptr;
 2051              		.loc 1 704 35 is_stmt 0 view .LVU586
 2052 00dc E268     		ldr	r2, [r4, #12]
 704:lvgl/src/core/lv_obj_style.c ****                 else if(tr->end_value.ptr == NULL) value_final.ptr = tr->start_value.ptr;
 2053              		.loc 1 704 19 view .LVU587
 2054 00de 2AB1     		cbz	r2, .L162
 705:lvgl/src/core/lv_obj_style.c ****                 else if(v < 128) value_final.ptr = tr->start_value.ptr;
 2055              		.loc 1 705 22 is_stmt 1 view .LVU588
 705:lvgl/src/core/lv_obj_style.c ****                 else if(v < 128) value_final.ptr = tr->start_value.ptr;
 2056              		.loc 1 705 38 is_stmt 0 view .LVU589
 2057 00e0 2069     		ldr	r0, [r4, #16]
 705:lvgl/src/core/lv_obj_style.c ****                 else if(v < 128) value_final.ptr = tr->start_value.ptr;
 2058              		.loc 1 705 24 view .LVU590
 2059 00e2 28B1     		cbz	r0, .L163
 706:lvgl/src/core/lv_obj_style.c ****                 else value_final.ptr = tr->end_value.ptr;
 2060              		.loc 1 706 22 is_stmt 1 view .LVU591
 706:lvgl/src/core/lv_obj_style.c ****                 else value_final.ptr = tr->end_value.ptr;
 2061              		.loc 1 706 24 is_stmt 0 view .LVU592
 2062 00e4 7F2F     		cmp	r7, #127
ARM GAS  C:\Users\BLACK_~1\AppData\Local\Temp\ccbv02In.s 			page 64


 2063 00e6 05DC     		bgt	.L148
 706:lvgl/src/core/lv_obj_style.c ****                 else value_final.ptr = tr->end_value.ptr;
 2064              		.loc 1 706 34 is_stmt 1 discriminator 1 view .LVU593
 706:lvgl/src/core/lv_obj_style.c ****                 else value_final.ptr = tr->end_value.ptr;
 2065              		.loc 1 706 50 is_stmt 0 discriminator 1 view .LVU594
 2066 00e8 1746     		mov	r7, r2
 2067              	.LVL187:
 706:lvgl/src/core/lv_obj_style.c ****                 else value_final.ptr = tr->end_value.ptr;
 2068              		.loc 1 706 50 discriminator 1 view .LVU595
 2069 00ea E7E7     		b	.L144
 2070              	.LVL188:
 2071              	.L162:
 704:lvgl/src/core/lv_obj_style.c ****                 else if(tr->end_value.ptr == NULL) value_final.ptr = tr->start_value.ptr;
 2072              		.loc 1 704 49 is_stmt 1 discriminator 1 view .LVU596
 704:lvgl/src/core/lv_obj_style.c ****                 else if(tr->end_value.ptr == NULL) value_final.ptr = tr->start_value.ptr;
 2073              		.loc 1 704 80 is_stmt 0 discriminator 1 view .LVU597
 2074 00ec 2769     		ldr	r7, [r4, #16]
 2075              	.LVL189:
 704:lvgl/src/core/lv_obj_style.c ****                 else if(tr->end_value.ptr == NULL) value_final.ptr = tr->start_value.ptr;
 2076              		.loc 1 704 80 discriminator 1 view .LVU598
 2077 00ee E5E7     		b	.L144
 2078              	.LVL190:
 2079              	.L163:
 705:lvgl/src/core/lv_obj_style.c ****                 else if(v < 128) value_final.ptr = tr->start_value.ptr;
 2080              		.loc 1 705 52 is_stmt 1 discriminator 1 view .LVU599
 705:lvgl/src/core/lv_obj_style.c ****                 else if(v < 128) value_final.ptr = tr->start_value.ptr;
 2081              		.loc 1 705 68 is_stmt 0 discriminator 1 view .LVU600
 2082 00f0 1746     		mov	r7, r2
 2083              	.LVL191:
 705:lvgl/src/core/lv_obj_style.c ****                 else if(v < 128) value_final.ptr = tr->start_value.ptr;
 2084              		.loc 1 705 68 discriminator 1 view .LVU601
 2085 00f2 E3E7     		b	.L144
 2086              	.LVL192:
 2087              	.L148:
 707:lvgl/src/core/lv_obj_style.c ****                 break;
 2088              		.loc 1 707 22 is_stmt 1 view .LVU602
 707:lvgl/src/core/lv_obj_style.c ****                 break;
 2089              		.loc 1 707 38 is_stmt 0 view .LVU603
 2090 00f4 0746     		mov	r7, r0
 2091              	.LVL193:
 707:lvgl/src/core/lv_obj_style.c ****                 break;
 2092              		.loc 1 707 38 view .LVU604
 2093 00f6 E1E7     		b	.L144
 2094              	.LVL194:
 2095              	.L142:
 715:lvgl/src/core/lv_obj_style.c ****                 else if(v >= 255) value_final.color = tr->end_value.color;
 2096              		.loc 1 715 17 is_stmt 1 view .LVU605
 715:lvgl/src/core/lv_obj_style.c ****                 else if(v >= 255) value_final.color = tr->end_value.color;
 2097              		.loc 1 715 19 is_stmt 0 view .LVU606
 2098 00f8 002F     		cmp	r7, #0
 2099 00fa 06DD     		ble	.L164
 716:lvgl/src/core/lv_obj_style.c ****                 else value_final.color = lv_color_mix(tr->end_value.color, tr->start_value.color, v
 2100              		.loc 1 716 22 is_stmt 1 view .LVU607
 716:lvgl/src/core/lv_obj_style.c ****                 else value_final.color = lv_color_mix(tr->end_value.color, tr->start_value.color, v
 2101              		.loc 1 716 24 is_stmt 0 view .LVU608
 2102 00fc FE2F     		cmp	r7, #254
 2103 00fe 09DD     		ble	.L150
ARM GAS  C:\Users\BLACK_~1\AppData\Local\Temp\ccbv02In.s 			page 65


 716:lvgl/src/core/lv_obj_style.c ****                 else value_final.color = lv_color_mix(tr->end_value.color, tr->start_value.color, v
 2104              		.loc 1 716 35 is_stmt 1 discriminator 1 view .LVU609
 716:lvgl/src/core/lv_obj_style.c ****                 else value_final.color = lv_color_mix(tr->end_value.color, tr->start_value.color, v
 2105              		.loc 1 716 53 is_stmt 0 discriminator 1 view .LVU610
 2106 0100 228A     		ldrh	r2, [r4, #16]
 2107 0102 0027     		movs	r7, #0
 2108              	.LVL195:
 716:lvgl/src/core/lv_obj_style.c ****                 else value_final.color = lv_color_mix(tr->end_value.color, tr->start_value.color, v
 2109              		.loc 1 716 53 discriminator 1 view .LVU611
 2110 0104 62F30F07 		bfi	r7, r2, #0, #16
 2111              	.LVL196:
 716:lvgl/src/core/lv_obj_style.c ****                 else value_final.color = lv_color_mix(tr->end_value.color, tr->start_value.color, v
 2112              		.loc 1 716 53 discriminator 1 view .LVU612
 2113 0108 D8E7     		b	.L144
 2114              	.LVL197:
 2115              	.L164:
 715:lvgl/src/core/lv_obj_style.c ****                 else if(v >= 255) value_final.color = tr->end_value.color;
 2116              		.loc 1 715 28 is_stmt 1 discriminator 1 view .LVU613
 715:lvgl/src/core/lv_obj_style.c ****                 else if(v >= 255) value_final.color = tr->end_value.color;
 2117              		.loc 1 715 46 is_stmt 0 discriminator 1 view .LVU614
 2118 010a A289     		ldrh	r2, [r4, #12]
 2119 010c 0027     		movs	r7, #0
 2120              	.LVL198:
 715:lvgl/src/core/lv_obj_style.c ****                 else if(v >= 255) value_final.color = tr->end_value.color;
 2121              		.loc 1 715 46 discriminator 1 view .LVU615
 2122 010e 62F30F07 		bfi	r7, r2, #0, #16
 2123              	.LVL199:
 715:lvgl/src/core/lv_obj_style.c ****                 else if(v >= 255) value_final.color = tr->end_value.color;
 2124              		.loc 1 715 46 discriminator 1 view .LVU616
 2125 0112 D3E7     		b	.L144
 2126              	.LVL200:
 2127              	.L150:
 717:lvgl/src/core/lv_obj_style.c ****                 break;
 2128              		.loc 1 717 22 is_stmt 1 view .LVU617
 717:lvgl/src/core/lv_obj_style.c ****                 break;
 2129              		.loc 1 717 42 is_stmt 0 view .LVU618
 2130 0114 FFB2     		uxtb	r7, r7
 2131              	.LVL201:
 717:lvgl/src/core/lv_obj_style.c ****                 break;
 2132              		.loc 1 717 42 view .LVU619
 2133 0116 B4F810E0 		ldrh	lr, [r4, #16]
 2134 011a B4F80C80 		ldrh	r8, [r4, #12]
 2135              	.LVL202:
 2136              	.LBB80:
 2137              	.LBI80:
 2138              		.file 3 "lvgl/src/core/../misc/lv_color.h"
   1:lvgl/src/core/../misc/lv_color.h **** /**
   2:lvgl/src/core/../misc/lv_color.h ****  * @file lv_color.h
   3:lvgl/src/core/../misc/lv_color.h ****  *
   4:lvgl/src/core/../misc/lv_color.h ****  */
   5:lvgl/src/core/../misc/lv_color.h **** 
   6:lvgl/src/core/../misc/lv_color.h **** #ifndef LV_COLOR_H
   7:lvgl/src/core/../misc/lv_color.h **** #define LV_COLOR_H
   8:lvgl/src/core/../misc/lv_color.h **** 
   9:lvgl/src/core/../misc/lv_color.h **** #ifdef __cplusplus
  10:lvgl/src/core/../misc/lv_color.h **** extern "C" {
  11:lvgl/src/core/../misc/lv_color.h **** #endif
ARM GAS  C:\Users\BLACK_~1\AppData\Local\Temp\ccbv02In.s 			page 66


  12:lvgl/src/core/../misc/lv_color.h **** 
  13:lvgl/src/core/../misc/lv_color.h **** /*********************
  14:lvgl/src/core/../misc/lv_color.h ****  *      INCLUDES
  15:lvgl/src/core/../misc/lv_color.h ****  *********************/
  16:lvgl/src/core/../misc/lv_color.h **** #include "../lv_conf_internal.h"
  17:lvgl/src/core/../misc/lv_color.h **** #include "lv_math.h"
  18:lvgl/src/core/../misc/lv_color.h **** #include "lv_types.h"
  19:lvgl/src/core/../misc/lv_color.h **** 
  20:lvgl/src/core/../misc/lv_color.h **** /*Error checking*/
  21:lvgl/src/core/../misc/lv_color.h **** #if LV_COLOR_DEPTH == 24
  22:lvgl/src/core/../misc/lv_color.h **** #error "LV_COLOR_DEPTH 24 is deprecated. Use LV_COLOR_DEPTH 32 instead (lv_conf.h)"
  23:lvgl/src/core/../misc/lv_color.h **** #endif
  24:lvgl/src/core/../misc/lv_color.h **** 
  25:lvgl/src/core/../misc/lv_color.h **** #if LV_COLOR_DEPTH != 32 && LV_COLOR_SCREEN_TRANSP != 0
  26:lvgl/src/core/../misc/lv_color.h **** #error "LV_COLOR_SCREEN_TRANSP requires LV_COLOR_DEPTH == 32. Set it in lv_conf.h"
  27:lvgl/src/core/../misc/lv_color.h **** #endif
  28:lvgl/src/core/../misc/lv_color.h **** 
  29:lvgl/src/core/../misc/lv_color.h **** #if LV_COLOR_DEPTH != 16 && LV_COLOR_16_SWAP != 0
  30:lvgl/src/core/../misc/lv_color.h **** #error "LV_COLOR_16_SWAP requires LV_COLOR_DEPTH == 16. Set it in lv_conf.h"
  31:lvgl/src/core/../misc/lv_color.h **** #endif
  32:lvgl/src/core/../misc/lv_color.h **** 
  33:lvgl/src/core/../misc/lv_color.h **** #include <stdint.h>
  34:lvgl/src/core/../misc/lv_color.h **** 
  35:lvgl/src/core/../misc/lv_color.h **** /*********************
  36:lvgl/src/core/../misc/lv_color.h ****  *      DEFINES
  37:lvgl/src/core/../misc/lv_color.h ****  *********************/
  38:lvgl/src/core/../misc/lv_color.h **** 
  39:lvgl/src/core/../misc/lv_color.h **** /**
  40:lvgl/src/core/../misc/lv_color.h ****  * Opacity percentages.
  41:lvgl/src/core/../misc/lv_color.h ****  */
  42:lvgl/src/core/../misc/lv_color.h **** enum {
  43:lvgl/src/core/../misc/lv_color.h ****     LV_OPA_TRANSP = 0,
  44:lvgl/src/core/../misc/lv_color.h ****     LV_OPA_0      = 0,
  45:lvgl/src/core/../misc/lv_color.h ****     LV_OPA_10     = 25,
  46:lvgl/src/core/../misc/lv_color.h ****     LV_OPA_20     = 51,
  47:lvgl/src/core/../misc/lv_color.h ****     LV_OPA_30     = 76,
  48:lvgl/src/core/../misc/lv_color.h ****     LV_OPA_40     = 102,
  49:lvgl/src/core/../misc/lv_color.h ****     LV_OPA_50     = 127,
  50:lvgl/src/core/../misc/lv_color.h ****     LV_OPA_60     = 153,
  51:lvgl/src/core/../misc/lv_color.h ****     LV_OPA_70     = 178,
  52:lvgl/src/core/../misc/lv_color.h ****     LV_OPA_80     = 204,
  53:lvgl/src/core/../misc/lv_color.h ****     LV_OPA_90     = 229,
  54:lvgl/src/core/../misc/lv_color.h ****     LV_OPA_100    = 255,
  55:lvgl/src/core/../misc/lv_color.h ****     LV_OPA_COVER  = 255,
  56:lvgl/src/core/../misc/lv_color.h **** };
  57:lvgl/src/core/../misc/lv_color.h **** 
  58:lvgl/src/core/../misc/lv_color.h **** #define LV_OPA_MIN 2    /*Opacities below this will be transparent*/
  59:lvgl/src/core/../misc/lv_color.h **** #define LV_OPA_MAX 253  /*Opacities above this will fully cover*/
  60:lvgl/src/core/../misc/lv_color.h **** 
  61:lvgl/src/core/../misc/lv_color.h **** #if LV_COLOR_DEPTH == 1
  62:lvgl/src/core/../misc/lv_color.h **** #define LV_COLOR_SIZE 8
  63:lvgl/src/core/../misc/lv_color.h **** #elif LV_COLOR_DEPTH == 8
  64:lvgl/src/core/../misc/lv_color.h **** #define LV_COLOR_SIZE 8
  65:lvgl/src/core/../misc/lv_color.h **** #elif LV_COLOR_DEPTH == 16
  66:lvgl/src/core/../misc/lv_color.h **** #define LV_COLOR_SIZE 16
  67:lvgl/src/core/../misc/lv_color.h **** #elif LV_COLOR_DEPTH == 32
  68:lvgl/src/core/../misc/lv_color.h **** #define LV_COLOR_SIZE 32
ARM GAS  C:\Users\BLACK_~1\AppData\Local\Temp\ccbv02In.s 			page 67


  69:lvgl/src/core/../misc/lv_color.h **** #else
  70:lvgl/src/core/../misc/lv_color.h **** #error "Invalid LV_COLOR_DEPTH in lv_conf.h! Set it to 1, 8, 16 or 32!"
  71:lvgl/src/core/../misc/lv_color.h **** #endif
  72:lvgl/src/core/../misc/lv_color.h **** 
  73:lvgl/src/core/../misc/lv_color.h **** /**
  74:lvgl/src/core/../misc/lv_color.h ****  * Adjust color mix functions rounding.
  75:lvgl/src/core/../misc/lv_color.h ****  * GPUs might calculate color mix (blending) differently.
  76:lvgl/src/core/../misc/lv_color.h ****  * Should be in range of 0..254
  77:lvgl/src/core/../misc/lv_color.h ****  * 0: no adjustment, get the integer part of the result (round down)
  78:lvgl/src/core/../misc/lv_color.h ****  * 64: round up from x.75
  79:lvgl/src/core/../misc/lv_color.h ****  * 128: round up from half
  80:lvgl/src/core/../misc/lv_color.h ****  * 192: round up from x.25
  81:lvgl/src/core/../misc/lv_color.h ****  * 254: round up*/
  82:lvgl/src/core/../misc/lv_color.h **** #ifndef LV_COLOR_MIX_ROUND_OFS
  83:lvgl/src/core/../misc/lv_color.h **** #if LV_COLOR_DEPTH == 32
  84:lvgl/src/core/../misc/lv_color.h **** #define LV_COLOR_MIX_ROUND_OFS 0
  85:lvgl/src/core/../misc/lv_color.h **** #else
  86:lvgl/src/core/../misc/lv_color.h **** #define LV_COLOR_MIX_ROUND_OFS 128
  87:lvgl/src/core/../misc/lv_color.h **** #endif
  88:lvgl/src/core/../misc/lv_color.h **** #endif
  89:lvgl/src/core/../misc/lv_color.h **** 
  90:lvgl/src/core/../misc/lv_color.h **** #if defined(__cplusplus) && !defined(_LV_COLOR_HAS_MODERN_CPP)
  91:lvgl/src/core/../misc/lv_color.h **** /**
  92:lvgl/src/core/../misc/lv_color.h **** * MSVC compiler's definition of the __cplusplus indicating 199711L regardless to C++ standard versi
  93:lvgl/src/core/../misc/lv_color.h **** * see https://devblogs.microsoft.com/cppblog/msvc-now-correctly-reports-cplusplus
  94:lvgl/src/core/../misc/lv_color.h **** * so we use _MSC_VER macro instead of __cplusplus
  95:lvgl/src/core/../misc/lv_color.h **** */
  96:lvgl/src/core/../misc/lv_color.h **** #ifdef _MSC_VER
  97:lvgl/src/core/../misc/lv_color.h **** #if _MSC_VER >= 1900 /*Visual Studio 2015*/
  98:lvgl/src/core/../misc/lv_color.h **** #define _LV_COLOR_HAS_MODERN_CPP 1
  99:lvgl/src/core/../misc/lv_color.h **** #endif
 100:lvgl/src/core/../misc/lv_color.h **** #else
 101:lvgl/src/core/../misc/lv_color.h **** #if __cplusplus >= 201103L
 102:lvgl/src/core/../misc/lv_color.h **** #define _LV_COLOR_HAS_MODERN_CPP 1
 103:lvgl/src/core/../misc/lv_color.h **** #endif
 104:lvgl/src/core/../misc/lv_color.h **** #endif
 105:lvgl/src/core/../misc/lv_color.h **** #endif /*__cplusplus*/
 106:lvgl/src/core/../misc/lv_color.h **** 
 107:lvgl/src/core/../misc/lv_color.h **** #ifndef _LV_COLOR_HAS_MODERN_CPP
 108:lvgl/src/core/../misc/lv_color.h **** #define _LV_COLOR_HAS_MODERN_CPP 0
 109:lvgl/src/core/../misc/lv_color.h **** #endif
 110:lvgl/src/core/../misc/lv_color.h **** 
 111:lvgl/src/core/../misc/lv_color.h **** #if _LV_COLOR_HAS_MODERN_CPP
 112:lvgl/src/core/../misc/lv_color.h **** /*Fix msvc compiler error C4576 inside C++ code*/
 113:lvgl/src/core/../misc/lv_color.h **** #define _LV_COLOR_MAKE_TYPE_HELPER lv_color_t
 114:lvgl/src/core/../misc/lv_color.h **** #else
 115:lvgl/src/core/../misc/lv_color.h **** #define _LV_COLOR_MAKE_TYPE_HELPER (lv_color_t)
 116:lvgl/src/core/../misc/lv_color.h **** #endif
 117:lvgl/src/core/../misc/lv_color.h **** 
 118:lvgl/src/core/../misc/lv_color.h **** /*---------------------------------------
 119:lvgl/src/core/../misc/lv_color.h ****  * Macros for all existing color depths
 120:lvgl/src/core/../misc/lv_color.h ****  * to set/get values of the color channels
 121:lvgl/src/core/../misc/lv_color.h ****  *------------------------------------------*/
 122:lvgl/src/core/../misc/lv_color.h **** # define LV_COLOR_SET_R1(c, v) (c).ch.red = (uint8_t)((v) & 0x1)
 123:lvgl/src/core/../misc/lv_color.h **** # define LV_COLOR_SET_G1(c, v) (c).ch.green = (uint8_t)((v) & 0x1)
 124:lvgl/src/core/../misc/lv_color.h **** # define LV_COLOR_SET_B1(c, v) (c).ch.blue = (uint8_t)((v) & 0x1)
 125:lvgl/src/core/../misc/lv_color.h **** # define LV_COLOR_SET_A1(c, v) do {} while(0)
ARM GAS  C:\Users\BLACK_~1\AppData\Local\Temp\ccbv02In.s 			page 68


 126:lvgl/src/core/../misc/lv_color.h **** 
 127:lvgl/src/core/../misc/lv_color.h **** # define LV_COLOR_GET_R1(c) (c).ch.red
 128:lvgl/src/core/../misc/lv_color.h **** # define LV_COLOR_GET_G1(c) (c).ch.green
 129:lvgl/src/core/../misc/lv_color.h **** # define LV_COLOR_GET_B1(c) (c).ch.blue
 130:lvgl/src/core/../misc/lv_color.h **** # define LV_COLOR_GET_A1(c) 0xFF
 131:lvgl/src/core/../misc/lv_color.h **** 
 132:lvgl/src/core/../misc/lv_color.h **** # define _LV_COLOR_ZERO_INITIALIZER1 {0x00}
 133:lvgl/src/core/../misc/lv_color.h **** # define LV_COLOR_MAKE1(r8, g8, b8)  {(uint8_t)((b8 >> 7) | (g8 >> 7) | (r8 >> 7))}
 134:lvgl/src/core/../misc/lv_color.h **** 
 135:lvgl/src/core/../misc/lv_color.h **** # define LV_COLOR_SET_R8(c, v) (c).ch.red = (uint8_t)((v) & 0x7U)
 136:lvgl/src/core/../misc/lv_color.h **** # define LV_COLOR_SET_G8(c, v) (c).ch.green = (uint8_t)((v) & 0x7U)
 137:lvgl/src/core/../misc/lv_color.h **** # define LV_COLOR_SET_B8(c, v) (c).ch.blue = (uint8_t)((v) & 0x3U)
 138:lvgl/src/core/../misc/lv_color.h **** # define LV_COLOR_SET_A8(c, v) do {} while(0)
 139:lvgl/src/core/../misc/lv_color.h **** 
 140:lvgl/src/core/../misc/lv_color.h **** # define LV_COLOR_GET_R8(c) (c).ch.red
 141:lvgl/src/core/../misc/lv_color.h **** # define LV_COLOR_GET_G8(c) (c).ch.green
 142:lvgl/src/core/../misc/lv_color.h **** # define LV_COLOR_GET_B8(c) (c).ch.blue
 143:lvgl/src/core/../misc/lv_color.h **** # define LV_COLOR_GET_A8(c) 0xFF
 144:lvgl/src/core/../misc/lv_color.h **** 
 145:lvgl/src/core/../misc/lv_color.h **** # define _LV_COLOR_ZERO_INITIALIZER8 {{0x00, 0x00, 0x00}}
 146:lvgl/src/core/../misc/lv_color.h **** # define LV_COLOR_MAKE8(r8, g8, b8) {{(uint8_t)((b8 >> 6) & 0x3U), (uint8_t)((g8 >> 5) & 0x7U), (ui
 147:lvgl/src/core/../misc/lv_color.h **** 
 148:lvgl/src/core/../misc/lv_color.h **** # define LV_COLOR_SET_R16(c, v) (c).ch.red = (uint8_t)((v) & 0x1FU)
 149:lvgl/src/core/../misc/lv_color.h **** #if LV_COLOR_16_SWAP == 0
 150:lvgl/src/core/../misc/lv_color.h **** # define LV_COLOR_SET_G16(c, v) (c).ch.green = (uint8_t)((v) & 0x3FU)
 151:lvgl/src/core/../misc/lv_color.h **** #else
 152:lvgl/src/core/../misc/lv_color.h **** # define LV_COLOR_SET_G16(c, v) {(c).ch.green_h = (uint8_t)(((v) >> 3) & 0x7); (c).ch.green_l = (ui
 153:lvgl/src/core/../misc/lv_color.h **** #endif
 154:lvgl/src/core/../misc/lv_color.h **** # define LV_COLOR_SET_B16(c, v) (c).ch.blue = (uint8_t)((v) & 0x1FU)
 155:lvgl/src/core/../misc/lv_color.h **** # define LV_COLOR_SET_A16(c, v) do {} while(0)
 156:lvgl/src/core/../misc/lv_color.h **** 
 157:lvgl/src/core/../misc/lv_color.h **** # define LV_COLOR_GET_R16(c) (c).ch.red
 158:lvgl/src/core/../misc/lv_color.h **** #if LV_COLOR_16_SWAP == 0
 159:lvgl/src/core/../misc/lv_color.h **** # define LV_COLOR_GET_G16(c) (c).ch.green
 160:lvgl/src/core/../misc/lv_color.h **** #else
 161:lvgl/src/core/../misc/lv_color.h **** # define LV_COLOR_GET_G16(c) (((c).ch.green_h << 3) + (c).ch.green_l)
 162:lvgl/src/core/../misc/lv_color.h **** #endif
 163:lvgl/src/core/../misc/lv_color.h **** # define LV_COLOR_GET_B16(c) (c).ch.blue
 164:lvgl/src/core/../misc/lv_color.h **** # define LV_COLOR_GET_A16(c) 0xFF
 165:lvgl/src/core/../misc/lv_color.h **** 
 166:lvgl/src/core/../misc/lv_color.h **** #if LV_COLOR_16_SWAP == 0
 167:lvgl/src/core/../misc/lv_color.h **** # define _LV_COLOR_ZERO_INITIALIZER16  {{0x00, 0x00, 0x00}}
 168:lvgl/src/core/../misc/lv_color.h **** # define LV_COLOR_MAKE16(r8, g8, b8) {{(uint8_t)((b8 >> 3) & 0x1FU), (uint8_t)((g8 >> 2) & 0x3FU), 
 169:lvgl/src/core/../misc/lv_color.h **** #else
 170:lvgl/src/core/../misc/lv_color.h **** # define _LV_COLOR_ZERO_INITIALIZER16 {{0x00, 0x00, 0x00, 0x00}}
 171:lvgl/src/core/../misc/lv_color.h **** # define LV_COLOR_MAKE16(r8, g8, b8) {{(uint8_t)((g8 >> 5) & 0x7U), (uint8_t)((r8 >> 3) & 0x1FU), (
 172:lvgl/src/core/../misc/lv_color.h **** #endif
 173:lvgl/src/core/../misc/lv_color.h **** 
 174:lvgl/src/core/../misc/lv_color.h **** # define LV_COLOR_SET_R32(c, v) (c).ch.red = (uint8_t)((v) & 0xFF)
 175:lvgl/src/core/../misc/lv_color.h **** # define LV_COLOR_SET_G32(c, v) (c).ch.green = (uint8_t)((v) & 0xFF)
 176:lvgl/src/core/../misc/lv_color.h **** # define LV_COLOR_SET_B32(c, v) (c).ch.blue = (uint8_t)((v) & 0xFF)
 177:lvgl/src/core/../misc/lv_color.h **** # define LV_COLOR_SET_A32(c, v) (c).ch.alpha = (uint8_t)((v) & 0xFF)
 178:lvgl/src/core/../misc/lv_color.h **** 
 179:lvgl/src/core/../misc/lv_color.h **** # define LV_COLOR_GET_R32(c) (c).ch.red
 180:lvgl/src/core/../misc/lv_color.h **** # define LV_COLOR_GET_G32(c) (c).ch.green
 181:lvgl/src/core/../misc/lv_color.h **** # define LV_COLOR_GET_B32(c) (c).ch.blue
 182:lvgl/src/core/../misc/lv_color.h **** # define LV_COLOR_GET_A32(c) (c).ch.alpha
ARM GAS  C:\Users\BLACK_~1\AppData\Local\Temp\ccbv02In.s 			page 69


 183:lvgl/src/core/../misc/lv_color.h **** 
 184:lvgl/src/core/../misc/lv_color.h **** # define _LV_COLOR_ZERO_INITIALIZER32  {{0x00, 0x00, 0x00, 0x00}}
 185:lvgl/src/core/../misc/lv_color.h **** # define LV_COLOR_MAKE32(r8, g8, b8) {{b8, g8, r8, 0xff}} /*Fix 0xff alpha*/
 186:lvgl/src/core/../misc/lv_color.h **** 
 187:lvgl/src/core/../misc/lv_color.h **** /*---------------------------------------
 188:lvgl/src/core/../misc/lv_color.h ****  * Macros for the current color depth
 189:lvgl/src/core/../misc/lv_color.h ****  * to set/get values of the color channels
 190:lvgl/src/core/../misc/lv_color.h ****  *------------------------------------------*/
 191:lvgl/src/core/../misc/lv_color.h **** #define LV_COLOR_SET_R(c, v) LV_CONCAT(LV_COLOR_SET_R, LV_COLOR_DEPTH)(c, v)
 192:lvgl/src/core/../misc/lv_color.h **** #define LV_COLOR_SET_G(c, v) LV_CONCAT(LV_COLOR_SET_G, LV_COLOR_DEPTH)(c, v)
 193:lvgl/src/core/../misc/lv_color.h **** #define LV_COLOR_SET_B(c, v) LV_CONCAT(LV_COLOR_SET_B, LV_COLOR_DEPTH)(c, v)
 194:lvgl/src/core/../misc/lv_color.h **** #define LV_COLOR_SET_A(c, v) LV_CONCAT(LV_COLOR_SET_A, LV_COLOR_DEPTH)(c, v)
 195:lvgl/src/core/../misc/lv_color.h **** 
 196:lvgl/src/core/../misc/lv_color.h **** #define LV_COLOR_GET_R(c) LV_CONCAT(LV_COLOR_GET_R, LV_COLOR_DEPTH)(c)
 197:lvgl/src/core/../misc/lv_color.h **** #define LV_COLOR_GET_G(c) LV_CONCAT(LV_COLOR_GET_G, LV_COLOR_DEPTH)(c)
 198:lvgl/src/core/../misc/lv_color.h **** #define LV_COLOR_GET_B(c) LV_CONCAT(LV_COLOR_GET_B, LV_COLOR_DEPTH)(c)
 199:lvgl/src/core/../misc/lv_color.h **** #define LV_COLOR_GET_A(c) LV_CONCAT(LV_COLOR_GET_A, LV_COLOR_DEPTH)(c)
 200:lvgl/src/core/../misc/lv_color.h **** 
 201:lvgl/src/core/../misc/lv_color.h **** #define _LV_COLOR_ZERO_INITIALIZER LV_CONCAT(_LV_COLOR_ZERO_INITIALIZER, LV_COLOR_DEPTH)
 202:lvgl/src/core/../misc/lv_color.h **** #define LV_COLOR_MAKE(r8, g8, b8) LV_CONCAT(LV_COLOR_MAKE, LV_COLOR_DEPTH)(r8, g8, b8)
 203:lvgl/src/core/../misc/lv_color.h **** 
 204:lvgl/src/core/../misc/lv_color.h **** #define LV_UDIV255(x) ((uint32_t)((uint32_t) (x) * 0x8081) >> 0x17)
 205:lvgl/src/core/../misc/lv_color.h **** 
 206:lvgl/src/core/../misc/lv_color.h **** /**********************
 207:lvgl/src/core/../misc/lv_color.h ****  *      TYPEDEFS
 208:lvgl/src/core/../misc/lv_color.h ****  **********************/
 209:lvgl/src/core/../misc/lv_color.h **** 
 210:lvgl/src/core/../misc/lv_color.h **** typedef union {
 211:lvgl/src/core/../misc/lv_color.h ****     uint8_t full; /*must be declared first to set all bits of byte via initializer list*/
 212:lvgl/src/core/../misc/lv_color.h ****     union {
 213:lvgl/src/core/../misc/lv_color.h ****         uint8_t blue : 1;
 214:lvgl/src/core/../misc/lv_color.h ****         uint8_t green : 1;
 215:lvgl/src/core/../misc/lv_color.h ****         uint8_t red : 1;
 216:lvgl/src/core/../misc/lv_color.h ****     } ch;
 217:lvgl/src/core/../misc/lv_color.h **** } lv_color1_t;
 218:lvgl/src/core/../misc/lv_color.h **** 
 219:lvgl/src/core/../misc/lv_color.h **** typedef union {
 220:lvgl/src/core/../misc/lv_color.h ****     struct {
 221:lvgl/src/core/../misc/lv_color.h ****         uint8_t blue : 2;
 222:lvgl/src/core/../misc/lv_color.h ****         uint8_t green : 3;
 223:lvgl/src/core/../misc/lv_color.h ****         uint8_t red : 3;
 224:lvgl/src/core/../misc/lv_color.h ****     } ch;
 225:lvgl/src/core/../misc/lv_color.h ****     uint8_t full;
 226:lvgl/src/core/../misc/lv_color.h **** } lv_color8_t;
 227:lvgl/src/core/../misc/lv_color.h **** 
 228:lvgl/src/core/../misc/lv_color.h **** typedef union {
 229:lvgl/src/core/../misc/lv_color.h ****     struct {
 230:lvgl/src/core/../misc/lv_color.h **** #if LV_COLOR_16_SWAP == 0
 231:lvgl/src/core/../misc/lv_color.h ****         uint16_t blue : 5;
 232:lvgl/src/core/../misc/lv_color.h ****         uint16_t green : 6;
 233:lvgl/src/core/../misc/lv_color.h ****         uint16_t red : 5;
 234:lvgl/src/core/../misc/lv_color.h **** #else
 235:lvgl/src/core/../misc/lv_color.h ****         uint16_t green_h : 3;
 236:lvgl/src/core/../misc/lv_color.h ****         uint16_t red : 5;
 237:lvgl/src/core/../misc/lv_color.h ****         uint16_t blue : 5;
 238:lvgl/src/core/../misc/lv_color.h ****         uint16_t green_l : 3;
 239:lvgl/src/core/../misc/lv_color.h **** #endif
ARM GAS  C:\Users\BLACK_~1\AppData\Local\Temp\ccbv02In.s 			page 70


 240:lvgl/src/core/../misc/lv_color.h ****     } ch;
 241:lvgl/src/core/../misc/lv_color.h ****     uint16_t full;
 242:lvgl/src/core/../misc/lv_color.h **** } lv_color16_t;
 243:lvgl/src/core/../misc/lv_color.h **** 
 244:lvgl/src/core/../misc/lv_color.h **** typedef union {
 245:lvgl/src/core/../misc/lv_color.h ****     struct {
 246:lvgl/src/core/../misc/lv_color.h ****         uint8_t blue;
 247:lvgl/src/core/../misc/lv_color.h ****         uint8_t green;
 248:lvgl/src/core/../misc/lv_color.h ****         uint8_t red;
 249:lvgl/src/core/../misc/lv_color.h ****         uint8_t alpha;
 250:lvgl/src/core/../misc/lv_color.h ****     } ch;
 251:lvgl/src/core/../misc/lv_color.h ****     uint32_t full;
 252:lvgl/src/core/../misc/lv_color.h **** } lv_color32_t;
 253:lvgl/src/core/../misc/lv_color.h **** 
 254:lvgl/src/core/../misc/lv_color.h **** typedef LV_CONCAT3(uint, LV_COLOR_SIZE, _t) lv_color_int_t;
 255:lvgl/src/core/../misc/lv_color.h **** typedef LV_CONCAT3(lv_color, LV_COLOR_DEPTH, _t) lv_color_t;
 256:lvgl/src/core/../misc/lv_color.h **** 
 257:lvgl/src/core/../misc/lv_color.h **** typedef struct {
 258:lvgl/src/core/../misc/lv_color.h ****     uint16_t h;
 259:lvgl/src/core/../misc/lv_color.h ****     uint8_t s;
 260:lvgl/src/core/../misc/lv_color.h ****     uint8_t v;
 261:lvgl/src/core/../misc/lv_color.h **** } lv_color_hsv_t;
 262:lvgl/src/core/../misc/lv_color.h **** 
 263:lvgl/src/core/../misc/lv_color.h **** //! @cond Doxygen_Suppress
 264:lvgl/src/core/../misc/lv_color.h **** /*No idea where the guard is required but else throws warnings in the docs*/
 265:lvgl/src/core/../misc/lv_color.h **** typedef uint8_t lv_opa_t;
 266:lvgl/src/core/../misc/lv_color.h **** //! @endcond
 267:lvgl/src/core/../misc/lv_color.h **** 
 268:lvgl/src/core/../misc/lv_color.h **** struct _lv_color_filter_dsc_t;
 269:lvgl/src/core/../misc/lv_color.h **** 
 270:lvgl/src/core/../misc/lv_color.h **** typedef lv_color_t (*lv_color_filter_cb_t)(const struct _lv_color_filter_dsc_t *, lv_color_t, lv_op
 271:lvgl/src/core/../misc/lv_color.h **** 
 272:lvgl/src/core/../misc/lv_color.h **** typedef struct _lv_color_filter_dsc_t {
 273:lvgl/src/core/../misc/lv_color.h ****     lv_color_filter_cb_t filter_cb;
 274:lvgl/src/core/../misc/lv_color.h ****     void * user_data;
 275:lvgl/src/core/../misc/lv_color.h **** }lv_color_filter_dsc_t;
 276:lvgl/src/core/../misc/lv_color.h **** 
 277:lvgl/src/core/../misc/lv_color.h **** 
 278:lvgl/src/core/../misc/lv_color.h **** typedef enum {
 279:lvgl/src/core/../misc/lv_color.h ****     LV_PALETTE_RED,
 280:lvgl/src/core/../misc/lv_color.h ****     LV_PALETTE_PINK,
 281:lvgl/src/core/../misc/lv_color.h ****     LV_PALETTE_PURPLE,
 282:lvgl/src/core/../misc/lv_color.h ****     LV_PALETTE_DEEP_PURPLE,
 283:lvgl/src/core/../misc/lv_color.h ****     LV_PALETTE_INDIGO,
 284:lvgl/src/core/../misc/lv_color.h ****     LV_PALETTE_BLUE,
 285:lvgl/src/core/../misc/lv_color.h ****     LV_PALETTE_LIGHT_BLUE,
 286:lvgl/src/core/../misc/lv_color.h ****     LV_PALETTE_CYAN,
 287:lvgl/src/core/../misc/lv_color.h ****     LV_PALETTE_TEAL,
 288:lvgl/src/core/../misc/lv_color.h ****     LV_PALETTE_GREEN,
 289:lvgl/src/core/../misc/lv_color.h ****     LV_PALETTE_LIGHT_GREEN,
 290:lvgl/src/core/../misc/lv_color.h ****     LV_PALETTE_LIME,
 291:lvgl/src/core/../misc/lv_color.h ****     LV_PALETTE_YELLOW,
 292:lvgl/src/core/../misc/lv_color.h ****     LV_PALETTE_AMBER,
 293:lvgl/src/core/../misc/lv_color.h ****     LV_PALETTE_ORANGE,
 294:lvgl/src/core/../misc/lv_color.h ****     LV_PALETTE_DEEP_ORANGE,
 295:lvgl/src/core/../misc/lv_color.h ****     LV_PALETTE_BROWN,
 296:lvgl/src/core/../misc/lv_color.h ****     LV_PALETTE_BLUE_GREY,
ARM GAS  C:\Users\BLACK_~1\AppData\Local\Temp\ccbv02In.s 			page 71


 297:lvgl/src/core/../misc/lv_color.h ****     LV_PALETTE_GREY,
 298:lvgl/src/core/../misc/lv_color.h ****     _LV_PALETTE_LAST,
 299:lvgl/src/core/../misc/lv_color.h ****     LV_PALETTE_NONE = 0xff,
 300:lvgl/src/core/../misc/lv_color.h **** }lv_palette_t;
 301:lvgl/src/core/../misc/lv_color.h **** 
 302:lvgl/src/core/../misc/lv_color.h **** /**********************
 303:lvgl/src/core/../misc/lv_color.h ****  * GLOBAL PROTOTYPES
 304:lvgl/src/core/../misc/lv_color.h ****  **********************/
 305:lvgl/src/core/../misc/lv_color.h **** 
 306:lvgl/src/core/../misc/lv_color.h **** /*In color conversations:
 307:lvgl/src/core/../misc/lv_color.h ****  * - When converting to bigger color type the LSB weight of 1 LSB is calculated
 308:lvgl/src/core/../misc/lv_color.h ****  *   E.g. 16 bit Red has 5 bits
 309:lvgl/src/core/../misc/lv_color.h ****  *         8 bit Red has 3 bits
 310:lvgl/src/core/../misc/lv_color.h ****  *        ----------------------
 311:lvgl/src/core/../misc/lv_color.h ****  *        8 bit red LSB = (2^5 - 1) / (2^3 - 1) = 31 / 7 = 4
 312:lvgl/src/core/../misc/lv_color.h ****  *
 313:lvgl/src/core/../misc/lv_color.h ****  * - When calculating to smaller color type simply shift out the LSBs
 314:lvgl/src/core/../misc/lv_color.h ****  *   E.g.  8 bit Red has 3 bits
 315:lvgl/src/core/../misc/lv_color.h ****  *        16 bit Red has 5 bits
 316:lvgl/src/core/../misc/lv_color.h ****  *        ----------------------
 317:lvgl/src/core/../misc/lv_color.h ****  *         Shift right with 5 - 3 = 2
 318:lvgl/src/core/../misc/lv_color.h ****  */
 319:lvgl/src/core/../misc/lv_color.h **** static inline uint8_t lv_color_to1(lv_color_t color)
 320:lvgl/src/core/../misc/lv_color.h **** {
 321:lvgl/src/core/../misc/lv_color.h **** #if LV_COLOR_DEPTH == 1
 322:lvgl/src/core/../misc/lv_color.h ****     return color.full;
 323:lvgl/src/core/../misc/lv_color.h **** #elif LV_COLOR_DEPTH == 8
 324:lvgl/src/core/../misc/lv_color.h ****     if((LV_COLOR_GET_R(color) & 0x4) || (LV_COLOR_GET_G(color) & 0x4) || (LV_COLOR_GET_B(color) & 0
 325:lvgl/src/core/../misc/lv_color.h ****         return 1;
 326:lvgl/src/core/../misc/lv_color.h ****     }
 327:lvgl/src/core/../misc/lv_color.h ****     else {
 328:lvgl/src/core/../misc/lv_color.h ****         return 0;
 329:lvgl/src/core/../misc/lv_color.h ****     }
 330:lvgl/src/core/../misc/lv_color.h **** #elif LV_COLOR_DEPTH == 16
 331:lvgl/src/core/../misc/lv_color.h ****     if((LV_COLOR_GET_R(color) & 0x10) || (LV_COLOR_GET_G(color) & 0x20) || (LV_COLOR_GET_B(color) &
 332:lvgl/src/core/../misc/lv_color.h ****         return 1;
 333:lvgl/src/core/../misc/lv_color.h ****     }
 334:lvgl/src/core/../misc/lv_color.h ****     else {
 335:lvgl/src/core/../misc/lv_color.h ****         return 0;
 336:lvgl/src/core/../misc/lv_color.h ****     }
 337:lvgl/src/core/../misc/lv_color.h **** #elif LV_COLOR_DEPTH == 32
 338:lvgl/src/core/../misc/lv_color.h ****     if((LV_COLOR_GET_R(color) & 0x80) || (LV_COLOR_GET_G(color) & 0x80) || (LV_COLOR_GET_B(color) &
 339:lvgl/src/core/../misc/lv_color.h ****         return 1;
 340:lvgl/src/core/../misc/lv_color.h ****     }
 341:lvgl/src/core/../misc/lv_color.h ****     else {
 342:lvgl/src/core/../misc/lv_color.h ****         return 0;
 343:lvgl/src/core/../misc/lv_color.h ****     }
 344:lvgl/src/core/../misc/lv_color.h **** #endif
 345:lvgl/src/core/../misc/lv_color.h **** }
 346:lvgl/src/core/../misc/lv_color.h **** 
 347:lvgl/src/core/../misc/lv_color.h **** static inline uint8_t lv_color_to8(lv_color_t color)
 348:lvgl/src/core/../misc/lv_color.h **** {
 349:lvgl/src/core/../misc/lv_color.h **** #if LV_COLOR_DEPTH == 1
 350:lvgl/src/core/../misc/lv_color.h ****     if(color.full == 0)
 351:lvgl/src/core/../misc/lv_color.h ****         return 0;
 352:lvgl/src/core/../misc/lv_color.h ****     else
 353:lvgl/src/core/../misc/lv_color.h ****         return 0xFF;
ARM GAS  C:\Users\BLACK_~1\AppData\Local\Temp\ccbv02In.s 			page 72


 354:lvgl/src/core/../misc/lv_color.h **** #elif LV_COLOR_DEPTH == 8
 355:lvgl/src/core/../misc/lv_color.h ****     return color.full;
 356:lvgl/src/core/../misc/lv_color.h **** #elif LV_COLOR_DEPTH == 16
 357:lvgl/src/core/../misc/lv_color.h ****     lv_color8_t ret;
 358:lvgl/src/core/../misc/lv_color.h ****     LV_COLOR_SET_R8(ret, LV_COLOR_GET_R(color) >> 2); /*5 - 3  = 2*/
 359:lvgl/src/core/../misc/lv_color.h ****     LV_COLOR_SET_G8(ret, LV_COLOR_GET_G(color) >> 3); /*6 - 3  = 3*/
 360:lvgl/src/core/../misc/lv_color.h ****     LV_COLOR_SET_B8(ret, LV_COLOR_GET_B(color) >> 3); /*5 - 2  = 3*/
 361:lvgl/src/core/../misc/lv_color.h ****     return ret.full;
 362:lvgl/src/core/../misc/lv_color.h **** #elif LV_COLOR_DEPTH == 32
 363:lvgl/src/core/../misc/lv_color.h ****     lv_color8_t ret;
 364:lvgl/src/core/../misc/lv_color.h ****     LV_COLOR_SET_R8(ret, LV_COLOR_GET_R(color) >> 5); /*8 - 3  = 5*/
 365:lvgl/src/core/../misc/lv_color.h ****     LV_COLOR_SET_G8(ret, LV_COLOR_GET_G(color) >> 5); /*8 - 3  = 5*/
 366:lvgl/src/core/../misc/lv_color.h ****     LV_COLOR_SET_B8(ret, LV_COLOR_GET_B(color) >> 6); /*8 - 2  = 6*/
 367:lvgl/src/core/../misc/lv_color.h ****     return ret.full;
 368:lvgl/src/core/../misc/lv_color.h **** #endif
 369:lvgl/src/core/../misc/lv_color.h **** }
 370:lvgl/src/core/../misc/lv_color.h **** 
 371:lvgl/src/core/../misc/lv_color.h **** static inline uint16_t lv_color_to16(lv_color_t color)
 372:lvgl/src/core/../misc/lv_color.h **** {
 373:lvgl/src/core/../misc/lv_color.h **** #if LV_COLOR_DEPTH == 1
 374:lvgl/src/core/../misc/lv_color.h ****     if(color.full == 0)
 375:lvgl/src/core/../misc/lv_color.h ****         return 0;
 376:lvgl/src/core/../misc/lv_color.h ****     else
 377:lvgl/src/core/../misc/lv_color.h ****         return 0xFFFF;
 378:lvgl/src/core/../misc/lv_color.h **** #elif LV_COLOR_DEPTH == 8
 379:lvgl/src/core/../misc/lv_color.h ****     lv_color16_t ret;
 380:lvgl/src/core/../misc/lv_color.h ****     LV_COLOR_SET_R16(ret, LV_COLOR_GET_R(color) * 4);  /*(2^5 - 1)/(2^3 - 1) = 31/7 = 4*/
 381:lvgl/src/core/../misc/lv_color.h ****     LV_COLOR_SET_G16(ret, LV_COLOR_GET_G(color) * 9);  /*(2^6 - 1)/(2^3 - 1) = 63/7 = 9*/
 382:lvgl/src/core/../misc/lv_color.h ****     LV_COLOR_SET_B16(ret, LV_COLOR_GET_B(color) * 10); /*(2^5 - 1)/(2^2 - 1) = 31/3 = 10*/
 383:lvgl/src/core/../misc/lv_color.h ****     return ret.full;
 384:lvgl/src/core/../misc/lv_color.h **** #elif LV_COLOR_DEPTH == 16
 385:lvgl/src/core/../misc/lv_color.h ****     return color.full;
 386:lvgl/src/core/../misc/lv_color.h **** #elif LV_COLOR_DEPTH == 32
 387:lvgl/src/core/../misc/lv_color.h ****     lv_color16_t ret;
 388:lvgl/src/core/../misc/lv_color.h ****     LV_COLOR_SET_R16(ret, LV_COLOR_GET_R(color) >> 3); /*8 - 5  = 3*/
 389:lvgl/src/core/../misc/lv_color.h ****     LV_COLOR_SET_G16(ret, LV_COLOR_GET_G(color) >> 2); /*8 - 6  = 2*/
 390:lvgl/src/core/../misc/lv_color.h ****     LV_COLOR_SET_B16(ret, LV_COLOR_GET_B(color) >> 3); /*8 - 5  = 3*/
 391:lvgl/src/core/../misc/lv_color.h ****     return ret.full;
 392:lvgl/src/core/../misc/lv_color.h **** #endif
 393:lvgl/src/core/../misc/lv_color.h **** }
 394:lvgl/src/core/../misc/lv_color.h **** 
 395:lvgl/src/core/../misc/lv_color.h **** static inline uint32_t lv_color_to32(lv_color_t color)
 396:lvgl/src/core/../misc/lv_color.h **** {
 397:lvgl/src/core/../misc/lv_color.h **** #if LV_COLOR_DEPTH == 1
 398:lvgl/src/core/../misc/lv_color.h ****     if(color.full == 0)
 399:lvgl/src/core/../misc/lv_color.h ****         return 0xFF000000;
 400:lvgl/src/core/../misc/lv_color.h ****     else
 401:lvgl/src/core/../misc/lv_color.h ****         return 0xFFFFFFFF;
 402:lvgl/src/core/../misc/lv_color.h **** #elif LV_COLOR_DEPTH == 8
 403:lvgl/src/core/../misc/lv_color.h ****     lv_color32_t ret;
 404:lvgl/src/core/../misc/lv_color.h ****     LV_COLOR_SET_R32(ret, LV_COLOR_GET_R(color) * 36); /*(2^8 - 1)/(2^3 - 1) = 255/7 = 36*/
 405:lvgl/src/core/../misc/lv_color.h ****     LV_COLOR_SET_G32(ret, LV_COLOR_GET_G(color) * 36); /*(2^8 - 1)/(2^3 - 1) = 255/7 = 36*/
 406:lvgl/src/core/../misc/lv_color.h ****     LV_COLOR_SET_B32(ret, LV_COLOR_GET_B(color) * 85); /*(2^8 - 1)/(2^2 - 1) = 255/3 = 85*/
 407:lvgl/src/core/../misc/lv_color.h ****     LV_COLOR_SET_A32(ret, 0xFF);
 408:lvgl/src/core/../misc/lv_color.h ****     return ret.full;
 409:lvgl/src/core/../misc/lv_color.h **** #elif LV_COLOR_DEPTH == 16
 410:lvgl/src/core/../misc/lv_color.h ****     /**
ARM GAS  C:\Users\BLACK_~1\AppData\Local\Temp\ccbv02In.s 			page 73


 411:lvgl/src/core/../misc/lv_color.h ****      * The floating point math for conversion is:
 412:lvgl/src/core/../misc/lv_color.h ****      *  valueto = valuefrom * ( (2^bitsto - 1) / (float)(2^bitsfrom - 1) )
 413:lvgl/src/core/../misc/lv_color.h ****      * The faster integer math for conversion is:
 414:lvgl/src/core/../misc/lv_color.h ****      *  valueto = ( valuefrom * multiplier + adder ) >> divisor
 415:lvgl/src/core/../misc/lv_color.h ****      *   multiplier = FLOOR( ( (2^bitsto - 1) << divisor ) / (float)(2^bitsfrom - 1) )
 416:lvgl/src/core/../misc/lv_color.h ****      *
 417:lvgl/src/core/../misc/lv_color.h ****      * Find the first divisor where ( adder >> divisor ) <= 0
 418:lvgl/src/core/../misc/lv_color.h ****      *
 419:lvgl/src/core/../misc/lv_color.h ****      * 5-bit to 8-bit: ( 31 * multiplier + adder ) >> divisor = 255
 420:lvgl/src/core/../misc/lv_color.h ****      * divisor  multiplier  adder  min (0)  max (31)
 421:lvgl/src/core/../misc/lv_color.h ****      *       0           8      7        7       255
 422:lvgl/src/core/../misc/lv_color.h ****      *       1          16     14        7       255
 423:lvgl/src/core/../misc/lv_color.h ****      *       2          32     28        7       255
 424:lvgl/src/core/../misc/lv_color.h ****      *       3          65     25        3       255
 425:lvgl/src/core/../misc/lv_color.h ****      *       4         131     19        1       255
 426:lvgl/src/core/../misc/lv_color.h ****      *       5         263      7        0       255
 427:lvgl/src/core/../misc/lv_color.h ****      *
 428:lvgl/src/core/../misc/lv_color.h ****      * 6-bit to 8-bit: 255 = ( 63 * multiplier + adder ) >> divisor
 429:lvgl/src/core/../misc/lv_color.h ****      * divisor  multiplier  adder  min (0)  max (63)
 430:lvgl/src/core/../misc/lv_color.h ****      *       0           4      3        3       255
 431:lvgl/src/core/../misc/lv_color.h ****      *       1           8      6        3       255
 432:lvgl/src/core/../misc/lv_color.h ****      *       2          16     12        3       255
 433:lvgl/src/core/../misc/lv_color.h ****      *       3          32     24        3       255
 434:lvgl/src/core/../misc/lv_color.h ****      *       4          64     48        3       255
 435:lvgl/src/core/../misc/lv_color.h ****      *       5         129     33        1       255
 436:lvgl/src/core/../misc/lv_color.h ****      *       6         259      3        0       255
 437:lvgl/src/core/../misc/lv_color.h ****      */
 438:lvgl/src/core/../misc/lv_color.h **** 
 439:lvgl/src/core/../misc/lv_color.h ****     lv_color32_t ret;
 440:lvgl/src/core/../misc/lv_color.h ****     LV_COLOR_SET_R32(ret, (LV_COLOR_GET_R(color) * 263 + 7) >> 5);
 441:lvgl/src/core/../misc/lv_color.h ****     LV_COLOR_SET_G32(ret, (LV_COLOR_GET_G(color) * 259 + 3) >> 6);
 442:lvgl/src/core/../misc/lv_color.h ****     LV_COLOR_SET_B32(ret, (LV_COLOR_GET_B(color) * 263 + 7) >> 5);
 443:lvgl/src/core/../misc/lv_color.h ****     LV_COLOR_SET_A32(ret, 0xFF);
 444:lvgl/src/core/../misc/lv_color.h ****     return ret.full;
 445:lvgl/src/core/../misc/lv_color.h **** #elif LV_COLOR_DEPTH == 32
 446:lvgl/src/core/../misc/lv_color.h ****     return color.full;
 447:lvgl/src/core/../misc/lv_color.h **** #endif
 448:lvgl/src/core/../misc/lv_color.h **** }
 449:lvgl/src/core/../misc/lv_color.h **** 
 450:lvgl/src/core/../misc/lv_color.h **** //! @cond Doxygen_Suppress
 451:lvgl/src/core/../misc/lv_color.h **** 
 452:lvgl/src/core/../misc/lv_color.h **** /**
 453:lvgl/src/core/../misc/lv_color.h ****  * Mix two colors with a given ratio.
 454:lvgl/src/core/../misc/lv_color.h ****  * @param c1 the first color to mix (usually the foreground)
 455:lvgl/src/core/../misc/lv_color.h ****  * @param c2 the second color to mix (usually the background)
 456:lvgl/src/core/../misc/lv_color.h ****  * @param mix The ratio of the colors. 0: full `c2`, 255: full `c1`, 127: half `c1` and half`c2`
 457:lvgl/src/core/../misc/lv_color.h ****  * @return the mixed color
 458:lvgl/src/core/../misc/lv_color.h ****  */
 459:lvgl/src/core/../misc/lv_color.h **** LV_ATTRIBUTE_FAST_MEM static inline lv_color_t lv_color_mix(lv_color_t c1, lv_color_t c2, uint8_t m
 2139              		.loc 3 459 48 is_stmt 1 view .LVU620
 2140              	.LBB81:
 460:lvgl/src/core/../misc/lv_color.h **** {
 461:lvgl/src/core/../misc/lv_color.h ****     lv_color_t ret;
 2141              		.loc 3 461 5 view .LVU621
 462:lvgl/src/core/../misc/lv_color.h **** #if LV_COLOR_DEPTH != 1
 463:lvgl/src/core/../misc/lv_color.h ****     /*LV_COLOR_DEPTH == 8, 16 or 32*/
 464:lvgl/src/core/../misc/lv_color.h ****     LV_COLOR_SET_R(ret, LV_UDIV255((uint16_t) LV_COLOR_GET_R(c1) * mix + LV_COLOR_GET_R(c2) *
ARM GAS  C:\Users\BLACK_~1\AppData\Local\Temp\ccbv02In.s 			page 74


 2142              		.loc 3 464 5 view .LVU622
 2143              		.loc 3 464 5 is_stmt 0 view .LVU623
 2144 011e CEF3C42C 		ubfx	ip, lr, #11, #5
 2145              	.LVL203:
 2146              		.loc 3 464 5 view .LVU624
 2147 0122 C8F3C420 		ubfx	r0, r8, #11, #5
 2148 0126 C7F1FF02 		rsb	r2, r7, #255
 2149 012a 02FB00F0 		mul	r0, r2, r0
 2150 012e 07FB0C00 		mla	r0, r7, ip, r0
 2151 0132 8030     		adds	r0, r0, #128
 2152 0134 00EB002C 		add	ip, r0, r0, lsl #8
 2153 0138 00EBCC10 		add	r0, r0, ip, lsl #7
 2154 013c C0F3C450 		ubfx	r0, r0, #23, #5
 2155 0140 4FF0000C 		mov	ip, #0	@ movhi
 2156              		.loc 3 464 5 view .LVU625
 2157 0144 60F3CF2C 		bfi	ip, r0, #11, #5
 2158              	.LVL204:
 465:lvgl/src/core/../misc/lv_color.h ****                                         (255 - mix) + LV_COLOR_MIX_ROUND_OFS));
 466:lvgl/src/core/../misc/lv_color.h ****     LV_COLOR_SET_G(ret, LV_UDIV255((uint16_t) LV_COLOR_GET_G(c1) * mix + LV_COLOR_GET_G(c2) *
 2159              		.loc 3 466 5 is_stmt 1 view .LVU626
 2160 0148 CEF34519 		ubfx	r9, lr, #5, #6
 2161 014c C8F34510 		ubfx	r0, r8, #5, #6
 2162 0150 02FB00F0 		mul	r0, r2, r0
 2163 0154 09FB0700 		mla	r0, r9, r7, r0
 2164 0158 8030     		adds	r0, r0, #128
 2165 015a 00EB0029 		add	r9, r0, r0, lsl #8
 2166 015e 00EBC910 		add	r0, r0, r9, lsl #7
 2167 0162 C0F3C550 		ubfx	r0, r0, #23, #6
 2168 0166 60F34A1C 		bfi	ip, r0, #5, #6
 467:lvgl/src/core/../misc/lv_color.h ****                                         (255 - mix) + LV_COLOR_MIX_ROUND_OFS));
 468:lvgl/src/core/../misc/lv_color.h ****     LV_COLOR_SET_B(ret, LV_UDIV255((uint16_t) LV_COLOR_GET_B(c1) * mix + LV_COLOR_GET_B(c2) *
 2169              		.loc 3 468 5 view .LVU627
 2170 016a 0EF01F0E 		and	lr, lr, #31
 2171              	.LVL205:
 2172              		.loc 3 468 5 is_stmt 0 view .LVU628
 2173 016e 08F01F08 		and	r8, r8, #31
 2174              	.LVL206:
 2175              		.loc 3 468 5 view .LVU629
 2176 0172 08FB02F2 		mul	r2, r8, r2
 2177 0176 0EFB0722 		mla	r2, lr, r7, r2
 2178 017a 8032     		adds	r2, r2, #128
 2179 017c 02EB0220 		add	r0, r2, r2, lsl #8
 2180 0180 02EBC012 		add	r2, r2, r0, lsl #7
 2181 0184 C2F3C452 		ubfx	r2, r2, #23, #5
 2182 0188 62F3040C 		bfi	ip, r2, #0, #5
 469:lvgl/src/core/../misc/lv_color.h ****                                         (255 - mix) + LV_COLOR_MIX_ROUND_OFS));
 470:lvgl/src/core/../misc/lv_color.h ****     LV_COLOR_SET_A(ret, 0xFF);
 2183              		.loc 3 470 5 is_stmt 1 view .LVU630
 2184              		.loc 3 470 5 view .LVU631
 2185              		.loc 3 470 5 view .LVU632
 471:lvgl/src/core/../misc/lv_color.h **** #else
 472:lvgl/src/core/../misc/lv_color.h ****     /*LV_COLOR_DEPTH == 1*/
 473:lvgl/src/core/../misc/lv_color.h ****     ret.full = mix > LV_OPA_50 ? c1.full : c2.full;
 474:lvgl/src/core/../misc/lv_color.h **** #endif
 475:lvgl/src/core/../misc/lv_color.h **** 
 476:lvgl/src/core/../misc/lv_color.h ****     return ret;
 2186              		.loc 3 476 5 view .LVU633
ARM GAS  C:\Users\BLACK_~1\AppData\Local\Temp\ccbv02In.s 			page 75


 2187 018c 0027     		movs	r7, #0
 2188              	.LVL207:
 2189              		.loc 3 476 5 is_stmt 0 view .LVU634
 2190 018e 6CF30F07 		bfi	r7, ip, #0, #16
 2191              	.LVL208:
 2192              		.loc 3 476 5 view .LVU635
 2193 0192 93E7     		b	.L144
 2194              	.LVL209:
 2195              	.L137:
 2196              		.loc 3 476 5 view .LVU636
 2197              	.LBE81:
 2198              	.LBE80:
 721:lvgl/src/core/lv_obj_style.c ****                 else if(v == 255) value_final.num = tr->end_value.num;
 2199              		.loc 1 721 17 is_stmt 1 view .LVU637
 721:lvgl/src/core/lv_obj_style.c ****                 else if(v == 255) value_final.num = tr->end_value.num;
 2200              		.loc 1 721 19 is_stmt 0 view .LVU638
 2201 0194 0FB9     		cbnz	r7, .L151
 721:lvgl/src/core/lv_obj_style.c ****                 else if(v == 255) value_final.num = tr->end_value.num;
 2202              		.loc 1 721 28 is_stmt 1 discriminator 1 view .LVU639
 721:lvgl/src/core/lv_obj_style.c ****                 else if(v == 255) value_final.num = tr->end_value.num;
 2203              		.loc 1 721 61 is_stmt 0 discriminator 1 view .LVU640
 2204 0196 E768     		ldr	r7, [r4, #12]
 2205              	.LVL210:
 721:lvgl/src/core/lv_obj_style.c ****                 else if(v == 255) value_final.num = tr->end_value.num;
 2206              		.loc 1 721 61 discriminator 1 view .LVU641
 2207 0198 90E7     		b	.L144
 2208              	.LVL211:
 2209              	.L151:
 722:lvgl/src/core/lv_obj_style.c ****                 else value_final.num = tr->start_value.num + ((int32_t)((int32_t)(tr->end_value.num
 2210              		.loc 1 722 22 is_stmt 1 view .LVU642
 722:lvgl/src/core/lv_obj_style.c ****                 else value_final.num = tr->start_value.num + ((int32_t)((int32_t)(tr->end_value.num
 2211              		.loc 1 722 24 is_stmt 0 view .LVU643
 2212 019a FF2F     		cmp	r7, #255
 2213 019c 07D0     		beq	.L165
 723:lvgl/src/core/lv_obj_style.c ****                 break;
 2214              		.loc 1 723 22 is_stmt 1 view .LVU644
 723:lvgl/src/core/lv_obj_style.c ****                 break;
 2215              		.loc 1 723 55 is_stmt 0 view .LVU645
 2216 019e E068     		ldr	r0, [r4, #12]
 723:lvgl/src/core/lv_obj_style.c ****                 break;
 2217              		.loc 1 723 96 view .LVU646
 2218 01a0 2269     		ldr	r2, [r4, #16]
 723:lvgl/src/core/lv_obj_style.c ****                 break;
 2219              		.loc 1 723 101 view .LVU647
 2220 01a2 121A     		subs	r2, r2, r0
 723:lvgl/src/core/lv_obj_style.c ****                 break;
 2221              		.loc 1 723 63 view .LVU648
 2222 01a4 02FB07F7 		mul	r7, r2, r7
 2223              	.LVL212:
 723:lvgl/src/core/lv_obj_style.c ****                 break;
 2224              		.loc 1 723 60 view .LVU649
 2225 01a8 00EB2727 		add	r7, r0, r7, asr #8
 723:lvgl/src/core/lv_obj_style.c ****                 break;
 2226              		.loc 1 723 60 view .LVU650
 2227 01ac 86E7     		b	.L144
 2228              	.LVL213:
 2229              	.L165:
ARM GAS  C:\Users\BLACK_~1\AppData\Local\Temp\ccbv02In.s 			page 76


 722:lvgl/src/core/lv_obj_style.c ****                 else value_final.num = tr->start_value.num + ((int32_t)((int32_t)(tr->end_value.num
 2230              		.loc 1 722 35 is_stmt 1 discriminator 1 view .LVU651
 722:lvgl/src/core/lv_obj_style.c ****                 else value_final.num = tr->start_value.num + ((int32_t)((int32_t)(tr->end_value.num
 2231              		.loc 1 722 66 is_stmt 0 discriminator 1 view .LVU652
 2232 01ae 2769     		ldr	r7, [r4, #16]
 2233              	.LVL214:
 722:lvgl/src/core/lv_obj_style.c ****                 else value_final.num = tr->start_value.num + ((int32_t)((int32_t)(tr->end_value.num
 2234              		.loc 1 722 66 discriminator 1 view .LVU653
 2235 01b0 84E7     		b	.L144
 2236              	.LVL215:
 2237              	.L161:
 730:lvgl/src/core/lv_obj_style.c ****                 refr = false;
 2238              		.loc 1 730 99 discriminator 1 view .LVU654
 2239 01b2 10D0     		beq	.L159
 728:lvgl/src/core/lv_obj_style.c ****         if(lv_style_get_prop(obj->styles[i].style, tr->prop, &old_value)) {
 2240              		.loc 1 728 14 view .LVU655
 2241 01b4 4FF00108 		mov	r8, #1
 2242 01b8 01E0     		b	.L153
 2243              	.L157:
 2244 01ba 4FF00108 		mov	r8, #1
 2245              	.L153:
 2246              	.LVL216:
 734:lvgl/src/core/lv_obj_style.c ****         if (refr) lv_obj_refresh_style(tr->obj, tr->selector, tr->prop);
 2247              		.loc 1 734 9 is_stmt 1 view .LVU656
 734:lvgl/src/core/lv_obj_style.c ****         if (refr) lv_obj_refresh_style(tr->obj, tr->selector, tr->prop);
 2248              		.loc 1 734 30 is_stmt 0 view .LVU657
 2249 01be EB68     		ldr	r3, [r5, #12]
 734:lvgl/src/core/lv_obj_style.c ****         if (refr) lv_obj_refresh_style(tr->obj, tr->selector, tr->prop);
 2250              		.loc 1 734 9 view .LVU658
 2251 01c0 3A46     		mov	r2, r7
 2252 01c2 A188     		ldrh	r1, [r4, #4]
 2253 01c4 9859     		ldr	r0, [r3, r6]
 2254 01c6 FFF7FEFF 		bl	lv_style_set_prop
 2255              	.LVL217:
 735:lvgl/src/core/lv_obj_style.c ****         break;
 2256              		.loc 1 735 9 is_stmt 1 view .LVU659
 735:lvgl/src/core/lv_obj_style.c ****         break;
 2257              		.loc 1 735 12 is_stmt 0 view .LVU660
 2258 01ca B8F1000F 		cmp	r8, #0
 2259 01ce 05D1     		bne	.L166
 2260              	.LVL218:
 2261              	.L132:
 735:lvgl/src/core/lv_obj_style.c ****         break;
 2262              		.loc 1 735 12 view .LVU661
 2263              	.LBE82:
 740:lvgl/src/core/lv_obj_style.c **** 
 2264              		.loc 1 740 1 view .LVU662
 2265 01d0 03B0     		add	sp, sp, #12
 2266              	.LCFI22:
 2267              		.cfi_remember_state
 2268              		.cfi_def_cfa_offset 28
 2269              		@ sp needed
 2270 01d2 BDE8F083 		pop	{r4, r5, r6, r7, r8, r9, pc}
 2271              	.LVL219:
 2272              	.L159:
 2273              	.LCFI23:
 2274              		.cfi_restore_state
ARM GAS  C:\Users\BLACK_~1\AppData\Local\Temp\ccbv02In.s 			page 77


 2275              	.LBB83:
 731:lvgl/src/core/lv_obj_style.c ****             }
 2276              		.loc 1 731 22 view .LVU663
 2277 01d6 4FF00008 		mov	r8, #0
 2278 01da F0E7     		b	.L153
 2279              	.LVL220:
 2280              	.L166:
 735:lvgl/src/core/lv_obj_style.c ****         break;
 2281              		.loc 1 735 19 is_stmt 1 discriminator 1 view .LVU664
 2282 01dc A288     		ldrh	r2, [r4, #4]
 2283 01de A168     		ldr	r1, [r4, #8]
 2284 01e0 2068     		ldr	r0, [r4]
 2285 01e2 FFF7FEFF 		bl	lv_obj_refresh_style
 2286              	.LVL221:
 736:lvgl/src/core/lv_obj_style.c **** 
 2287              		.loc 1 736 9 discriminator 1 view .LVU665
 2288 01e6 F3E7     		b	.L132
 2289              	.LBE83:
 2290              		.cfi_endproc
 2291              	.LFE176:
 2293              		.section	.text.lv_obj_remove_style,"ax",%progbits
 2294              		.align	1
 2295              		.global	lv_obj_remove_style
 2296              		.syntax unified
 2297              		.thumb
 2298              		.thumb_func
 2300              	lv_obj_remove_style:
 2301              	.LVL222:
 2302              	.LFB155:
 107:lvgl/src/core/lv_obj_style.c ****     lv_state_t state = lv_obj_style_get_selector_state(selector);
 2303              		.loc 1 107 1 view -0
 2304              		.cfi_startproc
 2305              		@ args = 0, pretend = 0, frame = 16
 2306              		@ frame_needed = 0, uses_anonymous_args = 0
 107:lvgl/src/core/lv_obj_style.c ****     lv_state_t state = lv_obj_style_get_selector_state(selector);
 2307              		.loc 1 107 1 is_stmt 0 view .LVU667
 2308 0000 2DE9F04F 		push	{r4, r5, r6, r7, r8, r9, r10, fp, lr}
 2309              	.LCFI24:
 2310              		.cfi_def_cfa_offset 36
 2311              		.cfi_offset 4, -36
 2312              		.cfi_offset 5, -32
 2313              		.cfi_offset 6, -28
 2314              		.cfi_offset 7, -24
 2315              		.cfi_offset 8, -20
 2316              		.cfi_offset 9, -16
 2317              		.cfi_offset 10, -12
 2318              		.cfi_offset 11, -8
 2319              		.cfi_offset 14, -4
 2320 0004 85B0     		sub	sp, sp, #20
 2321              	.LCFI25:
 2322              		.cfi_def_cfa_offset 56
 2323 0006 0446     		mov	r4, r0
 2324 0008 0E46     		mov	r6, r1
 2325 000a 0191     		str	r1, [sp, #4]
 2326 000c 1546     		mov	r5, r2
 108:lvgl/src/core/lv_obj_style.c ****     lv_part_t part = lv_obj_style_get_selector_part(selector);
 2327              		.loc 1 108 5 is_stmt 1 view .LVU668
ARM GAS  C:\Users\BLACK_~1\AppData\Local\Temp\ccbv02In.s 			page 78


 108:lvgl/src/core/lv_obj_style.c ****     lv_part_t part = lv_obj_style_get_selector_part(selector);
 2328              		.loc 1 108 24 is_stmt 0 view .LVU669
 2329 000e 1046     		mov	r0, r2
 2330              	.LVL223:
 108:lvgl/src/core/lv_obj_style.c ****     lv_part_t part = lv_obj_style_get_selector_part(selector);
 2331              		.loc 1 108 24 view .LVU670
 2332 0010 FFF7FEFF 		bl	lv_obj_style_get_selector_state
 2333              	.LVL224:
 108:lvgl/src/core/lv_obj_style.c ****     lv_part_t part = lv_obj_style_get_selector_part(selector);
 2334              		.loc 1 108 24 view .LVU671
 2335 0014 8146     		mov	r9, r0
 2336              	.LVL225:
 109:lvgl/src/core/lv_obj_style.c ****     lv_style_prop_t prop = LV_STYLE_PROP_ANY;
 2337              		.loc 1 109 5 is_stmt 1 view .LVU672
 109:lvgl/src/core/lv_obj_style.c ****     lv_style_prop_t prop = LV_STYLE_PROP_ANY;
 2338              		.loc 1 109 22 is_stmt 0 view .LVU673
 2339 0016 2846     		mov	r0, r5
 2340 0018 FFF7FEFF 		bl	lv_obj_style_get_selector_part
 2341              	.LVL226:
 2342 001c 8346     		mov	fp, r0
 2343              	.LVL227:
 110:lvgl/src/core/lv_obj_style.c ****     if(style && style->prop_cnt == 0) prop = LV_STYLE_PROP_INV;
 2344              		.loc 1 110 5 is_stmt 1 view .LVU674
 111:lvgl/src/core/lv_obj_style.c **** 
 2345              		.loc 1 111 5 view .LVU675
 111:lvgl/src/core/lv_obj_style.c **** 
 2346              		.loc 1 111 7 is_stmt 0 view .LVU676
 2347 001e 46B1     		cbz	r6, .L181
 111:lvgl/src/core/lv_obj_style.c **** 
 2348              		.loc 1 111 22 discriminator 1 view .LVU677
 2349 0020 F379     		ldrb	r3, [r6, #7]	@ zero_extendqisi2
 111:lvgl/src/core/lv_obj_style.c **** 
 2350              		.loc 1 111 14 discriminator 1 view .LVU678
 2351 0022 53B1     		cbz	r3, .L182
 110:lvgl/src/core/lv_obj_style.c ****     if(style && style->prop_cnt == 0) prop = LV_STYLE_PROP_INV;
 2352              		.loc 1 110 21 view .LVU679
 2353 0024 4FF6FF73 		movw	r3, #65535
 2354 0028 0393     		str	r3, [sp, #12]
 2355              	.L168:
 2356              	.LVL228:
 113:lvgl/src/core/lv_obj_style.c ****     bool deleted = false;
 2357              		.loc 1 113 5 is_stmt 1 view .LVU680
 114:lvgl/src/core/lv_obj_style.c ****     while(i <  obj->style_cnt) {
 2358              		.loc 1 114 5 view .LVU681
 115:lvgl/src/core/lv_obj_style.c ****         lv_state_t state_act = lv_obj_style_get_selector_state(obj->styles[i].selector);
 2359              		.loc 1 115 5 view .LVU682
 114:lvgl/src/core/lv_obj_style.c ****     while(i <  obj->style_cnt) {
 2360              		.loc 1 114 10 is_stmt 0 view .LVU683
 2361 002a 0023     		movs	r3, #0
 2362 002c 0293     		str	r3, [sp, #8]
 113:lvgl/src/core/lv_obj_style.c ****     bool deleted = false;
 2363              		.loc 1 113 14 view .LVU684
 2364 002e 1D46     		mov	r5, r3
 2365              	.LVL229:
 115:lvgl/src/core/lv_obj_style.c ****         lv_state_t state_act = lv_obj_style_get_selector_state(obj->styles[i].selector);
 2366              		.loc 1 115 10 view .LVU685
 2367 0030 0DE0     		b	.L169
ARM GAS  C:\Users\BLACK_~1\AppData\Local\Temp\ccbv02In.s 			page 79


 2368              	.LVL230:
 2369              	.L181:
 110:lvgl/src/core/lv_obj_style.c ****     if(style && style->prop_cnt == 0) prop = LV_STYLE_PROP_INV;
 2370              		.loc 1 110 21 view .LVU686
 2371 0032 4FF6FF73 		movw	r3, #65535
 2372 0036 0393     		str	r3, [sp, #12]
 2373 0038 F7E7     		b	.L168
 2374              	.L182:
 111:lvgl/src/core/lv_obj_style.c **** 
 2375              		.loc 1 111 44 view .LVU687
 2376 003a 0023     		movs	r3, #0
 2377 003c 0393     		str	r3, [sp, #12]
 2378 003e F4E7     		b	.L168
 2379              	.LVL231:
 2380              	.L172:
 2381              	.LBB84:
 119:lvgl/src/core/lv_obj_style.c ****            (style != NULL && style != obj->styles[i].style))
 2382              		.loc 1 119 54 discriminator 1 view .LVU688
 2383 0040 019A     		ldr	r2, [sp, #4]
 2384 0042 32B3     		cbz	r2, .L173
 120:lvgl/src/core/lv_obj_style.c ****         {
 2385              		.loc 1 120 53 view .LVU689
 2386 0044 57F80A30 		ldr	r3, [r7, r10]
 120:lvgl/src/core/lv_obj_style.c ****         {
 2387              		.loc 1 120 27 view .LVU690
 2388 0048 9342     		cmp	r3, r2
 2389 004a 22D0     		beq	.L173
 2390              	.L171:
 122:lvgl/src/core/lv_obj_style.c ****             continue;
 2391              		.loc 1 122 13 is_stmt 1 view .LVU691
 122:lvgl/src/core/lv_obj_style.c ****             continue;
 2392              		.loc 1 122 14 is_stmt 0 view .LVU692
 2393 004c 0135     		adds	r5, r5, #1
 2394              	.LVL232:
 123:lvgl/src/core/lv_obj_style.c ****         }
 2395              		.loc 1 123 13 is_stmt 1 view .LVU693
 2396              	.L169:
 123:lvgl/src/core/lv_obj_style.c ****         }
 2397              		.loc 1 123 13 is_stmt 0 view .LVU694
 2398              	.LBE84:
 115:lvgl/src/core/lv_obj_style.c ****         lv_state_t state_act = lv_obj_style_get_selector_state(obj->styles[i].selector);
 2399              		.loc 1 115 10 is_stmt 1 view .LVU695
 115:lvgl/src/core/lv_obj_style.c ****         lv_state_t state_act = lv_obj_style_get_selector_state(obj->styles[i].selector);
 2400              		.loc 1 115 19 is_stmt 0 view .LVU696
 2401 004e 638C     		ldrh	r3, [r4, #34]
 2402 0050 C3F3C503 		ubfx	r3, r3, #3, #6
 115:lvgl/src/core/lv_obj_style.c ****         lv_state_t state_act = lv_obj_style_get_selector_state(obj->styles[i].selector);
 2403              		.loc 1 115 10 view .LVU697
 2404 0054 AB42     		cmp	r3, r5
 2405 0056 5FD9     		bls	.L184
 2406              	.LBB85:
 116:lvgl/src/core/lv_obj_style.c ****         lv_part_t part_act = lv_obj_style_get_selector_part(obj->styles[i].selector);
 2407              		.loc 1 116 9 is_stmt 1 view .LVU698
 116:lvgl/src/core/lv_obj_style.c ****         lv_part_t part_act = lv_obj_style_get_selector_part(obj->styles[i].selector);
 2408              		.loc 1 116 67 is_stmt 0 view .LVU699
 2409 0058 E768     		ldr	r7, [r4, #12]
 116:lvgl/src/core/lv_obj_style.c ****         lv_part_t part_act = lv_obj_style_get_selector_part(obj->styles[i].selector);
ARM GAS  C:\Users\BLACK_~1\AppData\Local\Temp\ccbv02In.s 			page 80


 2410              		.loc 1 116 75 view .LVU700
 2411 005a 4FEAC50A 		lsl	r10, r5, #3
 2412 005e 07EBC508 		add	r8, r7, r5, lsl #3
 116:lvgl/src/core/lv_obj_style.c ****         lv_part_t part_act = lv_obj_style_get_selector_part(obj->styles[i].selector);
 2413              		.loc 1 116 78 view .LVU701
 2414 0062 D8F80460 		ldr	r6, [r8, #4]
 2415 0066 C6F31706 		ubfx	r6, r6, #0, #24
 116:lvgl/src/core/lv_obj_style.c ****         lv_part_t part_act = lv_obj_style_get_selector_part(obj->styles[i].selector);
 2416              		.loc 1 116 32 view .LVU702
 2417 006a 3046     		mov	r0, r6
 2418 006c FFF7FEFF 		bl	lv_obj_style_get_selector_state
 2419              	.LVL233:
 2420 0070 0090     		str	r0, [sp]
 2421              	.LVL234:
 117:lvgl/src/core/lv_obj_style.c ****         if((state != LV_STATE_ANY && state_act != state) ||
 2422              		.loc 1 117 9 is_stmt 1 view .LVU703
 117:lvgl/src/core/lv_obj_style.c ****         if((state != LV_STATE_ANY && state_act != state) ||
 2423              		.loc 1 117 30 is_stmt 0 view .LVU704
 2424 0072 3046     		mov	r0, r6
 2425 0074 FFF7FEFF 		bl	lv_obj_style_get_selector_part
 2426              	.LVL235:
 118:lvgl/src/core/lv_obj_style.c ****            (part != LV_PART_ANY && part_act != part) ||
 2427              		.loc 1 118 9 is_stmt 1 view .LVU705
 118:lvgl/src/core/lv_obj_style.c ****            (part != LV_PART_ANY && part_act != part) ||
 2428              		.loc 1 118 11 is_stmt 0 view .LVU706
 2429 0078 4FF6FF73 		movw	r3, #65535
 2430 007c 9945     		cmp	r9, r3
 2431 007e 02D0     		beq	.L170
 118:lvgl/src/core/lv_obj_style.c ****            (part != LV_PART_ANY && part_act != part) ||
 2432              		.loc 1 118 35 discriminator 1 view .LVU707
 2433 0080 009B     		ldr	r3, [sp]
 2434 0082 9945     		cmp	r9, r3
 2435 0084 E2D1     		bne	.L171
 2436              	.L170:
 118:lvgl/src/core/lv_obj_style.c ****            (part != LV_PART_ANY && part_act != part) ||
 2437              		.loc 1 118 58 discriminator 3 view .LVU708
 2438 0086 BBF5702F 		cmp	fp, #983040
 2439 008a D9D0     		beq	.L172
 119:lvgl/src/core/lv_obj_style.c ****            (style != NULL && style != obj->styles[i].style))
 2440              		.loc 1 119 33 view .LVU709
 2441 008c 8345     		cmp	fp, r0
 2442 008e D7D0     		beq	.L172
 2443 0090 DCE7     		b	.L171
 2444              	.L173:
 126:lvgl/src/core/lv_obj_style.c ****             trans_del(obj, part, LV_STYLE_PROP_ANY, NULL);
 2445              		.loc 1 126 9 is_stmt 1 view .LVU710
 126:lvgl/src/core/lv_obj_style.c ****             trans_del(obj, part, LV_STYLE_PROP_ANY, NULL);
 2446              		.loc 1 126 12 is_stmt 0 view .LVU711
 2447 0092 98F80730 		ldrb	r3, [r8, #7]	@ zero_extendqisi2
 126:lvgl/src/core/lv_obj_style.c ****             trans_del(obj, part, LV_STYLE_PROP_ANY, NULL);
 2448              		.loc 1 126 11 view .LVU712
 2449 0096 13F0020F 		tst	r3, #2
 2450 009a 08D1     		bne	.L185
 2451              	.LVL236:
 2452              	.L175:
 130:lvgl/src/core/lv_obj_style.c ****             lv_style_reset(obj->styles[i].style);
 2453              		.loc 1 130 9 is_stmt 1 view .LVU713
ARM GAS  C:\Users\BLACK_~1\AppData\Local\Temp\ccbv02In.s 			page 81


 130:lvgl/src/core/lv_obj_style.c ****             lv_style_reset(obj->styles[i].style);
 2454              		.loc 1 130 15 is_stmt 0 view .LVU714
 2455 009c E368     		ldr	r3, [r4, #12]
 130:lvgl/src/core/lv_obj_style.c ****             lv_style_reset(obj->styles[i].style);
 2456              		.loc 1 130 23 view .LVU715
 2457 009e 03EB0A02 		add	r2, r3, r10
 130:lvgl/src/core/lv_obj_style.c ****             lv_style_reset(obj->styles[i].style);
 2458              		.loc 1 130 36 view .LVU716
 2459 00a2 D279     		ldrb	r2, [r2, #7]	@ zero_extendqisi2
 130:lvgl/src/core/lv_obj_style.c ****             lv_style_reset(obj->styles[i].style);
 2460              		.loc 1 130 11 view .LVU717
 2461 00a4 12F0030F 		tst	r2, #3
 2462 00a8 09D1     		bne	.L186
 2463              	.L176:
 2464              	.LBE85:
 110:lvgl/src/core/lv_obj_style.c ****     if(style && style->prop_cnt == 0) prop = LV_STYLE_PROP_INV;
 2465              		.loc 1 110 21 discriminator 1 view .LVU718
 2466 00aa 2A46     		mov	r2, r5
 2467 00ac 1FE0     		b	.L177
 2468              	.LVL237:
 2469              	.L185:
 2470              	.LBB86:
 127:lvgl/src/core/lv_obj_style.c ****         }
 2471              		.loc 1 127 13 is_stmt 1 view .LVU719
 2472 00ae 0023     		movs	r3, #0
 2473 00b0 4FF6FF72 		movw	r2, #65535
 2474 00b4 5946     		mov	r1, fp
 2475 00b6 2046     		mov	r0, r4
 2476              	.LVL238:
 127:lvgl/src/core/lv_obj_style.c ****         }
 2477              		.loc 1 127 13 is_stmt 0 view .LVU720
 2478 00b8 FFF7FEFF 		bl	trans_del
 2479              	.LVL239:
 2480 00bc EEE7     		b	.L175
 2481              	.L186:
 131:lvgl/src/core/lv_obj_style.c ****             lv_mem_free(obj->styles[i].style);
 2482              		.loc 1 131 13 is_stmt 1 view .LVU721
 2483 00be 53F80A00 		ldr	r0, [r3, r10]
 2484 00c2 FFF7FEFF 		bl	lv_style_reset
 2485              	.LVL240:
 132:lvgl/src/core/lv_obj_style.c ****             obj->styles[i].style = NULL;
 2486              		.loc 1 132 13 view .LVU722
 132:lvgl/src/core/lv_obj_style.c ****             obj->styles[i].style = NULL;
 2487              		.loc 1 132 28 is_stmt 0 view .LVU723
 2488 00c6 E368     		ldr	r3, [r4, #12]
 132:lvgl/src/core/lv_obj_style.c ****             obj->styles[i].style = NULL;
 2489              		.loc 1 132 13 view .LVU724
 2490 00c8 53F80A00 		ldr	r0, [r3, r10]
 2491 00cc FFF7FEFF 		bl	lv_mem_free
 2492              	.LVL241:
 133:lvgl/src/core/lv_obj_style.c ****         }
 2493              		.loc 1 133 13 is_stmt 1 view .LVU725
 133:lvgl/src/core/lv_obj_style.c ****         }
 2494              		.loc 1 133 16 is_stmt 0 view .LVU726
 2495 00d0 E368     		ldr	r3, [r4, #12]
 133:lvgl/src/core/lv_obj_style.c ****         }
 2496              		.loc 1 133 34 view .LVU727
ARM GAS  C:\Users\BLACK_~1\AppData\Local\Temp\ccbv02In.s 			page 82


 2497 00d2 0022     		movs	r2, #0
 2498 00d4 43F80A20 		str	r2, [r3, r10]
 2499 00d8 E7E7     		b	.L176
 2500              	.LVL242:
 2501              	.L178:
 139:lvgl/src/core/lv_obj_style.c ****         }
 2502              		.loc 1 139 13 is_stmt 1 discriminator 3 view .LVU728
 139:lvgl/src/core/lv_obj_style.c ****         }
 2503              		.loc 1 139 33 is_stmt 0 discriminator 3 view .LVU729
 2504 00da E368     		ldr	r3, [r4, #12]
 139:lvgl/src/core/lv_obj_style.c ****         }
 2505              		.loc 1 139 41 discriminator 3 view .LVU730
 2506 00dc 561C     		adds	r6, r2, #1
 2507 00de 03EBC601 		add	r1, r3, r6, lsl #3
 139:lvgl/src/core/lv_obj_style.c ****         }
 2508              		.loc 1 139 24 discriminator 3 view .LVU731
 2509 00e2 03EBC203 		add	r3, r3, r2, lsl #3
 139:lvgl/src/core/lv_obj_style.c ****         }
 2510              		.loc 1 139 28 discriminator 3 view .LVU732
 2511 00e6 03C9     		ldm	r1, {r0, r1}
 2512 00e8 83E80300 		stm	r3, {r0, r1}
 138:lvgl/src/core/lv_obj_style.c ****             obj->styles[j] = obj->styles[j + 1];
 2513              		.loc 1 138 55 is_stmt 1 discriminator 3 view .LVU733
 2514              	.LVL243:
 138:lvgl/src/core/lv_obj_style.c ****             obj->styles[j] = obj->styles[j + 1];
 2515              		.loc 1 138 56 is_stmt 0 discriminator 3 view .LVU734
 2516 00ec 3246     		mov	r2, r6
 2517              	.LVL244:
 2518              	.L177:
 138:lvgl/src/core/lv_obj_style.c ****             obj->styles[j] = obj->styles[j + 1];
 2519              		.loc 1 138 20 is_stmt 1 discriminator 1 view .LVU735
 138:lvgl/src/core/lv_obj_style.c ****             obj->styles[j] = obj->styles[j + 1];
 2520              		.loc 1 138 37 is_stmt 0 discriminator 1 view .LVU736
 2521 00ee 618C     		ldrh	r1, [r4, #34]
 2522 00f0 C1F3C501 		ubfx	r1, r1, #3, #6
 138:lvgl/src/core/lv_obj_style.c ****             obj->styles[j] = obj->styles[j + 1];
 2523              		.loc 1 138 49 discriminator 1 view .LVU737
 2524 00f4 4B1E     		subs	r3, r1, #1
 138:lvgl/src/core/lv_obj_style.c ****             obj->styles[j] = obj->styles[j + 1];
 2525              		.loc 1 138 9 discriminator 1 view .LVU738
 2526 00f6 9342     		cmp	r3, r2
 2527 00f8 EFD8     		bhi	.L178
 142:lvgl/src/core/lv_obj_style.c ****         obj->styles = lv_mem_realloc(obj->styles, obj->style_cnt * sizeof(_lv_obj_style_t));
 2528              		.loc 1 142 9 is_stmt 1 view .LVU739
 142:lvgl/src/core/lv_obj_style.c ****         obj->styles = lv_mem_realloc(obj->styles, obj->style_cnt * sizeof(_lv_obj_style_t));
 2529              		.loc 1 142 23 is_stmt 0 view .LVU740
 2530 00fa 3F31     		adds	r1, r1, #63
 2531 00fc 01F03F01 		and	r1, r1, #63
 2532 0100 638C     		ldrh	r3, [r4, #34]
 2533 0102 61F3C803 		bfi	r3, r1, #3, #6
 2534 0106 6384     		strh	r3, [r4, #34]	@ movhi
 2535              	.LVL245:
 143:lvgl/src/core/lv_obj_style.c **** 
 2536              		.loc 1 143 9 is_stmt 1 view .LVU741
 143:lvgl/src/core/lv_obj_style.c **** 
 2537              		.loc 1 143 23 is_stmt 0 view .LVU742
 2538 0108 C900     		lsls	r1, r1, #3
ARM GAS  C:\Users\BLACK_~1\AppData\Local\Temp\ccbv02In.s 			page 83


 2539 010a E068     		ldr	r0, [r4, #12]
 2540 010c FFF7FEFF 		bl	lv_mem_realloc
 2541              	.LVL246:
 143:lvgl/src/core/lv_obj_style.c **** 
 2542              		.loc 1 143 21 view .LVU743
 2543 0110 E060     		str	r0, [r4, #12]
 145:lvgl/src/core/lv_obj_style.c ****         /*The style from the current `i` index is removed, so `i` points to the next style.
 2544              		.loc 1 145 9 is_stmt 1 view .LVU744
 2545              	.LVL247:
 145:lvgl/src/core/lv_obj_style.c ****         /*The style from the current `i` index is removed, so `i` points to the next style.
 2546              		.loc 1 145 17 is_stmt 0 view .LVU745
 2547 0112 0123     		movs	r3, #1
 2548 0114 0293     		str	r3, [sp, #8]
 2549 0116 9AE7     		b	.L169
 2550              	.LVL248:
 2551              	.L184:
 145:lvgl/src/core/lv_obj_style.c ****         /*The style from the current `i` index is removed, so `i` points to the next style.
 2552              		.loc 1 145 17 view .LVU746
 2553              	.LBE86:
 149:lvgl/src/core/lv_obj_style.c ****         lv_obj_refresh_style(obj, part, prop);
 2554              		.loc 1 149 5 is_stmt 1 view .LVU747
 149:lvgl/src/core/lv_obj_style.c ****         lv_obj_refresh_style(obj, part, prop);
 2555              		.loc 1 149 7 is_stmt 0 view .LVU748
 2556 0118 029B     		ldr	r3, [sp, #8]
 2557 011a 0BB1     		cbz	r3, .L167
 149:lvgl/src/core/lv_obj_style.c ****         lv_obj_refresh_style(obj, part, prop);
 2558              		.loc 1 149 16 discriminator 1 view .LVU749
 2559 011c 039B     		ldr	r3, [sp, #12]
 2560 011e 13B9     		cbnz	r3, .L187
 2561              	.L167:
 152:lvgl/src/core/lv_obj_style.c **** 
 2562              		.loc 1 152 1 view .LVU750
 2563 0120 05B0     		add	sp, sp, #20
 2564              	.LCFI26:
 2565              		.cfi_remember_state
 2566              		.cfi_def_cfa_offset 36
 2567              		@ sp needed
 2568 0122 BDE8F08F 		pop	{r4, r5, r6, r7, r8, r9, r10, fp, pc}
 2569              	.LVL249:
 2570              	.L187:
 2571              	.LCFI27:
 2572              		.cfi_restore_state
 150:lvgl/src/core/lv_obj_style.c ****     }
 2573              		.loc 1 150 9 is_stmt 1 view .LVU751
 2574 0126 1A46     		mov	r2, r3
 2575 0128 5946     		mov	r1, fp
 2576 012a 2046     		mov	r0, r4
 2577 012c FFF7FEFF 		bl	lv_obj_refresh_style
 2578              	.LVL250:
 152:lvgl/src/core/lv_obj_style.c **** 
 2579              		.loc 1 152 1 is_stmt 0 view .LVU752
 2580 0130 F6E7     		b	.L167
 2581              		.cfi_endproc
 2582              	.LFE155:
 2584              		.section	.text.trans_anim_ready_cb,"ax",%progbits
 2585              		.align	1
 2586              		.syntax unified
ARM GAS  C:\Users\BLACK_~1\AppData\Local\Temp\ccbv02In.s 			page 84


 2587              		.thumb
 2588              		.thumb_func
 2590              	trans_anim_ready_cb:
 2591              	.LVL251:
 2592              	.LFB178:
 764:lvgl/src/core/lv_obj_style.c ****     trans_t * tr = a->var;
 2593              		.loc 1 764 1 is_stmt 1 view -0
 2594              		.cfi_startproc
 2595              		@ args = 0, pretend = 0, frame = 0
 2596              		@ frame_needed = 0, uses_anonymous_args = 0
 764:lvgl/src/core/lv_obj_style.c ****     trans_t * tr = a->var;
 2597              		.loc 1 764 1 is_stmt 0 view .LVU754
 2598 0000 2DE9F041 		push	{r4, r5, r6, r7, r8, lr}
 2599              	.LCFI28:
 2600              		.cfi_def_cfa_offset 24
 2601              		.cfi_offset 4, -24
 2602              		.cfi_offset 5, -20
 2603              		.cfi_offset 6, -16
 2604              		.cfi_offset 7, -12
 2605              		.cfi_offset 8, -8
 2606              		.cfi_offset 14, -4
 765:lvgl/src/core/lv_obj_style.c ****     lv_obj_t * obj = tr->obj;
 2607              		.loc 1 765 5 is_stmt 1 view .LVU755
 765:lvgl/src/core/lv_obj_style.c ****     lv_obj_t * obj = tr->obj;
 2608              		.loc 1 765 15 is_stmt 0 view .LVU756
 2609 0004 0468     		ldr	r4, [r0]
 2610              	.LVL252:
 766:lvgl/src/core/lv_obj_style.c ****     lv_style_prop_t prop = tr->prop;
 2611              		.loc 1 766 5 is_stmt 1 view .LVU757
 766:lvgl/src/core/lv_obj_style.c ****     lv_style_prop_t prop = tr->prop;
 2612              		.loc 1 766 16 is_stmt 0 view .LVU758
 2613 0006 2568     		ldr	r5, [r4]
 2614              	.LVL253:
 767:lvgl/src/core/lv_obj_style.c **** 
 2615              		.loc 1 767 5 is_stmt 1 view .LVU759
 767:lvgl/src/core/lv_obj_style.c **** 
 2616              		.loc 1 767 21 is_stmt 0 view .LVU760
 2617 0008 A688     		ldrh	r6, [r4, #4]
 2618              	.LVL254:
 772:lvgl/src/core/lv_obj_style.c ****     trans_t * tr_i;
 2619              		.loc 1 772 5 is_stmt 1 view .LVU761
 773:lvgl/src/core/lv_obj_style.c ****     _LV_LL_READ(&LV_GC_ROOT(_lv_obj_style_trans_ll), tr_i) {
 2620              		.loc 1 773 5 view .LVU762
 774:lvgl/src/core/lv_obj_style.c ****         if(tr_i != tr && tr_i->obj == tr->obj && tr_i->selector == tr->selector && tr_i->prop == tr
 2621              		.loc 1 774 5 view .LVU763
 2622 000a 2748     		ldr	r0, .L200
 2623              	.LVL255:
 774:lvgl/src/core/lv_obj_style.c ****         if(tr_i != tr && tr_i->obj == tr->obj && tr_i->selector == tr->selector && tr_i->prop == tr
 2624              		.loc 1 774 5 is_stmt 0 view .LVU764
 2625 000c FFF7FEFF 		bl	_lv_ll_get_head
 2626              	.LVL256:
 2627 0010 0146     		mov	r1, r0
 2628              	.LVL257:
 774:lvgl/src/core/lv_obj_style.c ****         if(tr_i != tr && tr_i->obj == tr->obj && tr_i->selector == tr->selector && tr_i->prop == tr
 2629              		.loc 1 774 5 view .LVU765
 2630 0012 03E0     		b	.L189
 2631              	.L190:
ARM GAS  C:\Users\BLACK_~1\AppData\Local\Temp\ccbv02In.s 			page 85


 774:lvgl/src/core/lv_obj_style.c ****         if(tr_i != tr && tr_i->obj == tr->obj && tr_i->selector == tr->selector && tr_i->prop == tr
 2632              		.loc 1 774 5 is_stmt 1 discriminator 2 view .LVU766
 2633 0014 2448     		ldr	r0, .L200
 2634              	.LVL258:
 774:lvgl/src/core/lv_obj_style.c ****         if(tr_i != tr && tr_i->obj == tr->obj && tr_i->selector == tr->selector && tr_i->prop == tr
 2635              		.loc 1 774 5 is_stmt 0 discriminator 2 view .LVU767
 2636 0016 FFF7FEFF 		bl	_lv_ll_get_next
 2637              	.LVL259:
 774:lvgl/src/core/lv_obj_style.c ****         if(tr_i != tr && tr_i->obj == tr->obj && tr_i->selector == tr->selector && tr_i->prop == tr
 2638              		.loc 1 774 5 discriminator 2 view .LVU768
 2639 001a 0146     		mov	r1, r0
 2640              	.LVL260:
 2641              	.L189:
 774:lvgl/src/core/lv_obj_style.c ****         if(tr_i != tr && tr_i->obj == tr->obj && tr_i->selector == tr->selector && tr_i->prop == tr
 2642              		.loc 1 774 5 is_stmt 1 discriminator 1 view .LVU769
 2643 001c 79B1     		cbz	r1, .L199
 775:lvgl/src/core/lv_obj_style.c ****             running = true;
 2644              		.loc 1 775 9 view .LVU770
 775:lvgl/src/core/lv_obj_style.c ****             running = true;
 2645              		.loc 1 775 11 is_stmt 0 view .LVU771
 2646 001e A142     		cmp	r1, r4
 2647 0020 F8D0     		beq	.L190
 775:lvgl/src/core/lv_obj_style.c ****             running = true;
 2648              		.loc 1 775 30 discriminator 1 view .LVU772
 2649 0022 0A68     		ldr	r2, [r1]
 775:lvgl/src/core/lv_obj_style.c ****             running = true;
 2650              		.loc 1 775 41 discriminator 1 view .LVU773
 2651 0024 2368     		ldr	r3, [r4]
 775:lvgl/src/core/lv_obj_style.c ****             running = true;
 2652              		.loc 1 775 23 discriminator 1 view .LVU774
 2653 0026 9A42     		cmp	r2, r3
 2654 0028 F4D1     		bne	.L190
 775:lvgl/src/core/lv_obj_style.c ****             running = true;
 2655              		.loc 1 775 54 discriminator 2 view .LVU775
 2656 002a 8A68     		ldr	r2, [r1, #8]
 775:lvgl/src/core/lv_obj_style.c ****             running = true;
 2657              		.loc 1 775 70 discriminator 2 view .LVU776
 2658 002c A368     		ldr	r3, [r4, #8]
 775:lvgl/src/core/lv_obj_style.c ****             running = true;
 2659              		.loc 1 775 47 discriminator 2 view .LVU777
 2660 002e 9A42     		cmp	r2, r3
 2661 0030 F0D1     		bne	.L190
 775:lvgl/src/core/lv_obj_style.c ****             running = true;
 2662              		.loc 1 775 88 discriminator 3 view .LVU778
 2663 0032 8A88     		ldrh	r2, [r1, #4]
 775:lvgl/src/core/lv_obj_style.c ****             running = true;
 2664              		.loc 1 775 100 discriminator 3 view .LVU779
 2665 0034 A388     		ldrh	r3, [r4, #4]
 775:lvgl/src/core/lv_obj_style.c ****             running = true;
 2666              		.loc 1 775 81 discriminator 3 view .LVU780
 2667 0036 9A42     		cmp	r2, r3
 2668 0038 ECD1     		bne	.L190
 776:lvgl/src/core/lv_obj_style.c ****             break;
 2669              		.loc 1 776 21 view .LVU781
 2670 003a 0123     		movs	r3, #1
 2671 003c 00E0     		b	.L191
 2672              	.L199:
ARM GAS  C:\Users\BLACK_~1\AppData\Local\Temp\ccbv02In.s 			page 86


 772:lvgl/src/core/lv_obj_style.c ****     trans_t * tr_i;
 2673              		.loc 1 772 10 view .LVU782
 2674 003e 0023     		movs	r3, #0
 2675              	.L191:
 2676              	.LVL261:
 781:lvgl/src/core/lv_obj_style.c ****         uint32_t i;
 2677              		.loc 1 781 5 is_stmt 1 view .LVU783
 781:lvgl/src/core/lv_obj_style.c ****         uint32_t i;
 2678              		.loc 1 781 7 is_stmt 0 view .LVU784
 2679 0040 13B1     		cbz	r3, .L194
 2680              	.LVL262:
 2681              	.L188:
 799:lvgl/src/core/lv_obj_style.c **** 
 2682              		.loc 1 799 1 view .LVU785
 2683 0042 BDE8F081 		pop	{r4, r5, r6, r7, r8, pc}
 2684              	.LVL263:
 2685              	.L195:
 2686              	.LBB87:
 783:lvgl/src/core/lv_obj_style.c ****             if(obj->styles[i].is_trans && obj->styles[i].selector == tr->selector) {
 2687              		.loc 1 783 40 is_stmt 1 discriminator 2 view .LVU786
 783:lvgl/src/core/lv_obj_style.c ****             if(obj->styles[i].is_trans && obj->styles[i].selector == tr->selector) {
 2688              		.loc 1 783 41 is_stmt 0 discriminator 2 view .LVU787
 2689 0046 0133     		adds	r3, r3, #1
 2690              	.LVL264:
 2691              	.L194:
 783:lvgl/src/core/lv_obj_style.c ****             if(obj->styles[i].is_trans && obj->styles[i].selector == tr->selector) {
 2692              		.loc 1 783 20 is_stmt 1 discriminator 1 view .LVU788
 783:lvgl/src/core/lv_obj_style.c ****             if(obj->styles[i].is_trans && obj->styles[i].selector == tr->selector) {
 2693              		.loc 1 783 27 is_stmt 0 discriminator 1 view .LVU789
 2694 0048 6A8C     		ldrh	r2, [r5, #34]
 2695 004a C2F3C502 		ubfx	r2, r2, #3, #6
 783:lvgl/src/core/lv_obj_style.c ****             if(obj->styles[i].is_trans && obj->styles[i].selector == tr->selector) {
 2696              		.loc 1 783 9 discriminator 1 view .LVU790
 2697 004e 9A42     		cmp	r2, r3
 2698 0050 F7D9     		bls	.L188
 784:lvgl/src/core/lv_obj_style.c ****                 _lv_ll_remove(&LV_GC_ROOT(_lv_obj_style_trans_ll), tr);
 2699              		.loc 1 784 13 is_stmt 1 view .LVU791
 784:lvgl/src/core/lv_obj_style.c ****                 _lv_ll_remove(&LV_GC_ROOT(_lv_obj_style_trans_ll), tr);
 2700              		.loc 1 784 19 is_stmt 0 view .LVU792
 2701 0052 EA68     		ldr	r2, [r5, #12]
 784:lvgl/src/core/lv_obj_style.c ****                 _lv_ll_remove(&LV_GC_ROOT(_lv_obj_style_trans_ll), tr);
 2702              		.loc 1 784 27 view .LVU793
 2703 0054 DF00     		lsls	r7, r3, #3
 2704 0056 02EBC302 		add	r2, r2, r3, lsl #3
 784:lvgl/src/core/lv_obj_style.c ****                 _lv_ll_remove(&LV_GC_ROOT(_lv_obj_style_trans_ll), tr);
 2705              		.loc 1 784 16 view .LVU794
 2706 005a D179     		ldrb	r1, [r2, #7]	@ zero_extendqisi2
 784:lvgl/src/core/lv_obj_style.c ****                 _lv_ll_remove(&LV_GC_ROOT(_lv_obj_style_trans_ll), tr);
 2707              		.loc 1 784 15 view .LVU795
 2708 005c 11F0020F 		tst	r1, #2
 2709 0060 F1D0     		beq	.L195
 784:lvgl/src/core/lv_obj_style.c ****                 _lv_ll_remove(&LV_GC_ROOT(_lv_obj_style_trans_ll), tr);
 2710              		.loc 1 784 57 discriminator 1 view .LVU796
 2711 0062 5268     		ldr	r2, [r2, #4]
 2712 0064 C2F31702 		ubfx	r2, r2, #0, #24
 784:lvgl/src/core/lv_obj_style.c ****                 _lv_ll_remove(&LV_GC_ROOT(_lv_obj_style_trans_ll), tr);
 2713              		.loc 1 784 72 discriminator 1 view .LVU797
ARM GAS  C:\Users\BLACK_~1\AppData\Local\Temp\ccbv02In.s 			page 87


 2714 0068 A168     		ldr	r1, [r4, #8]
 784:lvgl/src/core/lv_obj_style.c ****                 _lv_ll_remove(&LV_GC_ROOT(_lv_obj_style_trans_ll), tr);
 2715              		.loc 1 784 40 discriminator 1 view .LVU798
 2716 006a 8A42     		cmp	r2, r1
 2717 006c EBD1     		bne	.L195
 2718              	.LBB88:
 785:lvgl/src/core/lv_obj_style.c ****                 lv_mem_free(tr);
 2719              		.loc 1 785 17 is_stmt 1 view .LVU799
 2720 006e 2146     		mov	r1, r4
 2721 0070 0D48     		ldr	r0, .L200
 2722              	.LVL265:
 785:lvgl/src/core/lv_obj_style.c ****                 lv_mem_free(tr);
 2723              		.loc 1 785 17 is_stmt 0 view .LVU800
 2724 0072 FFF7FEFF 		bl	_lv_ll_remove
 2725              	.LVL266:
 786:lvgl/src/core/lv_obj_style.c **** 
 2726              		.loc 1 786 17 is_stmt 1 view .LVU801
 2727 0076 2046     		mov	r0, r4
 2728 0078 FFF7FEFF 		bl	lv_mem_free
 2729              	.LVL267:
 788:lvgl/src/core/lv_obj_style.c ****                 lv_style_remove_prop(obj_style->style, prop);
 2730              		.loc 1 788 17 view .LVU802
 788:lvgl/src/core/lv_obj_style.c ****                 lv_style_remove_prop(obj_style->style, prop);
 2731              		.loc 1 788 51 is_stmt 0 view .LVU803
 2732 007c EC68     		ldr	r4, [r5, #12]
 2733              	.LVL268:
 788:lvgl/src/core/lv_obj_style.c ****                 lv_style_remove_prop(obj_style->style, prop);
 2734              		.loc 1 788 35 view .LVU804
 2735 007e 04EB0708 		add	r8, r4, r7
 2736              	.LVL269:
 789:lvgl/src/core/lv_obj_style.c **** 
 2737              		.loc 1 789 17 is_stmt 1 view .LVU805
 2738 0082 3146     		mov	r1, r6
 2739 0084 E059     		ldr	r0, [r4, r7]
 2740 0086 FFF7FEFF 		bl	lv_style_remove_prop
 2741              	.LVL270:
 791:lvgl/src/core/lv_obj_style.c ****                     lv_obj_remove_style(obj, obj_style->style, obj_style->selector);
 2742              		.loc 1 791 17 view .LVU806
 791:lvgl/src/core/lv_obj_style.c ****                     lv_obj_remove_style(obj, obj_style->style, obj_style->selector);
 2743              		.loc 1 791 41 is_stmt 0 view .LVU807
 2744 008a EB68     		ldr	r3, [r5, #12]
 791:lvgl/src/core/lv_obj_style.c ****                     lv_obj_remove_style(obj, obj_style->style, obj_style->selector);
 2745              		.loc 1 791 20 view .LVU808
 2746 008c D859     		ldr	r0, [r3, r7]
 2747 008e FFF7FEFF 		bl	lv_style_is_empty
 2748              	.LVL271:
 791:lvgl/src/core/lv_obj_style.c ****                     lv_obj_remove_style(obj, obj_style->style, obj_style->selector);
 2749              		.loc 1 791 19 view .LVU809
 2750 0092 0028     		cmp	r0, #0
 2751 0094 D5D0     		beq	.L188
 792:lvgl/src/core/lv_obj_style.c **** 
 2752              		.loc 1 792 21 is_stmt 1 view .LVU810
 792:lvgl/src/core/lv_obj_style.c **** 
 2753              		.loc 1 792 73 is_stmt 0 view .LVU811
 2754 0096 D8F80420 		ldr	r2, [r8, #4]
 792:lvgl/src/core/lv_obj_style.c **** 
 2755              		.loc 1 792 21 view .LVU812
ARM GAS  C:\Users\BLACK_~1\AppData\Local\Temp\ccbv02In.s 			page 88


 2756 009a 22F07F42 		bic	r2, r2, #-16777216
 2757 009e E159     		ldr	r1, [r4, r7]
 2758 00a0 2846     		mov	r0, r5
 2759 00a2 FFF7FEFF 		bl	lv_obj_remove_style
 2760              	.LVL272:
 2761 00a6 CCE7     		b	.L188
 2762              	.L201:
 2763              		.align	2
 2764              	.L200:
 2765 00a8 00000000 		.word	_lv_obj_style_trans_ll
 2766              	.LBE88:
 2767              	.LBE87:
 2768              		.cfi_endproc
 2769              	.LFE178:
 2771              		.section	.text.get_prop_core,"ax",%progbits
 2772              		.align	1
 2773              		.syntax unified
 2774              		.thumb
 2775              		.thumb_func
 2777              	get_prop_core:
 2778              	.LVL273:
 2779              	.LFB171:
 529:lvgl/src/core/lv_obj_style.c ****     uint8_t group = 1 << _lv_style_get_prop_group(prop);
 2780              		.loc 1 529 1 is_stmt 1 view -0
 2781              		.cfi_startproc
 2782              		@ args = 0, pretend = 0, frame = 24
 2783              		@ frame_needed = 0, uses_anonymous_args = 0
 529:lvgl/src/core/lv_obj_style.c ****     uint8_t group = 1 << _lv_style_get_prop_group(prop);
 2784              		.loc 1 529 1 is_stmt 0 view .LVU814
 2785 0000 2DE9F04F 		push	{r4, r5, r6, r7, r8, r9, r10, fp, lr}
 2786              	.LCFI29:
 2787              		.cfi_def_cfa_offset 36
 2788              		.cfi_offset 4, -36
 2789              		.cfi_offset 5, -32
 2790              		.cfi_offset 6, -28
 2791              		.cfi_offset 7, -24
 2792              		.cfi_offset 8, -20
 2793              		.cfi_offset 9, -16
 2794              		.cfi_offset 10, -12
 2795              		.cfi_offset 11, -8
 2796              		.cfi_offset 14, -4
 2797 0004 87B0     		sub	sp, sp, #28
 2798              	.LCFI30:
 2799              		.cfi_def_cfa_offset 64
 2800 0006 0646     		mov	r6, r0
 2801 0008 8946     		mov	r9, r1
 2802 000a 0192     		str	r2, [sp, #4]
 2803 000c 0293     		str	r3, [sp, #8]
 530:lvgl/src/core/lv_obj_style.c ****     int32_t weight = -1;
 2804              		.loc 1 530 5 is_stmt 1 view .LVU815
 530:lvgl/src/core/lv_obj_style.c ****     int32_t weight = -1;
 2805              		.loc 1 530 26 is_stmt 0 view .LVU816
 2806 000e 1046     		mov	r0, r2
 2807              	.LVL274:
 530:lvgl/src/core/lv_obj_style.c ****     int32_t weight = -1;
 2808              		.loc 1 530 26 view .LVU817
 2809 0010 FFF7FEFF 		bl	_lv_style_get_prop_group
ARM GAS  C:\Users\BLACK_~1\AppData\Local\Temp\ccbv02In.s 			page 89


 2810              	.LVL275:
 530:lvgl/src/core/lv_obj_style.c ****     int32_t weight = -1;
 2811              		.loc 1 530 23 view .LVU818
 2812 0014 4FF0010A 		mov	r10, #1
 2813 0018 0AFA00FA 		lsl	r10, r10, r0
 530:lvgl/src/core/lv_obj_style.c ****     int32_t weight = -1;
 2814              		.loc 1 530 13 view .LVU819
 2815 001c 5FFA8AFA 		uxtb	r10, r10
 2816              	.LVL276:
 531:lvgl/src/core/lv_obj_style.c ****     lv_state_t state = obj->state;
 2817              		.loc 1 531 5 is_stmt 1 view .LVU820
 532:lvgl/src/core/lv_obj_style.c ****     lv_state_t state_inv = ~state;
 2818              		.loc 1 532 5 view .LVU821
 532:lvgl/src/core/lv_obj_style.c ****     lv_state_t state_inv = ~state;
 2819              		.loc 1 532 16 is_stmt 0 view .LVU822
 2820 0020 338C     		ldrh	r3, [r6, #32]
 2821 0022 0393     		str	r3, [sp, #12]
 2822              	.LVL277:
 533:lvgl/src/core/lv_obj_style.c ****     lv_style_value_t value_tmp;
 2823              		.loc 1 533 5 is_stmt 1 view .LVU823
 533:lvgl/src/core/lv_obj_style.c ****     lv_style_value_t value_tmp;
 2824              		.loc 1 533 16 is_stmt 0 view .LVU824
 2825 0024 6FEA030B 		mvn	fp, r3
 2826 0028 1FFA8BFB 		uxth	fp, fp
 2827              	.LVL278:
 534:lvgl/src/core/lv_obj_style.c ****     bool skip_trans = obj->skip_trans;
 2828              		.loc 1 534 5 is_stmt 1 view .LVU825
 535:lvgl/src/core/lv_obj_style.c ****     uint32_t i;
 2829              		.loc 1 535 5 view .LVU826
 535:lvgl/src/core/lv_obj_style.c ****     uint32_t i;
 2830              		.loc 1 535 26 is_stmt 0 view .LVU827
 2831 002c 96F82280 		ldrb	r8, [r6, #34]	@ zero_extendqisi2
 2832 0030 C8F38008 		ubfx	r8, r8, #2, #1
 2833              	.LVL279:
 536:lvgl/src/core/lv_obj_style.c ****     bool found;
 2834              		.loc 1 536 5 is_stmt 1 view .LVU828
 537:lvgl/src/core/lv_obj_style.c ****     for(i = 0; i < obj->style_cnt; i++) {
 2835              		.loc 1 537 5 view .LVU829
 538:lvgl/src/core/lv_obj_style.c ****         _lv_obj_style_t * obj_style = &obj->styles[i];
 2836              		.loc 1 538 5 view .LVU830
 538:lvgl/src/core/lv_obj_style.c ****         _lv_obj_style_t * obj_style = &obj->styles[i];
 2837              		.loc 1 538 11 is_stmt 0 view .LVU831
 2838 0034 0024     		movs	r4, #0
 2839 0036 4546     		mov	r5, r8
 538:lvgl/src/core/lv_obj_style.c ****         _lv_obj_style_t * obj_style = &obj->styles[i];
 2840              		.loc 1 538 5 view .LVU832
 2841 0038 00E0     		b	.L203
 2842              	.LVL280:
 2843              	.L205:
 538:lvgl/src/core/lv_obj_style.c ****         _lv_obj_style_t * obj_style = &obj->styles[i];
 2844              		.loc 1 538 36 is_stmt 1 discriminator 2 view .LVU833
 538:lvgl/src/core/lv_obj_style.c ****         _lv_obj_style_t * obj_style = &obj->styles[i];
 2845              		.loc 1 538 37 is_stmt 0 discriminator 2 view .LVU834
 2846 003a 0134     		adds	r4, r4, #1
 2847              	.LVL281:
 2848              	.L203:
 538:lvgl/src/core/lv_obj_style.c ****         _lv_obj_style_t * obj_style = &obj->styles[i];
ARM GAS  C:\Users\BLACK_~1\AppData\Local\Temp\ccbv02In.s 			page 90


 2849              		.loc 1 538 16 is_stmt 1 discriminator 1 view .LVU835
 538:lvgl/src/core/lv_obj_style.c ****         _lv_obj_style_t * obj_style = &obj->styles[i];
 2850              		.loc 1 538 23 is_stmt 0 discriminator 1 view .LVU836
 2851 003c 738C     		ldrh	r3, [r6, #34]
 2852 003e C3F3C503 		ubfx	r3, r3, #3, #6
 538:lvgl/src/core/lv_obj_style.c ****         _lv_obj_style_t * obj_style = &obj->styles[i];
 2853              		.loc 1 538 5 discriminator 1 view .LVU837
 2854 0042 A342     		cmp	r3, r4
 2855 0044 22D9     		bls	.L215
 2856              	.LBB89:
 539:lvgl/src/core/lv_obj_style.c ****         if(obj_style->is_trans == false) break;
 2857              		.loc 1 539 9 is_stmt 1 view .LVU838
 539:lvgl/src/core/lv_obj_style.c ****         if(obj_style->is_trans == false) break;
 2858              		.loc 1 539 43 is_stmt 0 view .LVU839
 2859 0046 F768     		ldr	r7, [r6, #12]
 539:lvgl/src/core/lv_obj_style.c ****         if(obj_style->is_trans == false) break;
 2860              		.loc 1 539 51 view .LVU840
 2861 0048 4FEAC408 		lsl	r8, r4, #3
 539:lvgl/src/core/lv_obj_style.c ****         if(obj_style->is_trans == false) break;
 2862              		.loc 1 539 27 view .LVU841
 2863 004c 07EBC403 		add	r3, r7, r4, lsl #3
 2864              	.LVL282:
 540:lvgl/src/core/lv_obj_style.c ****         if(skip_trans) continue;
 2865              		.loc 1 540 9 is_stmt 1 view .LVU842
 540:lvgl/src/core/lv_obj_style.c ****         if(skip_trans) continue;
 2866              		.loc 1 540 32 is_stmt 0 view .LVU843
 2867 0050 DA79     		ldrb	r2, [r3, #7]	@ zero_extendqisi2
 540:lvgl/src/core/lv_obj_style.c ****         if(skip_trans) continue;
 2868              		.loc 1 540 11 view .LVU844
 2869 0052 12F0020F 		tst	r2, #2
 2870 0056 55D0     		beq	.L212
 541:lvgl/src/core/lv_obj_style.c **** 
 2871              		.loc 1 541 9 is_stmt 1 view .LVU845
 541:lvgl/src/core/lv_obj_style.c **** 
 2872              		.loc 1 541 11 is_stmt 0 view .LVU846
 2873 0058 002D     		cmp	r5, #0
 2874 005a EED1     		bne	.L205
 543:lvgl/src/core/lv_obj_style.c **** 
 2875              		.loc 1 543 9 is_stmt 1 view .LVU847
 543:lvgl/src/core/lv_obj_style.c **** 
 2876              		.loc 1 543 75 is_stmt 0 view .LVU848
 2877 005c 5868     		ldr	r0, [r3, #4]
 543:lvgl/src/core/lv_obj_style.c **** 
 2878              		.loc 1 543 30 view .LVU849
 2879 005e 20F07F40 		bic	r0, r0, #-16777216
 2880 0062 FFF7FEFF 		bl	lv_obj_style_get_selector_part
 2881              	.LVL283:
 545:lvgl/src/core/lv_obj_style.c ****         if((obj_style->style->has_group & group) == 0) continue;
 2882              		.loc 1 545 9 is_stmt 1 view .LVU850
 545:lvgl/src/core/lv_obj_style.c ****         if((obj_style->style->has_group & group) == 0) continue;
 2883              		.loc 1 545 11 is_stmt 0 view .LVU851
 2884 0066 4845     		cmp	r0, r9
 2885 0068 E7D1     		bne	.L205
 546:lvgl/src/core/lv_obj_style.c ****         found = lv_style_get_prop(obj_style->style, prop, &value_tmp);
 2886              		.loc 1 546 9 is_stmt 1 view .LVU852
 546:lvgl/src/core/lv_obj_style.c ****         found = lv_style_get_prop(obj_style->style, prop, &value_tmp);
 2887              		.loc 1 546 22 is_stmt 0 view .LVU853
ARM GAS  C:\Users\BLACK_~1\AppData\Local\Temp\ccbv02In.s 			page 91


 2888 006a 57F80800 		ldr	r0, [r7, r8]
 2889              	.LVL284:
 546:lvgl/src/core/lv_obj_style.c ****         found = lv_style_get_prop(obj_style->style, prop, &value_tmp);
 2890              		.loc 1 546 29 view .LVU854
 2891 006e 8379     		ldrb	r3, [r0, #6]	@ zero_extendqisi2
 546:lvgl/src/core/lv_obj_style.c ****         found = lv_style_get_prop(obj_style->style, prop, &value_tmp);
 2892              		.loc 1 546 11 view .LVU855
 2893 0070 13EA0A0F 		tst	r3, r10
 2894 0074 E1D0     		beq	.L205
 547:lvgl/src/core/lv_obj_style.c ****         if(found) {
 2895              		.loc 1 547 9 is_stmt 1 view .LVU856
 547:lvgl/src/core/lv_obj_style.c ****         if(found) {
 2896              		.loc 1 547 17 is_stmt 0 view .LVU857
 2897 0076 05AA     		add	r2, sp, #20
 2898 0078 0199     		ldr	r1, [sp, #4]
 2899 007a FFF7FEFF 		bl	lv_style_get_prop
 2900              	.LVL285:
 548:lvgl/src/core/lv_obj_style.c ****             *v = value_tmp;
 2901              		.loc 1 548 9 is_stmt 1 view .LVU858
 548:lvgl/src/core/lv_obj_style.c ****             *v = value_tmp;
 2902              		.loc 1 548 11 is_stmt 0 view .LVU859
 2903 007e 0028     		cmp	r0, #0
 2904 0080 DBD0     		beq	.L205
 549:lvgl/src/core/lv_obj_style.c ****             return true;
 2905              		.loc 1 549 13 is_stmt 1 view .LVU860
 549:lvgl/src/core/lv_obj_style.c ****             return true;
 2906              		.loc 1 549 16 is_stmt 0 view .LVU861
 2907 0082 059B     		ldr	r3, [sp, #20]
 2908 0084 029A     		ldr	r2, [sp, #8]
 2909 0086 1360     		str	r3, [r2]
 550:lvgl/src/core/lv_obj_style.c ****         }
 2910              		.loc 1 550 13 is_stmt 1 view .LVU862
 550:lvgl/src/core/lv_obj_style.c ****         }
 2911              		.loc 1 550 20 is_stmt 0 view .LVU863
 2912 0088 0120     		movs	r0, #1
 2913              	.LVL286:
 550:lvgl/src/core/lv_obj_style.c ****         }
 2914              		.loc 1 550 20 view .LVU864
 2915 008a 47E0     		b	.L206
 2916              	.LVL287:
 2917              	.L215:
 550:lvgl/src/core/lv_obj_style.c ****         }
 2918              		.loc 1 550 20 view .LVU865
 2919              	.LBE89:
 2920 008c 4FF0FF33 		mov	r3, #-1
 2921 0090 0093     		str	r3, [sp]
 2922 0092 B046     		mov	r8, r6
 2923 0094 05E0     		b	.L210
 2924              	.LVL288:
 2925              	.L217:
 2926              	.LBB90:
 573:lvgl/src/core/lv_obj_style.c ****                 return true;
 2927              		.loc 1 573 17 is_stmt 1 view .LVU866
 573:lvgl/src/core/lv_obj_style.c ****                 return true;
 2928              		.loc 1 573 20 is_stmt 0 view .LVU867
 2929 0096 059B     		ldr	r3, [sp, #20]
 2930 0098 029A     		ldr	r2, [sp, #8]
ARM GAS  C:\Users\BLACK_~1\AppData\Local\Temp\ccbv02In.s 			page 92


 2931 009a 1360     		str	r3, [r2]
 574:lvgl/src/core/lv_obj_style.c ****             }
 2932              		.loc 1 574 17 is_stmt 1 view .LVU868
 574:lvgl/src/core/lv_obj_style.c ****             }
 2933              		.loc 1 574 24 is_stmt 0 view .LVU869
 2934 009c 0120     		movs	r0, #1
 2935              	.LVL289:
 574:lvgl/src/core/lv_obj_style.c ****             }
 2936              		.loc 1 574 24 view .LVU870
 2937 009e 3DE0     		b	.L206
 2938              	.L208:
 574:lvgl/src/core/lv_obj_style.c ****             }
 2939              		.loc 1 574 24 view .LVU871
 2940              	.LBE90:
 554:lvgl/src/core/lv_obj_style.c ****         _lv_obj_style_t * obj_style = &obj->styles[i];
 2941              		.loc 1 554 31 is_stmt 1 view .LVU872
 554:lvgl/src/core/lv_obj_style.c ****         _lv_obj_style_t * obj_style = &obj->styles[i];
 2942              		.loc 1 554 32 is_stmt 0 view .LVU873
 2943 00a0 0134     		adds	r4, r4, #1
 2944              	.LVL290:
 2945              	.L210:
 554:lvgl/src/core/lv_obj_style.c ****         _lv_obj_style_t * obj_style = &obj->styles[i];
 2946              		.loc 1 554 11 is_stmt 1 discriminator 1 view .LVU874
 554:lvgl/src/core/lv_obj_style.c ****         _lv_obj_style_t * obj_style = &obj->styles[i];
 2947              		.loc 1 554 18 is_stmt 0 discriminator 1 view .LVU875
 2948 00a2 B8F82230 		ldrh	r3, [r8, #34]
 2949 00a6 C3F3C503 		ubfx	r3, r3, #3, #6
 554:lvgl/src/core/lv_obj_style.c ****         _lv_obj_style_t * obj_style = &obj->styles[i];
 2950              		.loc 1 554 5 discriminator 1 view .LVU876
 2951 00aa A342     		cmp	r3, r4
 2952 00ac 2FD9     		bls	.L216
 2953              	.LBB91:
 555:lvgl/src/core/lv_obj_style.c ****         lv_part_t part_act = lv_obj_style_get_selector_part(obj->styles[i].selector);
 2954              		.loc 1 555 9 is_stmt 1 view .LVU877
 555:lvgl/src/core/lv_obj_style.c ****         lv_part_t part_act = lv_obj_style_get_selector_part(obj->styles[i].selector);
 2955              		.loc 1 555 43 is_stmt 0 view .LVU878
 2956 00ae D8F80C60 		ldr	r6, [r8, #12]
 555:lvgl/src/core/lv_obj_style.c ****         lv_part_t part_act = lv_obj_style_get_selector_part(obj->styles[i].selector);
 2957              		.loc 1 555 27 view .LVU879
 2958 00b2 06EBC403 		add	r3, r6, r4, lsl #3
 2959              	.LVL291:
 556:lvgl/src/core/lv_obj_style.c ****         lv_state_t state_act = lv_obj_style_get_selector_state(obj->styles[i].selector);
 2960              		.loc 1 556 9 is_stmt 1 view .LVU880
 556:lvgl/src/core/lv_obj_style.c ****         lv_state_t state_act = lv_obj_style_get_selector_state(obj->styles[i].selector);
 2961              		.loc 1 556 75 is_stmt 0 view .LVU881
 2962 00b6 5D68     		ldr	r5, [r3, #4]
 2963 00b8 C5F31705 		ubfx	r5, r5, #0, #24
 556:lvgl/src/core/lv_obj_style.c ****         lv_state_t state_act = lv_obj_style_get_selector_state(obj->styles[i].selector);
 2964              		.loc 1 556 30 view .LVU882
 2965 00bc 2846     		mov	r0, r5
 2966 00be FFF7FEFF 		bl	lv_obj_style_get_selector_part
 2967              	.LVL292:
 556:lvgl/src/core/lv_obj_style.c ****         lv_state_t state_act = lv_obj_style_get_selector_state(obj->styles[i].selector);
 2968              		.loc 1 556 30 view .LVU883
 2969 00c2 0746     		mov	r7, r0
 2970              	.LVL293:
 557:lvgl/src/core/lv_obj_style.c ****         if(part_act != part) continue;
ARM GAS  C:\Users\BLACK_~1\AppData\Local\Temp\ccbv02In.s 			page 93


 2971              		.loc 1 557 9 is_stmt 1 view .LVU884
 557:lvgl/src/core/lv_obj_style.c ****         if(part_act != part) continue;
 2972              		.loc 1 557 32 is_stmt 0 view .LVU885
 2973 00c4 2846     		mov	r0, r5
 2974              	.LVL294:
 557:lvgl/src/core/lv_obj_style.c ****         if(part_act != part) continue;
 2975              		.loc 1 557 32 view .LVU886
 2976 00c6 FFF7FEFF 		bl	lv_obj_style_get_selector_state
 2977              	.LVL295:
 2978 00ca 0546     		mov	r5, r0
 2979              	.LVL296:
 558:lvgl/src/core/lv_obj_style.c **** 
 2980              		.loc 1 558 9 is_stmt 1 view .LVU887
 558:lvgl/src/core/lv_obj_style.c **** 
 2981              		.loc 1 558 11 is_stmt 0 view .LVU888
 2982 00cc B945     		cmp	r9, r7
 2983 00ce E7D1     		bne	.L208
 560:lvgl/src/core/lv_obj_style.c **** 
 2984              		.loc 1 560 9 is_stmt 1 view .LVU889
 560:lvgl/src/core/lv_obj_style.c **** 
 2985              		.loc 1 560 22 is_stmt 0 view .LVU890
 2986 00d0 56F83400 		ldr	r0, [r6, r4, lsl #3]
 560:lvgl/src/core/lv_obj_style.c **** 
 2987              		.loc 1 560 29 view .LVU891
 2988 00d4 8379     		ldrb	r3, [r0, #6]	@ zero_extendqisi2
 560:lvgl/src/core/lv_obj_style.c **** 
 2989              		.loc 1 560 11 view .LVU892
 2990 00d6 13EA0A0F 		tst	r3, r10
 2991 00da E1D0     		beq	.L208
 564:lvgl/src/core/lv_obj_style.c **** 
 2992              		.loc 1 564 9 is_stmt 1 view .LVU893
 564:lvgl/src/core/lv_obj_style.c **** 
 2993              		.loc 1 564 11 is_stmt 0 view .LVU894
 2994 00dc 1BEA050F 		tst	fp, r5
 2995 00e0 DED1     		bne	.L208
 567:lvgl/src/core/lv_obj_style.c **** 
 2996              		.loc 1 567 9 is_stmt 1 view .LVU895
 567:lvgl/src/core/lv_obj_style.c **** 
 2997              		.loc 1 567 11 is_stmt 0 view .LVU896
 2998 00e2 009B     		ldr	r3, [sp]
 2999 00e4 9D42     		cmp	r5, r3
 3000 00e6 DBDD     		ble	.L208
 569:lvgl/src/core/lv_obj_style.c **** 
 3001              		.loc 1 569 9 is_stmt 1 view .LVU897
 569:lvgl/src/core/lv_obj_style.c **** 
 3002              		.loc 1 569 17 is_stmt 0 view .LVU898
 3003 00e8 05AA     		add	r2, sp, #20
 3004 00ea 0199     		ldr	r1, [sp, #4]
 3005 00ec FFF7FEFF 		bl	lv_style_get_prop
 3006              	.LVL297:
 571:lvgl/src/core/lv_obj_style.c ****             if(state_act == state) {
 3007              		.loc 1 571 9 is_stmt 1 view .LVU899
 571:lvgl/src/core/lv_obj_style.c ****             if(state_act == state) {
 3008              		.loc 1 571 11 is_stmt 0 view .LVU900
 3009 00f0 0028     		cmp	r0, #0
 3010 00f2 D5D0     		beq	.L208
 572:lvgl/src/core/lv_obj_style.c ****                 *v = value_tmp;
ARM GAS  C:\Users\BLACK_~1\AppData\Local\Temp\ccbv02In.s 			page 94


 3011              		.loc 1 572 13 is_stmt 1 view .LVU901
 572:lvgl/src/core/lv_obj_style.c ****                 *v = value_tmp;
 3012              		.loc 1 572 15 is_stmt 0 view .LVU902
 3013 00f4 039B     		ldr	r3, [sp, #12]
 3014 00f6 AB42     		cmp	r3, r5
 3015 00f8 CDD0     		beq	.L217
 576:lvgl/src/core/lv_obj_style.c ****                 weight = state_act;
 3016              		.loc 1 576 13 is_stmt 1 view .LVU903
 577:lvgl/src/core/lv_obj_style.c ****                 *v = value_tmp;
 3017              		.loc 1 577 17 view .LVU904
 3018              	.LVL298:
 578:lvgl/src/core/lv_obj_style.c ****             }
 3019              		.loc 1 578 17 view .LVU905
 578:lvgl/src/core/lv_obj_style.c ****             }
 3020              		.loc 1 578 20 is_stmt 0 view .LVU906
 3021 00fa 059B     		ldr	r3, [sp, #20]
 3022 00fc 029A     		ldr	r2, [sp, #8]
 3023 00fe 1360     		str	r3, [r2]
 577:lvgl/src/core/lv_obj_style.c ****                 *v = value_tmp;
 3024              		.loc 1 577 24 view .LVU907
 3025 0100 0095     		str	r5, [sp]
 3026 0102 CDE7     		b	.L208
 3027              	.LVL299:
 3028              	.L212:
 577:lvgl/src/core/lv_obj_style.c ****                 *v = value_tmp;
 3029              		.loc 1 577 24 view .LVU908
 3030              	.LBE91:
 3031 0104 4FF0FF33 		mov	r3, #-1
 3032              	.LVL300:
 577:lvgl/src/core/lv_obj_style.c ****                 *v = value_tmp;
 3033              		.loc 1 577 24 view .LVU909
 3034 0108 0093     		str	r3, [sp]
 3035 010a B046     		mov	r8, r6
 3036 010c C9E7     		b	.L210
 3037              	.LVL301:
 3038              	.L216:
 583:lvgl/src/core/lv_obj_style.c ****         *v = value_tmp;
 3039              		.loc 1 583 5 is_stmt 1 view .LVU910
 583:lvgl/src/core/lv_obj_style.c ****         *v = value_tmp;
 3040              		.loc 1 583 7 is_stmt 0 view .LVU911
 3041 010e 009B     		ldr	r3, [sp]
 3042 0110 002B     		cmp	r3, #0
 3043 0112 06DB     		blt	.L213
 584:lvgl/src/core/lv_obj_style.c ****         return true;
 3044              		.loc 1 584 9 is_stmt 1 view .LVU912
 584:lvgl/src/core/lv_obj_style.c ****         return true;
 3045              		.loc 1 584 12 is_stmt 0 view .LVU913
 3046 0114 059B     		ldr	r3, [sp, #20]
 3047 0116 029A     		ldr	r2, [sp, #8]
 3048 0118 1360     		str	r3, [r2]
 585:lvgl/src/core/lv_obj_style.c ****     }
 3049              		.loc 1 585 9 is_stmt 1 view .LVU914
 585:lvgl/src/core/lv_obj_style.c ****     }
 3050              		.loc 1 585 16 is_stmt 0 view .LVU915
 3051 011a 0120     		movs	r0, #1
 3052              	.LVL302:
 3053              	.L206:
ARM GAS  C:\Users\BLACK_~1\AppData\Local\Temp\ccbv02In.s 			page 95


 588:lvgl/src/core/lv_obj_style.c **** 
 3054              		.loc 1 588 1 view .LVU916
 3055 011c 07B0     		add	sp, sp, #28
 3056              	.LCFI31:
 3057              		.cfi_remember_state
 3058              		.cfi_def_cfa_offset 36
 3059              		@ sp needed
 3060 011e BDE8F08F 		pop	{r4, r5, r6, r7, r8, r9, r10, fp, pc}
 3061              	.LVL303:
 3062              	.L213:
 3063              	.LCFI32:
 3064              		.cfi_restore_state
 587:lvgl/src/core/lv_obj_style.c **** }
 3065              		.loc 1 587 17 view .LVU917
 3066 0122 0020     		movs	r0, #0
 3067 0124 FAE7     		b	.L206
 3068              		.cfi_endproc
 3069              	.LFE171:
 3071              		.section	.text.lv_obj_get_style_prop,"ax",%progbits
 3072              		.align	1
 3073              		.global	lv_obj_get_style_prop
 3074              		.syntax unified
 3075              		.thumb
 3076              		.thumb_func
 3078              	lv_obj_get_style_prop:
 3079              	.LVL304:
 3080              	.LFB159:
 207:lvgl/src/core/lv_obj_style.c ****     lv_style_value_t value_act;
 3081              		.loc 1 207 1 is_stmt 1 view -0
 3082              		.cfi_startproc
 3083              		@ args = 0, pretend = 0, frame = 8
 3084              		@ frame_needed = 0, uses_anonymous_args = 0
 207:lvgl/src/core/lv_obj_style.c ****     lv_style_value_t value_act;
 3085              		.loc 1 207 1 is_stmt 0 view .LVU919
 3086 0000 2DE9F043 		push	{r4, r5, r6, r7, r8, r9, lr}
 3087              	.LCFI33:
 3088              		.cfi_def_cfa_offset 28
 3089              		.cfi_offset 4, -28
 3090              		.cfi_offset 5, -24
 3091              		.cfi_offset 6, -20
 3092              		.cfi_offset 7, -16
 3093              		.cfi_offset 8, -12
 3094              		.cfi_offset 9, -8
 3095              		.cfi_offset 14, -4
 3096 0004 83B0     		sub	sp, sp, #12
 3097              	.LCFI34:
 3098              		.cfi_def_cfa_offset 40
 3099 0006 0446     		mov	r4, r0
 3100 0008 0D46     		mov	r5, r1
 3101 000a 1646     		mov	r6, r2
 208:lvgl/src/core/lv_obj_style.c ****     bool inherit = prop & LV_STYLE_PROP_INHERIT ? true : false;
 3102              		.loc 1 208 5 is_stmt 1 view .LVU920
 209:lvgl/src/core/lv_obj_style.c ****     bool filter = prop & LV_STYLE_PROP_FILTER ? true : false;
 3103              		.loc 1 209 5 view .LVU921
 209:lvgl/src/core/lv_obj_style.c ****     bool filter = prop & LV_STYLE_PROP_FILTER ? true : false;
 3104              		.loc 1 209 56 is_stmt 0 view .LVU922
 3105 000c C2F38028 		ubfx	r8, r2, #10, #1
ARM GAS  C:\Users\BLACK_~1\AppData\Local\Temp\ccbv02In.s 			page 96


 3106              	.LVL305:
 210:lvgl/src/core/lv_obj_style.c ****     if(filter) {
 3107              		.loc 1 210 5 is_stmt 1 view .LVU923
 210:lvgl/src/core/lv_obj_style.c ****     if(filter) {
 3108              		.loc 1 210 54 is_stmt 0 view .LVU924
 3109 0010 C2F38039 		ubfx	r9, r2, #14, #1
 3110              	.LVL306:
 211:lvgl/src/core/lv_obj_style.c ****         prop &= ~LV_STYLE_PROP_FILTER;
 3111              		.loc 1 211 5 is_stmt 1 view .LVU925
 211:lvgl/src/core/lv_obj_style.c ****         prop &= ~LV_STYLE_PROP_FILTER;
 3112              		.loc 1 211 7 is_stmt 0 view .LVU926
 3113 0014 12F4804F 		tst	r2, #16384
 3114 0018 02D0     		beq	.L219
 212:lvgl/src/core/lv_obj_style.c ****     }
 3115              		.loc 1 212 9 is_stmt 1 view .LVU927
 212:lvgl/src/core/lv_obj_style.c ****     }
 3116              		.loc 1 212 14 is_stmt 0 view .LVU928
 3117 001a 22F48046 		bic	r6, r2, #16384
 3118 001e B6B2     		uxth	r6, r6
 3119              	.LVL307:
 3120              	.L219:
 214:lvgl/src/core/lv_obj_style.c ****     while(obj) {
 3121              		.loc 1 214 5 is_stmt 1 view .LVU929
 215:lvgl/src/core/lv_obj_style.c ****         found = get_prop_core(obj, part, prop, &value_act);
 3122              		.loc 1 215 5 view .LVU930
 214:lvgl/src/core/lv_obj_style.c ****     while(obj) {
 3123              		.loc 1 214 10 is_stmt 0 view .LVU931
 3124 0020 0027     		movs	r7, #0
 215:lvgl/src/core/lv_obj_style.c ****         found = get_prop_core(obj, part, prop, &value_act);
 3125              		.loc 1 215 10 view .LVU932
 3126 0022 00E0     		b	.L220
 3127              	.LVL308:
 3128              	.L235:
 222:lvgl/src/core/lv_obj_style.c ****             continue;
 3129              		.loc 1 222 18 view .LVU933
 3130 0024 0025     		movs	r5, #0
 3131              	.LVL309:
 3132              	.L220:
 215:lvgl/src/core/lv_obj_style.c ****         found = get_prop_core(obj, part, prop, &value_act);
 3133              		.loc 1 215 10 is_stmt 1 view .LVU934
 3134 0026 8CB1     		cbz	r4, .L221
 216:lvgl/src/core/lv_obj_style.c ****         if(found) break;
 3135              		.loc 1 216 9 view .LVU935
 216:lvgl/src/core/lv_obj_style.c ****         if(found) break;
 3136              		.loc 1 216 17 is_stmt 0 view .LVU936
 3137 0028 01AB     		add	r3, sp, #4
 3138 002a 3246     		mov	r2, r6
 3139 002c 2946     		mov	r1, r5
 3140 002e 2046     		mov	r0, r4
 3141 0030 FFF7FEFF 		bl	get_prop_core
 3142              	.LVL310:
 217:lvgl/src/core/lv_obj_style.c ****         if(!inherit) break;
 3143              		.loc 1 217 9 is_stmt 1 view .LVU937
 217:lvgl/src/core/lv_obj_style.c ****         if(!inherit) break;
 3144              		.loc 1 217 11 is_stmt 0 view .LVU938
 3145 0034 0746     		mov	r7, r0
 3146 0036 48B9     		cbnz	r0, .L221
ARM GAS  C:\Users\BLACK_~1\AppData\Local\Temp\ccbv02In.s 			page 97


 218:lvgl/src/core/lv_obj_style.c **** 
 3147              		.loc 1 218 9 is_stmt 1 view .LVU939
 218:lvgl/src/core/lv_obj_style.c **** 
 3148              		.loc 1 218 11 is_stmt 0 view .LVU940
 3149 0038 B8F1000F 		cmp	r8, #0
 3150 003c 06D0     		beq	.L221
 221:lvgl/src/core/lv_obj_style.c ****             part = LV_PART_MAIN;
 3151              		.loc 1 221 9 is_stmt 1 view .LVU941
 221:lvgl/src/core/lv_obj_style.c ****             part = LV_PART_MAIN;
 3152              		.loc 1 221 11 is_stmt 0 view .LVU942
 3153 003e 002D     		cmp	r5, #0
 3154 0040 F0D1     		bne	.L235
 227:lvgl/src/core/lv_obj_style.c ****     }
 3155              		.loc 1 227 9 is_stmt 1 view .LVU943
 227:lvgl/src/core/lv_obj_style.c ****     }
 3156              		.loc 1 227 15 is_stmt 0 view .LVU944
 3157 0042 2046     		mov	r0, r4
 3158              	.LVL311:
 227:lvgl/src/core/lv_obj_style.c ****     }
 3159              		.loc 1 227 15 view .LVU945
 3160 0044 FFF7FEFF 		bl	lv_obj_get_parent
 3161              	.LVL312:
 3162 0048 0446     		mov	r4, r0
 3163              	.LVL313:
 227:lvgl/src/core/lv_obj_style.c ****     }
 3164              		.loc 1 227 15 view .LVU946
 3165 004a ECE7     		b	.L220
 3166              	.LVL314:
 3167              	.L221:
 230:lvgl/src/core/lv_obj_style.c ****         if(part == LV_PART_MAIN && (prop == LV_STYLE_WIDTH || prop == LV_STYLE_HEIGHT)) {
 3168              		.loc 1 230 5 is_stmt 1 view .LVU947
 230:lvgl/src/core/lv_obj_style.c ****         if(part == LV_PART_MAIN && (prop == LV_STYLE_WIDTH || prop == LV_STYLE_HEIGHT)) {
 3169              		.loc 1 230 7 is_stmt 0 view .LVU948
 3170 004c 67B9     		cbnz	r7, .L224
 231:lvgl/src/core/lv_obj_style.c ****             const lv_obj_class_t * cls = obj->class_p;
 3171              		.loc 1 231 9 is_stmt 1 view .LVU949
 231:lvgl/src/core/lv_obj_style.c ****             const lv_obj_class_t * cls = obj->class_p;
 3172              		.loc 1 231 11 is_stmt 0 view .LVU950
 3173 004e 3DB9     		cbnz	r5, .L225
 231:lvgl/src/core/lv_obj_style.c ****             const lv_obj_class_t * cls = obj->class_p;
 3174              		.loc 1 231 33 discriminator 1 view .LVU951
 3175 0050 41F20103 		movw	r3, #4097
 3176 0054 9E42     		cmp	r6, r3
 3177 0056 0ED0     		beq	.L226
 231:lvgl/src/core/lv_obj_style.c ****             const lv_obj_class_t * cls = obj->class_p;
 3178              		.loc 1 231 60 discriminator 2 view .LVU952
 3179 0058 41F20403 		movw	r3, #4100
 3180 005c 9E42     		cmp	r6, r3
 3181 005e 0AD0     		beq	.L226
 3182              	.L225:
 244:lvgl/src/core/lv_obj_style.c ****         }
 3183              		.loc 1 244 13 is_stmt 1 view .LVU953
 244:lvgl/src/core/lv_obj_style.c ****         }
 3184              		.loc 1 244 25 is_stmt 0 view .LVU954
 3185 0060 3046     		mov	r0, r6
 3186 0062 FFF7FEFF 		bl	lv_style_prop_get_default
 3187              	.LVL315:
ARM GAS  C:\Users\BLACK_~1\AppData\Local\Temp\ccbv02In.s 			page 98


 3188 0066 0190     		str	r0, [sp, #4]
 3189              	.L224:
 247:lvgl/src/core/lv_obj_style.c ****     return value_act;
 3190              		.loc 1 247 5 is_stmt 1 view .LVU955
 247:lvgl/src/core/lv_obj_style.c ****     return value_act;
 3191              		.loc 1 247 7 is_stmt 0 view .LVU956
 3192 0068 B9F1000F 		cmp	r9, #0
 3193 006c 1DD1     		bne	.L237
 3194              	.L234:
 248:lvgl/src/core/lv_obj_style.c **** }
 3195              		.loc 1 248 5 is_stmt 1 view .LVU957
 249:lvgl/src/core/lv_obj_style.c **** 
 3196              		.loc 1 249 1 is_stmt 0 view .LVU958
 3197 006e 0198     		ldr	r0, [sp, #4]
 3198 0070 03B0     		add	sp, sp, #12
 3199              	.LCFI35:
 3200              		.cfi_remember_state
 3201              		.cfi_def_cfa_offset 28
 3202              		@ sp needed
 3203 0072 BDE8F083 		pop	{r4, r5, r6, r7, r8, r9, pc}
 3204              	.LVL316:
 3205              	.L226:
 3206              	.LCFI36:
 3207              		.cfi_restore_state
 3208              	.LBB92:
 232:lvgl/src/core/lv_obj_style.c ****             while(cls) {
 3209              		.loc 1 232 13 is_stmt 1 view .LVU959
 232:lvgl/src/core/lv_obj_style.c ****             while(cls) {
 3210              		.loc 1 232 36 is_stmt 0 view .LVU960
 3211 0076 2368     		ldr	r3, [r4]
 3212              	.LVL317:
 233:lvgl/src/core/lv_obj_style.c ****                 if(prop == LV_STYLE_WIDTH) {
 3213              		.loc 1 233 13 is_stmt 1 view .LVU961
 233:lvgl/src/core/lv_obj_style.c ****                 if(prop == LV_STYLE_WIDTH) {
 3214              		.loc 1 233 18 is_stmt 0 view .LVU962
 3215 0078 03E0     		b	.L227
 3216              	.L238:
 235:lvgl/src/core/lv_obj_style.c ****                 } else {
 3217              		.loc 1 235 21 is_stmt 1 view .LVU963
 235:lvgl/src/core/lv_obj_style.c ****                 } else {
 3218              		.loc 1 235 27 is_stmt 0 view .LVU964
 3219 007a B3F91420 		ldrsh	r2, [r3, #20]
 235:lvgl/src/core/lv_obj_style.c ****                 } else {
 3220              		.loc 1 235 23 view .LVU965
 3221 007e 4AB9     		cbnz	r2, .L229
 3222              	.L230:
 239:lvgl/src/core/lv_obj_style.c ****             }
 3223              		.loc 1 239 17 is_stmt 1 view .LVU966
 239:lvgl/src/core/lv_obj_style.c ****             }
 3224              		.loc 1 239 21 is_stmt 0 view .LVU967
 3225 0080 1B68     		ldr	r3, [r3]
 3226              	.LVL318:
 3227              	.L227:
 233:lvgl/src/core/lv_obj_style.c ****                 if(prop == LV_STYLE_WIDTH) {
 3228              		.loc 1 233 18 is_stmt 1 view .LVU968
 3229 0082 3BB1     		cbz	r3, .L229
 234:lvgl/src/core/lv_obj_style.c ****                     if(cls->width_def != 0) break;
ARM GAS  C:\Users\BLACK_~1\AppData\Local\Temp\ccbv02In.s 			page 99


 3230              		.loc 1 234 17 view .LVU969
 234:lvgl/src/core/lv_obj_style.c ****                     if(cls->width_def != 0) break;
 3231              		.loc 1 234 19 is_stmt 0 view .LVU970
 3232 0084 41F20102 		movw	r2, #4097
 3233 0088 9642     		cmp	r6, r2
 3234 008a F6D0     		beq	.L238
 237:lvgl/src/core/lv_obj_style.c ****                 }
 3235              		.loc 1 237 21 is_stmt 1 view .LVU971
 237:lvgl/src/core/lv_obj_style.c ****                 }
 3236              		.loc 1 237 27 is_stmt 0 view .LVU972
 3237 008c B3F91620 		ldrsh	r2, [r3, #22]
 237:lvgl/src/core/lv_obj_style.c ****                 }
 3238              		.loc 1 237 23 view .LVU973
 3239 0090 002A     		cmp	r2, #0
 3240 0092 F5D0     		beq	.L230
 3241              	.L229:
 242:lvgl/src/core/lv_obj_style.c ****         } else {
 3242              		.loc 1 242 13 is_stmt 1 view .LVU974
 242:lvgl/src/core/lv_obj_style.c ****         } else {
 3243              		.loc 1 242 69 is_stmt 0 view .LVU975
 3244 0094 41F20102 		movw	r2, #4097
 3245 0098 9642     		cmp	r6, r2
 3246 009a 03D0     		beq	.L239
 242:lvgl/src/core/lv_obj_style.c ****         } else {
 3247              		.loc 1 242 74 discriminator 2 view .LVU976
 3248 009c B3F91630 		ldrsh	r3, [r3, #22]
 3249              	.LVL319:
 3250              	.L233:
 242:lvgl/src/core/lv_obj_style.c ****         } else {
 3251              		.loc 1 242 27 discriminator 4 view .LVU977
 3252 00a0 0193     		str	r3, [sp, #4]
 3253              	.LBE92:
 231:lvgl/src/core/lv_obj_style.c ****             const lv_obj_class_t * cls = obj->class_p;
 3254              		.loc 1 231 89 discriminator 4 view .LVU978
 3255 00a2 E1E7     		b	.L224
 3256              	.LVL320:
 3257              	.L239:
 3258              	.LBB93:
 242:lvgl/src/core/lv_obj_style.c ****         } else {
 3259              		.loc 1 242 57 discriminator 1 view .LVU979
 3260 00a4 B3F91430 		ldrsh	r3, [r3, #20]
 3261              	.LVL321:
 242:lvgl/src/core/lv_obj_style.c ****         } else {
 3262              		.loc 1 242 57 discriminator 1 view .LVU980
 3263 00a8 FAE7     		b	.L233
 3264              	.L237:
 242:lvgl/src/core/lv_obj_style.c ****         } else {
 3265              		.loc 1 242 57 discriminator 1 view .LVU981
 3266              	.LBE93:
 247:lvgl/src/core/lv_obj_style.c ****     return value_act;
 3267              		.loc 1 247 16 is_stmt 1 discriminator 1 view .LVU982
 247:lvgl/src/core/lv_obj_style.c ****     return value_act;
 3268              		.loc 1 247 28 is_stmt 0 discriminator 1 view .LVU983
 3269 00aa 019A     		ldr	r2, [sp, #4]
 3270 00ac 2946     		mov	r1, r5
 3271 00ae 2046     		mov	r0, r4
 3272 00b0 FFF7FEFF 		bl	apply_color_filter
ARM GAS  C:\Users\BLACK_~1\AppData\Local\Temp\ccbv02In.s 			page 100


 3273              	.LVL322:
 3274 00b4 0190     		str	r0, [sp, #4]
 3275 00b6 DAE7     		b	.L234
 3276              		.cfi_endproc
 3277              	.LFE159:
 3279              		.section	.text.apply_color_filter,"ax",%progbits
 3280              		.align	1
 3281              		.syntax unified
 3282              		.thumb
 3283              		.thumb_func
 3285              	apply_color_filter:
 3286              	.LVL323:
 3287              	.LFB172:
 591:lvgl/src/core/lv_obj_style.c ****     if(obj == NULL) return v;
 3288              		.loc 1 591 1 is_stmt 1 view -0
 3289              		.cfi_startproc
 3290              		@ args = 0, pretend = 0, frame = 0
 3291              		@ frame_needed = 0, uses_anonymous_args = 0
 591:lvgl/src/core/lv_obj_style.c ****     if(obj == NULL) return v;
 3292              		.loc 1 591 1 is_stmt 0 view .LVU985
 3293 0000 F8B5     		push	{r3, r4, r5, r6, r7, lr}
 3294              	.LCFI37:
 3295              		.cfi_def_cfa_offset 24
 3296              		.cfi_offset 3, -24
 3297              		.cfi_offset 4, -20
 3298              		.cfi_offset 5, -16
 3299              		.cfi_offset 6, -12
 3300              		.cfi_offset 7, -8
 3301              		.cfi_offset 14, -4
 3302 0002 1446     		mov	r4, r2
 3303              	.LVL324:
 592:lvgl/src/core/lv_obj_style.c ****     const lv_color_filter_dsc_t * f = lv_obj_get_style_color_filter_dsc(obj, part);
 3304              		.loc 1 592 5 is_stmt 1 view .LVU986
 592:lvgl/src/core/lv_obj_style.c ****     const lv_color_filter_dsc_t * f = lv_obj_get_style_color_filter_dsc(obj, part);
 3305              		.loc 1 592 7 is_stmt 0 view .LVU987
 3306 0004 C0B1     		cbz	r0, .L245
 3307 0006 0D46     		mov	r5, r1
 3308 0008 0646     		mov	r6, r0
 593:lvgl/src/core/lv_obj_style.c ****     if(f && f->filter_cb) {
 3309              		.loc 1 593 5 is_stmt 1 view .LVU988
 3310              	.LVL325:
 3311              	.LBB94:
 3312              	.LBI94:
 3313              		.file 4 "lvgl/src/core/lv_obj_style_gen.h"
   1:lvgl/src/core/lv_obj_style_gen.h **** static inline lv_coord_t lv_obj_get_style_width(const struct _lv_obj_t * obj, uint32_t part)
   2:lvgl/src/core/lv_obj_style_gen.h **** {
   3:lvgl/src/core/lv_obj_style_gen.h ****     lv_style_value_t v = lv_obj_get_style_prop(obj, part, LV_STYLE_WIDTH);
   4:lvgl/src/core/lv_obj_style_gen.h ****     return (lv_coord_t)v.num;
   5:lvgl/src/core/lv_obj_style_gen.h **** }
   6:lvgl/src/core/lv_obj_style_gen.h **** 
   7:lvgl/src/core/lv_obj_style_gen.h **** static inline lv_coord_t lv_obj_get_style_min_width(const struct _lv_obj_t * obj, uint32_t part)
   8:lvgl/src/core/lv_obj_style_gen.h **** {
   9:lvgl/src/core/lv_obj_style_gen.h ****     lv_style_value_t v = lv_obj_get_style_prop(obj, part, LV_STYLE_MIN_WIDTH);
  10:lvgl/src/core/lv_obj_style_gen.h ****     return (lv_coord_t)v.num;
  11:lvgl/src/core/lv_obj_style_gen.h **** }
  12:lvgl/src/core/lv_obj_style_gen.h **** 
  13:lvgl/src/core/lv_obj_style_gen.h **** static inline lv_coord_t lv_obj_get_style_max_width(const struct _lv_obj_t * obj, uint32_t part)
ARM GAS  C:\Users\BLACK_~1\AppData\Local\Temp\ccbv02In.s 			page 101


  14:lvgl/src/core/lv_obj_style_gen.h **** {
  15:lvgl/src/core/lv_obj_style_gen.h ****     lv_style_value_t v = lv_obj_get_style_prop(obj, part, LV_STYLE_MAX_WIDTH);
  16:lvgl/src/core/lv_obj_style_gen.h ****     return (lv_coord_t)v.num;
  17:lvgl/src/core/lv_obj_style_gen.h **** }
  18:lvgl/src/core/lv_obj_style_gen.h **** 
  19:lvgl/src/core/lv_obj_style_gen.h **** static inline lv_coord_t lv_obj_get_style_height(const struct _lv_obj_t * obj, uint32_t part)
  20:lvgl/src/core/lv_obj_style_gen.h **** {
  21:lvgl/src/core/lv_obj_style_gen.h ****     lv_style_value_t v = lv_obj_get_style_prop(obj, part, LV_STYLE_HEIGHT);
  22:lvgl/src/core/lv_obj_style_gen.h ****     return (lv_coord_t)v.num;
  23:lvgl/src/core/lv_obj_style_gen.h **** }
  24:lvgl/src/core/lv_obj_style_gen.h **** 
  25:lvgl/src/core/lv_obj_style_gen.h **** static inline lv_coord_t lv_obj_get_style_min_height(const struct _lv_obj_t * obj, uint32_t part)
  26:lvgl/src/core/lv_obj_style_gen.h **** {
  27:lvgl/src/core/lv_obj_style_gen.h ****     lv_style_value_t v = lv_obj_get_style_prop(obj, part, LV_STYLE_MIN_HEIGHT);
  28:lvgl/src/core/lv_obj_style_gen.h ****     return (lv_coord_t)v.num;
  29:lvgl/src/core/lv_obj_style_gen.h **** }
  30:lvgl/src/core/lv_obj_style_gen.h **** 
  31:lvgl/src/core/lv_obj_style_gen.h **** static inline lv_coord_t lv_obj_get_style_max_height(const struct _lv_obj_t * obj, uint32_t part)
  32:lvgl/src/core/lv_obj_style_gen.h **** {
  33:lvgl/src/core/lv_obj_style_gen.h ****     lv_style_value_t v = lv_obj_get_style_prop(obj, part, LV_STYLE_MAX_HEIGHT);
  34:lvgl/src/core/lv_obj_style_gen.h ****     return (lv_coord_t)v.num;
  35:lvgl/src/core/lv_obj_style_gen.h **** }
  36:lvgl/src/core/lv_obj_style_gen.h **** 
  37:lvgl/src/core/lv_obj_style_gen.h **** static inline lv_coord_t lv_obj_get_style_x(const struct _lv_obj_t * obj, uint32_t part)
  38:lvgl/src/core/lv_obj_style_gen.h **** {
  39:lvgl/src/core/lv_obj_style_gen.h ****     lv_style_value_t v = lv_obj_get_style_prop(obj, part, LV_STYLE_X);
  40:lvgl/src/core/lv_obj_style_gen.h ****     return (lv_coord_t)v.num;
  41:lvgl/src/core/lv_obj_style_gen.h **** }
  42:lvgl/src/core/lv_obj_style_gen.h **** 
  43:lvgl/src/core/lv_obj_style_gen.h **** static inline lv_coord_t lv_obj_get_style_y(const struct _lv_obj_t * obj, uint32_t part)
  44:lvgl/src/core/lv_obj_style_gen.h **** {
  45:lvgl/src/core/lv_obj_style_gen.h ****     lv_style_value_t v = lv_obj_get_style_prop(obj, part, LV_STYLE_Y);
  46:lvgl/src/core/lv_obj_style_gen.h ****     return (lv_coord_t)v.num;
  47:lvgl/src/core/lv_obj_style_gen.h **** }
  48:lvgl/src/core/lv_obj_style_gen.h **** 
  49:lvgl/src/core/lv_obj_style_gen.h **** static inline lv_align_t lv_obj_get_style_align(const struct _lv_obj_t * obj, uint32_t part)
  50:lvgl/src/core/lv_obj_style_gen.h **** {
  51:lvgl/src/core/lv_obj_style_gen.h ****     lv_style_value_t v = lv_obj_get_style_prop(obj, part, LV_STYLE_ALIGN);
  52:lvgl/src/core/lv_obj_style_gen.h ****     return (lv_align_t)v.num;
  53:lvgl/src/core/lv_obj_style_gen.h **** }
  54:lvgl/src/core/lv_obj_style_gen.h **** 
  55:lvgl/src/core/lv_obj_style_gen.h **** static inline lv_coord_t lv_obj_get_style_transform_width(const struct _lv_obj_t * obj, uint32_t pa
  56:lvgl/src/core/lv_obj_style_gen.h **** {
  57:lvgl/src/core/lv_obj_style_gen.h ****     lv_style_value_t v = lv_obj_get_style_prop(obj, part, LV_STYLE_TRANSFORM_WIDTH);
  58:lvgl/src/core/lv_obj_style_gen.h ****     return (lv_coord_t)v.num;
  59:lvgl/src/core/lv_obj_style_gen.h **** }
  60:lvgl/src/core/lv_obj_style_gen.h **** 
  61:lvgl/src/core/lv_obj_style_gen.h **** static inline lv_coord_t lv_obj_get_style_transform_height(const struct _lv_obj_t * obj, uint32_t p
  62:lvgl/src/core/lv_obj_style_gen.h **** {
  63:lvgl/src/core/lv_obj_style_gen.h ****     lv_style_value_t v = lv_obj_get_style_prop(obj, part, LV_STYLE_TRANSFORM_HEIGHT);
  64:lvgl/src/core/lv_obj_style_gen.h ****     return (lv_coord_t)v.num;
  65:lvgl/src/core/lv_obj_style_gen.h **** }
  66:lvgl/src/core/lv_obj_style_gen.h **** 
  67:lvgl/src/core/lv_obj_style_gen.h **** static inline lv_coord_t lv_obj_get_style_translate_x(const struct _lv_obj_t * obj, uint32_t part)
  68:lvgl/src/core/lv_obj_style_gen.h **** {
  69:lvgl/src/core/lv_obj_style_gen.h ****     lv_style_value_t v = lv_obj_get_style_prop(obj, part, LV_STYLE_TRANSLATE_X);
  70:lvgl/src/core/lv_obj_style_gen.h ****     return (lv_coord_t)v.num;
ARM GAS  C:\Users\BLACK_~1\AppData\Local\Temp\ccbv02In.s 			page 102


  71:lvgl/src/core/lv_obj_style_gen.h **** }
  72:lvgl/src/core/lv_obj_style_gen.h **** 
  73:lvgl/src/core/lv_obj_style_gen.h **** static inline lv_coord_t lv_obj_get_style_translate_y(const struct _lv_obj_t * obj, uint32_t part)
  74:lvgl/src/core/lv_obj_style_gen.h **** {
  75:lvgl/src/core/lv_obj_style_gen.h ****     lv_style_value_t v = lv_obj_get_style_prop(obj, part, LV_STYLE_TRANSLATE_Y);
  76:lvgl/src/core/lv_obj_style_gen.h ****     return (lv_coord_t)v.num;
  77:lvgl/src/core/lv_obj_style_gen.h **** }
  78:lvgl/src/core/lv_obj_style_gen.h **** 
  79:lvgl/src/core/lv_obj_style_gen.h **** static inline lv_coord_t lv_obj_get_style_transform_zoom(const struct _lv_obj_t * obj, uint32_t par
  80:lvgl/src/core/lv_obj_style_gen.h **** {
  81:lvgl/src/core/lv_obj_style_gen.h ****     lv_style_value_t v = lv_obj_get_style_prop(obj, part, LV_STYLE_TRANSFORM_ZOOM);
  82:lvgl/src/core/lv_obj_style_gen.h ****     return (lv_coord_t)v.num;
  83:lvgl/src/core/lv_obj_style_gen.h **** }
  84:lvgl/src/core/lv_obj_style_gen.h **** 
  85:lvgl/src/core/lv_obj_style_gen.h **** static inline lv_coord_t lv_obj_get_style_transform_angle(const struct _lv_obj_t * obj, uint32_t pa
  86:lvgl/src/core/lv_obj_style_gen.h **** {
  87:lvgl/src/core/lv_obj_style_gen.h ****     lv_style_value_t v = lv_obj_get_style_prop(obj, part, LV_STYLE_TRANSFORM_ANGLE);
  88:lvgl/src/core/lv_obj_style_gen.h ****     return (lv_coord_t)v.num;
  89:lvgl/src/core/lv_obj_style_gen.h **** }
  90:lvgl/src/core/lv_obj_style_gen.h **** 
  91:lvgl/src/core/lv_obj_style_gen.h **** static inline lv_coord_t lv_obj_get_style_pad_top(const struct _lv_obj_t * obj, uint32_t part)
  92:lvgl/src/core/lv_obj_style_gen.h **** {
  93:lvgl/src/core/lv_obj_style_gen.h ****     lv_style_value_t v = lv_obj_get_style_prop(obj, part, LV_STYLE_PAD_TOP);
  94:lvgl/src/core/lv_obj_style_gen.h ****     return (lv_coord_t)v.num;
  95:lvgl/src/core/lv_obj_style_gen.h **** }
  96:lvgl/src/core/lv_obj_style_gen.h **** 
  97:lvgl/src/core/lv_obj_style_gen.h **** static inline lv_coord_t lv_obj_get_style_pad_bottom(const struct _lv_obj_t * obj, uint32_t part)
  98:lvgl/src/core/lv_obj_style_gen.h **** {
  99:lvgl/src/core/lv_obj_style_gen.h ****     lv_style_value_t v = lv_obj_get_style_prop(obj, part, LV_STYLE_PAD_BOTTOM);
 100:lvgl/src/core/lv_obj_style_gen.h ****     return (lv_coord_t)v.num;
 101:lvgl/src/core/lv_obj_style_gen.h **** }
 102:lvgl/src/core/lv_obj_style_gen.h **** 
 103:lvgl/src/core/lv_obj_style_gen.h **** static inline lv_coord_t lv_obj_get_style_pad_left(const struct _lv_obj_t * obj, uint32_t part)
 104:lvgl/src/core/lv_obj_style_gen.h **** {
 105:lvgl/src/core/lv_obj_style_gen.h ****     lv_style_value_t v = lv_obj_get_style_prop(obj, part, LV_STYLE_PAD_LEFT);
 106:lvgl/src/core/lv_obj_style_gen.h ****     return (lv_coord_t)v.num;
 107:lvgl/src/core/lv_obj_style_gen.h **** }
 108:lvgl/src/core/lv_obj_style_gen.h **** 
 109:lvgl/src/core/lv_obj_style_gen.h **** static inline lv_coord_t lv_obj_get_style_pad_right(const struct _lv_obj_t * obj, uint32_t part)
 110:lvgl/src/core/lv_obj_style_gen.h **** {
 111:lvgl/src/core/lv_obj_style_gen.h ****     lv_style_value_t v = lv_obj_get_style_prop(obj, part, LV_STYLE_PAD_RIGHT);
 112:lvgl/src/core/lv_obj_style_gen.h ****     return (lv_coord_t)v.num;
 113:lvgl/src/core/lv_obj_style_gen.h **** }
 114:lvgl/src/core/lv_obj_style_gen.h **** 
 115:lvgl/src/core/lv_obj_style_gen.h **** static inline lv_coord_t lv_obj_get_style_pad_row(const struct _lv_obj_t * obj, uint32_t part)
 116:lvgl/src/core/lv_obj_style_gen.h **** {
 117:lvgl/src/core/lv_obj_style_gen.h ****     lv_style_value_t v = lv_obj_get_style_prop(obj, part, LV_STYLE_PAD_ROW);
 118:lvgl/src/core/lv_obj_style_gen.h ****     return (lv_coord_t)v.num;
 119:lvgl/src/core/lv_obj_style_gen.h **** }
 120:lvgl/src/core/lv_obj_style_gen.h **** 
 121:lvgl/src/core/lv_obj_style_gen.h **** static inline lv_coord_t lv_obj_get_style_pad_column(const struct _lv_obj_t * obj, uint32_t part)
 122:lvgl/src/core/lv_obj_style_gen.h **** {
 123:lvgl/src/core/lv_obj_style_gen.h ****     lv_style_value_t v = lv_obj_get_style_prop(obj, part, LV_STYLE_PAD_COLUMN);
 124:lvgl/src/core/lv_obj_style_gen.h ****     return (lv_coord_t)v.num;
 125:lvgl/src/core/lv_obj_style_gen.h **** }
 126:lvgl/src/core/lv_obj_style_gen.h **** 
 127:lvgl/src/core/lv_obj_style_gen.h **** static inline lv_coord_t lv_obj_get_style_radius(const struct _lv_obj_t * obj, uint32_t part)
ARM GAS  C:\Users\BLACK_~1\AppData\Local\Temp\ccbv02In.s 			page 103


 128:lvgl/src/core/lv_obj_style_gen.h **** {
 129:lvgl/src/core/lv_obj_style_gen.h ****     lv_style_value_t v = lv_obj_get_style_prop(obj, part, LV_STYLE_RADIUS);
 130:lvgl/src/core/lv_obj_style_gen.h ****     return (lv_coord_t)v.num;
 131:lvgl/src/core/lv_obj_style_gen.h **** }
 132:lvgl/src/core/lv_obj_style_gen.h **** 
 133:lvgl/src/core/lv_obj_style_gen.h **** static inline bool lv_obj_get_style_clip_corner(const struct _lv_obj_t * obj, uint32_t part)
 134:lvgl/src/core/lv_obj_style_gen.h **** {
 135:lvgl/src/core/lv_obj_style_gen.h ****     lv_style_value_t v = lv_obj_get_style_prop(obj, part, LV_STYLE_CLIP_CORNER);
 136:lvgl/src/core/lv_obj_style_gen.h ****     return (bool)v.num;
 137:lvgl/src/core/lv_obj_style_gen.h **** }
 138:lvgl/src/core/lv_obj_style_gen.h **** 
 139:lvgl/src/core/lv_obj_style_gen.h **** static inline lv_opa_t lv_obj_get_style_opa(const struct _lv_obj_t * obj, uint32_t part)
 140:lvgl/src/core/lv_obj_style_gen.h **** {
 141:lvgl/src/core/lv_obj_style_gen.h ****     lv_style_value_t v = lv_obj_get_style_prop(obj, part, LV_STYLE_OPA);
 142:lvgl/src/core/lv_obj_style_gen.h ****     return (lv_opa_t)v.num;
 143:lvgl/src/core/lv_obj_style_gen.h **** }
 144:lvgl/src/core/lv_obj_style_gen.h **** 
 145:lvgl/src/core/lv_obj_style_gen.h **** static inline const lv_color_filter_dsc_t * lv_obj_get_style_color_filter_dsc(const struct _lv_obj_
 3314              		.loc 4 145 45 view .LVU989
 3315              	.LBB95:
 146:lvgl/src/core/lv_obj_style_gen.h **** {
 147:lvgl/src/core/lv_obj_style_gen.h ****     lv_style_value_t v = lv_obj_get_style_prop(obj, part, LV_STYLE_COLOR_FILTER_DSC);
 3316              		.loc 4 147 5 view .LVU990
 3317              		.loc 4 147 26 is_stmt 0 view .LVU991
 3318 000a 6322     		movs	r2, #99
 3319 000c FFF7FEFF 		bl	lv_obj_get_style_prop
 3320              	.LVL326:
 148:lvgl/src/core/lv_obj_style_gen.h ****     return (const lv_color_filter_dsc_t *)v.ptr;
 3321              		.loc 4 148 5 is_stmt 1 view .LVU992
 3322              		.loc 4 148 5 is_stmt 0 view .LVU993
 3323              	.LBE95:
 3324              	.LBE94:
 594:lvgl/src/core/lv_obj_style.c ****         lv_opa_t f_opa = lv_obj_get_style_color_filter_opa(obj, part);
 3325              		.loc 1 594 5 is_stmt 1 view .LVU994
 594:lvgl/src/core/lv_obj_style.c ****         lv_opa_t f_opa = lv_obj_get_style_color_filter_opa(obj, part);
 3326              		.loc 1 594 7 is_stmt 0 view .LVU995
 3327 0010 0746     		mov	r7, r0
 3328 0012 78B1     		cbz	r0, .L243
 594:lvgl/src/core/lv_obj_style.c ****         lv_opa_t f_opa = lv_obj_get_style_color_filter_opa(obj, part);
 3329              		.loc 1 594 14 discriminator 1 view .LVU996
 3330 0014 0368     		ldr	r3, [r0]
 594:lvgl/src/core/lv_obj_style.c ****         lv_opa_t f_opa = lv_obj_get_style_color_filter_opa(obj, part);
 3331              		.loc 1 594 10 discriminator 1 view .LVU997
 3332 0016 6BB1     		cbz	r3, .L243
 3333              	.LBB96:
 595:lvgl/src/core/lv_obj_style.c ****         if(f_opa != 0) v.color = f->filter_cb(f, v.color, f_opa);
 3334              		.loc 1 595 9 is_stmt 1 view .LVU998
 3335              	.LVL327:
 3336              	.LBB97:
 3337              	.LBI97:
 149:lvgl/src/core/lv_obj_style_gen.h **** }
 150:lvgl/src/core/lv_obj_style_gen.h **** 
 151:lvgl/src/core/lv_obj_style_gen.h **** static inline lv_opa_t lv_obj_get_style_color_filter_opa(const struct _lv_obj_t * obj, uint32_t par
 3338              		.loc 4 151 24 view .LVU999
 3339              	.LBB98:
 152:lvgl/src/core/lv_obj_style_gen.h **** {
 153:lvgl/src/core/lv_obj_style_gen.h ****     lv_style_value_t v = lv_obj_get_style_prop(obj, part, LV_STYLE_COLOR_FILTER_OPA);
ARM GAS  C:\Users\BLACK_~1\AppData\Local\Temp\ccbv02In.s 			page 104


 3340              		.loc 4 153 5 view .LVU1000
 3341              		.loc 4 153 26 is_stmt 0 view .LVU1001
 3342 0018 6422     		movs	r2, #100
 3343 001a 2946     		mov	r1, r5
 3344 001c 3046     		mov	r0, r6
 3345              	.LVL328:
 3346              		.loc 4 153 26 view .LVU1002
 3347 001e FFF7FEFF 		bl	lv_obj_get_style_prop
 3348              	.LVL329:
 154:lvgl/src/core/lv_obj_style_gen.h ****     return (lv_opa_t)v.num;
 3349              		.loc 4 154 5 is_stmt 1 view .LVU1003
 3350              		.loc 4 154 5 is_stmt 0 view .LVU1004
 3351              	.LBE98:
 3352              	.LBE97:
 596:lvgl/src/core/lv_obj_style.c ****     }
 3353              		.loc 1 596 9 is_stmt 1 view .LVU1005
 596:lvgl/src/core/lv_obj_style.c ****     }
 3354              		.loc 1 596 11 is_stmt 0 view .LVU1006
 3355 0022 10F0FF02 		ands	r2, r0, #255
 3356 0026 05D0     		beq	.L243
 596:lvgl/src/core/lv_obj_style.c ****     }
 3357              		.loc 1 596 24 is_stmt 1 discriminator 1 view .LVU1007
 596:lvgl/src/core/lv_obj_style.c ****     }
 3358              		.loc 1 596 35 is_stmt 0 discriminator 1 view .LVU1008
 3359 0028 3B68     		ldr	r3, [r7]
 596:lvgl/src/core/lv_obj_style.c ****     }
 3360              		.loc 1 596 34 discriminator 1 view .LVU1009
 3361 002a 2146     		mov	r1, r4	@ movhi
 3362 002c 3846     		mov	r0, r7
 3363              	.LVL330:
 596:lvgl/src/core/lv_obj_style.c ****     }
 3364              		.loc 1 596 34 discriminator 1 view .LVU1010
 3365 002e 9847     		blx	r3
 3366              	.LVL331:
 3367 0030 60F30F04 		bfi	r4, r0, #0, #16
 3368              	.LVL332:
 3369              	.L243:
 596:lvgl/src/core/lv_obj_style.c ****     }
 3370              		.loc 1 596 34 discriminator 1 view .LVU1011
 3371              	.LBE96:
 598:lvgl/src/core/lv_obj_style.c **** }
 3372              		.loc 1 598 5 is_stmt 1 view .LVU1012
 598:lvgl/src/core/lv_obj_style.c **** }
 3373              		.loc 1 598 12 is_stmt 0 view .LVU1013
 3374 0034 2046     		mov	r0, r4
 3375              	.LVL333:
 3376              	.L242:
 599:lvgl/src/core/lv_obj_style.c **** 
 3377              		.loc 1 599 1 view .LVU1014
 3378 0036 F8BD     		pop	{r3, r4, r5, r6, r7, pc}
 3379              	.LVL334:
 3380              	.L245:
 592:lvgl/src/core/lv_obj_style.c ****     const lv_color_filter_dsc_t * f = lv_obj_get_style_color_filter_dsc(obj, part);
 3381              		.loc 1 592 21 is_stmt 1 discriminator 1 view .LVU1015
 592:lvgl/src/core/lv_obj_style.c ****     const lv_color_filter_dsc_t * f = lv_obj_get_style_color_filter_dsc(obj, part);
 3382              		.loc 1 592 28 is_stmt 0 discriminator 1 view .LVU1016
 3383 0038 1046     		mov	r0, r2
ARM GAS  C:\Users\BLACK_~1\AppData\Local\Temp\ccbv02In.s 			page 105


 3384              	.LVL335:
 592:lvgl/src/core/lv_obj_style.c ****     const lv_color_filter_dsc_t * f = lv_obj_get_style_color_filter_dsc(obj, part);
 3385              		.loc 1 592 28 discriminator 1 view .LVU1017
 3386 003a FCE7     		b	.L242
 3387              		.cfi_endproc
 3388              	.LFE172:
 3390              		.section	.text._lv_obj_style_create_transition,"ax",%progbits
 3391              		.align	1
 3392              		.global	_lv_obj_style_create_transition
 3393              		.syntax unified
 3394              		.thumb
 3395              		.thumb_func
 3397              	_lv_obj_style_create_transition:
 3398              	.LVL336:
 3399              	.LFB163:
 293:lvgl/src/core/lv_obj_style.c ****     trans_t * tr;
 3400              		.loc 1 293 1 is_stmt 1 view -0
 3401              		.cfi_startproc
 3402              		@ args = 4, pretend = 0, frame = 72
 3403              		@ frame_needed = 0, uses_anonymous_args = 0
 293:lvgl/src/core/lv_obj_style.c ****     trans_t * tr;
 3404              		.loc 1 293 1 is_stmt 0 view .LVU1019
 3405 0000 2DE9F04F 		push	{r4, r5, r6, r7, r8, r9, r10, fp, lr}
 3406              	.LCFI38:
 3407              		.cfi_def_cfa_offset 36
 3408              		.cfi_offset 4, -36
 3409              		.cfi_offset 5, -32
 3410              		.cfi_offset 6, -28
 3411              		.cfi_offset 7, -24
 3412              		.cfi_offset 8, -20
 3413              		.cfi_offset 9, -16
 3414              		.cfi_offset 10, -12
 3415              		.cfi_offset 11, -8
 3416              		.cfi_offset 14, -4
 3417 0004 93B0     		sub	sp, sp, #76
 3418              	.LCFI39:
 3419              		.cfi_def_cfa_offset 112
 3420 0006 0446     		mov	r4, r0
 3421 0008 0F46     		mov	r7, r1
 3422 000a 9246     		mov	r10, r2
 3423 000c 9946     		mov	r9, r3
 3424 000e 1C9E     		ldr	r6, [sp, #112]
 294:lvgl/src/core/lv_obj_style.c **** 
 3425              		.loc 1 294 5 is_stmt 1 view .LVU1020
 297:lvgl/src/core/lv_obj_style.c ****     obj->state = prev_state;
 3426              		.loc 1 297 5 view .LVU1021
 297:lvgl/src/core/lv_obj_style.c ****     obj->state = prev_state;
 3427              		.loc 1 297 21 is_stmt 0 view .LVU1022
 3428 0010 90F82230 		ldrb	r3, [r0, #34]	@ zero_extendqisi2
 3429              	.LVL337:
 297:lvgl/src/core/lv_obj_style.c ****     obj->state = prev_state;
 3430              		.loc 1 297 21 view .LVU1023
 3431 0014 43F00403 		orr	r3, r3, #4
 3432 0018 80F82230 		strb	r3, [r0, #34]
 298:lvgl/src/core/lv_obj_style.c ****     lv_style_value_t v1 = lv_obj_get_style_prop(obj, part, tr_dsc->prop);
 3433              		.loc 1 298 5 is_stmt 1 view .LVU1024
 298:lvgl/src/core/lv_obj_style.c ****     lv_style_value_t v1 = lv_obj_get_style_prop(obj, part, tr_dsc->prop);
ARM GAS  C:\Users\BLACK_~1\AppData\Local\Temp\ccbv02In.s 			page 106


 3434              		.loc 1 298 16 is_stmt 0 view .LVU1025
 3435 001c 0284     		strh	r2, [r0, #32]	@ movhi
 299:lvgl/src/core/lv_obj_style.c ****     obj->state = new_state;
 3436              		.loc 1 299 5 is_stmt 1 view .LVU1026
 299:lvgl/src/core/lv_obj_style.c ****     obj->state = new_state;
 3437              		.loc 1 299 27 is_stmt 0 view .LVU1027
 3438 001e 3289     		ldrh	r2, [r6, #8]
 3439              	.LVL338:
 299:lvgl/src/core/lv_obj_style.c ****     obj->state = new_state;
 3440              		.loc 1 299 27 view .LVU1028
 3441 0020 FFF7FEFF 		bl	lv_obj_get_style_prop
 3442              	.LVL339:
 299:lvgl/src/core/lv_obj_style.c ****     obj->state = new_state;
 3443              		.loc 1 299 27 view .LVU1029
 3444 0024 0546     		mov	r5, r0
 3445              	.LVL340:
 300:lvgl/src/core/lv_obj_style.c ****     lv_style_value_t v2 = lv_obj_get_style_prop(obj, part, tr_dsc->prop);
 3446              		.loc 1 300 5 is_stmt 1 view .LVU1030
 300:lvgl/src/core/lv_obj_style.c ****     lv_style_value_t v2 = lv_obj_get_style_prop(obj, part, tr_dsc->prop);
 3447              		.loc 1 300 16 is_stmt 0 view .LVU1031
 3448 0026 A4F82090 		strh	r9, [r4, #32]	@ movhi
 301:lvgl/src/core/lv_obj_style.c ****     obj->skip_trans = 0;
 3449              		.loc 1 301 5 is_stmt 1 view .LVU1032
 301:lvgl/src/core/lv_obj_style.c ****     obj->skip_trans = 0;
 3450              		.loc 1 301 27 is_stmt 0 view .LVU1033
 3451 002a 3289     		ldrh	r2, [r6, #8]
 3452 002c 3946     		mov	r1, r7
 3453 002e 2046     		mov	r0, r4
 3454 0030 FFF7FEFF 		bl	lv_obj_get_style_prop
 3455              	.LVL341:
 3456 0034 8046     		mov	r8, r0
 3457              	.LVL342:
 302:lvgl/src/core/lv_obj_style.c **** 
 3458              		.loc 1 302 5 is_stmt 1 view .LVU1034
 302:lvgl/src/core/lv_obj_style.c **** 
 3459              		.loc 1 302 21 is_stmt 0 view .LVU1035
 3460 0036 94F82230 		ldrb	r3, [r4, #34]	@ zero_extendqisi2
 3461 003a 6FF38203 		bfc	r3, #2, #1
 3462 003e 84F82230 		strb	r3, [r4, #34]
 304:lvgl/src/core/lv_obj_style.c ****     obj->state = prev_state;
 3463              		.loc 1 304 5 is_stmt 1 view .LVU1036
 3464              	.LVL343:
 304:lvgl/src/core/lv_obj_style.c ****     obj->state = prev_state;
 3465              		.loc 1 304 20 is_stmt 0 view .LVU1037
 3466 0042 8346     		mov	fp, r0
 3467              	.LVL344:
 304:lvgl/src/core/lv_obj_style.c ****     obj->state = prev_state;
 3468              		.loc 1 304 7 view .LVU1038
 3469 0044 8542     		cmp	r5, r0
 3470 0046 47D0     		beq	.L259
 3471              	.L247:
 305:lvgl/src/core/lv_obj_style.c ****     v1 = lv_obj_get_style_prop(obj, part, tr_dsc->prop);
 3472              		.loc 1 305 5 is_stmt 1 view .LVU1039
 305:lvgl/src/core/lv_obj_style.c ****     v1 = lv_obj_get_style_prop(obj, part, tr_dsc->prop);
 3473              		.loc 1 305 16 is_stmt 0 view .LVU1040
 3474 0048 A4F820A0 		strh	r10, [r4, #32]	@ movhi
 306:lvgl/src/core/lv_obj_style.c ****     obj->state = new_state;
ARM GAS  C:\Users\BLACK_~1\AppData\Local\Temp\ccbv02In.s 			page 107


 3475              		.loc 1 306 5 is_stmt 1 view .LVU1041
 306:lvgl/src/core/lv_obj_style.c ****     obj->state = new_state;
 3476              		.loc 1 306 10 is_stmt 0 view .LVU1042
 3477 004c 3289     		ldrh	r2, [r6, #8]
 3478 004e 3946     		mov	r1, r7
 3479 0050 2046     		mov	r0, r4
 3480              	.LVL345:
 306:lvgl/src/core/lv_obj_style.c ****     obj->state = new_state;
 3481              		.loc 1 306 10 view .LVU1043
 3482 0052 FFF7FEFF 		bl	lv_obj_get_style_prop
 3483              	.LVL346:
 3484 0056 0546     		mov	r5, r0
 3485              	.LVL347:
 307:lvgl/src/core/lv_obj_style.c **** 
 3486              		.loc 1 307 5 is_stmt 1 view .LVU1044
 307:lvgl/src/core/lv_obj_style.c **** 
 3487              		.loc 1 307 16 is_stmt 0 view .LVU1045
 3488 0058 A4F82090 		strh	r9, [r4, #32]	@ movhi
 309:lvgl/src/core/lv_obj_style.c ****     lv_style_set_prop(style_trans->style, tr_dsc->prop, v1);   /*Be sure `trans_style` has a valid 
 3489              		.loc 1 309 5 is_stmt 1 view .LVU1046
 309:lvgl/src/core/lv_obj_style.c ****     lv_style_set_prop(style_trans->style, tr_dsc->prop, v1);   /*Be sure `trans_style` has a valid 
 3490              		.loc 1 309 37 is_stmt 0 view .LVU1047
 3491 005c 3946     		mov	r1, r7
 3492 005e 2046     		mov	r0, r4
 3493 0060 FFF7FEFF 		bl	get_trans_style
 3494              	.LVL348:
 310:lvgl/src/core/lv_obj_style.c **** 
 3495              		.loc 1 310 5 is_stmt 1 view .LVU1048
 310:lvgl/src/core/lv_obj_style.c **** 
 3496              		.loc 1 310 5 is_stmt 0 view .LVU1049
 3497 0064 2A46     		mov	r2, r5
 3498 0066 3189     		ldrh	r1, [r6, #8]
 3499 0068 0068     		ldr	r0, [r0]
 3500              	.LVL349:
 310:lvgl/src/core/lv_obj_style.c **** 
 3501              		.loc 1 310 5 view .LVU1050
 3502 006a FFF7FEFF 		bl	lv_style_set_prop
 3503              	.LVL350:
 312:lvgl/src/core/lv_obj_style.c ****         if(v1.num == LV_RADIUS_CIRCLE || v2.num == LV_RADIUS_CIRCLE) {
 3504              		.loc 1 312 5 is_stmt 1 view .LVU1051
 312:lvgl/src/core/lv_obj_style.c ****         if(v1.num == LV_RADIUS_CIRCLE || v2.num == LV_RADIUS_CIRCLE) {
 3505              		.loc 1 312 14 is_stmt 0 view .LVU1052
 3506 006e 3389     		ldrh	r3, [r6, #8]
 312:lvgl/src/core/lv_obj_style.c ****         if(v1.num == LV_RADIUS_CIRCLE || v2.num == LV_RADIUS_CIRCLE) {
 3507              		.loc 1 312 7 view .LVU1053
 3508 0070 602B     		cmp	r3, #96
 3509 0072 33D0     		beq	.L260
 3510              	.L249:
 321:lvgl/src/core/lv_obj_style.c ****     LV_ASSERT_MALLOC(tr);
 3511              		.loc 1 321 5 is_stmt 1 view .LVU1054
 321:lvgl/src/core/lv_obj_style.c ****     LV_ASSERT_MALLOC(tr);
 3512              		.loc 1 321 10 is_stmt 0 view .LVU1055
 3513 0074 3048     		ldr	r0, .L262
 3514 0076 FFF7FEFF 		bl	_lv_ll_ins_head
 3515              	.LVL351:
 322:lvgl/src/core/lv_obj_style.c ****     if(tr == NULL) return;
 3516              		.loc 1 322 5 is_stmt 1 view .LVU1056
ARM GAS  C:\Users\BLACK_~1\AppData\Local\Temp\ccbv02In.s 			page 108


 322:lvgl/src/core/lv_obj_style.c ****     if(tr == NULL) return;
 3517              		.loc 1 322 5 view .LVU1057
 3518 007a 8146     		mov	r9, r0
 3519 007c 0028     		cmp	r0, #0
 3520 007e 59D0     		beq	.L257
 322:lvgl/src/core/lv_obj_style.c ****     if(tr == NULL) return;
 3521              		.loc 1 322 5 view .LVU1058
 322:lvgl/src/core/lv_obj_style.c ****     if(tr == NULL) return;
 3522              		.loc 1 322 25 view .LVU1059
 323:lvgl/src/core/lv_obj_style.c ****     tr->start_value = v1;
 3523              		.loc 1 323 5 view .LVU1060
 324:lvgl/src/core/lv_obj_style.c ****     tr->end_value = v2;
 3524              		.loc 1 324 5 view .LVU1061
 324:lvgl/src/core/lv_obj_style.c ****     tr->end_value = v2;
 3525              		.loc 1 324 21 is_stmt 0 view .LVU1062
 3526 0080 C560     		str	r5, [r0, #12]
 325:lvgl/src/core/lv_obj_style.c **** 
 3527              		.loc 1 325 5 is_stmt 1 view .LVU1063
 3528              	.LVL352:
 325:lvgl/src/core/lv_obj_style.c **** 
 3529              		.loc 1 325 19 is_stmt 0 view .LVU1064
 3530 0082 C0F81080 		str	r8, [r0, #16]
 327:lvgl/src/core/lv_obj_style.c ****         tr->obj = obj;
 3531              		.loc 1 327 5 is_stmt 1 view .LVU1065
 3532              	.LBB99:
 328:lvgl/src/core/lv_obj_style.c ****         tr->prop = tr_dsc->prop;
 3533              		.loc 1 328 9 view .LVU1066
 328:lvgl/src/core/lv_obj_style.c ****         tr->prop = tr_dsc->prop;
 3534              		.loc 1 328 17 is_stmt 0 view .LVU1067
 3535 0086 0460     		str	r4, [r0]
 329:lvgl/src/core/lv_obj_style.c ****         tr->selector = part;
 3536              		.loc 1 329 9 is_stmt 1 view .LVU1068
 329:lvgl/src/core/lv_obj_style.c ****         tr->selector = part;
 3537              		.loc 1 329 26 is_stmt 0 view .LVU1069
 3538 0088 3389     		ldrh	r3, [r6, #8]
 329:lvgl/src/core/lv_obj_style.c ****         tr->selector = part;
 3539              		.loc 1 329 18 view .LVU1070
 3540 008a 8380     		strh	r3, [r0, #4]	@ movhi
 330:lvgl/src/core/lv_obj_style.c **** 
 3541              		.loc 1 330 9 is_stmt 1 view .LVU1071
 330:lvgl/src/core/lv_obj_style.c **** 
 3542              		.loc 1 330 22 is_stmt 0 view .LVU1072
 3543 008c 8760     		str	r7, [r0, #8]
 332:lvgl/src/core/lv_obj_style.c ****         lv_anim_init(&a);
 3544              		.loc 1 332 9 is_stmt 1 view .LVU1073
 333:lvgl/src/core/lv_obj_style.c ****         lv_anim_set_var(&a, tr);
 3545              		.loc 1 333 9 view .LVU1074
 3546 008e 01A8     		add	r0, sp, #4
 3547              	.LVL353:
 333:lvgl/src/core/lv_obj_style.c ****         lv_anim_set_var(&a, tr);
 3548              		.loc 1 333 9 is_stmt 0 view .LVU1075
 3549 0090 FFF7FEFF 		bl	lv_anim_init
 3550              	.LVL354:
 334:lvgl/src/core/lv_obj_style.c ****         lv_anim_set_exec_cb(&a, trans_anim_cb);
 3551              		.loc 1 334 9 is_stmt 1 view .LVU1076
 3552              	.LBB100:
 3553              	.LBI100:
ARM GAS  C:\Users\BLACK_~1\AppData\Local\Temp\ccbv02In.s 			page 109


 119:lvgl/src/core/../misc/lv_anim.h **** {
 3554              		.loc 2 119 20 view .LVU1077
 3555              	.LBB101:
 121:lvgl/src/core/../misc/lv_anim.h **** }
 3556              		.loc 2 121 5 view .LVU1078
 121:lvgl/src/core/../misc/lv_anim.h **** }
 3557              		.loc 2 121 12 is_stmt 0 view .LVU1079
 3558 0094 CDF80490 		str	r9, [sp, #4]
 3559              	.LVL355:
 121:lvgl/src/core/../misc/lv_anim.h **** }
 3560              		.loc 2 121 12 view .LVU1080
 3561              	.LBE101:
 3562              	.LBE100:
 335:lvgl/src/core/lv_obj_style.c ****         lv_anim_set_start_cb(&a, trans_anim_start_cb);
 3563              		.loc 1 335 9 is_stmt 1 view .LVU1081
 3564              	.LBB102:
 3565              	.LBI102:
 131:lvgl/src/core/../misc/lv_anim.h **** {
 3566              		.loc 2 131 20 view .LVU1082
 3567              	.LBB103:
 133:lvgl/src/core/../misc/lv_anim.h **** }
 3568              		.loc 2 133 5 view .LVU1083
 133:lvgl/src/core/../misc/lv_anim.h **** }
 3569              		.loc 2 133 16 is_stmt 0 view .LVU1084
 3570 0098 284B     		ldr	r3, .L262+4
 3571 009a 0293     		str	r3, [sp, #8]
 3572              	.LVL356:
 133:lvgl/src/core/../misc/lv_anim.h **** }
 3573              		.loc 2 133 16 view .LVU1085
 3574              	.LBE103:
 3575              	.LBE102:
 336:lvgl/src/core/lv_obj_style.c ****         lv_anim_set_ready_cb(&a, trans_anim_ready_cb);
 3576              		.loc 1 336 9 is_stmt 1 view .LVU1086
 3577              	.LBB104:
 3578              	.LBI104:
 199:lvgl/src/core/../misc/lv_anim.h **** {
 3579              		.loc 2 199 20 view .LVU1087
 3580              	.LBB105:
 201:lvgl/src/core/../misc/lv_anim.h **** }
 3581              		.loc 2 201 5 view .LVU1088
 201:lvgl/src/core/../misc/lv_anim.h **** }
 3582              		.loc 2 201 17 is_stmt 0 view .LVU1089
 3583 009c 284B     		ldr	r3, .L262+8
 3584 009e 0393     		str	r3, [sp, #12]
 3585              	.LVL357:
 201:lvgl/src/core/../misc/lv_anim.h **** }
 3586              		.loc 2 201 17 view .LVU1090
 3587              	.LBE105:
 3588              	.LBE104:
 337:lvgl/src/core/lv_obj_style.c ****         lv_anim_set_values(&a, 0x00, 0xFF);
 3589              		.loc 1 337 9 is_stmt 1 view .LVU1091
 3590              	.LBB106:
 3591              	.LBI106:
 220:lvgl/src/core/../misc/lv_anim.h **** {
 3592              		.loc 2 220 20 view .LVU1092
 3593              	.LBB107:
 3594              		.loc 2 222 5 view .LVU1093
ARM GAS  C:\Users\BLACK_~1\AppData\Local\Temp\ccbv02In.s 			page 110


 3595              		.loc 2 222 17 is_stmt 0 view .LVU1094
 3596 00a0 284B     		ldr	r3, .L262+12
 3597 00a2 0493     		str	r3, [sp, #16]
 3598              	.LVL358:
 3599              		.loc 2 222 17 view .LVU1095
 3600              	.LBE107:
 3601              	.LBE106:
 338:lvgl/src/core/lv_obj_style.c ****         lv_anim_set_time(&a, tr_dsc->time);
 3602              		.loc 1 338 9 is_stmt 1 view .LVU1096
 3603              	.LBB108:
 3604              	.LBI108:
 162:lvgl/src/core/../misc/lv_anim.h **** {
 3605              		.loc 2 162 20 view .LVU1097
 3606              	.LBB109:
 164:lvgl/src/core/../misc/lv_anim.h ****     a->current_value = start;
 3607              		.loc 2 164 5 view .LVU1098
 164:lvgl/src/core/../misc/lv_anim.h ****     a->current_value = start;
 3608              		.loc 2 164 20 is_stmt 0 view .LVU1099
 3609 00a4 0023     		movs	r3, #0
 3610 00a6 0893     		str	r3, [sp, #32]
 165:lvgl/src/core/../misc/lv_anim.h ****     a->end_value = end;
 3611              		.loc 2 165 5 is_stmt 1 view .LVU1100
 165:lvgl/src/core/../misc/lv_anim.h ****     a->end_value = end;
 3612              		.loc 2 165 22 is_stmt 0 view .LVU1101
 3613 00a8 0993     		str	r3, [sp, #36]
 166:lvgl/src/core/../misc/lv_anim.h **** }
 3614              		.loc 2 166 5 is_stmt 1 view .LVU1102
 166:lvgl/src/core/../misc/lv_anim.h **** }
 3615              		.loc 2 166 18 is_stmt 0 view .LVU1103
 3616 00aa FF22     		movs	r2, #255
 3617 00ac 0A92     		str	r2, [sp, #40]
 3618              	.LVL359:
 166:lvgl/src/core/../misc/lv_anim.h **** }
 3619              		.loc 2 166 18 view .LVU1104
 3620              	.LBE109:
 3621              	.LBE108:
 339:lvgl/src/core/lv_obj_style.c ****         lv_anim_set_delay(&a, tr_dsc->delay);
 3622              		.loc 1 339 9 is_stmt 1 view .LVU1105
 339:lvgl/src/core/lv_obj_style.c ****         lv_anim_set_delay(&a, tr_dsc->delay);
 3623              		.loc 1 339 36 is_stmt 0 view .LVU1106
 3624 00ae 3288     		ldrh	r2, [r6]
 3625              	.LVL360:
 3626              	.LBB110:
 3627              	.LBI110:
 141:lvgl/src/core/../misc/lv_anim.h **** {
 3628              		.loc 2 141 20 is_stmt 1 view .LVU1107
 3629              	.LBB111:
 143:lvgl/src/core/../misc/lv_anim.h **** }
 3630              		.loc 2 143 5 view .LVU1108
 143:lvgl/src/core/../misc/lv_anim.h **** }
 3631              		.loc 2 143 13 is_stmt 0 view .LVU1109
 3632 00b0 0B92     		str	r2, [sp, #44]
 3633              	.LVL361:
 143:lvgl/src/core/../misc/lv_anim.h **** }
 3634              		.loc 2 143 13 view .LVU1110
 3635              	.LBE111:
 3636              	.LBE110:
ARM GAS  C:\Users\BLACK_~1\AppData\Local\Temp\ccbv02In.s 			page 111


 340:lvgl/src/core/lv_obj_style.c ****         lv_anim_set_path_cb(&a, tr_dsc->path_cb);
 3637              		.loc 1 340 9 is_stmt 1 view .LVU1111
 340:lvgl/src/core/lv_obj_style.c ****         lv_anim_set_path_cb(&a, tr_dsc->path_cb);
 3638              		.loc 1 340 37 is_stmt 0 view .LVU1112
 3639 00b2 7288     		ldrh	r2, [r6, #2]
 3640              	.LVL362:
 3641              	.LBB112:
 3642              	.LBI112:
 151:lvgl/src/core/../misc/lv_anim.h **** {
 3643              		.loc 2 151 20 is_stmt 1 view .LVU1113
 3644              	.LBB113:
 153:lvgl/src/core/../misc/lv_anim.h **** }
 3645              		.loc 2 153 5 view .LVU1114
 153:lvgl/src/core/../misc/lv_anim.h **** }
 3646              		.loc 2 153 19 is_stmt 0 view .LVU1115
 3647 00b4 5242     		rsbs	r2, r2, #0
 3648              	.LVL363:
 153:lvgl/src/core/../misc/lv_anim.h **** }
 3649              		.loc 2 153 17 view .LVU1116
 3650 00b6 0C92     		str	r2, [sp, #48]
 3651              	.LVL364:
 153:lvgl/src/core/../misc/lv_anim.h **** }
 3652              		.loc 2 153 17 view .LVU1117
 3653              	.LBE113:
 3654              	.LBE112:
 341:lvgl/src/core/lv_obj_style.c ****         lv_anim_set_early_apply(&a, false);
 3655              		.loc 1 341 9 is_stmt 1 view .LVU1118
 3656 00b8 F268     		ldr	r2, [r6, #12]
 3657              	.LVL365:
 3658              	.LBB114:
 3659              	.LBI114:
 189:lvgl/src/core/../misc/lv_anim.h **** {
 3660              		.loc 2 189 20 view .LVU1119
 3661              	.LBB115:
 191:lvgl/src/core/../misc/lv_anim.h **** }
 3662              		.loc 2 191 5 view .LVU1120
 191:lvgl/src/core/../misc/lv_anim.h **** }
 3663              		.loc 2 191 16 is_stmt 0 view .LVU1121
 3664 00ba 0792     		str	r2, [sp, #28]
 3665              	.LVL366:
 191:lvgl/src/core/../misc/lv_anim.h **** }
 3666              		.loc 2 191 16 view .LVU1122
 3667              	.LBE115:
 3668              	.LBE114:
 342:lvgl/src/core/lv_obj_style.c **** #if LV_USE_USER_DATA
 3669              		.loc 1 342 9 is_stmt 1 view .LVU1123
 3670              	.LBB116:
 3671              	.LBI116:
 223:lvgl/src/core/../misc/lv_anim.h **** }
 224:lvgl/src/core/../misc/lv_anim.h **** /**
 225:lvgl/src/core/../misc/lv_anim.h ****  * Make the animation to play back to when the forward direction is ready
 226:lvgl/src/core/../misc/lv_anim.h ****  * @param a         pointer to an initialized `lv_anim_t` variable
 227:lvgl/src/core/../misc/lv_anim.h ****  * @param time      the duration of the playback animation in in milliseconds. 0: disable playback
 228:lvgl/src/core/../misc/lv_anim.h ****  */
 229:lvgl/src/core/../misc/lv_anim.h **** static inline void lv_anim_set_playback_time(lv_anim_t * a, uint32_t time)
 230:lvgl/src/core/../misc/lv_anim.h **** {
 231:lvgl/src/core/../misc/lv_anim.h ****     a->playback_time = time;
ARM GAS  C:\Users\BLACK_~1\AppData\Local\Temp\ccbv02In.s 			page 112


 232:lvgl/src/core/../misc/lv_anim.h **** }
 233:lvgl/src/core/../misc/lv_anim.h **** 
 234:lvgl/src/core/../misc/lv_anim.h **** /**
 235:lvgl/src/core/../misc/lv_anim.h ****  * Make the animation to play back to when the forward direction is ready
 236:lvgl/src/core/../misc/lv_anim.h ****  * @param a         pointer to an initialized `lv_anim_t` variable
 237:lvgl/src/core/../misc/lv_anim.h ****  * @param delay     delay in milliseconds before starting the playback animation.
 238:lvgl/src/core/../misc/lv_anim.h ****  */
 239:lvgl/src/core/../misc/lv_anim.h **** static inline void lv_anim_set_playback_delay(lv_anim_t * a, uint32_t delay)
 240:lvgl/src/core/../misc/lv_anim.h **** {
 241:lvgl/src/core/../misc/lv_anim.h ****     a->playback_delay = delay;
 242:lvgl/src/core/../misc/lv_anim.h **** }
 243:lvgl/src/core/../misc/lv_anim.h **** 
 244:lvgl/src/core/../misc/lv_anim.h **** /**
 245:lvgl/src/core/../misc/lv_anim.h ****  * Make the animation repeat itself.
 246:lvgl/src/core/../misc/lv_anim.h ****  * @param a         pointer to an initialized `lv_anim_t` variable
 247:lvgl/src/core/../misc/lv_anim.h ****  * @param cnt       repeat count or `LV_ANIM_REPEAT_INFINITE` for infinite repetition. 0: to disabl
 248:lvgl/src/core/../misc/lv_anim.h ****  */
 249:lvgl/src/core/../misc/lv_anim.h **** static inline void lv_anim_set_repeat_count(lv_anim_t * a, uint16_t cnt)
 250:lvgl/src/core/../misc/lv_anim.h **** {
 251:lvgl/src/core/../misc/lv_anim.h ****     a->repeat_cnt = cnt;
 252:lvgl/src/core/../misc/lv_anim.h **** }
 253:lvgl/src/core/../misc/lv_anim.h **** 
 254:lvgl/src/core/../misc/lv_anim.h **** /**
 255:lvgl/src/core/../misc/lv_anim.h ****  * Set a delay before repeating the animation.
 256:lvgl/src/core/../misc/lv_anim.h ****  * @param a         pointer to an initialized `lv_anim_t` variable
 257:lvgl/src/core/../misc/lv_anim.h ****  * @param delay     delay in milliseconds before repeating the animation.
 258:lvgl/src/core/../misc/lv_anim.h ****  */
 259:lvgl/src/core/../misc/lv_anim.h **** static inline void lv_anim_set_repeat_delay(lv_anim_t * a, uint32_t delay)
 260:lvgl/src/core/../misc/lv_anim.h **** {
 261:lvgl/src/core/../misc/lv_anim.h ****     a->repeat_delay = delay;
 262:lvgl/src/core/../misc/lv_anim.h **** }
 263:lvgl/src/core/../misc/lv_anim.h **** 
 264:lvgl/src/core/../misc/lv_anim.h **** /**
 265:lvgl/src/core/../misc/lv_anim.h ****  * Set a whether the animation's should be applied immediately or only when the delay expired.
 266:lvgl/src/core/../misc/lv_anim.h ****  * @param a         pointer to an initialized `lv_anim_t` variable
 267:lvgl/src/core/../misc/lv_anim.h ****  * @param en        true: apply the start value immediately in `lv_anim_start`;
 268:lvgl/src/core/../misc/lv_anim.h ****  *                  false: apply the start value only when `delay` ms is elapsed and the animations
 269:lvgl/src/core/../misc/lv_anim.h ****  */
 270:lvgl/src/core/../misc/lv_anim.h **** static inline void lv_anim_set_early_apply(lv_anim_t * a, bool en)
 3672              		.loc 2 270 20 view .LVU1124
 3673              	.LBB117:
 271:lvgl/src/core/../misc/lv_anim.h **** {
 272:lvgl/src/core/../misc/lv_anim.h ****     a->early_apply = en;
 3674              		.loc 2 272 5 view .LVU1125
 3675              		.loc 2 272 20 is_stmt 0 view .LVU1126
 3676 00bc 9DF84220 		ldrb	r2, [sp, #66]	@ zero_extendqisi2
 3677 00c0 63F30002 		bfi	r2, r3, #0, #1
 3678 00c4 8DF84220 		strb	r2, [sp, #66]
 3679              	.LVL367:
 3680              		.loc 2 272 20 view .LVU1127
 3681              	.LBE117:
 3682              	.LBE116:
 344:lvgl/src/core/lv_obj_style.c **** #endif
 3683              		.loc 1 344 9 is_stmt 1 view .LVU1128
 344:lvgl/src/core/lv_obj_style.c **** #endif
 3684              		.loc 1 344 29 is_stmt 0 view .LVU1129
 3685 00c8 3369     		ldr	r3, [r6, #16]
ARM GAS  C:\Users\BLACK_~1\AppData\Local\Temp\ccbv02In.s 			page 113


 344:lvgl/src/core/lv_obj_style.c **** #endif
 3686              		.loc 1 344 21 view .LVU1130
 3687 00ca 0693     		str	r3, [sp, #24]
 346:lvgl/src/core/lv_obj_style.c ****     }
 3688              		.loc 1 346 9 is_stmt 1 view .LVU1131
 3689 00cc 01A8     		add	r0, sp, #4
 3690 00ce FFF7FEFF 		bl	lv_anim_start
 3691              	.LVL368:
 3692              	.L246:
 346:lvgl/src/core/lv_obj_style.c ****     }
 3693              		.loc 1 346 9 is_stmt 0 view .LVU1132
 3694              	.LBE99:
 348:lvgl/src/core/lv_obj_style.c **** 
 3695              		.loc 1 348 1 view .LVU1133
 3696 00d2 13B0     		add	sp, sp, #76
 3697              	.LCFI40:
 3698              		.cfi_remember_state
 3699              		.cfi_def_cfa_offset 36
 3700              		@ sp needed
 3701 00d4 BDE8F08F 		pop	{r4, r5, r6, r7, r8, r9, r10, fp, pc}
 3702              	.LVL369:
 3703              	.L259:
 3704              	.LCFI41:
 3705              		.cfi_restore_state
 304:lvgl/src/core/lv_obj_style.c ****     obj->state = prev_state;
 3706              		.loc 1 304 45 discriminator 1 view .LVU1134
 3707 00d8 B6D1     		bne	.L247
 3708 00da FAE7     		b	.L246
 3709              	.LVL370:
 3710              	.L260:
 313:lvgl/src/core/lv_obj_style.c ****             lv_coord_t whalf = lv_obj_get_width(obj) / 2;
 3711              		.loc 1 313 9 is_stmt 1 view .LVU1135
 313:lvgl/src/core/lv_obj_style.c ****             lv_coord_t whalf = lv_obj_get_width(obj) / 2;
 3712              		.loc 1 313 14 is_stmt 0 view .LVU1136
 3713 00dc AA46     		mov	r10, r5
 313:lvgl/src/core/lv_obj_style.c ****             lv_coord_t whalf = lv_obj_get_width(obj) / 2;
 3714              		.loc 1 313 11 view .LVU1137
 3715 00de 47F6FF73 		movw	r3, #32767
 3716 00e2 9D42     		cmp	r5, r3
 3717 00e4 01D0     		beq	.L250
 313:lvgl/src/core/lv_obj_style.c ****             lv_coord_t whalf = lv_obj_get_width(obj) / 2;
 3718              		.loc 1 313 39 discriminator 1 view .LVU1138
 3719 00e6 9B45     		cmp	fp, r3
 3720 00e8 C4D1     		bne	.L249
 3721              	.L250:
 3722              	.LBB118:
 314:lvgl/src/core/lv_obj_style.c ****             lv_coord_t hhalf = lv_obj_get_width(obj) / 2;
 3723              		.loc 1 314 13 is_stmt 1 view .LVU1139
 314:lvgl/src/core/lv_obj_style.c ****             lv_coord_t hhalf = lv_obj_get_width(obj) / 2;
 3724              		.loc 1 314 32 is_stmt 0 view .LVU1140
 3725 00ea 2046     		mov	r0, r4
 3726 00ec FFF7FEFF 		bl	lv_obj_get_width
 3727              	.LVL371:
 314:lvgl/src/core/lv_obj_style.c ****             lv_coord_t hhalf = lv_obj_get_width(obj) / 2;
 3728              		.loc 1 314 24 view .LVU1141
 3729 00f0 00EBD070 		add	r0, r0, r0, lsr #31
 3730 00f4 40F34F09 		sbfx	r9, r0, #1, #16
ARM GAS  C:\Users\BLACK_~1\AppData\Local\Temp\ccbv02In.s 			page 114


 3731              	.LVL372:
 315:lvgl/src/core/lv_obj_style.c ****             if(v1.num == LV_RADIUS_CIRCLE) v1.num = LV_MIN(whalf + 1, hhalf + 1);
 3732              		.loc 1 315 13 is_stmt 1 view .LVU1142
 315:lvgl/src/core/lv_obj_style.c ****             if(v1.num == LV_RADIUS_CIRCLE) v1.num = LV_MIN(whalf + 1, hhalf + 1);
 3733              		.loc 1 315 32 is_stmt 0 view .LVU1143
 3734 00f8 2046     		mov	r0, r4
 3735 00fa FFF7FEFF 		bl	lv_obj_get_width
 3736              	.LVL373:
 315:lvgl/src/core/lv_obj_style.c ****             if(v1.num == LV_RADIUS_CIRCLE) v1.num = LV_MIN(whalf + 1, hhalf + 1);
 3737              		.loc 1 315 24 view .LVU1144
 3738 00fe 00EBD070 		add	r0, r0, r0, lsr #31
 3739 0102 40F34F03 		sbfx	r3, r0, #1, #16
 3740              	.LVL374:
 316:lvgl/src/core/lv_obj_style.c ****             if(v2.num == LV_RADIUS_CIRCLE) v2.num = LV_MIN(whalf + 1, hhalf + 1);
 3741              		.loc 1 316 13 is_stmt 1 view .LVU1145
 316:lvgl/src/core/lv_obj_style.c ****             if(v2.num == LV_RADIUS_CIRCLE) v2.num = LV_MIN(whalf + 1, hhalf + 1);
 3742              		.loc 1 316 15 is_stmt 0 view .LVU1146
 3743 0106 47F6FF72 		movw	r2, #32767
 3744 010a 9245     		cmp	r10, r2
 3745 010c 09D0     		beq	.L261
 3746              	.L251:
 317:lvgl/src/core/lv_obj_style.c ****         }
 3747              		.loc 1 317 13 is_stmt 1 view .LVU1147
 317:lvgl/src/core/lv_obj_style.c ****         }
 3748              		.loc 1 317 15 is_stmt 0 view .LVU1148
 3749 010e 47F6FF72 		movw	r2, #32767
 3750 0112 9345     		cmp	fp, r2
 3751 0114 AED1     		bne	.L249
 317:lvgl/src/core/lv_obj_style.c ****         }
 3752              		.loc 1 317 44 is_stmt 1 discriminator 1 view .LVU1149
 317:lvgl/src/core/lv_obj_style.c ****         }
 3753              		.loc 1 317 53 is_stmt 0 discriminator 1 view .LVU1150
 3754 0116 9945     		cmp	r9, r3
 3755 0118 0ADA     		bge	.L254
 317:lvgl/src/core/lv_obj_style.c ****         }
 3756              		.loc 1 317 53 discriminator 2 view .LVU1151
 3757 011a 09F10103 		add	r3, r9, #1
 3758              	.LVL375:
 3759              	.L255:
 317:lvgl/src/core/lv_obj_style.c ****         }
 3760              		.loc 1 317 51 discriminator 5 view .LVU1152
 3761 011e 9846     		mov	r8, r3
 317:lvgl/src/core/lv_obj_style.c ****         }
 3762              		.loc 1 317 51 discriminator 5 view .LVU1153
 3763 0120 A8E7     		b	.L249
 3764              	.LVL376:
 3765              	.L261:
 316:lvgl/src/core/lv_obj_style.c ****             if(v2.num == LV_RADIUS_CIRCLE) v2.num = LV_MIN(whalf + 1, hhalf + 1);
 3766              		.loc 1 316 44 is_stmt 1 discriminator 1 view .LVU1154
 316:lvgl/src/core/lv_obj_style.c ****             if(v2.num == LV_RADIUS_CIRCLE) v2.num = LV_MIN(whalf + 1, hhalf + 1);
 3767              		.loc 1 316 53 is_stmt 0 discriminator 1 view .LVU1155
 3768 0122 9945     		cmp	r9, r3
 3769 0124 02DA     		bge	.L252
 316:lvgl/src/core/lv_obj_style.c ****             if(v2.num == LV_RADIUS_CIRCLE) v2.num = LV_MIN(whalf + 1, hhalf + 1);
 3770              		.loc 1 316 53 discriminator 2 view .LVU1156
 3771 0126 09F10105 		add	r5, r9, #1
 3772              	.LVL377:
ARM GAS  C:\Users\BLACK_~1\AppData\Local\Temp\ccbv02In.s 			page 115


 316:lvgl/src/core/lv_obj_style.c ****             if(v2.num == LV_RADIUS_CIRCLE) v2.num = LV_MIN(whalf + 1, hhalf + 1);
 3773              		.loc 1 316 53 discriminator 2 view .LVU1157
 3774 012a F0E7     		b	.L251
 3775              	.LVL378:
 3776              	.L252:
 316:lvgl/src/core/lv_obj_style.c ****             if(v2.num == LV_RADIUS_CIRCLE) v2.num = LV_MIN(whalf + 1, hhalf + 1);
 3777              		.loc 1 316 53 discriminator 3 view .LVU1158
 3778 012c 5D1C     		adds	r5, r3, #1
 3779              	.LVL379:
 316:lvgl/src/core/lv_obj_style.c ****             if(v2.num == LV_RADIUS_CIRCLE) v2.num = LV_MIN(whalf + 1, hhalf + 1);
 3780              		.loc 1 316 53 discriminator 3 view .LVU1159
 3781 012e EEE7     		b	.L251
 3782              	.LVL380:
 3783              	.L254:
 317:lvgl/src/core/lv_obj_style.c ****         }
 3784              		.loc 1 317 53 discriminator 3 view .LVU1160
 3785 0130 0133     		adds	r3, r3, #1
 3786              	.LVL381:
 317:lvgl/src/core/lv_obj_style.c ****         }
 3787              		.loc 1 317 53 discriminator 3 view .LVU1161
 3788 0132 F4E7     		b	.L255
 3789              	.LVL382:
 3790              	.L257:
 317:lvgl/src/core/lv_obj_style.c ****         }
 3791              		.loc 1 317 53 discriminator 3 view .LVU1162
 3792              	.LBE118:
 322:lvgl/src/core/lv_obj_style.c ****     if(tr == NULL) return;
 3793              		.loc 1 322 5 is_stmt 1 discriminator 1 view .LVU1163
 322:lvgl/src/core/lv_obj_style.c ****     if(tr == NULL) return;
 3794              		.loc 1 322 5 discriminator 1 view .LVU1164
 322:lvgl/src/core/lv_obj_style.c ****     if(tr == NULL) return;
 3795              		.loc 1 322 5 discriminator 1 view .LVU1165
 322:lvgl/src/core/lv_obj_style.c ****     if(tr == NULL) return;
 3796              		.loc 1 322 5 discriminator 1 view .LVU1166
 3797 0134 FEE7     		b	.L257
 3798              	.L263:
 3799 0136 00BF     		.align	2
 3800              	.L262:
 3801 0138 00000000 		.word	_lv_obj_style_trans_ll
 3802 013c 00000000 		.word	trans_anim_cb
 3803 0140 00000000 		.word	trans_anim_start_cb
 3804 0144 00000000 		.word	trans_anim_ready_cb
 3805              		.cfi_endproc
 3806              	.LFE163:
 3808              		.section	.text.trans_anim_start_cb,"ax",%progbits
 3809              		.align	1
 3810              		.syntax unified
 3811              		.thumb
 3812              		.thumb_func
 3814              	trans_anim_start_cb:
 3815              	.LVL383:
 3816              	.LFB177:
 743:lvgl/src/core/lv_obj_style.c ****     trans_t * tr = a->var;
 3817              		.loc 1 743 1 view -0
 3818              		.cfi_startproc
 3819              		@ args = 0, pretend = 0, frame = 0
 3820              		@ frame_needed = 0, uses_anonymous_args = 0
ARM GAS  C:\Users\BLACK_~1\AppData\Local\Temp\ccbv02In.s 			page 116


 743:lvgl/src/core/lv_obj_style.c ****     trans_t * tr = a->var;
 3821              		.loc 1 743 1 is_stmt 0 view .LVU1168
 3822 0000 70B5     		push	{r4, r5, r6, lr}
 3823              	.LCFI42:
 3824              		.cfi_def_cfa_offset 16
 3825              		.cfi_offset 4, -16
 3826              		.cfi_offset 5, -12
 3827              		.cfi_offset 6, -8
 3828              		.cfi_offset 14, -4
 744:lvgl/src/core/lv_obj_style.c **** 
 3829              		.loc 1 744 5 is_stmt 1 view .LVU1169
 744:lvgl/src/core/lv_obj_style.c **** 
 3830              		.loc 1 744 15 is_stmt 0 view .LVU1170
 3831 0002 0468     		ldr	r4, [r0]
 3832              	.LVL384:
 746:lvgl/src/core/lv_obj_style.c ****     tr->start_value = lv_obj_get_style_prop(tr->obj, part, tr->prop);
 3833              		.loc 1 746 5 is_stmt 1 view .LVU1171
 746:lvgl/src/core/lv_obj_style.c ****     tr->start_value = lv_obj_get_style_prop(tr->obj, part, tr->prop);
 3834              		.loc 1 746 22 is_stmt 0 view .LVU1172
 3835 0004 A068     		ldr	r0, [r4, #8]
 3836              	.LVL385:
 746:lvgl/src/core/lv_obj_style.c ****     tr->start_value = lv_obj_get_style_prop(tr->obj, part, tr->prop);
 3837              		.loc 1 746 22 view .LVU1173
 3838 0006 FFF7FEFF 		bl	lv_obj_style_get_selector_part
 3839              	.LVL386:
 3840 000a 0546     		mov	r5, r0
 3841              	.LVL387:
 747:lvgl/src/core/lv_obj_style.c **** 
 3842              		.loc 1 747 5 is_stmt 1 view .LVU1174
 747:lvgl/src/core/lv_obj_style.c **** 
 3843              		.loc 1 747 23 is_stmt 0 view .LVU1175
 3844 000c A288     		ldrh	r2, [r4, #4]
 3845 000e 0146     		mov	r1, r0
 3846 0010 2068     		ldr	r0, [r4]
 3847              	.LVL388:
 747:lvgl/src/core/lv_obj_style.c **** 
 3848              		.loc 1 747 23 view .LVU1176
 3849 0012 FFF7FEFF 		bl	lv_obj_get_style_prop
 3850              	.LVL389:
 747:lvgl/src/core/lv_obj_style.c **** 
 3851              		.loc 1 747 23 view .LVU1177
 3852 0016 E060     		str	r0, [r4, #12]
 750:lvgl/src/core/lv_obj_style.c ****     tr->prop = LV_STYLE_PROP_INV;
 3853              		.loc 1 750 5 is_stmt 1 view .LVU1178
 750:lvgl/src/core/lv_obj_style.c ****     tr->prop = LV_STYLE_PROP_INV;
 3854              		.loc 1 750 21 is_stmt 0 view .LVU1179
 3855 0018 A688     		ldrh	r6, [r4, #4]
 3856              	.LVL390:
 751:lvgl/src/core/lv_obj_style.c **** 
 3857              		.loc 1 751 5 is_stmt 1 view .LVU1180
 751:lvgl/src/core/lv_obj_style.c **** 
 3858              		.loc 1 751 14 is_stmt 0 view .LVU1181
 3859 001a 0023     		movs	r3, #0
 3860 001c A380     		strh	r3, [r4, #4]	@ movhi
 754:lvgl/src/core/lv_obj_style.c **** 
 3861              		.loc 1 754 5 is_stmt 1 view .LVU1182
 3862 001e 2346     		mov	r3, r4
ARM GAS  C:\Users\BLACK_~1\AppData\Local\Temp\ccbv02In.s 			page 117


 3863 0020 3246     		mov	r2, r6
 3864 0022 2946     		mov	r1, r5
 3865 0024 2068     		ldr	r0, [r4]
 3866 0026 FFF7FEFF 		bl	trans_del
 3867              	.LVL391:
 756:lvgl/src/core/lv_obj_style.c **** 
 3868              		.loc 1 756 5 view .LVU1183
 756:lvgl/src/core/lv_obj_style.c **** 
 3869              		.loc 1 756 14 is_stmt 0 view .LVU1184
 3870 002a A680     		strh	r6, [r4, #4]	@ movhi
 758:lvgl/src/core/lv_obj_style.c ****     lv_style_set_prop(style_trans->style, tr->prop, tr->start_value);   /*Be sure `trans_style` has
 3871              		.loc 1 758 5 is_stmt 1 view .LVU1185
 758:lvgl/src/core/lv_obj_style.c ****     lv_style_set_prop(style_trans->style, tr->prop, tr->start_value);   /*Be sure `trans_style` has
 3872              		.loc 1 758 37 is_stmt 0 view .LVU1186
 3873 002c A168     		ldr	r1, [r4, #8]
 3874 002e 2068     		ldr	r0, [r4]
 3875 0030 FFF7FEFF 		bl	get_trans_style
 3876              	.LVL392:
 759:lvgl/src/core/lv_obj_style.c **** 
 3877              		.loc 1 759 5 is_stmt 1 view .LVU1187
 3878 0034 E268     		ldr	r2, [r4, #12]
 3879 0036 A188     		ldrh	r1, [r4, #4]
 3880 0038 0068     		ldr	r0, [r0]
 3881              	.LVL393:
 759:lvgl/src/core/lv_obj_style.c **** 
 3882              		.loc 1 759 5 is_stmt 0 view .LVU1188
 3883 003a FFF7FEFF 		bl	lv_style_set_prop
 3884              	.LVL394:
 761:lvgl/src/core/lv_obj_style.c **** 
 3885              		.loc 1 761 1 view .LVU1189
 3886 003e 70BD     		pop	{r4, r5, r6, pc}
 761:lvgl/src/core/lv_obj_style.c **** 
 3887              		.loc 1 761 1 view .LVU1190
 3888              		.cfi_endproc
 3889              	.LFE177:
 3891              		.section	.text._lv_obj_style_state_compare,"ax",%progbits
 3892              		.align	1
 3893              		.global	_lv_obj_style_state_compare
 3894              		.syntax unified
 3895              		.thumb
 3896              		.thumb_func
 3898              	_lv_obj_style_state_compare:
 3899              	.LVL395:
 3900              	.LFB164:
 351:lvgl/src/core/lv_obj_style.c ****     _lv_style_state_cmp_t res = _LV_STYLE_STATE_CMP_SAME;
 3901              		.loc 1 351 1 is_stmt 1 view -0
 3902              		.cfi_startproc
 3903              		@ args = 0, pretend = 0, frame = 16
 3904              		@ frame_needed = 0, uses_anonymous_args = 0
 351:lvgl/src/core/lv_obj_style.c ****     _lv_style_state_cmp_t res = _LV_STYLE_STATE_CMP_SAME;
 3905              		.loc 1 351 1 is_stmt 0 view .LVU1192
 3906 0000 2DE9F04F 		push	{r4, r5, r6, r7, r8, r9, r10, fp, lr}
 3907              	.LCFI43:
 3908              		.cfi_def_cfa_offset 36
 3909              		.cfi_offset 4, -36
 3910              		.cfi_offset 5, -32
 3911              		.cfi_offset 6, -28
ARM GAS  C:\Users\BLACK_~1\AppData\Local\Temp\ccbv02In.s 			page 118


 3912              		.cfi_offset 7, -24
 3913              		.cfi_offset 8, -20
 3914              		.cfi_offset 9, -16
 3915              		.cfi_offset 10, -12
 3916              		.cfi_offset 11, -8
 3917              		.cfi_offset 14, -4
 3918 0004 85B0     		sub	sp, sp, #20
 3919              	.LCFI44:
 3920              		.cfi_def_cfa_offset 56
 3921 0006 0746     		mov	r7, r0
 3922 0008 8B46     		mov	fp, r1
 3923 000a 9246     		mov	r10, r2
 352:lvgl/src/core/lv_obj_style.c **** 
 3924              		.loc 1 352 5 is_stmt 1 view .LVU1193
 3925              	.LVL396:
 355:lvgl/src/core/lv_obj_style.c ****     for(i = 0; i < obj->style_cnt; i++) {
 3926              		.loc 1 355 5 view .LVU1194
 356:lvgl/src/core/lv_obj_style.c ****         if(obj->styles[i].is_trans) continue;
 3927              		.loc 1 356 5 view .LVU1195
 356:lvgl/src/core/lv_obj_style.c ****         if(obj->styles[i].is_trans) continue;
 3928              		.loc 1 356 11 is_stmt 0 view .LVU1196
 3929 000c 0024     		movs	r4, #0
 352:lvgl/src/core/lv_obj_style.c **** 
 3930              		.loc 1 352 27 view .LVU1197
 3931 000e 0194     		str	r4, [sp, #4]
 356:lvgl/src/core/lv_obj_style.c ****         if(obj->styles[i].is_trans) continue;
 3932              		.loc 1 356 5 view .LVU1198
 3933 0010 88E0     		b	.L267
 3934              	.LVL397:
 3935              	.L292:
 3936              	.LBB119:
 3937              	.LBB120:
 370:lvgl/src/core/lv_obj_style.c ****             else if(lv_style_get_prop(style, LV_STYLE_PAD_LEFT, &v)) layout_diff = true;
 3938              		.loc 1 370 18 is_stmt 1 view .LVU1199
 370:lvgl/src/core/lv_obj_style.c ****             else if(lv_style_get_prop(style, LV_STYLE_PAD_LEFT, &v)) layout_diff = true;
 3939              		.loc 1 370 21 is_stmt 0 view .LVU1200
 3940 0012 03AA     		add	r2, sp, #12
 3941 0014 41F21101 		movw	r1, #4113
 3942 0018 2846     		mov	r0, r5
 3943 001a FFF7FEFF 		bl	lv_style_get_prop
 3944              	.LVL398:
 370:lvgl/src/core/lv_obj_style.c ****             else if(lv_style_get_prop(style, LV_STYLE_PAD_LEFT, &v)) layout_diff = true;
 3945              		.loc 1 370 20 view .LVU1201
 3946 001e 0028     		cmp	r0, #0
 3947 0020 40F0B180 		bne	.L269
 371:lvgl/src/core/lv_obj_style.c ****             else if(lv_style_get_prop(style, LV_STYLE_PAD_RIGHT, &v)) layout_diff = true;
 3948              		.loc 1 371 18 is_stmt 1 view .LVU1202
 371:lvgl/src/core/lv_obj_style.c ****             else if(lv_style_get_prop(style, LV_STYLE_PAD_RIGHT, &v)) layout_diff = true;
 3949              		.loc 1 371 21 is_stmt 0 view .LVU1203
 3950 0024 03AA     		add	r2, sp, #12
 3951 0026 41F21201 		movw	r1, #4114
 3952 002a 2846     		mov	r0, r5
 3953 002c FFF7FEFF 		bl	lv_style_get_prop
 3954              	.LVL399:
 371:lvgl/src/core/lv_obj_style.c ****             else if(lv_style_get_prop(style, LV_STYLE_PAD_RIGHT, &v)) layout_diff = true;
 3955              		.loc 1 371 20 view .LVU1204
 3956 0030 0028     		cmp	r0, #0
ARM GAS  C:\Users\BLACK_~1\AppData\Local\Temp\ccbv02In.s 			page 119


 3957 0032 40F0A880 		bne	.L269
 372:lvgl/src/core/lv_obj_style.c ****             else if(lv_style_get_prop(style, LV_STYLE_PAD_COLUMN, &v)) layout_diff = true;
 3958              		.loc 1 372 18 is_stmt 1 view .LVU1205
 372:lvgl/src/core/lv_obj_style.c ****             else if(lv_style_get_prop(style, LV_STYLE_PAD_COLUMN, &v)) layout_diff = true;
 3959              		.loc 1 372 21 is_stmt 0 view .LVU1206
 3960 0036 03AA     		add	r2, sp, #12
 3961 0038 41F21301 		movw	r1, #4115
 3962 003c 2846     		mov	r0, r5
 3963 003e FFF7FEFF 		bl	lv_style_get_prop
 3964              	.LVL400:
 372:lvgl/src/core/lv_obj_style.c ****             else if(lv_style_get_prop(style, LV_STYLE_PAD_COLUMN, &v)) layout_diff = true;
 3965              		.loc 1 372 20 view .LVU1207
 3966 0042 0028     		cmp	r0, #0
 3967 0044 40F09F80 		bne	.L269
 373:lvgl/src/core/lv_obj_style.c ****             else if(lv_style_get_prop(style, LV_STYLE_PAD_ROW, &v)) layout_diff = true;
 3968              		.loc 1 373 18 is_stmt 1 view .LVU1208
 373:lvgl/src/core/lv_obj_style.c ****             else if(lv_style_get_prop(style, LV_STYLE_PAD_ROW, &v)) layout_diff = true;
 3969              		.loc 1 373 21 is_stmt 0 view .LVU1209
 3970 0048 03AA     		add	r2, sp, #12
 3971 004a 41F21501 		movw	r1, #4117
 3972 004e 2846     		mov	r0, r5
 3973 0050 FFF7FEFF 		bl	lv_style_get_prop
 3974              	.LVL401:
 373:lvgl/src/core/lv_obj_style.c ****             else if(lv_style_get_prop(style, LV_STYLE_PAD_ROW, &v)) layout_diff = true;
 3975              		.loc 1 373 20 view .LVU1210
 3976 0054 0028     		cmp	r0, #0
 3977 0056 40F09680 		bne	.L269
 374:lvgl/src/core/lv_obj_style.c ****             else if(lv_style_get_prop(style, LV_STYLE_LAYOUT, &v)) layout_diff = true;
 3978              		.loc 1 374 18 is_stmt 1 view .LVU1211
 374:lvgl/src/core/lv_obj_style.c ****             else if(lv_style_get_prop(style, LV_STYLE_LAYOUT, &v)) layout_diff = true;
 3979              		.loc 1 374 21 is_stmt 0 view .LVU1212
 3980 005a 03AA     		add	r2, sp, #12
 3981 005c 41F21401 		movw	r1, #4116
 3982 0060 2846     		mov	r0, r5
 3983 0062 FFF7FEFF 		bl	lv_style_get_prop
 3984              	.LVL402:
 374:lvgl/src/core/lv_obj_style.c ****             else if(lv_style_get_prop(style, LV_STYLE_LAYOUT, &v)) layout_diff = true;
 3985              		.loc 1 374 20 view .LVU1213
 3986 0066 0028     		cmp	r0, #0
 3987 0068 40F08D80 		bne	.L269
 375:lvgl/src/core/lv_obj_style.c ****             else if(lv_style_get_prop(style, LV_STYLE_TRANSLATE_X, &v)) layout_diff = true;
 3988              		.loc 1 375 18 is_stmt 1 view .LVU1214
 375:lvgl/src/core/lv_obj_style.c ****             else if(lv_style_get_prop(style, LV_STYLE_TRANSLATE_X, &v)) layout_diff = true;
 3989              		.loc 1 375 21 is_stmt 0 view .LVU1215
 3990 006c 03AA     		add	r2, sp, #12
 3991 006e 41F26901 		movw	r1, #4201
 3992 0072 2846     		mov	r0, r5
 3993 0074 FFF7FEFF 		bl	lv_style_get_prop
 3994              	.LVL403:
 375:lvgl/src/core/lv_obj_style.c ****             else if(lv_style_get_prop(style, LV_STYLE_TRANSLATE_X, &v)) layout_diff = true;
 3995              		.loc 1 375 20 view .LVU1216
 3996 0078 0028     		cmp	r0, #0
 3997 007a 40F08480 		bne	.L269
 376:lvgl/src/core/lv_obj_style.c ****             else if(lv_style_get_prop(style, LV_STYLE_TRANSLATE_Y, &v)) layout_diff = true;
 3998              		.loc 1 376 18 is_stmt 1 view .LVU1217
 376:lvgl/src/core/lv_obj_style.c ****             else if(lv_style_get_prop(style, LV_STYLE_TRANSLATE_Y, &v)) layout_diff = true;
 3999              		.loc 1 376 21 is_stmt 0 view .LVU1218
ARM GAS  C:\Users\BLACK_~1\AppData\Local\Temp\ccbv02In.s 			page 120


 4000 007e 03AA     		add	r2, sp, #12
 4001 0080 43F20C01 		movw	r1, #12300
 4002 0084 2846     		mov	r0, r5
 4003 0086 FFF7FEFF 		bl	lv_style_get_prop
 4004              	.LVL404:
 376:lvgl/src/core/lv_obj_style.c ****             else if(lv_style_get_prop(style, LV_STYLE_TRANSLATE_Y, &v)) layout_diff = true;
 4005              		.loc 1 376 20 view .LVU1219
 4006 008a 0028     		cmp	r0, #0
 4007 008c 7BD1     		bne	.L269
 377:lvgl/src/core/lv_obj_style.c ****             else if(lv_style_get_prop(style, LV_STYLE_WIDTH, &v)) layout_diff = true;
 4008              		.loc 1 377 18 is_stmt 1 view .LVU1220
 377:lvgl/src/core/lv_obj_style.c ****             else if(lv_style_get_prop(style, LV_STYLE_WIDTH, &v)) layout_diff = true;
 4009              		.loc 1 377 21 is_stmt 0 view .LVU1221
 4010 008e 03AA     		add	r2, sp, #12
 4011 0090 43F20D01 		movw	r1, #12301
 4012 0094 2846     		mov	r0, r5
 4013 0096 FFF7FEFF 		bl	lv_style_get_prop
 4014              	.LVL405:
 377:lvgl/src/core/lv_obj_style.c ****             else if(lv_style_get_prop(style, LV_STYLE_WIDTH, &v)) layout_diff = true;
 4015              		.loc 1 377 20 view .LVU1222
 4016 009a 0028     		cmp	r0, #0
 4017 009c 73D1     		bne	.L269
 378:lvgl/src/core/lv_obj_style.c ****             else if(lv_style_get_prop(style, LV_STYLE_HEIGHT, &v)) layout_diff = true;
 4018              		.loc 1 378 18 is_stmt 1 view .LVU1223
 378:lvgl/src/core/lv_obj_style.c ****             else if(lv_style_get_prop(style, LV_STYLE_HEIGHT, &v)) layout_diff = true;
 4019              		.loc 1 378 21 is_stmt 0 view .LVU1224
 4020 009e 03AA     		add	r2, sp, #12
 4021 00a0 41F20101 		movw	r1, #4097
 4022 00a4 2846     		mov	r0, r5
 4023 00a6 FFF7FEFF 		bl	lv_style_get_prop
 4024              	.LVL406:
 378:lvgl/src/core/lv_obj_style.c ****             else if(lv_style_get_prop(style, LV_STYLE_HEIGHT, &v)) layout_diff = true;
 4025              		.loc 1 378 20 view .LVU1225
 4026 00aa 0028     		cmp	r0, #0
 4027 00ac 6BD1     		bne	.L269
 379:lvgl/src/core/lv_obj_style.c ****             else if(lv_style_get_prop(style, LV_STYLE_MIN_WIDTH, &v)) layout_diff = true;
 4028              		.loc 1 379 18 is_stmt 1 view .LVU1226
 379:lvgl/src/core/lv_obj_style.c ****             else if(lv_style_get_prop(style, LV_STYLE_MIN_WIDTH, &v)) layout_diff = true;
 4029              		.loc 1 379 21 is_stmt 0 view .LVU1227
 4030 00ae 03AA     		add	r2, sp, #12
 4031 00b0 41F20401 		movw	r1, #4100
 4032 00b4 2846     		mov	r0, r5
 4033 00b6 FFF7FEFF 		bl	lv_style_get_prop
 4034              	.LVL407:
 379:lvgl/src/core/lv_obj_style.c ****             else if(lv_style_get_prop(style, LV_STYLE_MIN_WIDTH, &v)) layout_diff = true;
 4035              		.loc 1 379 20 view .LVU1228
 4036 00ba 0028     		cmp	r0, #0
 4037 00bc 63D1     		bne	.L269
 380:lvgl/src/core/lv_obj_style.c ****             else if(lv_style_get_prop(style, LV_STYLE_MAX_WIDTH, &v)) layout_diff = true;
 4038              		.loc 1 380 18 is_stmt 1 view .LVU1229
 380:lvgl/src/core/lv_obj_style.c ****             else if(lv_style_get_prop(style, LV_STYLE_MAX_WIDTH, &v)) layout_diff = true;
 4039              		.loc 1 380 21 is_stmt 0 view .LVU1230
 4040 00be 03AA     		add	r2, sp, #12
 4041 00c0 41F20201 		movw	r1, #4098
 4042 00c4 2846     		mov	r0, r5
 4043 00c6 FFF7FEFF 		bl	lv_style_get_prop
 4044              	.LVL408:
ARM GAS  C:\Users\BLACK_~1\AppData\Local\Temp\ccbv02In.s 			page 121


 380:lvgl/src/core/lv_obj_style.c ****             else if(lv_style_get_prop(style, LV_STYLE_MAX_WIDTH, &v)) layout_diff = true;
 4045              		.loc 1 380 20 view .LVU1231
 4046 00ca 0028     		cmp	r0, #0
 4047 00cc 5BD1     		bne	.L269
 381:lvgl/src/core/lv_obj_style.c ****             else if(lv_style_get_prop(style, LV_STYLE_MIN_HEIGHT, &v)) layout_diff = true;
 4048              		.loc 1 381 18 is_stmt 1 view .LVU1232
 381:lvgl/src/core/lv_obj_style.c ****             else if(lv_style_get_prop(style, LV_STYLE_MIN_HEIGHT, &v)) layout_diff = true;
 4049              		.loc 1 381 21 is_stmt 0 view .LVU1233
 4050 00ce 03AA     		add	r2, sp, #12
 4051 00d0 41F20301 		movw	r1, #4099
 4052 00d4 2846     		mov	r0, r5
 4053 00d6 FFF7FEFF 		bl	lv_style_get_prop
 4054              	.LVL409:
 381:lvgl/src/core/lv_obj_style.c ****             else if(lv_style_get_prop(style, LV_STYLE_MIN_HEIGHT, &v)) layout_diff = true;
 4055              		.loc 1 381 20 view .LVU1234
 4056 00da 0028     		cmp	r0, #0
 4057 00dc 53D1     		bne	.L269
 382:lvgl/src/core/lv_obj_style.c ****             else if(lv_style_get_prop(style, LV_STYLE_MAX_HEIGHT, &v)) layout_diff = true;
 4058              		.loc 1 382 18 is_stmt 1 view .LVU1235
 382:lvgl/src/core/lv_obj_style.c ****             else if(lv_style_get_prop(style, LV_STYLE_MAX_HEIGHT, &v)) layout_diff = true;
 4059              		.loc 1 382 21 is_stmt 0 view .LVU1236
 4060 00de 03AA     		add	r2, sp, #12
 4061 00e0 41F20501 		movw	r1, #4101
 4062 00e4 2846     		mov	r0, r5
 4063 00e6 FFF7FEFF 		bl	lv_style_get_prop
 4064              	.LVL410:
 382:lvgl/src/core/lv_obj_style.c ****             else if(lv_style_get_prop(style, LV_STYLE_MAX_HEIGHT, &v)) layout_diff = true;
 4065              		.loc 1 382 20 view .LVU1237
 4066 00ea 0028     		cmp	r0, #0
 4067 00ec 4BD1     		bne	.L269
 383:lvgl/src/core/lv_obj_style.c ****             else if(lv_style_get_prop(style, LV_STYLE_BORDER_WIDTH, &v)) layout_diff = true;
 4068              		.loc 1 383 18 is_stmt 1 view .LVU1238
 383:lvgl/src/core/lv_obj_style.c ****             else if(lv_style_get_prop(style, LV_STYLE_BORDER_WIDTH, &v)) layout_diff = true;
 4069              		.loc 1 383 21 is_stmt 0 view .LVU1239
 4070 00ee 03AA     		add	r2, sp, #12
 4071 00f0 41F20601 		movw	r1, #4102
 4072 00f4 2846     		mov	r0, r5
 4073 00f6 FFF7FEFF 		bl	lv_style_get_prop
 4074              	.LVL411:
 383:lvgl/src/core/lv_obj_style.c ****             else if(lv_style_get_prop(style, LV_STYLE_BORDER_WIDTH, &v)) layout_diff = true;
 4075              		.loc 1 383 20 view .LVU1240
 4076 00fa 0028     		cmp	r0, #0
 4077 00fc 43D1     		bne	.L269
 384:lvgl/src/core/lv_obj_style.c **** 
 4078              		.loc 1 384 18 is_stmt 1 view .LVU1241
 384:lvgl/src/core/lv_obj_style.c **** 
 4079              		.loc 1 384 21 is_stmt 0 view .LVU1242
 4080 00fe 03AA     		add	r2, sp, #12
 4081 0100 41F23201 		movw	r1, #4146
 4082 0104 2846     		mov	r0, r5
 4083 0106 FFF7FEFF 		bl	lv_style_get_prop
 4084              	.LVL412:
 384:lvgl/src/core/lv_obj_style.c **** 
 4085              		.loc 1 384 20 view .LVU1243
 4086 010a 0028     		cmp	r0, #0
 4087 010c 3BD1     		bne	.L269
 386:lvgl/src/core/lv_obj_style.c ****                 if(part_act == LV_PART_MAIN) {
ARM GAS  C:\Users\BLACK_~1\AppData\Local\Temp\ccbv02In.s 			page 122


 4088              		.loc 1 386 13 is_stmt 1 view .LVU1244
 397:lvgl/src/core/lv_obj_style.c ****             else if(lv_style_get_prop(style, LV_STYLE_TRANSFORM_HEIGHT, &v)) res = _LV_STYLE_STATE_
 4089              		.loc 1 397 13 view .LVU1245
 397:lvgl/src/core/lv_obj_style.c ****             else if(lv_style_get_prop(style, LV_STYLE_TRANSFORM_HEIGHT, &v)) res = _LV_STYLE_STATE_
 4090              		.loc 1 397 16 is_stmt 0 view .LVU1246
 4091 010e 03AA     		add	r2, sp, #12
 4092 0110 40F60A01 		movw	r1, #2058
 4093 0114 2846     		mov	r0, r5
 4094 0116 FFF7FEFF 		bl	lv_style_get_prop
 4095              	.LVL413:
 397:lvgl/src/core/lv_obj_style.c ****             else if(lv_style_get_prop(style, LV_STYLE_TRANSFORM_HEIGHT, &v)) res = _LV_STYLE_STATE_
 4096              		.loc 1 397 15 view .LVU1247
 4097 011a 0028     		cmp	r0, #0
 4098 011c 3DD0     		beq	.L291
 397:lvgl/src/core/lv_obj_style.c ****             else if(lv_style_get_prop(style, LV_STYLE_TRANSFORM_HEIGHT, &v)) res = _LV_STYLE_STATE_
 4099              		.loc 1 397 76 view .LVU1248
 4100 011e 0223     		movs	r3, #2
 4101 0120 0193     		str	r3, [sp, #4]
 4102              	.LVL414:
 4103              	.L268:
 397:lvgl/src/core/lv_obj_style.c ****             else if(lv_style_get_prop(style, LV_STYLE_TRANSFORM_HEIGHT, &v)) res = _LV_STYLE_STATE_
 4104              		.loc 1 397 76 view .LVU1249
 4105              	.LBE120:
 4106              	.LBE119:
 356:lvgl/src/core/lv_obj_style.c ****         if(obj->styles[i].is_trans) continue;
 4107              		.loc 1 356 36 is_stmt 1 discriminator 2 view .LVU1250
 356:lvgl/src/core/lv_obj_style.c ****         if(obj->styles[i].is_trans) continue;
 4108              		.loc 1 356 37 is_stmt 0 discriminator 2 view .LVU1251
 4109 0122 0134     		adds	r4, r4, #1
 4110              	.LVL415:
 4111              	.L267:
 356:lvgl/src/core/lv_obj_style.c ****         if(obj->styles[i].is_trans) continue;
 4112              		.loc 1 356 16 is_stmt 1 discriminator 1 view .LVU1252
 356:lvgl/src/core/lv_obj_style.c ****         if(obj->styles[i].is_trans) continue;
 4113              		.loc 1 356 23 is_stmt 0 discriminator 1 view .LVU1253
 4114 0124 7B8C     		ldrh	r3, [r7, #34]
 4115 0126 C3F3C503 		ubfx	r3, r3, #3, #6
 356:lvgl/src/core/lv_obj_style.c ****         if(obj->styles[i].is_trans) continue;
 4116              		.loc 1 356 5 discriminator 1 view .LVU1254
 4117 012a A342     		cmp	r3, r4
 4118 012c 31D9     		bls	.L273
 4119              	.LBB123:
 357:lvgl/src/core/lv_obj_style.c **** 
 4120              		.loc 1 357 9 is_stmt 1 view .LVU1255
 357:lvgl/src/core/lv_obj_style.c **** 
 4121              		.loc 1 357 15 is_stmt 0 view .LVU1256
 4122 012e D7F80C80 		ldr	r8, [r7, #12]
 357:lvgl/src/core/lv_obj_style.c **** 
 4123              		.loc 1 357 23 view .LVU1257
 4124 0132 4FEAC409 		lsl	r9, r4, #3
 4125 0136 08EBC403 		add	r3, r8, r4, lsl #3
 357:lvgl/src/core/lv_obj_style.c **** 
 4126              		.loc 1 357 12 view .LVU1258
 4127 013a DA79     		ldrb	r2, [r3, #7]	@ zero_extendqisi2
 357:lvgl/src/core/lv_obj_style.c **** 
 4128              		.loc 1 357 11 view .LVU1259
 4129 013c 12F0020F 		tst	r2, #2
ARM GAS  C:\Users\BLACK_~1\AppData\Local\Temp\ccbv02In.s 			page 123


 4130 0140 EFD1     		bne	.L268
 359:lvgl/src/core/lv_obj_style.c ****         lv_part_t part_act = lv_obj_style_get_selector_part(obj->styles[i].selector);
 4131              		.loc 1 359 9 is_stmt 1 view .LVU1260
 359:lvgl/src/core/lv_obj_style.c ****         lv_part_t part_act = lv_obj_style_get_selector_part(obj->styles[i].selector);
 4132              		.loc 1 359 78 is_stmt 0 view .LVU1261
 4133 0142 5E68     		ldr	r6, [r3, #4]
 4134 0144 C6F31706 		ubfx	r6, r6, #0, #24
 359:lvgl/src/core/lv_obj_style.c ****         lv_part_t part_act = lv_obj_style_get_selector_part(obj->styles[i].selector);
 4135              		.loc 1 359 32 view .LVU1262
 4136 0148 3046     		mov	r0, r6
 4137 014a FFF7FEFF 		bl	lv_obj_style_get_selector_state
 4138              	.LVL416:
 4139 014e 0546     		mov	r5, r0
 4140              	.LVL417:
 360:lvgl/src/core/lv_obj_style.c ****         /*The style is valid for a stat but not the other*/
 4141              		.loc 1 360 9 is_stmt 1 view .LVU1263
 360:lvgl/src/core/lv_obj_style.c ****         /*The style is valid for a stat but not the other*/
 4142              		.loc 1 360 30 is_stmt 0 view .LVU1264
 4143 0150 3046     		mov	r0, r6
 4144 0152 FFF7FEFF 		bl	lv_obj_style_get_selector_part
 4145              	.LVL418:
 4146 0156 0646     		mov	r6, r0
 4147              	.LVL419:
 362:lvgl/src/core/lv_obj_style.c ****         bool valid2 = state_act & (~state2) ? false : true;
 4148              		.loc 1 362 9 is_stmt 1 view .LVU1265
 362:lvgl/src/core/lv_obj_style.c ****         bool valid2 = state_act & (~state2) ? false : true;
 4149              		.loc 1 362 14 is_stmt 0 view .LVU1266
 4150 0158 35EA0B03 		bics	r3, r5, fp
 4151 015c 0CBF     		ite	eq
 4152 015e 0122     		moveq	r2, #1
 4153 0160 0022     		movne	r2, #0
 4154              	.LVL420:
 363:lvgl/src/core/lv_obj_style.c ****         if(valid1 != valid2) {
 4155              		.loc 1 363 9 is_stmt 1 view .LVU1267
 363:lvgl/src/core/lv_obj_style.c ****         if(valid1 != valid2) {
 4156              		.loc 1 363 14 is_stmt 0 view .LVU1268
 4157 0162 35EA0A03 		bics	r3, r5, r10
 4158 0166 0CBF     		ite	eq
 4159 0168 0123     		moveq	r3, #1
 4160 016a 0023     		movne	r3, #0
 4161              	.LVL421:
 364:lvgl/src/core/lv_obj_style.c ****             lv_style_t * style = obj->styles[i].style;
 4162              		.loc 1 364 9 is_stmt 1 view .LVU1269
 364:lvgl/src/core/lv_obj_style.c ****             lv_style_t * style = obj->styles[i].style;
 4163              		.loc 1 364 11 is_stmt 0 view .LVU1270
 4164 016c 9A42     		cmp	r2, r3
 4165 016e D8D0     		beq	.L268
 4166              	.LBB121:
 365:lvgl/src/core/lv_obj_style.c ****             lv_style_value_t v;
 4167              		.loc 1 365 13 is_stmt 1 view .LVU1271
 365:lvgl/src/core/lv_obj_style.c ****             lv_style_value_t v;
 4168              		.loc 1 365 26 is_stmt 0 view .LVU1272
 4169 0170 58F80950 		ldr	r5, [r8, r9]
 4170              	.LVL422:
 366:lvgl/src/core/lv_obj_style.c ****             /*If there is layout difference on the main part, return immediately. There is no more 
 4171              		.loc 1 366 13 is_stmt 1 view .LVU1273
 368:lvgl/src/core/lv_obj_style.c ****             if(lv_style_get_prop(style, LV_STYLE_PAD_TOP, &v))layout_diff = true;
ARM GAS  C:\Users\BLACK_~1\AppData\Local\Temp\ccbv02In.s 			page 124


 4172              		.loc 1 368 13 view .LVU1274
 369:lvgl/src/core/lv_obj_style.c ****             else if(lv_style_get_prop(style, LV_STYLE_PAD_BOTTOM, &v)) layout_diff = true;
 4173              		.loc 1 369 13 view .LVU1275
 369:lvgl/src/core/lv_obj_style.c ****             else if(lv_style_get_prop(style, LV_STYLE_PAD_BOTTOM, &v)) layout_diff = true;
 4174              		.loc 1 369 16 is_stmt 0 view .LVU1276
 4175 0174 03AA     		add	r2, sp, #12
 4176              	.LVL423:
 369:lvgl/src/core/lv_obj_style.c ****             else if(lv_style_get_prop(style, LV_STYLE_PAD_BOTTOM, &v)) layout_diff = true;
 4177              		.loc 1 369 16 view .LVU1277
 4178 0176 41F21001 		movw	r1, #4112
 4179 017a 2846     		mov	r0, r5
 4180              	.LVL424:
 369:lvgl/src/core/lv_obj_style.c ****             else if(lv_style_get_prop(style, LV_STYLE_PAD_BOTTOM, &v)) layout_diff = true;
 4181              		.loc 1 369 16 view .LVU1278
 4182 017c FFF7FEFF 		bl	lv_style_get_prop
 4183              	.LVL425:
 369:lvgl/src/core/lv_obj_style.c ****             else if(lv_style_get_prop(style, LV_STYLE_PAD_BOTTOM, &v)) layout_diff = true;
 4184              		.loc 1 369 15 view .LVU1279
 4185 0180 0028     		cmp	r0, #0
 4186 0182 3FF446AF 		beq	.L292
 4187              	.L269:
 4188              	.LVL426:
 387:lvgl/src/core/lv_obj_style.c ****                     return _LV_STYLE_STATE_CMP_DIFF_LAYOUT;
 4189              		.loc 1 387 17 is_stmt 1 view .LVU1280
 387:lvgl/src/core/lv_obj_style.c ****                     return _LV_STYLE_STATE_CMP_DIFF_LAYOUT;
 4190              		.loc 1 387 19 is_stmt 0 view .LVU1281
 4191 0186 16B1     		cbz	r6, .L293
 391:lvgl/src/core/lv_obj_style.c ****                     continue;
 4192              		.loc 1 391 21 is_stmt 1 view .LVU1282
 4193              	.LVL427:
 392:lvgl/src/core/lv_obj_style.c ****                 }
 4194              		.loc 1 392 21 view .LVU1283
 391:lvgl/src/core/lv_obj_style.c ****                     continue;
 4195              		.loc 1 391 25 is_stmt 0 view .LVU1284
 4196 0188 0223     		movs	r3, #2
 4197 018a 0193     		str	r3, [sp, #4]
 4198 018c C9E7     		b	.L268
 4199              	.LVL428:
 4200              	.L293:
 388:lvgl/src/core/lv_obj_style.c ****                 }
 4201              		.loc 1 388 21 is_stmt 1 view .LVU1285
 388:lvgl/src/core/lv_obj_style.c ****                 }
 4202              		.loc 1 388 28 is_stmt 0 view .LVU1286
 4203 018e 0323     		movs	r3, #3
 4204 0190 0193     		str	r3, [sp, #4]
 4205              	.LVL429:
 4206              	.L273:
 388:lvgl/src/core/lv_obj_style.c ****                 }
 4207              		.loc 1 388 28 view .LVU1287
 4208              	.LBE121:
 4209              	.LBE123:
 415:lvgl/src/core/lv_obj_style.c **** 
 4210              		.loc 1 415 1 view .LVU1288
 4211 0192 0198     		ldr	r0, [sp, #4]
 4212 0194 05B0     		add	sp, sp, #20
 4213              	.LCFI45:
 4214              		.cfi_remember_state
ARM GAS  C:\Users\BLACK_~1\AppData\Local\Temp\ccbv02In.s 			page 125


 4215              		.cfi_def_cfa_offset 36
 4216              		@ sp needed
 4217 0196 BDE8F08F 		pop	{r4, r5, r6, r7, r8, r9, r10, fp, pc}
 4218              	.LVL430:
 4219              	.L291:
 4220              	.LCFI46:
 4221              		.cfi_restore_state
 4222              	.LBB124:
 4223              	.LBB122:
 398:lvgl/src/core/lv_obj_style.c ****             else if(lv_style_get_prop(style, LV_STYLE_TRANSFORM_ANGLE, &v)) res = _LV_STYLE_STATE_C
 4224              		.loc 1 398 18 is_stmt 1 view .LVU1289
 398:lvgl/src/core/lv_obj_style.c ****             else if(lv_style_get_prop(style, LV_STYLE_TRANSFORM_ANGLE, &v)) res = _LV_STYLE_STATE_C
 4225              		.loc 1 398 21 is_stmt 0 view .LVU1290
 4226 019a 03AA     		add	r2, sp, #12
 4227 019c 40F60B01 		movw	r1, #2059
 4228 01a0 2846     		mov	r0, r5
 4229 01a2 FFF7FEFF 		bl	lv_style_get_prop
 4230              	.LVL431:
 398:lvgl/src/core/lv_obj_style.c ****             else if(lv_style_get_prop(style, LV_STYLE_TRANSFORM_ANGLE, &v)) res = _LV_STYLE_STATE_C
 4231              		.loc 1 398 20 view .LVU1291
 4232 01a6 0028     		cmp	r0, #0
 4233 01a8 5CD1     		bne	.L276
 399:lvgl/src/core/lv_obj_style.c ****             else if(lv_style_get_prop(style, LV_STYLE_TRANSFORM_ZOOM, &v)) res = _LV_STYLE_STATE_CM
 4234              		.loc 1 399 18 is_stmt 1 view .LVU1292
 399:lvgl/src/core/lv_obj_style.c ****             else if(lv_style_get_prop(style, LV_STYLE_TRANSFORM_ZOOM, &v)) res = _LV_STYLE_STATE_CM
 4235              		.loc 1 399 21 is_stmt 0 view .LVU1293
 4236 01aa 03AA     		add	r2, sp, #12
 4237 01ac 40F60F01 		movw	r1, #2063
 4238 01b0 2846     		mov	r0, r5
 4239 01b2 FFF7FEFF 		bl	lv_style_get_prop
 4240              	.LVL432:
 399:lvgl/src/core/lv_obj_style.c ****             else if(lv_style_get_prop(style, LV_STYLE_TRANSFORM_ZOOM, &v)) res = _LV_STYLE_STATE_CM
 4241              		.loc 1 399 20 view .LVU1294
 4242 01b6 10B1     		cbz	r0, .L294
 399:lvgl/src/core/lv_obj_style.c ****             else if(lv_style_get_prop(style, LV_STYLE_TRANSFORM_ZOOM, &v)) res = _LV_STYLE_STATE_CM
 4243              		.loc 1 399 81 view .LVU1295
 4244 01b8 0223     		movs	r3, #2
 4245 01ba 0193     		str	r3, [sp, #4]
 4246              	.LVL433:
 399:lvgl/src/core/lv_obj_style.c ****             else if(lv_style_get_prop(style, LV_STYLE_TRANSFORM_ZOOM, &v)) res = _LV_STYLE_STATE_CM
 4247              		.loc 1 399 81 view .LVU1296
 4248 01bc B1E7     		b	.L268
 4249              	.LVL434:
 4250              	.L294:
 400:lvgl/src/core/lv_obj_style.c ****             else if(lv_style_get_prop(style, LV_STYLE_OUTLINE_OPA, &v)) res = _LV_STYLE_STATE_CMP_D
 4251              		.loc 1 400 18 is_stmt 1 view .LVU1297
 400:lvgl/src/core/lv_obj_style.c ****             else if(lv_style_get_prop(style, LV_STYLE_OUTLINE_OPA, &v)) res = _LV_STYLE_STATE_CMP_D
 4252              		.loc 1 400 21 is_stmt 0 view .LVU1298
 4253 01be 03AA     		add	r2, sp, #12
 4254 01c0 40F60E01 		movw	r1, #2062
 4255 01c4 2846     		mov	r0, r5
 4256 01c6 FFF7FEFF 		bl	lv_style_get_prop
 4257              	.LVL435:
 400:lvgl/src/core/lv_obj_style.c ****             else if(lv_style_get_prop(style, LV_STYLE_OUTLINE_OPA, &v)) res = _LV_STYLE_STATE_CMP_D
 4258              		.loc 1 400 20 view .LVU1299
 4259 01ca 0028     		cmp	r0, #0
 4260 01cc 4DD1     		bne	.L278
ARM GAS  C:\Users\BLACK_~1\AppData\Local\Temp\ccbv02In.s 			page 126


 401:lvgl/src/core/lv_obj_style.c ****             else if(lv_style_get_prop(style, LV_STYLE_OUTLINE_PAD, &v)) res = _LV_STYLE_STATE_CMP_D
 4261              		.loc 1 401 18 is_stmt 1 view .LVU1300
 401:lvgl/src/core/lv_obj_style.c ****             else if(lv_style_get_prop(style, LV_STYLE_OUTLINE_PAD, &v)) res = _LV_STYLE_STATE_CMP_D
 4262              		.loc 1 401 21 is_stmt 0 view .LVU1301
 4263 01ce 03AA     		add	r2, sp, #12
 4264 01d0 40F63C01 		movw	r1, #2108
 4265 01d4 2846     		mov	r0, r5
 4266 01d6 FFF7FEFF 		bl	lv_style_get_prop
 4267              	.LVL436:
 401:lvgl/src/core/lv_obj_style.c ****             else if(lv_style_get_prop(style, LV_STYLE_OUTLINE_PAD, &v)) res = _LV_STYLE_STATE_CMP_D
 4268              		.loc 1 401 20 view .LVU1302
 4269 01da 0028     		cmp	r0, #0
 4270 01dc 48D1     		bne	.L279
 402:lvgl/src/core/lv_obj_style.c ****             else if(lv_style_get_prop(style, LV_STYLE_OUTLINE_WIDTH, &v)) res = _LV_STYLE_STATE_CMP
 4271              		.loc 1 402 18 is_stmt 1 view .LVU1303
 402:lvgl/src/core/lv_obj_style.c ****             else if(lv_style_get_prop(style, LV_STYLE_OUTLINE_WIDTH, &v)) res = _LV_STYLE_STATE_CMP
 4272              		.loc 1 402 21 is_stmt 0 view .LVU1304
 4273 01de 03AA     		add	r2, sp, #12
 4274 01e0 40F63D01 		movw	r1, #2109
 4275 01e4 2846     		mov	r0, r5
 4276 01e6 FFF7FEFF 		bl	lv_style_get_prop
 4277              	.LVL437:
 402:lvgl/src/core/lv_obj_style.c ****             else if(lv_style_get_prop(style, LV_STYLE_OUTLINE_WIDTH, &v)) res = _LV_STYLE_STATE_CMP
 4278              		.loc 1 402 20 view .LVU1305
 4279 01ea 0028     		cmp	r0, #0
 4280 01ec 43D1     		bne	.L280
 403:lvgl/src/core/lv_obj_style.c ****             else if(lv_style_get_prop(style, LV_STYLE_SHADOW_WIDTH, &v)) res = _LV_STYLE_STATE_CMP_
 4281              		.loc 1 403 18 is_stmt 1 view .LVU1306
 403:lvgl/src/core/lv_obj_style.c ****             else if(lv_style_get_prop(style, LV_STYLE_SHADOW_WIDTH, &v)) res = _LV_STYLE_STATE_CMP_
 4282              		.loc 1 403 21 is_stmt 0 view .LVU1307
 4283 01ee 03AA     		add	r2, sp, #12
 4284 01f0 40F63A01 		movw	r1, #2106
 4285 01f4 2846     		mov	r0, r5
 4286 01f6 FFF7FEFF 		bl	lv_style_get_prop
 4287              	.LVL438:
 403:lvgl/src/core/lv_obj_style.c ****             else if(lv_style_get_prop(style, LV_STYLE_SHADOW_WIDTH, &v)) res = _LV_STYLE_STATE_CMP_
 4288              		.loc 1 403 20 view .LVU1308
 4289 01fa 0028     		cmp	r0, #0
 4290 01fc 3ED1     		bne	.L281
 404:lvgl/src/core/lv_obj_style.c ****             else if(lv_style_get_prop(style, LV_STYLE_SHADOW_OPA, &v)) res = _LV_STYLE_STATE_CMP_DI
 4291              		.loc 1 404 18 is_stmt 1 view .LVU1309
 404:lvgl/src/core/lv_obj_style.c ****             else if(lv_style_get_prop(style, LV_STYLE_SHADOW_OPA, &v)) res = _LV_STYLE_STATE_CMP_DI
 4292              		.loc 1 404 21 is_stmt 0 view .LVU1310
 4293 01fe 03AA     		add	r2, sp, #12
 4294 0200 4FF40461 		mov	r1, #2112
 4295 0204 2846     		mov	r0, r5
 4296 0206 FFF7FEFF 		bl	lv_style_get_prop
 4297              	.LVL439:
 404:lvgl/src/core/lv_obj_style.c ****             else if(lv_style_get_prop(style, LV_STYLE_SHADOW_OPA, &v)) res = _LV_STYLE_STATE_CMP_DI
 4298              		.loc 1 404 20 view .LVU1311
 4299 020a 0028     		cmp	r0, #0
 4300 020c 39D1     		bne	.L282
 405:lvgl/src/core/lv_obj_style.c ****             else if(lv_style_get_prop(style, LV_STYLE_SHADOW_OFS_X, &v)) res = _LV_STYLE_STATE_CMP_
 4301              		.loc 1 405 18 is_stmt 1 view .LVU1312
 405:lvgl/src/core/lv_obj_style.c ****             else if(lv_style_get_prop(style, LV_STYLE_SHADOW_OFS_X, &v)) res = _LV_STYLE_STATE_CMP_
 4302              		.loc 1 405 21 is_stmt 0 view .LVU1313
 4303 020e 03AA     		add	r2, sp, #12
ARM GAS  C:\Users\BLACK_~1\AppData\Local\Temp\ccbv02In.s 			page 127


 4304 0210 40F64501 		movw	r1, #2117
 4305 0214 2846     		mov	r0, r5
 4306 0216 FFF7FEFF 		bl	lv_style_get_prop
 4307              	.LVL440:
 405:lvgl/src/core/lv_obj_style.c ****             else if(lv_style_get_prop(style, LV_STYLE_SHADOW_OFS_X, &v)) res = _LV_STYLE_STATE_CMP_
 4308              		.loc 1 405 20 view .LVU1314
 4309 021a 0028     		cmp	r0, #0
 4310 021c 34D1     		bne	.L283
 406:lvgl/src/core/lv_obj_style.c ****             else if(lv_style_get_prop(style, LV_STYLE_SHADOW_OFS_Y, &v)) res = _LV_STYLE_STATE_CMP_
 4311              		.loc 1 406 18 is_stmt 1 view .LVU1315
 406:lvgl/src/core/lv_obj_style.c ****             else if(lv_style_get_prop(style, LV_STYLE_SHADOW_OFS_Y, &v)) res = _LV_STYLE_STATE_CMP_
 4312              		.loc 1 406 21 is_stmt 0 view .LVU1316
 4313 021e 03AA     		add	r2, sp, #12
 4314 0220 40F64101 		movw	r1, #2113
 4315 0224 2846     		mov	r0, r5
 4316 0226 FFF7FEFF 		bl	lv_style_get_prop
 4317              	.LVL441:
 406:lvgl/src/core/lv_obj_style.c ****             else if(lv_style_get_prop(style, LV_STYLE_SHADOW_OFS_Y, &v)) res = _LV_STYLE_STATE_CMP_
 4318              		.loc 1 406 20 view .LVU1317
 4319 022a 80BB     		cbnz	r0, .L284
 407:lvgl/src/core/lv_obj_style.c ****             else if(lv_style_get_prop(style, LV_STYLE_SHADOW_SPREAD, &v)) res = _LV_STYLE_STATE_CMP
 4320              		.loc 1 407 18 is_stmt 1 view .LVU1318
 407:lvgl/src/core/lv_obj_style.c ****             else if(lv_style_get_prop(style, LV_STYLE_SHADOW_SPREAD, &v)) res = _LV_STYLE_STATE_CMP
 4321              		.loc 1 407 21 is_stmt 0 view .LVU1319
 4322 022c 03AA     		add	r2, sp, #12
 4323 022e 40F64201 		movw	r1, #2114
 4324 0232 2846     		mov	r0, r5
 4325 0234 FFF7FEFF 		bl	lv_style_get_prop
 4326              	.LVL442:
 407:lvgl/src/core/lv_obj_style.c ****             else if(lv_style_get_prop(style, LV_STYLE_SHADOW_SPREAD, &v)) res = _LV_STYLE_STATE_CMP
 4327              		.loc 1 407 20 view .LVU1320
 4328 0238 60BB     		cbnz	r0, .L285
 408:lvgl/src/core/lv_obj_style.c ****             else if(lv_style_get_prop(style, LV_STYLE_LINE_WIDTH, &v)) res = _LV_STYLE_STATE_CMP_DI
 4329              		.loc 1 408 18 is_stmt 1 view .LVU1321
 408:lvgl/src/core/lv_obj_style.c ****             else if(lv_style_get_prop(style, LV_STYLE_LINE_WIDTH, &v)) res = _LV_STYLE_STATE_CMP_DI
 4330              		.loc 1 408 21 is_stmt 0 view .LVU1322
 4331 023a 03AA     		add	r2, sp, #12
 4332 023c 40F64301 		movw	r1, #2115
 4333 0240 2846     		mov	r0, r5
 4334 0242 FFF7FEFF 		bl	lv_style_get_prop
 4335              	.LVL443:
 408:lvgl/src/core/lv_obj_style.c ****             else if(lv_style_get_prop(style, LV_STYLE_LINE_WIDTH, &v)) res = _LV_STYLE_STATE_CMP_DI
 4336              		.loc 1 408 20 view .LVU1323
 4337 0246 40BB     		cbnz	r0, .L286
 409:lvgl/src/core/lv_obj_style.c ****             else if(res == _LV_STYLE_STATE_CMP_SAME) res = _LV_STYLE_STATE_CMP_DIFF_REDRAW;
 4338              		.loc 1 409 18 is_stmt 1 view .LVU1324
 409:lvgl/src/core/lv_obj_style.c ****             else if(res == _LV_STYLE_STATE_CMP_SAME) res = _LV_STYLE_STATE_CMP_DIFF_REDRAW;
 4339              		.loc 1 409 21 is_stmt 0 view .LVU1325
 4340 0248 03AA     		add	r2, sp, #12
 4341 024a 40F64901 		movw	r1, #2121
 4342 024e 2846     		mov	r0, r5
 4343 0250 FFF7FEFF 		bl	lv_style_get_prop
 4344              	.LVL444:
 409:lvgl/src/core/lv_obj_style.c ****             else if(res == _LV_STYLE_STATE_CMP_SAME) res = _LV_STYLE_STATE_CMP_DIFF_REDRAW;
 4345              		.loc 1 409 20 view .LVU1326
 4346 0254 20BB     		cbnz	r0, .L287
 410:lvgl/src/core/lv_obj_style.c ****         }
ARM GAS  C:\Users\BLACK_~1\AppData\Local\Temp\ccbv02In.s 			page 128


 4347              		.loc 1 410 18 is_stmt 1 view .LVU1327
 410:lvgl/src/core/lv_obj_style.c ****         }
 4348              		.loc 1 410 20 is_stmt 0 view .LVU1328
 4349 0256 019B     		ldr	r3, [sp, #4]
 4350 0258 002B     		cmp	r3, #0
 4351 025a 7FF462AF 		bne	.L268
 410:lvgl/src/core/lv_obj_style.c ****         }
 4352              		.loc 1 410 58 view .LVU1329
 4353 025e 0123     		movs	r3, #1
 4354 0260 0193     		str	r3, [sp, #4]
 4355              	.LVL445:
 410:lvgl/src/core/lv_obj_style.c ****         }
 4356              		.loc 1 410 58 view .LVU1330
 4357 0262 5EE7     		b	.L268
 4358              	.LVL446:
 4359              	.L276:
 398:lvgl/src/core/lv_obj_style.c ****             else if(lv_style_get_prop(style, LV_STYLE_TRANSFORM_ANGLE, &v)) res = _LV_STYLE_STATE_C
 4360              		.loc 1 398 82 view .LVU1331
 4361 0264 0223     		movs	r3, #2
 4362 0266 0193     		str	r3, [sp, #4]
 4363              	.LVL447:
 398:lvgl/src/core/lv_obj_style.c ****             else if(lv_style_get_prop(style, LV_STYLE_TRANSFORM_ANGLE, &v)) res = _LV_STYLE_STATE_C
 4364              		.loc 1 398 82 view .LVU1332
 4365 0268 5BE7     		b	.L268
 4366              	.LVL448:
 4367              	.L278:
 400:lvgl/src/core/lv_obj_style.c ****             else if(lv_style_get_prop(style, LV_STYLE_OUTLINE_OPA, &v)) res = _LV_STYLE_STATE_CMP_D
 4368              		.loc 1 400 80 view .LVU1333
 4369 026a 0223     		movs	r3, #2
 4370 026c 0193     		str	r3, [sp, #4]
 4371              	.LVL449:
 400:lvgl/src/core/lv_obj_style.c ****             else if(lv_style_get_prop(style, LV_STYLE_OUTLINE_OPA, &v)) res = _LV_STYLE_STATE_CMP_D
 4372              		.loc 1 400 80 view .LVU1334
 4373 026e 58E7     		b	.L268
 4374              	.LVL450:
 4375              	.L279:
 401:lvgl/src/core/lv_obj_style.c ****             else if(lv_style_get_prop(style, LV_STYLE_OUTLINE_PAD, &v)) res = _LV_STYLE_STATE_CMP_D
 4376              		.loc 1 401 77 view .LVU1335
 4377 0270 0223     		movs	r3, #2
 4378 0272 0193     		str	r3, [sp, #4]
 4379              	.LVL451:
 401:lvgl/src/core/lv_obj_style.c ****             else if(lv_style_get_prop(style, LV_STYLE_OUTLINE_PAD, &v)) res = _LV_STYLE_STATE_CMP_D
 4380              		.loc 1 401 77 view .LVU1336
 4381 0274 55E7     		b	.L268
 4382              	.LVL452:
 4383              	.L280:
 402:lvgl/src/core/lv_obj_style.c ****             else if(lv_style_get_prop(style, LV_STYLE_OUTLINE_WIDTH, &v)) res = _LV_STYLE_STATE_CMP
 4384              		.loc 1 402 77 view .LVU1337
 4385 0276 0223     		movs	r3, #2
 4386 0278 0193     		str	r3, [sp, #4]
 4387              	.LVL453:
 402:lvgl/src/core/lv_obj_style.c ****             else if(lv_style_get_prop(style, LV_STYLE_OUTLINE_WIDTH, &v)) res = _LV_STYLE_STATE_CMP
 4388              		.loc 1 402 77 view .LVU1338
 4389 027a 52E7     		b	.L268
 4390              	.LVL454:
 4391              	.L281:
 403:lvgl/src/core/lv_obj_style.c ****             else if(lv_style_get_prop(style, LV_STYLE_SHADOW_WIDTH, &v)) res = _LV_STYLE_STATE_CMP_
ARM GAS  C:\Users\BLACK_~1\AppData\Local\Temp\ccbv02In.s 			page 129


 4392              		.loc 1 403 79 view .LVU1339
 4393 027c 0223     		movs	r3, #2
 4394 027e 0193     		str	r3, [sp, #4]
 4395              	.LVL455:
 403:lvgl/src/core/lv_obj_style.c ****             else if(lv_style_get_prop(style, LV_STYLE_SHADOW_WIDTH, &v)) res = _LV_STYLE_STATE_CMP_
 4396              		.loc 1 403 79 view .LVU1340
 4397 0280 4FE7     		b	.L268
 4398              	.LVL456:
 4399              	.L282:
 404:lvgl/src/core/lv_obj_style.c ****             else if(lv_style_get_prop(style, LV_STYLE_SHADOW_OPA, &v)) res = _LV_STYLE_STATE_CMP_DI
 4400              		.loc 1 404 78 view .LVU1341
 4401 0282 0223     		movs	r3, #2
 4402 0284 0193     		str	r3, [sp, #4]
 4403              	.LVL457:
 404:lvgl/src/core/lv_obj_style.c ****             else if(lv_style_get_prop(style, LV_STYLE_SHADOW_OPA, &v)) res = _LV_STYLE_STATE_CMP_DI
 4404              		.loc 1 404 78 view .LVU1342
 4405 0286 4CE7     		b	.L268
 4406              	.LVL458:
 4407              	.L283:
 405:lvgl/src/core/lv_obj_style.c ****             else if(lv_style_get_prop(style, LV_STYLE_SHADOW_OFS_X, &v)) res = _LV_STYLE_STATE_CMP_
 4408              		.loc 1 405 76 view .LVU1343
 4409 0288 0223     		movs	r3, #2
 4410 028a 0193     		str	r3, [sp, #4]
 4411              	.LVL459:
 405:lvgl/src/core/lv_obj_style.c ****             else if(lv_style_get_prop(style, LV_STYLE_SHADOW_OFS_X, &v)) res = _LV_STYLE_STATE_CMP_
 4412              		.loc 1 405 76 view .LVU1344
 4413 028c 49E7     		b	.L268
 4414              	.LVL460:
 4415              	.L284:
 406:lvgl/src/core/lv_obj_style.c ****             else if(lv_style_get_prop(style, LV_STYLE_SHADOW_OFS_Y, &v)) res = _LV_STYLE_STATE_CMP_
 4416              		.loc 1 406 78 view .LVU1345
 4417 028e 0223     		movs	r3, #2
 4418 0290 0193     		str	r3, [sp, #4]
 4419              	.LVL461:
 406:lvgl/src/core/lv_obj_style.c ****             else if(lv_style_get_prop(style, LV_STYLE_SHADOW_OFS_Y, &v)) res = _LV_STYLE_STATE_CMP_
 4420              		.loc 1 406 78 view .LVU1346
 4421 0292 46E7     		b	.L268
 4422              	.LVL462:
 4423              	.L285:
 407:lvgl/src/core/lv_obj_style.c ****             else if(lv_style_get_prop(style, LV_STYLE_SHADOW_SPREAD, &v)) res = _LV_STYLE_STATE_CMP
 4424              		.loc 1 407 78 view .LVU1347
 4425 0294 0223     		movs	r3, #2
 4426 0296 0193     		str	r3, [sp, #4]
 4427              	.LVL463:
 407:lvgl/src/core/lv_obj_style.c ****             else if(lv_style_get_prop(style, LV_STYLE_SHADOW_SPREAD, &v)) res = _LV_STYLE_STATE_CMP
 4428              		.loc 1 407 78 view .LVU1348
 4429 0298 43E7     		b	.L268
 4430              	.LVL464:
 4431              	.L286:
 408:lvgl/src/core/lv_obj_style.c ****             else if(lv_style_get_prop(style, LV_STYLE_LINE_WIDTH, &v)) res = _LV_STYLE_STATE_CMP_DI
 4432              		.loc 1 408 79 view .LVU1349
 4433 029a 0223     		movs	r3, #2
 4434 029c 0193     		str	r3, [sp, #4]
 4435              	.LVL465:
 408:lvgl/src/core/lv_obj_style.c ****             else if(lv_style_get_prop(style, LV_STYLE_LINE_WIDTH, &v)) res = _LV_STYLE_STATE_CMP_DI
 4436              		.loc 1 408 79 view .LVU1350
 4437 029e 40E7     		b	.L268
ARM GAS  C:\Users\BLACK_~1\AppData\Local\Temp\ccbv02In.s 			page 130


 4438              	.LVL466:
 4439              	.L287:
 409:lvgl/src/core/lv_obj_style.c ****             else if(res == _LV_STYLE_STATE_CMP_SAME) res = _LV_STYLE_STATE_CMP_DIFF_REDRAW;
 4440              		.loc 1 409 76 view .LVU1351
 4441 02a0 0223     		movs	r3, #2
 4442 02a2 0193     		str	r3, [sp, #4]
 4443              	.LVL467:
 409:lvgl/src/core/lv_obj_style.c ****             else if(res == _LV_STYLE_STATE_CMP_SAME) res = _LV_STYLE_STATE_CMP_DIFF_REDRAW;
 4444              		.loc 1 409 76 view .LVU1352
 4445 02a4 3DE7     		b	.L268
 4446              	.LBE122:
 4447              	.LBE124:
 4448              		.cfi_endproc
 4449              	.LFE164:
 4451              		.section	.data.style_refr,"aw"
 4452              		.set	.LANCHOR0,. + 0
 4455              	style_refr:
 4456 0000 01       		.byte	1
 4457              		.text
 4458              	.Letext0:
 4459              		.file 5 "e:\\gnu arm embedded toolchain\\10 2021.10\\arm-none-eabi\\include\\machine\\_default_typ
 4460              		.file 6 "e:\\gnu arm embedded toolchain\\10 2021.10\\arm-none-eabi\\include\\sys\\_stdint.h"
 4461              		.file 7 "lvgl/src/core/../misc/../font/../misc/lv_area.h"
 4462              		.file 8 "lvgl/src/core/../misc/../font/lv_font.h"
 4463              		.file 9 "lvgl/src/core/../misc/lv_types.h"
 4464              		.file 10 "lvgl/src/core/../misc/lv_style.h"
 4465              		.file 11 "lvgl/src/core/../hal/../misc/lv_ll.h"
 4466              		.file 12 "lvgl/src/core/../hal/../misc/lv_timer.h"
 4467              		.file 13 "lvgl/src/core/../hal/lv_hal_disp.h"
 4468              		.file 14 "lvgl/src/core/lv_theme.h"
 4469              		.file 15 "lvgl/src/core/lv_obj.h"
 4470              		.file 16 "lvgl/src/core/lv_group.h"
 4471              		.file 17 "lvgl/src/core/lv_obj_scroll.h"
 4472              		.file 18 "lvgl/src/core/lv_obj_style.h"
 4473              		.file 19 "lvgl/src/core/lv_obj_class.h"
 4474              		.file 20 "lvgl/src/core/lv_event.h"
 4475              		.file 21 "lvgl/src/core/../misc/lv_gc.h"
 4476              		.file 22 "lvgl/src/core/../hal/../misc/lv_mem.h"
 4477              		.file 23 "lvgl/src/core/lv_obj_tree.h"
 4478              		.file 24 "lvgl/src/core/lv_obj_pos.h"
 4479              		.file 25 "lvgl/src/core/lv_obj_draw.h"
ARM GAS  C:\Users\BLACK_~1\AppData\Local\Temp\ccbv02In.s 			page 131


DEFINED SYMBOLS
                            *ABS*:00000000 lv_obj_style.c
C:\Users\BLACK_~1\AppData\Local\Temp\ccbv02In.s:20     .text.trans_del:00000000 $t
C:\Users\BLACK_~1\AppData\Local\Temp\ccbv02In.s:25     .text.trans_del:00000000 trans_del
C:\Users\BLACK_~1\AppData\Local\Temp\ccbv02In.s:197    .text.trans_del:000000b0 $d
C:\Users\BLACK_~1\AppData\Local\Temp\ccbv02In.s:202    .text.refresh_children_style:00000000 $t
C:\Users\BLACK_~1\AppData\Local\Temp\ccbv02In.s:207    .text.refresh_children_style:00000000 refresh_children_style
C:\Users\BLACK_~1\AppData\Local\Temp\ccbv02In.s:279    .text.get_local_style:00000000 $t
C:\Users\BLACK_~1\AppData\Local\Temp\ccbv02In.s:284    .text.get_local_style:00000000 get_local_style
C:\Users\BLACK_~1\AppData\Local\Temp\ccbv02In.s:476    .text.get_trans_style:00000000 $t
C:\Users\BLACK_~1\AppData\Local\Temp\ccbv02In.s:481    .text.get_trans_style:00000000 get_trans_style
C:\Users\BLACK_~1\AppData\Local\Temp\ccbv02In.s:646    .text.fade_anim_cb:00000000 $t
C:\Users\BLACK_~1\AppData\Local\Temp\ccbv02In.s:651    .text.fade_anim_cb:00000000 fade_anim_cb
C:\Users\BLACK_~1\AppData\Local\Temp\ccbv02In.s:677    .text._lv_obj_style_init:00000000 $t
C:\Users\BLACK_~1\AppData\Local\Temp\ccbv02In.s:683    .text._lv_obj_style_init:00000000 _lv_obj_style_init
C:\Users\BLACK_~1\AppData\Local\Temp\ccbv02In.s:704    .text._lv_obj_style_init:0000000c $d
C:\Users\BLACK_~1\AppData\Local\Temp\ccbv02In.s:709    .text.lv_obj_enable_style_refresh:00000000 $t
C:\Users\BLACK_~1\AppData\Local\Temp\ccbv02In.s:715    .text.lv_obj_enable_style_refresh:00000000 lv_obj_enable_style_refresh
C:\Users\BLACK_~1\AppData\Local\Temp\ccbv02In.s:732    .text.lv_obj_enable_style_refresh:00000008 $d
C:\Users\BLACK_~1\AppData\Local\Temp\ccbv02In.s:737    .text.lv_obj_get_local_style_prop:00000000 $t
C:\Users\BLACK_~1\AppData\Local\Temp\ccbv02In.s:743    .text.lv_obj_get_local_style_prop:00000000 lv_obj_get_local_style_prop
C:\Users\BLACK_~1\AppData\Local\Temp\ccbv02In.s:813    .text.lv_obj_remove_local_style_prop:00000000 $t
C:\Users\BLACK_~1\AppData\Local\Temp\ccbv02In.s:819    .text.lv_obj_remove_local_style_prop:00000000 lv_obj_remove_local_style_prop
C:\Users\BLACK_~1\AppData\Local\Temp\ccbv02In.s:900    .text.fade_in_anim_ready:00000000 $t
C:\Users\BLACK_~1\AppData\Local\Temp\ccbv02In.s:905    .text.fade_in_anim_ready:00000000 fade_in_anim_ready
C:\Users\BLACK_~1\AppData\Local\Temp\ccbv02In.s:932    .text.lv_obj_fade_in:00000000 $t
C:\Users\BLACK_~1\AppData\Local\Temp\ccbv02In.s:938    .text.lv_obj_fade_in:00000000 lv_obj_fade_in
C:\Users\BLACK_~1\AppData\Local\Temp\ccbv02In.s:1067   .text.lv_obj_fade_in:00000034 $d
C:\Users\BLACK_~1\AppData\Local\Temp\ccbv02In.s:1073   .text.lv_obj_fade_out:00000000 $t
C:\Users\BLACK_~1\AppData\Local\Temp\ccbv02In.s:1079   .text.lv_obj_fade_out:00000000 lv_obj_fade_out
C:\Users\BLACK_~1\AppData\Local\Temp\ccbv02In.s:1194   .text.lv_obj_fade_out:00000030 $d
C:\Users\BLACK_~1\AppData\Local\Temp\ccbv02In.s:1199   .text.lv_obj_style_get_selector_state:00000000 $t
C:\Users\BLACK_~1\AppData\Local\Temp\ccbv02In.s:1205   .text.lv_obj_style_get_selector_state:00000000 lv_obj_style_get_selector_state
C:\Users\BLACK_~1\AppData\Local\Temp\ccbv02In.s:1223   .text.lv_obj_style_get_selector_part:00000000 $t
C:\Users\BLACK_~1\AppData\Local\Temp\ccbv02In.s:1229   .text.lv_obj_style_get_selector_part:00000000 lv_obj_style_get_selector_part
C:\Users\BLACK_~1\AppData\Local\Temp\ccbv02In.s:1247   .text.lv_obj_refresh_style:00000000 $t
C:\Users\BLACK_~1\AppData\Local\Temp\ccbv02In.s:1253   .text.lv_obj_refresh_style:00000000 lv_obj_refresh_style
C:\Users\BLACK_~1\AppData\Local\Temp\ccbv02In.s:1397   .text.lv_obj_refresh_style:000000a4 $d
C:\Users\BLACK_~1\AppData\Local\Temp\ccbv02In.s:1402   .text.lv_obj_add_style:00000000 $t
C:\Users\BLACK_~1\AppData\Local\Temp\ccbv02In.s:1408   .text.lv_obj_add_style:00000000 lv_obj_add_style
C:\Users\BLACK_~1\AppData\Local\Temp\ccbv02In.s:1559   .text.report_style_change_core:00000000 $t
C:\Users\BLACK_~1\AppData\Local\Temp\ccbv02In.s:1564   .text.report_style_change_core:00000000 report_style_change_core
C:\Users\BLACK_~1\AppData\Local\Temp\ccbv02In.s:1663   .text.lv_obj_report_style_change:00000000 $t
C:\Users\BLACK_~1\AppData\Local\Temp\ccbv02In.s:1669   .text.lv_obj_report_style_change:00000000 lv_obj_report_style_change
C:\Users\BLACK_~1\AppData\Local\Temp\ccbv02In.s:1752   .text.lv_obj_report_style_change:0000003c $d
C:\Users\BLACK_~1\AppData\Local\Temp\ccbv02In.s:1757   .text.lv_obj_set_local_style_prop:00000000 $t
C:\Users\BLACK_~1\AppData\Local\Temp\ccbv02In.s:1763   .text.lv_obj_set_local_style_prop:00000000 lv_obj_set_local_style_prop
C:\Users\BLACK_~1\AppData\Local\Temp\ccbv02In.s:1812   .text.trans_anim_cb:00000000 $t
C:\Users\BLACK_~1\AppData\Local\Temp\ccbv02In.s:1817   .text.trans_anim_cb:00000000 trans_anim_cb
C:\Users\BLACK_~1\AppData\Local\Temp\ccbv02In.s:1905   .text.trans_anim_cb:00000054 $d
C:\Users\BLACK_~1\AppData\Local\Temp\ccbv02In.s:2294   .text.lv_obj_remove_style:00000000 $t
C:\Users\BLACK_~1\AppData\Local\Temp\ccbv02In.s:2300   .text.lv_obj_remove_style:00000000 lv_obj_remove_style
C:\Users\BLACK_~1\AppData\Local\Temp\ccbv02In.s:2585   .text.trans_anim_ready_cb:00000000 $t
C:\Users\BLACK_~1\AppData\Local\Temp\ccbv02In.s:2590   .text.trans_anim_ready_cb:00000000 trans_anim_ready_cb
C:\Users\BLACK_~1\AppData\Local\Temp\ccbv02In.s:2765   .text.trans_anim_ready_cb:000000a8 $d
C:\Users\BLACK_~1\AppData\Local\Temp\ccbv02In.s:2772   .text.get_prop_core:00000000 $t
C:\Users\BLACK_~1\AppData\Local\Temp\ccbv02In.s:2777   .text.get_prop_core:00000000 get_prop_core
ARM GAS  C:\Users\BLACK_~1\AppData\Local\Temp\ccbv02In.s 			page 132


C:\Users\BLACK_~1\AppData\Local\Temp\ccbv02In.s:3072   .text.lv_obj_get_style_prop:00000000 $t
C:\Users\BLACK_~1\AppData\Local\Temp\ccbv02In.s:3078   .text.lv_obj_get_style_prop:00000000 lv_obj_get_style_prop
C:\Users\BLACK_~1\AppData\Local\Temp\ccbv02In.s:3285   .text.apply_color_filter:00000000 apply_color_filter
C:\Users\BLACK_~1\AppData\Local\Temp\ccbv02In.s:3280   .text.apply_color_filter:00000000 $t
C:\Users\BLACK_~1\AppData\Local\Temp\ccbv02In.s:3391   .text._lv_obj_style_create_transition:00000000 $t
C:\Users\BLACK_~1\AppData\Local\Temp\ccbv02In.s:3397   .text._lv_obj_style_create_transition:00000000 _lv_obj_style_create_transition
C:\Users\BLACK_~1\AppData\Local\Temp\ccbv02In.s:3801   .text._lv_obj_style_create_transition:00000138 $d
C:\Users\BLACK_~1\AppData\Local\Temp\ccbv02In.s:3814   .text.trans_anim_start_cb:00000000 trans_anim_start_cb
C:\Users\BLACK_~1\AppData\Local\Temp\ccbv02In.s:3809   .text.trans_anim_start_cb:00000000 $t
C:\Users\BLACK_~1\AppData\Local\Temp\ccbv02In.s:3892   .text._lv_obj_style_state_compare:00000000 $t
C:\Users\BLACK_~1\AppData\Local\Temp\ccbv02In.s:3898   .text._lv_obj_style_state_compare:00000000 _lv_obj_style_state_compare
C:\Users\BLACK_~1\AppData\Local\Temp\ccbv02In.s:4455   .data.style_refr:00000000 style_refr
C:\Users\BLACK_~1\AppData\Local\Temp\ccbv02In.s:1979   .text.trans_anim_cb:0000009d $d
C:\Users\BLACK_~1\AppData\Local\Temp\ccbv02In.s:1979   .text.trans_anim_cb:0000009e $t

UNDEFINED SYMBOLS
_lv_ll_get_tail
_lv_ll_get_prev
lv_style_remove_prop
lv_anim_del
_lv_ll_remove
lv_mem_free
_lv_obj_style_trans_ll
lv_obj_get_child
lv_obj_invalidate
lv_event_send
lv_obj_get_child_cnt
lv_mem_realloc
lv_memset_00
lv_mem_alloc
lv_style_init
lv_obj_set_style_opa
_lv_ll_init
lv_style_get_prop
lv_anim_init
lv_anim_start
lv_obj_mark_layout_as_dirty
lv_obj_get_parent
lv_obj_refresh_ext_draw_size
lv_disp_get_next
lv_style_set_prop
lv_style_reset
_lv_ll_get_head
_lv_ll_get_next
lv_style_is_empty
_lv_style_get_prop_group
lv_style_prop_get_default
_lv_ll_ins_head
lv_obj_get_width
