ARM GAS  C:\Users\BLACK_~1\AppData\Local\Temp\ccmy2bqO.s 			page 1


   1              		.cpu cortex-m4
   2              		.arch armv7e-m
   3              		.fpu fpv4-sp-d16
   4              		.eabi_attribute 27, 1
   5              		.eabi_attribute 28, 1
   6              		.eabi_attribute 20, 1
   7              		.eabi_attribute 21, 1
   8              		.eabi_attribute 23, 3
   9              		.eabi_attribute 24, 1
  10              		.eabi_attribute 25, 1
  11              		.eabi_attribute 26, 1
  12              		.eabi_attribute 30, 1
  13              		.eabi_attribute 34, 1
  14              		.eabi_attribute 18, 4
  15              		.file	"lv_span.c"
  16              		.text
  17              	.Ltext0:
  18              		.cfi_sections	.debug_frame
  19              		.section	.text.lv_get_snippet_cnt,"ax",%progbits
  20              		.align	1
  21              		.syntax unified
  22              		.thumb
  23              		.thumb_func
  25              	lv_get_snippet_cnt:
  26              	.LFB207:
  27              		.file 1 "lvgl/src/extra/widgets/span/lv_span.c"
   1:lvgl/src/extra/widgets/span/lv_span.c **** /**
   2:lvgl/src/extra/widgets/span/lv_span.c ****  * @file lv_span.c
   3:lvgl/src/extra/widgets/span/lv_span.c ****  *
   4:lvgl/src/extra/widgets/span/lv_span.c ****  */
   5:lvgl/src/extra/widgets/span/lv_span.c **** 
   6:lvgl/src/extra/widgets/span/lv_span.c **** /*********************
   7:lvgl/src/extra/widgets/span/lv_span.c ****  *      INCLUDES
   8:lvgl/src/extra/widgets/span/lv_span.c ****  *********************/
   9:lvgl/src/extra/widgets/span/lv_span.c **** #include "lv_span.h"
  10:lvgl/src/extra/widgets/span/lv_span.c **** 
  11:lvgl/src/extra/widgets/span/lv_span.c **** #if LV_USE_SPAN != 0
  12:lvgl/src/extra/widgets/span/lv_span.c **** 
  13:lvgl/src/extra/widgets/span/lv_span.c **** /*********************
  14:lvgl/src/extra/widgets/span/lv_span.c ****  *      DEFINES
  15:lvgl/src/extra/widgets/span/lv_span.c ****  *********************/
  16:lvgl/src/extra/widgets/span/lv_span.c **** #define MY_CLASS &lv_spangroup_class
  17:lvgl/src/extra/widgets/span/lv_span.c **** 
  18:lvgl/src/extra/widgets/span/lv_span.c **** /**********************
  19:lvgl/src/extra/widgets/span/lv_span.c ****  *      TYPEDEFS
  20:lvgl/src/extra/widgets/span/lv_span.c ****  **********************/
  21:lvgl/src/extra/widgets/span/lv_span.c **** typedef struct {
  22:lvgl/src/extra/widgets/span/lv_span.c ****     lv_span_t * span;
  23:lvgl/src/extra/widgets/span/lv_span.c ****     const char * txt;
  24:lvgl/src/extra/widgets/span/lv_span.c ****     const lv_font_t * font;
  25:lvgl/src/extra/widgets/span/lv_span.c ****     uint16_t   bytes;
  26:lvgl/src/extra/widgets/span/lv_span.c ****     lv_coord_t txt_w;
  27:lvgl/src/extra/widgets/span/lv_span.c ****     lv_coord_t line_h;
  28:lvgl/src/extra/widgets/span/lv_span.c ****     lv_coord_t letter_space;
  29:lvgl/src/extra/widgets/span/lv_span.c **** } lv_snippet_t;
  30:lvgl/src/extra/widgets/span/lv_span.c **** 
  31:lvgl/src/extra/widgets/span/lv_span.c **** struct _snippet_stack {
ARM GAS  C:\Users\BLACK_~1\AppData\Local\Temp\ccmy2bqO.s 			page 2


  32:lvgl/src/extra/widgets/span/lv_span.c ****     lv_snippet_t    stack[LV_SPAN_SNIPPET_STACK_SIZE];
  33:lvgl/src/extra/widgets/span/lv_span.c ****     uint16_t        index;
  34:lvgl/src/extra/widgets/span/lv_span.c **** };
  35:lvgl/src/extra/widgets/span/lv_span.c **** 
  36:lvgl/src/extra/widgets/span/lv_span.c **** /**********************
  37:lvgl/src/extra/widgets/span/lv_span.c ****  *  STATIC PROTOTYPES
  38:lvgl/src/extra/widgets/span/lv_span.c ****  **********************/
  39:lvgl/src/extra/widgets/span/lv_span.c **** static void lv_spangroup_destructor(const lv_obj_class_t * class_p, lv_obj_t * obj);
  40:lvgl/src/extra/widgets/span/lv_span.c **** static void lv_spangroup_constructor(const lv_obj_class_t * class_p, lv_obj_t * obj);
  41:lvgl/src/extra/widgets/span/lv_span.c **** static void lv_spangroup_event(const lv_obj_class_t * class_p, lv_event_t * e);
  42:lvgl/src/extra/widgets/span/lv_span.c **** static void draw_main(lv_event_t * e);
  43:lvgl/src/extra/widgets/span/lv_span.c **** static void refresh_self_size(lv_obj_t * obj);
  44:lvgl/src/extra/widgets/span/lv_span.c **** 
  45:lvgl/src/extra/widgets/span/lv_span.c **** static const lv_font_t * lv_span_get_style_text_font(lv_obj_t * par, lv_span_t * span);
  46:lvgl/src/extra/widgets/span/lv_span.c **** static lv_coord_t lv_span_get_style_text_letter_space(lv_obj_t * par, lv_span_t * span);
  47:lvgl/src/extra/widgets/span/lv_span.c **** static lv_color_t lv_span_get_style_text_color(lv_obj_t * par, lv_span_t * span);
  48:lvgl/src/extra/widgets/span/lv_span.c **** static lv_color_t lv_span_get_style_text_color(lv_obj_t * par, lv_span_t * span);
  49:lvgl/src/extra/widgets/span/lv_span.c **** static lv_opa_t lv_span_get_style_text_opa(lv_obj_t * par, lv_span_t * span);
  50:lvgl/src/extra/widgets/span/lv_span.c **** static lv_opa_t lv_span_get_style_text_blend_mode(lv_obj_t * par, lv_span_t * span);
  51:lvgl/src/extra/widgets/span/lv_span.c **** static int32_t lv_span_get_style_text_decor(lv_obj_t * par, lv_span_t * span);
  52:lvgl/src/extra/widgets/span/lv_span.c **** 
  53:lvgl/src/extra/widgets/span/lv_span.c **** static inline void span_text_check(const char ** text);
  54:lvgl/src/extra/widgets/span/lv_span.c **** static void lv_draw_span(lv_obj_t * spans, const lv_area_t * coords, const lv_area_t * mask);
  55:lvgl/src/extra/widgets/span/lv_span.c **** static bool lv_txt_get_snippet(const char * txt, const lv_font_t * font, lv_coord_t letter_space,
  56:lvgl/src/extra/widgets/span/lv_span.c ****                                lv_coord_t max_width, lv_text_flag_t flag, lv_coord_t * use_width,
  57:lvgl/src/extra/widgets/span/lv_span.c ****                                uint32_t * end_ofs);
  58:lvgl/src/extra/widgets/span/lv_span.c **** 
  59:lvgl/src/extra/widgets/span/lv_span.c **** static void lv_snippet_clear(void);
  60:lvgl/src/extra/widgets/span/lv_span.c **** static uint16_t lv_get_snippet_cnt();
  61:lvgl/src/extra/widgets/span/lv_span.c **** static void lv_snippet_push(lv_snippet_t * item);
  62:lvgl/src/extra/widgets/span/lv_span.c **** static lv_snippet_t * lv_get_snippet(uint16_t index);
  63:lvgl/src/extra/widgets/span/lv_span.c **** 
  64:lvgl/src/extra/widgets/span/lv_span.c **** /**********************
  65:lvgl/src/extra/widgets/span/lv_span.c ****  *  STATIC VARIABLES
  66:lvgl/src/extra/widgets/span/lv_span.c ****  **********************/
  67:lvgl/src/extra/widgets/span/lv_span.c **** static struct _snippet_stack snippet_stack;
  68:lvgl/src/extra/widgets/span/lv_span.c **** 
  69:lvgl/src/extra/widgets/span/lv_span.c **** const lv_obj_class_t lv_spangroup_class  = {
  70:lvgl/src/extra/widgets/span/lv_span.c ****     .base_class = &lv_obj_class,
  71:lvgl/src/extra/widgets/span/lv_span.c ****     .constructor_cb = lv_spangroup_constructor,
  72:lvgl/src/extra/widgets/span/lv_span.c ****     .destructor_cb = lv_spangroup_destructor,
  73:lvgl/src/extra/widgets/span/lv_span.c ****     .event_cb = lv_spangroup_event,
  74:lvgl/src/extra/widgets/span/lv_span.c ****     .instance_size = sizeof(lv_spangroup_t),
  75:lvgl/src/extra/widgets/span/lv_span.c ****     .width_def = LV_SIZE_CONTENT,
  76:lvgl/src/extra/widgets/span/lv_span.c ****     .height_def = LV_SIZE_CONTENT,
  77:lvgl/src/extra/widgets/span/lv_span.c **** };
  78:lvgl/src/extra/widgets/span/lv_span.c **** 
  79:lvgl/src/extra/widgets/span/lv_span.c **** /**********************
  80:lvgl/src/extra/widgets/span/lv_span.c ****  *      MACROS
  81:lvgl/src/extra/widgets/span/lv_span.c ****  **********************/
  82:lvgl/src/extra/widgets/span/lv_span.c **** 
  83:lvgl/src/extra/widgets/span/lv_span.c **** /**********************
  84:lvgl/src/extra/widgets/span/lv_span.c ****  *   GLOBAL FUNCTIONS
  85:lvgl/src/extra/widgets/span/lv_span.c ****  **********************/
  86:lvgl/src/extra/widgets/span/lv_span.c **** 
  87:lvgl/src/extra/widgets/span/lv_span.c **** /**
  88:lvgl/src/extra/widgets/span/lv_span.c ****  * Create a spangroup objects
ARM GAS  C:\Users\BLACK_~1\AppData\Local\Temp\ccmy2bqO.s 			page 3


  89:lvgl/src/extra/widgets/span/lv_span.c ****  * @param par pointer to an object, it will be the parent of the new spangroup
  90:lvgl/src/extra/widgets/span/lv_span.c ****  * @return pointer to the created spangroup
  91:lvgl/src/extra/widgets/span/lv_span.c ****  */
  92:lvgl/src/extra/widgets/span/lv_span.c **** lv_obj_t * lv_spangroup_create(lv_obj_t * par)
  93:lvgl/src/extra/widgets/span/lv_span.c **** {
  94:lvgl/src/extra/widgets/span/lv_span.c ****     lv_obj_t * obj = lv_obj_class_create_obj(&lv_spangroup_class, par);
  95:lvgl/src/extra/widgets/span/lv_span.c ****     lv_obj_class_init_obj(obj);
  96:lvgl/src/extra/widgets/span/lv_span.c ****     return obj;
  97:lvgl/src/extra/widgets/span/lv_span.c **** }
  98:lvgl/src/extra/widgets/span/lv_span.c **** 
  99:lvgl/src/extra/widgets/span/lv_span.c **** /**
 100:lvgl/src/extra/widgets/span/lv_span.c ****  * Create a span string descriptor and add to spangroup.
 101:lvgl/src/extra/widgets/span/lv_span.c ****  * @param obj pointer to a spangroup object.
 102:lvgl/src/extra/widgets/span/lv_span.c ****  * @return pointer to the created span.
 103:lvgl/src/extra/widgets/span/lv_span.c ****  */
 104:lvgl/src/extra/widgets/span/lv_span.c **** lv_span_t * lv_spangroup_new_span(lv_obj_t * obj)
 105:lvgl/src/extra/widgets/span/lv_span.c **** {
 106:lvgl/src/extra/widgets/span/lv_span.c ****     if(obj == NULL) {
 107:lvgl/src/extra/widgets/span/lv_span.c ****         return NULL;
 108:lvgl/src/extra/widgets/span/lv_span.c ****     }
 109:lvgl/src/extra/widgets/span/lv_span.c **** 
 110:lvgl/src/extra/widgets/span/lv_span.c ****     lv_spangroup_t * spans = (lv_spangroup_t *)obj;
 111:lvgl/src/extra/widgets/span/lv_span.c ****     lv_span_t * span = _lv_ll_ins_tail(&spans->child_ll);
 112:lvgl/src/extra/widgets/span/lv_span.c ****     LV_ASSERT_MALLOC(span);
 113:lvgl/src/extra/widgets/span/lv_span.c **** 
 114:lvgl/src/extra/widgets/span/lv_span.c ****     lv_style_init(&span->style);
 115:lvgl/src/extra/widgets/span/lv_span.c ****     span->txt = (char *)"";
 116:lvgl/src/extra/widgets/span/lv_span.c ****     span->static_flag = 1;
 117:lvgl/src/extra/widgets/span/lv_span.c ****     span->spangroup = obj;
 118:lvgl/src/extra/widgets/span/lv_span.c **** 
 119:lvgl/src/extra/widgets/span/lv_span.c ****     refresh_self_size(obj);
 120:lvgl/src/extra/widgets/span/lv_span.c **** 
 121:lvgl/src/extra/widgets/span/lv_span.c ****     return span;
 122:lvgl/src/extra/widgets/span/lv_span.c **** }
 123:lvgl/src/extra/widgets/span/lv_span.c **** 
 124:lvgl/src/extra/widgets/span/lv_span.c **** /**
 125:lvgl/src/extra/widgets/span/lv_span.c ****  * Remove the span from the spangroup and free memory.
 126:lvgl/src/extra/widgets/span/lv_span.c ****  * @param obj pointer to a spangroup object.
 127:lvgl/src/extra/widgets/span/lv_span.c ****  * @param span pointer to a span.
 128:lvgl/src/extra/widgets/span/lv_span.c ****  */
 129:lvgl/src/extra/widgets/span/lv_span.c **** void lv_spangroup_del_span(lv_obj_t * obj, lv_span_t * span)
 130:lvgl/src/extra/widgets/span/lv_span.c **** {
 131:lvgl/src/extra/widgets/span/lv_span.c ****     if(obj == NULL || span == NULL) {
 132:lvgl/src/extra/widgets/span/lv_span.c ****         return;
 133:lvgl/src/extra/widgets/span/lv_span.c ****     }
 134:lvgl/src/extra/widgets/span/lv_span.c **** 
 135:lvgl/src/extra/widgets/span/lv_span.c ****     lv_spangroup_t * spans = (lv_spangroup_t *)obj;
 136:lvgl/src/extra/widgets/span/lv_span.c ****     lv_span_t * cur_span;
 137:lvgl/src/extra/widgets/span/lv_span.c ****     _LV_LL_READ(&spans->child_ll, cur_span) {
 138:lvgl/src/extra/widgets/span/lv_span.c ****         if(cur_span == span) {
 139:lvgl/src/extra/widgets/span/lv_span.c ****             _lv_ll_remove(&spans->child_ll, cur_span);
 140:lvgl/src/extra/widgets/span/lv_span.c ****             if(cur_span->txt && cur_span->static_flag == 0) {
 141:lvgl/src/extra/widgets/span/lv_span.c ****                 lv_mem_free(cur_span->txt);
 142:lvgl/src/extra/widgets/span/lv_span.c ****             }
 143:lvgl/src/extra/widgets/span/lv_span.c ****             lv_style_reset(&cur_span->style);
 144:lvgl/src/extra/widgets/span/lv_span.c ****             lv_mem_free(cur_span);
 145:lvgl/src/extra/widgets/span/lv_span.c ****             break;
ARM GAS  C:\Users\BLACK_~1\AppData\Local\Temp\ccmy2bqO.s 			page 4


 146:lvgl/src/extra/widgets/span/lv_span.c ****         }
 147:lvgl/src/extra/widgets/span/lv_span.c ****     }
 148:lvgl/src/extra/widgets/span/lv_span.c **** 
 149:lvgl/src/extra/widgets/span/lv_span.c ****     refresh_self_size(obj);
 150:lvgl/src/extra/widgets/span/lv_span.c **** }
 151:lvgl/src/extra/widgets/span/lv_span.c **** 
 152:lvgl/src/extra/widgets/span/lv_span.c **** /*=====================
 153:lvgl/src/extra/widgets/span/lv_span.c ****  * Setter functions
 154:lvgl/src/extra/widgets/span/lv_span.c ****  *====================*/
 155:lvgl/src/extra/widgets/span/lv_span.c **** 
 156:lvgl/src/extra/widgets/span/lv_span.c **** /**
 157:lvgl/src/extra/widgets/span/lv_span.c ****  * Set a new text for a span. Memory will be allocated to store the text by the span.
 158:lvgl/src/extra/widgets/span/lv_span.c ****  * @param span pointer to a span.
 159:lvgl/src/extra/widgets/span/lv_span.c ****  * @param text pointer to a text.
 160:lvgl/src/extra/widgets/span/lv_span.c ****  */
 161:lvgl/src/extra/widgets/span/lv_span.c **** void lv_span_set_text(lv_span_t * span, const char * text)
 162:lvgl/src/extra/widgets/span/lv_span.c **** {
 163:lvgl/src/extra/widgets/span/lv_span.c ****     if(span == NULL || text == NULL) {
 164:lvgl/src/extra/widgets/span/lv_span.c ****         return;
 165:lvgl/src/extra/widgets/span/lv_span.c ****     }
 166:lvgl/src/extra/widgets/span/lv_span.c **** 
 167:lvgl/src/extra/widgets/span/lv_span.c ****     if(span->txt == NULL || span->static_flag == 1) {
 168:lvgl/src/extra/widgets/span/lv_span.c ****         span->txt = lv_mem_alloc(strlen(text) + 1);
 169:lvgl/src/extra/widgets/span/lv_span.c ****     }
 170:lvgl/src/extra/widgets/span/lv_span.c ****     else {
 171:lvgl/src/extra/widgets/span/lv_span.c ****         lv_mem_realloc(span->txt, strlen(text) + 1);
 172:lvgl/src/extra/widgets/span/lv_span.c ****     }
 173:lvgl/src/extra/widgets/span/lv_span.c ****     span->static_flag = 0;
 174:lvgl/src/extra/widgets/span/lv_span.c ****     strcpy(span->txt, text);
 175:lvgl/src/extra/widgets/span/lv_span.c **** 
 176:lvgl/src/extra/widgets/span/lv_span.c ****     refresh_self_size(span->spangroup);
 177:lvgl/src/extra/widgets/span/lv_span.c **** }
 178:lvgl/src/extra/widgets/span/lv_span.c **** 
 179:lvgl/src/extra/widgets/span/lv_span.c **** /**
 180:lvgl/src/extra/widgets/span/lv_span.c ****  * Set a static text. It will not be saved by the span so the 'text' variable
 181:lvgl/src/extra/widgets/span/lv_span.c ****  * has to be 'alive' while the span exist.
 182:lvgl/src/extra/widgets/span/lv_span.c ****  * @param span pointer to a span.
 183:lvgl/src/extra/widgets/span/lv_span.c ****  * @param text pointer to a text.
 184:lvgl/src/extra/widgets/span/lv_span.c ****  */
 185:lvgl/src/extra/widgets/span/lv_span.c **** void lv_span_set_text_static(lv_span_t * span, const char * text)
 186:lvgl/src/extra/widgets/span/lv_span.c **** {
 187:lvgl/src/extra/widgets/span/lv_span.c ****     if(span == NULL || text == NULL) {
 188:lvgl/src/extra/widgets/span/lv_span.c ****         return;
 189:lvgl/src/extra/widgets/span/lv_span.c ****     }
 190:lvgl/src/extra/widgets/span/lv_span.c **** 
 191:lvgl/src/extra/widgets/span/lv_span.c ****     if(span->txt && span->static_flag == 0) {
 192:lvgl/src/extra/widgets/span/lv_span.c ****         lv_mem_free(span->txt);
 193:lvgl/src/extra/widgets/span/lv_span.c ****     }
 194:lvgl/src/extra/widgets/span/lv_span.c ****     span->static_flag = 1;
 195:lvgl/src/extra/widgets/span/lv_span.c ****     span->txt = (char *)text;
 196:lvgl/src/extra/widgets/span/lv_span.c **** 
 197:lvgl/src/extra/widgets/span/lv_span.c ****     refresh_self_size(span->spangroup);
 198:lvgl/src/extra/widgets/span/lv_span.c **** }
 199:lvgl/src/extra/widgets/span/lv_span.c **** 
 200:lvgl/src/extra/widgets/span/lv_span.c **** /**
 201:lvgl/src/extra/widgets/span/lv_span.c ****  * Set the align of the spangroup.
 202:lvgl/src/extra/widgets/span/lv_span.c ****  * @param obj pointer to a spangroup object.
ARM GAS  C:\Users\BLACK_~1\AppData\Local\Temp\ccmy2bqO.s 			page 5


 203:lvgl/src/extra/widgets/span/lv_span.c ****  * @param align see lv_text_align_t for details.
 204:lvgl/src/extra/widgets/span/lv_span.c ****  */
 205:lvgl/src/extra/widgets/span/lv_span.c **** void lv_spangroup_set_align(lv_obj_t * obj, lv_text_align_t align)
 206:lvgl/src/extra/widgets/span/lv_span.c **** {
 207:lvgl/src/extra/widgets/span/lv_span.c ****     lv_obj_set_style_text_align(obj, align, LV_PART_MAIN);
 208:lvgl/src/extra/widgets/span/lv_span.c **** }
 209:lvgl/src/extra/widgets/span/lv_span.c **** 
 210:lvgl/src/extra/widgets/span/lv_span.c **** /**
 211:lvgl/src/extra/widgets/span/lv_span.c ****  * Set the overflow of the spangroup.
 212:lvgl/src/extra/widgets/span/lv_span.c ****  * @param obj pointer to a spangroup object.
 213:lvgl/src/extra/widgets/span/lv_span.c ****  * @param overflow see lv_span_overflow_t for details.
 214:lvgl/src/extra/widgets/span/lv_span.c ****  */
 215:lvgl/src/extra/widgets/span/lv_span.c **** void lv_spangroup_set_overflow(lv_obj_t * obj, lv_span_overflow_t overflow)
 216:lvgl/src/extra/widgets/span/lv_span.c **** {
 217:lvgl/src/extra/widgets/span/lv_span.c ****     lv_spangroup_t * spans = (lv_spangroup_t *)obj;
 218:lvgl/src/extra/widgets/span/lv_span.c ****     if(spans->overflow == overflow) return;
 219:lvgl/src/extra/widgets/span/lv_span.c **** 
 220:lvgl/src/extra/widgets/span/lv_span.c ****     spans->overflow = overflow;
 221:lvgl/src/extra/widgets/span/lv_span.c ****     lv_obj_invalidate(obj);
 222:lvgl/src/extra/widgets/span/lv_span.c **** }
 223:lvgl/src/extra/widgets/span/lv_span.c **** 
 224:lvgl/src/extra/widgets/span/lv_span.c **** /**
 225:lvgl/src/extra/widgets/span/lv_span.c ****  * Set the indent of the spangroup.
 226:lvgl/src/extra/widgets/span/lv_span.c ****  * @param obj pointer to a spangroup object.
 227:lvgl/src/extra/widgets/span/lv_span.c ****  * @param indent The first line indentation
 228:lvgl/src/extra/widgets/span/lv_span.c ****  */
 229:lvgl/src/extra/widgets/span/lv_span.c **** void lv_spangroup_set_indent(lv_obj_t * obj, lv_coord_t indent)
 230:lvgl/src/extra/widgets/span/lv_span.c **** {
 231:lvgl/src/extra/widgets/span/lv_span.c ****     lv_spangroup_t * spans = (lv_spangroup_t *)obj;
 232:lvgl/src/extra/widgets/span/lv_span.c ****     if(spans->indent == indent) return;
 233:lvgl/src/extra/widgets/span/lv_span.c **** 
 234:lvgl/src/extra/widgets/span/lv_span.c ****     spans->indent = indent;
 235:lvgl/src/extra/widgets/span/lv_span.c **** 
 236:lvgl/src/extra/widgets/span/lv_span.c ****     refresh_self_size(obj);
 237:lvgl/src/extra/widgets/span/lv_span.c **** }
 238:lvgl/src/extra/widgets/span/lv_span.c **** 
 239:lvgl/src/extra/widgets/span/lv_span.c **** /**
 240:lvgl/src/extra/widgets/span/lv_span.c ****  * Set the mode of the spangroup.
 241:lvgl/src/extra/widgets/span/lv_span.c ****  * @param obj pointer to a spangroup object.
 242:lvgl/src/extra/widgets/span/lv_span.c ****  * @param mode see lv_span_mode_t for details.
 243:lvgl/src/extra/widgets/span/lv_span.c ****  */
 244:lvgl/src/extra/widgets/span/lv_span.c **** void lv_spangroup_set_mode(lv_obj_t * obj, lv_span_mode_t mode)
 245:lvgl/src/extra/widgets/span/lv_span.c **** {
 246:lvgl/src/extra/widgets/span/lv_span.c ****     lv_spangroup_t * spans = (lv_spangroup_t *)obj;
 247:lvgl/src/extra/widgets/span/lv_span.c ****     if(spans->mode == mode) return;
 248:lvgl/src/extra/widgets/span/lv_span.c **** 
 249:lvgl/src/extra/widgets/span/lv_span.c ****     spans->mode = mode;
 250:lvgl/src/extra/widgets/span/lv_span.c ****     lv_spangroup_refr_mode(obj);
 251:lvgl/src/extra/widgets/span/lv_span.c **** }
 252:lvgl/src/extra/widgets/span/lv_span.c **** 
 253:lvgl/src/extra/widgets/span/lv_span.c **** /*=====================
 254:lvgl/src/extra/widgets/span/lv_span.c ****  * Getter functions
 255:lvgl/src/extra/widgets/span/lv_span.c ****  *====================*/
 256:lvgl/src/extra/widgets/span/lv_span.c **** 
 257:lvgl/src/extra/widgets/span/lv_span.c **** /**
 258:lvgl/src/extra/widgets/span/lv_span.c ****  * get the align of the spangroup.
 259:lvgl/src/extra/widgets/span/lv_span.c ****  * @param obj pointer to a spangroup object.
ARM GAS  C:\Users\BLACK_~1\AppData\Local\Temp\ccmy2bqO.s 			page 6


 260:lvgl/src/extra/widgets/span/lv_span.c ****  * @return the align value.
 261:lvgl/src/extra/widgets/span/lv_span.c ****  */
 262:lvgl/src/extra/widgets/span/lv_span.c **** lv_text_align_t lv_spangroup_get_align(lv_obj_t * obj)
 263:lvgl/src/extra/widgets/span/lv_span.c **** {
 264:lvgl/src/extra/widgets/span/lv_span.c ****     return lv_obj_get_style_text_align(obj, LV_PART_MAIN);
 265:lvgl/src/extra/widgets/span/lv_span.c **** }
 266:lvgl/src/extra/widgets/span/lv_span.c **** 
 267:lvgl/src/extra/widgets/span/lv_span.c **** /**
 268:lvgl/src/extra/widgets/span/lv_span.c ****  * get the overflow of the spangroup.
 269:lvgl/src/extra/widgets/span/lv_span.c ****  * @param obj pointer to a spangroup object.
 270:lvgl/src/extra/widgets/span/lv_span.c ****  * @return the overflow value.
 271:lvgl/src/extra/widgets/span/lv_span.c ****  */
 272:lvgl/src/extra/widgets/span/lv_span.c **** lv_span_overflow_t lv_spangroup_get_overflow(lv_obj_t * obj)
 273:lvgl/src/extra/widgets/span/lv_span.c **** {
 274:lvgl/src/extra/widgets/span/lv_span.c ****     lv_spangroup_t * spans = (lv_spangroup_t *)obj;
 275:lvgl/src/extra/widgets/span/lv_span.c ****     return spans->overflow;
 276:lvgl/src/extra/widgets/span/lv_span.c **** }
 277:lvgl/src/extra/widgets/span/lv_span.c **** 
 278:lvgl/src/extra/widgets/span/lv_span.c **** /**
 279:lvgl/src/extra/widgets/span/lv_span.c ****  * get the indent of the spangroup.
 280:lvgl/src/extra/widgets/span/lv_span.c ****  * @param obj pointer to a spangroup object.
 281:lvgl/src/extra/widgets/span/lv_span.c ****  * @return the indent value.
 282:lvgl/src/extra/widgets/span/lv_span.c ****  */
 283:lvgl/src/extra/widgets/span/lv_span.c **** lv_coord_t lv_spangroup_get_indent(lv_obj_t * obj)
 284:lvgl/src/extra/widgets/span/lv_span.c **** {
 285:lvgl/src/extra/widgets/span/lv_span.c ****     lv_spangroup_t * spans = (lv_spangroup_t *)obj;
 286:lvgl/src/extra/widgets/span/lv_span.c ****     return spans->indent;
 287:lvgl/src/extra/widgets/span/lv_span.c **** }
 288:lvgl/src/extra/widgets/span/lv_span.c **** 
 289:lvgl/src/extra/widgets/span/lv_span.c **** /**
 290:lvgl/src/extra/widgets/span/lv_span.c ****  * Set the mode of the spangroup.
 291:lvgl/src/extra/widgets/span/lv_span.c ****  * @param obj pointer to a spangroup object.
 292:lvgl/src/extra/widgets/span/lv_span.c ****  * @return the mode value.
 293:lvgl/src/extra/widgets/span/lv_span.c ****  */
 294:lvgl/src/extra/widgets/span/lv_span.c **** lv_span_mode_t lv_spangroup_get_mode(lv_obj_t * obj)
 295:lvgl/src/extra/widgets/span/lv_span.c **** {
 296:lvgl/src/extra/widgets/span/lv_span.c ****     lv_spangroup_t * spans = (lv_spangroup_t *)obj;
 297:lvgl/src/extra/widgets/span/lv_span.c ****     return spans->mode;
 298:lvgl/src/extra/widgets/span/lv_span.c **** }
 299:lvgl/src/extra/widgets/span/lv_span.c **** 
 300:lvgl/src/extra/widgets/span/lv_span.c **** /**
 301:lvgl/src/extra/widgets/span/lv_span.c ****  * update the mode of the spangroup.
 302:lvgl/src/extra/widgets/span/lv_span.c ****  * @param obj pointer to a spangroup object.
 303:lvgl/src/extra/widgets/span/lv_span.c ****  */
 304:lvgl/src/extra/widgets/span/lv_span.c **** void lv_spangroup_refr_mode(lv_obj_t * obj)
 305:lvgl/src/extra/widgets/span/lv_span.c **** {
 306:lvgl/src/extra/widgets/span/lv_span.c ****     lv_spangroup_t * spans = (lv_spangroup_t *)obj;
 307:lvgl/src/extra/widgets/span/lv_span.c **** 
 308:lvgl/src/extra/widgets/span/lv_span.c ****     if(spans->mode == LV_SPAN_MODE_EXPAND) {
 309:lvgl/src/extra/widgets/span/lv_span.c ****         lv_obj_set_width(obj, LV_SIZE_CONTENT);
 310:lvgl/src/extra/widgets/span/lv_span.c ****         lv_obj_set_height(obj, LV_SIZE_CONTENT);
 311:lvgl/src/extra/widgets/span/lv_span.c ****     }
 312:lvgl/src/extra/widgets/span/lv_span.c ****     else if(spans->mode == LV_SPAN_MODE_BREAK) {
 313:lvgl/src/extra/widgets/span/lv_span.c ****         if(lv_obj_get_style_width(obj, LV_PART_MAIN) == LV_SIZE_CONTENT) {
 314:lvgl/src/extra/widgets/span/lv_span.c ****             lv_obj_set_width(obj, 100);
 315:lvgl/src/extra/widgets/span/lv_span.c ****         }
 316:lvgl/src/extra/widgets/span/lv_span.c ****         lv_obj_set_height(obj, LV_SIZE_CONTENT);
ARM GAS  C:\Users\BLACK_~1\AppData\Local\Temp\ccmy2bqO.s 			page 7


 317:lvgl/src/extra/widgets/span/lv_span.c ****     }
 318:lvgl/src/extra/widgets/span/lv_span.c ****     else if(spans->mode == LV_SPAN_MODE_FIXED) {
 319:lvgl/src/extra/widgets/span/lv_span.c ****         /* use this mode, The user needs to set the size. */
 320:lvgl/src/extra/widgets/span/lv_span.c ****         /* This is just to prevent an infinite loop. */
 321:lvgl/src/extra/widgets/span/lv_span.c ****         if(lv_obj_get_style_width(obj, LV_PART_MAIN) == LV_SIZE_CONTENT) {
 322:lvgl/src/extra/widgets/span/lv_span.c ****             lv_obj_set_width(obj, 100);
 323:lvgl/src/extra/widgets/span/lv_span.c ****         }
 324:lvgl/src/extra/widgets/span/lv_span.c ****         if(lv_obj_get_style_height(obj, LV_PART_MAIN) == LV_SIZE_CONTENT) {
 325:lvgl/src/extra/widgets/span/lv_span.c ****             lv_coord_t width = lv_obj_get_style_width(obj, LV_PART_MAIN);
 326:lvgl/src/extra/widgets/span/lv_span.c ****             if(LV_COORD_IS_PCT(width)) {
 327:lvgl/src/extra/widgets/span/lv_span.c ****                 width = 100;
 328:lvgl/src/extra/widgets/span/lv_span.c ****             }
 329:lvgl/src/extra/widgets/span/lv_span.c ****             lv_coord_t height = lv_spangroup_get_expand_height(obj, width);
 330:lvgl/src/extra/widgets/span/lv_span.c ****             lv_obj_set_content_height(obj, height);
 331:lvgl/src/extra/widgets/span/lv_span.c ****         }
 332:lvgl/src/extra/widgets/span/lv_span.c ****     }
 333:lvgl/src/extra/widgets/span/lv_span.c **** 
 334:lvgl/src/extra/widgets/span/lv_span.c ****     refresh_self_size(obj);
 335:lvgl/src/extra/widgets/span/lv_span.c **** }
 336:lvgl/src/extra/widgets/span/lv_span.c **** 
 337:lvgl/src/extra/widgets/span/lv_span.c **** /**
 338:lvgl/src/extra/widgets/span/lv_span.c ****  * get max line height of all span in the spangroup.
 339:lvgl/src/extra/widgets/span/lv_span.c ****  * @param obj pointer to a spangroup object.
 340:lvgl/src/extra/widgets/span/lv_span.c ****  */
 341:lvgl/src/extra/widgets/span/lv_span.c **** lv_coord_t lv_spangroup_get_max_line_h(lv_obj_t * obj)
 342:lvgl/src/extra/widgets/span/lv_span.c **** {
 343:lvgl/src/extra/widgets/span/lv_span.c ****     lv_spangroup_t * spans = (lv_spangroup_t *)obj;
 344:lvgl/src/extra/widgets/span/lv_span.c **** 
 345:lvgl/src/extra/widgets/span/lv_span.c ****     lv_coord_t max_line_h = 0;
 346:lvgl/src/extra/widgets/span/lv_span.c ****     lv_span_t * cur_span;
 347:lvgl/src/extra/widgets/span/lv_span.c ****     _LV_LL_READ(&spans->child_ll, cur_span) {
 348:lvgl/src/extra/widgets/span/lv_span.c ****         const lv_font_t * font = lv_span_get_style_text_font(obj, cur_span);
 349:lvgl/src/extra/widgets/span/lv_span.c ****         lv_coord_t line_h = lv_font_get_line_height(font);
 350:lvgl/src/extra/widgets/span/lv_span.c ****         if(line_h > max_line_h) {
 351:lvgl/src/extra/widgets/span/lv_span.c ****             max_line_h = line_h;
 352:lvgl/src/extra/widgets/span/lv_span.c ****         }
 353:lvgl/src/extra/widgets/span/lv_span.c ****     }
 354:lvgl/src/extra/widgets/span/lv_span.c **** 
 355:lvgl/src/extra/widgets/span/lv_span.c ****     return max_line_h;
 356:lvgl/src/extra/widgets/span/lv_span.c **** }
 357:lvgl/src/extra/widgets/span/lv_span.c **** 
 358:lvgl/src/extra/widgets/span/lv_span.c **** /**
 359:lvgl/src/extra/widgets/span/lv_span.c ****  * get the width when all span of spangroup on a line. not included spangroup pad, border width.
 360:lvgl/src/extra/widgets/span/lv_span.c ****  * @param obj pointer to a spangroup object.
 361:lvgl/src/extra/widgets/span/lv_span.c ****  */
 362:lvgl/src/extra/widgets/span/lv_span.c **** lv_coord_t lv_spangroup_get_expand_width(lv_obj_t * obj)
 363:lvgl/src/extra/widgets/span/lv_span.c **** {
 364:lvgl/src/extra/widgets/span/lv_span.c ****     lv_spangroup_t * spans = (lv_spangroup_t *)obj;
 365:lvgl/src/extra/widgets/span/lv_span.c **** 
 366:lvgl/src/extra/widgets/span/lv_span.c ****     if(_lv_ll_get_head(&spans->child_ll) == NULL) {
 367:lvgl/src/extra/widgets/span/lv_span.c ****         return 0;
 368:lvgl/src/extra/widgets/span/lv_span.c ****     }
 369:lvgl/src/extra/widgets/span/lv_span.c **** 
 370:lvgl/src/extra/widgets/span/lv_span.c ****     lv_coord_t width = 0;
 371:lvgl/src/extra/widgets/span/lv_span.c ****     lv_span_t * cur_span;
 372:lvgl/src/extra/widgets/span/lv_span.c ****     _LV_LL_READ(&spans->child_ll, cur_span) {
 373:lvgl/src/extra/widgets/span/lv_span.c ****         const lv_font_t * font = lv_span_get_style_text_font(obj, cur_span);
ARM GAS  C:\Users\BLACK_~1\AppData\Local\Temp\ccmy2bqO.s 			page 8


 374:lvgl/src/extra/widgets/span/lv_span.c ****         lv_coord_t letter_space = lv_span_get_style_text_letter_space(obj, cur_span);
 375:lvgl/src/extra/widgets/span/lv_span.c ****         uint32_t j = 0;
 376:lvgl/src/extra/widgets/span/lv_span.c ****         const char * cur_txt = cur_span->txt;
 377:lvgl/src/extra/widgets/span/lv_span.c ****         span_text_check(&cur_txt);
 378:lvgl/src/extra/widgets/span/lv_span.c ****         while(cur_txt[j] != 0) {
 379:lvgl/src/extra/widgets/span/lv_span.c ****             uint32_t letter      = _lv_txt_encoded_next(cur_txt, &j);
 380:lvgl/src/extra/widgets/span/lv_span.c ****             uint32_t letter_next = _lv_txt_encoded_next(&cur_txt[j], NULL);
 381:lvgl/src/extra/widgets/span/lv_span.c ****             int32_t letter_w = lv_font_get_glyph_width(font, letter, letter_next);
 382:lvgl/src/extra/widgets/span/lv_span.c ****             width = width + letter_w + letter_space;
 383:lvgl/src/extra/widgets/span/lv_span.c ****         }
 384:lvgl/src/extra/widgets/span/lv_span.c ****     }
 385:lvgl/src/extra/widgets/span/lv_span.c **** 
 386:lvgl/src/extra/widgets/span/lv_span.c ****     return width;
 387:lvgl/src/extra/widgets/span/lv_span.c **** }
 388:lvgl/src/extra/widgets/span/lv_span.c **** 
 389:lvgl/src/extra/widgets/span/lv_span.c **** /**
 390:lvgl/src/extra/widgets/span/lv_span.c ****  * get the height with width fixed. Height and width are not included spangroup pad, border width.
 391:lvgl/src/extra/widgets/span/lv_span.c ****  * @param obj pointer to a spangroup object.
 392:lvgl/src/extra/widgets/span/lv_span.c ****  */
 393:lvgl/src/extra/widgets/span/lv_span.c **** lv_coord_t lv_spangroup_get_expand_height(lv_obj_t * obj, lv_coord_t width)
 394:lvgl/src/extra/widgets/span/lv_span.c **** {
 395:lvgl/src/extra/widgets/span/lv_span.c ****     lv_spangroup_t * spans = (lv_spangroup_t *)obj;
 396:lvgl/src/extra/widgets/span/lv_span.c ****     if(_lv_ll_get_head(&spans->child_ll) == NULL || width <= 0) {
 397:lvgl/src/extra/widgets/span/lv_span.c ****         return 0;
 398:lvgl/src/extra/widgets/span/lv_span.c ****     }
 399:lvgl/src/extra/widgets/span/lv_span.c **** 
 400:lvgl/src/extra/widgets/span/lv_span.c ****     /* init draw variable */
 401:lvgl/src/extra/widgets/span/lv_span.c ****     lv_text_flag_t txt_flag = LV_TEXT_FLAG_NONE;
 402:lvgl/src/extra/widgets/span/lv_span.c ****     lv_coord_t line_space = lv_obj_get_style_text_line_space(obj, LV_PART_MAIN);
 403:lvgl/src/extra/widgets/span/lv_span.c ****     lv_coord_t max_width = width;
 404:lvgl/src/extra/widgets/span/lv_span.c ****     lv_coord_t max_w  = max_width - spans->indent; /* first line need minus indent */
 405:lvgl/src/extra/widgets/span/lv_span.c **** 
 406:lvgl/src/extra/widgets/span/lv_span.c ****     /* coords of draw span-txt */
 407:lvgl/src/extra/widgets/span/lv_span.c ****     lv_point_t txt_pos;
 408:lvgl/src/extra/widgets/span/lv_span.c ****     txt_pos.y = 0;
 409:lvgl/src/extra/widgets/span/lv_span.c ****     txt_pos.x = 0 + spans->indent; /* first line need add indent */
 410:lvgl/src/extra/widgets/span/lv_span.c **** 
 411:lvgl/src/extra/widgets/span/lv_span.c ****     lv_span_t * cur_span = _lv_ll_get_head(&spans->child_ll);
 412:lvgl/src/extra/widgets/span/lv_span.c ****     const char * cur_txt = cur_span->txt;
 413:lvgl/src/extra/widgets/span/lv_span.c ****     span_text_check(&cur_txt);
 414:lvgl/src/extra/widgets/span/lv_span.c ****     uint32_t cur_txt_ofs = 0;
 415:lvgl/src/extra/widgets/span/lv_span.c ****     lv_snippet_t snippet;   /* use to save cur_span info and push it to stack */
 416:lvgl/src/extra/widgets/span/lv_span.c ****     memset(&snippet, 0, sizeof(snippet));
 417:lvgl/src/extra/widgets/span/lv_span.c **** 
 418:lvgl/src/extra/widgets/span/lv_span.c ****     /* the loop control how many lines need to draw */
 419:lvgl/src/extra/widgets/span/lv_span.c ****     while(cur_span) {
 420:lvgl/src/extra/widgets/span/lv_span.c ****         int snippet_cnt = 0;
 421:lvgl/src/extra/widgets/span/lv_span.c ****         lv_coord_t max_line_h = 0;  /* the max height of span-font when a line have a lot of span *
 422:lvgl/src/extra/widgets/span/lv_span.c **** 
 423:lvgl/src/extra/widgets/span/lv_span.c ****         /* the loop control to find a line and push the relevant span info into stack  */
 424:lvgl/src/extra/widgets/span/lv_span.c ****         while(1) {
 425:lvgl/src/extra/widgets/span/lv_span.c ****             /* switch to the next span when current is end */
 426:lvgl/src/extra/widgets/span/lv_span.c ****             if(cur_txt[cur_txt_ofs] == '\0') {
 427:lvgl/src/extra/widgets/span/lv_span.c ****                 cur_span = _lv_ll_get_next(&spans->child_ll, cur_span);
 428:lvgl/src/extra/widgets/span/lv_span.c ****                 if(cur_span == NULL) break;
 429:lvgl/src/extra/widgets/span/lv_span.c ****                 cur_txt = cur_span->txt;
 430:lvgl/src/extra/widgets/span/lv_span.c ****                 span_text_check(&cur_txt);
ARM GAS  C:\Users\BLACK_~1\AppData\Local\Temp\ccmy2bqO.s 			page 9


 431:lvgl/src/extra/widgets/span/lv_span.c ****                 cur_txt_ofs = 0;
 432:lvgl/src/extra/widgets/span/lv_span.c ****             }
 433:lvgl/src/extra/widgets/span/lv_span.c **** 
 434:lvgl/src/extra/widgets/span/lv_span.c ****             /* init span info to snippet. */
 435:lvgl/src/extra/widgets/span/lv_span.c ****             if(cur_txt_ofs == 0) {
 436:lvgl/src/extra/widgets/span/lv_span.c ****                 snippet.span = cur_span;
 437:lvgl/src/extra/widgets/span/lv_span.c ****                 snippet.font = lv_span_get_style_text_font(obj, cur_span);
 438:lvgl/src/extra/widgets/span/lv_span.c ****                 snippet.letter_space = lv_span_get_style_text_letter_space(obj, cur_span);
 439:lvgl/src/extra/widgets/span/lv_span.c ****                 snippet.line_h = lv_font_get_line_height(snippet.font) + line_space;
 440:lvgl/src/extra/widgets/span/lv_span.c ****             }
 441:lvgl/src/extra/widgets/span/lv_span.c **** 
 442:lvgl/src/extra/widgets/span/lv_span.c ****             /* get current span text line info */
 443:lvgl/src/extra/widgets/span/lv_span.c ****             uint32_t next_ofs = 0;
 444:lvgl/src/extra/widgets/span/lv_span.c ****             lv_coord_t use_width = 0;
 445:lvgl/src/extra/widgets/span/lv_span.c ****             bool isfill = lv_txt_get_snippet(&cur_txt[cur_txt_ofs], snippet.font, snippet.letter_sp
 446:lvgl/src/extra/widgets/span/lv_span.c ****                                              max_w, txt_flag, &use_width, &next_ofs);
 447:lvgl/src/extra/widgets/span/lv_span.c **** 
 448:lvgl/src/extra/widgets/span/lv_span.c ****             /* break word deal width */
 449:lvgl/src/extra/widgets/span/lv_span.c ****             if(isfill && next_ofs > 0 && snippet_cnt > 0) {
 450:lvgl/src/extra/widgets/span/lv_span.c ****                 uint32_t letter = (uint32_t)cur_txt[cur_txt_ofs + next_ofs - 1];
 451:lvgl/src/extra/widgets/span/lv_span.c ****                 if(!(letter == '\0' || letter == '\n' || letter == '\r' || _lv_txt_is_break_char(le
 452:lvgl/src/extra/widgets/span/lv_span.c ****                     letter = (uint32_t)cur_txt[cur_txt_ofs + next_ofs];
 453:lvgl/src/extra/widgets/span/lv_span.c ****                     if(!(letter == '\0' || letter == '\n'  || letter == '\r' || _lv_txt_is_break_ch
 454:lvgl/src/extra/widgets/span/lv_span.c ****                         break;
 455:lvgl/src/extra/widgets/span/lv_span.c ****                     }
 456:lvgl/src/extra/widgets/span/lv_span.c ****                 }
 457:lvgl/src/extra/widgets/span/lv_span.c ****             }
 458:lvgl/src/extra/widgets/span/lv_span.c **** 
 459:lvgl/src/extra/widgets/span/lv_span.c ****             snippet.txt = &cur_txt[cur_txt_ofs];
 460:lvgl/src/extra/widgets/span/lv_span.c ****             snippet.bytes = next_ofs;
 461:lvgl/src/extra/widgets/span/lv_span.c ****             snippet.txt_w = use_width;
 462:lvgl/src/extra/widgets/span/lv_span.c ****             cur_txt_ofs += next_ofs;
 463:lvgl/src/extra/widgets/span/lv_span.c ****             if(max_line_h < snippet.line_h) {
 464:lvgl/src/extra/widgets/span/lv_span.c ****                 max_line_h = snippet.line_h;
 465:lvgl/src/extra/widgets/span/lv_span.c ****             }
 466:lvgl/src/extra/widgets/span/lv_span.c ****             snippet_cnt ++;
 467:lvgl/src/extra/widgets/span/lv_span.c ****             if(isfill) {
 468:lvgl/src/extra/widgets/span/lv_span.c ****                 break;
 469:lvgl/src/extra/widgets/span/lv_span.c ****             }
 470:lvgl/src/extra/widgets/span/lv_span.c ****             max_w -= use_width;
 471:lvgl/src/extra/widgets/span/lv_span.c ****         }
 472:lvgl/src/extra/widgets/span/lv_span.c **** 
 473:lvgl/src/extra/widgets/span/lv_span.c ****         /* next line init */
 474:lvgl/src/extra/widgets/span/lv_span.c ****         txt_pos.x = 0;
 475:lvgl/src/extra/widgets/span/lv_span.c ****         txt_pos.y += max_line_h;
 476:lvgl/src/extra/widgets/span/lv_span.c ****         max_w = max_width;
 477:lvgl/src/extra/widgets/span/lv_span.c ****     }
 478:lvgl/src/extra/widgets/span/lv_span.c **** 
 479:lvgl/src/extra/widgets/span/lv_span.c ****     return txt_pos.y;
 480:lvgl/src/extra/widgets/span/lv_span.c **** }
 481:lvgl/src/extra/widgets/span/lv_span.c **** 
 482:lvgl/src/extra/widgets/span/lv_span.c **** /**********************
 483:lvgl/src/extra/widgets/span/lv_span.c ****  *   STATIC FUNCTIONS
 484:lvgl/src/extra/widgets/span/lv_span.c ****  **********************/
 485:lvgl/src/extra/widgets/span/lv_span.c **** 
 486:lvgl/src/extra/widgets/span/lv_span.c **** static void lv_spangroup_constructor(const lv_obj_class_t * class_p, lv_obj_t * obj)
 487:lvgl/src/extra/widgets/span/lv_span.c **** {
ARM GAS  C:\Users\BLACK_~1\AppData\Local\Temp\ccmy2bqO.s 			page 10


 488:lvgl/src/extra/widgets/span/lv_span.c ****     LV_UNUSED(class_p);
 489:lvgl/src/extra/widgets/span/lv_span.c ****     lv_spangroup_t * spans = (lv_spangroup_t *)obj;
 490:lvgl/src/extra/widgets/span/lv_span.c ****     _lv_ll_init(&spans->child_ll, sizeof(lv_span_t));
 491:lvgl/src/extra/widgets/span/lv_span.c ****     spans->indent = 0;
 492:lvgl/src/extra/widgets/span/lv_span.c ****     spans->mode = LV_SPAN_MODE_EXPAND;
 493:lvgl/src/extra/widgets/span/lv_span.c ****     spans->overflow = LV_SPAN_OVERFLOW_CLIP;
 494:lvgl/src/extra/widgets/span/lv_span.c ****     spans->cache_w = 0;
 495:lvgl/src/extra/widgets/span/lv_span.c ****     spans->cache_h = 0;
 496:lvgl/src/extra/widgets/span/lv_span.c ****     spans->refresh = 1;
 497:lvgl/src/extra/widgets/span/lv_span.c **** }
 498:lvgl/src/extra/widgets/span/lv_span.c **** 
 499:lvgl/src/extra/widgets/span/lv_span.c **** static void lv_spangroup_destructor(const lv_obj_class_t * class_p, lv_obj_t * obj)
 500:lvgl/src/extra/widgets/span/lv_span.c **** {
 501:lvgl/src/extra/widgets/span/lv_span.c ****     LV_UNUSED(class_p);
 502:lvgl/src/extra/widgets/span/lv_span.c ****     lv_spangroup_t * spans = (lv_spangroup_t *)obj;
 503:lvgl/src/extra/widgets/span/lv_span.c ****     lv_span_t * cur_span = _lv_ll_get_head(&spans->child_ll);
 504:lvgl/src/extra/widgets/span/lv_span.c ****     while(cur_span) {
 505:lvgl/src/extra/widgets/span/lv_span.c ****         _lv_ll_remove(&spans->child_ll, cur_span);
 506:lvgl/src/extra/widgets/span/lv_span.c ****         if(cur_span->txt && cur_span->static_flag == 0) {
 507:lvgl/src/extra/widgets/span/lv_span.c ****             lv_mem_free(cur_span->txt);
 508:lvgl/src/extra/widgets/span/lv_span.c ****         }
 509:lvgl/src/extra/widgets/span/lv_span.c ****         lv_style_reset(&cur_span->style);
 510:lvgl/src/extra/widgets/span/lv_span.c ****         lv_mem_free(cur_span);
 511:lvgl/src/extra/widgets/span/lv_span.c ****         cur_span = _lv_ll_get_head(&spans->child_ll);
 512:lvgl/src/extra/widgets/span/lv_span.c ****     }
 513:lvgl/src/extra/widgets/span/lv_span.c **** }
 514:lvgl/src/extra/widgets/span/lv_span.c **** 
 515:lvgl/src/extra/widgets/span/lv_span.c **** static void lv_spangroup_event(const lv_obj_class_t * class_p, lv_event_t * e)
 516:lvgl/src/extra/widgets/span/lv_span.c **** {
 517:lvgl/src/extra/widgets/span/lv_span.c ****     LV_UNUSED(class_p);
 518:lvgl/src/extra/widgets/span/lv_span.c **** 
 519:lvgl/src/extra/widgets/span/lv_span.c ****     /* Call the ancestor's event handler */
 520:lvgl/src/extra/widgets/span/lv_span.c ****     if(lv_obj_event_base(MY_CLASS, e) != LV_RES_OK) return;
 521:lvgl/src/extra/widgets/span/lv_span.c **** 
 522:lvgl/src/extra/widgets/span/lv_span.c ****     lv_event_code_t code = lv_event_get_code(e);
 523:lvgl/src/extra/widgets/span/lv_span.c ****     lv_obj_t * obj = lv_event_get_target(e);
 524:lvgl/src/extra/widgets/span/lv_span.c ****     lv_spangroup_t * spans = (lv_spangroup_t *)obj;
 525:lvgl/src/extra/widgets/span/lv_span.c **** 
 526:lvgl/src/extra/widgets/span/lv_span.c ****     if(code == LV_EVENT_DRAW_MAIN) {
 527:lvgl/src/extra/widgets/span/lv_span.c ****         draw_main(e);
 528:lvgl/src/extra/widgets/span/lv_span.c ****     }
 529:lvgl/src/extra/widgets/span/lv_span.c ****     else if(code == LV_EVENT_STYLE_CHANGED) {
 530:lvgl/src/extra/widgets/span/lv_span.c ****         refresh_self_size(obj);
 531:lvgl/src/extra/widgets/span/lv_span.c ****     }
 532:lvgl/src/extra/widgets/span/lv_span.c ****     else if(code == LV_EVENT_SIZE_CHANGED) {
 533:lvgl/src/extra/widgets/span/lv_span.c ****         refresh_self_size(obj);
 534:lvgl/src/extra/widgets/span/lv_span.c ****     }
 535:lvgl/src/extra/widgets/span/lv_span.c ****     else if(code == LV_EVENT_GET_SELF_SIZE) {
 536:lvgl/src/extra/widgets/span/lv_span.c ****         lv_coord_t width = 0;
 537:lvgl/src/extra/widgets/span/lv_span.c ****         lv_coord_t height = 0;
 538:lvgl/src/extra/widgets/span/lv_span.c ****         lv_point_t * self_size = lv_event_get_param(e);
 539:lvgl/src/extra/widgets/span/lv_span.c **** 
 540:lvgl/src/extra/widgets/span/lv_span.c ****         if(spans->mode == LV_SPAN_MODE_EXPAND) {
 541:lvgl/src/extra/widgets/span/lv_span.c ****             if(spans->refresh) {
 542:lvgl/src/extra/widgets/span/lv_span.c ****                 spans->cache_w = lv_spangroup_get_expand_width(obj);
 543:lvgl/src/extra/widgets/span/lv_span.c ****                 spans->cache_h = lv_spangroup_get_max_line_h(obj);
 544:lvgl/src/extra/widgets/span/lv_span.c ****                 spans->refresh = 0;
ARM GAS  C:\Users\BLACK_~1\AppData\Local\Temp\ccmy2bqO.s 			page 11


 545:lvgl/src/extra/widgets/span/lv_span.c ****             }
 546:lvgl/src/extra/widgets/span/lv_span.c ****             width = spans->cache_w;
 547:lvgl/src/extra/widgets/span/lv_span.c ****             height = spans->cache_h;
 548:lvgl/src/extra/widgets/span/lv_span.c ****         }
 549:lvgl/src/extra/widgets/span/lv_span.c ****         else if(spans->mode == LV_SPAN_MODE_BREAK) {
 550:lvgl/src/extra/widgets/span/lv_span.c ****             width = lv_obj_get_content_width(obj);
 551:lvgl/src/extra/widgets/span/lv_span.c ****             if(self_size->y >= 0) {
 552:lvgl/src/extra/widgets/span/lv_span.c ****                 if(width != spans->cache_w || spans->refresh) {
 553:lvgl/src/extra/widgets/span/lv_span.c ****                     height = lv_spangroup_get_expand_height(obj, width);
 554:lvgl/src/extra/widgets/span/lv_span.c ****                     spans->cache_w = width;
 555:lvgl/src/extra/widgets/span/lv_span.c ****                     spans->cache_h = height;
 556:lvgl/src/extra/widgets/span/lv_span.c ****                     spans->refresh = 0;
 557:lvgl/src/extra/widgets/span/lv_span.c ****                 }
 558:lvgl/src/extra/widgets/span/lv_span.c ****                 else {
 559:lvgl/src/extra/widgets/span/lv_span.c ****                     height = spans->cache_h;
 560:lvgl/src/extra/widgets/span/lv_span.c ****                 }
 561:lvgl/src/extra/widgets/span/lv_span.c ****             }
 562:lvgl/src/extra/widgets/span/lv_span.c ****         }
 563:lvgl/src/extra/widgets/span/lv_span.c ****         else if(spans->mode == LV_SPAN_MODE_FIXED) {
 564:lvgl/src/extra/widgets/span/lv_span.c ****             width =  self_size->x >= 0 ? lv_obj_get_content_width(obj) : 0;
 565:lvgl/src/extra/widgets/span/lv_span.c ****             height = self_size->y >= 0 ? lv_obj_get_content_height(obj) : 0;
 566:lvgl/src/extra/widgets/span/lv_span.c ****         }
 567:lvgl/src/extra/widgets/span/lv_span.c ****         self_size->x = LV_MAX(self_size->x, width);
 568:lvgl/src/extra/widgets/span/lv_span.c ****         self_size->y = LV_MAX(self_size->y, height);
 569:lvgl/src/extra/widgets/span/lv_span.c ****     }
 570:lvgl/src/extra/widgets/span/lv_span.c **** }
 571:lvgl/src/extra/widgets/span/lv_span.c **** 
 572:lvgl/src/extra/widgets/span/lv_span.c **** static void draw_main(lv_event_t * e)
 573:lvgl/src/extra/widgets/span/lv_span.c **** {
 574:lvgl/src/extra/widgets/span/lv_span.c ****     lv_obj_t * obj = lv_event_get_target(e);
 575:lvgl/src/extra/widgets/span/lv_span.c ****     const lv_area_t * clip_area = lv_event_get_param(e);
 576:lvgl/src/extra/widgets/span/lv_span.c **** 
 577:lvgl/src/extra/widgets/span/lv_span.c ****     lv_area_t txt_coords;
 578:lvgl/src/extra/widgets/span/lv_span.c ****     lv_obj_get_content_coords(obj, &txt_coords);
 579:lvgl/src/extra/widgets/span/lv_span.c **** 
 580:lvgl/src/extra/widgets/span/lv_span.c ****     lv_draw_span(obj, &txt_coords, clip_area);
 581:lvgl/src/extra/widgets/span/lv_span.c **** }
 582:lvgl/src/extra/widgets/span/lv_span.c **** 
 583:lvgl/src/extra/widgets/span/lv_span.c **** /**
 584:lvgl/src/extra/widgets/span/lv_span.c ****  * @return true for txt fill the max_width.
 585:lvgl/src/extra/widgets/span/lv_span.c ****  */
 586:lvgl/src/extra/widgets/span/lv_span.c **** static bool lv_txt_get_snippet(const char * txt, const lv_font_t * font,
 587:lvgl/src/extra/widgets/span/lv_span.c ****                                lv_coord_t letter_space, lv_coord_t max_width, lv_text_flag_t flag,
 588:lvgl/src/extra/widgets/span/lv_span.c ****                                lv_coord_t * use_width, uint32_t * end_ofs)
 589:lvgl/src/extra/widgets/span/lv_span.c **** {
 590:lvgl/src/extra/widgets/span/lv_span.c ****     uint32_t ofs = _lv_txt_get_next_line(txt, font, letter_space, max_width, flag);
 591:lvgl/src/extra/widgets/span/lv_span.c ****     lv_coord_t width = lv_txt_get_width(txt, ofs, font, letter_space, flag);
 592:lvgl/src/extra/widgets/span/lv_span.c ****     *end_ofs = ofs;
 593:lvgl/src/extra/widgets/span/lv_span.c ****     *use_width = width;
 594:lvgl/src/extra/widgets/span/lv_span.c **** 
 595:lvgl/src/extra/widgets/span/lv_span.c ****     if(txt[ofs] == '\0' && width < max_width) {
 596:lvgl/src/extra/widgets/span/lv_span.c ****         return false;
 597:lvgl/src/extra/widgets/span/lv_span.c ****     }
 598:lvgl/src/extra/widgets/span/lv_span.c ****     else {
 599:lvgl/src/extra/widgets/span/lv_span.c ****         return true;
 600:lvgl/src/extra/widgets/span/lv_span.c ****     }
 601:lvgl/src/extra/widgets/span/lv_span.c **** }
ARM GAS  C:\Users\BLACK_~1\AppData\Local\Temp\ccmy2bqO.s 			page 12


 602:lvgl/src/extra/widgets/span/lv_span.c **** 
 603:lvgl/src/extra/widgets/span/lv_span.c **** static void lv_snippet_push(lv_snippet_t * item)
 604:lvgl/src/extra/widgets/span/lv_span.c **** {
 605:lvgl/src/extra/widgets/span/lv_span.c ****     if(snippet_stack.index < LV_SPAN_SNIPPET_STACK_SIZE) {
 606:lvgl/src/extra/widgets/span/lv_span.c ****         memcpy(&snippet_stack.stack[snippet_stack.index], item, sizeof(lv_snippet_t));
 607:lvgl/src/extra/widgets/span/lv_span.c ****         snippet_stack.index++;
 608:lvgl/src/extra/widgets/span/lv_span.c ****     }
 609:lvgl/src/extra/widgets/span/lv_span.c ****     else {
 610:lvgl/src/extra/widgets/span/lv_span.c ****         LV_LOG_ERROR("span draw stack overflow, please set LV_SPAN_SNIPPET_STACK_SIZE too larger");
 611:lvgl/src/extra/widgets/span/lv_span.c ****     }
 612:lvgl/src/extra/widgets/span/lv_span.c **** }
 613:lvgl/src/extra/widgets/span/lv_span.c **** 
 614:lvgl/src/extra/widgets/span/lv_span.c **** static uint16_t lv_get_snippet_cnt()
 615:lvgl/src/extra/widgets/span/lv_span.c **** {
  28              		.loc 1 615 1 view -0
  29              		.cfi_startproc
  30              		@ args = 0, pretend = 0, frame = 0
  31              		@ frame_needed = 0, uses_anonymous_args = 0
  32              		@ link register save eliminated.
 616:lvgl/src/extra/widgets/span/lv_span.c ****     return snippet_stack.index;
  33              		.loc 1 616 5 view .LVU1
 617:lvgl/src/extra/widgets/span/lv_span.c **** }
  34              		.loc 1 617 1 is_stmt 0 view .LVU2
  35 0000 014B     		ldr	r3, .L2
  36 0002 B3F80005 		ldrh	r0, [r3, #1280]
  37 0006 7047     		bx	lr
  38              	.L3:
  39              		.align	2
  40              	.L2:
  41 0008 00000000 		.word	.LANCHOR0
  42              		.cfi_endproc
  43              	.LFE207:
  45              		.section	.text.lv_get_snippet,"ax",%progbits
  46              		.align	1
  47              		.syntax unified
  48              		.thumb
  49              		.thumb_func
  51              	lv_get_snippet:
  52              	.LVL0:
  53              	.LFB208:
 618:lvgl/src/extra/widgets/span/lv_span.c **** 
 619:lvgl/src/extra/widgets/span/lv_span.c **** static lv_snippet_t * lv_get_snippet(uint16_t index)
 620:lvgl/src/extra/widgets/span/lv_span.c **** {
  54              		.loc 1 620 1 is_stmt 1 view -0
  55              		.cfi_startproc
  56              		@ args = 0, pretend = 0, frame = 0
  57              		@ frame_needed = 0, uses_anonymous_args = 0
  58              		@ link register save eliminated.
 621:lvgl/src/extra/widgets/span/lv_span.c ****     return &snippet_stack.stack[index];
  59              		.loc 1 621 5 view .LVU4
  60              		.loc 1 621 12 is_stmt 0 view .LVU5
  61 0000 00EB8000 		add	r0, r0, r0, lsl #2
  62              	.LVL1:
 622:lvgl/src/extra/widgets/span/lv_span.c **** }
  63              		.loc 1 622 1 view .LVU6
  64 0004 014B     		ldr	r3, .L5
  65 0006 03EB8000 		add	r0, r3, r0, lsl #2
ARM GAS  C:\Users\BLACK_~1\AppData\Local\Temp\ccmy2bqO.s 			page 13


  66 000a 7047     		bx	lr
  67              	.L6:
  68              		.align	2
  69              	.L5:
  70 000c 00000000 		.word	.LANCHOR0
  71              		.cfi_endproc
  72              	.LFE208:
  74              		.section	.text.lv_snippet_clear,"ax",%progbits
  75              		.align	1
  76              		.syntax unified
  77              		.thumb
  78              		.thumb_func
  80              	lv_snippet_clear:
  81              	.LFB209:
 623:lvgl/src/extra/widgets/span/lv_span.c **** 
 624:lvgl/src/extra/widgets/span/lv_span.c **** static void lv_snippet_clear(void)
 625:lvgl/src/extra/widgets/span/lv_span.c **** {
  82              		.loc 1 625 1 is_stmt 1 view -0
  83              		.cfi_startproc
  84              		@ args = 0, pretend = 0, frame = 0
  85              		@ frame_needed = 0, uses_anonymous_args = 0
  86              		@ link register save eliminated.
 626:lvgl/src/extra/widgets/span/lv_span.c ****     snippet_stack.index = 0;
  87              		.loc 1 626 5 view .LVU8
  88              		.loc 1 626 25 is_stmt 0 view .LVU9
  89 0000 024B     		ldr	r3, .L8
  90 0002 0022     		movs	r2, #0
  91 0004 A3F80025 		strh	r2, [r3, #1280]	@ movhi
 627:lvgl/src/extra/widgets/span/lv_span.c **** }
  92              		.loc 1 627 1 view .LVU10
  93 0008 7047     		bx	lr
  94              	.L9:
  95 000a 00BF     		.align	2
  96              	.L8:
  97 000c 00000000 		.word	.LANCHOR0
  98              		.cfi_endproc
  99              	.LFE209:
 101              		.section	.text.lv_span_get_style_text_letter_space,"ax",%progbits
 102              		.align	1
 103              		.syntax unified
 104              		.thumb
 105              		.thumb_func
 107              	lv_span_get_style_text_letter_space:
 108              	.LVL2:
 109              	.LFB211:
 628:lvgl/src/extra/widgets/span/lv_span.c **** 
 629:lvgl/src/extra/widgets/span/lv_span.c **** static const lv_font_t * lv_span_get_style_text_font(lv_obj_t * par, lv_span_t * span)
 630:lvgl/src/extra/widgets/span/lv_span.c **** {
 631:lvgl/src/extra/widgets/span/lv_span.c ****     const lv_font_t * font;
 632:lvgl/src/extra/widgets/span/lv_span.c ****     lv_style_value_t value;
 633:lvgl/src/extra/widgets/span/lv_span.c ****     lv_res_t res = lv_style_get_prop(&span->style, LV_STYLE_TEXT_FONT, &value);
 634:lvgl/src/extra/widgets/span/lv_span.c ****     if(res != LV_RES_OK) {
 635:lvgl/src/extra/widgets/span/lv_span.c ****         font = lv_obj_get_style_text_font(par, LV_PART_MAIN);
 636:lvgl/src/extra/widgets/span/lv_span.c ****     }
 637:lvgl/src/extra/widgets/span/lv_span.c ****     else {
 638:lvgl/src/extra/widgets/span/lv_span.c ****         font = (const lv_font_t *)value.ptr;
 639:lvgl/src/extra/widgets/span/lv_span.c ****     }
ARM GAS  C:\Users\BLACK_~1\AppData\Local\Temp\ccmy2bqO.s 			page 14


 640:lvgl/src/extra/widgets/span/lv_span.c ****     return font;
 641:lvgl/src/extra/widgets/span/lv_span.c **** }
 642:lvgl/src/extra/widgets/span/lv_span.c **** 
 643:lvgl/src/extra/widgets/span/lv_span.c **** static lv_coord_t lv_span_get_style_text_letter_space(lv_obj_t * par, lv_span_t * span)
 644:lvgl/src/extra/widgets/span/lv_span.c **** {
 110              		.loc 1 644 1 is_stmt 1 view -0
 111              		.cfi_startproc
 112              		@ args = 0, pretend = 0, frame = 8
 113              		@ frame_needed = 0, uses_anonymous_args = 0
 114              		.loc 1 644 1 is_stmt 0 view .LVU12
 115 0000 10B5     		push	{r4, lr}
 116              	.LCFI0:
 117              		.cfi_def_cfa_offset 8
 118              		.cfi_offset 4, -8
 119              		.cfi_offset 14, -4
 120 0002 82B0     		sub	sp, sp, #8
 121              	.LCFI1:
 122              		.cfi_def_cfa_offset 16
 123 0004 0446     		mov	r4, r0
 124 0006 0846     		mov	r0, r1
 125              	.LVL3:
 645:lvgl/src/extra/widgets/span/lv_span.c ****     lv_coord_t letter_space;
 126              		.loc 1 645 5 is_stmt 1 view .LVU13
 646:lvgl/src/extra/widgets/span/lv_span.c ****     lv_style_value_t value;
 127              		.loc 1 646 5 view .LVU14
 647:lvgl/src/extra/widgets/span/lv_span.c ****     lv_res_t res = lv_style_get_prop(&span->style, LV_STYLE_TEXT_LETTER_SPACE, &value);
 128              		.loc 1 647 5 view .LVU15
 129              		.loc 1 647 20 is_stmt 0 view .LVU16
 130 0008 01AA     		add	r2, sp, #4
 131 000a 41F25A41 		movw	r1, #5210
 132              	.LVL4:
 133              		.loc 1 647 20 view .LVU17
 134 000e 0830     		adds	r0, r0, #8
 135              	.LVL5:
 136              		.loc 1 647 20 view .LVU18
 137 0010 FFF7FEFF 		bl	lv_style_get_prop
 138              	.LVL6:
 648:lvgl/src/extra/widgets/span/lv_span.c ****     if(res != LV_RES_OK) {
 139              		.loc 1 648 5 is_stmt 1 view .LVU19
 140              		.loc 1 648 7 is_stmt 0 view .LVU20
 141 0014 0128     		cmp	r0, #1
 142 0016 03D1     		bne	.L14
 649:lvgl/src/extra/widgets/span/lv_span.c ****         letter_space = lv_obj_get_style_text_letter_space(par, LV_PART_MAIN);
 650:lvgl/src/extra/widgets/span/lv_span.c ****     }
 651:lvgl/src/extra/widgets/span/lv_span.c ****     else {
 652:lvgl/src/extra/widgets/span/lv_span.c ****         letter_space = (lv_coord_t)value.num;
 143              		.loc 1 652 9 is_stmt 1 view .LVU21
 144              		.loc 1 652 22 is_stmt 0 view .LVU22
 145 0018 BDF90400 		ldrsh	r0, [sp, #4]
 146              	.LVL7:
 147              	.L12:
 653:lvgl/src/extra/widgets/span/lv_span.c ****     }
 654:lvgl/src/extra/widgets/span/lv_span.c ****     return letter_space;
 148              		.loc 1 654 5 is_stmt 1 view .LVU23
 655:lvgl/src/extra/widgets/span/lv_span.c **** }
 149              		.loc 1 655 1 is_stmt 0 view .LVU24
 150 001c 02B0     		add	sp, sp, #8
ARM GAS  C:\Users\BLACK_~1\AppData\Local\Temp\ccmy2bqO.s 			page 15


 151              	.LCFI2:
 152              		.cfi_remember_state
 153              		.cfi_def_cfa_offset 8
 154              		@ sp needed
 155 001e 10BD     		pop	{r4, pc}
 156              	.LVL8:
 157              	.L14:
 158              	.LCFI3:
 159              		.cfi_restore_state
 649:lvgl/src/extra/widgets/span/lv_span.c ****         letter_space = lv_obj_get_style_text_letter_space(par, LV_PART_MAIN);
 160              		.loc 1 649 9 is_stmt 1 view .LVU25
 161              	.LBB79:
 162              	.LBI79:
 163              		.file 2 "lvgl/src/extra/widgets/span/../../../../src/core/lv_obj_style_gen.h"
   1:lvgl/src/extra/widgets/span/../../../../src/core/lv_obj_style_gen.h **** static inline lv_coord_t lv_obj_get_style_width(const struct _lv_obj_t * obj, uint32_t part)
   2:lvgl/src/extra/widgets/span/../../../../src/core/lv_obj_style_gen.h **** {
   3:lvgl/src/extra/widgets/span/../../../../src/core/lv_obj_style_gen.h ****     lv_style_value_t v = lv_obj_get_style_prop(obj, part, LV_STYLE_WIDTH);
   4:lvgl/src/extra/widgets/span/../../../../src/core/lv_obj_style_gen.h ****     return (lv_coord_t)v.num;
   5:lvgl/src/extra/widgets/span/../../../../src/core/lv_obj_style_gen.h **** }
   6:lvgl/src/extra/widgets/span/../../../../src/core/lv_obj_style_gen.h **** 
   7:lvgl/src/extra/widgets/span/../../../../src/core/lv_obj_style_gen.h **** static inline lv_coord_t lv_obj_get_style_min_width(const struct _lv_obj_t * obj, uint32_t part)
   8:lvgl/src/extra/widgets/span/../../../../src/core/lv_obj_style_gen.h **** {
   9:lvgl/src/extra/widgets/span/../../../../src/core/lv_obj_style_gen.h ****     lv_style_value_t v = lv_obj_get_style_prop(obj, part, LV_STYLE_MIN_WIDTH);
  10:lvgl/src/extra/widgets/span/../../../../src/core/lv_obj_style_gen.h ****     return (lv_coord_t)v.num;
  11:lvgl/src/extra/widgets/span/../../../../src/core/lv_obj_style_gen.h **** }
  12:lvgl/src/extra/widgets/span/../../../../src/core/lv_obj_style_gen.h **** 
  13:lvgl/src/extra/widgets/span/../../../../src/core/lv_obj_style_gen.h **** static inline lv_coord_t lv_obj_get_style_max_width(const struct _lv_obj_t * obj, uint32_t part)
  14:lvgl/src/extra/widgets/span/../../../../src/core/lv_obj_style_gen.h **** {
  15:lvgl/src/extra/widgets/span/../../../../src/core/lv_obj_style_gen.h ****     lv_style_value_t v = lv_obj_get_style_prop(obj, part, LV_STYLE_MAX_WIDTH);
  16:lvgl/src/extra/widgets/span/../../../../src/core/lv_obj_style_gen.h ****     return (lv_coord_t)v.num;
  17:lvgl/src/extra/widgets/span/../../../../src/core/lv_obj_style_gen.h **** }
  18:lvgl/src/extra/widgets/span/../../../../src/core/lv_obj_style_gen.h **** 
  19:lvgl/src/extra/widgets/span/../../../../src/core/lv_obj_style_gen.h **** static inline lv_coord_t lv_obj_get_style_height(const struct _lv_obj_t * obj, uint32_t part)
  20:lvgl/src/extra/widgets/span/../../../../src/core/lv_obj_style_gen.h **** {
  21:lvgl/src/extra/widgets/span/../../../../src/core/lv_obj_style_gen.h ****     lv_style_value_t v = lv_obj_get_style_prop(obj, part, LV_STYLE_HEIGHT);
  22:lvgl/src/extra/widgets/span/../../../../src/core/lv_obj_style_gen.h ****     return (lv_coord_t)v.num;
  23:lvgl/src/extra/widgets/span/../../../../src/core/lv_obj_style_gen.h **** }
  24:lvgl/src/extra/widgets/span/../../../../src/core/lv_obj_style_gen.h **** 
  25:lvgl/src/extra/widgets/span/../../../../src/core/lv_obj_style_gen.h **** static inline lv_coord_t lv_obj_get_style_min_height(const struct _lv_obj_t * obj, uint32_t part)
  26:lvgl/src/extra/widgets/span/../../../../src/core/lv_obj_style_gen.h **** {
  27:lvgl/src/extra/widgets/span/../../../../src/core/lv_obj_style_gen.h ****     lv_style_value_t v = lv_obj_get_style_prop(obj, part, LV_STYLE_MIN_HEIGHT);
  28:lvgl/src/extra/widgets/span/../../../../src/core/lv_obj_style_gen.h ****     return (lv_coord_t)v.num;
  29:lvgl/src/extra/widgets/span/../../../../src/core/lv_obj_style_gen.h **** }
  30:lvgl/src/extra/widgets/span/../../../../src/core/lv_obj_style_gen.h **** 
  31:lvgl/src/extra/widgets/span/../../../../src/core/lv_obj_style_gen.h **** static inline lv_coord_t lv_obj_get_style_max_height(const struct _lv_obj_t * obj, uint32_t part)
  32:lvgl/src/extra/widgets/span/../../../../src/core/lv_obj_style_gen.h **** {
  33:lvgl/src/extra/widgets/span/../../../../src/core/lv_obj_style_gen.h ****     lv_style_value_t v = lv_obj_get_style_prop(obj, part, LV_STYLE_MAX_HEIGHT);
  34:lvgl/src/extra/widgets/span/../../../../src/core/lv_obj_style_gen.h ****     return (lv_coord_t)v.num;
  35:lvgl/src/extra/widgets/span/../../../../src/core/lv_obj_style_gen.h **** }
  36:lvgl/src/extra/widgets/span/../../../../src/core/lv_obj_style_gen.h **** 
  37:lvgl/src/extra/widgets/span/../../../../src/core/lv_obj_style_gen.h **** static inline lv_coord_t lv_obj_get_style_x(const struct _lv_obj_t * obj, uint32_t part)
  38:lvgl/src/extra/widgets/span/../../../../src/core/lv_obj_style_gen.h **** {
  39:lvgl/src/extra/widgets/span/../../../../src/core/lv_obj_style_gen.h ****     lv_style_value_t v = lv_obj_get_style_prop(obj, part, LV_STYLE_X);
  40:lvgl/src/extra/widgets/span/../../../../src/core/lv_obj_style_gen.h ****     return (lv_coord_t)v.num;
  41:lvgl/src/extra/widgets/span/../../../../src/core/lv_obj_style_gen.h **** }
  42:lvgl/src/extra/widgets/span/../../../../src/core/lv_obj_style_gen.h **** 
  43:lvgl/src/extra/widgets/span/../../../../src/core/lv_obj_style_gen.h **** static inline lv_coord_t lv_obj_get_style_y(const struct _lv_obj_t * obj, uint32_t part)
ARM GAS  C:\Users\BLACK_~1\AppData\Local\Temp\ccmy2bqO.s 			page 16


  44:lvgl/src/extra/widgets/span/../../../../src/core/lv_obj_style_gen.h **** {
  45:lvgl/src/extra/widgets/span/../../../../src/core/lv_obj_style_gen.h ****     lv_style_value_t v = lv_obj_get_style_prop(obj, part, LV_STYLE_Y);
  46:lvgl/src/extra/widgets/span/../../../../src/core/lv_obj_style_gen.h ****     return (lv_coord_t)v.num;
  47:lvgl/src/extra/widgets/span/../../../../src/core/lv_obj_style_gen.h **** }
  48:lvgl/src/extra/widgets/span/../../../../src/core/lv_obj_style_gen.h **** 
  49:lvgl/src/extra/widgets/span/../../../../src/core/lv_obj_style_gen.h **** static inline lv_align_t lv_obj_get_style_align(const struct _lv_obj_t * obj, uint32_t part)
  50:lvgl/src/extra/widgets/span/../../../../src/core/lv_obj_style_gen.h **** {
  51:lvgl/src/extra/widgets/span/../../../../src/core/lv_obj_style_gen.h ****     lv_style_value_t v = lv_obj_get_style_prop(obj, part, LV_STYLE_ALIGN);
  52:lvgl/src/extra/widgets/span/../../../../src/core/lv_obj_style_gen.h ****     return (lv_align_t)v.num;
  53:lvgl/src/extra/widgets/span/../../../../src/core/lv_obj_style_gen.h **** }
  54:lvgl/src/extra/widgets/span/../../../../src/core/lv_obj_style_gen.h **** 
  55:lvgl/src/extra/widgets/span/../../../../src/core/lv_obj_style_gen.h **** static inline lv_coord_t lv_obj_get_style_transform_width(const struct _lv_obj_t * obj, uint32_t pa
  56:lvgl/src/extra/widgets/span/../../../../src/core/lv_obj_style_gen.h **** {
  57:lvgl/src/extra/widgets/span/../../../../src/core/lv_obj_style_gen.h ****     lv_style_value_t v = lv_obj_get_style_prop(obj, part, LV_STYLE_TRANSFORM_WIDTH);
  58:lvgl/src/extra/widgets/span/../../../../src/core/lv_obj_style_gen.h ****     return (lv_coord_t)v.num;
  59:lvgl/src/extra/widgets/span/../../../../src/core/lv_obj_style_gen.h **** }
  60:lvgl/src/extra/widgets/span/../../../../src/core/lv_obj_style_gen.h **** 
  61:lvgl/src/extra/widgets/span/../../../../src/core/lv_obj_style_gen.h **** static inline lv_coord_t lv_obj_get_style_transform_height(const struct _lv_obj_t * obj, uint32_t p
  62:lvgl/src/extra/widgets/span/../../../../src/core/lv_obj_style_gen.h **** {
  63:lvgl/src/extra/widgets/span/../../../../src/core/lv_obj_style_gen.h ****     lv_style_value_t v = lv_obj_get_style_prop(obj, part, LV_STYLE_TRANSFORM_HEIGHT);
  64:lvgl/src/extra/widgets/span/../../../../src/core/lv_obj_style_gen.h ****     return (lv_coord_t)v.num;
  65:lvgl/src/extra/widgets/span/../../../../src/core/lv_obj_style_gen.h **** }
  66:lvgl/src/extra/widgets/span/../../../../src/core/lv_obj_style_gen.h **** 
  67:lvgl/src/extra/widgets/span/../../../../src/core/lv_obj_style_gen.h **** static inline lv_coord_t lv_obj_get_style_translate_x(const struct _lv_obj_t * obj, uint32_t part)
  68:lvgl/src/extra/widgets/span/../../../../src/core/lv_obj_style_gen.h **** {
  69:lvgl/src/extra/widgets/span/../../../../src/core/lv_obj_style_gen.h ****     lv_style_value_t v = lv_obj_get_style_prop(obj, part, LV_STYLE_TRANSLATE_X);
  70:lvgl/src/extra/widgets/span/../../../../src/core/lv_obj_style_gen.h ****     return (lv_coord_t)v.num;
  71:lvgl/src/extra/widgets/span/../../../../src/core/lv_obj_style_gen.h **** }
  72:lvgl/src/extra/widgets/span/../../../../src/core/lv_obj_style_gen.h **** 
  73:lvgl/src/extra/widgets/span/../../../../src/core/lv_obj_style_gen.h **** static inline lv_coord_t lv_obj_get_style_translate_y(const struct _lv_obj_t * obj, uint32_t part)
  74:lvgl/src/extra/widgets/span/../../../../src/core/lv_obj_style_gen.h **** {
  75:lvgl/src/extra/widgets/span/../../../../src/core/lv_obj_style_gen.h ****     lv_style_value_t v = lv_obj_get_style_prop(obj, part, LV_STYLE_TRANSLATE_Y);
  76:lvgl/src/extra/widgets/span/../../../../src/core/lv_obj_style_gen.h ****     return (lv_coord_t)v.num;
  77:lvgl/src/extra/widgets/span/../../../../src/core/lv_obj_style_gen.h **** }
  78:lvgl/src/extra/widgets/span/../../../../src/core/lv_obj_style_gen.h **** 
  79:lvgl/src/extra/widgets/span/../../../../src/core/lv_obj_style_gen.h **** static inline lv_coord_t lv_obj_get_style_transform_zoom(const struct _lv_obj_t * obj, uint32_t par
  80:lvgl/src/extra/widgets/span/../../../../src/core/lv_obj_style_gen.h **** {
  81:lvgl/src/extra/widgets/span/../../../../src/core/lv_obj_style_gen.h ****     lv_style_value_t v = lv_obj_get_style_prop(obj, part, LV_STYLE_TRANSFORM_ZOOM);
  82:lvgl/src/extra/widgets/span/../../../../src/core/lv_obj_style_gen.h ****     return (lv_coord_t)v.num;
  83:lvgl/src/extra/widgets/span/../../../../src/core/lv_obj_style_gen.h **** }
  84:lvgl/src/extra/widgets/span/../../../../src/core/lv_obj_style_gen.h **** 
  85:lvgl/src/extra/widgets/span/../../../../src/core/lv_obj_style_gen.h **** static inline lv_coord_t lv_obj_get_style_transform_angle(const struct _lv_obj_t * obj, uint32_t pa
  86:lvgl/src/extra/widgets/span/../../../../src/core/lv_obj_style_gen.h **** {
  87:lvgl/src/extra/widgets/span/../../../../src/core/lv_obj_style_gen.h ****     lv_style_value_t v = lv_obj_get_style_prop(obj, part, LV_STYLE_TRANSFORM_ANGLE);
  88:lvgl/src/extra/widgets/span/../../../../src/core/lv_obj_style_gen.h ****     return (lv_coord_t)v.num;
  89:lvgl/src/extra/widgets/span/../../../../src/core/lv_obj_style_gen.h **** }
  90:lvgl/src/extra/widgets/span/../../../../src/core/lv_obj_style_gen.h **** 
  91:lvgl/src/extra/widgets/span/../../../../src/core/lv_obj_style_gen.h **** static inline lv_coord_t lv_obj_get_style_pad_top(const struct _lv_obj_t * obj, uint32_t part)
  92:lvgl/src/extra/widgets/span/../../../../src/core/lv_obj_style_gen.h **** {
  93:lvgl/src/extra/widgets/span/../../../../src/core/lv_obj_style_gen.h ****     lv_style_value_t v = lv_obj_get_style_prop(obj, part, LV_STYLE_PAD_TOP);
  94:lvgl/src/extra/widgets/span/../../../../src/core/lv_obj_style_gen.h ****     return (lv_coord_t)v.num;
  95:lvgl/src/extra/widgets/span/../../../../src/core/lv_obj_style_gen.h **** }
  96:lvgl/src/extra/widgets/span/../../../../src/core/lv_obj_style_gen.h **** 
  97:lvgl/src/extra/widgets/span/../../../../src/core/lv_obj_style_gen.h **** static inline lv_coord_t lv_obj_get_style_pad_bottom(const struct _lv_obj_t * obj, uint32_t part)
  98:lvgl/src/extra/widgets/span/../../../../src/core/lv_obj_style_gen.h **** {
  99:lvgl/src/extra/widgets/span/../../../../src/core/lv_obj_style_gen.h ****     lv_style_value_t v = lv_obj_get_style_prop(obj, part, LV_STYLE_PAD_BOTTOM);
 100:lvgl/src/extra/widgets/span/../../../../src/core/lv_obj_style_gen.h ****     return (lv_coord_t)v.num;
ARM GAS  C:\Users\BLACK_~1\AppData\Local\Temp\ccmy2bqO.s 			page 17


 101:lvgl/src/extra/widgets/span/../../../../src/core/lv_obj_style_gen.h **** }
 102:lvgl/src/extra/widgets/span/../../../../src/core/lv_obj_style_gen.h **** 
 103:lvgl/src/extra/widgets/span/../../../../src/core/lv_obj_style_gen.h **** static inline lv_coord_t lv_obj_get_style_pad_left(const struct _lv_obj_t * obj, uint32_t part)
 104:lvgl/src/extra/widgets/span/../../../../src/core/lv_obj_style_gen.h **** {
 105:lvgl/src/extra/widgets/span/../../../../src/core/lv_obj_style_gen.h ****     lv_style_value_t v = lv_obj_get_style_prop(obj, part, LV_STYLE_PAD_LEFT);
 106:lvgl/src/extra/widgets/span/../../../../src/core/lv_obj_style_gen.h ****     return (lv_coord_t)v.num;
 107:lvgl/src/extra/widgets/span/../../../../src/core/lv_obj_style_gen.h **** }
 108:lvgl/src/extra/widgets/span/../../../../src/core/lv_obj_style_gen.h **** 
 109:lvgl/src/extra/widgets/span/../../../../src/core/lv_obj_style_gen.h **** static inline lv_coord_t lv_obj_get_style_pad_right(const struct _lv_obj_t * obj, uint32_t part)
 110:lvgl/src/extra/widgets/span/../../../../src/core/lv_obj_style_gen.h **** {
 111:lvgl/src/extra/widgets/span/../../../../src/core/lv_obj_style_gen.h ****     lv_style_value_t v = lv_obj_get_style_prop(obj, part, LV_STYLE_PAD_RIGHT);
 112:lvgl/src/extra/widgets/span/../../../../src/core/lv_obj_style_gen.h ****     return (lv_coord_t)v.num;
 113:lvgl/src/extra/widgets/span/../../../../src/core/lv_obj_style_gen.h **** }
 114:lvgl/src/extra/widgets/span/../../../../src/core/lv_obj_style_gen.h **** 
 115:lvgl/src/extra/widgets/span/../../../../src/core/lv_obj_style_gen.h **** static inline lv_coord_t lv_obj_get_style_pad_row(const struct _lv_obj_t * obj, uint32_t part)
 116:lvgl/src/extra/widgets/span/../../../../src/core/lv_obj_style_gen.h **** {
 117:lvgl/src/extra/widgets/span/../../../../src/core/lv_obj_style_gen.h ****     lv_style_value_t v = lv_obj_get_style_prop(obj, part, LV_STYLE_PAD_ROW);
 118:lvgl/src/extra/widgets/span/../../../../src/core/lv_obj_style_gen.h ****     return (lv_coord_t)v.num;
 119:lvgl/src/extra/widgets/span/../../../../src/core/lv_obj_style_gen.h **** }
 120:lvgl/src/extra/widgets/span/../../../../src/core/lv_obj_style_gen.h **** 
 121:lvgl/src/extra/widgets/span/../../../../src/core/lv_obj_style_gen.h **** static inline lv_coord_t lv_obj_get_style_pad_column(const struct _lv_obj_t * obj, uint32_t part)
 122:lvgl/src/extra/widgets/span/../../../../src/core/lv_obj_style_gen.h **** {
 123:lvgl/src/extra/widgets/span/../../../../src/core/lv_obj_style_gen.h ****     lv_style_value_t v = lv_obj_get_style_prop(obj, part, LV_STYLE_PAD_COLUMN);
 124:lvgl/src/extra/widgets/span/../../../../src/core/lv_obj_style_gen.h ****     return (lv_coord_t)v.num;
 125:lvgl/src/extra/widgets/span/../../../../src/core/lv_obj_style_gen.h **** }
 126:lvgl/src/extra/widgets/span/../../../../src/core/lv_obj_style_gen.h **** 
 127:lvgl/src/extra/widgets/span/../../../../src/core/lv_obj_style_gen.h **** static inline lv_coord_t lv_obj_get_style_radius(const struct _lv_obj_t * obj, uint32_t part)
 128:lvgl/src/extra/widgets/span/../../../../src/core/lv_obj_style_gen.h **** {
 129:lvgl/src/extra/widgets/span/../../../../src/core/lv_obj_style_gen.h ****     lv_style_value_t v = lv_obj_get_style_prop(obj, part, LV_STYLE_RADIUS);
 130:lvgl/src/extra/widgets/span/../../../../src/core/lv_obj_style_gen.h ****     return (lv_coord_t)v.num;
 131:lvgl/src/extra/widgets/span/../../../../src/core/lv_obj_style_gen.h **** }
 132:lvgl/src/extra/widgets/span/../../../../src/core/lv_obj_style_gen.h **** 
 133:lvgl/src/extra/widgets/span/../../../../src/core/lv_obj_style_gen.h **** static inline bool lv_obj_get_style_clip_corner(const struct _lv_obj_t * obj, uint32_t part)
 134:lvgl/src/extra/widgets/span/../../../../src/core/lv_obj_style_gen.h **** {
 135:lvgl/src/extra/widgets/span/../../../../src/core/lv_obj_style_gen.h ****     lv_style_value_t v = lv_obj_get_style_prop(obj, part, LV_STYLE_CLIP_CORNER);
 136:lvgl/src/extra/widgets/span/../../../../src/core/lv_obj_style_gen.h ****     return (bool)v.num;
 137:lvgl/src/extra/widgets/span/../../../../src/core/lv_obj_style_gen.h **** }
 138:lvgl/src/extra/widgets/span/../../../../src/core/lv_obj_style_gen.h **** 
 139:lvgl/src/extra/widgets/span/../../../../src/core/lv_obj_style_gen.h **** static inline lv_opa_t lv_obj_get_style_opa(const struct _lv_obj_t * obj, uint32_t part)
 140:lvgl/src/extra/widgets/span/../../../../src/core/lv_obj_style_gen.h **** {
 141:lvgl/src/extra/widgets/span/../../../../src/core/lv_obj_style_gen.h ****     lv_style_value_t v = lv_obj_get_style_prop(obj, part, LV_STYLE_OPA);
 142:lvgl/src/extra/widgets/span/../../../../src/core/lv_obj_style_gen.h ****     return (lv_opa_t)v.num;
 143:lvgl/src/extra/widgets/span/../../../../src/core/lv_obj_style_gen.h **** }
 144:lvgl/src/extra/widgets/span/../../../../src/core/lv_obj_style_gen.h **** 
 145:lvgl/src/extra/widgets/span/../../../../src/core/lv_obj_style_gen.h **** static inline const lv_color_filter_dsc_t * lv_obj_get_style_color_filter_dsc(const struct _lv_obj_
 146:lvgl/src/extra/widgets/span/../../../../src/core/lv_obj_style_gen.h **** {
 147:lvgl/src/extra/widgets/span/../../../../src/core/lv_obj_style_gen.h ****     lv_style_value_t v = lv_obj_get_style_prop(obj, part, LV_STYLE_COLOR_FILTER_DSC);
 148:lvgl/src/extra/widgets/span/../../../../src/core/lv_obj_style_gen.h ****     return (const lv_color_filter_dsc_t *)v.ptr;
 149:lvgl/src/extra/widgets/span/../../../../src/core/lv_obj_style_gen.h **** }
 150:lvgl/src/extra/widgets/span/../../../../src/core/lv_obj_style_gen.h **** 
 151:lvgl/src/extra/widgets/span/../../../../src/core/lv_obj_style_gen.h **** static inline lv_opa_t lv_obj_get_style_color_filter_opa(const struct _lv_obj_t * obj, uint32_t par
 152:lvgl/src/extra/widgets/span/../../../../src/core/lv_obj_style_gen.h **** {
 153:lvgl/src/extra/widgets/span/../../../../src/core/lv_obj_style_gen.h ****     lv_style_value_t v = lv_obj_get_style_prop(obj, part, LV_STYLE_COLOR_FILTER_OPA);
 154:lvgl/src/extra/widgets/span/../../../../src/core/lv_obj_style_gen.h ****     return (lv_opa_t)v.num;
 155:lvgl/src/extra/widgets/span/../../../../src/core/lv_obj_style_gen.h **** }
 156:lvgl/src/extra/widgets/span/../../../../src/core/lv_obj_style_gen.h **** 
 157:lvgl/src/extra/widgets/span/../../../../src/core/lv_obj_style_gen.h **** static inline uint32_t lv_obj_get_style_anim_time(const struct _lv_obj_t * obj, uint32_t part)
ARM GAS  C:\Users\BLACK_~1\AppData\Local\Temp\ccmy2bqO.s 			page 18


 158:lvgl/src/extra/widgets/span/../../../../src/core/lv_obj_style_gen.h **** {
 159:lvgl/src/extra/widgets/span/../../../../src/core/lv_obj_style_gen.h ****     lv_style_value_t v = lv_obj_get_style_prop(obj, part, LV_STYLE_ANIM_TIME);
 160:lvgl/src/extra/widgets/span/../../../../src/core/lv_obj_style_gen.h ****     return (uint32_t)v.num;
 161:lvgl/src/extra/widgets/span/../../../../src/core/lv_obj_style_gen.h **** }
 162:lvgl/src/extra/widgets/span/../../../../src/core/lv_obj_style_gen.h **** 
 163:lvgl/src/extra/widgets/span/../../../../src/core/lv_obj_style_gen.h **** static inline uint32_t lv_obj_get_style_anim_speed(const struct _lv_obj_t * obj, uint32_t part)
 164:lvgl/src/extra/widgets/span/../../../../src/core/lv_obj_style_gen.h **** {
 165:lvgl/src/extra/widgets/span/../../../../src/core/lv_obj_style_gen.h ****     lv_style_value_t v = lv_obj_get_style_prop(obj, part, LV_STYLE_ANIM_SPEED);
 166:lvgl/src/extra/widgets/span/../../../../src/core/lv_obj_style_gen.h ****     return (uint32_t)v.num;
 167:lvgl/src/extra/widgets/span/../../../../src/core/lv_obj_style_gen.h **** }
 168:lvgl/src/extra/widgets/span/../../../../src/core/lv_obj_style_gen.h **** 
 169:lvgl/src/extra/widgets/span/../../../../src/core/lv_obj_style_gen.h **** static inline const lv_style_transition_dsc_t * lv_obj_get_style_transition(const struct _lv_obj_t 
 170:lvgl/src/extra/widgets/span/../../../../src/core/lv_obj_style_gen.h **** {
 171:lvgl/src/extra/widgets/span/../../../../src/core/lv_obj_style_gen.h ****     lv_style_value_t v = lv_obj_get_style_prop(obj, part, LV_STYLE_TRANSITION);
 172:lvgl/src/extra/widgets/span/../../../../src/core/lv_obj_style_gen.h ****     return (const lv_style_transition_dsc_t *)v.ptr;
 173:lvgl/src/extra/widgets/span/../../../../src/core/lv_obj_style_gen.h **** }
 174:lvgl/src/extra/widgets/span/../../../../src/core/lv_obj_style_gen.h **** 
 175:lvgl/src/extra/widgets/span/../../../../src/core/lv_obj_style_gen.h **** static inline lv_blend_mode_t lv_obj_get_style_blend_mode(const struct _lv_obj_t * obj, uint32_t pa
 176:lvgl/src/extra/widgets/span/../../../../src/core/lv_obj_style_gen.h **** {
 177:lvgl/src/extra/widgets/span/../../../../src/core/lv_obj_style_gen.h ****     lv_style_value_t v = lv_obj_get_style_prop(obj, part, LV_STYLE_BLEND_MODE);
 178:lvgl/src/extra/widgets/span/../../../../src/core/lv_obj_style_gen.h ****     return (lv_blend_mode_t)v.num;
 179:lvgl/src/extra/widgets/span/../../../../src/core/lv_obj_style_gen.h **** }
 180:lvgl/src/extra/widgets/span/../../../../src/core/lv_obj_style_gen.h **** 
 181:lvgl/src/extra/widgets/span/../../../../src/core/lv_obj_style_gen.h **** static inline uint16_t lv_obj_get_style_layout(const struct _lv_obj_t * obj, uint32_t part)
 182:lvgl/src/extra/widgets/span/../../../../src/core/lv_obj_style_gen.h **** {
 183:lvgl/src/extra/widgets/span/../../../../src/core/lv_obj_style_gen.h ****     lv_style_value_t v = lv_obj_get_style_prop(obj, part, LV_STYLE_LAYOUT);
 184:lvgl/src/extra/widgets/span/../../../../src/core/lv_obj_style_gen.h ****     return (uint16_t)v.num;
 185:lvgl/src/extra/widgets/span/../../../../src/core/lv_obj_style_gen.h **** }
 186:lvgl/src/extra/widgets/span/../../../../src/core/lv_obj_style_gen.h **** 
 187:lvgl/src/extra/widgets/span/../../../../src/core/lv_obj_style_gen.h **** static inline lv_base_dir_t lv_obj_get_style_base_dir(const struct _lv_obj_t * obj, uint32_t part)
 188:lvgl/src/extra/widgets/span/../../../../src/core/lv_obj_style_gen.h **** {
 189:lvgl/src/extra/widgets/span/../../../../src/core/lv_obj_style_gen.h ****     lv_style_value_t v = lv_obj_get_style_prop(obj, part, LV_STYLE_BASE_DIR);
 190:lvgl/src/extra/widgets/span/../../../../src/core/lv_obj_style_gen.h ****     return (lv_base_dir_t)v.num;
 191:lvgl/src/extra/widgets/span/../../../../src/core/lv_obj_style_gen.h **** }
 192:lvgl/src/extra/widgets/span/../../../../src/core/lv_obj_style_gen.h **** 
 193:lvgl/src/extra/widgets/span/../../../../src/core/lv_obj_style_gen.h **** static inline lv_color_t lv_obj_get_style_bg_color(const struct _lv_obj_t * obj, uint32_t part)
 194:lvgl/src/extra/widgets/span/../../../../src/core/lv_obj_style_gen.h **** {
 195:lvgl/src/extra/widgets/span/../../../../src/core/lv_obj_style_gen.h ****     lv_style_value_t v = lv_obj_get_style_prop(obj, part, LV_STYLE_BG_COLOR);
 196:lvgl/src/extra/widgets/span/../../../../src/core/lv_obj_style_gen.h ****     return v.color;
 197:lvgl/src/extra/widgets/span/../../../../src/core/lv_obj_style_gen.h **** }
 198:lvgl/src/extra/widgets/span/../../../../src/core/lv_obj_style_gen.h **** 
 199:lvgl/src/extra/widgets/span/../../../../src/core/lv_obj_style_gen.h **** static inline lv_color_t lv_obj_get_style_bg_color_filtered(const struct _lv_obj_t * obj, uint32_t 
 200:lvgl/src/extra/widgets/span/../../../../src/core/lv_obj_style_gen.h **** {
 201:lvgl/src/extra/widgets/span/../../../../src/core/lv_obj_style_gen.h ****     lv_style_value_t v = lv_obj_get_style_prop(obj, part, LV_STYLE_BG_COLOR_FILTERED);
 202:lvgl/src/extra/widgets/span/../../../../src/core/lv_obj_style_gen.h ****     return v.color;
 203:lvgl/src/extra/widgets/span/../../../../src/core/lv_obj_style_gen.h **** }
 204:lvgl/src/extra/widgets/span/../../../../src/core/lv_obj_style_gen.h **** 
 205:lvgl/src/extra/widgets/span/../../../../src/core/lv_obj_style_gen.h **** static inline lv_opa_t lv_obj_get_style_bg_opa(const struct _lv_obj_t * obj, uint32_t part)
 206:lvgl/src/extra/widgets/span/../../../../src/core/lv_obj_style_gen.h **** {
 207:lvgl/src/extra/widgets/span/../../../../src/core/lv_obj_style_gen.h ****     lv_style_value_t v = lv_obj_get_style_prop(obj, part, LV_STYLE_BG_OPA);
 208:lvgl/src/extra/widgets/span/../../../../src/core/lv_obj_style_gen.h ****     return (lv_opa_t)v.num;
 209:lvgl/src/extra/widgets/span/../../../../src/core/lv_obj_style_gen.h **** }
 210:lvgl/src/extra/widgets/span/../../../../src/core/lv_obj_style_gen.h **** 
 211:lvgl/src/extra/widgets/span/../../../../src/core/lv_obj_style_gen.h **** static inline lv_color_t lv_obj_get_style_bg_grad_color(const struct _lv_obj_t * obj, uint32_t part
 212:lvgl/src/extra/widgets/span/../../../../src/core/lv_obj_style_gen.h **** {
 213:lvgl/src/extra/widgets/span/../../../../src/core/lv_obj_style_gen.h ****     lv_style_value_t v = lv_obj_get_style_prop(obj, part, LV_STYLE_BG_GRAD_COLOR);
 214:lvgl/src/extra/widgets/span/../../../../src/core/lv_obj_style_gen.h ****     return v.color;
ARM GAS  C:\Users\BLACK_~1\AppData\Local\Temp\ccmy2bqO.s 			page 19


 215:lvgl/src/extra/widgets/span/../../../../src/core/lv_obj_style_gen.h **** }
 216:lvgl/src/extra/widgets/span/../../../../src/core/lv_obj_style_gen.h **** 
 217:lvgl/src/extra/widgets/span/../../../../src/core/lv_obj_style_gen.h **** static inline lv_color_t lv_obj_get_style_bg_grad_color_filtered(const struct _lv_obj_t * obj, uint
 218:lvgl/src/extra/widgets/span/../../../../src/core/lv_obj_style_gen.h **** {
 219:lvgl/src/extra/widgets/span/../../../../src/core/lv_obj_style_gen.h ****     lv_style_value_t v = lv_obj_get_style_prop(obj, part, LV_STYLE_BG_GRAD_COLOR_FILTERED);
 220:lvgl/src/extra/widgets/span/../../../../src/core/lv_obj_style_gen.h ****     return v.color;
 221:lvgl/src/extra/widgets/span/../../../../src/core/lv_obj_style_gen.h **** }
 222:lvgl/src/extra/widgets/span/../../../../src/core/lv_obj_style_gen.h **** 
 223:lvgl/src/extra/widgets/span/../../../../src/core/lv_obj_style_gen.h **** static inline lv_grad_dir_t lv_obj_get_style_bg_grad_dir(const struct _lv_obj_t * obj, uint32_t par
 224:lvgl/src/extra/widgets/span/../../../../src/core/lv_obj_style_gen.h **** {
 225:lvgl/src/extra/widgets/span/../../../../src/core/lv_obj_style_gen.h ****     lv_style_value_t v = lv_obj_get_style_prop(obj, part, LV_STYLE_BG_GRAD_DIR);
 226:lvgl/src/extra/widgets/span/../../../../src/core/lv_obj_style_gen.h ****     return (lv_grad_dir_t)v.num;
 227:lvgl/src/extra/widgets/span/../../../../src/core/lv_obj_style_gen.h **** }
 228:lvgl/src/extra/widgets/span/../../../../src/core/lv_obj_style_gen.h **** 
 229:lvgl/src/extra/widgets/span/../../../../src/core/lv_obj_style_gen.h **** static inline lv_coord_t lv_obj_get_style_bg_main_stop(const struct _lv_obj_t * obj, uint32_t part)
 230:lvgl/src/extra/widgets/span/../../../../src/core/lv_obj_style_gen.h **** {
 231:lvgl/src/extra/widgets/span/../../../../src/core/lv_obj_style_gen.h ****     lv_style_value_t v = lv_obj_get_style_prop(obj, part, LV_STYLE_BG_MAIN_STOP);
 232:lvgl/src/extra/widgets/span/../../../../src/core/lv_obj_style_gen.h ****     return (lv_coord_t)v.num;
 233:lvgl/src/extra/widgets/span/../../../../src/core/lv_obj_style_gen.h **** }
 234:lvgl/src/extra/widgets/span/../../../../src/core/lv_obj_style_gen.h **** 
 235:lvgl/src/extra/widgets/span/../../../../src/core/lv_obj_style_gen.h **** static inline lv_coord_t lv_obj_get_style_bg_grad_stop(const struct _lv_obj_t * obj, uint32_t part)
 236:lvgl/src/extra/widgets/span/../../../../src/core/lv_obj_style_gen.h **** {
 237:lvgl/src/extra/widgets/span/../../../../src/core/lv_obj_style_gen.h ****     lv_style_value_t v = lv_obj_get_style_prop(obj, part, LV_STYLE_BG_GRAD_STOP);
 238:lvgl/src/extra/widgets/span/../../../../src/core/lv_obj_style_gen.h ****     return (lv_coord_t)v.num;
 239:lvgl/src/extra/widgets/span/../../../../src/core/lv_obj_style_gen.h **** }
 240:lvgl/src/extra/widgets/span/../../../../src/core/lv_obj_style_gen.h **** 
 241:lvgl/src/extra/widgets/span/../../../../src/core/lv_obj_style_gen.h **** static inline const void * lv_obj_get_style_bg_img_src(const struct _lv_obj_t * obj, uint32_t part)
 242:lvgl/src/extra/widgets/span/../../../../src/core/lv_obj_style_gen.h **** {
 243:lvgl/src/extra/widgets/span/../../../../src/core/lv_obj_style_gen.h ****     lv_style_value_t v = lv_obj_get_style_prop(obj, part, LV_STYLE_BG_IMG_SRC);
 244:lvgl/src/extra/widgets/span/../../../../src/core/lv_obj_style_gen.h ****     return (const void *)v.ptr;
 245:lvgl/src/extra/widgets/span/../../../../src/core/lv_obj_style_gen.h **** }
 246:lvgl/src/extra/widgets/span/../../../../src/core/lv_obj_style_gen.h **** 
 247:lvgl/src/extra/widgets/span/../../../../src/core/lv_obj_style_gen.h **** static inline lv_opa_t lv_obj_get_style_bg_img_opa(const struct _lv_obj_t * obj, uint32_t part)
 248:lvgl/src/extra/widgets/span/../../../../src/core/lv_obj_style_gen.h **** {
 249:lvgl/src/extra/widgets/span/../../../../src/core/lv_obj_style_gen.h ****     lv_style_value_t v = lv_obj_get_style_prop(obj, part, LV_STYLE_BG_IMG_OPA);
 250:lvgl/src/extra/widgets/span/../../../../src/core/lv_obj_style_gen.h ****     return (lv_opa_t)v.num;
 251:lvgl/src/extra/widgets/span/../../../../src/core/lv_obj_style_gen.h **** }
 252:lvgl/src/extra/widgets/span/../../../../src/core/lv_obj_style_gen.h **** 
 253:lvgl/src/extra/widgets/span/../../../../src/core/lv_obj_style_gen.h **** static inline lv_color_t lv_obj_get_style_bg_img_recolor(const struct _lv_obj_t * obj, uint32_t par
 254:lvgl/src/extra/widgets/span/../../../../src/core/lv_obj_style_gen.h **** {
 255:lvgl/src/extra/widgets/span/../../../../src/core/lv_obj_style_gen.h ****     lv_style_value_t v = lv_obj_get_style_prop(obj, part, LV_STYLE_BG_IMG_RECOLOR);
 256:lvgl/src/extra/widgets/span/../../../../src/core/lv_obj_style_gen.h ****     return v.color;
 257:lvgl/src/extra/widgets/span/../../../../src/core/lv_obj_style_gen.h **** }
 258:lvgl/src/extra/widgets/span/../../../../src/core/lv_obj_style_gen.h **** 
 259:lvgl/src/extra/widgets/span/../../../../src/core/lv_obj_style_gen.h **** static inline lv_color_t lv_obj_get_style_bg_img_recolor_filtered(const struct _lv_obj_t * obj, uin
 260:lvgl/src/extra/widgets/span/../../../../src/core/lv_obj_style_gen.h **** {
 261:lvgl/src/extra/widgets/span/../../../../src/core/lv_obj_style_gen.h ****     lv_style_value_t v = lv_obj_get_style_prop(obj, part, LV_STYLE_BG_IMG_RECOLOR_FILTERED);
 262:lvgl/src/extra/widgets/span/../../../../src/core/lv_obj_style_gen.h ****     return v.color;
 263:lvgl/src/extra/widgets/span/../../../../src/core/lv_obj_style_gen.h **** }
 264:lvgl/src/extra/widgets/span/../../../../src/core/lv_obj_style_gen.h **** 
 265:lvgl/src/extra/widgets/span/../../../../src/core/lv_obj_style_gen.h **** static inline lv_opa_t lv_obj_get_style_bg_img_recolor_opa(const struct _lv_obj_t * obj, uint32_t p
 266:lvgl/src/extra/widgets/span/../../../../src/core/lv_obj_style_gen.h **** {
 267:lvgl/src/extra/widgets/span/../../../../src/core/lv_obj_style_gen.h ****     lv_style_value_t v = lv_obj_get_style_prop(obj, part, LV_STYLE_BG_IMG_RECOLOR_OPA);
 268:lvgl/src/extra/widgets/span/../../../../src/core/lv_obj_style_gen.h ****     return (lv_opa_t)v.num;
 269:lvgl/src/extra/widgets/span/../../../../src/core/lv_obj_style_gen.h **** }
 270:lvgl/src/extra/widgets/span/../../../../src/core/lv_obj_style_gen.h **** 
 271:lvgl/src/extra/widgets/span/../../../../src/core/lv_obj_style_gen.h **** static inline bool lv_obj_get_style_bg_img_tiled(const struct _lv_obj_t * obj, uint32_t part)
ARM GAS  C:\Users\BLACK_~1\AppData\Local\Temp\ccmy2bqO.s 			page 20


 272:lvgl/src/extra/widgets/span/../../../../src/core/lv_obj_style_gen.h **** {
 273:lvgl/src/extra/widgets/span/../../../../src/core/lv_obj_style_gen.h ****     lv_style_value_t v = lv_obj_get_style_prop(obj, part, LV_STYLE_BG_IMG_TILED);
 274:lvgl/src/extra/widgets/span/../../../../src/core/lv_obj_style_gen.h ****     return (bool)v.num;
 275:lvgl/src/extra/widgets/span/../../../../src/core/lv_obj_style_gen.h **** }
 276:lvgl/src/extra/widgets/span/../../../../src/core/lv_obj_style_gen.h **** 
 277:lvgl/src/extra/widgets/span/../../../../src/core/lv_obj_style_gen.h **** static inline lv_color_t lv_obj_get_style_border_color(const struct _lv_obj_t * obj, uint32_t part)
 278:lvgl/src/extra/widgets/span/../../../../src/core/lv_obj_style_gen.h **** {
 279:lvgl/src/extra/widgets/span/../../../../src/core/lv_obj_style_gen.h ****     lv_style_value_t v = lv_obj_get_style_prop(obj, part, LV_STYLE_BORDER_COLOR);
 280:lvgl/src/extra/widgets/span/../../../../src/core/lv_obj_style_gen.h ****     return v.color;
 281:lvgl/src/extra/widgets/span/../../../../src/core/lv_obj_style_gen.h **** }
 282:lvgl/src/extra/widgets/span/../../../../src/core/lv_obj_style_gen.h **** 
 283:lvgl/src/extra/widgets/span/../../../../src/core/lv_obj_style_gen.h **** static inline lv_color_t lv_obj_get_style_border_color_filtered(const struct _lv_obj_t * obj, uint3
 284:lvgl/src/extra/widgets/span/../../../../src/core/lv_obj_style_gen.h **** {
 285:lvgl/src/extra/widgets/span/../../../../src/core/lv_obj_style_gen.h ****     lv_style_value_t v = lv_obj_get_style_prop(obj, part, LV_STYLE_BORDER_COLOR_FILTERED);
 286:lvgl/src/extra/widgets/span/../../../../src/core/lv_obj_style_gen.h ****     return v.color;
 287:lvgl/src/extra/widgets/span/../../../../src/core/lv_obj_style_gen.h **** }
 288:lvgl/src/extra/widgets/span/../../../../src/core/lv_obj_style_gen.h **** 
 289:lvgl/src/extra/widgets/span/../../../../src/core/lv_obj_style_gen.h **** static inline lv_opa_t lv_obj_get_style_border_opa(const struct _lv_obj_t * obj, uint32_t part)
 290:lvgl/src/extra/widgets/span/../../../../src/core/lv_obj_style_gen.h **** {
 291:lvgl/src/extra/widgets/span/../../../../src/core/lv_obj_style_gen.h ****     lv_style_value_t v = lv_obj_get_style_prop(obj, part, LV_STYLE_BORDER_OPA);
 292:lvgl/src/extra/widgets/span/../../../../src/core/lv_obj_style_gen.h ****     return (lv_opa_t)v.num;
 293:lvgl/src/extra/widgets/span/../../../../src/core/lv_obj_style_gen.h **** }
 294:lvgl/src/extra/widgets/span/../../../../src/core/lv_obj_style_gen.h **** 
 295:lvgl/src/extra/widgets/span/../../../../src/core/lv_obj_style_gen.h **** static inline lv_coord_t lv_obj_get_style_border_width(const struct _lv_obj_t * obj, uint32_t part)
 296:lvgl/src/extra/widgets/span/../../../../src/core/lv_obj_style_gen.h **** {
 297:lvgl/src/extra/widgets/span/../../../../src/core/lv_obj_style_gen.h ****     lv_style_value_t v = lv_obj_get_style_prop(obj, part, LV_STYLE_BORDER_WIDTH);
 298:lvgl/src/extra/widgets/span/../../../../src/core/lv_obj_style_gen.h ****     return (lv_coord_t)v.num;
 299:lvgl/src/extra/widgets/span/../../../../src/core/lv_obj_style_gen.h **** }
 300:lvgl/src/extra/widgets/span/../../../../src/core/lv_obj_style_gen.h **** 
 301:lvgl/src/extra/widgets/span/../../../../src/core/lv_obj_style_gen.h **** static inline lv_border_side_t lv_obj_get_style_border_side(const struct _lv_obj_t * obj, uint32_t 
 302:lvgl/src/extra/widgets/span/../../../../src/core/lv_obj_style_gen.h **** {
 303:lvgl/src/extra/widgets/span/../../../../src/core/lv_obj_style_gen.h ****     lv_style_value_t v = lv_obj_get_style_prop(obj, part, LV_STYLE_BORDER_SIDE);
 304:lvgl/src/extra/widgets/span/../../../../src/core/lv_obj_style_gen.h ****     return (lv_border_side_t)v.num;
 305:lvgl/src/extra/widgets/span/../../../../src/core/lv_obj_style_gen.h **** }
 306:lvgl/src/extra/widgets/span/../../../../src/core/lv_obj_style_gen.h **** 
 307:lvgl/src/extra/widgets/span/../../../../src/core/lv_obj_style_gen.h **** static inline bool lv_obj_get_style_border_post(const struct _lv_obj_t * obj, uint32_t part)
 308:lvgl/src/extra/widgets/span/../../../../src/core/lv_obj_style_gen.h **** {
 309:lvgl/src/extra/widgets/span/../../../../src/core/lv_obj_style_gen.h ****     lv_style_value_t v = lv_obj_get_style_prop(obj, part, LV_STYLE_BORDER_POST);
 310:lvgl/src/extra/widgets/span/../../../../src/core/lv_obj_style_gen.h ****     return (bool)v.num;
 311:lvgl/src/extra/widgets/span/../../../../src/core/lv_obj_style_gen.h **** }
 312:lvgl/src/extra/widgets/span/../../../../src/core/lv_obj_style_gen.h **** 
 313:lvgl/src/extra/widgets/span/../../../../src/core/lv_obj_style_gen.h **** static inline lv_color_t lv_obj_get_style_text_color(const struct _lv_obj_t * obj, uint32_t part)
 314:lvgl/src/extra/widgets/span/../../../../src/core/lv_obj_style_gen.h **** {
 315:lvgl/src/extra/widgets/span/../../../../src/core/lv_obj_style_gen.h ****     lv_style_value_t v = lv_obj_get_style_prop(obj, part, LV_STYLE_TEXT_COLOR);
 316:lvgl/src/extra/widgets/span/../../../../src/core/lv_obj_style_gen.h ****     return v.color;
 317:lvgl/src/extra/widgets/span/../../../../src/core/lv_obj_style_gen.h **** }
 318:lvgl/src/extra/widgets/span/../../../../src/core/lv_obj_style_gen.h **** 
 319:lvgl/src/extra/widgets/span/../../../../src/core/lv_obj_style_gen.h **** static inline lv_color_t lv_obj_get_style_text_color_filtered(const struct _lv_obj_t * obj, uint32_
 320:lvgl/src/extra/widgets/span/../../../../src/core/lv_obj_style_gen.h **** {
 321:lvgl/src/extra/widgets/span/../../../../src/core/lv_obj_style_gen.h ****     lv_style_value_t v = lv_obj_get_style_prop(obj, part, LV_STYLE_TEXT_COLOR_FILTERED);
 322:lvgl/src/extra/widgets/span/../../../../src/core/lv_obj_style_gen.h ****     return v.color;
 323:lvgl/src/extra/widgets/span/../../../../src/core/lv_obj_style_gen.h **** }
 324:lvgl/src/extra/widgets/span/../../../../src/core/lv_obj_style_gen.h **** 
 325:lvgl/src/extra/widgets/span/../../../../src/core/lv_obj_style_gen.h **** static inline lv_opa_t lv_obj_get_style_text_opa(const struct _lv_obj_t * obj, uint32_t part)
 326:lvgl/src/extra/widgets/span/../../../../src/core/lv_obj_style_gen.h **** {
 327:lvgl/src/extra/widgets/span/../../../../src/core/lv_obj_style_gen.h ****     lv_style_value_t v = lv_obj_get_style_prop(obj, part, LV_STYLE_TEXT_OPA);
 328:lvgl/src/extra/widgets/span/../../../../src/core/lv_obj_style_gen.h ****     return (lv_opa_t)v.num;
ARM GAS  C:\Users\BLACK_~1\AppData\Local\Temp\ccmy2bqO.s 			page 21


 329:lvgl/src/extra/widgets/span/../../../../src/core/lv_obj_style_gen.h **** }
 330:lvgl/src/extra/widgets/span/../../../../src/core/lv_obj_style_gen.h **** 
 331:lvgl/src/extra/widgets/span/../../../../src/core/lv_obj_style_gen.h **** static inline const lv_font_t * lv_obj_get_style_text_font(const struct _lv_obj_t * obj, uint32_t p
 332:lvgl/src/extra/widgets/span/../../../../src/core/lv_obj_style_gen.h **** {
 333:lvgl/src/extra/widgets/span/../../../../src/core/lv_obj_style_gen.h ****     lv_style_value_t v = lv_obj_get_style_prop(obj, part, LV_STYLE_TEXT_FONT);
 334:lvgl/src/extra/widgets/span/../../../../src/core/lv_obj_style_gen.h ****     return (const lv_font_t *)v.ptr;
 335:lvgl/src/extra/widgets/span/../../../../src/core/lv_obj_style_gen.h **** }
 336:lvgl/src/extra/widgets/span/../../../../src/core/lv_obj_style_gen.h **** 
 337:lvgl/src/extra/widgets/span/../../../../src/core/lv_obj_style_gen.h **** static inline lv_coord_t lv_obj_get_style_text_letter_space(const struct _lv_obj_t * obj, uint32_t 
 164              		.loc 2 337 26 view .LVU26
 165              	.LBB80:
 338:lvgl/src/extra/widgets/span/../../../../src/core/lv_obj_style_gen.h **** {
 339:lvgl/src/extra/widgets/span/../../../../src/core/lv_obj_style_gen.h ****     lv_style_value_t v = lv_obj_get_style_prop(obj, part, LV_STYLE_TEXT_LETTER_SPACE);
 166              		.loc 2 339 5 view .LVU27
 167              		.loc 2 339 26 is_stmt 0 view .LVU28
 168 0020 41F25A42 		movw	r2, #5210
 169 0024 0021     		movs	r1, #0
 170 0026 2046     		mov	r0, r4
 171              	.LVL9:
 172              		.loc 2 339 26 view .LVU29
 173 0028 FFF7FEFF 		bl	lv_obj_get_style_prop
 174              	.LVL10:
 340:lvgl/src/extra/widgets/span/../../../../src/core/lv_obj_style_gen.h ****     return (lv_coord_t)v.num;
 175              		.loc 2 340 5 is_stmt 1 view .LVU30
 176              		.loc 2 340 12 is_stmt 0 view .LVU31
 177 002c 00B2     		sxth	r0, r0
 178              	.LVL11:
 179              		.loc 2 340 12 view .LVU32
 180              	.LBE80:
 181              	.LBE79:
 182 002e F5E7     		b	.L12
 183              		.cfi_endproc
 184              	.LFE211:
 186              		.section	.text.lv_span_get_style_text_font,"ax",%progbits
 187              		.align	1
 188              		.syntax unified
 189              		.thumb
 190              		.thumb_func
 192              	lv_span_get_style_text_font:
 193              	.LVL12:
 194              	.LFB210:
 630:lvgl/src/extra/widgets/span/lv_span.c ****     const lv_font_t * font;
 195              		.loc 1 630 1 is_stmt 1 view -0
 196              		.cfi_startproc
 197              		@ args = 0, pretend = 0, frame = 8
 198              		@ frame_needed = 0, uses_anonymous_args = 0
 630:lvgl/src/extra/widgets/span/lv_span.c ****     const lv_font_t * font;
 199              		.loc 1 630 1 is_stmt 0 view .LVU34
 200 0000 10B5     		push	{r4, lr}
 201              	.LCFI4:
 202              		.cfi_def_cfa_offset 8
 203              		.cfi_offset 4, -8
 204              		.cfi_offset 14, -4
 205 0002 82B0     		sub	sp, sp, #8
 206              	.LCFI5:
 207              		.cfi_def_cfa_offset 16
 208 0004 0446     		mov	r4, r0
ARM GAS  C:\Users\BLACK_~1\AppData\Local\Temp\ccmy2bqO.s 			page 22


 209 0006 0846     		mov	r0, r1
 210              	.LVL13:
 631:lvgl/src/extra/widgets/span/lv_span.c ****     lv_style_value_t value;
 211              		.loc 1 631 5 is_stmt 1 view .LVU35
 632:lvgl/src/extra/widgets/span/lv_span.c ****     lv_res_t res = lv_style_get_prop(&span->style, LV_STYLE_TEXT_FONT, &value);
 212              		.loc 1 632 5 view .LVU36
 633:lvgl/src/extra/widgets/span/lv_span.c ****     if(res != LV_RES_OK) {
 213              		.loc 1 633 5 view .LVU37
 633:lvgl/src/extra/widgets/span/lv_span.c ****     if(res != LV_RES_OK) {
 214              		.loc 1 633 20 is_stmt 0 view .LVU38
 215 0008 01AA     		add	r2, sp, #4
 216 000a 41F25941 		movw	r1, #5209
 217              	.LVL14:
 633:lvgl/src/extra/widgets/span/lv_span.c ****     if(res != LV_RES_OK) {
 218              		.loc 1 633 20 view .LVU39
 219 000e 0830     		adds	r0, r0, #8
 220              	.LVL15:
 633:lvgl/src/extra/widgets/span/lv_span.c ****     if(res != LV_RES_OK) {
 221              		.loc 1 633 20 view .LVU40
 222 0010 FFF7FEFF 		bl	lv_style_get_prop
 223              	.LVL16:
 634:lvgl/src/extra/widgets/span/lv_span.c ****         font = lv_obj_get_style_text_font(par, LV_PART_MAIN);
 224              		.loc 1 634 5 is_stmt 1 view .LVU41
 634:lvgl/src/extra/widgets/span/lv_span.c ****         font = lv_obj_get_style_text_font(par, LV_PART_MAIN);
 225              		.loc 1 634 7 is_stmt 0 view .LVU42
 226 0014 0128     		cmp	r0, #1
 227 0016 02D1     		bne	.L19
 638:lvgl/src/extra/widgets/span/lv_span.c ****     }
 228              		.loc 1 638 9 is_stmt 1 view .LVU43
 638:lvgl/src/extra/widgets/span/lv_span.c ****     }
 229              		.loc 1 638 14 is_stmt 0 view .LVU44
 230 0018 0198     		ldr	r0, [sp, #4]
 231              	.LVL17:
 640:lvgl/src/extra/widgets/span/lv_span.c **** }
 232              		.loc 1 640 5 is_stmt 1 view .LVU45
 233              	.L15:
 641:lvgl/src/extra/widgets/span/lv_span.c **** 
 234              		.loc 1 641 1 is_stmt 0 view .LVU46
 235 001a 02B0     		add	sp, sp, #8
 236              	.LCFI6:
 237              		.cfi_remember_state
 238              		.cfi_def_cfa_offset 8
 239              		@ sp needed
 240 001c 10BD     		pop	{r4, pc}
 241              	.LVL18:
 242              	.L19:
 243              	.LCFI7:
 244              		.cfi_restore_state
 635:lvgl/src/extra/widgets/span/lv_span.c ****     }
 245              		.loc 1 635 9 is_stmt 1 view .LVU47
 246              	.LBB81:
 247              	.LBI81:
 331:lvgl/src/extra/widgets/span/../../../../src/core/lv_obj_style_gen.h **** {
 248              		.loc 2 331 33 view .LVU48
 249              	.LBB82:
 333:lvgl/src/extra/widgets/span/../../../../src/core/lv_obj_style_gen.h ****     return (const lv_font_t *)v.ptr;
 250              		.loc 2 333 5 view .LVU49
ARM GAS  C:\Users\BLACK_~1\AppData\Local\Temp\ccmy2bqO.s 			page 23


 333:lvgl/src/extra/widgets/span/../../../../src/core/lv_obj_style_gen.h ****     return (const lv_font_t *)v.ptr;
 251              		.loc 2 333 26 is_stmt 0 view .LVU50
 252 001e 41F25942 		movw	r2, #5209
 253 0022 0021     		movs	r1, #0
 254 0024 2046     		mov	r0, r4
 255              	.LVL19:
 333:lvgl/src/extra/widgets/span/../../../../src/core/lv_obj_style_gen.h ****     return (const lv_font_t *)v.ptr;
 256              		.loc 2 333 26 view .LVU51
 257 0026 FFF7FEFF 		bl	lv_obj_get_style_prop
 258              	.LVL20:
 334:lvgl/src/extra/widgets/span/../../../../src/core/lv_obj_style_gen.h **** }
 259              		.loc 2 334 5 is_stmt 1 view .LVU52
 334:lvgl/src/extra/widgets/span/../../../../src/core/lv_obj_style_gen.h **** }
 260              		.loc 2 334 5 is_stmt 0 view .LVU53
 261              	.LBE82:
 262              	.LBE81:
 263 002a F6E7     		b	.L15
 264              		.cfi_endproc
 265              	.LFE210:
 267              		.section	.text.lv_span_get_style_text_color,"ax",%progbits
 268              		.align	1
 269              		.syntax unified
 270              		.thumb
 271              		.thumb_func
 273              	lv_span_get_style_text_color:
 274              	.LVL21:
 275              	.LFB212:
 656:lvgl/src/extra/widgets/span/lv_span.c **** 
 657:lvgl/src/extra/widgets/span/lv_span.c **** static lv_color_t lv_span_get_style_text_color(lv_obj_t * par, lv_span_t * span)
 658:lvgl/src/extra/widgets/span/lv_span.c **** {
 276              		.loc 1 658 1 is_stmt 1 view -0
 277              		.cfi_startproc
 278              		@ args = 0, pretend = 0, frame = 8
 279              		@ frame_needed = 0, uses_anonymous_args = 0
 280              		.loc 1 658 1 is_stmt 0 view .LVU55
 281 0000 10B5     		push	{r4, lr}
 282              	.LCFI8:
 283              		.cfi_def_cfa_offset 8
 284              		.cfi_offset 4, -8
 285              		.cfi_offset 14, -4
 286 0002 82B0     		sub	sp, sp, #8
 287              	.LCFI9:
 288              		.cfi_def_cfa_offset 16
 289 0004 0446     		mov	r4, r0
 290 0006 0846     		mov	r0, r1
 291              	.LVL22:
 659:lvgl/src/extra/widgets/span/lv_span.c ****     lv_style_value_t value;
 292              		.loc 1 659 5 is_stmt 1 view .LVU56
 660:lvgl/src/extra/widgets/span/lv_span.c ****     lv_res_t res = lv_style_get_prop(&span->style, LV_STYLE_TEXT_COLOR, &value);
 293              		.loc 1 660 5 view .LVU57
 294              		.loc 1 660 20 is_stmt 0 view .LVU58
 295 0008 01AA     		add	r2, sp, #4
 296 000a 40F25741 		movw	r1, #1111
 297              	.LVL23:
 298              		.loc 1 660 20 view .LVU59
 299 000e 0830     		adds	r0, r0, #8
 300              	.LVL24:
ARM GAS  C:\Users\BLACK_~1\AppData\Local\Temp\ccmy2bqO.s 			page 24


 301              		.loc 1 660 20 view .LVU60
 302 0010 FFF7FEFF 		bl	lv_style_get_prop
 303              	.LVL25:
 661:lvgl/src/extra/widgets/span/lv_span.c ****     if(res != LV_RES_OK) {
 304              		.loc 1 661 5 is_stmt 1 view .LVU61
 305              		.loc 1 661 7 is_stmt 0 view .LVU62
 306 0014 0128     		cmp	r0, #1
 307 0016 03D1     		bne	.L23
 308              	.LVL26:
 309              	.L21:
 662:lvgl/src/extra/widgets/span/lv_span.c ****         value.color = lv_obj_get_style_text_color(par, LV_PART_MAIN);
 663:lvgl/src/extra/widgets/span/lv_span.c ****     }
 664:lvgl/src/extra/widgets/span/lv_span.c ****     return value.color;
 310              		.loc 1 664 5 is_stmt 1 view .LVU63
 665:lvgl/src/extra/widgets/span/lv_span.c **** }
 311              		.loc 1 665 1 is_stmt 0 view .LVU64
 312 0018 BDF80400 		ldrh	r0, [sp, #4]
 313 001c 02B0     		add	sp, sp, #8
 314              	.LCFI10:
 315              		.cfi_remember_state
 316              		.cfi_def_cfa_offset 8
 317              		@ sp needed
 318 001e 10BD     		pop	{r4, pc}
 319              	.LVL27:
 320              	.L23:
 321              	.LCFI11:
 322              		.cfi_restore_state
 662:lvgl/src/extra/widgets/span/lv_span.c ****         value.color = lv_obj_get_style_text_color(par, LV_PART_MAIN);
 323              		.loc 1 662 9 is_stmt 1 view .LVU65
 324              	.LBB83:
 325              	.LBI83:
 313:lvgl/src/extra/widgets/span/../../../../src/core/lv_obj_style_gen.h **** {
 326              		.loc 2 313 26 view .LVU66
 327              	.LBB84:
 315:lvgl/src/extra/widgets/span/../../../../src/core/lv_obj_style_gen.h ****     return v.color;
 328              		.loc 2 315 5 view .LVU67
 315:lvgl/src/extra/widgets/span/../../../../src/core/lv_obj_style_gen.h ****     return v.color;
 329              		.loc 2 315 26 is_stmt 0 view .LVU68
 330 0020 40F25742 		movw	r2, #1111
 331 0024 0021     		movs	r1, #0
 332 0026 2046     		mov	r0, r4
 333              	.LVL28:
 315:lvgl/src/extra/widgets/span/../../../../src/core/lv_obj_style_gen.h ****     return v.color;
 334              		.loc 2 315 26 view .LVU69
 335 0028 FFF7FEFF 		bl	lv_obj_get_style_prop
 336              	.LVL29:
 316:lvgl/src/extra/widgets/span/../../../../src/core/lv_obj_style_gen.h **** }
 337              		.loc 2 316 5 is_stmt 1 view .LVU70
 316:lvgl/src/extra/widgets/span/../../../../src/core/lv_obj_style_gen.h **** }
 338              		.loc 2 316 5 is_stmt 0 view .LVU71
 339              	.LBE84:
 340              	.LBE83:
 662:lvgl/src/extra/widgets/span/lv_span.c ****     }
 341              		.loc 1 662 23 view .LVU72
 342 002c ADF80400 		strh	r0, [sp, #4]	@ movhi
 343 0030 F2E7     		b	.L21
 344              		.cfi_endproc
ARM GAS  C:\Users\BLACK_~1\AppData\Local\Temp\ccmy2bqO.s 			page 25


 345              	.LFE212:
 347              		.section	.text.lv_span_get_style_text_opa,"ax",%progbits
 348              		.align	1
 349              		.syntax unified
 350              		.thumb
 351              		.thumb_func
 353              	lv_span_get_style_text_opa:
 354              	.LVL30:
 355              	.LFB213:
 666:lvgl/src/extra/widgets/span/lv_span.c **** 
 667:lvgl/src/extra/widgets/span/lv_span.c **** static lv_opa_t lv_span_get_style_text_opa(lv_obj_t * par, lv_span_t * span)
 668:lvgl/src/extra/widgets/span/lv_span.c **** {
 356              		.loc 1 668 1 is_stmt 1 view -0
 357              		.cfi_startproc
 358              		@ args = 0, pretend = 0, frame = 8
 359              		@ frame_needed = 0, uses_anonymous_args = 0
 360              		.loc 1 668 1 is_stmt 0 view .LVU74
 361 0000 10B5     		push	{r4, lr}
 362              	.LCFI12:
 363              		.cfi_def_cfa_offset 8
 364              		.cfi_offset 4, -8
 365              		.cfi_offset 14, -4
 366 0002 82B0     		sub	sp, sp, #8
 367              	.LCFI13:
 368              		.cfi_def_cfa_offset 16
 369 0004 0446     		mov	r4, r0
 370 0006 0846     		mov	r0, r1
 371              	.LVL31:
 669:lvgl/src/extra/widgets/span/lv_span.c ****     lv_opa_t opa;
 372              		.loc 1 669 5 is_stmt 1 view .LVU75
 670:lvgl/src/extra/widgets/span/lv_span.c ****     lv_style_value_t value;
 373              		.loc 1 670 5 view .LVU76
 671:lvgl/src/extra/widgets/span/lv_span.c ****     lv_res_t res = lv_style_get_prop(&span->style, LV_STYLE_TEXT_OPA, &value);
 374              		.loc 1 671 5 view .LVU77
 375              		.loc 1 671 20 is_stmt 0 view .LVU78
 376 0008 01AA     		add	r2, sp, #4
 377 000a 4FF48B61 		mov	r1, #1112
 378              	.LVL32:
 379              		.loc 1 671 20 view .LVU79
 380 000e 0830     		adds	r0, r0, #8
 381              	.LVL33:
 382              		.loc 1 671 20 view .LVU80
 383 0010 FFF7FEFF 		bl	lv_style_get_prop
 384              	.LVL34:
 672:lvgl/src/extra/widgets/span/lv_span.c ****     if(res != LV_RES_OK) {
 385              		.loc 1 672 5 is_stmt 1 view .LVU81
 386              		.loc 1 672 7 is_stmt 0 view .LVU82
 387 0014 0128     		cmp	r0, #1
 388 0016 03D1     		bne	.L28
 673:lvgl/src/extra/widgets/span/lv_span.c ****         opa = (lv_opa_t)lv_obj_get_style_text_opa(par, LV_PART_MAIN);
 674:lvgl/src/extra/widgets/span/lv_span.c ****     }
 675:lvgl/src/extra/widgets/span/lv_span.c ****     else {
 676:lvgl/src/extra/widgets/span/lv_span.c ****         opa = (lv_opa_t)value.num;
 389              		.loc 1 676 9 is_stmt 1 view .LVU83
 390              		.loc 1 676 13 is_stmt 0 view .LVU84
 391 0018 9DF80400 		ldrb	r0, [sp, #4]	@ zero_extendqisi2
 392              	.LVL35:
ARM GAS  C:\Users\BLACK_~1\AppData\Local\Temp\ccmy2bqO.s 			page 26


 393              	.L26:
 677:lvgl/src/extra/widgets/span/lv_span.c ****     }
 678:lvgl/src/extra/widgets/span/lv_span.c ****     return opa;
 394              		.loc 1 678 5 is_stmt 1 view .LVU85
 679:lvgl/src/extra/widgets/span/lv_span.c **** }
 395              		.loc 1 679 1 is_stmt 0 view .LVU86
 396 001c 02B0     		add	sp, sp, #8
 397              	.LCFI14:
 398              		.cfi_remember_state
 399              		.cfi_def_cfa_offset 8
 400              		@ sp needed
 401 001e 10BD     		pop	{r4, pc}
 402              	.LVL36:
 403              	.L28:
 404              	.LCFI15:
 405              		.cfi_restore_state
 673:lvgl/src/extra/widgets/span/lv_span.c ****         opa = (lv_opa_t)lv_obj_get_style_text_opa(par, LV_PART_MAIN);
 406              		.loc 1 673 9 is_stmt 1 view .LVU87
 407              	.LBB85:
 408              	.LBI85:
 325:lvgl/src/extra/widgets/span/../../../../src/core/lv_obj_style_gen.h **** {
 409              		.loc 2 325 24 view .LVU88
 410              	.LBB86:
 327:lvgl/src/extra/widgets/span/../../../../src/core/lv_obj_style_gen.h ****     return (lv_opa_t)v.num;
 411              		.loc 2 327 5 view .LVU89
 327:lvgl/src/extra/widgets/span/../../../../src/core/lv_obj_style_gen.h ****     return (lv_opa_t)v.num;
 412              		.loc 2 327 26 is_stmt 0 view .LVU90
 413 0020 4FF48B62 		mov	r2, #1112
 414 0024 0021     		movs	r1, #0
 415 0026 2046     		mov	r0, r4
 416              	.LVL37:
 327:lvgl/src/extra/widgets/span/../../../../src/core/lv_obj_style_gen.h ****     return (lv_opa_t)v.num;
 417              		.loc 2 327 26 view .LVU91
 418 0028 FFF7FEFF 		bl	lv_obj_get_style_prop
 419              	.LVL38:
 328:lvgl/src/extra/widgets/span/../../../../src/core/lv_obj_style_gen.h **** }
 420              		.loc 2 328 5 is_stmt 1 view .LVU92
 328:lvgl/src/extra/widgets/span/../../../../src/core/lv_obj_style_gen.h **** }
 421              		.loc 2 328 12 is_stmt 0 view .LVU93
 422 002c C0B2     		uxtb	r0, r0
 423              	.LVL39:
 328:lvgl/src/extra/widgets/span/../../../../src/core/lv_obj_style_gen.h **** }
 424              		.loc 2 328 12 view .LVU94
 425              	.LBE86:
 426              	.LBE85:
 427 002e F5E7     		b	.L26
 428              		.cfi_endproc
 429              	.LFE213:
 431              		.section	.text.lv_span_get_style_text_blend_mode,"ax",%progbits
 432              		.align	1
 433              		.syntax unified
 434              		.thumb
 435              		.thumb_func
 437              	lv_span_get_style_text_blend_mode:
 438              	.LVL40:
 439              	.LFB214:
 680:lvgl/src/extra/widgets/span/lv_span.c **** 
ARM GAS  C:\Users\BLACK_~1\AppData\Local\Temp\ccmy2bqO.s 			page 27


 681:lvgl/src/extra/widgets/span/lv_span.c **** static lv_blend_mode_t lv_span_get_style_text_blend_mode(lv_obj_t * par, lv_span_t * span)
 682:lvgl/src/extra/widgets/span/lv_span.c **** {
 440              		.loc 1 682 1 is_stmt 1 view -0
 441              		.cfi_startproc
 442              		@ args = 0, pretend = 0, frame = 8
 443              		@ frame_needed = 0, uses_anonymous_args = 0
 444              		.loc 1 682 1 is_stmt 0 view .LVU96
 445 0000 10B5     		push	{r4, lr}
 446              	.LCFI16:
 447              		.cfi_def_cfa_offset 8
 448              		.cfi_offset 4, -8
 449              		.cfi_offset 14, -4
 450 0002 82B0     		sub	sp, sp, #8
 451              	.LCFI17:
 452              		.cfi_def_cfa_offset 16
 453 0004 0446     		mov	r4, r0
 454 0006 0846     		mov	r0, r1
 455              	.LVL41:
 683:lvgl/src/extra/widgets/span/lv_span.c ****     lv_blend_mode_t mode;
 456              		.loc 1 683 5 is_stmt 1 view .LVU97
 684:lvgl/src/extra/widgets/span/lv_span.c ****     lv_style_value_t value;
 457              		.loc 1 684 5 view .LVU98
 685:lvgl/src/extra/widgets/span/lv_span.c ****     lv_res_t res = lv_style_get_prop(&span->style, LV_STYLE_BLEND_MODE, &value);
 458              		.loc 1 685 5 view .LVU99
 459              		.loc 1 685 20 is_stmt 0 view .LVU100
 460 0008 01AA     		add	r2, sp, #4
 461 000a 6821     		movs	r1, #104
 462              	.LVL42:
 463              		.loc 1 685 20 view .LVU101
 464 000c 0830     		adds	r0, r0, #8
 465              	.LVL43:
 466              		.loc 1 685 20 view .LVU102
 467 000e FFF7FEFF 		bl	lv_style_get_prop
 468              	.LVL44:
 686:lvgl/src/extra/widgets/span/lv_span.c ****     if(res != LV_RES_OK) {
 469              		.loc 1 686 5 is_stmt 1 view .LVU103
 470              		.loc 1 686 7 is_stmt 0 view .LVU104
 471 0012 0128     		cmp	r0, #1
 472 0014 03D1     		bne	.L33
 687:lvgl/src/extra/widgets/span/lv_span.c ****         mode = (lv_blend_mode_t)lv_obj_get_style_blend_mode(par, LV_PART_MAIN);
 688:lvgl/src/extra/widgets/span/lv_span.c ****     }
 689:lvgl/src/extra/widgets/span/lv_span.c ****     else {
 690:lvgl/src/extra/widgets/span/lv_span.c ****         mode = (lv_blend_mode_t)value.num;
 473              		.loc 1 690 9 is_stmt 1 view .LVU105
 474              		.loc 1 690 14 is_stmt 0 view .LVU106
 475 0016 9DF80400 		ldrb	r0, [sp, #4]	@ zero_extendqisi2
 476              	.LVL45:
 477              	.L31:
 691:lvgl/src/extra/widgets/span/lv_span.c ****     }
 692:lvgl/src/extra/widgets/span/lv_span.c ****     return mode;
 478              		.loc 1 692 5 is_stmt 1 view .LVU107
 693:lvgl/src/extra/widgets/span/lv_span.c **** }
 479              		.loc 1 693 1 is_stmt 0 view .LVU108
 480 001a 02B0     		add	sp, sp, #8
 481              	.LCFI18:
 482              		.cfi_remember_state
 483              		.cfi_def_cfa_offset 8
ARM GAS  C:\Users\BLACK_~1\AppData\Local\Temp\ccmy2bqO.s 			page 28


 484              		@ sp needed
 485 001c 10BD     		pop	{r4, pc}
 486              	.LVL46:
 487              	.L33:
 488              	.LCFI19:
 489              		.cfi_restore_state
 687:lvgl/src/extra/widgets/span/lv_span.c ****         mode = (lv_blend_mode_t)lv_obj_get_style_blend_mode(par, LV_PART_MAIN);
 490              		.loc 1 687 9 is_stmt 1 view .LVU109
 491              	.LBB87:
 492              	.LBI87:
 175:lvgl/src/extra/widgets/span/../../../../src/core/lv_obj_style_gen.h **** {
 493              		.loc 2 175 31 view .LVU110
 494              	.LBB88:
 177:lvgl/src/extra/widgets/span/../../../../src/core/lv_obj_style_gen.h ****     return (lv_blend_mode_t)v.num;
 495              		.loc 2 177 5 view .LVU111
 177:lvgl/src/extra/widgets/span/../../../../src/core/lv_obj_style_gen.h ****     return (lv_blend_mode_t)v.num;
 496              		.loc 2 177 26 is_stmt 0 view .LVU112
 497 001e 6822     		movs	r2, #104
 498 0020 0021     		movs	r1, #0
 499 0022 2046     		mov	r0, r4
 500              	.LVL47:
 177:lvgl/src/extra/widgets/span/../../../../src/core/lv_obj_style_gen.h ****     return (lv_blend_mode_t)v.num;
 501              		.loc 2 177 26 view .LVU113
 502 0024 FFF7FEFF 		bl	lv_obj_get_style_prop
 503              	.LVL48:
 178:lvgl/src/extra/widgets/span/../../../../src/core/lv_obj_style_gen.h **** }
 504              		.loc 2 178 5 is_stmt 1 view .LVU114
 178:lvgl/src/extra/widgets/span/../../../../src/core/lv_obj_style_gen.h **** }
 505              		.loc 2 178 12 is_stmt 0 view .LVU115
 506 0028 C0B2     		uxtb	r0, r0
 507              	.LVL49:
 178:lvgl/src/extra/widgets/span/../../../../src/core/lv_obj_style_gen.h **** }
 508              		.loc 2 178 12 view .LVU116
 509              	.LBE88:
 510              	.LBE87:
 511 002a F6E7     		b	.L31
 512              		.cfi_endproc
 513              	.LFE214:
 515              		.section	.text.lv_span_get_style_text_decor,"ax",%progbits
 516              		.align	1
 517              		.syntax unified
 518              		.thumb
 519              		.thumb_func
 521              	lv_span_get_style_text_decor:
 522              	.LVL50:
 523              	.LFB215:
 694:lvgl/src/extra/widgets/span/lv_span.c **** 
 695:lvgl/src/extra/widgets/span/lv_span.c **** static int32_t lv_span_get_style_text_decor(lv_obj_t * par, lv_span_t * span)
 696:lvgl/src/extra/widgets/span/lv_span.c **** {
 524              		.loc 1 696 1 is_stmt 1 view -0
 525              		.cfi_startproc
 526              		@ args = 0, pretend = 0, frame = 8
 527              		@ frame_needed = 0, uses_anonymous_args = 0
 528              		.loc 1 696 1 is_stmt 0 view .LVU118
 529 0000 00B5     		push	{lr}
 530              	.LCFI20:
 531              		.cfi_def_cfa_offset 4
ARM GAS  C:\Users\BLACK_~1\AppData\Local\Temp\ccmy2bqO.s 			page 29


 532              		.cfi_offset 14, -4
 533 0002 83B0     		sub	sp, sp, #12
 534              	.LCFI21:
 535              		.cfi_def_cfa_offset 16
 536 0004 0846     		mov	r0, r1
 537              	.LVL51:
 697:lvgl/src/extra/widgets/span/lv_span.c ****     LV_UNUSED(par);
 538              		.loc 1 697 5 is_stmt 1 view .LVU119
 698:lvgl/src/extra/widgets/span/lv_span.c **** 
 699:lvgl/src/extra/widgets/span/lv_span.c ****     int32_t decor;
 539              		.loc 1 699 5 view .LVU120
 700:lvgl/src/extra/widgets/span/lv_span.c ****     lv_style_value_t value;
 540              		.loc 1 700 5 view .LVU121
 701:lvgl/src/extra/widgets/span/lv_span.c ****     lv_res_t res = lv_style_get_prop(&span->style, LV_STYLE_TEXT_DECOR, &value);
 541              		.loc 1 701 5 view .LVU122
 542              		.loc 1 701 20 is_stmt 0 view .LVU123
 543 0006 01AA     		add	r2, sp, #4
 544 0008 40F25C41 		movw	r1, #1116
 545              	.LVL52:
 546              		.loc 1 701 20 view .LVU124
 547 000c 0830     		adds	r0, r0, #8
 548              	.LVL53:
 549              		.loc 1 701 20 view .LVU125
 550 000e FFF7FEFF 		bl	lv_style_get_prop
 551              	.LVL54:
 702:lvgl/src/extra/widgets/span/lv_span.c ****     if(res != LV_RES_OK) {
 552              		.loc 1 702 5 is_stmt 1 view .LVU126
 553              		.loc 1 702 7 is_stmt 0 view .LVU127
 554 0012 0128     		cmp	r0, #1
 555 0014 03D0     		beq	.L38
 703:lvgl/src/extra/widgets/span/lv_span.c ****         decor = LV_TEXT_DECOR_NONE;
 556              		.loc 1 703 15 view .LVU128
 557 0016 0020     		movs	r0, #0
 558              	.LVL55:
 704:lvgl/src/extra/widgets/span/lv_span.c ****     }
 705:lvgl/src/extra/widgets/span/lv_span.c ****     else {
 706:lvgl/src/extra/widgets/span/lv_span.c ****         decor = (int32_t)value.num;
 707:lvgl/src/extra/widgets/span/lv_span.c ****     }
 708:lvgl/src/extra/widgets/span/lv_span.c ****     return decor;
 559              		.loc 1 708 5 is_stmt 1 view .LVU129
 560              	.L34:
 709:lvgl/src/extra/widgets/span/lv_span.c **** }
 561              		.loc 1 709 1 is_stmt 0 view .LVU130
 562 0018 03B0     		add	sp, sp, #12
 563              	.LCFI22:
 564              		.cfi_remember_state
 565              		.cfi_def_cfa_offset 4
 566              		@ sp needed
 567 001a 5DF804FB 		ldr	pc, [sp], #4
 568              	.LVL56:
 569              	.L38:
 570              	.LCFI23:
 571              		.cfi_restore_state
 706:lvgl/src/extra/widgets/span/lv_span.c ****     }
 572              		.loc 1 706 9 is_stmt 1 view .LVU131
 706:lvgl/src/extra/widgets/span/lv_span.c ****     }
 573              		.loc 1 706 15 is_stmt 0 view .LVU132
ARM GAS  C:\Users\BLACK_~1\AppData\Local\Temp\ccmy2bqO.s 			page 30


 574 001e 0198     		ldr	r0, [sp, #4]
 575              	.LVL57:
 706:lvgl/src/extra/widgets/span/lv_span.c ****     }
 576              		.loc 1 706 15 view .LVU133
 577 0020 FAE7     		b	.L34
 578              		.cfi_endproc
 579              	.LFE215:
 581              		.section	.text.lv_txt_get_snippet,"ax",%progbits
 582              		.align	1
 583              		.syntax unified
 584              		.thumb
 585              		.thumb_func
 587              	lv_txt_get_snippet:
 588              	.LVL58:
 589              	.LFB205:
 589:lvgl/src/extra/widgets/span/lv_span.c ****     uint32_t ofs = _lv_txt_get_next_line(txt, font, letter_space, max_width, flag);
 590              		.loc 1 589 1 is_stmt 1 view -0
 591              		.cfi_startproc
 592              		@ args = 12, pretend = 0, frame = 0
 593              		@ frame_needed = 0, uses_anonymous_args = 0
 589:lvgl/src/extra/widgets/span/lv_span.c ****     uint32_t ofs = _lv_txt_get_next_line(txt, font, letter_space, max_width, flag);
 594              		.loc 1 589 1 is_stmt 0 view .LVU135
 595 0000 2DE9F043 		push	{r4, r5, r6, r7, r8, r9, lr}
 596              	.LCFI24:
 597              		.cfi_def_cfa_offset 28
 598              		.cfi_offset 4, -28
 599              		.cfi_offset 5, -24
 600              		.cfi_offset 6, -20
 601              		.cfi_offset 7, -16
 602              		.cfi_offset 8, -12
 603              		.cfi_offset 9, -8
 604              		.cfi_offset 14, -4
 605 0004 83B0     		sub	sp, sp, #12
 606              	.LCFI25:
 607              		.cfi_def_cfa_offset 40
 608 0006 0546     		mov	r5, r0
 609 0008 0E46     		mov	r6, r1
 610 000a 1746     		mov	r7, r2
 611 000c 9846     		mov	r8, r3
 612 000e 9DF82890 		ldrb	r9, [sp, #40]	@ zero_extendqisi2
 590:lvgl/src/extra/widgets/span/lv_span.c ****     lv_coord_t width = lv_txt_get_width(txt, ofs, font, letter_space, flag);
 613              		.loc 1 590 5 is_stmt 1 view .LVU136
 590:lvgl/src/extra/widgets/span/lv_span.c ****     lv_coord_t width = lv_txt_get_width(txt, ofs, font, letter_space, flag);
 614              		.loc 1 590 20 is_stmt 0 view .LVU137
 615 0012 CDF80090 		str	r9, [sp]
 616 0016 FFF7FEFF 		bl	_lv_txt_get_next_line
 617              	.LVL59:
 590:lvgl/src/extra/widgets/span/lv_span.c ****     lv_coord_t width = lv_txt_get_width(txt, ofs, font, letter_space, flag);
 618              		.loc 1 590 20 view .LVU138
 619 001a 0446     		mov	r4, r0
 620              	.LVL60:
 591:lvgl/src/extra/widgets/span/lv_span.c ****     *end_ofs = ofs;
 621              		.loc 1 591 5 is_stmt 1 view .LVU139
 591:lvgl/src/extra/widgets/span/lv_span.c ****     *end_ofs = ofs;
 622              		.loc 1 591 24 is_stmt 0 view .LVU140
 623 001c CDF80090 		str	r9, [sp]
 624 0020 3B46     		mov	r3, r7
ARM GAS  C:\Users\BLACK_~1\AppData\Local\Temp\ccmy2bqO.s 			page 31


 625 0022 3246     		mov	r2, r6
 626 0024 0146     		mov	r1, r0
 627 0026 2846     		mov	r0, r5
 628              	.LVL61:
 591:lvgl/src/extra/widgets/span/lv_span.c ****     *end_ofs = ofs;
 629              		.loc 1 591 24 view .LVU141
 630 0028 FFF7FEFF 		bl	lv_txt_get_width
 631              	.LVL62:
 592:lvgl/src/extra/widgets/span/lv_span.c ****     *use_width = width;
 632              		.loc 1 592 5 is_stmt 1 view .LVU142
 592:lvgl/src/extra/widgets/span/lv_span.c ****     *use_width = width;
 633              		.loc 1 592 14 is_stmt 0 view .LVU143
 634 002c 0C9B     		ldr	r3, [sp, #48]
 635 002e 1C60     		str	r4, [r3]
 593:lvgl/src/extra/widgets/span/lv_span.c **** 
 636              		.loc 1 593 5 is_stmt 1 view .LVU144
 593:lvgl/src/extra/widgets/span/lv_span.c **** 
 637              		.loc 1 593 16 is_stmt 0 view .LVU145
 638 0030 0B9B     		ldr	r3, [sp, #44]
 639 0032 1880     		strh	r0, [r3]	@ movhi
 595:lvgl/src/extra/widgets/span/lv_span.c ****         return false;
 640              		.loc 1 595 5 is_stmt 1 view .LVU146
 595:lvgl/src/extra/widgets/span/lv_span.c ****         return false;
 641              		.loc 1 595 11 is_stmt 0 view .LVU147
 642 0034 2B5D     		ldrb	r3, [r5, r4]	@ zero_extendqisi2
 595:lvgl/src/extra/widgets/span/lv_span.c ****         return false;
 643              		.loc 1 595 7 view .LVU148
 644 0036 1BB9     		cbnz	r3, .L41
 595:lvgl/src/extra/widgets/span/lv_span.c ****         return false;
 645              		.loc 1 595 25 discriminator 1 view .LVU149
 646 0038 8045     		cmp	r8, r0
 647 003a 05DC     		bgt	.L42
 599:lvgl/src/extra/widgets/span/lv_span.c ****     }
 648              		.loc 1 599 16 view .LVU150
 649 003c 0120     		movs	r0, #1
 650              	.LVL63:
 599:lvgl/src/extra/widgets/span/lv_span.c ****     }
 651              		.loc 1 599 16 view .LVU151
 652 003e 00E0     		b	.L40
 653              	.LVL64:
 654              	.L41:
 599:lvgl/src/extra/widgets/span/lv_span.c ****     }
 655              		.loc 1 599 16 view .LVU152
 656 0040 0120     		movs	r0, #1
 657              	.LVL65:
 658              	.L40:
 601:lvgl/src/extra/widgets/span/lv_span.c **** 
 659              		.loc 1 601 1 view .LVU153
 660 0042 03B0     		add	sp, sp, #12
 661              	.LCFI26:
 662              		.cfi_remember_state
 663              		.cfi_def_cfa_offset 28
 664              		@ sp needed
 665 0044 BDE8F083 		pop	{r4, r5, r6, r7, r8, r9, pc}
 666              	.LVL66:
 667              	.L42:
 668              	.LCFI27:
ARM GAS  C:\Users\BLACK_~1\AppData\Local\Temp\ccmy2bqO.s 			page 32


 669              		.cfi_restore_state
 596:lvgl/src/extra/widgets/span/lv_span.c ****     }
 670              		.loc 1 596 16 view .LVU154
 671 0048 0020     		movs	r0, #0
 672              	.LVL67:
 596:lvgl/src/extra/widgets/span/lv_span.c ****     }
 673              		.loc 1 596 16 view .LVU155
 674 004a FAE7     		b	.L40
 675              		.cfi_endproc
 676              	.LFE205:
 678              		.section	.text.lv_snippet_push,"ax",%progbits
 679              		.align	1
 680              		.syntax unified
 681              		.thumb
 682              		.thumb_func
 684              	lv_snippet_push:
 685              	.LVL68:
 686              	.LFB206:
 604:lvgl/src/extra/widgets/span/lv_span.c ****     if(snippet_stack.index < LV_SPAN_SNIPPET_STACK_SIZE) {
 687              		.loc 1 604 1 is_stmt 1 view -0
 688              		.cfi_startproc
 689              		@ args = 0, pretend = 0, frame = 0
 690              		@ frame_needed = 0, uses_anonymous_args = 0
 605:lvgl/src/extra/widgets/span/lv_span.c ****         memcpy(&snippet_stack.stack[snippet_stack.index], item, sizeof(lv_snippet_t));
 691              		.loc 1 605 5 view .LVU157
 605:lvgl/src/extra/widgets/span/lv_span.c ****         memcpy(&snippet_stack.stack[snippet_stack.index], item, sizeof(lv_snippet_t));
 692              		.loc 1 605 21 is_stmt 0 view .LVU158
 693 0000 104B     		ldr	r3, .L51
 694 0002 B3F80035 		ldrh	r3, [r3, #1280]
 605:lvgl/src/extra/widgets/span/lv_span.c ****         memcpy(&snippet_stack.stack[snippet_stack.index], item, sizeof(lv_snippet_t));
 695              		.loc 1 605 7 view .LVU159
 696 0006 3F2B     		cmp	r3, #63
 697 0008 00D9     		bls	.L50
 698 000a 7047     		bx	lr
 699              	.L50:
 604:lvgl/src/extra/widgets/span/lv_span.c ****     if(snippet_stack.index < LV_SPAN_SNIPPET_STACK_SIZE) {
 700              		.loc 1 604 1 view .LVU160
 701 000c 30B5     		push	{r4, r5, lr}
 702              	.LCFI28:
 703              		.cfi_def_cfa_offset 12
 704              		.cfi_offset 4, -12
 705              		.cfi_offset 5, -8
 706              		.cfi_offset 14, -4
 606:lvgl/src/extra/widgets/span/lv_span.c ****         snippet_stack.index++;
 707              		.loc 1 606 9 is_stmt 1 view .LVU161
 606:lvgl/src/extra/widgets/span/lv_span.c ****         snippet_stack.index++;
 708              		.loc 1 606 16 is_stmt 0 view .LVU162
 709 000e 0D4A     		ldr	r2, .L51
 710 0010 03EB8303 		add	r3, r3, r3, lsl #2
 711 0014 02EB8301 		add	r1, r2, r3, lsl #2
 606:lvgl/src/extra/widgets/span/lv_span.c ****         snippet_stack.index++;
 712              		.loc 1 606 9 view .LVU163
 713 0018 D0F800C0 		ldr	ip, [r0]	@ unaligned
 714 001c 4568     		ldr	r5, [r0, #4]	@ unaligned
 715 001e 8468     		ldr	r4, [r0, #8]	@ unaligned
 716 0020 D0F80CE0 		ldr	lr, [r0, #12]	@ unaligned
 717 0024 42F823C0 		str	ip, [r2, r3, lsl #2]	@ unaligned
ARM GAS  C:\Users\BLACK_~1\AppData\Local\Temp\ccmy2bqO.s 			page 33


 718 0028 4D60     		str	r5, [r1, #4]	@ unaligned
 719 002a 8C60     		str	r4, [r1, #8]	@ unaligned
 720 002c C1F80CE0 		str	lr, [r1, #12]	@ unaligned
 721 0030 D0F810C0 		ldr	ip, [r0, #16]	@ unaligned
 722 0034 C1F810C0 		str	ip, [r1, #16]	@ unaligned
 607:lvgl/src/extra/widgets/span/lv_span.c ****     }
 723              		.loc 1 607 9 is_stmt 1 view .LVU164
 607:lvgl/src/extra/widgets/span/lv_span.c ****     }
 724              		.loc 1 607 22 is_stmt 0 view .LVU165
 725 0038 B2F80035 		ldrh	r3, [r2, #1280]
 607:lvgl/src/extra/widgets/span/lv_span.c ****     }
 726              		.loc 1 607 28 view .LVU166
 727 003c 0133     		adds	r3, r3, #1
 728 003e A2F80035 		strh	r3, [r2, #1280]	@ movhi
 610:lvgl/src/extra/widgets/span/lv_span.c ****     }
 729              		.loc 1 610 99 is_stmt 1 view .LVU167
 612:lvgl/src/extra/widgets/span/lv_span.c **** 
 730              		.loc 1 612 1 is_stmt 0 view .LVU168
 731 0042 30BD     		pop	{r4, r5, pc}
 732              	.L52:
 733              		.align	2
 734              	.L51:
 735 0044 00000000 		.word	.LANCHOR0
 736              		.cfi_endproc
 737              	.LFE206:
 739              		.section	.rodata.lv_draw_span.str1.4,"aMS",%progbits,1
 740              		.align	2
 741              	.LC0:
 742 0000 00       		.ascii	"\000"
 743 0001 000000   		.align	2
 744              	.LC1:
 745 0004 202C2E3B 		.ascii	" ,.;:-_\000"
 745      3A2D5F00 
 746              		.section	.text.lv_draw_span,"ax",%progbits
 747              		.align	1
 748              		.syntax unified
 749              		.thumb
 750              		.thumb_func
 752              	lv_draw_span:
 753              	.LVL69:
 754              	.LFB217:
 710:lvgl/src/extra/widgets/span/lv_span.c **** 
 711:lvgl/src/extra/widgets/span/lv_span.c **** static inline void span_text_check(const char ** text)
 712:lvgl/src/extra/widgets/span/lv_span.c **** {
 713:lvgl/src/extra/widgets/span/lv_span.c ****     if(*text == NULL) {
 714:lvgl/src/extra/widgets/span/lv_span.c ****         *text = "";
 715:lvgl/src/extra/widgets/span/lv_span.c ****         LV_LOG_ERROR("occur an error that span text == NULL");
 716:lvgl/src/extra/widgets/span/lv_span.c ****     }
 717:lvgl/src/extra/widgets/span/lv_span.c **** }
 718:lvgl/src/extra/widgets/span/lv_span.c **** 
 719:lvgl/src/extra/widgets/span/lv_span.c **** /**
 720:lvgl/src/extra/widgets/span/lv_span.c ****  * draw span group
 721:lvgl/src/extra/widgets/span/lv_span.c ****  * @param spans obj handle
 722:lvgl/src/extra/widgets/span/lv_span.c ****  * @param coords coordinates of the label
 723:lvgl/src/extra/widgets/span/lv_span.c ****  * @param mask the label will be drawn only in this area
 724:lvgl/src/extra/widgets/span/lv_span.c ****  */
 725:lvgl/src/extra/widgets/span/lv_span.c **** static void lv_draw_span(lv_obj_t * obj, const lv_area_t * coords, const lv_area_t * mask)
ARM GAS  C:\Users\BLACK_~1\AppData\Local\Temp\ccmy2bqO.s 			page 34


 726:lvgl/src/extra/widgets/span/lv_span.c **** {
 755              		.loc 1 726 1 is_stmt 1 view -0
 756              		.cfi_startproc
 757              		@ args = 0, pretend = 0, frame = 144
 758              		@ frame_needed = 0, uses_anonymous_args = 0
 759              		.loc 1 726 1 is_stmt 0 view .LVU170
 760 0000 2DE9F04F 		push	{r4, r5, r6, r7, r8, r9, r10, fp, lr}
 761              	.LCFI29:
 762              		.cfi_def_cfa_offset 36
 763              		.cfi_offset 4, -36
 764              		.cfi_offset 5, -32
 765              		.cfi_offset 6, -28
 766              		.cfi_offset 7, -24
 767              		.cfi_offset 8, -20
 768              		.cfi_offset 9, -16
 769              		.cfi_offset 10, -12
 770              		.cfi_offset 11, -8
 771              		.cfi_offset 14, -4
 772 0004 A9B0     		sub	sp, sp, #164
 773              	.LCFI30:
 774              		.cfi_def_cfa_offset 200
 775 0006 8346     		mov	fp, r0
 776 0008 0C46     		mov	r4, r1
 777 000a 0691     		str	r1, [sp, #24]
 778 000c 1392     		str	r2, [sp, #76]
 727:lvgl/src/extra/widgets/span/lv_span.c ****     /* return if no draw area */
 728:lvgl/src/extra/widgets/span/lv_span.c ****     lv_area_t clipped_area;
 779              		.loc 1 728 5 is_stmt 1 view .LVU171
 729:lvgl/src/extra/widgets/span/lv_span.c ****     bool clip_ok = _lv_area_intersect(&clipped_area, coords, mask);
 780              		.loc 1 729 5 view .LVU172
 781              		.loc 1 729 20 is_stmt 0 view .LVU173
 782 000e 26A8     		add	r0, sp, #152
 783              	.LVL70:
 784              		.loc 1 729 20 view .LVU174
 785 0010 FFF7FEFF 		bl	_lv_area_intersect
 786              	.LVL71:
 730:lvgl/src/extra/widgets/span/lv_span.c ****     if(!clip_ok) return;
 787              		.loc 1 730 5 is_stmt 1 view .LVU175
 788              		.loc 1 730 7 is_stmt 0 view .LVU176
 789 0014 1790     		str	r0, [sp, #92]
 790 0016 10B9     		cbnz	r0, .L117
 791              	.LVL72:
 792              	.L53:
 731:lvgl/src/extra/widgets/span/lv_span.c **** 
 732:lvgl/src/extra/widgets/span/lv_span.c ****     lv_spangroup_t * spans = (lv_spangroup_t *)obj;
 733:lvgl/src/extra/widgets/span/lv_span.c **** 
 734:lvgl/src/extra/widgets/span/lv_span.c ****     /* return if not span */
 735:lvgl/src/extra/widgets/span/lv_span.c ****     if(_lv_ll_get_head(&spans->child_ll) == NULL) {
 736:lvgl/src/extra/widgets/span/lv_span.c ****         return;
 737:lvgl/src/extra/widgets/span/lv_span.c ****     }
 738:lvgl/src/extra/widgets/span/lv_span.c **** 
 739:lvgl/src/extra/widgets/span/lv_span.c ****     /* init draw variable */
 740:lvgl/src/extra/widgets/span/lv_span.c ****     lv_text_flag_t txt_flag = LV_TEXT_FLAG_NONE;
 741:lvgl/src/extra/widgets/span/lv_span.c ****     lv_coord_t line_space = lv_obj_get_style_text_line_space(obj, LV_PART_MAIN);;
 742:lvgl/src/extra/widgets/span/lv_span.c ****     lv_coord_t max_width = lv_area_get_width(coords);
 743:lvgl/src/extra/widgets/span/lv_span.c ****     lv_coord_t max_w  = max_width - spans->indent; /* first line need minus indent */
 744:lvgl/src/extra/widgets/span/lv_span.c **** 
ARM GAS  C:\Users\BLACK_~1\AppData\Local\Temp\ccmy2bqO.s 			page 35


 745:lvgl/src/extra/widgets/span/lv_span.c ****     /* coords of draw span-txt */
 746:lvgl/src/extra/widgets/span/lv_span.c ****     lv_point_t txt_pos;
 747:lvgl/src/extra/widgets/span/lv_span.c ****     txt_pos.y = coords->y1;
 748:lvgl/src/extra/widgets/span/lv_span.c ****     txt_pos.x = coords->x1 + spans->indent; /* first line need add indent */
 749:lvgl/src/extra/widgets/span/lv_span.c **** 
 750:lvgl/src/extra/widgets/span/lv_span.c ****     lv_span_t * cur_span = _lv_ll_get_head(&spans->child_ll);
 751:lvgl/src/extra/widgets/span/lv_span.c ****     const char * cur_txt = cur_span->txt;
 752:lvgl/src/extra/widgets/span/lv_span.c ****     span_text_check(&cur_txt);
 753:lvgl/src/extra/widgets/span/lv_span.c ****     uint32_t cur_txt_ofs = 0;
 754:lvgl/src/extra/widgets/span/lv_span.c ****     lv_snippet_t snippet;   /* use to save cur_span info and push it to stack */
 755:lvgl/src/extra/widgets/span/lv_span.c ****     memset(&snippet, 0, sizeof(snippet));
 756:lvgl/src/extra/widgets/span/lv_span.c **** 
 757:lvgl/src/extra/widgets/span/lv_span.c ****     /* the loop control how many lines need to draw */
 758:lvgl/src/extra/widgets/span/lv_span.c ****     while(cur_span) {
 759:lvgl/src/extra/widgets/span/lv_span.c ****         lv_coord_t max_line_h = 0;  /* the max height of span-font when a line have a lot of span *
 760:lvgl/src/extra/widgets/span/lv_span.c ****         lv_snippet_clear();
 761:lvgl/src/extra/widgets/span/lv_span.c **** 
 762:lvgl/src/extra/widgets/span/lv_span.c ****         /* the loop control to find a line and push the relevant span info into stack  */
 763:lvgl/src/extra/widgets/span/lv_span.c ****         while(1) {
 764:lvgl/src/extra/widgets/span/lv_span.c ****             /* switch to the next span when current is end */
 765:lvgl/src/extra/widgets/span/lv_span.c ****             if(cur_txt[cur_txt_ofs] == '\0') {
 766:lvgl/src/extra/widgets/span/lv_span.c ****                 cur_span = _lv_ll_get_next(&spans->child_ll, cur_span);
 767:lvgl/src/extra/widgets/span/lv_span.c ****                 if(cur_span == NULL) break;
 768:lvgl/src/extra/widgets/span/lv_span.c ****                 cur_txt = cur_span->txt;
 769:lvgl/src/extra/widgets/span/lv_span.c ****                 span_text_check(&cur_txt);
 770:lvgl/src/extra/widgets/span/lv_span.c ****                 cur_txt_ofs = 0;
 771:lvgl/src/extra/widgets/span/lv_span.c ****             }
 772:lvgl/src/extra/widgets/span/lv_span.c **** 
 773:lvgl/src/extra/widgets/span/lv_span.c ****             /* init span info to snippet. */
 774:lvgl/src/extra/widgets/span/lv_span.c ****             if(cur_txt_ofs == 0) {
 775:lvgl/src/extra/widgets/span/lv_span.c ****                 snippet.span = cur_span;
 776:lvgl/src/extra/widgets/span/lv_span.c ****                 snippet.font = lv_span_get_style_text_font(obj, cur_span);
 777:lvgl/src/extra/widgets/span/lv_span.c ****                 snippet.letter_space = lv_span_get_style_text_letter_space(obj, cur_span);
 778:lvgl/src/extra/widgets/span/lv_span.c ****                 snippet.line_h = lv_font_get_line_height(snippet.font) + line_space;
 779:lvgl/src/extra/widgets/span/lv_span.c ****             }
 780:lvgl/src/extra/widgets/span/lv_span.c **** 
 781:lvgl/src/extra/widgets/span/lv_span.c ****             if(spans->overflow == LV_SPAN_OVERFLOW_ELLIPSIS) {
 782:lvgl/src/extra/widgets/span/lv_span.c ****                 /* span txt overflow, don't push */
 783:lvgl/src/extra/widgets/span/lv_span.c ****                 if(txt_pos.y + snippet.line_h - line_space > coords->y2 + 1) {
 784:lvgl/src/extra/widgets/span/lv_span.c ****                     break;
 785:lvgl/src/extra/widgets/span/lv_span.c ****                 }
 786:lvgl/src/extra/widgets/span/lv_span.c ****             }
 787:lvgl/src/extra/widgets/span/lv_span.c **** 
 788:lvgl/src/extra/widgets/span/lv_span.c ****             /* get current span text line info */
 789:lvgl/src/extra/widgets/span/lv_span.c ****             uint32_t next_ofs = 0;
 790:lvgl/src/extra/widgets/span/lv_span.c ****             lv_coord_t use_width = 0;
 791:lvgl/src/extra/widgets/span/lv_span.c ****             bool isfill = lv_txt_get_snippet(&cur_txt[cur_txt_ofs], snippet.font, snippet.letter_sp
 792:lvgl/src/extra/widgets/span/lv_span.c ****                                              max_w, txt_flag, &use_width, &next_ofs);
 793:lvgl/src/extra/widgets/span/lv_span.c **** 
 794:lvgl/src/extra/widgets/span/lv_span.c ****             /* break word deal width */
 795:lvgl/src/extra/widgets/span/lv_span.c ****             if(isfill && next_ofs > 0 && lv_get_snippet_cnt() > 0) {
 796:lvgl/src/extra/widgets/span/lv_span.c ****                 uint32_t letter = (uint32_t)cur_txt[cur_txt_ofs + next_ofs - 1];
 797:lvgl/src/extra/widgets/span/lv_span.c ****                 if(!(letter == '\0' || letter == '\n' || letter == '\r' || _lv_txt_is_break_char(le
 798:lvgl/src/extra/widgets/span/lv_span.c ****                     letter = (uint32_t)cur_txt[cur_txt_ofs + next_ofs];
 799:lvgl/src/extra/widgets/span/lv_span.c ****                     if(!(letter == '\0' || letter == '\n'  || letter == '\r' || _lv_txt_is_break_ch
 800:lvgl/src/extra/widgets/span/lv_span.c ****                         break;
 801:lvgl/src/extra/widgets/span/lv_span.c ****                     }
ARM GAS  C:\Users\BLACK_~1\AppData\Local\Temp\ccmy2bqO.s 			page 36


 802:lvgl/src/extra/widgets/span/lv_span.c ****                 }
 803:lvgl/src/extra/widgets/span/lv_span.c ****             }
 804:lvgl/src/extra/widgets/span/lv_span.c **** 
 805:lvgl/src/extra/widgets/span/lv_span.c ****             snippet.txt = &cur_txt[cur_txt_ofs];
 806:lvgl/src/extra/widgets/span/lv_span.c ****             snippet.bytes = next_ofs;
 807:lvgl/src/extra/widgets/span/lv_span.c ****             snippet.txt_w = use_width;
 808:lvgl/src/extra/widgets/span/lv_span.c ****             cur_txt_ofs += next_ofs;
 809:lvgl/src/extra/widgets/span/lv_span.c ****             if(max_line_h < snippet.line_h) {
 810:lvgl/src/extra/widgets/span/lv_span.c ****                 max_line_h = snippet.line_h;
 811:lvgl/src/extra/widgets/span/lv_span.c ****             }
 812:lvgl/src/extra/widgets/span/lv_span.c **** 
 813:lvgl/src/extra/widgets/span/lv_span.c ****             lv_snippet_push(&snippet);
 814:lvgl/src/extra/widgets/span/lv_span.c ****             if(isfill) {
 815:lvgl/src/extra/widgets/span/lv_span.c ****                 break;
 816:lvgl/src/extra/widgets/span/lv_span.c ****             }
 817:lvgl/src/extra/widgets/span/lv_span.c ****             max_w -= use_width;
 818:lvgl/src/extra/widgets/span/lv_span.c ****         }
 819:lvgl/src/extra/widgets/span/lv_span.c **** 
 820:lvgl/src/extra/widgets/span/lv_span.c ****         /* start current line deal width */
 821:lvgl/src/extra/widgets/span/lv_span.c **** 
 822:lvgl/src/extra/widgets/span/lv_span.c ****         uint16_t item_cnt = lv_get_snippet_cnt();
 823:lvgl/src/extra/widgets/span/lv_span.c ****         if(item_cnt == 0) {     /* break if stack is empty */
 824:lvgl/src/extra/widgets/span/lv_span.c ****             break;
 825:lvgl/src/extra/widgets/span/lv_span.c ****         }
 826:lvgl/src/extra/widgets/span/lv_span.c **** 
 827:lvgl/src/extra/widgets/span/lv_span.c ****         /*Go the first visible line*/
 828:lvgl/src/extra/widgets/span/lv_span.c ****         if(txt_pos.y + max_line_h < mask->y1) {
 829:lvgl/src/extra/widgets/span/lv_span.c ****             goto Next_line_init;
 830:lvgl/src/extra/widgets/span/lv_span.c ****         }
 831:lvgl/src/extra/widgets/span/lv_span.c **** 
 832:lvgl/src/extra/widgets/span/lv_span.c ****         /* overflow deal width */
 833:lvgl/src/extra/widgets/span/lv_span.c ****         bool ellipsis_valid = false;
 834:lvgl/src/extra/widgets/span/lv_span.c ****         if(spans->overflow == LV_SPAN_OVERFLOW_ELLIPSIS) {
 835:lvgl/src/extra/widgets/span/lv_span.c ****             lv_coord_t next_line_h = snippet.line_h;
 836:lvgl/src/extra/widgets/span/lv_span.c ****             if(cur_txt[cur_txt_ofs] == '\0') {  /* current span deal with ok, need get next line fi
 837:lvgl/src/extra/widgets/span/lv_span.c ****                 next_line_h = 0;
 838:lvgl/src/extra/widgets/span/lv_span.c ****                 if(cur_span) {
 839:lvgl/src/extra/widgets/span/lv_span.c ****                     lv_span_t * next_span = _lv_ll_get_next(&spans->child_ll, cur_span);
 840:lvgl/src/extra/widgets/span/lv_span.c ****                     if(next_span) { /* have the next line */
 841:lvgl/src/extra/widgets/span/lv_span.c ****                         next_line_h = lv_font_get_line_height(lv_span_get_style_text_font(obj, next
 842:lvgl/src/extra/widgets/span/lv_span.c ****                     }
 843:lvgl/src/extra/widgets/span/lv_span.c ****                 }
 844:lvgl/src/extra/widgets/span/lv_span.c ****             }
 845:lvgl/src/extra/widgets/span/lv_span.c ****             if(txt_pos.y + max_line_h + next_line_h > coords->y2  + 1) {
 846:lvgl/src/extra/widgets/span/lv_span.c ****                 ellipsis_valid = true;
 847:lvgl/src/extra/widgets/span/lv_span.c ****             }
 848:lvgl/src/extra/widgets/span/lv_span.c ****         }
 849:lvgl/src/extra/widgets/span/lv_span.c **** 
 850:lvgl/src/extra/widgets/span/lv_span.c ****         /* align deal with */
 851:lvgl/src/extra/widgets/span/lv_span.c ****         lv_text_align_t align = lv_obj_get_style_text_align(obj, LV_PART_MAIN);
 852:lvgl/src/extra/widgets/span/lv_span.c ****         if(align != LV_TEXT_ALIGN_LEFT) {
 853:lvgl/src/extra/widgets/span/lv_span.c ****             lv_coord_t align_ofs = 0;
 854:lvgl/src/extra/widgets/span/lv_span.c ****             lv_coord_t txts_w = 0;
 855:lvgl/src/extra/widgets/span/lv_span.c ****             for(int i = 0; i < item_cnt; i++) {
 856:lvgl/src/extra/widgets/span/lv_span.c ****                 lv_snippet_t * pinfo = lv_get_snippet(i);
 857:lvgl/src/extra/widgets/span/lv_span.c ****                 txts_w += pinfo->txt_w;
 858:lvgl/src/extra/widgets/span/lv_span.c ****             }
ARM GAS  C:\Users\BLACK_~1\AppData\Local\Temp\ccmy2bqO.s 			page 37


 859:lvgl/src/extra/widgets/span/lv_span.c ****             if(align == LV_TEXT_ALIGN_CENTER) {
 860:lvgl/src/extra/widgets/span/lv_span.c ****                 align_ofs = (max_width - txts_w) / 2;
 861:lvgl/src/extra/widgets/span/lv_span.c ****             }
 862:lvgl/src/extra/widgets/span/lv_span.c ****             else if(align == LV_TEXT_ALIGN_RIGHT) {
 863:lvgl/src/extra/widgets/span/lv_span.c ****                 align_ofs = max_width - txts_w;
 864:lvgl/src/extra/widgets/span/lv_span.c ****             }
 865:lvgl/src/extra/widgets/span/lv_span.c ****             txt_pos.x += align_ofs;
 866:lvgl/src/extra/widgets/span/lv_span.c ****         }
 867:lvgl/src/extra/widgets/span/lv_span.c **** 
 868:lvgl/src/extra/widgets/span/lv_span.c ****         /* draw line letters */
 869:lvgl/src/extra/widgets/span/lv_span.c ****         for(int i = 0; i < item_cnt; i++) {
 870:lvgl/src/extra/widgets/span/lv_span.c ****             lv_snippet_t * pinfo = lv_get_snippet(i);
 871:lvgl/src/extra/widgets/span/lv_span.c **** 
 872:lvgl/src/extra/widgets/span/lv_span.c ****             /* bidi deal with:todo */
 873:lvgl/src/extra/widgets/span/lv_span.c ****             const char * bidi_txt = pinfo->txt;
 874:lvgl/src/extra/widgets/span/lv_span.c **** 
 875:lvgl/src/extra/widgets/span/lv_span.c ****             lv_point_t pos;
 876:lvgl/src/extra/widgets/span/lv_span.c ****             pos.x = txt_pos.x;
 877:lvgl/src/extra/widgets/span/lv_span.c ****             pos.y = txt_pos.y + max_line_h - pinfo->line_h;
 878:lvgl/src/extra/widgets/span/lv_span.c ****             lv_color_t letter_color = lv_span_get_style_text_color(obj, pinfo->span);
 879:lvgl/src/extra/widgets/span/lv_span.c ****             lv_opa_t letter_opa = lv_span_get_style_text_opa(obj, pinfo->span);
 880:lvgl/src/extra/widgets/span/lv_span.c ****             lv_blend_mode_t blend_mode = lv_span_get_style_text_blend_mode(obj, pinfo->span);
 881:lvgl/src/extra/widgets/span/lv_span.c ****             uint32_t txt_bytes = pinfo->bytes;
 882:lvgl/src/extra/widgets/span/lv_span.c **** 
 883:lvgl/src/extra/widgets/span/lv_span.c ****             /* overflow */
 884:lvgl/src/extra/widgets/span/lv_span.c ****             uint16_t dot_letter_w = 0;
 885:lvgl/src/extra/widgets/span/lv_span.c ****             uint16_t dot_width = 0;
 886:lvgl/src/extra/widgets/span/lv_span.c ****             if(ellipsis_valid) {
 887:lvgl/src/extra/widgets/span/lv_span.c ****                 txt_bytes = strlen(bidi_txt);
 888:lvgl/src/extra/widgets/span/lv_span.c ****                 dot_letter_w = lv_font_get_glyph_width(pinfo->font, '.', '.');
 889:lvgl/src/extra/widgets/span/lv_span.c ****                 dot_width = dot_letter_w * 3;
 890:lvgl/src/extra/widgets/span/lv_span.c ****             }
 891:lvgl/src/extra/widgets/span/lv_span.c ****             lv_coord_t ellipsis_width = coords->x1 + max_width - dot_width;
 892:lvgl/src/extra/widgets/span/lv_span.c **** 
 893:lvgl/src/extra/widgets/span/lv_span.c ****             uint32_t j = 0;
 894:lvgl/src/extra/widgets/span/lv_span.c ****             while(j < txt_bytes) {
 895:lvgl/src/extra/widgets/span/lv_span.c ****                 /* skip invalid fields */
 896:lvgl/src/extra/widgets/span/lv_span.c ****                 if(pos.x > clipped_area.x2) {
 897:lvgl/src/extra/widgets/span/lv_span.c ****                     break;
 898:lvgl/src/extra/widgets/span/lv_span.c ****                 }
 899:lvgl/src/extra/widgets/span/lv_span.c ****                 uint32_t letter      = _lv_txt_encoded_next(bidi_txt, &j);
 900:lvgl/src/extra/widgets/span/lv_span.c ****                 uint32_t letter_next = _lv_txt_encoded_next(&bidi_txt[j], NULL);
 901:lvgl/src/extra/widgets/span/lv_span.c ****                 int32_t letter_w = lv_font_get_glyph_width(pinfo->font, letter, letter_next);
 902:lvgl/src/extra/widgets/span/lv_span.c **** 
 903:lvgl/src/extra/widgets/span/lv_span.c ****                 /* skip invalid fields */
 904:lvgl/src/extra/widgets/span/lv_span.c ****                 if(pos.x + letter_w + pinfo->letter_space < clipped_area.x1) {
 905:lvgl/src/extra/widgets/span/lv_span.c ****                     if(letter_w > 0) {
 906:lvgl/src/extra/widgets/span/lv_span.c ****                         pos.x = pos.x + letter_w + pinfo->letter_space;
 907:lvgl/src/extra/widgets/span/lv_span.c ****                     }
 908:lvgl/src/extra/widgets/span/lv_span.c ****                     continue;
 909:lvgl/src/extra/widgets/span/lv_span.c ****                 }
 910:lvgl/src/extra/widgets/span/lv_span.c **** 
 911:lvgl/src/extra/widgets/span/lv_span.c ****                 if(ellipsis_valid && pos.x + letter_w + pinfo->letter_space > ellipsis_width) {
 912:lvgl/src/extra/widgets/span/lv_span.c ****                     for(int ell = 0; ell < 3; ell++) {
 913:lvgl/src/extra/widgets/span/lv_span.c ****                         lv_draw_letter(&pos, &clipped_area, pinfo->font, '.', letter_color, letter_
 914:lvgl/src/extra/widgets/span/lv_span.c ****                         pos.x = pos.x + dot_letter_w + pinfo->letter_space;
 915:lvgl/src/extra/widgets/span/lv_span.c ****                     }
ARM GAS  C:\Users\BLACK_~1\AppData\Local\Temp\ccmy2bqO.s 			page 38


 916:lvgl/src/extra/widgets/span/lv_span.c ****                     break;
 917:lvgl/src/extra/widgets/span/lv_span.c ****                 }
 918:lvgl/src/extra/widgets/span/lv_span.c ****                 else {
 919:lvgl/src/extra/widgets/span/lv_span.c ****                     lv_draw_letter(&pos, &clipped_area, pinfo->font, letter, letter_color, letter_o
 920:lvgl/src/extra/widgets/span/lv_span.c ****                     if(letter_w > 0) {
 921:lvgl/src/extra/widgets/span/lv_span.c ****                         pos.x = pos.x + letter_w + pinfo->letter_space;
 922:lvgl/src/extra/widgets/span/lv_span.c ****                     }
 923:lvgl/src/extra/widgets/span/lv_span.c ****                 }
 924:lvgl/src/extra/widgets/span/lv_span.c ****             }
 925:lvgl/src/extra/widgets/span/lv_span.c **** 
 926:lvgl/src/extra/widgets/span/lv_span.c ****             if(ellipsis_valid && i == item_cnt - 1 && pos.x <= ellipsis_width) {
 927:lvgl/src/extra/widgets/span/lv_span.c ****                 for(int ell = 0; ell < 3; ell++) {
 928:lvgl/src/extra/widgets/span/lv_span.c ****                     lv_draw_letter(&pos, &clipped_area, pinfo->font, '.', letter_color, letter_opa,
 929:lvgl/src/extra/widgets/span/lv_span.c ****                     pos.x = pos.x + dot_letter_w + pinfo->letter_space;
 930:lvgl/src/extra/widgets/span/lv_span.c ****                 }
 931:lvgl/src/extra/widgets/span/lv_span.c ****             }
 932:lvgl/src/extra/widgets/span/lv_span.c **** 
 933:lvgl/src/extra/widgets/span/lv_span.c ****             /* draw decor */
 934:lvgl/src/extra/widgets/span/lv_span.c ****             lv_text_decor_t decor = lv_span_get_style_text_decor(obj, pinfo->span);
 935:lvgl/src/extra/widgets/span/lv_span.c ****             if(decor != LV_TEXT_DECOR_NONE) {
 936:lvgl/src/extra/widgets/span/lv_span.c ****                 lv_draw_line_dsc_t line_dsc;
 937:lvgl/src/extra/widgets/span/lv_span.c ****                 lv_draw_line_dsc_init(&line_dsc);
 938:lvgl/src/extra/widgets/span/lv_span.c ****                 line_dsc.color = letter_color;
 939:lvgl/src/extra/widgets/span/lv_span.c ****                 line_dsc.width = pinfo->font->underline_thickness ? pinfo->font->underline_thicknes
 940:lvgl/src/extra/widgets/span/lv_span.c ****                 line_dsc.opa = letter_opa;
 941:lvgl/src/extra/widgets/span/lv_span.c ****                 line_dsc.blend_mode = blend_mode;
 942:lvgl/src/extra/widgets/span/lv_span.c **** 
 943:lvgl/src/extra/widgets/span/lv_span.c ****                 if(decor & LV_TEXT_DECOR_STRIKETHROUGH) {
 944:lvgl/src/extra/widgets/span/lv_span.c ****                     lv_point_t p1;
 945:lvgl/src/extra/widgets/span/lv_span.c ****                     lv_point_t p2;
 946:lvgl/src/extra/widgets/span/lv_span.c ****                     p1.x = txt_pos.x;
 947:lvgl/src/extra/widgets/span/lv_span.c ****                     p1.y = pos.y + (pinfo->line_h / 2)  + line_dsc.width / 2;
 948:lvgl/src/extra/widgets/span/lv_span.c ****                     p2.x = pos.x;
 949:lvgl/src/extra/widgets/span/lv_span.c ****                     p2.y = p1.y;
 950:lvgl/src/extra/widgets/span/lv_span.c ****                     lv_draw_line(&p1, &p2, mask, &line_dsc);
 951:lvgl/src/extra/widgets/span/lv_span.c ****                 }
 952:lvgl/src/extra/widgets/span/lv_span.c **** 
 953:lvgl/src/extra/widgets/span/lv_span.c ****                 if(decor & LV_TEXT_DECOR_UNDERLINE) {
 954:lvgl/src/extra/widgets/span/lv_span.c ****                     lv_point_t p1;
 955:lvgl/src/extra/widgets/span/lv_span.c ****                     lv_point_t p2;
 956:lvgl/src/extra/widgets/span/lv_span.c ****                     p1.x = txt_pos.x;
 957:lvgl/src/extra/widgets/span/lv_span.c ****                     p1.y = pos.y + pinfo->line_h + line_dsc.width / 2;
 958:lvgl/src/extra/widgets/span/lv_span.c ****                     p2.x = pos.x;
 959:lvgl/src/extra/widgets/span/lv_span.c ****                     p2.y = p1.y;
 960:lvgl/src/extra/widgets/span/lv_span.c ****                     lv_draw_line(&p1, &p2, &clipped_area, &line_dsc);
 961:lvgl/src/extra/widgets/span/lv_span.c ****                 }
 962:lvgl/src/extra/widgets/span/lv_span.c ****             }
 963:lvgl/src/extra/widgets/span/lv_span.c ****             txt_pos.x = pos.x;
 964:lvgl/src/extra/widgets/span/lv_span.c ****         }
 965:lvgl/src/extra/widgets/span/lv_span.c **** 
 966:lvgl/src/extra/widgets/span/lv_span.c **** Next_line_init:
 967:lvgl/src/extra/widgets/span/lv_span.c ****         /* next line init */
 968:lvgl/src/extra/widgets/span/lv_span.c ****         txt_pos.x = coords->x1;
 969:lvgl/src/extra/widgets/span/lv_span.c ****         txt_pos.y += max_line_h;
 970:lvgl/src/extra/widgets/span/lv_span.c ****         if(txt_pos.y > clipped_area.y2 + 1) {
 971:lvgl/src/extra/widgets/span/lv_span.c ****             return;
 972:lvgl/src/extra/widgets/span/lv_span.c ****         }
ARM GAS  C:\Users\BLACK_~1\AppData\Local\Temp\ccmy2bqO.s 			page 39


 973:lvgl/src/extra/widgets/span/lv_span.c ****         max_w = max_width;
 974:lvgl/src/extra/widgets/span/lv_span.c ****     }
 975:lvgl/src/extra/widgets/span/lv_span.c **** }
 793              		.loc 1 975 1 view .LVU177
 794 0018 29B0     		add	sp, sp, #164
 795              	.LCFI31:
 796              		.cfi_remember_state
 797              		.cfi_def_cfa_offset 36
 798              		@ sp needed
 799 001a BDE8F08F 		pop	{r4, r5, r6, r7, r8, r9, r10, fp, pc}
 800              	.LVL73:
 801              	.L117:
 802              	.LCFI32:
 803              		.cfi_restore_state
 732:lvgl/src/extra/widgets/span/lv_span.c **** 
 804              		.loc 1 732 5 is_stmt 1 view .LVU178
 735:lvgl/src/extra/widgets/span/lv_span.c ****         return;
 805              		.loc 1 735 5 view .LVU179
 735:lvgl/src/extra/widgets/span/lv_span.c ****         return;
 806              		.loc 1 735 24 is_stmt 0 view .LVU180
 807 001e 0BF12C03 		add	r3, fp, #44
 808 0022 1E46     		mov	r6, r3
 809 0024 0B93     		str	r3, [sp, #44]
 735:lvgl/src/extra/widgets/span/lv_span.c ****         return;
 810              		.loc 1 735 8 view .LVU181
 811 0026 1846     		mov	r0, r3
 812              	.LVL74:
 735:lvgl/src/extra/widgets/span/lv_span.c ****         return;
 813              		.loc 1 735 8 view .LVU182
 814 0028 FFF7FEFF 		bl	_lv_ll_get_head
 815              	.LVL75:
 735:lvgl/src/extra/widgets/span/lv_span.c ****         return;
 816              		.loc 1 735 7 view .LVU183
 817 002c 0028     		cmp	r0, #0
 818 002e F3D0     		beq	.L53
 740:lvgl/src/extra/widgets/span/lv_span.c ****     lv_coord_t line_space = lv_obj_get_style_text_line_space(obj, LV_PART_MAIN);;
 819              		.loc 1 740 5 is_stmt 1 view .LVU184
 820              	.LVL76:
 741:lvgl/src/extra/widgets/span/lv_span.c ****     lv_coord_t max_width = lv_area_get_width(coords);
 821              		.loc 1 741 5 view .LVU185
 822              	.LBB89:
 823              	.LBI89:
 341:lvgl/src/extra/widgets/span/../../../../src/core/lv_obj_style_gen.h **** }
 342:lvgl/src/extra/widgets/span/../../../../src/core/lv_obj_style_gen.h **** 
 343:lvgl/src/extra/widgets/span/../../../../src/core/lv_obj_style_gen.h **** static inline lv_coord_t lv_obj_get_style_text_line_space(const struct _lv_obj_t * obj, uint32_t pa
 824              		.loc 2 343 26 view .LVU186
 825              	.LBB90:
 344:lvgl/src/extra/widgets/span/../../../../src/core/lv_obj_style_gen.h **** {
 345:lvgl/src/extra/widgets/span/../../../../src/core/lv_obj_style_gen.h ****     lv_style_value_t v = lv_obj_get_style_prop(obj, part, LV_STYLE_TEXT_LINE_SPACE);
 826              		.loc 2 345 5 view .LVU187
 827              		.loc 2 345 26 is_stmt 0 view .LVU188
 828 0030 41F25B42 		movw	r2, #5211
 829 0034 0021     		movs	r1, #0
 830 0036 5846     		mov	r0, fp
 831 0038 FFF7FEFF 		bl	lv_obj_get_style_prop
 832              	.LVL77:
 833 003c 0C90     		str	r0, [sp, #48]
ARM GAS  C:\Users\BLACK_~1\AppData\Local\Temp\ccmy2bqO.s 			page 40


 346:lvgl/src/extra/widgets/span/../../../../src/core/lv_obj_style_gen.h ****     return (lv_coord_t)v.num;
 834              		.loc 2 346 5 is_stmt 1 view .LVU189
 835              		.loc 2 346 12 is_stmt 0 view .LVU190
 836 003e 02B2     		sxth	r2, r0
 837 0040 0892     		str	r2, [sp, #32]
 838              	.LVL78:
 839              		.loc 2 346 12 view .LVU191
 840              	.LBE90:
 841              	.LBE89:
 741:lvgl/src/extra/widgets/span/lv_span.c ****     lv_coord_t max_width = lv_area_get_width(coords);
 842              		.loc 1 741 81 is_stmt 1 view .LVU192
 742:lvgl/src/extra/widgets/span/lv_span.c ****     lv_coord_t max_w  = max_width - spans->indent; /* first line need minus indent */
 843              		.loc 1 742 5 view .LVU193
 844              	.LBB91:
 845              	.LBI91:
 846              		.file 3 "lvgl/src/extra/widgets/span/../../../../src/hal/../misc/lv_area.h"
   1:lvgl/src/extra/widgets/span/../../../../src/hal/../misc/lv_area.h **** /**
   2:lvgl/src/extra/widgets/span/../../../../src/hal/../misc/lv_area.h ****  * @file lv_area.h
   3:lvgl/src/extra/widgets/span/../../../../src/hal/../misc/lv_area.h ****  *
   4:lvgl/src/extra/widgets/span/../../../../src/hal/../misc/lv_area.h ****  */
   5:lvgl/src/extra/widgets/span/../../../../src/hal/../misc/lv_area.h **** 
   6:lvgl/src/extra/widgets/span/../../../../src/hal/../misc/lv_area.h **** #ifndef LV_AREA_H
   7:lvgl/src/extra/widgets/span/../../../../src/hal/../misc/lv_area.h **** #define LV_AREA_H
   8:lvgl/src/extra/widgets/span/../../../../src/hal/../misc/lv_area.h **** 
   9:lvgl/src/extra/widgets/span/../../../../src/hal/../misc/lv_area.h **** #ifdef __cplusplus
  10:lvgl/src/extra/widgets/span/../../../../src/hal/../misc/lv_area.h **** extern "C" {
  11:lvgl/src/extra/widgets/span/../../../../src/hal/../misc/lv_area.h **** #endif
  12:lvgl/src/extra/widgets/span/../../../../src/hal/../misc/lv_area.h **** 
  13:lvgl/src/extra/widgets/span/../../../../src/hal/../misc/lv_area.h **** /*********************
  14:lvgl/src/extra/widgets/span/../../../../src/hal/../misc/lv_area.h ****  *      INCLUDES
  15:lvgl/src/extra/widgets/span/../../../../src/hal/../misc/lv_area.h ****  *********************/
  16:lvgl/src/extra/widgets/span/../../../../src/hal/../misc/lv_area.h **** #include "../lv_conf_internal.h"
  17:lvgl/src/extra/widgets/span/../../../../src/hal/../misc/lv_area.h **** #include <string.h>
  18:lvgl/src/extra/widgets/span/../../../../src/hal/../misc/lv_area.h **** #include <stdbool.h>
  19:lvgl/src/extra/widgets/span/../../../../src/hal/../misc/lv_area.h **** #include <stdint.h>
  20:lvgl/src/extra/widgets/span/../../../../src/hal/../misc/lv_area.h **** 
  21:lvgl/src/extra/widgets/span/../../../../src/hal/../misc/lv_area.h **** /*********************
  22:lvgl/src/extra/widgets/span/../../../../src/hal/../misc/lv_area.h ****  *      DEFINES
  23:lvgl/src/extra/widgets/span/../../../../src/hal/../misc/lv_area.h ****  *********************/
  24:lvgl/src/extra/widgets/span/../../../../src/hal/../misc/lv_area.h **** 
  25:lvgl/src/extra/widgets/span/../../../../src/hal/../misc/lv_area.h **** #define _LV_COORD_MAX_REDUCE    8192
  26:lvgl/src/extra/widgets/span/../../../../src/hal/../misc/lv_area.h **** 
  27:lvgl/src/extra/widgets/span/../../../../src/hal/../misc/lv_area.h **** #if LV_USE_LARGE_COORD
  28:lvgl/src/extra/widgets/span/../../../../src/hal/../misc/lv_area.h **** typedef int32_t lv_coord_t;
  29:lvgl/src/extra/widgets/span/../../../../src/hal/../misc/lv_area.h **** #else
  30:lvgl/src/extra/widgets/span/../../../../src/hal/../misc/lv_area.h **** typedef int16_t lv_coord_t;
  31:lvgl/src/extra/widgets/span/../../../../src/hal/../misc/lv_area.h **** #endif
  32:lvgl/src/extra/widgets/span/../../../../src/hal/../misc/lv_area.h **** 
  33:lvgl/src/extra/widgets/span/../../../../src/hal/../misc/lv_area.h **** /*To allow some special values in the end reduce the max value*/
  34:lvgl/src/extra/widgets/span/../../../../src/hal/../misc/lv_area.h **** #define LV_COORD_MAX ((lv_coord_t)((uint32_t)((uint32_t)1 << (8 * sizeof(lv_coord_t) - 1)) - _LV_CO
  35:lvgl/src/extra/widgets/span/../../../../src/hal/../misc/lv_area.h **** #define LV_COORD_MIN (-LV_COORD_MAX)
  36:lvgl/src/extra/widgets/span/../../../../src/hal/../misc/lv_area.h **** 
  37:lvgl/src/extra/widgets/span/../../../../src/hal/../misc/lv_area.h **** LV_EXPORT_CONST_INT(LV_COORD_MAX);
  38:lvgl/src/extra/widgets/span/../../../../src/hal/../misc/lv_area.h **** LV_EXPORT_CONST_INT(LV_COORD_MIN);
  39:lvgl/src/extra/widgets/span/../../../../src/hal/../misc/lv_area.h **** 
  40:lvgl/src/extra/widgets/span/../../../../src/hal/../misc/lv_area.h **** /**********************
  41:lvgl/src/extra/widgets/span/../../../../src/hal/../misc/lv_area.h ****  *      TYPEDEFS
ARM GAS  C:\Users\BLACK_~1\AppData\Local\Temp\ccmy2bqO.s 			page 41


  42:lvgl/src/extra/widgets/span/../../../../src/hal/../misc/lv_area.h ****  **********************/
  43:lvgl/src/extra/widgets/span/../../../../src/hal/../misc/lv_area.h **** 
  44:lvgl/src/extra/widgets/span/../../../../src/hal/../misc/lv_area.h **** /**
  45:lvgl/src/extra/widgets/span/../../../../src/hal/../misc/lv_area.h ****  * Represents a point on the screen.
  46:lvgl/src/extra/widgets/span/../../../../src/hal/../misc/lv_area.h ****  */
  47:lvgl/src/extra/widgets/span/../../../../src/hal/../misc/lv_area.h **** typedef struct {
  48:lvgl/src/extra/widgets/span/../../../../src/hal/../misc/lv_area.h ****     lv_coord_t x;
  49:lvgl/src/extra/widgets/span/../../../../src/hal/../misc/lv_area.h ****     lv_coord_t y;
  50:lvgl/src/extra/widgets/span/../../../../src/hal/../misc/lv_area.h **** } lv_point_t;
  51:lvgl/src/extra/widgets/span/../../../../src/hal/../misc/lv_area.h **** 
  52:lvgl/src/extra/widgets/span/../../../../src/hal/../misc/lv_area.h **** /** Represents an area of the screen.*/
  53:lvgl/src/extra/widgets/span/../../../../src/hal/../misc/lv_area.h **** typedef struct {
  54:lvgl/src/extra/widgets/span/../../../../src/hal/../misc/lv_area.h ****     lv_coord_t x1;
  55:lvgl/src/extra/widgets/span/../../../../src/hal/../misc/lv_area.h ****     lv_coord_t y1;
  56:lvgl/src/extra/widgets/span/../../../../src/hal/../misc/lv_area.h ****     lv_coord_t x2;
  57:lvgl/src/extra/widgets/span/../../../../src/hal/../misc/lv_area.h ****     lv_coord_t y2;
  58:lvgl/src/extra/widgets/span/../../../../src/hal/../misc/lv_area.h **** } lv_area_t;
  59:lvgl/src/extra/widgets/span/../../../../src/hal/../misc/lv_area.h **** 
  60:lvgl/src/extra/widgets/span/../../../../src/hal/../misc/lv_area.h **** /** Alignments*/
  61:lvgl/src/extra/widgets/span/../../../../src/hal/../misc/lv_area.h **** enum {
  62:lvgl/src/extra/widgets/span/../../../../src/hal/../misc/lv_area.h ****     LV_ALIGN_DEFAULT = 0,
  63:lvgl/src/extra/widgets/span/../../../../src/hal/../misc/lv_area.h ****     LV_ALIGN_TOP_LEFT,
  64:lvgl/src/extra/widgets/span/../../../../src/hal/../misc/lv_area.h ****     LV_ALIGN_TOP_MID,
  65:lvgl/src/extra/widgets/span/../../../../src/hal/../misc/lv_area.h ****     LV_ALIGN_TOP_RIGHT,
  66:lvgl/src/extra/widgets/span/../../../../src/hal/../misc/lv_area.h ****     LV_ALIGN_BOTTOM_LEFT,
  67:lvgl/src/extra/widgets/span/../../../../src/hal/../misc/lv_area.h ****     LV_ALIGN_BOTTOM_MID,
  68:lvgl/src/extra/widgets/span/../../../../src/hal/../misc/lv_area.h ****     LV_ALIGN_BOTTOM_RIGHT,
  69:lvgl/src/extra/widgets/span/../../../../src/hal/../misc/lv_area.h ****     LV_ALIGN_LEFT_MID,
  70:lvgl/src/extra/widgets/span/../../../../src/hal/../misc/lv_area.h ****     LV_ALIGN_RIGHT_MID,
  71:lvgl/src/extra/widgets/span/../../../../src/hal/../misc/lv_area.h ****     LV_ALIGN_CENTER,
  72:lvgl/src/extra/widgets/span/../../../../src/hal/../misc/lv_area.h **** 
  73:lvgl/src/extra/widgets/span/../../../../src/hal/../misc/lv_area.h ****     LV_ALIGN_OUT_TOP_LEFT,
  74:lvgl/src/extra/widgets/span/../../../../src/hal/../misc/lv_area.h ****     LV_ALIGN_OUT_TOP_MID,
  75:lvgl/src/extra/widgets/span/../../../../src/hal/../misc/lv_area.h ****     LV_ALIGN_OUT_TOP_RIGHT,
  76:lvgl/src/extra/widgets/span/../../../../src/hal/../misc/lv_area.h ****     LV_ALIGN_OUT_BOTTOM_LEFT,
  77:lvgl/src/extra/widgets/span/../../../../src/hal/../misc/lv_area.h ****     LV_ALIGN_OUT_BOTTOM_MID,
  78:lvgl/src/extra/widgets/span/../../../../src/hal/../misc/lv_area.h ****     LV_ALIGN_OUT_BOTTOM_RIGHT,
  79:lvgl/src/extra/widgets/span/../../../../src/hal/../misc/lv_area.h ****     LV_ALIGN_OUT_LEFT_TOP,
  80:lvgl/src/extra/widgets/span/../../../../src/hal/../misc/lv_area.h ****     LV_ALIGN_OUT_LEFT_MID,
  81:lvgl/src/extra/widgets/span/../../../../src/hal/../misc/lv_area.h ****     LV_ALIGN_OUT_LEFT_BOTTOM,
  82:lvgl/src/extra/widgets/span/../../../../src/hal/../misc/lv_area.h ****     LV_ALIGN_OUT_RIGHT_TOP,
  83:lvgl/src/extra/widgets/span/../../../../src/hal/../misc/lv_area.h ****     LV_ALIGN_OUT_RIGHT_MID,
  84:lvgl/src/extra/widgets/span/../../../../src/hal/../misc/lv_area.h ****     LV_ALIGN_OUT_RIGHT_BOTTOM,
  85:lvgl/src/extra/widgets/span/../../../../src/hal/../misc/lv_area.h **** };
  86:lvgl/src/extra/widgets/span/../../../../src/hal/../misc/lv_area.h **** typedef uint8_t lv_align_t;
  87:lvgl/src/extra/widgets/span/../../../../src/hal/../misc/lv_area.h **** 
  88:lvgl/src/extra/widgets/span/../../../../src/hal/../misc/lv_area.h **** enum {
  89:lvgl/src/extra/widgets/span/../../../../src/hal/../misc/lv_area.h ****     LV_DIR_NONE     = 0x00,
  90:lvgl/src/extra/widgets/span/../../../../src/hal/../misc/lv_area.h ****     LV_DIR_LEFT     = (1 << 0),
  91:lvgl/src/extra/widgets/span/../../../../src/hal/../misc/lv_area.h ****     LV_DIR_RIGHT    = (1 << 1),
  92:lvgl/src/extra/widgets/span/../../../../src/hal/../misc/lv_area.h ****     LV_DIR_TOP      = (1 << 2),
  93:lvgl/src/extra/widgets/span/../../../../src/hal/../misc/lv_area.h ****     LV_DIR_BOTTOM   = (1 << 3),
  94:lvgl/src/extra/widgets/span/../../../../src/hal/../misc/lv_area.h ****     LV_DIR_HOR      = LV_DIR_LEFT | LV_DIR_RIGHT,
  95:lvgl/src/extra/widgets/span/../../../../src/hal/../misc/lv_area.h ****     LV_DIR_VER      = LV_DIR_TOP | LV_DIR_BOTTOM,
  96:lvgl/src/extra/widgets/span/../../../../src/hal/../misc/lv_area.h ****     LV_DIR_ALL      = LV_DIR_HOR | LV_DIR_VER,
  97:lvgl/src/extra/widgets/span/../../../../src/hal/../misc/lv_area.h **** };
  98:lvgl/src/extra/widgets/span/../../../../src/hal/../misc/lv_area.h **** 
ARM GAS  C:\Users\BLACK_~1\AppData\Local\Temp\ccmy2bqO.s 			page 42


  99:lvgl/src/extra/widgets/span/../../../../src/hal/../misc/lv_area.h **** typedef uint8_t lv_dir_t;
 100:lvgl/src/extra/widgets/span/../../../../src/hal/../misc/lv_area.h **** 
 101:lvgl/src/extra/widgets/span/../../../../src/hal/../misc/lv_area.h **** /**********************
 102:lvgl/src/extra/widgets/span/../../../../src/hal/../misc/lv_area.h ****  * GLOBAL PROTOTYPES
 103:lvgl/src/extra/widgets/span/../../../../src/hal/../misc/lv_area.h ****  **********************/
 104:lvgl/src/extra/widgets/span/../../../../src/hal/../misc/lv_area.h **** 
 105:lvgl/src/extra/widgets/span/../../../../src/hal/../misc/lv_area.h **** /**
 106:lvgl/src/extra/widgets/span/../../../../src/hal/../misc/lv_area.h ****  * Initialize an area
 107:lvgl/src/extra/widgets/span/../../../../src/hal/../misc/lv_area.h ****  * @param area_p pointer to an area
 108:lvgl/src/extra/widgets/span/../../../../src/hal/../misc/lv_area.h ****  * @param x1 left coordinate of the area
 109:lvgl/src/extra/widgets/span/../../../../src/hal/../misc/lv_area.h ****  * @param y1 top coordinate of the area
 110:lvgl/src/extra/widgets/span/../../../../src/hal/../misc/lv_area.h ****  * @param x2 right coordinate of the area
 111:lvgl/src/extra/widgets/span/../../../../src/hal/../misc/lv_area.h ****  * @param y2 bottom coordinate of the area
 112:lvgl/src/extra/widgets/span/../../../../src/hal/../misc/lv_area.h ****  */
 113:lvgl/src/extra/widgets/span/../../../../src/hal/../misc/lv_area.h **** void lv_area_set(lv_area_t * area_p, lv_coord_t x1, lv_coord_t y1, lv_coord_t x2, lv_coord_t y2);
 114:lvgl/src/extra/widgets/span/../../../../src/hal/../misc/lv_area.h **** 
 115:lvgl/src/extra/widgets/span/../../../../src/hal/../misc/lv_area.h **** /**
 116:lvgl/src/extra/widgets/span/../../../../src/hal/../misc/lv_area.h ****  * Copy an area
 117:lvgl/src/extra/widgets/span/../../../../src/hal/../misc/lv_area.h ****  * @param dest pointer to the destination area
 118:lvgl/src/extra/widgets/span/../../../../src/hal/../misc/lv_area.h ****  * @param src pointer to the source area
 119:lvgl/src/extra/widgets/span/../../../../src/hal/../misc/lv_area.h ****  */
 120:lvgl/src/extra/widgets/span/../../../../src/hal/../misc/lv_area.h **** inline static void lv_area_copy(lv_area_t * dest, const lv_area_t * src)
 121:lvgl/src/extra/widgets/span/../../../../src/hal/../misc/lv_area.h **** {
 122:lvgl/src/extra/widgets/span/../../../../src/hal/../misc/lv_area.h ****     dest->x1 = src->x1;
 123:lvgl/src/extra/widgets/span/../../../../src/hal/../misc/lv_area.h ****     dest->y1 = src->y1;
 124:lvgl/src/extra/widgets/span/../../../../src/hal/../misc/lv_area.h ****     dest->x2 = src->x2;
 125:lvgl/src/extra/widgets/span/../../../../src/hal/../misc/lv_area.h ****     dest->y2 = src->y2;
 126:lvgl/src/extra/widgets/span/../../../../src/hal/../misc/lv_area.h **** }
 127:lvgl/src/extra/widgets/span/../../../../src/hal/../misc/lv_area.h **** 
 128:lvgl/src/extra/widgets/span/../../../../src/hal/../misc/lv_area.h **** /**
 129:lvgl/src/extra/widgets/span/../../../../src/hal/../misc/lv_area.h ****  * Get the width of an area
 130:lvgl/src/extra/widgets/span/../../../../src/hal/../misc/lv_area.h ****  * @param area_p pointer to an area
 131:lvgl/src/extra/widgets/span/../../../../src/hal/../misc/lv_area.h ****  * @return the width of the area (if x1 == x2 -> width = 1)
 132:lvgl/src/extra/widgets/span/../../../../src/hal/../misc/lv_area.h ****  */
 133:lvgl/src/extra/widgets/span/../../../../src/hal/../misc/lv_area.h **** static inline lv_coord_t lv_area_get_width(const lv_area_t * area_p)
 847              		.loc 3 133 26 view .LVU194
 848              	.LBB92:
 134:lvgl/src/extra/widgets/span/../../../../src/hal/../misc/lv_area.h **** {
 135:lvgl/src/extra/widgets/span/../../../../src/hal/../misc/lv_area.h ****     return (lv_coord_t)(area_p->x2 - area_p->x1 + 1);
 849              		.loc 3 135 5 view .LVU195
 850              		.loc 3 135 31 is_stmt 0 view .LVU196
 851 0042 2146     		mov	r1, r4
 852 0044 A388     		ldrh	r3, [r4, #4]
 853              		.loc 3 135 44 view .LVU197
 854 0046 2288     		ldrh	r2, [r4]
 855              		.loc 3 135 36 view .LVU198
 856 0048 9B1A     		subs	r3, r3, r2
 857 004a 9BB2     		uxth	r3, r3
 858              		.loc 3 135 49 view .LVU199
 859 004c 0133     		adds	r3, r3, #1
 860 004e 9CB2     		uxth	r4, r3
 861              	.LVL79:
 862              		.loc 3 135 49 view .LVU200
 863 0050 1194     		str	r4, [sp, #68]
 864              		.loc 3 135 12 view .LVU201
 865 0052 1DB2     		sxth	r5, r3
 866 0054 1495     		str	r5, [sp, #80]
ARM GAS  C:\Users\BLACK_~1\AppData\Local\Temp\ccmy2bqO.s 			page 43


 867              	.LVL80:
 868              		.loc 3 135 12 view .LVU202
 869              	.LBE92:
 870              	.LBE91:
 743:lvgl/src/extra/widgets/span/lv_span.c **** 
 871              		.loc 1 743 5 is_stmt 1 view .LVU203
 743:lvgl/src/extra/widgets/span/lv_span.c **** 
 872              		.loc 1 743 42 is_stmt 0 view .LVU204
 873 0056 BBF82430 		ldrh	r3, [fp, #36]
 743:lvgl/src/extra/widgets/span/lv_span.c **** 
 874              		.loc 1 743 35 view .LVU205
 875 005a E41A     		subs	r4, r4, r3
 743:lvgl/src/extra/widgets/span/lv_span.c **** 
 876              		.loc 1 743 16 view .LVU206
 877 005c 24B2     		sxth	r4, r4
 878              	.LVL81:
 746:lvgl/src/extra/widgets/span/lv_span.c ****     txt_pos.y = coords->y1;
 879              		.loc 1 746 5 is_stmt 1 view .LVU207
 747:lvgl/src/extra/widgets/span/lv_span.c ****     txt_pos.x = coords->x1 + spans->indent; /* first line need add indent */
 880              		.loc 1 747 5 view .LVU208
 747:lvgl/src/extra/widgets/span/lv_span.c ****     txt_pos.x = coords->x1 + spans->indent; /* first line need add indent */
 881              		.loc 1 747 23 is_stmt 0 view .LVU209
 882 005e B1F90210 		ldrsh	r1, [r1, #2]
 747:lvgl/src/extra/widgets/span/lv_span.c ****     txt_pos.x = coords->x1 + spans->indent; /* first line need add indent */
 883              		.loc 1 747 15 view .LVU210
 884 0062 ADF89610 		strh	r1, [sp, #150]	@ movhi
 748:lvgl/src/extra/widgets/span/lv_span.c **** 
 885              		.loc 1 748 5 is_stmt 1 view .LVU211
 748:lvgl/src/extra/widgets/span/lv_span.c **** 
 886              		.loc 1 748 28 is_stmt 0 view .LVU212
 887 0066 1344     		add	r3, r3, r2
 748:lvgl/src/extra/widgets/span/lv_span.c **** 
 888              		.loc 1 748 15 view .LVU213
 889 0068 ADF89430 		strh	r3, [sp, #148]	@ movhi
 750:lvgl/src/extra/widgets/span/lv_span.c ****     const char * cur_txt = cur_span->txt;
 890              		.loc 1 750 5 is_stmt 1 view .LVU214
 750:lvgl/src/extra/widgets/span/lv_span.c ****     const char * cur_txt = cur_span->txt;
 891              		.loc 1 750 28 is_stmt 0 view .LVU215
 892 006c 3046     		mov	r0, r6
 893 006e FFF7FEFF 		bl	_lv_ll_get_head
 894              	.LVL82:
 895 0072 1290     		str	r0, [sp, #72]
 896              	.LVL83:
 751:lvgl/src/extra/widgets/span/lv_span.c ****     span_text_check(&cur_txt);
 897              		.loc 1 751 5 is_stmt 1 view .LVU216
 751:lvgl/src/extra/widgets/span/lv_span.c ****     span_text_check(&cur_txt);
 898              		.loc 1 751 36 is_stmt 0 view .LVU217
 899 0074 D0F800A0 		ldr	r10, [r0]
 900              	.LVL84:
 752:lvgl/src/extra/widgets/span/lv_span.c ****     uint32_t cur_txt_ofs = 0;
 901              		.loc 1 752 5 is_stmt 1 view .LVU218
 902              	.LBB93:
 903              	.LBI93:
 711:lvgl/src/extra/widgets/span/lv_span.c **** {
 904              		.loc 1 711 20 view .LVU219
 905              	.LBB94:
 713:lvgl/src/extra/widgets/span/lv_span.c ****         *text = "";
ARM GAS  C:\Users\BLACK_~1\AppData\Local\Temp\ccmy2bqO.s 			page 44


 906              		.loc 1 713 5 view .LVU220
 713:lvgl/src/extra/widgets/span/lv_span.c ****         *text = "";
 907              		.loc 1 713 7 is_stmt 0 view .LVU221
 908 0078 BAF1000F 		cmp	r10, #0
 909 007c 0BD0     		beq	.L118
 910              	.LVL85:
 911              	.L55:
 715:lvgl/src/extra/widgets/span/lv_span.c ****     }
 912              		.loc 1 715 62 is_stmt 1 view .LVU222
 715:lvgl/src/extra/widgets/span/lv_span.c ****     }
 913              		.loc 1 715 62 is_stmt 0 view .LVU223
 914              	.LBE94:
 915              	.LBE93:
 753:lvgl/src/extra/widgets/span/lv_span.c ****     lv_snippet_t snippet;   /* use to save cur_span info and push it to stack */
 916              		.loc 1 753 5 is_stmt 1 view .LVU224
 754:lvgl/src/extra/widgets/span/lv_span.c ****     memset(&snippet, 0, sizeof(snippet));
 917              		.loc 1 754 5 view .LVU225
 755:lvgl/src/extra/widgets/span/lv_span.c **** 
 918              		.loc 1 755 5 view .LVU226
 919 007e 0023     		movs	r3, #0
 920 0080 2093     		str	r3, [sp, #128]
 921 0082 2193     		str	r3, [sp, #132]
 922 0084 2293     		str	r3, [sp, #136]
 923 0086 2393     		str	r3, [sp, #140]
 924 0088 2493     		str	r3, [sp, #144]
 758:lvgl/src/extra/widgets/span/lv_span.c ****         lv_coord_t max_line_h = 0;  /* the max height of span-font when a line have a lot of span *
 925              		.loc 1 758 5 view .LVU227
 753:lvgl/src/extra/widgets/span/lv_span.c ****     lv_snippet_t snippet;   /* use to save cur_span info and push it to stack */
 926              		.loc 1 753 14 is_stmt 0 view .LVU228
 927 008a 9946     		mov	r9, r3
 928 008c 5B46     		mov	r3, fp
 929 008e D346     		mov	fp, r10
 930              	.LVL86:
 753:lvgl/src/extra/widgets/span/lv_span.c ****     lv_snippet_t snippet;   /* use to save cur_span info and push it to stack */
 931              		.loc 1 753 14 view .LVU229
 932 0090 CA46     		mov	r10, r9
 933              	.LVL87:
 753:lvgl/src/extra/widgets/span/lv_span.c ****     lv_snippet_t snippet;   /* use to save cur_span info and push it to stack */
 934              		.loc 1 753 14 view .LVU230
 935 0092 9946     		mov	r9, r3
 758:lvgl/src/extra/widgets/span/lv_span.c ****         lv_coord_t max_line_h = 0;  /* the max height of span-font when a line have a lot of span *
 936              		.loc 1 758 10 view .LVU231
 937 0094 D3E0     		b	.L56
 938              	.LVL88:
 939              	.L118:
 940              	.LBB96:
 941              	.LBB95:
 714:lvgl/src/extra/widgets/span/lv_span.c ****         LV_LOG_ERROR("occur an error that span text == NULL");
 942              		.loc 1 714 15 view .LVU232
 943 0096 DFF8A4A2 		ldr	r10, .L133
 944              	.LVL89:
 714:lvgl/src/extra/widgets/span/lv_span.c ****         LV_LOG_ERROR("occur an error that span text == NULL");
 945              		.loc 1 714 15 view .LVU233
 946 009a F0E7     		b	.L55
 947              	.LVL90:
 948              	.L119:
 714:lvgl/src/extra/widgets/span/lv_span.c ****         LV_LOG_ERROR("occur an error that span text == NULL");
ARM GAS  C:\Users\BLACK_~1\AppData\Local\Temp\ccmy2bqO.s 			page 45


 949              		.loc 1 714 15 view .LVU234
 950              	.LBE95:
 951              	.LBE96:
 952              	.LBB97:
 953              	.LBB98:
 766:lvgl/src/extra/widgets/span/lv_span.c ****                 if(cur_span == NULL) break;
 954              		.loc 1 766 17 is_stmt 1 view .LVU235
 766:lvgl/src/extra/widgets/span/lv_span.c ****                 if(cur_span == NULL) break;
 955              		.loc 1 766 28 is_stmt 0 view .LVU236
 956 009c 4146     		mov	r1, r8
 957 009e 0B98     		ldr	r0, [sp, #44]
 958 00a0 FFF7FEFF 		bl	_lv_ll_get_next
 959              	.LVL91:
 767:lvgl/src/extra/widgets/span/lv_span.c ****                 cur_txt = cur_span->txt;
 960              		.loc 1 767 17 is_stmt 1 view .LVU237
 767:lvgl/src/extra/widgets/span/lv_span.c ****                 cur_txt = cur_span->txt;
 961              		.loc 1 767 19 is_stmt 0 view .LVU238
 962 00a4 8046     		mov	r8, r0
 963 00a6 0028     		cmp	r0, #0
 964 00a8 00F0A180 		beq	.L58
 768:lvgl/src/extra/widgets/span/lv_span.c ****                 span_text_check(&cur_txt);
 965              		.loc 1 768 17 is_stmt 1 view .LVU239
 768:lvgl/src/extra/widgets/span/lv_span.c ****                 span_text_check(&cur_txt);
 966              		.loc 1 768 35 is_stmt 0 view .LVU240
 967 00ac 0768     		ldr	r7, [r0]
 968              	.LVL92:
 769:lvgl/src/extra/widgets/span/lv_span.c ****                 cur_txt_ofs = 0;
 969              		.loc 1 769 17 is_stmt 1 view .LVU241
 970              	.LBB99:
 971              	.LBI99:
 711:lvgl/src/extra/widgets/span/lv_span.c **** {
 972              		.loc 1 711 20 view .LVU242
 973              	.LBB100:
 713:lvgl/src/extra/widgets/span/lv_span.c ****         *text = "";
 974              		.loc 1 713 5 view .LVU243
 713:lvgl/src/extra/widgets/span/lv_span.c ****         *text = "";
 975              		.loc 1 713 7 is_stmt 0 view .LVU244
 976 00ae 0FB1     		cbz	r7, .L101
 977              	.LBE100:
 978              	.LBE99:
 770:lvgl/src/extra/widgets/span/lv_span.c ****             }
 979              		.loc 1 770 29 view .LVU245
 980 00b0 0025     		movs	r5, #0
 981              	.LVL93:
 770:lvgl/src/extra/widgets/span/lv_span.c ****             }
 982              		.loc 1 770 29 view .LVU246
 983 00b2 50E0     		b	.L57
 984              	.LVL94:
 985              	.L101:
 986              	.LBB102:
 987              	.LBB101:
 714:lvgl/src/extra/widgets/span/lv_span.c ****         LV_LOG_ERROR("occur an error that span text == NULL");
 988              		.loc 1 714 15 view .LVU247
 989 00b4 A14F     		ldr	r7, .L133
 990              	.LVL95:
 714:lvgl/src/extra/widgets/span/lv_span.c ****         LV_LOG_ERROR("occur an error that span text == NULL");
 991              		.loc 1 714 15 view .LVU248
ARM GAS  C:\Users\BLACK_~1\AppData\Local\Temp\ccmy2bqO.s 			page 46


 992              	.LBE101:
 993              	.LBE102:
 770:lvgl/src/extra/widgets/span/lv_span.c ****             }
 994              		.loc 1 770 29 view .LVU249
 995 00b6 0025     		movs	r5, #0
 996              	.LVL96:
 770:lvgl/src/extra/widgets/span/lv_span.c ****             }
 997              		.loc 1 770 29 view .LVU250
 998 00b8 4DE0     		b	.L57
 999              	.LVL97:
 1000              	.L120:
 775:lvgl/src/extra/widgets/span/lv_span.c ****                 snippet.font = lv_span_get_style_text_font(obj, cur_span);
 1001              		.loc 1 775 17 is_stmt 1 view .LVU251
 775:lvgl/src/extra/widgets/span/lv_span.c ****                 snippet.font = lv_span_get_style_text_font(obj, cur_span);
 1002              		.loc 1 775 30 is_stmt 0 view .LVU252
 1003 00ba CDF88080 		str	r8, [sp, #128]
 776:lvgl/src/extra/widgets/span/lv_span.c ****                 snippet.letter_space = lv_span_get_style_text_letter_space(obj, cur_span);
 1004              		.loc 1 776 17 is_stmt 1 view .LVU253
 776:lvgl/src/extra/widgets/span/lv_span.c ****                 snippet.letter_space = lv_span_get_style_text_letter_space(obj, cur_span);
 1005              		.loc 1 776 32 is_stmt 0 view .LVU254
 1006 00be 4146     		mov	r1, r8
 1007 00c0 4846     		mov	r0, r9
 1008 00c2 FFF7FEFF 		bl	lv_span_get_style_text_font
 1009              	.LVL98:
 776:lvgl/src/extra/widgets/span/lv_span.c ****                 snippet.letter_space = lv_span_get_style_text_letter_space(obj, cur_span);
 1010              		.loc 1 776 30 view .LVU255
 1011 00c6 2290     		str	r0, [sp, #136]
 777:lvgl/src/extra/widgets/span/lv_span.c ****                 snippet.line_h = lv_font_get_line_height(snippet.font) + line_space;
 1012              		.loc 1 777 17 is_stmt 1 view .LVU256
 777:lvgl/src/extra/widgets/span/lv_span.c ****                 snippet.line_h = lv_font_get_line_height(snippet.font) + line_space;
 1013              		.loc 1 777 40 is_stmt 0 view .LVU257
 1014 00c8 4146     		mov	r1, r8
 1015 00ca 4846     		mov	r0, r9
 1016 00cc FFF7FEFF 		bl	lv_span_get_style_text_letter_space
 1017              	.LVL99:
 777:lvgl/src/extra/widgets/span/lv_span.c ****                 snippet.line_h = lv_font_get_line_height(snippet.font) + line_space;
 1018              		.loc 1 777 38 view .LVU258
 1019 00d0 ADF89200 		strh	r0, [sp, #146]	@ movhi
 778:lvgl/src/extra/widgets/span/lv_span.c ****             }
 1020              		.loc 1 778 17 is_stmt 1 view .LVU259
 778:lvgl/src/extra/widgets/span/lv_span.c ****             }
 1021              		.loc 1 778 34 is_stmt 0 view .LVU260
 1022 00d4 229B     		ldr	r3, [sp, #136]
 1023              	.LVL100:
 1024              	.LBB103:
 1025              	.LBI103:
 1026              		.file 4 "lvgl/src/extra/widgets/span/../../../../src/core/../misc/../font/lv_font.h"
   1:lvgl/src/extra/widgets/span/../../../../src/core/../misc/../font/lv_font.h **** /**
   2:lvgl/src/extra/widgets/span/../../../../src/core/../misc/../font/lv_font.h ****  * @file lv_font.h
   3:lvgl/src/extra/widgets/span/../../../../src/core/../misc/../font/lv_font.h ****  *
   4:lvgl/src/extra/widgets/span/../../../../src/core/../misc/../font/lv_font.h ****  */
   5:lvgl/src/extra/widgets/span/../../../../src/core/../misc/../font/lv_font.h **** 
   6:lvgl/src/extra/widgets/span/../../../../src/core/../misc/../font/lv_font.h **** #ifndef LV_FONT_H
   7:lvgl/src/extra/widgets/span/../../../../src/core/../misc/../font/lv_font.h **** #define LV_FONT_H
   8:lvgl/src/extra/widgets/span/../../../../src/core/../misc/../font/lv_font.h **** 
   9:lvgl/src/extra/widgets/span/../../../../src/core/../misc/../font/lv_font.h **** #ifdef __cplusplus
  10:lvgl/src/extra/widgets/span/../../../../src/core/../misc/../font/lv_font.h **** extern "C" {
ARM GAS  C:\Users\BLACK_~1\AppData\Local\Temp\ccmy2bqO.s 			page 47


  11:lvgl/src/extra/widgets/span/../../../../src/core/../misc/../font/lv_font.h **** #endif
  12:lvgl/src/extra/widgets/span/../../../../src/core/../misc/../font/lv_font.h **** 
  13:lvgl/src/extra/widgets/span/../../../../src/core/../misc/../font/lv_font.h **** /*********************
  14:lvgl/src/extra/widgets/span/../../../../src/core/../misc/../font/lv_font.h ****  *      INCLUDES
  15:lvgl/src/extra/widgets/span/../../../../src/core/../misc/../font/lv_font.h ****  *********************/
  16:lvgl/src/extra/widgets/span/../../../../src/core/../misc/../font/lv_font.h **** #include "../lv_conf_internal.h"
  17:lvgl/src/extra/widgets/span/../../../../src/core/../misc/../font/lv_font.h **** #include <stdint.h>
  18:lvgl/src/extra/widgets/span/../../../../src/core/../misc/../font/lv_font.h **** #include <stddef.h>
  19:lvgl/src/extra/widgets/span/../../../../src/core/../misc/../font/lv_font.h **** #include <stdbool.h>
  20:lvgl/src/extra/widgets/span/../../../../src/core/../misc/../font/lv_font.h **** 
  21:lvgl/src/extra/widgets/span/../../../../src/core/../misc/../font/lv_font.h **** #include "lv_symbol_def.h"
  22:lvgl/src/extra/widgets/span/../../../../src/core/../misc/../font/lv_font.h **** #include "../misc/lv_area.h"
  23:lvgl/src/extra/widgets/span/../../../../src/core/../misc/../font/lv_font.h **** 
  24:lvgl/src/extra/widgets/span/../../../../src/core/../misc/../font/lv_font.h **** /*********************
  25:lvgl/src/extra/widgets/span/../../../../src/core/../misc/../font/lv_font.h ****  *      DEFINES
  26:lvgl/src/extra/widgets/span/../../../../src/core/../misc/../font/lv_font.h ****  *********************/
  27:lvgl/src/extra/widgets/span/../../../../src/core/../misc/../font/lv_font.h **** 
  28:lvgl/src/extra/widgets/span/../../../../src/core/../misc/../font/lv_font.h **** /**********************
  29:lvgl/src/extra/widgets/span/../../../../src/core/../misc/../font/lv_font.h ****  *      TYPEDEFS
  30:lvgl/src/extra/widgets/span/../../../../src/core/../misc/../font/lv_font.h ****  **********************/
  31:lvgl/src/extra/widgets/span/../../../../src/core/../misc/../font/lv_font.h **** 
  32:lvgl/src/extra/widgets/span/../../../../src/core/../misc/../font/lv_font.h **** /*------------------
  33:lvgl/src/extra/widgets/span/../../../../src/core/../misc/../font/lv_font.h ****  * General types
  34:lvgl/src/extra/widgets/span/../../../../src/core/../misc/../font/lv_font.h ****  *-----------------*/
  35:lvgl/src/extra/widgets/span/../../../../src/core/../misc/../font/lv_font.h **** 
  36:lvgl/src/extra/widgets/span/../../../../src/core/../misc/../font/lv_font.h **** /** Describes the properties of a glyph.*/
  37:lvgl/src/extra/widgets/span/../../../../src/core/../misc/../font/lv_font.h **** typedef struct {
  38:lvgl/src/extra/widgets/span/../../../../src/core/../misc/../font/lv_font.h ****     uint16_t adv_w; /**< The glyph needs this space. Draw the next glyph after this width.*/
  39:lvgl/src/extra/widgets/span/../../../../src/core/../misc/../font/lv_font.h ****     uint16_t box_w;  /**< Width of the glyph's bounding box*/
  40:lvgl/src/extra/widgets/span/../../../../src/core/../misc/../font/lv_font.h ****     uint16_t box_h;  /**< Height of the glyph's bounding box*/
  41:lvgl/src/extra/widgets/span/../../../../src/core/../misc/../font/lv_font.h ****     int16_t ofs_x;   /**< x offset of the bounding box*/
  42:lvgl/src/extra/widgets/span/../../../../src/core/../misc/../font/lv_font.h ****     int16_t ofs_y;  /**< y offset of the bounding box*/
  43:lvgl/src/extra/widgets/span/../../../../src/core/../misc/../font/lv_font.h ****     uint8_t bpp;   /**< Bit-per-pixel: 1, 2, 4, 8*/
  44:lvgl/src/extra/widgets/span/../../../../src/core/../misc/../font/lv_font.h **** } lv_font_glyph_dsc_t;
  45:lvgl/src/extra/widgets/span/../../../../src/core/../misc/../font/lv_font.h **** 
  46:lvgl/src/extra/widgets/span/../../../../src/core/../misc/../font/lv_font.h **** /** The bitmaps might be upscaled by 3 to achieve subpixel rendering.*/
  47:lvgl/src/extra/widgets/span/../../../../src/core/../misc/../font/lv_font.h **** enum {
  48:lvgl/src/extra/widgets/span/../../../../src/core/../misc/../font/lv_font.h ****     LV_FONT_SUBPX_NONE,
  49:lvgl/src/extra/widgets/span/../../../../src/core/../misc/../font/lv_font.h ****     LV_FONT_SUBPX_HOR,
  50:lvgl/src/extra/widgets/span/../../../../src/core/../misc/../font/lv_font.h ****     LV_FONT_SUBPX_VER,
  51:lvgl/src/extra/widgets/span/../../../../src/core/../misc/../font/lv_font.h ****     LV_FONT_SUBPX_BOTH,
  52:lvgl/src/extra/widgets/span/../../../../src/core/../misc/../font/lv_font.h **** };
  53:lvgl/src/extra/widgets/span/../../../../src/core/../misc/../font/lv_font.h **** 
  54:lvgl/src/extra/widgets/span/../../../../src/core/../misc/../font/lv_font.h **** typedef uint8_t lv_font_subpx_t;
  55:lvgl/src/extra/widgets/span/../../../../src/core/../misc/../font/lv_font.h **** 
  56:lvgl/src/extra/widgets/span/../../../../src/core/../misc/../font/lv_font.h **** struct _lv_font_t;
  57:lvgl/src/extra/widgets/span/../../../../src/core/../misc/../font/lv_font.h **** 
  58:lvgl/src/extra/widgets/span/../../../../src/core/../misc/../font/lv_font.h **** /** Describe the properties of a font*/
  59:lvgl/src/extra/widgets/span/../../../../src/core/../misc/../font/lv_font.h **** typedef struct _lv_font_t {
  60:lvgl/src/extra/widgets/span/../../../../src/core/../misc/../font/lv_font.h ****     /** Get a glyph's descriptor from a font*/
  61:lvgl/src/extra/widgets/span/../../../../src/core/../misc/../font/lv_font.h ****     bool (*get_glyph_dsc)(const struct _lv_font_t *, lv_font_glyph_dsc_t *, uint32_t letter, uint32
  62:lvgl/src/extra/widgets/span/../../../../src/core/../misc/../font/lv_font.h **** 
  63:lvgl/src/extra/widgets/span/../../../../src/core/../misc/../font/lv_font.h ****     /** Get a glyph's bitmap from a font*/
  64:lvgl/src/extra/widgets/span/../../../../src/core/../misc/../font/lv_font.h ****     const uint8_t * (*get_glyph_bitmap)(const struct _lv_font_t *, uint32_t);
  65:lvgl/src/extra/widgets/span/../../../../src/core/../misc/../font/lv_font.h **** 
  66:lvgl/src/extra/widgets/span/../../../../src/core/../misc/../font/lv_font.h ****     /*Pointer to the font in a font pack (must have the same line height)*/
  67:lvgl/src/extra/widgets/span/../../../../src/core/../misc/../font/lv_font.h ****     lv_coord_t line_height;         /**< The real line height where any text fits*/
ARM GAS  C:\Users\BLACK_~1\AppData\Local\Temp\ccmy2bqO.s 			page 48


  68:lvgl/src/extra/widgets/span/../../../../src/core/../misc/../font/lv_font.h ****     lv_coord_t base_line;           /**< Base line measured from the top of the line_height*/
  69:lvgl/src/extra/widgets/span/../../../../src/core/../misc/../font/lv_font.h ****     uint8_t subpx  : 2;             /**< An element of `lv_font_subpx_t`*/
  70:lvgl/src/extra/widgets/span/../../../../src/core/../misc/../font/lv_font.h **** 
  71:lvgl/src/extra/widgets/span/../../../../src/core/../misc/../font/lv_font.h ****     int8_t underline_position;      /**< Distance between the top of the underline and base line (<
  72:lvgl/src/extra/widgets/span/../../../../src/core/../misc/../font/lv_font.h ****     int8_t underline_thickness;     /**< Thickness of the underline*/
  73:lvgl/src/extra/widgets/span/../../../../src/core/../misc/../font/lv_font.h **** 
  74:lvgl/src/extra/widgets/span/../../../../src/core/../misc/../font/lv_font.h ****     const void * dsc;                     /**< Store implementation specific or run_time data or ca
  75:lvgl/src/extra/widgets/span/../../../../src/core/../misc/../font/lv_font.h **** #if LV_USE_USER_DATA
  76:lvgl/src/extra/widgets/span/../../../../src/core/../misc/../font/lv_font.h ****     void * user_data;               /**< Custom user data for font.*/
  77:lvgl/src/extra/widgets/span/../../../../src/core/../misc/../font/lv_font.h **** #endif
  78:lvgl/src/extra/widgets/span/../../../../src/core/../misc/../font/lv_font.h **** 
  79:lvgl/src/extra/widgets/span/../../../../src/core/../misc/../font/lv_font.h **** } lv_font_t;
  80:lvgl/src/extra/widgets/span/../../../../src/core/../misc/../font/lv_font.h **** 
  81:lvgl/src/extra/widgets/span/../../../../src/core/../misc/../font/lv_font.h **** /**********************
  82:lvgl/src/extra/widgets/span/../../../../src/core/../misc/../font/lv_font.h ****  * GLOBAL PROTOTYPES
  83:lvgl/src/extra/widgets/span/../../../../src/core/../misc/../font/lv_font.h ****  **********************/
  84:lvgl/src/extra/widgets/span/../../../../src/core/../misc/../font/lv_font.h **** 
  85:lvgl/src/extra/widgets/span/../../../../src/core/../misc/../font/lv_font.h **** /**
  86:lvgl/src/extra/widgets/span/../../../../src/core/../misc/../font/lv_font.h ****  * Return with the bitmap of a font.
  87:lvgl/src/extra/widgets/span/../../../../src/core/../misc/../font/lv_font.h ****  * @param font_p pointer to a font
  88:lvgl/src/extra/widgets/span/../../../../src/core/../misc/../font/lv_font.h ****  * @param letter an UNICODE character code
  89:lvgl/src/extra/widgets/span/../../../../src/core/../misc/../font/lv_font.h ****  * @return pointer to the bitmap of the letter
  90:lvgl/src/extra/widgets/span/../../../../src/core/../misc/../font/lv_font.h ****  */
  91:lvgl/src/extra/widgets/span/../../../../src/core/../misc/../font/lv_font.h **** const uint8_t * lv_font_get_glyph_bitmap(const lv_font_t * font_p, uint32_t letter);
  92:lvgl/src/extra/widgets/span/../../../../src/core/../misc/../font/lv_font.h **** 
  93:lvgl/src/extra/widgets/span/../../../../src/core/../misc/../font/lv_font.h **** /**
  94:lvgl/src/extra/widgets/span/../../../../src/core/../misc/../font/lv_font.h ****  * Get the descriptor of a glyph
  95:lvgl/src/extra/widgets/span/../../../../src/core/../misc/../font/lv_font.h ****  * @param font_p pointer to font
  96:lvgl/src/extra/widgets/span/../../../../src/core/../misc/../font/lv_font.h ****  * @param dsc_out store the result descriptor here
  97:lvgl/src/extra/widgets/span/../../../../src/core/../misc/../font/lv_font.h ****  * @param letter an UNICODE letter code
  98:lvgl/src/extra/widgets/span/../../../../src/core/../misc/../font/lv_font.h ****  * @return true: descriptor is successfully loaded into `dsc_out`.
  99:lvgl/src/extra/widgets/span/../../../../src/core/../misc/../font/lv_font.h ****  *         false: the letter was not found, no data is loaded to `dsc_out`
 100:lvgl/src/extra/widgets/span/../../../../src/core/../misc/../font/lv_font.h ****  */
 101:lvgl/src/extra/widgets/span/../../../../src/core/../misc/../font/lv_font.h **** bool lv_font_get_glyph_dsc(const lv_font_t * font_p, lv_font_glyph_dsc_t * dsc_out, uint32_t letter
 102:lvgl/src/extra/widgets/span/../../../../src/core/../misc/../font/lv_font.h ****                            uint32_t letter_next);
 103:lvgl/src/extra/widgets/span/../../../../src/core/../misc/../font/lv_font.h **** 
 104:lvgl/src/extra/widgets/span/../../../../src/core/../misc/../font/lv_font.h **** /**
 105:lvgl/src/extra/widgets/span/../../../../src/core/../misc/../font/lv_font.h ****  * Get the width of a glyph with kerning
 106:lvgl/src/extra/widgets/span/../../../../src/core/../misc/../font/lv_font.h ****  * @param font pointer to a font
 107:lvgl/src/extra/widgets/span/../../../../src/core/../misc/../font/lv_font.h ****  * @param letter an UNICODE letter
 108:lvgl/src/extra/widgets/span/../../../../src/core/../misc/../font/lv_font.h ****  * @param letter_next the next letter after `letter`. Used for kerning
 109:lvgl/src/extra/widgets/span/../../../../src/core/../misc/../font/lv_font.h ****  * @return the width of the glyph
 110:lvgl/src/extra/widgets/span/../../../../src/core/../misc/../font/lv_font.h ****  */
 111:lvgl/src/extra/widgets/span/../../../../src/core/../misc/../font/lv_font.h **** uint16_t lv_font_get_glyph_width(const lv_font_t * font, uint32_t letter, uint32_t letter_next);
 112:lvgl/src/extra/widgets/span/../../../../src/core/../misc/../font/lv_font.h **** 
 113:lvgl/src/extra/widgets/span/../../../../src/core/../misc/../font/lv_font.h **** /**
 114:lvgl/src/extra/widgets/span/../../../../src/core/../misc/../font/lv_font.h ****  * Get the line height of a font. All characters fit into this height
 115:lvgl/src/extra/widgets/span/../../../../src/core/../misc/../font/lv_font.h ****  * @param font_p pointer to a font
 116:lvgl/src/extra/widgets/span/../../../../src/core/../misc/../font/lv_font.h ****  * @return the height of a font
 117:lvgl/src/extra/widgets/span/../../../../src/core/../misc/../font/lv_font.h ****  */
 118:lvgl/src/extra/widgets/span/../../../../src/core/../misc/../font/lv_font.h **** static inline lv_coord_t lv_font_get_line_height(const lv_font_t * font_p)
 1027              		.loc 4 118 26 is_stmt 1 view .LVU261
 1028              	.LBB104:
 119:lvgl/src/extra/widgets/span/../../../../src/core/../misc/../font/lv_font.h **** {
 120:lvgl/src/extra/widgets/span/../../../../src/core/../misc/../font/lv_font.h ****     return font_p->line_height;
 1029              		.loc 4 120 5 view .LVU262
 1030              		.loc 4 120 18 is_stmt 0 view .LVU263
ARM GAS  C:\Users\BLACK_~1\AppData\Local\Temp\ccmy2bqO.s 			page 49


 1031 00d6 B3F90830 		ldrsh	r3, [r3, #8]
 1032              	.LVL101:
 1033              		.loc 4 120 18 view .LVU264
 1034              	.LBE104:
 1035              	.LBE103:
 778:lvgl/src/extra/widgets/span/lv_span.c ****             }
 1036              		.loc 1 778 72 view .LVU265
 1037 00da 0C9A     		ldr	r2, [sp, #48]
 1038 00dc 12FA83F3 		uxtah	r3, r2, r3
 778:lvgl/src/extra/widgets/span/lv_span.c ****             }
 1039              		.loc 1 778 32 view .LVU266
 1040 00e0 ADF89030 		strh	r3, [sp, #144]	@ movhi
 1041 00e4 39E0     		b	.L59
 1042              	.LVL102:
 1043              	.L121:
 1044              	.LBB105:
 1045              	.LBB106:
 1046              	.LBB107:
 1047              		.file 5 "lvgl/src/extra/widgets/span/../../../../src/core/../misc/lv_txt.h"
   1:lvgl/src/extra/widgets/span/../../../../src/core/../misc/lv_txt.h **** /**
   2:lvgl/src/extra/widgets/span/../../../../src/core/../misc/lv_txt.h ****  * @file lv_text.h
   3:lvgl/src/extra/widgets/span/../../../../src/core/../misc/lv_txt.h ****  *
   4:lvgl/src/extra/widgets/span/../../../../src/core/../misc/lv_txt.h ****  */
   5:lvgl/src/extra/widgets/span/../../../../src/core/../misc/lv_txt.h **** 
   6:lvgl/src/extra/widgets/span/../../../../src/core/../misc/lv_txt.h **** #ifndef LV_TXT_H
   7:lvgl/src/extra/widgets/span/../../../../src/core/../misc/lv_txt.h **** #define LV_TXT_H
   8:lvgl/src/extra/widgets/span/../../../../src/core/../misc/lv_txt.h **** 
   9:lvgl/src/extra/widgets/span/../../../../src/core/../misc/lv_txt.h **** #ifdef __cplusplus
  10:lvgl/src/extra/widgets/span/../../../../src/core/../misc/lv_txt.h **** extern "C" {
  11:lvgl/src/extra/widgets/span/../../../../src/core/../misc/lv_txt.h **** #endif
  12:lvgl/src/extra/widgets/span/../../../../src/core/../misc/lv_txt.h **** 
  13:lvgl/src/extra/widgets/span/../../../../src/core/../misc/lv_txt.h **** /*********************
  14:lvgl/src/extra/widgets/span/../../../../src/core/../misc/lv_txt.h ****  *      INCLUDES
  15:lvgl/src/extra/widgets/span/../../../../src/core/../misc/lv_txt.h ****  *********************/
  16:lvgl/src/extra/widgets/span/../../../../src/core/../misc/lv_txt.h **** #include "../lv_conf_internal.h"
  17:lvgl/src/extra/widgets/span/../../../../src/core/../misc/lv_txt.h **** 
  18:lvgl/src/extra/widgets/span/../../../../src/core/../misc/lv_txt.h **** #include <stdbool.h>
  19:lvgl/src/extra/widgets/span/../../../../src/core/../misc/lv_txt.h **** #include <stdarg.h>
  20:lvgl/src/extra/widgets/span/../../../../src/core/../misc/lv_txt.h **** #include "lv_area.h"
  21:lvgl/src/extra/widgets/span/../../../../src/core/../misc/lv_txt.h **** #include "../font/lv_font.h"
  22:lvgl/src/extra/widgets/span/../../../../src/core/../misc/lv_txt.h **** #include "lv_printf.h"
  23:lvgl/src/extra/widgets/span/../../../../src/core/../misc/lv_txt.h **** #include "lv_types.h"
  24:lvgl/src/extra/widgets/span/../../../../src/core/../misc/lv_txt.h **** 
  25:lvgl/src/extra/widgets/span/../../../../src/core/../misc/lv_txt.h **** /*********************
  26:lvgl/src/extra/widgets/span/../../../../src/core/../misc/lv_txt.h ****  *      DEFINES
  27:lvgl/src/extra/widgets/span/../../../../src/core/../misc/lv_txt.h ****  *********************/
  28:lvgl/src/extra/widgets/span/../../../../src/core/../misc/lv_txt.h **** #ifndef LV_TXT_COLOR_CMD
  29:lvgl/src/extra/widgets/span/../../../../src/core/../misc/lv_txt.h **** #define LV_TXT_COLOR_CMD "#"
  30:lvgl/src/extra/widgets/span/../../../../src/core/../misc/lv_txt.h **** #endif
  31:lvgl/src/extra/widgets/span/../../../../src/core/../misc/lv_txt.h **** 
  32:lvgl/src/extra/widgets/span/../../../../src/core/../misc/lv_txt.h **** #define LV_TXT_ENC_UTF8 1
  33:lvgl/src/extra/widgets/span/../../../../src/core/../misc/lv_txt.h **** #define LV_TXT_ENC_ASCII 2
  34:lvgl/src/extra/widgets/span/../../../../src/core/../misc/lv_txt.h **** 
  35:lvgl/src/extra/widgets/span/../../../../src/core/../misc/lv_txt.h **** /**********************
  36:lvgl/src/extra/widgets/span/../../../../src/core/../misc/lv_txt.h ****  *      TYPEDEFS
  37:lvgl/src/extra/widgets/span/../../../../src/core/../misc/lv_txt.h ****  **********************/
  38:lvgl/src/extra/widgets/span/../../../../src/core/../misc/lv_txt.h **** 
ARM GAS  C:\Users\BLACK_~1\AppData\Local\Temp\ccmy2bqO.s 			page 50


  39:lvgl/src/extra/widgets/span/../../../../src/core/../misc/lv_txt.h **** /**
  40:lvgl/src/extra/widgets/span/../../../../src/core/../misc/lv_txt.h ****  * Options for text rendering.
  41:lvgl/src/extra/widgets/span/../../../../src/core/../misc/lv_txt.h ****  */
  42:lvgl/src/extra/widgets/span/../../../../src/core/../misc/lv_txt.h **** enum {
  43:lvgl/src/extra/widgets/span/../../../../src/core/../misc/lv_txt.h ****     LV_TEXT_FLAG_NONE    = 0x00,
  44:lvgl/src/extra/widgets/span/../../../../src/core/../misc/lv_txt.h ****     LV_TEXT_FLAG_RECOLOR = 0x01, /**< Enable parsing of recolor command*/
  45:lvgl/src/extra/widgets/span/../../../../src/core/../misc/lv_txt.h ****     LV_TEXT_FLAG_EXPAND  = 0x02, /**< Ignore max-width to avoid automatic word wrapping*/
  46:lvgl/src/extra/widgets/span/../../../../src/core/../misc/lv_txt.h ****     LV_TEXT_FLAG_FIT     = 0x04, /**< Max-width is already equal to the longest line. (Used to skip
  47:lvgl/src/extra/widgets/span/../../../../src/core/../misc/lv_txt.h **** };
  48:lvgl/src/extra/widgets/span/../../../../src/core/../misc/lv_txt.h **** typedef uint8_t lv_text_flag_t;
  49:lvgl/src/extra/widgets/span/../../../../src/core/../misc/lv_txt.h **** 
  50:lvgl/src/extra/widgets/span/../../../../src/core/../misc/lv_txt.h **** /**
  51:lvgl/src/extra/widgets/span/../../../../src/core/../misc/lv_txt.h ****  * State machine for text renderer.*/
  52:lvgl/src/extra/widgets/span/../../../../src/core/../misc/lv_txt.h **** enum {
  53:lvgl/src/extra/widgets/span/../../../../src/core/../misc/lv_txt.h ****     LV_TEXT_CMD_STATE_WAIT, /**< Waiting for command*/
  54:lvgl/src/extra/widgets/span/../../../../src/core/../misc/lv_txt.h ****     LV_TEXT_CMD_STATE_PAR,  /**< Processing the parameter*/
  55:lvgl/src/extra/widgets/span/../../../../src/core/../misc/lv_txt.h ****     LV_TEXT_CMD_STATE_IN,   /**< Processing the command*/
  56:lvgl/src/extra/widgets/span/../../../../src/core/../misc/lv_txt.h **** };
  57:lvgl/src/extra/widgets/span/../../../../src/core/../misc/lv_txt.h **** typedef uint8_t lv_text_cmd_state_t;
  58:lvgl/src/extra/widgets/span/../../../../src/core/../misc/lv_txt.h **** 
  59:lvgl/src/extra/widgets/span/../../../../src/core/../misc/lv_txt.h **** /** Label align policy*/
  60:lvgl/src/extra/widgets/span/../../../../src/core/../misc/lv_txt.h **** enum {
  61:lvgl/src/extra/widgets/span/../../../../src/core/../misc/lv_txt.h ****     LV_TEXT_ALIGN_AUTO, /**< Align text auto*/
  62:lvgl/src/extra/widgets/span/../../../../src/core/../misc/lv_txt.h ****     LV_TEXT_ALIGN_LEFT, /**< Align text to left*/
  63:lvgl/src/extra/widgets/span/../../../../src/core/../misc/lv_txt.h ****     LV_TEXT_ALIGN_CENTER, /**< Align text to center*/
  64:lvgl/src/extra/widgets/span/../../../../src/core/../misc/lv_txt.h ****     LV_TEXT_ALIGN_RIGHT, /**< Align text to right*/
  65:lvgl/src/extra/widgets/span/../../../../src/core/../misc/lv_txt.h **** };
  66:lvgl/src/extra/widgets/span/../../../../src/core/../misc/lv_txt.h **** typedef uint8_t lv_text_align_t;
  67:lvgl/src/extra/widgets/span/../../../../src/core/../misc/lv_txt.h **** 
  68:lvgl/src/extra/widgets/span/../../../../src/core/../misc/lv_txt.h **** /**********************
  69:lvgl/src/extra/widgets/span/../../../../src/core/../misc/lv_txt.h ****  * GLOBAL PROTOTYPES
  70:lvgl/src/extra/widgets/span/../../../../src/core/../misc/lv_txt.h ****  **********************/
  71:lvgl/src/extra/widgets/span/../../../../src/core/../misc/lv_txt.h **** 
  72:lvgl/src/extra/widgets/span/../../../../src/core/../misc/lv_txt.h **** /**
  73:lvgl/src/extra/widgets/span/../../../../src/core/../misc/lv_txt.h ****  * Get size of a text
  74:lvgl/src/extra/widgets/span/../../../../src/core/../misc/lv_txt.h ****  * @param size_res pointer to a 'point_t' variable to store the result
  75:lvgl/src/extra/widgets/span/../../../../src/core/../misc/lv_txt.h ****  * @param text pointer to a text
  76:lvgl/src/extra/widgets/span/../../../../src/core/../misc/lv_txt.h ****  * @param font pointer to font of the text
  77:lvgl/src/extra/widgets/span/../../../../src/core/../misc/lv_txt.h ****  * @param letter_space letter space of the text
  78:lvgl/src/extra/widgets/span/../../../../src/core/../misc/lv_txt.h ****  * @param line_space line space of the text
  79:lvgl/src/extra/widgets/span/../../../../src/core/../misc/lv_txt.h ****  * @param flags settings for the text from ::lv_text_flag_t
  80:lvgl/src/extra/widgets/span/../../../../src/core/../misc/lv_txt.h ****  * @param max_width max with of the text (break the lines to fit this size) Set CORD_MAX to avoid
  81:lvgl/src/extra/widgets/span/../../../../src/core/../misc/lv_txt.h ****  * line breaks
  82:lvgl/src/extra/widgets/span/../../../../src/core/../misc/lv_txt.h ****  */
  83:lvgl/src/extra/widgets/span/../../../../src/core/../misc/lv_txt.h **** void lv_txt_get_size(lv_point_t * size_res, const char * text, const lv_font_t * font, lv_coord_t l
  84:lvgl/src/extra/widgets/span/../../../../src/core/../misc/lv_txt.h ****                       lv_coord_t line_space, lv_coord_t max_width, lv_text_flag_t flag);
  85:lvgl/src/extra/widgets/span/../../../../src/core/../misc/lv_txt.h **** 
  86:lvgl/src/extra/widgets/span/../../../../src/core/../misc/lv_txt.h **** /**
  87:lvgl/src/extra/widgets/span/../../../../src/core/../misc/lv_txt.h ****  * Get the next line of text. Check line length and break chars too.
  88:lvgl/src/extra/widgets/span/../../../../src/core/../misc/lv_txt.h ****  * @param txt a '\0' terminated string
  89:lvgl/src/extra/widgets/span/../../../../src/core/../misc/lv_txt.h ****  * @param font pointer to a font
  90:lvgl/src/extra/widgets/span/../../../../src/core/../misc/lv_txt.h ****  * @param letter_space letter space
  91:lvgl/src/extra/widgets/span/../../../../src/core/../misc/lv_txt.h ****  * @param max_width max with of the text (break the lines to fit this size) Set CORD_MAX to avoid
  92:lvgl/src/extra/widgets/span/../../../../src/core/../misc/lv_txt.h ****  * line breaks
  93:lvgl/src/extra/widgets/span/../../../../src/core/../misc/lv_txt.h ****  * @param flags settings for the text from 'txt_flag_type' enum
  94:lvgl/src/extra/widgets/span/../../../../src/core/../misc/lv_txt.h ****  * @return the index of the first char of the new line (in byte index not letter index. With UTF-8
  95:lvgl/src/extra/widgets/span/../../../../src/core/../misc/lv_txt.h ****  * they are different)
ARM GAS  C:\Users\BLACK_~1\AppData\Local\Temp\ccmy2bqO.s 			page 51


  96:lvgl/src/extra/widgets/span/../../../../src/core/../misc/lv_txt.h ****  */
  97:lvgl/src/extra/widgets/span/../../../../src/core/../misc/lv_txt.h **** uint32_t _lv_txt_get_next_line(const char * txt, const lv_font_t * font, lv_coord_t letter_space, l
  98:lvgl/src/extra/widgets/span/../../../../src/core/../misc/lv_txt.h ****                                lv_text_flag_t flag);
  99:lvgl/src/extra/widgets/span/../../../../src/core/../misc/lv_txt.h **** 
 100:lvgl/src/extra/widgets/span/../../../../src/core/../misc/lv_txt.h **** /**
 101:lvgl/src/extra/widgets/span/../../../../src/core/../misc/lv_txt.h ****  * Give the length of a text with a given font
 102:lvgl/src/extra/widgets/span/../../../../src/core/../misc/lv_txt.h ****  * @param txt a '\0' terminate string
 103:lvgl/src/extra/widgets/span/../../../../src/core/../misc/lv_txt.h ****  * @param length length of 'txt' in byte count and not characters ( is 1 character but 2 bytes in
 104:lvgl/src/extra/widgets/span/../../../../src/core/../misc/lv_txt.h ****  * UTF-8)
 105:lvgl/src/extra/widgets/span/../../../../src/core/../misc/lv_txt.h ****  * @param font pointer to a font
 106:lvgl/src/extra/widgets/span/../../../../src/core/../misc/lv_txt.h ****  * @param letter_space letter space
 107:lvgl/src/extra/widgets/span/../../../../src/core/../misc/lv_txt.h ****  * @param flags settings for the text from 'txt_flag_t' enum
 108:lvgl/src/extra/widgets/span/../../../../src/core/../misc/lv_txt.h ****  * @return length of a char_num long text
 109:lvgl/src/extra/widgets/span/../../../../src/core/../misc/lv_txt.h ****  */
 110:lvgl/src/extra/widgets/span/../../../../src/core/../misc/lv_txt.h **** lv_coord_t lv_txt_get_width(const char * txt, uint32_t length, const lv_font_t * font, lv_coord_t l
 111:lvgl/src/extra/widgets/span/../../../../src/core/../misc/lv_txt.h ****                              lv_text_flag_t flag);
 112:lvgl/src/extra/widgets/span/../../../../src/core/../misc/lv_txt.h **** 
 113:lvgl/src/extra/widgets/span/../../../../src/core/../misc/lv_txt.h **** /**
 114:lvgl/src/extra/widgets/span/../../../../src/core/../misc/lv_txt.h ****  * Check next character in a string and decide if the character is part of the command or not
 115:lvgl/src/extra/widgets/span/../../../../src/core/../misc/lv_txt.h ****  * @param state pointer to a txt_cmd_state_t variable which stores the current state of command
 116:lvgl/src/extra/widgets/span/../../../../src/core/../misc/lv_txt.h ****  * processing
 117:lvgl/src/extra/widgets/span/../../../../src/core/../misc/lv_txt.h ****  * @param c the current character
 118:lvgl/src/extra/widgets/span/../../../../src/core/../misc/lv_txt.h ****  * @return true: the character is part of a command and should not be written,
 119:lvgl/src/extra/widgets/span/../../../../src/core/../misc/lv_txt.h ****  *         false: the character should be written
 120:lvgl/src/extra/widgets/span/../../../../src/core/../misc/lv_txt.h ****  */
 121:lvgl/src/extra/widgets/span/../../../../src/core/../misc/lv_txt.h **** bool _lv_txt_is_cmd(lv_text_cmd_state_t * state, uint32_t c);
 122:lvgl/src/extra/widgets/span/../../../../src/core/../misc/lv_txt.h **** 
 123:lvgl/src/extra/widgets/span/../../../../src/core/../misc/lv_txt.h **** /**
 124:lvgl/src/extra/widgets/span/../../../../src/core/../misc/lv_txt.h ****  * Insert a string into an other
 125:lvgl/src/extra/widgets/span/../../../../src/core/../misc/lv_txt.h ****  * @param txt_buf the original text (must be big enough for the result text)
 126:lvgl/src/extra/widgets/span/../../../../src/core/../misc/lv_txt.h ****  * @param pos position to insert (0: before the original text, 1: after the first char etc.)
 127:lvgl/src/extra/widgets/span/../../../../src/core/../misc/lv_txt.h ****  * @param ins_txt text to insert
 128:lvgl/src/extra/widgets/span/../../../../src/core/../misc/lv_txt.h ****  */
 129:lvgl/src/extra/widgets/span/../../../../src/core/../misc/lv_txt.h **** void _lv_txt_ins(char * txt_buf, uint32_t pos, const char * ins_txt);
 130:lvgl/src/extra/widgets/span/../../../../src/core/../misc/lv_txt.h **** 
 131:lvgl/src/extra/widgets/span/../../../../src/core/../misc/lv_txt.h **** /**
 132:lvgl/src/extra/widgets/span/../../../../src/core/../misc/lv_txt.h ****  * Delete a part of a string
 133:lvgl/src/extra/widgets/span/../../../../src/core/../misc/lv_txt.h ****  * @param txt string to modify
 134:lvgl/src/extra/widgets/span/../../../../src/core/../misc/lv_txt.h ****  * @param pos position where to start the deleting (0: before the first char, 1: after the first
 135:lvgl/src/extra/widgets/span/../../../../src/core/../misc/lv_txt.h ****  * char etc.)
 136:lvgl/src/extra/widgets/span/../../../../src/core/../misc/lv_txt.h ****  * @param len number of characters to delete
 137:lvgl/src/extra/widgets/span/../../../../src/core/../misc/lv_txt.h ****  */
 138:lvgl/src/extra/widgets/span/../../../../src/core/../misc/lv_txt.h **** void _lv_txt_cut(char * txt, uint32_t pos, uint32_t len);
 139:lvgl/src/extra/widgets/span/../../../../src/core/../misc/lv_txt.h **** 
 140:lvgl/src/extra/widgets/span/../../../../src/core/../misc/lv_txt.h **** /**
 141:lvgl/src/extra/widgets/span/../../../../src/core/../misc/lv_txt.h ****  * return a new formatted text. Memory will be allocated to store the text.
 142:lvgl/src/extra/widgets/span/../../../../src/core/../misc/lv_txt.h ****  * @param fmt `printf`-like format
 143:lvgl/src/extra/widgets/span/../../../../src/core/../misc/lv_txt.h ****  * @return pointer to the allocated text string.
 144:lvgl/src/extra/widgets/span/../../../../src/core/../misc/lv_txt.h ****  */
 145:lvgl/src/extra/widgets/span/../../../../src/core/../misc/lv_txt.h **** char * _lv_txt_set_text_vfmt(const char * fmt, va_list ap) LV_FORMAT_ATTRIBUTE(1, 0);
 146:lvgl/src/extra/widgets/span/../../../../src/core/../misc/lv_txt.h **** 
 147:lvgl/src/extra/widgets/span/../../../../src/core/../misc/lv_txt.h **** /**
 148:lvgl/src/extra/widgets/span/../../../../src/core/../misc/lv_txt.h ****  * Decode two encoded character from a string.
 149:lvgl/src/extra/widgets/span/../../../../src/core/../misc/lv_txt.h ****  * @param txt pointer to '\0' terminated string
 150:lvgl/src/extra/widgets/span/../../../../src/core/../misc/lv_txt.h ****  * @param letter the first decoded Unicode character or 0 on invalid data code
 151:lvgl/src/extra/widgets/span/../../../../src/core/../misc/lv_txt.h ****  * @param letter_next the second decoded Unicode character or 0 on invalid data code
 152:lvgl/src/extra/widgets/span/../../../../src/core/../misc/lv_txt.h ****  * @param ofs start index in 'txt' where to start.
ARM GAS  C:\Users\BLACK_~1\AppData\Local\Temp\ccmy2bqO.s 			page 52


 153:lvgl/src/extra/widgets/span/../../../../src/core/../misc/lv_txt.h ****  *                After the call it will point to the next encoded char in 'txt'.
 154:lvgl/src/extra/widgets/span/../../../../src/core/../misc/lv_txt.h ****  *                NULL to use txt[0] as index
 155:lvgl/src/extra/widgets/span/../../../../src/core/../misc/lv_txt.h ****  */
 156:lvgl/src/extra/widgets/span/../../../../src/core/../misc/lv_txt.h **** void _lv_txt_encoded_letter_next_2(const char * txt, uint32_t * letter, uint32_t * letter_next, uin
 157:lvgl/src/extra/widgets/span/../../../../src/core/../misc/lv_txt.h **** 
 158:lvgl/src/extra/widgets/span/../../../../src/core/../misc/lv_txt.h **** /**
 159:lvgl/src/extra/widgets/span/../../../../src/core/../misc/lv_txt.h ****  * Test if char is break char or not (a text can broken here or not)
 160:lvgl/src/extra/widgets/span/../../../../src/core/../misc/lv_txt.h ****  * @param letter a letter
 161:lvgl/src/extra/widgets/span/../../../../src/core/../misc/lv_txt.h ****  * @return false: 'letter' is not break char
 162:lvgl/src/extra/widgets/span/../../../../src/core/../misc/lv_txt.h ****  */
 163:lvgl/src/extra/widgets/span/../../../../src/core/../misc/lv_txt.h **** static inline bool _lv_txt_is_break_char(uint32_t letter)
 164:lvgl/src/extra/widgets/span/../../../../src/core/../misc/lv_txt.h **** {
 165:lvgl/src/extra/widgets/span/../../../../src/core/../misc/lv_txt.h ****     uint8_t i;
 166:lvgl/src/extra/widgets/span/../../../../src/core/../misc/lv_txt.h ****     bool ret = false;
 1048              		.loc 5 166 10 view .LVU267
 1049 00e6 0022     		movs	r2, #0
 1050              	.LVL103:
 1051              	.L63:
 1052              		.loc 5 166 10 view .LVU268
 1053              	.LBE107:
 1054              	.LBE106:
 797:lvgl/src/extra/widgets/span/lv_span.c ****                     letter = (uint32_t)cur_txt[cur_txt_ofs + next_ofs];
 1055              		.loc 1 797 20 view .LVU269
 1056 00e8 D2B9     		cbnz	r2, .L61
 798:lvgl/src/extra/widgets/span/lv_span.c ****                     if(!(letter == '\0' || letter == '\n'  || letter == '\r' || _lv_txt_is_break_ch
 1057              		.loc 1 798 21 is_stmt 1 view .LVU270
 798:lvgl/src/extra/widgets/span/lv_span.c ****                     if(!(letter == '\0' || letter == '\n'  || letter == '\r' || _lv_txt_is_break_ch
 1058              		.loc 1 798 47 is_stmt 0 view .LVU271
 1059 00ea 17F80B10 		ldrb	r1, [r7, fp]	@ zero_extendqisi2
 1060              	.LVL104:
 799:lvgl/src/extra/widgets/span/lv_span.c ****                         break;
 1061              		.loc 1 799 21 is_stmt 1 view .LVU272
 799:lvgl/src/extra/widgets/span/lv_span.c ****                         break;
 1062              		.loc 1 799 23 is_stmt 0 view .LVU273
 1063 00ee B9B1     		cbz	r1, .L61
 799:lvgl/src/extra/widgets/span/lv_span.c ****                         break;
 1064              		.loc 1 799 41 discriminator 1 view .LVU274
 1065 00f0 0A29     		cmp	r1, #10
 1066 00f2 15D0     		beq	.L61
 799:lvgl/src/extra/widgets/span/lv_span.c ****                         break;
 1067              		.loc 1 799 60 discriminator 2 view .LVU275
 1068 00f4 0D29     		cmp	r1, #13
 1069 00f6 13D0     		beq	.L61
 1070              	.LVL105:
 1071              	.LBB110:
 1072              	.LBI110:
 163:lvgl/src/extra/widgets/span/../../../../src/core/../misc/lv_txt.h **** {
 1073              		.loc 5 163 20 is_stmt 1 view .LVU276
 1074              	.LBB111:
 165:lvgl/src/extra/widgets/span/../../../../src/core/../misc/lv_txt.h ****     bool ret = false;
 1075              		.loc 5 165 5 view .LVU277
 1076              		.loc 5 166 5 view .LVU278
 167:lvgl/src/extra/widgets/span/../../../../src/core/../misc/lv_txt.h **** 
 168:lvgl/src/extra/widgets/span/../../../../src/core/../misc/lv_txt.h ****     /* each chinese character can be break */
 169:lvgl/src/extra/widgets/span/../../../../src/core/../misc/lv_txt.h ****     if (letter >= 0x4E00 && letter <= 0x9FA5) {
 1077              		.loc 5 169 5 view .LVU279
 1078              		.loc 5 169 26 is_stmt 0 view .LVU280
ARM GAS  C:\Users\BLACK_~1\AppData\Local\Temp\ccmy2bqO.s 			page 53


 1079 00f8 A1F59C40 		sub	r0, r1, #19968
 1080              		.loc 5 169 8 view .LVU281
 1081 00fc 45F2A513 		movw	r3, #20901
 1082 0100 9842     		cmp	r0, r3
 1083 0102 0DD9     		bls	.L61
 170:lvgl/src/extra/widgets/span/../../../../src/core/../misc/lv_txt.h ****         return true;
 171:lvgl/src/extra/widgets/span/../../../../src/core/../misc/lv_txt.h ****     }
 172:lvgl/src/extra/widgets/span/../../../../src/core/../misc/lv_txt.h **** 
 173:lvgl/src/extra/widgets/span/../../../../src/core/../misc/lv_txt.h ****     /*Compare the letter to TXT_BREAK_CHARS*/
 174:lvgl/src/extra/widgets/span/../../../../src/core/../misc/lv_txt.h ****     for(i = 0; LV_TXT_BREAK_CHARS[i] != '\0'; i++) {
 1084              		.loc 5 174 11 view .LVU282
 1085 0104 0023     		movs	r3, #0
 1086              	.L65:
 1087              	.LVL106:
 1088              		.loc 5 174 16 is_stmt 1 view .LVU283
 1089              		.loc 5 174 34 is_stmt 0 view .LVU284
 1090 0106 8E48     		ldr	r0, .L133+4
 1091 0108 C05C     		ldrb	r0, [r0, r3]	@ zero_extendqisi2
 1092              		.loc 5 174 5 view .LVU285
 1093 010a 38B1     		cbz	r0, .L66
 175:lvgl/src/extra/widgets/span/../../../../src/core/../misc/lv_txt.h ****         if(letter == (uint32_t)LV_TXT_BREAK_CHARS[i]) {
 1094              		.loc 5 175 9 is_stmt 1 view .LVU286
 1095              		.loc 5 175 11 is_stmt 0 view .LVU287
 1096 010c 8142     		cmp	r1, r0
 1097 010e 04D0     		beq	.L103
 174:lvgl/src/extra/widgets/span/../../../../src/core/../misc/lv_txt.h ****         if(letter == (uint32_t)LV_TXT_BREAK_CHARS[i]) {
 1098              		.loc 5 174 47 is_stmt 1 view .LVU288
 174:lvgl/src/extra/widgets/span/../../../../src/core/../misc/lv_txt.h ****         if(letter == (uint32_t)LV_TXT_BREAK_CHARS[i]) {
 1099              		.loc 5 174 48 is_stmt 0 view .LVU289
 1100 0110 0133     		adds	r3, r3, #1
 1101              	.LVL107:
 174:lvgl/src/extra/widgets/span/../../../../src/core/../misc/lv_txt.h ****         if(letter == (uint32_t)LV_TXT_BREAK_CHARS[i]) {
 1102              		.loc 5 174 48 view .LVU290
 1103 0112 DBB2     		uxtb	r3, r3
 1104              	.LVL108:
 174:lvgl/src/extra/widgets/span/../../../../src/core/../misc/lv_txt.h ****         if(letter == (uint32_t)LV_TXT_BREAK_CHARS[i]) {
 1105              		.loc 5 174 48 view .LVU291
 1106 0114 F7E7     		b	.L65
 1107              	.LVL109:
 1108              	.L102:
 174:lvgl/src/extra/widgets/span/../../../../src/core/../misc/lv_txt.h ****         if(letter == (uint32_t)LV_TXT_BREAK_CHARS[i]) {
 1109              		.loc 5 174 48 view .LVU292
 1110              	.LBE111:
 1111              	.LBE110:
 1112              	.LBB113:
 1113              	.LBB108:
 176:lvgl/src/extra/widgets/span/../../../../src/core/../misc/lv_txt.h ****             ret = true; /*If match then it is break char*/
 1114              		.loc 5 176 17 view .LVU293
 1115 0116 049A     		ldr	r2, [sp, #16]
 1116              	.LVL110:
 1117              		.loc 5 176 17 view .LVU294
 1118 0118 E6E7     		b	.L63
 1119              	.LVL111:
 1120              	.L103:
 1121              		.loc 5 176 17 view .LVU295
 1122              	.LBE108:
 1123              	.LBE113:
ARM GAS  C:\Users\BLACK_~1\AppData\Local\Temp\ccmy2bqO.s 			page 54


 1124              	.LBB114:
 1125              	.LBB112:
 1126 011a 049A     		ldr	r2, [sp, #16]
 1127              	.L66:
 1128              	.LVL112:
 1129              		.loc 5 176 17 view .LVU296
 1130              	.LBE112:
 1131              	.LBE114:
 799:lvgl/src/extra/widgets/span/lv_span.c ****                         break;
 1132              		.loc 1 799 24 view .LVU297
 1133 011c 002A     		cmp	r2, #0
 1134 011e 66D0     		beq	.L58
 1135              	.LVL113:
 1136              	.L61:
 799:lvgl/src/extra/widgets/span/lv_span.c ****                         break;
 1137              		.loc 1 799 24 view .LVU298
 1138              	.LBE105:
 805:lvgl/src/extra/widgets/span/lv_span.c ****             snippet.bytes = next_ofs;
 1139              		.loc 1 805 13 is_stmt 1 view .LVU299
 805:lvgl/src/extra/widgets/span/lv_span.c ****             snippet.bytes = next_ofs;
 1140              		.loc 1 805 25 is_stmt 0 view .LVU300
 1141 0120 2196     		str	r6, [sp, #132]
 806:lvgl/src/extra/widgets/span/lv_span.c ****             snippet.txt_w = use_width;
 1142              		.loc 1 806 13 is_stmt 1 view .LVU301
 806:lvgl/src/extra/widgets/span/lv_span.c ****             snippet.txt_w = use_width;
 1143              		.loc 1 806 27 is_stmt 0 view .LVU302
 1144 0122 1D9B     		ldr	r3, [sp, #116]
 1145 0124 ADF88C30 		strh	r3, [sp, #140]	@ movhi
 807:lvgl/src/extra/widgets/span/lv_span.c ****             cur_txt_ofs += next_ofs;
 1146              		.loc 1 807 13 is_stmt 1 view .LVU303
 807:lvgl/src/extra/widgets/span/lv_span.c ****             cur_txt_ofs += next_ofs;
 1147              		.loc 1 807 27 is_stmt 0 view .LVU304
 1148 0128 BDF87020 		ldrh	r2, [sp, #112]
 1149 012c ADF88E20 		strh	r2, [sp, #142]	@ movhi
 808:lvgl/src/extra/widgets/span/lv_span.c ****             if(max_line_h < snippet.line_h) {
 1150              		.loc 1 808 13 is_stmt 1 view .LVU305
 808:lvgl/src/extra/widgets/span/lv_span.c ****             if(max_line_h < snippet.line_h) {
 1151              		.loc 1 808 25 is_stmt 0 view .LVU306
 1152 0130 1D44     		add	r5, r5, r3
 1153              	.LVL114:
 809:lvgl/src/extra/widgets/span/lv_span.c ****                 max_line_h = snippet.line_h;
 1154              		.loc 1 809 13 is_stmt 1 view .LVU307
 809:lvgl/src/extra/widgets/span/lv_span.c ****                 max_line_h = snippet.line_h;
 1155              		.loc 1 809 36 is_stmt 0 view .LVU308
 1156 0132 BDF99030 		ldrsh	r3, [sp, #144]
 809:lvgl/src/extra/widgets/span/lv_span.c ****                 max_line_h = snippet.line_h;
 1157              		.loc 1 809 15 view .LVU309
 1158 0136 5345     		cmp	r3, r10
 1159 0138 00DD     		ble	.L68
 810:lvgl/src/extra/widgets/span/lv_span.c ****             }
 1160              		.loc 1 810 28 view .LVU310
 1161 013a 9A46     		mov	r10, r3
 1162              	.LVL115:
 1163              	.L68:
 813:lvgl/src/extra/widgets/span/lv_span.c ****             if(isfill) {
 1164              		.loc 1 813 13 is_stmt 1 view .LVU311
 1165 013c 20A8     		add	r0, sp, #128
ARM GAS  C:\Users\BLACK_~1\AppData\Local\Temp\ccmy2bqO.s 			page 55


 1166 013e FFF7FEFF 		bl	lv_snippet_push
 1167              	.LVL116:
 814:lvgl/src/extra/widgets/span/lv_span.c ****                 break;
 1168              		.loc 1 814 13 view .LVU312
 814:lvgl/src/extra/widgets/span/lv_span.c ****                 break;
 1169              		.loc 1 814 15 is_stmt 0 view .LVU313
 1170 0142 049B     		ldr	r3, [sp, #16]
 1171 0144 002B     		cmp	r3, #0
 1172 0146 52D1     		bne	.L58
 817:lvgl/src/extra/widgets/span/lv_span.c ****         }
 1173              		.loc 1 817 13 is_stmt 1 view .LVU314
 817:lvgl/src/extra/widgets/span/lv_span.c ****         }
 1174              		.loc 1 817 19 is_stmt 0 view .LVU315
 1175 0148 BDF87030 		ldrh	r3, [sp, #112]
 1176 014c E41A     		subs	r4, r4, r3
 1177              	.LVL117:
 817:lvgl/src/extra/widgets/span/lv_span.c ****         }
 1178              		.loc 1 817 19 view .LVU316
 1179 014e 24B2     		sxth	r4, r4
 1180              	.LVL118:
 817:lvgl/src/extra/widgets/span/lv_span.c ****         }
 1181              		.loc 1 817 19 view .LVU317
 1182              	.LBE98:
 763:lvgl/src/extra/widgets/span/lv_span.c ****             /* switch to the next span when current is end */
 1183              		.loc 1 763 14 is_stmt 1 view .LVU318
 1184              	.L69:
 763:lvgl/src/extra/widgets/span/lv_span.c ****             /* switch to the next span when current is end */
 1185              		.loc 1 763 9 view .LVU319
 1186              	.LBB117:
 765:lvgl/src/extra/widgets/span/lv_span.c ****                 cur_span = _lv_ll_get_next(&spans->child_ll, cur_span);
 1187              		.loc 1 765 13 view .LVU320
 765:lvgl/src/extra/widgets/span/lv_span.c ****                 cur_span = _lv_ll_get_next(&spans->child_ll, cur_span);
 1188              		.loc 1 765 23 is_stmt 0 view .LVU321
 1189 0150 7B5D     		ldrb	r3, [r7, r5]	@ zero_extendqisi2
 765:lvgl/src/extra/widgets/span/lv_span.c ****                 cur_span = _lv_ll_get_next(&spans->child_ll, cur_span);
 1190              		.loc 1 765 15 view .LVU322
 1191 0152 002B     		cmp	r3, #0
 1192 0154 A2D0     		beq	.L119
 1193              	.LVL119:
 1194              	.L57:
 774:lvgl/src/extra/widgets/span/lv_span.c ****                 snippet.span = cur_span;
 1195              		.loc 1 774 13 is_stmt 1 view .LVU323
 774:lvgl/src/extra/widgets/span/lv_span.c ****                 snippet.span = cur_span;
 1196              		.loc 1 774 15 is_stmt 0 view .LVU324
 1197 0156 002D     		cmp	r5, #0
 1198 0158 AFD0     		beq	.L120
 1199              	.L59:
 781:lvgl/src/extra/widgets/span/lv_span.c ****                 /* span txt overflow, don't push */
 1200              		.loc 1 781 13 is_stmt 1 view .LVU325
 781:lvgl/src/extra/widgets/span/lv_span.c ****                 /* span txt overflow, don't push */
 1201              		.loc 1 781 32 is_stmt 0 view .LVU326
 1202 015a 99F83830 		ldrb	r3, [r9, #56]	@ zero_extendqisi2
 781:lvgl/src/extra/widgets/span/lv_span.c ****                 /* span txt overflow, don't push */
 1203              		.loc 1 781 15 view .LVU327
 1204 015e 13F0040F 		tst	r3, #4
 1205 0162 0CD0     		beq	.L60
 783:lvgl/src/extra/widgets/span/lv_span.c ****                     break;
ARM GAS  C:\Users\BLACK_~1\AppData\Local\Temp\ccmy2bqO.s 			page 56


 1206              		.loc 1 783 17 is_stmt 1 view .LVU328
 783:lvgl/src/extra/widgets/span/lv_span.c ****                     break;
 1207              		.loc 1 783 27 is_stmt 0 view .LVU329
 1208 0164 BDF99630 		ldrsh	r3, [sp, #150]
 783:lvgl/src/extra/widgets/span/lv_span.c ****                     break;
 1209              		.loc 1 783 39 view .LVU330
 1210 0168 BDF99020 		ldrsh	r2, [sp, #144]
 783:lvgl/src/extra/widgets/span/lv_span.c ****                     break;
 1211              		.loc 1 783 30 view .LVU331
 1212 016c 1344     		add	r3, r3, r2
 783:lvgl/src/extra/widgets/span/lv_span.c ****                     break;
 1213              		.loc 1 783 47 view .LVU332
 1214 016e 089A     		ldr	r2, [sp, #32]
 1215 0170 9B1A     		subs	r3, r3, r2
 783:lvgl/src/extra/widgets/span/lv_span.c ****                     break;
 1216              		.loc 1 783 68 view .LVU333
 1217 0172 069A     		ldr	r2, [sp, #24]
 1218 0174 B2F90620 		ldrsh	r2, [r2, #6]
 783:lvgl/src/extra/widgets/span/lv_span.c ****                     break;
 1219              		.loc 1 783 73 view .LVU334
 1220 0178 0132     		adds	r2, r2, #1
 783:lvgl/src/extra/widgets/span/lv_span.c ****                     break;
 1221              		.loc 1 783 19 view .LVU335
 1222 017a 9342     		cmp	r3, r2
 1223 017c 37DC     		bgt	.L58
 1224              	.L60:
 789:lvgl/src/extra/widgets/span/lv_span.c ****             lv_coord_t use_width = 0;
 1225              		.loc 1 789 13 is_stmt 1 view .LVU336
 789:lvgl/src/extra/widgets/span/lv_span.c ****             lv_coord_t use_width = 0;
 1226              		.loc 1 789 22 is_stmt 0 view .LVU337
 1227 017e 0023     		movs	r3, #0
 1228 0180 1D93     		str	r3, [sp, #116]
 790:lvgl/src/extra/widgets/span/lv_span.c ****             bool isfill = lv_txt_get_snippet(&cur_txt[cur_txt_ofs], snippet.font, snippet.letter_sp
 1229              		.loc 1 790 13 is_stmt 1 view .LVU338
 790:lvgl/src/extra/widgets/span/lv_span.c ****             bool isfill = lv_txt_get_snippet(&cur_txt[cur_txt_ofs], snippet.font, snippet.letter_sp
 1230              		.loc 1 790 24 is_stmt 0 view .LVU339
 1231 0182 ADF87030 		strh	r3, [sp, #112]	@ movhi
 791:lvgl/src/extra/widgets/span/lv_span.c ****                                              max_w, txt_flag, &use_width, &next_ofs);
 1232              		.loc 1 791 13 is_stmt 1 view .LVU340
 791:lvgl/src/extra/widgets/span/lv_span.c ****                                              max_w, txt_flag, &use_width, &next_ofs);
 1233              		.loc 1 791 27 is_stmt 0 view .LVU341
 1234 0186 7E19     		adds	r6, r7, r5
 1235 0188 1DAA     		add	r2, sp, #116
 1236 018a 0292     		str	r2, [sp, #8]
 1237 018c 1CAA     		add	r2, sp, #112
 1238 018e 0192     		str	r2, [sp, #4]
 1239 0190 0093     		str	r3, [sp]
 1240 0192 2346     		mov	r3, r4
 1241 0194 BDF99220 		ldrsh	r2, [sp, #146]
 1242 0198 2299     		ldr	r1, [sp, #136]
 1243 019a 3046     		mov	r0, r6
 1244 019c FFF7FEFF 		bl	lv_txt_get_snippet
 1245              	.LVL120:
 795:lvgl/src/extra/widgets/span/lv_span.c ****                 uint32_t letter = (uint32_t)cur_txt[cur_txt_ofs + next_ofs - 1];
 1246              		.loc 1 795 13 is_stmt 1 view .LVU342
 795:lvgl/src/extra/widgets/span/lv_span.c ****                 uint32_t letter = (uint32_t)cur_txt[cur_txt_ofs + next_ofs - 1];
 1247              		.loc 1 795 15 is_stmt 0 view .LVU343
ARM GAS  C:\Users\BLACK_~1\AppData\Local\Temp\ccmy2bqO.s 			page 57


 1248 01a0 0490     		str	r0, [sp, #16]
 1249 01a2 0028     		cmp	r0, #0
 1250 01a4 BCD0     		beq	.L61
 795:lvgl/src/extra/widgets/span/lv_span.c ****                 uint32_t letter = (uint32_t)cur_txt[cur_txt_ofs + next_ofs - 1];
 1251              		.loc 1 795 35 discriminator 1 view .LVU344
 1252 01a6 DDF874B0 		ldr	fp, [sp, #116]
 795:lvgl/src/extra/widgets/span/lv_span.c ****                 uint32_t letter = (uint32_t)cur_txt[cur_txt_ofs + next_ofs - 1];
 1253              		.loc 1 795 23 discriminator 1 view .LVU345
 1254 01aa BBF1000F 		cmp	fp, #0
 1255 01ae B7D0     		beq	.L61
 795:lvgl/src/extra/widgets/span/lv_span.c ****                 uint32_t letter = (uint32_t)cur_txt[cur_txt_ofs + next_ofs - 1];
 1256              		.loc 1 795 42 discriminator 2 view .LVU346
 1257 01b0 FFF7FEFF 		bl	lv_get_snippet_cnt
 1258              	.LVL121:
 795:lvgl/src/extra/widgets/span/lv_span.c ****                 uint32_t letter = (uint32_t)cur_txt[cur_txt_ofs + next_ofs - 1];
 1259              		.loc 1 795 39 discriminator 2 view .LVU347
 1260 01b4 0028     		cmp	r0, #0
 1261 01b6 B3D0     		beq	.L61
 1262              	.LBB116:
 796:lvgl/src/extra/widgets/span/lv_span.c ****                 if(!(letter == '\0' || letter == '\n' || letter == '\r' || _lv_txt_is_break_char(le
 1263              		.loc 1 796 17 is_stmt 1 view .LVU348
 796:lvgl/src/extra/widgets/span/lv_span.c ****                 if(!(letter == '\0' || letter == '\n' || letter == '\r' || _lv_txt_is_break_char(le
 1264              		.loc 1 796 65 is_stmt 0 view .LVU349
 1265 01b8 AB44     		add	fp, fp, r5
 796:lvgl/src/extra/widgets/span/lv_span.c ****                 if(!(letter == '\0' || letter == '\n' || letter == '\r' || _lv_txt_is_break_char(le
 1266              		.loc 1 796 52 view .LVU350
 1267 01ba 07EB0B03 		add	r3, r7, fp
 1268 01be 13F8012C 		ldrb	r2, [r3, #-1]	@ zero_extendqisi2
 1269              	.LVL122:
 797:lvgl/src/extra/widgets/span/lv_span.c ****                     letter = (uint32_t)cur_txt[cur_txt_ofs + next_ofs];
 1270              		.loc 1 797 17 is_stmt 1 view .LVU351
 797:lvgl/src/extra/widgets/span/lv_span.c ****                     letter = (uint32_t)cur_txt[cur_txt_ofs + next_ofs];
 1271              		.loc 1 797 19 is_stmt 0 view .LVU352
 1272 01c2 002A     		cmp	r2, #0
 1273 01c4 ACD0     		beq	.L61
 797:lvgl/src/extra/widgets/span/lv_span.c ****                     letter = (uint32_t)cur_txt[cur_txt_ofs + next_ofs];
 1274              		.loc 1 797 37 discriminator 1 view .LVU353
 1275 01c6 0A2A     		cmp	r2, #10
 1276 01c8 AAD0     		beq	.L61
 797:lvgl/src/extra/widgets/span/lv_span.c ****                     letter = (uint32_t)cur_txt[cur_txt_ofs + next_ofs];
 1277              		.loc 1 797 55 discriminator 2 view .LVU354
 1278 01ca 0D2A     		cmp	r2, #13
 1279 01cc A8D0     		beq	.L61
 1280              	.LVL123:
 1281              	.LBB115:
 1282              	.LBI106:
 163:lvgl/src/extra/widgets/span/../../../../src/core/../misc/lv_txt.h **** {
 1283              		.loc 5 163 20 is_stmt 1 view .LVU355
 1284              	.LBB109:
 165:lvgl/src/extra/widgets/span/../../../../src/core/../misc/lv_txt.h ****     bool ret = false;
 1285              		.loc 5 165 5 view .LVU356
 166:lvgl/src/extra/widgets/span/../../../../src/core/../misc/lv_txt.h **** 
 1286              		.loc 5 166 5 view .LVU357
 169:lvgl/src/extra/widgets/span/../../../../src/core/../misc/lv_txt.h ****         return true;
 1287              		.loc 5 169 5 view .LVU358
 169:lvgl/src/extra/widgets/span/../../../../src/core/../misc/lv_txt.h ****         return true;
 1288              		.loc 5 169 26 is_stmt 0 view .LVU359
ARM GAS  C:\Users\BLACK_~1\AppData\Local\Temp\ccmy2bqO.s 			page 58


 1289 01ce A2F59C41 		sub	r1, r2, #19968
 169:lvgl/src/extra/widgets/span/../../../../src/core/../misc/lv_txt.h ****         return true;
 1290              		.loc 5 169 8 view .LVU360
 1291 01d2 45F2A513 		movw	r3, #20901
 1292 01d6 9942     		cmp	r1, r3
 1293 01d8 A2D9     		bls	.L61
 174:lvgl/src/extra/widgets/span/../../../../src/core/../misc/lv_txt.h ****         if(letter == (uint32_t)LV_TXT_BREAK_CHARS[i]) {
 1294              		.loc 5 174 11 view .LVU361
 1295 01da 0023     		movs	r3, #0
 1296              	.L62:
 1297              	.LVL124:
 174:lvgl/src/extra/widgets/span/../../../../src/core/../misc/lv_txt.h ****         if(letter == (uint32_t)LV_TXT_BREAK_CHARS[i]) {
 1298              		.loc 5 174 16 is_stmt 1 view .LVU362
 174:lvgl/src/extra/widgets/span/../../../../src/core/../misc/lv_txt.h ****         if(letter == (uint32_t)LV_TXT_BREAK_CHARS[i]) {
 1299              		.loc 5 174 34 is_stmt 0 view .LVU363
 1300 01dc 5849     		ldr	r1, .L133+4
 1301 01de C95C     		ldrb	r1, [r1, r3]	@ zero_extendqisi2
 174:lvgl/src/extra/widgets/span/../../../../src/core/../misc/lv_txt.h ****         if(letter == (uint32_t)LV_TXT_BREAK_CHARS[i]) {
 1302              		.loc 5 174 5 view .LVU364
 1303 01e0 0029     		cmp	r1, #0
 1304 01e2 80D0     		beq	.L121
 175:lvgl/src/extra/widgets/span/../../../../src/core/../misc/lv_txt.h ****             ret = true; /*If match then it is break char*/
 1305              		.loc 5 175 9 is_stmt 1 view .LVU365
 175:lvgl/src/extra/widgets/span/../../../../src/core/../misc/lv_txt.h ****             ret = true; /*If match then it is break char*/
 1306              		.loc 5 175 11 is_stmt 0 view .LVU366
 1307 01e4 8A42     		cmp	r2, r1
 1308 01e6 96D0     		beq	.L102
 174:lvgl/src/extra/widgets/span/../../../../src/core/../misc/lv_txt.h ****         if(letter == (uint32_t)LV_TXT_BREAK_CHARS[i]) {
 1309              		.loc 5 174 47 is_stmt 1 view .LVU367
 174:lvgl/src/extra/widgets/span/../../../../src/core/../misc/lv_txt.h ****         if(letter == (uint32_t)LV_TXT_BREAK_CHARS[i]) {
 1310              		.loc 5 174 48 is_stmt 0 view .LVU368
 1311 01e8 0133     		adds	r3, r3, #1
 1312              	.LVL125:
 174:lvgl/src/extra/widgets/span/../../../../src/core/../misc/lv_txt.h ****         if(letter == (uint32_t)LV_TXT_BREAK_CHARS[i]) {
 1313              		.loc 5 174 48 view .LVU369
 1314 01ea DBB2     		uxtb	r3, r3
 1315              	.LVL126:
 174:lvgl/src/extra/widgets/span/../../../../src/core/../misc/lv_txt.h ****         if(letter == (uint32_t)LV_TXT_BREAK_CHARS[i]) {
 1316              		.loc 5 174 48 view .LVU370
 1317 01ec F6E7     		b	.L62
 1318              	.LVL127:
 1319              	.L58:
 174:lvgl/src/extra/widgets/span/../../../../src/core/../misc/lv_txt.h ****         if(letter == (uint32_t)LV_TXT_BREAK_CHARS[i]) {
 1320              		.loc 5 174 48 view .LVU371
 1321              	.LBE109:
 1322              	.LBE115:
 1323              	.LBE116:
 1324              	.LBE117:
 822:lvgl/src/extra/widgets/span/lv_span.c ****         if(item_cnt == 0) {     /* break if stack is empty */
 1325              		.loc 1 822 29 view .LVU372
 1326 01ee CDF84880 		str	r8, [sp, #72]
 1327 01f2 5446     		mov	r4, r10
 1328              	.LVL128:
 822:lvgl/src/extra/widgets/span/lv_span.c ****         if(item_cnt == 0) {     /* break if stack is empty */
 1329              		.loc 1 822 29 view .LVU373
 1330 01f4 CDF834A0 		str	r10, [sp, #52]
 1331 01f8 AA46     		mov	r10, r5
ARM GAS  C:\Users\BLACK_~1\AppData\Local\Temp\ccmy2bqO.s 			page 59


 1332              	.LVL129:
 822:lvgl/src/extra/widgets/span/lv_span.c ****         if(item_cnt == 0) {     /* break if stack is empty */
 1333              		.loc 1 822 29 view .LVU374
 1334 01fa BB46     		mov	fp, r7
 1335              	.LVL130:
 822:lvgl/src/extra/widgets/span/lv_span.c ****         if(item_cnt == 0) {     /* break if stack is empty */
 1336              		.loc 1 822 9 is_stmt 1 view .LVU375
 822:lvgl/src/extra/widgets/span/lv_span.c ****         if(item_cnt == 0) {     /* break if stack is empty */
 1337              		.loc 1 822 29 is_stmt 0 view .LVU376
 1338 01fc FFF7FEFF 		bl	lv_get_snippet_cnt
 1339              	.LVL131:
 823:lvgl/src/extra/widgets/span/lv_span.c ****             break;
 1340              		.loc 1 823 9 is_stmt 1 view .LVU377
 823:lvgl/src/extra/widgets/span/lv_span.c ****             break;
 1341              		.loc 1 823 11 is_stmt 0 view .LVU378
 1342 0200 0A90     		str	r0, [sp, #40]
 1343 0202 0028     		cmp	r0, #0
 1344 0204 3FF408AF 		beq	.L53
 1345              	.LVL132:
 828:lvgl/src/extra/widgets/span/lv_span.c ****             goto Next_line_init;
 1346              		.loc 1 828 9 is_stmt 1 view .LVU379
 828:lvgl/src/extra/widgets/span/lv_span.c ****             goto Next_line_init;
 1347              		.loc 1 828 19 is_stmt 0 view .LVU380
 1348 0208 BDF99630 		ldrsh	r3, [sp, #150]
 1349 020c 0E93     		str	r3, [sp, #56]
 828:lvgl/src/extra/widgets/span/lv_span.c ****             goto Next_line_init;
 1350              		.loc 1 828 22 view .LVU381
 1351 020e 1C44     		add	r4, r4, r3
 1352              	.LVL133:
 828:lvgl/src/extra/widgets/span/lv_span.c ****             goto Next_line_init;
 1353              		.loc 1 828 41 view .LVU382
 1354 0210 139B     		ldr	r3, [sp, #76]
 1355 0212 B3F90230 		ldrsh	r3, [r3, #2]
 828:lvgl/src/extra/widgets/span/lv_span.c ****             goto Next_line_init;
 1356              		.loc 1 828 11 view .LVU383
 1357 0216 9C42     		cmp	r4, r3
 1358 0218 1EDA     		bge	.L122
 1359              	.LVL134:
 1360              	.L71:
 968:lvgl/src/extra/widgets/span/lv_span.c ****         txt_pos.y += max_line_h;
 1361              		.loc 1 968 9 is_stmt 1 view .LVU384
 968:lvgl/src/extra/widgets/span/lv_span.c ****         txt_pos.y += max_line_h;
 1362              		.loc 1 968 27 is_stmt 0 view .LVU385
 1363 021a 069B     		ldr	r3, [sp, #24]
 1364 021c B3F90030 		ldrsh	r3, [r3]
 968:lvgl/src/extra/widgets/span/lv_span.c ****         txt_pos.y += max_line_h;
 1365              		.loc 1 968 19 view .LVU386
 1366 0220 ADF89430 		strh	r3, [sp, #148]	@ movhi
 969:lvgl/src/extra/widgets/span/lv_span.c ****         if(txt_pos.y > clipped_area.y2 + 1) {
 1367              		.loc 1 969 9 is_stmt 1 view .LVU387
 969:lvgl/src/extra/widgets/span/lv_span.c ****         if(txt_pos.y > clipped_area.y2 + 1) {
 1368              		.loc 1 969 19 is_stmt 0 view .LVU388
 1369 0224 0E9B     		ldr	r3, [sp, #56]
 1370 0226 0D9A     		ldr	r2, [sp, #52]
 1371 0228 1344     		add	r3, r3, r2
 1372 022a 1BB2     		sxth	r3, r3
 1373 022c ADF89630 		strh	r3, [sp, #150]	@ movhi
ARM GAS  C:\Users\BLACK_~1\AppData\Local\Temp\ccmy2bqO.s 			page 60


 970:lvgl/src/extra/widgets/span/lv_span.c ****             return;
 1374              		.loc 1 970 9 is_stmt 1 view .LVU389
 970:lvgl/src/extra/widgets/span/lv_span.c ****             return;
 1375              		.loc 1 970 36 is_stmt 0 view .LVU390
 1376 0230 BDF99E20 		ldrsh	r2, [sp, #158]
 970:lvgl/src/extra/widgets/span/lv_span.c ****             return;
 1377              		.loc 1 970 40 view .LVU391
 1378 0234 0132     		adds	r2, r2, #1
 970:lvgl/src/extra/widgets/span/lv_span.c ****             return;
 1379              		.loc 1 970 11 view .LVU392
 1380 0236 9342     		cmp	r3, r2
 1381 0238 3FF7EEAE 		bgt	.L53
 973:lvgl/src/extra/widgets/span/lv_span.c ****     }
 1382              		.loc 1 973 15 view .LVU393
 1383 023c 149C     		ldr	r4, [sp, #80]
 1384              	.LVL135:
 1385              	.L56:
 973:lvgl/src/extra/widgets/span/lv_span.c ****     }
 1386              		.loc 1 973 15 view .LVU394
 1387              	.LBE97:
 758:lvgl/src/extra/widgets/span/lv_span.c ****         lv_coord_t max_line_h = 0;  /* the max height of span-font when a line have a lot of span *
 1388              		.loc 1 758 10 is_stmt 1 view .LVU395
 1389 023e 129B     		ldr	r3, [sp, #72]
 1390 0240 002B     		cmp	r3, #0
 1391 0242 3FF4E9AE 		beq	.L53
 1392              	.LBB145:
 759:lvgl/src/extra/widgets/span/lv_span.c ****         lv_snippet_clear();
 1393              		.loc 1 759 9 view .LVU396
 1394              	.LVL136:
 760:lvgl/src/extra/widgets/span/lv_span.c **** 
 1395              		.loc 1 760 9 view .LVU397
 1396 0246 FFF7FEFF 		bl	lv_snippet_clear
 1397              	.LVL137:
 759:lvgl/src/extra/widgets/span/lv_span.c ****         lv_snippet_clear();
 1398              		.loc 1 759 20 is_stmt 0 view .LVU398
 1399 024a 0023     		movs	r3, #0
 1400 024c DDF84880 		ldr	r8, [sp, #72]
 1401 0250 5546     		mov	r5, r10
 1402 0252 9A46     		mov	r10, r3
 1403              	.LVL138:
 759:lvgl/src/extra/widgets/span/lv_span.c ****         lv_snippet_clear();
 1404              		.loc 1 759 20 view .LVU399
 1405 0254 5F46     		mov	r7, fp
 1406 0256 7BE7     		b	.L69
 1407              	.LVL139:
 1408              	.L122:
 833:lvgl/src/extra/widgets/span/lv_span.c ****         if(spans->overflow == LV_SPAN_OVERFLOW_ELLIPSIS) {
 1409              		.loc 1 833 9 is_stmt 1 view .LVU400
 834:lvgl/src/extra/widgets/span/lv_span.c ****             lv_coord_t next_line_h = snippet.line_h;
 1410              		.loc 1 834 9 view .LVU401
 834:lvgl/src/extra/widgets/span/lv_span.c ****             lv_coord_t next_line_h = snippet.line_h;
 1411              		.loc 1 834 28 is_stmt 0 view .LVU402
 1412 0258 99F83830 		ldrb	r3, [r9, #56]	@ zero_extendqisi2
 834:lvgl/src/extra/widgets/span/lv_span.c ****             lv_coord_t next_line_h = snippet.line_h;
 1413              		.loc 1 834 11 view .LVU403
 1414 025c 13F0040F 		tst	r3, #4
 1415 0260 22D0     		beq	.L105
ARM GAS  C:\Users\BLACK_~1\AppData\Local\Temp\ccmy2bqO.s 			page 61


 1416              	.LBB118:
 835:lvgl/src/extra/widgets/span/lv_span.c ****             if(cur_txt[cur_txt_ofs] == '\0') {  /* current span deal with ok, need get next line fi
 1417              		.loc 1 835 13 is_stmt 1 view .LVU404
 835:lvgl/src/extra/widgets/span/lv_span.c ****             if(cur_txt[cur_txt_ofs] == '\0') {  /* current span deal with ok, need get next line fi
 1418              		.loc 1 835 24 is_stmt 0 view .LVU405
 1419 0262 BDF99030 		ldrsh	r3, [sp, #144]
 1420              	.LVL140:
 836:lvgl/src/extra/widgets/span/lv_span.c ****                 next_line_h = 0;
 1421              		.loc 1 836 13 is_stmt 1 view .LVU406
 836:lvgl/src/extra/widgets/span/lv_span.c ****                 next_line_h = 0;
 1422              		.loc 1 836 23 is_stmt 0 view .LVU407
