ARM GAS  /var/folders/k2/cd9bl_j17z77g23y6ffqb_400000gn/T//ccRoPncs.s 			page 1


   1              		.cpu cortex-m4
   2              		.eabi_attribute 27, 1
   3              		.eabi_attribute 28, 1
   4              		.eabi_attribute 20, 1
   5              		.eabi_attribute 21, 1
   6              		.eabi_attribute 23, 3
   7              		.eabi_attribute 24, 1
   8              		.eabi_attribute 25, 1
   9              		.eabi_attribute 26, 1
  10              		.eabi_attribute 30, 1
  11              		.eabi_attribute 34, 1
  12              		.eabi_attribute 18, 4
  13              		.file	"lv_theme_default.c"
  14              		.text
  15              	.Ltext0:
  16              		.cfi_sections	.debug_frame
  17              		.section	.text.theme_apply,"ax",%progbits
  18              		.align	1
  19              		.arch armv7e-m
  20              		.syntax unified
  21              		.thumb
  22              		.thumb_func
  23              		.fpu fpv4-sp-d16
  25              	theme_apply:
  26              	.LVL0:
  27              	.LFB189:
  28              		.file 1 "lvgl/src/extra/themes/default/lv_theme_default.c"
   1:lvgl/src/extra/themes/default/lv_theme_default.c **** /**
   2:lvgl/src/extra/themes/default/lv_theme_default.c ****  * @file lv_theme_defau.c
   3:lvgl/src/extra/themes/default/lv_theme_default.c ****  *
   4:lvgl/src/extra/themes/default/lv_theme_default.c ****  */
   5:lvgl/src/extra/themes/default/lv_theme_default.c **** 
   6:lvgl/src/extra/themes/default/lv_theme_default.c **** /*********************
   7:lvgl/src/extra/themes/default/lv_theme_default.c ****  *      INCLUDES
   8:lvgl/src/extra/themes/default/lv_theme_default.c ****  *********************/
   9:lvgl/src/extra/themes/default/lv_theme_default.c **** #include "../../../lvgl.h" /*To see all the widgets*/
  10:lvgl/src/extra/themes/default/lv_theme_default.c **** 
  11:lvgl/src/extra/themes/default/lv_theme_default.c **** #if LV_USE_THEME_DEFAULT
  12:lvgl/src/extra/themes/default/lv_theme_default.c **** 
  13:lvgl/src/extra/themes/default/lv_theme_default.c **** #include "lv_theme_default.h"
  14:lvgl/src/extra/themes/default/lv_theme_default.c **** #include "../../../misc/lv_gc.h"
  15:lvgl/src/extra/themes/default/lv_theme_default.c **** 
  16:lvgl/src/extra/themes/default/lv_theme_default.c **** /*********************
  17:lvgl/src/extra/themes/default/lv_theme_default.c ****  *      DEFINES
  18:lvgl/src/extra/themes/default/lv_theme_default.c ****  *********************/
  19:lvgl/src/extra/themes/default/lv_theme_default.c **** #define MODE_DARK 1
  20:lvgl/src/extra/themes/default/lv_theme_default.c **** #define RADIUS_DEFAULT (disp_size == DISP_LARGE ? lv_disp_dpx(theme.disp, 12) : lv_disp_dpx(theme.d
  21:lvgl/src/extra/themes/default/lv_theme_default.c **** 
  22:lvgl/src/extra/themes/default/lv_theme_default.c **** /*SCREEN*/
  23:lvgl/src/extra/themes/default/lv_theme_default.c **** #define LIGHT_COLOR_SCR        lv_palette_lighten(LV_PALETTE_GREY, 4)
  24:lvgl/src/extra/themes/default/lv_theme_default.c **** #define LIGHT_COLOR_CARD       lv_color_white()
  25:lvgl/src/extra/themes/default/lv_theme_default.c **** #define LIGHT_COLOR_TEXT       lv_palette_darken(LV_PALETTE_GREY, 4)
  26:lvgl/src/extra/themes/default/lv_theme_default.c **** #define LIGHT_COLOR_GREY       lv_palette_lighten(LV_PALETTE_GREY, 2)
  27:lvgl/src/extra/themes/default/lv_theme_default.c **** #define DARK_COLOR_SCR         lv_color_hex(0x15171A)
  28:lvgl/src/extra/themes/default/lv_theme_default.c **** #define DARK_COLOR_CARD        lv_color_hex(0x282b30)
  29:lvgl/src/extra/themes/default/lv_theme_default.c **** #define DARK_COLOR_TEXT        lv_palette_lighten(LV_PALETTE_GREY, 5)
  30:lvgl/src/extra/themes/default/lv_theme_default.c **** #define DARK_COLOR_GREY        lv_color_hex(0x2f3237)
ARM GAS  /var/folders/k2/cd9bl_j17z77g23y6ffqb_400000gn/T//ccRoPncs.s 			page 2


  31:lvgl/src/extra/themes/default/lv_theme_default.c **** 
  32:lvgl/src/extra/themes/default/lv_theme_default.c **** #define TRANSITION_TIME         LV_THEME_DEFAULT_TRANSITON_TIME
  33:lvgl/src/extra/themes/default/lv_theme_default.c **** #define BORDER_WIDTH            lv_disp_dpx(theme.disp, 2)
  34:lvgl/src/extra/themes/default/lv_theme_default.c **** #define OUTLINE_WIDTH           lv_disp_dpx(theme.disp, 3)
  35:lvgl/src/extra/themes/default/lv_theme_default.c **** 
  36:lvgl/src/extra/themes/default/lv_theme_default.c **** #define PAD_DEF     (disp_size == DISP_LARGE ? lv_disp_dpx(theme.disp, 24) : disp_size == DISP_MEDI
  37:lvgl/src/extra/themes/default/lv_theme_default.c **** #define PAD_SMALL   (disp_size == DISP_LARGE ? lv_disp_dpx(theme.disp, 14) : disp_size == DISP_MEDI
  38:lvgl/src/extra/themes/default/lv_theme_default.c **** #define PAD_TINY   (disp_size == DISP_LARGE ? lv_disp_dpx(theme.disp, 8) : disp_size == DISP_MEDIUM
  39:lvgl/src/extra/themes/default/lv_theme_default.c **** 
  40:lvgl/src/extra/themes/default/lv_theme_default.c **** /**********************
  41:lvgl/src/extra/themes/default/lv_theme_default.c ****  *      TYPEDEFS
  42:lvgl/src/extra/themes/default/lv_theme_default.c ****  **********************/
  43:lvgl/src/extra/themes/default/lv_theme_default.c **** typedef struct {
  44:lvgl/src/extra/themes/default/lv_theme_default.c ****     lv_style_t scr;
  45:lvgl/src/extra/themes/default/lv_theme_default.c ****     lv_style_t scrollbar;
  46:lvgl/src/extra/themes/default/lv_theme_default.c ****     lv_style_t scrollbar_scrolled;
  47:lvgl/src/extra/themes/default/lv_theme_default.c ****     lv_style_t card;
  48:lvgl/src/extra/themes/default/lv_theme_default.c ****     lv_style_t btn;
  49:lvgl/src/extra/themes/default/lv_theme_default.c **** 
  50:lvgl/src/extra/themes/default/lv_theme_default.c ****     /*Utility*/
  51:lvgl/src/extra/themes/default/lv_theme_default.c ****     lv_style_t bg_color_primary;
  52:lvgl/src/extra/themes/default/lv_theme_default.c ****     lv_style_t bg_color_primary_muted;
  53:lvgl/src/extra/themes/default/lv_theme_default.c ****     lv_style_t bg_color_secondary;
  54:lvgl/src/extra/themes/default/lv_theme_default.c ****     lv_style_t bg_color_secondary_muted;
  55:lvgl/src/extra/themes/default/lv_theme_default.c ****     lv_style_t bg_color_grey;
  56:lvgl/src/extra/themes/default/lv_theme_default.c ****     lv_style_t bg_color_white;
  57:lvgl/src/extra/themes/default/lv_theme_default.c ****     lv_style_t pressed;
  58:lvgl/src/extra/themes/default/lv_theme_default.c ****     lv_style_t disabled;
  59:lvgl/src/extra/themes/default/lv_theme_default.c ****     lv_style_t pad_zero;
  60:lvgl/src/extra/themes/default/lv_theme_default.c ****     lv_style_t pad_tiny;
  61:lvgl/src/extra/themes/default/lv_theme_default.c ****     lv_style_t pad_small;
  62:lvgl/src/extra/themes/default/lv_theme_default.c ****     lv_style_t pad_normal;
  63:lvgl/src/extra/themes/default/lv_theme_default.c ****     lv_style_t pad_gap;
  64:lvgl/src/extra/themes/default/lv_theme_default.c ****     lv_style_t line_space_large;
  65:lvgl/src/extra/themes/default/lv_theme_default.c ****     lv_style_t text_align_center;
  66:lvgl/src/extra/themes/default/lv_theme_default.c ****     lv_style_t outline_primary;
  67:lvgl/src/extra/themes/default/lv_theme_default.c ****     lv_style_t outline_secondary;
  68:lvgl/src/extra/themes/default/lv_theme_default.c ****     lv_style_t circle;
  69:lvgl/src/extra/themes/default/lv_theme_default.c ****     lv_style_t no_radius;
  70:lvgl/src/extra/themes/default/lv_theme_default.c ****     lv_style_t clip_corner;
  71:lvgl/src/extra/themes/default/lv_theme_default.c **** #if LV_THEME_DEFAULT_GROW
  72:lvgl/src/extra/themes/default/lv_theme_default.c ****     lv_style_t grow;
  73:lvgl/src/extra/themes/default/lv_theme_default.c **** #endif
  74:lvgl/src/extra/themes/default/lv_theme_default.c ****     lv_style_t transition_delayed;
  75:lvgl/src/extra/themes/default/lv_theme_default.c ****     lv_style_t transition_normal;
  76:lvgl/src/extra/themes/default/lv_theme_default.c ****     lv_style_t anim;
  77:lvgl/src/extra/themes/default/lv_theme_default.c **** 
  78:lvgl/src/extra/themes/default/lv_theme_default.c ****     /*Parts*/
  79:lvgl/src/extra/themes/default/lv_theme_default.c ****     lv_style_t knob;
  80:lvgl/src/extra/themes/default/lv_theme_default.c ****     lv_style_t indic;
  81:lvgl/src/extra/themes/default/lv_theme_default.c **** 
  82:lvgl/src/extra/themes/default/lv_theme_default.c **** #if LV_USE_ARC
  83:lvgl/src/extra/themes/default/lv_theme_default.c ****     lv_style_t arc_indic;
  84:lvgl/src/extra/themes/default/lv_theme_default.c ****     lv_style_t arc_indic_primary;
  85:lvgl/src/extra/themes/default/lv_theme_default.c **** #endif
  86:lvgl/src/extra/themes/default/lv_theme_default.c **** 
  87:lvgl/src/extra/themes/default/lv_theme_default.c **** #if LV_USE_CHART
ARM GAS  /var/folders/k2/cd9bl_j17z77g23y6ffqb_400000gn/T//ccRoPncs.s 			page 3


  88:lvgl/src/extra/themes/default/lv_theme_default.c ****     lv_style_t chart_series, chart_indic, chart_ticks, chart_bg;
  89:lvgl/src/extra/themes/default/lv_theme_default.c **** #endif
  90:lvgl/src/extra/themes/default/lv_theme_default.c **** 
  91:lvgl/src/extra/themes/default/lv_theme_default.c **** #if LV_USE_DROPDOWN
  92:lvgl/src/extra/themes/default/lv_theme_default.c ****     lv_style_t dropdown_list;
  93:lvgl/src/extra/themes/default/lv_theme_default.c **** #endif
  94:lvgl/src/extra/themes/default/lv_theme_default.c **** 
  95:lvgl/src/extra/themes/default/lv_theme_default.c **** #if LV_USE_CHECKBOX
  96:lvgl/src/extra/themes/default/lv_theme_default.c ****     lv_style_t cb_marker, cb_marker_checked;
  97:lvgl/src/extra/themes/default/lv_theme_default.c **** #endif
  98:lvgl/src/extra/themes/default/lv_theme_default.c **** 
  99:lvgl/src/extra/themes/default/lv_theme_default.c **** #if LV_USE_SWITCH
 100:lvgl/src/extra/themes/default/lv_theme_default.c ****     lv_style_t switch_knob;
 101:lvgl/src/extra/themes/default/lv_theme_default.c **** #endif
 102:lvgl/src/extra/themes/default/lv_theme_default.c **** 
 103:lvgl/src/extra/themes/default/lv_theme_default.c **** #if LV_USE_LINE
 104:lvgl/src/extra/themes/default/lv_theme_default.c ****     lv_style_t line;
 105:lvgl/src/extra/themes/default/lv_theme_default.c **** #endif
 106:lvgl/src/extra/themes/default/lv_theme_default.c **** 
 107:lvgl/src/extra/themes/default/lv_theme_default.c **** #if LV_USE_TABLE
 108:lvgl/src/extra/themes/default/lv_theme_default.c ****     lv_style_t table_cell;
 109:lvgl/src/extra/themes/default/lv_theme_default.c **** #endif
 110:lvgl/src/extra/themes/default/lv_theme_default.c **** 
 111:lvgl/src/extra/themes/default/lv_theme_default.c **** #if LV_USE_METER
 112:lvgl/src/extra/themes/default/lv_theme_default.c ****     lv_style_t meter_marker, meter_indic;
 113:lvgl/src/extra/themes/default/lv_theme_default.c **** #endif
 114:lvgl/src/extra/themes/default/lv_theme_default.c **** 
 115:lvgl/src/extra/themes/default/lv_theme_default.c **** #if LV_USE_TEXTAREA
 116:lvgl/src/extra/themes/default/lv_theme_default.c ****     lv_style_t ta_cursor, ta_placeholder;
 117:lvgl/src/extra/themes/default/lv_theme_default.c **** #endif
 118:lvgl/src/extra/themes/default/lv_theme_default.c **** 
 119:lvgl/src/extra/themes/default/lv_theme_default.c **** #if LV_USE_CALENDAR
 120:lvgl/src/extra/themes/default/lv_theme_default.c ****     lv_style_t calendar_bg, calendar_day;
 121:lvgl/src/extra/themes/default/lv_theme_default.c **** #endif
 122:lvgl/src/extra/themes/default/lv_theme_default.c **** 
 123:lvgl/src/extra/themes/default/lv_theme_default.c **** #if LV_USE_COLORWHEEL
 124:lvgl/src/extra/themes/default/lv_theme_default.c ****     lv_style_t colorwheel_main;
 125:lvgl/src/extra/themes/default/lv_theme_default.c **** #endif
 126:lvgl/src/extra/themes/default/lv_theme_default.c **** 
 127:lvgl/src/extra/themes/default/lv_theme_default.c **** #if LV_USE_MSGBOX
 128:lvgl/src/extra/themes/default/lv_theme_default.c ****     lv_style_t msgbox_bg, msgbox_btn_bg;
 129:lvgl/src/extra/themes/default/lv_theme_default.c **** #endif
 130:lvgl/src/extra/themes/default/lv_theme_default.c **** 
 131:lvgl/src/extra/themes/default/lv_theme_default.c **** #if LV_USE_KEYBOARD
 132:lvgl/src/extra/themes/default/lv_theme_default.c ****     lv_style_t keyboard_btn_bg;
 133:lvgl/src/extra/themes/default/lv_theme_default.c **** #endif
 134:lvgl/src/extra/themes/default/lv_theme_default.c **** 
 135:lvgl/src/extra/themes/default/lv_theme_default.c **** #if LV_USE_LIST
 136:lvgl/src/extra/themes/default/lv_theme_default.c ****     lv_style_t list_bg, list_btn, list_item_grow, list_label;
 137:lvgl/src/extra/themes/default/lv_theme_default.c **** #endif
 138:lvgl/src/extra/themes/default/lv_theme_default.c **** 
 139:lvgl/src/extra/themes/default/lv_theme_default.c **** #if LV_USE_TABVIEW
 140:lvgl/src/extra/themes/default/lv_theme_default.c ****     lv_style_t tab_bg_focus, tab_btn;
 141:lvgl/src/extra/themes/default/lv_theme_default.c **** #endif
 142:lvgl/src/extra/themes/default/lv_theme_default.c **** #if LV_USE_LED
 143:lvgl/src/extra/themes/default/lv_theme_default.c ****     lv_style_t led;
 144:lvgl/src/extra/themes/default/lv_theme_default.c **** #endif
ARM GAS  /var/folders/k2/cd9bl_j17z77g23y6ffqb_400000gn/T//ccRoPncs.s 			page 4


 145:lvgl/src/extra/themes/default/lv_theme_default.c **** } my_theme_styles_t;
 146:lvgl/src/extra/themes/default/lv_theme_default.c **** 
 147:lvgl/src/extra/themes/default/lv_theme_default.c **** typedef struct {
 148:lvgl/src/extra/themes/default/lv_theme_default.c ****     lv_theme_t base;
 149:lvgl/src/extra/themes/default/lv_theme_default.c ****     uint8_t light :1;
 150:lvgl/src/extra/themes/default/lv_theme_default.c **** }my_theme_t;
 151:lvgl/src/extra/themes/default/lv_theme_default.c **** 
 152:lvgl/src/extra/themes/default/lv_theme_default.c **** typedef enum {
 153:lvgl/src/extra/themes/default/lv_theme_default.c ****     DISP_SMALL = 3,
 154:lvgl/src/extra/themes/default/lv_theme_default.c ****     DISP_MEDIUM = 2,
 155:lvgl/src/extra/themes/default/lv_theme_default.c ****     DISP_LARGE = 1,
 156:lvgl/src/extra/themes/default/lv_theme_default.c **** }disp_size_t;
 157:lvgl/src/extra/themes/default/lv_theme_default.c **** 
 158:lvgl/src/extra/themes/default/lv_theme_default.c **** /**********************
 159:lvgl/src/extra/themes/default/lv_theme_default.c ****  *  STATIC PROTOTYPES
 160:lvgl/src/extra/themes/default/lv_theme_default.c ****  **********************/
 161:lvgl/src/extra/themes/default/lv_theme_default.c **** static void theme_apply(lv_theme_t * th, lv_obj_t * obj);
 162:lvgl/src/extra/themes/default/lv_theme_default.c **** static void style_init_reset(lv_style_t * style);
 163:lvgl/src/extra/themes/default/lv_theme_default.c **** 
 164:lvgl/src/extra/themes/default/lv_theme_default.c **** /**********************
 165:lvgl/src/extra/themes/default/lv_theme_default.c ****  *  STATIC VARIABLES
 166:lvgl/src/extra/themes/default/lv_theme_default.c ****  **********************/
 167:lvgl/src/extra/themes/default/lv_theme_default.c **** static my_theme_styles_t * styles;
 168:lvgl/src/extra/themes/default/lv_theme_default.c **** static lv_theme_t theme;
 169:lvgl/src/extra/themes/default/lv_theme_default.c **** static disp_size_t disp_size;
 170:lvgl/src/extra/themes/default/lv_theme_default.c **** static bool inited;
 171:lvgl/src/extra/themes/default/lv_theme_default.c **** static lv_color_t color_scr;
 172:lvgl/src/extra/themes/default/lv_theme_default.c **** static lv_color_t color_text;
 173:lvgl/src/extra/themes/default/lv_theme_default.c **** static lv_color_t color_card;
 174:lvgl/src/extra/themes/default/lv_theme_default.c **** static lv_color_t color_grey;
 175:lvgl/src/extra/themes/default/lv_theme_default.c **** 
 176:lvgl/src/extra/themes/default/lv_theme_default.c **** 
 177:lvgl/src/extra/themes/default/lv_theme_default.c **** /**********************
 178:lvgl/src/extra/themes/default/lv_theme_default.c ****  *      MACROS
 179:lvgl/src/extra/themes/default/lv_theme_default.c ****  **********************/
 180:lvgl/src/extra/themes/default/lv_theme_default.c **** 
 181:lvgl/src/extra/themes/default/lv_theme_default.c **** /**********************
 182:lvgl/src/extra/themes/default/lv_theme_default.c ****  *   STATIC FUNCTIONS
 183:lvgl/src/extra/themes/default/lv_theme_default.c ****  **********************/
 184:lvgl/src/extra/themes/default/lv_theme_default.c **** 
 185:lvgl/src/extra/themes/default/lv_theme_default.c **** 
 186:lvgl/src/extra/themes/default/lv_theme_default.c **** static lv_color_t dark_color_filter_cb(const lv_color_filter_dsc_t * f, lv_color_t c, lv_opa_t opa)
 187:lvgl/src/extra/themes/default/lv_theme_default.c **** {
 188:lvgl/src/extra/themes/default/lv_theme_default.c ****     LV_UNUSED(f);
 189:lvgl/src/extra/themes/default/lv_theme_default.c ****     return lv_color_darken(c, opa);
 190:lvgl/src/extra/themes/default/lv_theme_default.c **** }
 191:lvgl/src/extra/themes/default/lv_theme_default.c **** 
 192:lvgl/src/extra/themes/default/lv_theme_default.c **** static lv_color_t grey_filter_cb(const lv_color_filter_dsc_t * f, lv_color_t color, lv_opa_t opa)
 193:lvgl/src/extra/themes/default/lv_theme_default.c **** {
 194:lvgl/src/extra/themes/default/lv_theme_default.c ****     LV_UNUSED(f);
 195:lvgl/src/extra/themes/default/lv_theme_default.c ****     if(theme.flags & MODE_DARK) return lv_color_mix(lv_palette_darken(LV_PALETTE_GREY, 2), color, o
 196:lvgl/src/extra/themes/default/lv_theme_default.c ****     else return lv_color_mix(lv_palette_lighten(LV_PALETTE_GREY, 2), color, opa);
 197:lvgl/src/extra/themes/default/lv_theme_default.c **** }
 198:lvgl/src/extra/themes/default/lv_theme_default.c **** 
 199:lvgl/src/extra/themes/default/lv_theme_default.c **** static void style_init(void)
 200:lvgl/src/extra/themes/default/lv_theme_default.c **** {
 201:lvgl/src/extra/themes/default/lv_theme_default.c ****     static const lv_style_prop_t trans_props[] = {
ARM GAS  /var/folders/k2/cd9bl_j17z77g23y6ffqb_400000gn/T//ccRoPncs.s 			page 5


 202:lvgl/src/extra/themes/default/lv_theme_default.c ****             LV_STYLE_BG_OPA, LV_STYLE_BG_COLOR,
 203:lvgl/src/extra/themes/default/lv_theme_default.c ****             LV_STYLE_TRANSFORM_WIDTH, LV_STYLE_TRANSFORM_HEIGHT,
 204:lvgl/src/extra/themes/default/lv_theme_default.c ****             LV_STYLE_TRANSLATE_Y, LV_STYLE_TRANSLATE_X,
 205:lvgl/src/extra/themes/default/lv_theme_default.c ****             LV_STYLE_TRANSFORM_ZOOM, LV_STYLE_TRANSFORM_ANGLE,
 206:lvgl/src/extra/themes/default/lv_theme_default.c ****             LV_STYLE_COLOR_FILTER_OPA, LV_STYLE_COLOR_FILTER_DSC,
 207:lvgl/src/extra/themes/default/lv_theme_default.c ****             0
 208:lvgl/src/extra/themes/default/lv_theme_default.c ****     };
 209:lvgl/src/extra/themes/default/lv_theme_default.c **** 
 210:lvgl/src/extra/themes/default/lv_theme_default.c ****     color_scr = theme.flags & MODE_DARK ? DARK_COLOR_SCR : LIGHT_COLOR_SCR;
 211:lvgl/src/extra/themes/default/lv_theme_default.c ****     color_text = theme.flags & MODE_DARK ? DARK_COLOR_TEXT : LIGHT_COLOR_TEXT;
 212:lvgl/src/extra/themes/default/lv_theme_default.c ****     color_card = theme.flags & MODE_DARK ? DARK_COLOR_CARD : LIGHT_COLOR_CARD;
 213:lvgl/src/extra/themes/default/lv_theme_default.c ****     color_grey = theme.flags & MODE_DARK ? DARK_COLOR_GREY : LIGHT_COLOR_GREY;
 214:lvgl/src/extra/themes/default/lv_theme_default.c **** 
 215:lvgl/src/extra/themes/default/lv_theme_default.c ****     static lv_style_transition_dsc_t trans_delayed;
 216:lvgl/src/extra/themes/default/lv_theme_default.c ****     lv_style_transition_dsc_init(&trans_delayed, trans_props, lv_anim_path_linear, TRANSITION_TIME,
 217:lvgl/src/extra/themes/default/lv_theme_default.c **** 
 218:lvgl/src/extra/themes/default/lv_theme_default.c ****     static lv_style_transition_dsc_t trans_normal;
 219:lvgl/src/extra/themes/default/lv_theme_default.c ****     lv_style_transition_dsc_init(&trans_normal, trans_props, lv_anim_path_linear, TRANSITION_TIME, 
 220:lvgl/src/extra/themes/default/lv_theme_default.c **** 
 221:lvgl/src/extra/themes/default/lv_theme_default.c ****     style_init_reset(&styles->transition_delayed);
 222:lvgl/src/extra/themes/default/lv_theme_default.c ****     lv_style_set_transition(&styles->transition_delayed, &trans_delayed); /*Go back to default stat
 223:lvgl/src/extra/themes/default/lv_theme_default.c **** 
 224:lvgl/src/extra/themes/default/lv_theme_default.c ****     style_init_reset(&styles->transition_normal);
 225:lvgl/src/extra/themes/default/lv_theme_default.c ****     lv_style_set_transition(&styles->transition_normal, &trans_normal); /*Go back to default state 
 226:lvgl/src/extra/themes/default/lv_theme_default.c **** 
 227:lvgl/src/extra/themes/default/lv_theme_default.c ****     style_init_reset(&styles->scrollbar);
 228:lvgl/src/extra/themes/default/lv_theme_default.c ****     lv_style_set_bg_color(&styles->scrollbar, (theme.flags & MODE_DARK) ? lv_palette_darken(LV_PALE
 229:lvgl/src/extra/themes/default/lv_theme_default.c ****     lv_style_set_radius(&styles->scrollbar, LV_RADIUS_CIRCLE);
 230:lvgl/src/extra/themes/default/lv_theme_default.c ****     lv_style_set_pad_right(&styles->scrollbar, lv_disp_dpx(theme.disp, 7));
 231:lvgl/src/extra/themes/default/lv_theme_default.c ****     lv_style_set_pad_top(&styles->scrollbar,  lv_disp_dpx(theme.disp, 7));
 232:lvgl/src/extra/themes/default/lv_theme_default.c ****     lv_style_set_size(&styles->scrollbar,  lv_disp_dpx(theme.disp, 5));
 233:lvgl/src/extra/themes/default/lv_theme_default.c ****     lv_style_set_bg_opa(&styles->scrollbar,  LV_OPA_40);
 234:lvgl/src/extra/themes/default/lv_theme_default.c ****     lv_style_set_transition(&styles->scrollbar, &trans_normal);
 235:lvgl/src/extra/themes/default/lv_theme_default.c **** 
 236:lvgl/src/extra/themes/default/lv_theme_default.c ****     style_init_reset(&styles->scrollbar_scrolled);
 237:lvgl/src/extra/themes/default/lv_theme_default.c ****     lv_style_set_bg_opa(&styles->scrollbar_scrolled,  LV_OPA_COVER);
 238:lvgl/src/extra/themes/default/lv_theme_default.c **** 
 239:lvgl/src/extra/themes/default/lv_theme_default.c ****     style_init_reset(&styles->scr);
 240:lvgl/src/extra/themes/default/lv_theme_default.c ****     lv_style_set_bg_opa(&styles->scr, LV_OPA_COVER);
 241:lvgl/src/extra/themes/default/lv_theme_default.c ****     lv_style_set_bg_color(&styles->scr, color_scr);
 242:lvgl/src/extra/themes/default/lv_theme_default.c ****     lv_style_set_text_color(&styles->scr, color_text);
 243:lvgl/src/extra/themes/default/lv_theme_default.c ****     lv_style_set_pad_row(&styles->scr, PAD_SMALL);
 244:lvgl/src/extra/themes/default/lv_theme_default.c ****     lv_style_set_pad_column(&styles->scr, PAD_SMALL);
 245:lvgl/src/extra/themes/default/lv_theme_default.c **** 
 246:lvgl/src/extra/themes/default/lv_theme_default.c ****     style_init_reset(&styles->card);
 247:lvgl/src/extra/themes/default/lv_theme_default.c ****     lv_style_set_radius(&styles->card, RADIUS_DEFAULT);
 248:lvgl/src/extra/themes/default/lv_theme_default.c ****     lv_style_set_bg_opa(&styles->card, LV_OPA_COVER);
 249:lvgl/src/extra/themes/default/lv_theme_default.c ****     lv_style_set_bg_color(&styles->card, color_card);
 250:lvgl/src/extra/themes/default/lv_theme_default.c ****     lv_style_set_border_color(&styles->card, color_grey);
 251:lvgl/src/extra/themes/default/lv_theme_default.c ****     lv_style_set_border_width(&styles->card, BORDER_WIDTH);
 252:lvgl/src/extra/themes/default/lv_theme_default.c ****     lv_style_set_border_post(&styles->card, true);
 253:lvgl/src/extra/themes/default/lv_theme_default.c ****     lv_style_set_text_color(&styles->card, color_text);
 254:lvgl/src/extra/themes/default/lv_theme_default.c ****     lv_style_set_pad_all(&styles->card, PAD_DEF);
 255:lvgl/src/extra/themes/default/lv_theme_default.c ****     lv_style_set_pad_row(&styles->card, PAD_SMALL);
 256:lvgl/src/extra/themes/default/lv_theme_default.c ****     lv_style_set_pad_column(&styles->card, PAD_SMALL);
 257:lvgl/src/extra/themes/default/lv_theme_default.c ****     lv_style_set_line_color(&styles->card, lv_palette_main(LV_PALETTE_GREY));
 258:lvgl/src/extra/themes/default/lv_theme_default.c ****     lv_style_set_line_width(&styles->card, lv_disp_dpx(theme.disp, 1));
ARM GAS  /var/folders/k2/cd9bl_j17z77g23y6ffqb_400000gn/T//ccRoPncs.s 			page 6


 259:lvgl/src/extra/themes/default/lv_theme_default.c **** 
 260:lvgl/src/extra/themes/default/lv_theme_default.c ****     style_init_reset(&styles->outline_primary);
 261:lvgl/src/extra/themes/default/lv_theme_default.c ****     lv_style_set_outline_color(&styles->outline_primary, theme.color_primary);
 262:lvgl/src/extra/themes/default/lv_theme_default.c ****     lv_style_set_outline_width(&styles->outline_primary, OUTLINE_WIDTH);
 263:lvgl/src/extra/themes/default/lv_theme_default.c ****     lv_style_set_outline_pad(&styles->outline_primary, OUTLINE_WIDTH);
 264:lvgl/src/extra/themes/default/lv_theme_default.c ****     lv_style_set_outline_opa(&styles->outline_primary, LV_OPA_50);
 265:lvgl/src/extra/themes/default/lv_theme_default.c **** 
 266:lvgl/src/extra/themes/default/lv_theme_default.c ****     style_init_reset(&styles->outline_secondary);
 267:lvgl/src/extra/themes/default/lv_theme_default.c ****     lv_style_set_outline_color(&styles->outline_secondary, theme.color_secondary);
 268:lvgl/src/extra/themes/default/lv_theme_default.c ****     lv_style_set_outline_width(&styles->outline_secondary, OUTLINE_WIDTH);
 269:lvgl/src/extra/themes/default/lv_theme_default.c ****     lv_style_set_outline_opa(&styles->outline_secondary, LV_OPA_50);
 270:lvgl/src/extra/themes/default/lv_theme_default.c **** 
 271:lvgl/src/extra/themes/default/lv_theme_default.c ****     style_init_reset(&styles->btn);
 272:lvgl/src/extra/themes/default/lv_theme_default.c ****     lv_style_set_radius(&styles->btn, (disp_size == DISP_LARGE ? lv_disp_dpx(theme.disp, 16) : disp
 273:lvgl/src/extra/themes/default/lv_theme_default.c ****     lv_style_set_bg_opa(&styles->btn, LV_OPA_COVER);
 274:lvgl/src/extra/themes/default/lv_theme_default.c ****     lv_style_set_bg_color(&styles->btn, color_grey);
 275:lvgl/src/extra/themes/default/lv_theme_default.c ****     if(!(theme.flags & MODE_DARK)) {
 276:lvgl/src/extra/themes/default/lv_theme_default.c ****         lv_style_set_shadow_color(&styles->btn, lv_palette_lighten(LV_PALETTE_GREY, 3));
 277:lvgl/src/extra/themes/default/lv_theme_default.c ****         lv_style_set_shadow_width(&styles->btn, 1);
 278:lvgl/src/extra/themes/default/lv_theme_default.c ****         lv_style_set_shadow_ofs_y(&styles->btn, lv_disp_dpx(theme.disp, 4));
 279:lvgl/src/extra/themes/default/lv_theme_default.c ****     }
 280:lvgl/src/extra/themes/default/lv_theme_default.c ****     lv_style_set_text_color(&styles->btn, color_text);
 281:lvgl/src/extra/themes/default/lv_theme_default.c ****     lv_style_set_pad_hor(&styles->btn, PAD_DEF);
 282:lvgl/src/extra/themes/default/lv_theme_default.c ****     lv_style_set_pad_ver(&styles->btn, PAD_SMALL);
 283:lvgl/src/extra/themes/default/lv_theme_default.c ****     lv_style_set_pad_column(&styles->btn, lv_disp_dpx(theme.disp, 5));
 284:lvgl/src/extra/themes/default/lv_theme_default.c ****     lv_style_set_pad_row(&styles->btn, lv_disp_dpx(theme.disp, 5));
 285:lvgl/src/extra/themes/default/lv_theme_default.c **** 
 286:lvgl/src/extra/themes/default/lv_theme_default.c ****     static lv_color_filter_dsc_t dark_filter;
 287:lvgl/src/extra/themes/default/lv_theme_default.c ****     lv_color_filter_dsc_init(&dark_filter, dark_color_filter_cb);
 288:lvgl/src/extra/themes/default/lv_theme_default.c **** 
 289:lvgl/src/extra/themes/default/lv_theme_default.c ****     static lv_color_filter_dsc_t grey_filter;
 290:lvgl/src/extra/themes/default/lv_theme_default.c ****     lv_color_filter_dsc_init(&grey_filter, grey_filter_cb);
 291:lvgl/src/extra/themes/default/lv_theme_default.c **** 
 292:lvgl/src/extra/themes/default/lv_theme_default.c ****     style_init_reset(&styles->pressed);
 293:lvgl/src/extra/themes/default/lv_theme_default.c ****     lv_style_set_color_filter_dsc(&styles->pressed, &dark_filter);
 294:lvgl/src/extra/themes/default/lv_theme_default.c ****     lv_style_set_color_filter_opa(&styles->pressed, 35);
 295:lvgl/src/extra/themes/default/lv_theme_default.c **** 
 296:lvgl/src/extra/themes/default/lv_theme_default.c ****     style_init_reset(&styles->disabled);
 297:lvgl/src/extra/themes/default/lv_theme_default.c ****     lv_style_set_color_filter_dsc(&styles->disabled, &grey_filter);
 298:lvgl/src/extra/themes/default/lv_theme_default.c ****     lv_style_set_color_filter_opa(&styles->disabled, LV_OPA_50);
 299:lvgl/src/extra/themes/default/lv_theme_default.c **** 
 300:lvgl/src/extra/themes/default/lv_theme_default.c ****     style_init_reset(&styles->clip_corner);
 301:lvgl/src/extra/themes/default/lv_theme_default.c ****     lv_style_set_clip_corner(&styles->clip_corner, true);
 302:lvgl/src/extra/themes/default/lv_theme_default.c **** 
 303:lvgl/src/extra/themes/default/lv_theme_default.c ****     style_init_reset(&styles->pad_normal);
 304:lvgl/src/extra/themes/default/lv_theme_default.c ****     lv_style_set_pad_all(&styles->pad_normal, PAD_DEF);
 305:lvgl/src/extra/themes/default/lv_theme_default.c ****     lv_style_set_pad_row(&styles->pad_normal, PAD_DEF);
 306:lvgl/src/extra/themes/default/lv_theme_default.c ****     lv_style_set_pad_column(&styles->pad_normal, PAD_DEF);
 307:lvgl/src/extra/themes/default/lv_theme_default.c **** 
 308:lvgl/src/extra/themes/default/lv_theme_default.c ****     style_init_reset(&styles->pad_small);
 309:lvgl/src/extra/themes/default/lv_theme_default.c ****     lv_style_set_pad_all(&styles->pad_small, PAD_SMALL);
 310:lvgl/src/extra/themes/default/lv_theme_default.c ****     lv_style_set_pad_gap(&styles->pad_small, PAD_SMALL);
 311:lvgl/src/extra/themes/default/lv_theme_default.c **** 
 312:lvgl/src/extra/themes/default/lv_theme_default.c ****     style_init_reset(&styles->pad_gap);
 313:lvgl/src/extra/themes/default/lv_theme_default.c ****     lv_style_set_pad_row(&styles->pad_gap, lv_disp_dpx(theme.disp, 10));
 314:lvgl/src/extra/themes/default/lv_theme_default.c ****     lv_style_set_pad_column(&styles->pad_gap, lv_disp_dpx(theme.disp, 10));
 315:lvgl/src/extra/themes/default/lv_theme_default.c **** 
ARM GAS  /var/folders/k2/cd9bl_j17z77g23y6ffqb_400000gn/T//ccRoPncs.s 			page 7


 316:lvgl/src/extra/themes/default/lv_theme_default.c ****     style_init_reset(&styles->line_space_large);
 317:lvgl/src/extra/themes/default/lv_theme_default.c ****     lv_style_set_text_line_space(&styles->line_space_large, lv_disp_dpx(theme.disp, 20));
 318:lvgl/src/extra/themes/default/lv_theme_default.c **** 
 319:lvgl/src/extra/themes/default/lv_theme_default.c ****     style_init_reset(&styles->text_align_center);
 320:lvgl/src/extra/themes/default/lv_theme_default.c ****     lv_style_set_text_align(&styles->text_align_center, LV_TEXT_ALIGN_CENTER);
 321:lvgl/src/extra/themes/default/lv_theme_default.c **** 
 322:lvgl/src/extra/themes/default/lv_theme_default.c ****     style_init_reset(&styles->pad_zero);
 323:lvgl/src/extra/themes/default/lv_theme_default.c ****     lv_style_set_pad_all(&styles->pad_zero, 0);
 324:lvgl/src/extra/themes/default/lv_theme_default.c ****     lv_style_set_pad_row(&styles->pad_zero, 0);
 325:lvgl/src/extra/themes/default/lv_theme_default.c ****     lv_style_set_pad_column(&styles->pad_zero, 0);
 326:lvgl/src/extra/themes/default/lv_theme_default.c **** 
 327:lvgl/src/extra/themes/default/lv_theme_default.c ****     style_init_reset(&styles->pad_tiny);
 328:lvgl/src/extra/themes/default/lv_theme_default.c ****     lv_style_set_pad_all(&styles->pad_tiny, PAD_TINY);
 329:lvgl/src/extra/themes/default/lv_theme_default.c ****     lv_style_set_pad_row(&styles->pad_tiny, PAD_TINY);
 330:lvgl/src/extra/themes/default/lv_theme_default.c ****     lv_style_set_pad_column(&styles->pad_tiny, PAD_TINY);
 331:lvgl/src/extra/themes/default/lv_theme_default.c **** 
 332:lvgl/src/extra/themes/default/lv_theme_default.c ****     style_init_reset(&styles->bg_color_primary);
 333:lvgl/src/extra/themes/default/lv_theme_default.c ****     lv_style_set_bg_color(&styles->bg_color_primary, theme.color_primary);
 334:lvgl/src/extra/themes/default/lv_theme_default.c ****     lv_style_set_text_color(&styles->bg_color_primary, lv_color_white());
 335:lvgl/src/extra/themes/default/lv_theme_default.c ****     lv_style_set_bg_opa(&styles->bg_color_primary, LV_OPA_COVER);
 336:lvgl/src/extra/themes/default/lv_theme_default.c **** 
 337:lvgl/src/extra/themes/default/lv_theme_default.c ****     style_init_reset(&styles->bg_color_primary_muted);
 338:lvgl/src/extra/themes/default/lv_theme_default.c ****     lv_style_set_bg_color(&styles->bg_color_primary_muted, theme.color_primary);
 339:lvgl/src/extra/themes/default/lv_theme_default.c ****     lv_style_set_text_color(&styles->bg_color_primary_muted, theme.color_primary);
 340:lvgl/src/extra/themes/default/lv_theme_default.c ****     lv_style_set_bg_opa(&styles->bg_color_primary_muted, LV_OPA_20);
 341:lvgl/src/extra/themes/default/lv_theme_default.c **** 
 342:lvgl/src/extra/themes/default/lv_theme_default.c ****     style_init_reset(&styles->bg_color_secondary);
 343:lvgl/src/extra/themes/default/lv_theme_default.c ****     lv_style_set_bg_color(&styles->bg_color_secondary, theme.color_secondary);
 344:lvgl/src/extra/themes/default/lv_theme_default.c ****     lv_style_set_text_color(&styles->bg_color_secondary, lv_color_white());
 345:lvgl/src/extra/themes/default/lv_theme_default.c ****     lv_style_set_bg_opa(&styles->bg_color_secondary, LV_OPA_COVER);
 346:lvgl/src/extra/themes/default/lv_theme_default.c **** 
 347:lvgl/src/extra/themes/default/lv_theme_default.c ****     style_init_reset(&styles->bg_color_secondary_muted);
 348:lvgl/src/extra/themes/default/lv_theme_default.c ****     lv_style_set_bg_color(&styles->bg_color_secondary_muted, theme.color_secondary);
 349:lvgl/src/extra/themes/default/lv_theme_default.c ****     lv_style_set_text_color(&styles->bg_color_secondary_muted, theme.color_secondary);
 350:lvgl/src/extra/themes/default/lv_theme_default.c ****     lv_style_set_bg_opa(&styles->bg_color_secondary_muted, LV_OPA_20);
 351:lvgl/src/extra/themes/default/lv_theme_default.c **** 
 352:lvgl/src/extra/themes/default/lv_theme_default.c ****     style_init_reset(&styles->bg_color_grey);
 353:lvgl/src/extra/themes/default/lv_theme_default.c ****     lv_style_set_bg_color(&styles->bg_color_grey, color_grey);
 354:lvgl/src/extra/themes/default/lv_theme_default.c ****     lv_style_set_bg_opa(&styles->bg_color_grey, LV_OPA_COVER);
 355:lvgl/src/extra/themes/default/lv_theme_default.c ****     lv_style_set_text_color(&styles->bg_color_grey, color_text);
 356:lvgl/src/extra/themes/default/lv_theme_default.c **** 
 357:lvgl/src/extra/themes/default/lv_theme_default.c ****     style_init_reset(&styles->bg_color_white);
 358:lvgl/src/extra/themes/default/lv_theme_default.c ****     lv_style_set_bg_color(&styles->bg_color_white, color_card);
 359:lvgl/src/extra/themes/default/lv_theme_default.c ****     lv_style_set_bg_opa(&styles->bg_color_white, LV_OPA_COVER);
 360:lvgl/src/extra/themes/default/lv_theme_default.c ****     lv_style_set_text_color(&styles->bg_color_white, color_text);
 361:lvgl/src/extra/themes/default/lv_theme_default.c **** 
 362:lvgl/src/extra/themes/default/lv_theme_default.c ****     style_init_reset(&styles->circle);
 363:lvgl/src/extra/themes/default/lv_theme_default.c ****     lv_style_set_radius(&styles->circle, LV_RADIUS_CIRCLE);
 364:lvgl/src/extra/themes/default/lv_theme_default.c **** 
 365:lvgl/src/extra/themes/default/lv_theme_default.c ****     style_init_reset(&styles->no_radius);
 366:lvgl/src/extra/themes/default/lv_theme_default.c ****     lv_style_set_radius(&styles->no_radius, 0);
 367:lvgl/src/extra/themes/default/lv_theme_default.c **** 
 368:lvgl/src/extra/themes/default/lv_theme_default.c **** #if LV_THEME_DEFAULT_GROW
 369:lvgl/src/extra/themes/default/lv_theme_default.c ****     style_init_reset(&styles->grow);
 370:lvgl/src/extra/themes/default/lv_theme_default.c ****     lv_style_set_transform_width(&styles->grow, lv_disp_dpx(theme.disp, 3));
 371:lvgl/src/extra/themes/default/lv_theme_default.c ****     lv_style_set_transform_height(&styles->grow, lv_disp_dpx(theme.disp, 3));
 372:lvgl/src/extra/themes/default/lv_theme_default.c **** #endif
ARM GAS  /var/folders/k2/cd9bl_j17z77g23y6ffqb_400000gn/T//ccRoPncs.s 			page 8


 373:lvgl/src/extra/themes/default/lv_theme_default.c **** 
 374:lvgl/src/extra/themes/default/lv_theme_default.c ****     style_init_reset(&styles->knob);
 375:lvgl/src/extra/themes/default/lv_theme_default.c ****     lv_style_set_bg_color(&styles->knob, theme.color_primary);
 376:lvgl/src/extra/themes/default/lv_theme_default.c ****     lv_style_set_bg_opa(&styles->knob, LV_OPA_COVER);
 377:lvgl/src/extra/themes/default/lv_theme_default.c ****     lv_style_set_pad_all(&styles->knob, lv_disp_dpx(theme.disp, 6));
 378:lvgl/src/extra/themes/default/lv_theme_default.c ****     lv_style_set_radius(&styles->knob, LV_RADIUS_CIRCLE);
 379:lvgl/src/extra/themes/default/lv_theme_default.c **** 
 380:lvgl/src/extra/themes/default/lv_theme_default.c ****     style_init_reset(&styles->anim);
 381:lvgl/src/extra/themes/default/lv_theme_default.c ****     lv_style_set_anim_time(&styles->anim, 200);
 382:lvgl/src/extra/themes/default/lv_theme_default.c **** 
 383:lvgl/src/extra/themes/default/lv_theme_default.c **** #if LV_USE_ARC
 384:lvgl/src/extra/themes/default/lv_theme_default.c ****     style_init_reset(&styles->arc_indic);
 385:lvgl/src/extra/themes/default/lv_theme_default.c ****     lv_style_set_arc_color(&styles->arc_indic, color_grey);
 386:lvgl/src/extra/themes/default/lv_theme_default.c ****     lv_style_set_arc_width(&styles->arc_indic, lv_disp_dpx(theme.disp, 15));
 387:lvgl/src/extra/themes/default/lv_theme_default.c ****     lv_style_set_arc_rounded(&styles->arc_indic, true);
 388:lvgl/src/extra/themes/default/lv_theme_default.c **** 
 389:lvgl/src/extra/themes/default/lv_theme_default.c ****     style_init_reset(&styles->arc_indic_primary);
 390:lvgl/src/extra/themes/default/lv_theme_default.c ****     lv_style_set_arc_color(&styles->arc_indic_primary, theme.color_primary);
 391:lvgl/src/extra/themes/default/lv_theme_default.c **** #endif
 392:lvgl/src/extra/themes/default/lv_theme_default.c **** 
 393:lvgl/src/extra/themes/default/lv_theme_default.c **** #if LV_USE_DROPDOWN
 394:lvgl/src/extra/themes/default/lv_theme_default.c ****     style_init_reset(&styles->dropdown_list);
 395:lvgl/src/extra/themes/default/lv_theme_default.c ****     lv_style_set_max_height(&styles->dropdown_list, LV_DPI_DEF * 2);
 396:lvgl/src/extra/themes/default/lv_theme_default.c **** #endif
 397:lvgl/src/extra/themes/default/lv_theme_default.c **** #if LV_USE_CHECKBOX
 398:lvgl/src/extra/themes/default/lv_theme_default.c ****     style_init_reset(&styles->cb_marker);
 399:lvgl/src/extra/themes/default/lv_theme_default.c ****     lv_style_set_pad_all(&styles->cb_marker, lv_disp_dpx(theme.disp, 3));
 400:lvgl/src/extra/themes/default/lv_theme_default.c ****     lv_style_set_border_width(&styles->cb_marker, BORDER_WIDTH);
 401:lvgl/src/extra/themes/default/lv_theme_default.c ****     lv_style_set_border_color(&styles->cb_marker, theme.color_primary);
 402:lvgl/src/extra/themes/default/lv_theme_default.c ****     lv_style_set_bg_color(&styles->cb_marker, color_card);
 403:lvgl/src/extra/themes/default/lv_theme_default.c ****     lv_style_set_bg_opa(&styles->cb_marker, LV_OPA_COVER);
 404:lvgl/src/extra/themes/default/lv_theme_default.c ****     lv_style_set_radius(&styles->cb_marker, RADIUS_DEFAULT / 2);
 405:lvgl/src/extra/themes/default/lv_theme_default.c **** 
 406:lvgl/src/extra/themes/default/lv_theme_default.c ****     style_init_reset(&styles->cb_marker_checked);
 407:lvgl/src/extra/themes/default/lv_theme_default.c ****     lv_style_set_bg_img_src(&styles->cb_marker_checked, LV_SYMBOL_OK);
 408:lvgl/src/extra/themes/default/lv_theme_default.c ****     lv_style_set_text_color(&styles->cb_marker_checked, lv_color_white());
 409:lvgl/src/extra/themes/default/lv_theme_default.c ****     lv_style_set_text_font(&styles->cb_marker_checked, theme.font_small);
 410:lvgl/src/extra/themes/default/lv_theme_default.c **** #endif
 411:lvgl/src/extra/themes/default/lv_theme_default.c **** 
 412:lvgl/src/extra/themes/default/lv_theme_default.c **** #if LV_USE_SWITCH
 413:lvgl/src/extra/themes/default/lv_theme_default.c ****     style_init_reset(&styles->switch_knob);
 414:lvgl/src/extra/themes/default/lv_theme_default.c ****     lv_style_set_pad_all(&styles->switch_knob, - lv_disp_dpx(theme.disp, 4));
 415:lvgl/src/extra/themes/default/lv_theme_default.c ****     lv_style_set_bg_color(&styles->switch_knob, lv_color_white());
 416:lvgl/src/extra/themes/default/lv_theme_default.c **** #endif
 417:lvgl/src/extra/themes/default/lv_theme_default.c **** 
 418:lvgl/src/extra/themes/default/lv_theme_default.c **** #if LV_USE_LINE
 419:lvgl/src/extra/themes/default/lv_theme_default.c ****     style_init_reset(&styles->line);
 420:lvgl/src/extra/themes/default/lv_theme_default.c ****     lv_style_set_line_width(&styles->line, 1);
 421:lvgl/src/extra/themes/default/lv_theme_default.c ****     lv_style_set_line_color(&styles->line, color_text);
 422:lvgl/src/extra/themes/default/lv_theme_default.c **** #endif
 423:lvgl/src/extra/themes/default/lv_theme_default.c **** 
 424:lvgl/src/extra/themes/default/lv_theme_default.c **** #if LV_USE_CHART
 425:lvgl/src/extra/themes/default/lv_theme_default.c ****     style_init_reset(&styles->chart_bg);
 426:lvgl/src/extra/themes/default/lv_theme_default.c ****     lv_style_set_border_post(&styles->chart_bg, false);
 427:lvgl/src/extra/themes/default/lv_theme_default.c ****     lv_style_set_pad_column(&styles->chart_bg, lv_disp_dpx(theme.disp, 10));
 428:lvgl/src/extra/themes/default/lv_theme_default.c ****     lv_style_set_line_color(&styles->chart_bg, color_grey);
 429:lvgl/src/extra/themes/default/lv_theme_default.c **** 
ARM GAS  /var/folders/k2/cd9bl_j17z77g23y6ffqb_400000gn/T//ccRoPncs.s 			page 9


 430:lvgl/src/extra/themes/default/lv_theme_default.c ****     style_init_reset(&styles->chart_series);
 431:lvgl/src/extra/themes/default/lv_theme_default.c ****     lv_style_set_line_width(&styles->chart_series, lv_disp_dpx(theme.disp, 3));
 432:lvgl/src/extra/themes/default/lv_theme_default.c ****     lv_style_set_radius(&styles->chart_series, lv_disp_dpx(theme.disp, 3));
 433:lvgl/src/extra/themes/default/lv_theme_default.c ****     lv_style_set_size(&styles->chart_series, lv_disp_dpx(theme.disp, 8));
 434:lvgl/src/extra/themes/default/lv_theme_default.c ****     lv_style_set_pad_column(&styles->chart_series, lv_disp_dpx(theme.disp, 2));
 435:lvgl/src/extra/themes/default/lv_theme_default.c **** 
 436:lvgl/src/extra/themes/default/lv_theme_default.c ****     style_init_reset(&styles->chart_indic);
 437:lvgl/src/extra/themes/default/lv_theme_default.c ****     lv_style_set_radius(&styles->chart_indic,LV_RADIUS_CIRCLE);
 438:lvgl/src/extra/themes/default/lv_theme_default.c ****     lv_style_set_size(&styles->chart_indic, lv_disp_dpx(theme.disp, 8));
 439:lvgl/src/extra/themes/default/lv_theme_default.c ****     lv_style_set_bg_color(&styles->chart_indic, theme.color_primary);
 440:lvgl/src/extra/themes/default/lv_theme_default.c ****     lv_style_set_bg_opa(&styles->chart_indic, LV_OPA_COVER);
 441:lvgl/src/extra/themes/default/lv_theme_default.c **** 
 442:lvgl/src/extra/themes/default/lv_theme_default.c ****     style_init_reset(&styles->chart_ticks);
 443:lvgl/src/extra/themes/default/lv_theme_default.c ****     lv_style_set_line_width(&styles->chart_ticks, lv_disp_dpx(theme.disp, 1));
 444:lvgl/src/extra/themes/default/lv_theme_default.c ****     lv_style_set_line_color(&styles->chart_ticks, color_text);
 445:lvgl/src/extra/themes/default/lv_theme_default.c ****     lv_style_set_pad_all(&styles->chart_ticks, lv_disp_dpx(theme.disp, 2));
 446:lvgl/src/extra/themes/default/lv_theme_default.c ****     lv_style_set_text_color(&styles->chart_ticks, lv_palette_main(LV_PALETTE_GREY));
 447:lvgl/src/extra/themes/default/lv_theme_default.c **** #endif
 448:lvgl/src/extra/themes/default/lv_theme_default.c **** 
 449:lvgl/src/extra/themes/default/lv_theme_default.c **** #if LV_USE_METER
 450:lvgl/src/extra/themes/default/lv_theme_default.c ****     style_init_reset(&styles->meter_marker);
 451:lvgl/src/extra/themes/default/lv_theme_default.c ****     lv_style_set_line_width(&styles->meter_marker, lv_disp_dpx(theme.disp, 5));
 452:lvgl/src/extra/themes/default/lv_theme_default.c ****     lv_style_set_line_color(&styles->meter_marker, color_text);
 453:lvgl/src/extra/themes/default/lv_theme_default.c ****     lv_style_set_size(&styles->meter_marker, lv_disp_dpx(theme.disp, 20));
 454:lvgl/src/extra/themes/default/lv_theme_default.c ****     lv_style_set_pad_left(&styles->meter_marker, lv_disp_dpx(theme.disp, 15));
 455:lvgl/src/extra/themes/default/lv_theme_default.c **** 
 456:lvgl/src/extra/themes/default/lv_theme_default.c ****     style_init_reset(&styles->meter_indic);
 457:lvgl/src/extra/themes/default/lv_theme_default.c ****     lv_style_set_radius(&styles->meter_indic, LV_RADIUS_CIRCLE);
 458:lvgl/src/extra/themes/default/lv_theme_default.c ****     lv_style_set_bg_color(&styles->meter_indic, color_text);
 459:lvgl/src/extra/themes/default/lv_theme_default.c ****     lv_style_set_bg_opa(&styles->meter_indic, LV_OPA_COVER);
 460:lvgl/src/extra/themes/default/lv_theme_default.c ****     lv_style_set_size(&styles->meter_indic, lv_disp_dpx(theme.disp, 15));
 461:lvgl/src/extra/themes/default/lv_theme_default.c **** #endif
 462:lvgl/src/extra/themes/default/lv_theme_default.c **** 
 463:lvgl/src/extra/themes/default/lv_theme_default.c **** #if LV_USE_TABLE
 464:lvgl/src/extra/themes/default/lv_theme_default.c ****     style_init_reset(&styles->table_cell);
 465:lvgl/src/extra/themes/default/lv_theme_default.c ****     lv_style_set_border_width(&styles->table_cell, lv_disp_dpx(theme.disp, 1));
 466:lvgl/src/extra/themes/default/lv_theme_default.c ****     lv_style_set_border_color(&styles->table_cell, color_grey);
 467:lvgl/src/extra/themes/default/lv_theme_default.c ****     lv_style_set_border_side(&styles->table_cell, LV_BORDER_SIDE_TOP | LV_BORDER_SIDE_BOTTOM );
 468:lvgl/src/extra/themes/default/lv_theme_default.c **** #endif
 469:lvgl/src/extra/themes/default/lv_theme_default.c **** 
 470:lvgl/src/extra/themes/default/lv_theme_default.c **** #if LV_USE_TEXTAREA
 471:lvgl/src/extra/themes/default/lv_theme_default.c ****     style_init_reset(&styles->ta_cursor);
 472:lvgl/src/extra/themes/default/lv_theme_default.c ****     lv_style_set_border_color(&styles->ta_cursor, color_text);
 473:lvgl/src/extra/themes/default/lv_theme_default.c ****     lv_style_set_border_width(&styles->ta_cursor, lv_disp_dpx(theme.disp, 2));
 474:lvgl/src/extra/themes/default/lv_theme_default.c ****     lv_style_set_pad_left(&styles->ta_cursor, lv_disp_dpx(theme.disp, 1));
 475:lvgl/src/extra/themes/default/lv_theme_default.c ****     lv_style_set_border_side(&styles->ta_cursor, LV_BORDER_SIDE_LEFT);
 476:lvgl/src/extra/themes/default/lv_theme_default.c ****     lv_style_set_anim_time(&styles->ta_cursor, 400);
 477:lvgl/src/extra/themes/default/lv_theme_default.c **** 
 478:lvgl/src/extra/themes/default/lv_theme_default.c ****     style_init_reset(&styles->ta_placeholder);
 479:lvgl/src/extra/themes/default/lv_theme_default.c ****     lv_style_set_text_color(&styles->ta_placeholder, (theme.flags & MODE_DARK) ? lv_palette_darken(
 480:lvgl/src/extra/themes/default/lv_theme_default.c **** #endif
 481:lvgl/src/extra/themes/default/lv_theme_default.c **** 
 482:lvgl/src/extra/themes/default/lv_theme_default.c **** #if LV_USE_CALENDAR
 483:lvgl/src/extra/themes/default/lv_theme_default.c ****     style_init_reset(&styles->calendar_bg);
 484:lvgl/src/extra/themes/default/lv_theme_default.c ****     lv_style_set_pad_all(&styles->calendar_bg, PAD_SMALL);
 485:lvgl/src/extra/themes/default/lv_theme_default.c ****     lv_style_set_pad_gap(&styles->calendar_bg, PAD_SMALL / 2);
 486:lvgl/src/extra/themes/default/lv_theme_default.c ****     lv_style_set_radius(&styles->calendar_bg, 0);
ARM GAS  /var/folders/k2/cd9bl_j17z77g23y6ffqb_400000gn/T//ccRoPncs.s 			page 10


 487:lvgl/src/extra/themes/default/lv_theme_default.c **** 
 488:lvgl/src/extra/themes/default/lv_theme_default.c ****     style_init_reset(&styles->calendar_day);
 489:lvgl/src/extra/themes/default/lv_theme_default.c ****     lv_style_set_border_width(&styles->calendar_day, lv_disp_dpx(theme.disp, 1));
 490:lvgl/src/extra/themes/default/lv_theme_default.c ****     lv_style_set_border_color(&styles->calendar_day, color_grey);
 491:lvgl/src/extra/themes/default/lv_theme_default.c ****     lv_style_set_bg_color(&styles->calendar_day, color_card);
 492:lvgl/src/extra/themes/default/lv_theme_default.c ****     lv_style_set_bg_opa(&styles->calendar_day, LV_OPA_20);
 493:lvgl/src/extra/themes/default/lv_theme_default.c **** #endif
 494:lvgl/src/extra/themes/default/lv_theme_default.c **** 
 495:lvgl/src/extra/themes/default/lv_theme_default.c **** #if LV_USE_COLORWHEEL
 496:lvgl/src/extra/themes/default/lv_theme_default.c ****     style_init_reset(&styles->colorwheel_main);
 497:lvgl/src/extra/themes/default/lv_theme_default.c ****     lv_style_set_arc_width(&styles->colorwheel_main, lv_disp_dpx(theme.disp, 10));
 498:lvgl/src/extra/themes/default/lv_theme_default.c **** #endif
 499:lvgl/src/extra/themes/default/lv_theme_default.c **** 
 500:lvgl/src/extra/themes/default/lv_theme_default.c **** #if LV_USE_MSGBOX
 501:lvgl/src/extra/themes/default/lv_theme_default.c ****     /*To add space for for the button shadow*/
 502:lvgl/src/extra/themes/default/lv_theme_default.c ****     style_init_reset(&styles->msgbox_btn_bg);
 503:lvgl/src/extra/themes/default/lv_theme_default.c ****     lv_style_set_pad_all(&styles->msgbox_btn_bg, lv_disp_dpx(theme.disp, 4));
 504:lvgl/src/extra/themes/default/lv_theme_default.c **** 
 505:lvgl/src/extra/themes/default/lv_theme_default.c ****     style_init_reset(&styles->msgbox_bg);
 506:lvgl/src/extra/themes/default/lv_theme_default.c ****     lv_style_set_max_width(&styles->msgbox_bg, lv_pct(100));
 507:lvgl/src/extra/themes/default/lv_theme_default.c **** #endif
 508:lvgl/src/extra/themes/default/lv_theme_default.c **** #if LV_USE_KEYBOARD
 509:lvgl/src/extra/themes/default/lv_theme_default.c ****     style_init_reset(&styles->keyboard_btn_bg);
 510:lvgl/src/extra/themes/default/lv_theme_default.c ****     lv_style_set_shadow_width(&styles->keyboard_btn_bg, 0);
 511:lvgl/src/extra/themes/default/lv_theme_default.c ****     lv_style_set_radius(&styles->keyboard_btn_bg, disp_size == DISP_SMALL ? RADIUS_DEFAULT / 2 : RA
 512:lvgl/src/extra/themes/default/lv_theme_default.c **** #endif
 513:lvgl/src/extra/themes/default/lv_theme_default.c **** 
 514:lvgl/src/extra/themes/default/lv_theme_default.c **** #if LV_USE_TABVIEW
 515:lvgl/src/extra/themes/default/lv_theme_default.c ****     style_init_reset(&styles->tab_btn);
 516:lvgl/src/extra/themes/default/lv_theme_default.c ****     lv_style_set_border_color(&styles->tab_btn, theme.color_primary);
 517:lvgl/src/extra/themes/default/lv_theme_default.c ****     lv_style_set_border_width(&styles->tab_btn, BORDER_WIDTH * 2);
 518:lvgl/src/extra/themes/default/lv_theme_default.c ****     lv_style_set_border_side(&styles->tab_btn, LV_BORDER_SIDE_BOTTOM);
 519:lvgl/src/extra/themes/default/lv_theme_default.c **** 
 520:lvgl/src/extra/themes/default/lv_theme_default.c ****     style_init_reset(&styles->tab_bg_focus);
 521:lvgl/src/extra/themes/default/lv_theme_default.c ****     lv_style_set_outline_pad(&styles->tab_bg_focus, -BORDER_WIDTH);
 522:lvgl/src/extra/themes/default/lv_theme_default.c **** #endif
 523:lvgl/src/extra/themes/default/lv_theme_default.c **** 
 524:lvgl/src/extra/themes/default/lv_theme_default.c **** #if LV_USE_LIST
 525:lvgl/src/extra/themes/default/lv_theme_default.c ****     style_init_reset(&styles->list_bg);
 526:lvgl/src/extra/themes/default/lv_theme_default.c ****     lv_style_set_pad_hor(&styles->list_bg, PAD_DEF);
 527:lvgl/src/extra/themes/default/lv_theme_default.c ****     lv_style_set_pad_ver(&styles->list_bg, 0);
 528:lvgl/src/extra/themes/default/lv_theme_default.c ****     lv_style_set_pad_gap(&styles->list_bg, 0);
 529:lvgl/src/extra/themes/default/lv_theme_default.c ****     lv_style_set_clip_corner(&styles->list_bg, true);
 530:lvgl/src/extra/themes/default/lv_theme_default.c **** 
 531:lvgl/src/extra/themes/default/lv_theme_default.c ****     style_init_reset(&styles->list_btn);
 532:lvgl/src/extra/themes/default/lv_theme_default.c ****     lv_style_set_border_width(&styles->list_btn, lv_disp_dpx(theme.disp, 1));
 533:lvgl/src/extra/themes/default/lv_theme_default.c ****     lv_style_set_border_color(&styles->list_btn, color_grey);
 534:lvgl/src/extra/themes/default/lv_theme_default.c ****     lv_style_set_border_side(&styles->list_btn, LV_BORDER_SIDE_BOTTOM);
 535:lvgl/src/extra/themes/default/lv_theme_default.c ****     lv_style_set_pad_all(&styles->list_btn, PAD_SMALL);
 536:lvgl/src/extra/themes/default/lv_theme_default.c ****     lv_style_set_pad_column(&styles->list_btn, PAD_SMALL);
 537:lvgl/src/extra/themes/default/lv_theme_default.c **** 
 538:lvgl/src/extra/themes/default/lv_theme_default.c ****     style_init_reset(&styles->list_item_grow);
 539:lvgl/src/extra/themes/default/lv_theme_default.c ****     lv_style_set_transform_width(&styles->list_item_grow, PAD_DEF);
 540:lvgl/src/extra/themes/default/lv_theme_default.c **** #endif
 541:lvgl/src/extra/themes/default/lv_theme_default.c **** 
 542:lvgl/src/extra/themes/default/lv_theme_default.c **** 
 543:lvgl/src/extra/themes/default/lv_theme_default.c **** #if LV_USE_LED
ARM GAS  /var/folders/k2/cd9bl_j17z77g23y6ffqb_400000gn/T//ccRoPncs.s 			page 11


 544:lvgl/src/extra/themes/default/lv_theme_default.c ****     style_init_reset(&styles->led);
 545:lvgl/src/extra/themes/default/lv_theme_default.c ****     lv_style_set_bg_opa(&styles->led, LV_OPA_COVER);
 546:lvgl/src/extra/themes/default/lv_theme_default.c ****     lv_style_set_bg_color(&styles->led, lv_color_white());
 547:lvgl/src/extra/themes/default/lv_theme_default.c ****     lv_style_set_bg_grad_color(&styles->led, lv_palette_main(LV_PALETTE_GREY));
 548:lvgl/src/extra/themes/default/lv_theme_default.c ****     lv_style_set_radius(&styles->led, LV_RADIUS_CIRCLE);
 549:lvgl/src/extra/themes/default/lv_theme_default.c ****     lv_style_set_shadow_width(&styles->led, lv_disp_dpx(theme.disp, 15));
 550:lvgl/src/extra/themes/default/lv_theme_default.c ****     lv_style_set_shadow_color(&styles->led, lv_color_white());
 551:lvgl/src/extra/themes/default/lv_theme_default.c ****     lv_style_set_shadow_spread(&styles->led, lv_disp_dpx(theme.disp, 5));
 552:lvgl/src/extra/themes/default/lv_theme_default.c **** #endif
 553:lvgl/src/extra/themes/default/lv_theme_default.c **** }
 554:lvgl/src/extra/themes/default/lv_theme_default.c **** 
 555:lvgl/src/extra/themes/default/lv_theme_default.c **** /**********************
 556:lvgl/src/extra/themes/default/lv_theme_default.c ****  *   GLOBAL FUNCTIONS
 557:lvgl/src/extra/themes/default/lv_theme_default.c ****  **********************/
 558:lvgl/src/extra/themes/default/lv_theme_default.c **** 
 559:lvgl/src/extra/themes/default/lv_theme_default.c **** lv_theme_t * lv_theme_default_init(lv_disp_t * disp, lv_color_t color_primary, lv_color_t color_sec
 560:lvgl/src/extra/themes/default/lv_theme_default.c **** {
 561:lvgl/src/extra/themes/default/lv_theme_default.c **** 
 562:lvgl/src/extra/themes/default/lv_theme_default.c ****     /*This trick is required only to avoid the garbage collection of
 563:lvgl/src/extra/themes/default/lv_theme_default.c ****      *styles' data if LVGL is used in a binding (e.g. Micropython)
 564:lvgl/src/extra/themes/default/lv_theme_default.c ****      *In a general case styles could be in simple `static lv_style_t my_style...` variables*/
 565:lvgl/src/extra/themes/default/lv_theme_default.c ****     if(!inited) {
 566:lvgl/src/extra/themes/default/lv_theme_default.c ****         LV_GC_ROOT(_lv_theme_default_styles) = lv_mem_alloc(sizeof(my_theme_styles_t));
 567:lvgl/src/extra/themes/default/lv_theme_default.c ****         styles = (my_theme_styles_t *)LV_GC_ROOT(_lv_theme_default_styles);
 568:lvgl/src/extra/themes/default/lv_theme_default.c ****     }
 569:lvgl/src/extra/themes/default/lv_theme_default.c **** 
 570:lvgl/src/extra/themes/default/lv_theme_default.c ****     if(LV_HOR_RES <= 320) disp_size = DISP_SMALL;
 571:lvgl/src/extra/themes/default/lv_theme_default.c ****     else if(LV_HOR_RES < 720) disp_size = DISP_MEDIUM;
 572:lvgl/src/extra/themes/default/lv_theme_default.c ****     else disp_size = DISP_LARGE;
 573:lvgl/src/extra/themes/default/lv_theme_default.c **** 
 574:lvgl/src/extra/themes/default/lv_theme_default.c ****     theme.disp = disp;
 575:lvgl/src/extra/themes/default/lv_theme_default.c ****     theme.color_primary = color_primary;
 576:lvgl/src/extra/themes/default/lv_theme_default.c ****     theme.color_secondary = color_secondary;
 577:lvgl/src/extra/themes/default/lv_theme_default.c ****     theme.font_small = font;
 578:lvgl/src/extra/themes/default/lv_theme_default.c ****     theme.font_normal = font;
 579:lvgl/src/extra/themes/default/lv_theme_default.c ****     theme.font_large = font;
 580:lvgl/src/extra/themes/default/lv_theme_default.c ****     theme.apply_cb = theme_apply;
 581:lvgl/src/extra/themes/default/lv_theme_default.c ****     theme.flags = dark ? MODE_DARK : 0;
 582:lvgl/src/extra/themes/default/lv_theme_default.c **** 
 583:lvgl/src/extra/themes/default/lv_theme_default.c ****     style_init();
 584:lvgl/src/extra/themes/default/lv_theme_default.c **** 
 585:lvgl/src/extra/themes/default/lv_theme_default.c ****     inited = true;
 586:lvgl/src/extra/themes/default/lv_theme_default.c **** 
 587:lvgl/src/extra/themes/default/lv_theme_default.c ****     if(disp == NULL || lv_disp_get_theme(disp) == &theme) lv_obj_report_style_change(NULL);
 588:lvgl/src/extra/themes/default/lv_theme_default.c **** 
 589:lvgl/src/extra/themes/default/lv_theme_default.c ****     return (lv_theme_t *)&theme;
 590:lvgl/src/extra/themes/default/lv_theme_default.c **** }
 591:lvgl/src/extra/themes/default/lv_theme_default.c **** 
 592:lvgl/src/extra/themes/default/lv_theme_default.c **** bool lv_theme_default_is_inited(void)
 593:lvgl/src/extra/themes/default/lv_theme_default.c **** {
 594:lvgl/src/extra/themes/default/lv_theme_default.c ****     return inited;
 595:lvgl/src/extra/themes/default/lv_theme_default.c **** }
 596:lvgl/src/extra/themes/default/lv_theme_default.c **** 
 597:lvgl/src/extra/themes/default/lv_theme_default.c **** 
 598:lvgl/src/extra/themes/default/lv_theme_default.c **** static void theme_apply(lv_theme_t * th, lv_obj_t * obj)
 599:lvgl/src/extra/themes/default/lv_theme_default.c **** {
  29              		.loc 1 599 1 view -0
ARM GAS  /var/folders/k2/cd9bl_j17z77g23y6ffqb_400000gn/T//ccRoPncs.s 			page 12


  30              		.cfi_startproc
  31              		@ args = 0, pretend = 0, frame = 0
  32              		@ frame_needed = 0, uses_anonymous_args = 0
  33              		.loc 1 599 1 is_stmt 0 view .LVU1
  34 0000 70B5     		push	{r4, r5, r6, lr}
  35              	.LCFI0:
  36              		.cfi_def_cfa_offset 16
  37              		.cfi_offset 4, -16
  38              		.cfi_offset 5, -12
  39              		.cfi_offset 6, -8
  40              		.cfi_offset 14, -4
  41 0002 0C46     		mov	r4, r1
 600:lvgl/src/extra/themes/default/lv_theme_default.c ****     LV_UNUSED(th);
  42              		.loc 1 600 5 is_stmt 1 view .LVU2
 601:lvgl/src/extra/themes/default/lv_theme_default.c **** 
 602:lvgl/src/extra/themes/default/lv_theme_default.c ****     if(lv_obj_get_parent(obj) == NULL) {
  43              		.loc 1 602 5 view .LVU3
  44              		.loc 1 602 8 is_stmt 0 view .LVU4
  45 0004 0846     		mov	r0, r1
  46              	.LVL1:
  47              		.loc 1 602 8 view .LVU5
  48 0006 FFF7FEFF 		bl	lv_obj_get_parent
  49              	.LVL2:
  50              		.loc 1 602 7 view .LVU6
  51 000a 78B1     		cbz	r0, .L42
 603:lvgl/src/extra/themes/default/lv_theme_default.c ****         lv_obj_add_style(obj, &styles->scr, 0);
 604:lvgl/src/extra/themes/default/lv_theme_default.c ****         lv_obj_add_style(obj, &styles->scrollbar, LV_PART_SCROLLBAR);
 605:lvgl/src/extra/themes/default/lv_theme_default.c ****         lv_obj_add_style(obj, &styles->scrollbar_scrolled, LV_PART_SCROLLBAR | LV_STATE_SCROLLED);
 606:lvgl/src/extra/themes/default/lv_theme_default.c ****         return;
 607:lvgl/src/extra/themes/default/lv_theme_default.c ****     }
 608:lvgl/src/extra/themes/default/lv_theme_default.c **** 
 609:lvgl/src/extra/themes/default/lv_theme_default.c ****     if(lv_obj_check_type(obj, &lv_obj_class)) {
  52              		.loc 1 609 5 is_stmt 1 view .LVU7
  53              		.loc 1 609 8 is_stmt 0 view .LVU8
  54 000c AD49     		ldr	r1, .L53
  55 000e 2046     		mov	r0, r4
  56 0010 FFF7FEFF 		bl	lv_obj_check_type
  57              	.LVL3:
  58              		.loc 1 609 7 view .LVU9
  59 0014 0028     		cmp	r0, #0
  60 0016 00F08E80 		beq	.L4
  61              	.LBB52:
 610:lvgl/src/extra/themes/default/lv_theme_default.c **** #if LV_USE_TABVIEW
 611:lvgl/src/extra/themes/default/lv_theme_default.c ****         lv_obj_t * parent = lv_obj_get_parent(obj);
  62              		.loc 1 611 9 is_stmt 1 view .LVU10
  63              		.loc 1 611 29 is_stmt 0 view .LVU11
  64 001a 2046     		mov	r0, r4
  65 001c FFF7FEFF 		bl	lv_obj_get_parent
  66              	.LVL4:
  67 0020 0546     		mov	r5, r0
  68              	.LVL5:
 612:lvgl/src/extra/themes/default/lv_theme_default.c ****         /*Tabview content area*/
 613:lvgl/src/extra/themes/default/lv_theme_default.c ****         if(lv_obj_check_type(parent, &lv_tabview_class)) {
  69              		.loc 1 613 9 is_stmt 1 view .LVU12
  70              		.loc 1 613 12 is_stmt 0 view .LVU13
  71 0022 A949     		ldr	r1, .L53+4
  72 0024 FFF7FEFF 		bl	lv_obj_check_type
ARM GAS  /var/folders/k2/cd9bl_j17z77g23y6ffqb_400000gn/T//ccRoPncs.s 			page 13


  73              	.LVL6:
  74              		.loc 1 613 11 view .LVU14
  75 0028 A0B1     		cbz	r0, .L43
  76              	.LVL7:
  77              	.L1:
  78              		.loc 1 613 11 view .LVU15
  79              	.LBE52:
 614:lvgl/src/extra/themes/default/lv_theme_default.c ****             return;
 615:lvgl/src/extra/themes/default/lv_theme_default.c ****         }
 616:lvgl/src/extra/themes/default/lv_theme_default.c ****         /*Tabview pages*/
 617:lvgl/src/extra/themes/default/lv_theme_default.c ****         else if(lv_obj_check_type(lv_obj_get_parent(parent), &lv_tabview_class)) {
 618:lvgl/src/extra/themes/default/lv_theme_default.c ****             lv_obj_add_style(obj, &styles->pad_normal, 0);
 619:lvgl/src/extra/themes/default/lv_theme_default.c ****             lv_obj_add_style(obj, &styles->scrollbar, LV_PART_SCROLLBAR);
 620:lvgl/src/extra/themes/default/lv_theme_default.c ****             lv_obj_add_style(obj, &styles->scrollbar_scrolled, LV_PART_SCROLLBAR | LV_STATE_SCROLLE
 621:lvgl/src/extra/themes/default/lv_theme_default.c ****             return;
 622:lvgl/src/extra/themes/default/lv_theme_default.c ****         }
 623:lvgl/src/extra/themes/default/lv_theme_default.c **** #endif
 624:lvgl/src/extra/themes/default/lv_theme_default.c **** 
 625:lvgl/src/extra/themes/default/lv_theme_default.c **** #if LV_USE_WIN
 626:lvgl/src/extra/themes/default/lv_theme_default.c ****         /*Header*/
 627:lvgl/src/extra/themes/default/lv_theme_default.c ****         if(lv_obj_get_child_id(obj) == 0 && lv_obj_check_type(lv_obj_get_parent(obj), &lv_win_class
 628:lvgl/src/extra/themes/default/lv_theme_default.c ****             lv_obj_add_style(obj, &styles->bg_color_grey, 0);
 629:lvgl/src/extra/themes/default/lv_theme_default.c ****             lv_obj_add_style(obj, &styles->pad_tiny, 0);
 630:lvgl/src/extra/themes/default/lv_theme_default.c ****             return;
 631:lvgl/src/extra/themes/default/lv_theme_default.c ****         }
 632:lvgl/src/extra/themes/default/lv_theme_default.c ****         /*Content*/
 633:lvgl/src/extra/themes/default/lv_theme_default.c ****         else if(lv_obj_get_child_id(obj) == 1 && lv_obj_check_type(lv_obj_get_parent(obj), &lv_win_
 634:lvgl/src/extra/themes/default/lv_theme_default.c ****             lv_obj_add_style(obj, &styles->scr, 0);
 635:lvgl/src/extra/themes/default/lv_theme_default.c ****             lv_obj_add_style(obj, &styles->pad_normal, 0);
 636:lvgl/src/extra/themes/default/lv_theme_default.c ****             lv_obj_add_style(obj, &styles->scrollbar, LV_PART_SCROLLBAR);
 637:lvgl/src/extra/themes/default/lv_theme_default.c ****             lv_obj_add_style(obj, &styles->scrollbar_scrolled, LV_PART_SCROLLBAR | LV_STATE_SCROLLE
 638:lvgl/src/extra/themes/default/lv_theme_default.c ****             return;
 639:lvgl/src/extra/themes/default/lv_theme_default.c ****         }
 640:lvgl/src/extra/themes/default/lv_theme_default.c **** #endif
 641:lvgl/src/extra/themes/default/lv_theme_default.c ****         lv_obj_add_style(obj, &styles->card, 0);
 642:lvgl/src/extra/themes/default/lv_theme_default.c ****         lv_obj_add_style(obj, &styles->scrollbar, LV_PART_SCROLLBAR);
 643:lvgl/src/extra/themes/default/lv_theme_default.c ****         lv_obj_add_style(obj, &styles->scrollbar_scrolled, LV_PART_SCROLLBAR | LV_STATE_SCROLLED);
 644:lvgl/src/extra/themes/default/lv_theme_default.c ****     }
 645:lvgl/src/extra/themes/default/lv_theme_default.c ****     #if LV_USE_BTN
 646:lvgl/src/extra/themes/default/lv_theme_default.c ****     else if(lv_obj_check_type(obj, &lv_btn_class)) {
 647:lvgl/src/extra/themes/default/lv_theme_default.c ****         lv_obj_add_style(obj, &styles->btn, 0);
 648:lvgl/src/extra/themes/default/lv_theme_default.c ****         lv_obj_add_style(obj, &styles->bg_color_primary, 0);
 649:lvgl/src/extra/themes/default/lv_theme_default.c ****         lv_obj_add_style(obj, &styles->transition_delayed, 0);
 650:lvgl/src/extra/themes/default/lv_theme_default.c ****         lv_obj_add_style(obj, &styles->pressed, LV_STATE_PRESSED);
 651:lvgl/src/extra/themes/default/lv_theme_default.c ****         lv_obj_add_style(obj, &styles->transition_normal, LV_STATE_PRESSED);
 652:lvgl/src/extra/themes/default/lv_theme_default.c ****         lv_obj_add_style(obj, &styles->outline_primary, LV_STATE_FOCUS_KEY);
 653:lvgl/src/extra/themes/default/lv_theme_default.c **** #if LV_THEME_DEFAULT_GROW
 654:lvgl/src/extra/themes/default/lv_theme_default.c ****         lv_obj_add_style(obj, &styles->grow, LV_STATE_PRESSED);
 655:lvgl/src/extra/themes/default/lv_theme_default.c **** #endif
 656:lvgl/src/extra/themes/default/lv_theme_default.c ****         lv_obj_add_style(obj, &styles->bg_color_secondary, LV_STATE_CHECKED);
 657:lvgl/src/extra/themes/default/lv_theme_default.c ****         lv_obj_add_style(obj, &styles->disabled, LV_STATE_DISABLED);
 658:lvgl/src/extra/themes/default/lv_theme_default.c ****     }
 659:lvgl/src/extra/themes/default/lv_theme_default.c **** #endif
 660:lvgl/src/extra/themes/default/lv_theme_default.c **** 
 661:lvgl/src/extra/themes/default/lv_theme_default.c **** #if LV_USE_LINE
 662:lvgl/src/extra/themes/default/lv_theme_default.c ****     else if(lv_obj_check_type(obj, &lv_line_class)) {
 663:lvgl/src/extra/themes/default/lv_theme_default.c ****         lv_obj_add_style(obj, &styles->line, 0);
ARM GAS  /var/folders/k2/cd9bl_j17z77g23y6ffqb_400000gn/T//ccRoPncs.s 			page 14


 664:lvgl/src/extra/themes/default/lv_theme_default.c ****     }
 665:lvgl/src/extra/themes/default/lv_theme_default.c **** #endif
 666:lvgl/src/extra/themes/default/lv_theme_default.c **** 
 667:lvgl/src/extra/themes/default/lv_theme_default.c **** #if LV_USE_BTNMATRIX
 668:lvgl/src/extra/themes/default/lv_theme_default.c ****     else if(lv_obj_check_type(obj, &lv_btnmatrix_class)) {
 669:lvgl/src/extra/themes/default/lv_theme_default.c **** #if LV_USE_MSGBOX
 670:lvgl/src/extra/themes/default/lv_theme_default.c ****         if(lv_obj_check_type(lv_obj_get_parent(obj), &lv_msgbox_class)) {
 671:lvgl/src/extra/themes/default/lv_theme_default.c ****             lv_obj_add_style(obj, &styles->msgbox_btn_bg, 0);
 672:lvgl/src/extra/themes/default/lv_theme_default.c ****             lv_obj_add_style(obj, &styles->pad_gap, 0);
 673:lvgl/src/extra/themes/default/lv_theme_default.c ****             lv_obj_add_style(obj, &styles->btn, LV_PART_ITEMS);
 674:lvgl/src/extra/themes/default/lv_theme_default.c ****             lv_obj_add_style(obj, &styles->pressed, LV_PART_ITEMS | LV_STATE_PRESSED);
 675:lvgl/src/extra/themes/default/lv_theme_default.c ****             lv_obj_add_style(obj, &styles->disabled, LV_PART_ITEMS | LV_STATE_DISABLED);
 676:lvgl/src/extra/themes/default/lv_theme_default.c ****             lv_obj_add_style(obj, &styles->bg_color_primary, LV_PART_ITEMS | LV_STATE_CHECKED);
 677:lvgl/src/extra/themes/default/lv_theme_default.c ****             lv_obj_add_style(obj, &styles->bg_color_primary_muted, LV_PART_ITEMS | LV_STATE_FOCUS_K
 678:lvgl/src/extra/themes/default/lv_theme_default.c ****             lv_obj_add_style(obj, &styles->bg_color_secondary_muted, LV_PART_ITEMS | LV_STATE_EDITE
 679:lvgl/src/extra/themes/default/lv_theme_default.c ****             return;
 680:lvgl/src/extra/themes/default/lv_theme_default.c ****         }
 681:lvgl/src/extra/themes/default/lv_theme_default.c **** #endif
 682:lvgl/src/extra/themes/default/lv_theme_default.c **** #if LV_USE_TABVIEW
 683:lvgl/src/extra/themes/default/lv_theme_default.c ****         if(lv_obj_check_type(lv_obj_get_parent(obj), &lv_tabview_class)) {
 684:lvgl/src/extra/themes/default/lv_theme_default.c ****             lv_obj_add_style(obj, &styles->bg_color_white, 0);
 685:lvgl/src/extra/themes/default/lv_theme_default.c ****             lv_obj_add_style(obj, &styles->outline_primary, LV_STATE_FOCUS_KEY);
 686:lvgl/src/extra/themes/default/lv_theme_default.c ****             lv_obj_add_style(obj, &styles->tab_bg_focus, LV_STATE_FOCUS_KEY);
 687:lvgl/src/extra/themes/default/lv_theme_default.c ****             lv_obj_add_style(obj, &styles->pressed, LV_PART_ITEMS | LV_STATE_PRESSED);
 688:lvgl/src/extra/themes/default/lv_theme_default.c ****             lv_obj_add_style(obj, &styles->bg_color_primary_muted, LV_PART_ITEMS | LV_STATE_CHECKED
 689:lvgl/src/extra/themes/default/lv_theme_default.c ****             lv_obj_add_style(obj, &styles->tab_btn, LV_PART_ITEMS | LV_STATE_CHECKED);
 690:lvgl/src/extra/themes/default/lv_theme_default.c ****             lv_obj_add_style(obj, &styles->outline_primary, LV_PART_ITEMS | LV_STATE_FOCUS_KEY);
 691:lvgl/src/extra/themes/default/lv_theme_default.c ****             lv_obj_add_style(obj, &styles->outline_secondary, LV_PART_ITEMS | LV_STATE_EDITED);
 692:lvgl/src/extra/themes/default/lv_theme_default.c ****             lv_obj_add_style(obj, &styles->tab_bg_focus, LV_PART_ITEMS | LV_STATE_FOCUS_KEY);
 693:lvgl/src/extra/themes/default/lv_theme_default.c ****             return;
 694:lvgl/src/extra/themes/default/lv_theme_default.c ****         }
 695:lvgl/src/extra/themes/default/lv_theme_default.c **** #endif
 696:lvgl/src/extra/themes/default/lv_theme_default.c ****         lv_obj_add_style(obj, &styles->card, 0);
 697:lvgl/src/extra/themes/default/lv_theme_default.c ****         lv_obj_add_style(obj, &styles->outline_primary, LV_STATE_FOCUS_KEY);
 698:lvgl/src/extra/themes/default/lv_theme_default.c ****         lv_obj_add_style(obj, &styles->outline_secondary, LV_STATE_EDITED);
 699:lvgl/src/extra/themes/default/lv_theme_default.c ****         lv_obj_add_style(obj, &styles->btn, LV_PART_ITEMS);
 700:lvgl/src/extra/themes/default/lv_theme_default.c ****         lv_obj_add_style(obj, &styles->disabled, LV_PART_ITEMS | LV_STATE_DISABLED);
 701:lvgl/src/extra/themes/default/lv_theme_default.c ****         lv_obj_add_style(obj, &styles->pressed, LV_PART_ITEMS | LV_STATE_PRESSED);
 702:lvgl/src/extra/themes/default/lv_theme_default.c ****         lv_obj_add_style(obj, &styles->bg_color_primary, LV_PART_ITEMS | LV_STATE_CHECKED);
 703:lvgl/src/extra/themes/default/lv_theme_default.c ****         lv_obj_add_style(obj, &styles->outline_primary, LV_PART_ITEMS | LV_STATE_FOCUS_KEY);
 704:lvgl/src/extra/themes/default/lv_theme_default.c ****         lv_obj_add_style(obj, &styles->outline_secondary, LV_PART_ITEMS | LV_STATE_EDITED);
 705:lvgl/src/extra/themes/default/lv_theme_default.c ****     }
 706:lvgl/src/extra/themes/default/lv_theme_default.c **** #endif
 707:lvgl/src/extra/themes/default/lv_theme_default.c **** 
 708:lvgl/src/extra/themes/default/lv_theme_default.c **** #if LV_USE_BAR
 709:lvgl/src/extra/themes/default/lv_theme_default.c ****     else if(lv_obj_check_type(obj, &lv_bar_class)) {
 710:lvgl/src/extra/themes/default/lv_theme_default.c ****         lv_obj_add_style(obj, &styles->bg_color_primary_muted, 0);
 711:lvgl/src/extra/themes/default/lv_theme_default.c ****         lv_obj_add_style(obj, &styles->circle, 0);
 712:lvgl/src/extra/themes/default/lv_theme_default.c ****         lv_obj_add_style(obj, &styles->outline_primary, LV_STATE_FOCUS_KEY);
 713:lvgl/src/extra/themes/default/lv_theme_default.c ****         lv_obj_add_style(obj, &styles->outline_secondary, LV_STATE_EDITED);
 714:lvgl/src/extra/themes/default/lv_theme_default.c ****         lv_obj_add_style(obj, &styles->bg_color_primary, LV_PART_INDICATOR);
 715:lvgl/src/extra/themes/default/lv_theme_default.c ****         lv_obj_add_style(obj, &styles->circle, LV_PART_INDICATOR);
 716:lvgl/src/extra/themes/default/lv_theme_default.c ****     }
 717:lvgl/src/extra/themes/default/lv_theme_default.c **** #endif
 718:lvgl/src/extra/themes/default/lv_theme_default.c **** 
 719:lvgl/src/extra/themes/default/lv_theme_default.c **** #if LV_USE_SLIDER
 720:lvgl/src/extra/themes/default/lv_theme_default.c ****     else if(lv_obj_check_type(obj, &lv_slider_class)) {
ARM GAS  /var/folders/k2/cd9bl_j17z77g23y6ffqb_400000gn/T//ccRoPncs.s 			page 15


 721:lvgl/src/extra/themes/default/lv_theme_default.c ****         lv_obj_add_style(obj, &styles->bg_color_primary_muted, 0);
 722:lvgl/src/extra/themes/default/lv_theme_default.c ****         lv_obj_add_style(obj, &styles->circle, 0);
 723:lvgl/src/extra/themes/default/lv_theme_default.c ****         lv_obj_add_style(obj, &styles->outline_primary, LV_STATE_FOCUS_KEY);
 724:lvgl/src/extra/themes/default/lv_theme_default.c ****         lv_obj_add_style(obj, &styles->outline_secondary, LV_STATE_EDITED);
 725:lvgl/src/extra/themes/default/lv_theme_default.c ****         lv_obj_add_style(obj, &styles->bg_color_primary, LV_PART_INDICATOR);
 726:lvgl/src/extra/themes/default/lv_theme_default.c ****         lv_obj_add_style(obj, &styles->circle, LV_PART_INDICATOR);
 727:lvgl/src/extra/themes/default/lv_theme_default.c ****         lv_obj_add_style(obj, &styles->knob, LV_PART_KNOB);
 728:lvgl/src/extra/themes/default/lv_theme_default.c **** #if LV_THEME_DEFAULT_GROW
 729:lvgl/src/extra/themes/default/lv_theme_default.c ****         lv_obj_add_style(obj, &styles->grow, LV_PART_KNOB | LV_STATE_PRESSED);
 730:lvgl/src/extra/themes/default/lv_theme_default.c **** #endif
 731:lvgl/src/extra/themes/default/lv_theme_default.c ****         lv_obj_add_style(obj, &styles->transition_delayed, LV_PART_KNOB);
 732:lvgl/src/extra/themes/default/lv_theme_default.c ****         lv_obj_add_style(obj, &styles->transition_normal, LV_PART_KNOB | LV_STATE_PRESSED);
 733:lvgl/src/extra/themes/default/lv_theme_default.c ****     }
 734:lvgl/src/extra/themes/default/lv_theme_default.c **** #endif
 735:lvgl/src/extra/themes/default/lv_theme_default.c **** 
 736:lvgl/src/extra/themes/default/lv_theme_default.c **** #if LV_USE_TABLE
 737:lvgl/src/extra/themes/default/lv_theme_default.c ****     else if(lv_obj_check_type(obj, &lv_table_class)) {
 738:lvgl/src/extra/themes/default/lv_theme_default.c ****         lv_obj_add_style(obj, &styles->card, 0);
 739:lvgl/src/extra/themes/default/lv_theme_default.c ****         lv_obj_add_style(obj, &styles->pad_zero, 0);
 740:lvgl/src/extra/themes/default/lv_theme_default.c ****         lv_obj_add_style(obj, &styles->no_radius, 0);
 741:lvgl/src/extra/themes/default/lv_theme_default.c ****         lv_obj_add_style(obj, &styles->outline_primary, LV_STATE_FOCUS_KEY);
 742:lvgl/src/extra/themes/default/lv_theme_default.c ****         lv_obj_add_style(obj, &styles->outline_secondary, LV_STATE_EDITED);
 743:lvgl/src/extra/themes/default/lv_theme_default.c ****         lv_obj_add_style(obj, &styles->scrollbar, LV_PART_SCROLLBAR);
 744:lvgl/src/extra/themes/default/lv_theme_default.c ****         lv_obj_add_style(obj, &styles->scrollbar_scrolled, LV_PART_SCROLLBAR | LV_STATE_SCROLLED);
 745:lvgl/src/extra/themes/default/lv_theme_default.c ****         lv_obj_add_style(obj, &styles->bg_color_white, LV_PART_ITEMS);
 746:lvgl/src/extra/themes/default/lv_theme_default.c ****         lv_obj_add_style(obj, &styles->table_cell, LV_PART_ITEMS);
 747:lvgl/src/extra/themes/default/lv_theme_default.c ****         lv_obj_add_style(obj, &styles->pad_normal, LV_PART_ITEMS);
 748:lvgl/src/extra/themes/default/lv_theme_default.c ****         lv_obj_add_style(obj, &styles->pressed, LV_PART_ITEMS | LV_STATE_PRESSED);
 749:lvgl/src/extra/themes/default/lv_theme_default.c ****         lv_obj_add_style(obj, &styles->bg_color_primary, LV_PART_ITEMS | LV_STATE_FOCUS_KEY);
 750:lvgl/src/extra/themes/default/lv_theme_default.c ****         lv_obj_add_style(obj, &styles->bg_color_secondary, LV_PART_ITEMS | LV_STATE_EDITED);
 751:lvgl/src/extra/themes/default/lv_theme_default.c ****     }
 752:lvgl/src/extra/themes/default/lv_theme_default.c **** #endif
 753:lvgl/src/extra/themes/default/lv_theme_default.c **** 
 754:lvgl/src/extra/themes/default/lv_theme_default.c **** #if LV_USE_CHECKBOX
 755:lvgl/src/extra/themes/default/lv_theme_default.c ****     else if(lv_obj_check_type(obj, &lv_checkbox_class)) {
 756:lvgl/src/extra/themes/default/lv_theme_default.c ****         lv_obj_add_style(obj, &styles->pad_gap, 0);
 757:lvgl/src/extra/themes/default/lv_theme_default.c ****         lv_obj_add_style(obj, &styles->outline_primary, LV_STATE_FOCUS_KEY);
 758:lvgl/src/extra/themes/default/lv_theme_default.c ****         lv_obj_add_style(obj, &styles->disabled, LV_PART_INDICATOR | LV_STATE_DISABLED);
 759:lvgl/src/extra/themes/default/lv_theme_default.c ****         lv_obj_add_style(obj, &styles->cb_marker, LV_PART_INDICATOR);
 760:lvgl/src/extra/themes/default/lv_theme_default.c ****         lv_obj_add_style(obj, &styles->bg_color_primary, LV_PART_INDICATOR | LV_STATE_CHECKED);
 761:lvgl/src/extra/themes/default/lv_theme_default.c ****         lv_obj_add_style(obj, &styles->cb_marker_checked, LV_PART_INDICATOR | LV_STATE_CHECKED);
 762:lvgl/src/extra/themes/default/lv_theme_default.c ****         lv_obj_add_style(obj, &styles->pressed, LV_PART_INDICATOR | LV_STATE_PRESSED);
 763:lvgl/src/extra/themes/default/lv_theme_default.c **** #if LV_THEME_DEFAULT_GROW
 764:lvgl/src/extra/themes/default/lv_theme_default.c ****         lv_obj_add_style(obj, &styles->grow, LV_PART_INDICATOR | LV_STATE_PRESSED);
 765:lvgl/src/extra/themes/default/lv_theme_default.c **** #endif
 766:lvgl/src/extra/themes/default/lv_theme_default.c ****         lv_obj_add_style(obj, &styles->transition_normal, LV_PART_INDICATOR | LV_STATE_PRESSED);
 767:lvgl/src/extra/themes/default/lv_theme_default.c ****         lv_obj_add_style(obj, &styles->transition_delayed, LV_PART_INDICATOR);
 768:lvgl/src/extra/themes/default/lv_theme_default.c ****     }
 769:lvgl/src/extra/themes/default/lv_theme_default.c **** #endif
 770:lvgl/src/extra/themes/default/lv_theme_default.c **** 
 771:lvgl/src/extra/themes/default/lv_theme_default.c **** #if LV_USE_SWITCH
 772:lvgl/src/extra/themes/default/lv_theme_default.c ****     else if(lv_obj_check_type(obj, &lv_switch_class)) {
 773:lvgl/src/extra/themes/default/lv_theme_default.c ****         lv_obj_add_style(obj, &styles->bg_color_grey, 0);
 774:lvgl/src/extra/themes/default/lv_theme_default.c ****         lv_obj_add_style(obj, &styles->circle, 0);
 775:lvgl/src/extra/themes/default/lv_theme_default.c ****         lv_obj_add_style(obj, &styles->disabled, LV_STATE_DISABLED);
 776:lvgl/src/extra/themes/default/lv_theme_default.c ****         lv_obj_add_style(obj, &styles->outline_primary, LV_STATE_FOCUS_KEY);
 777:lvgl/src/extra/themes/default/lv_theme_default.c ****         lv_obj_add_style(obj, &styles->bg_color_primary, LV_PART_INDICATOR | LV_STATE_CHECKED);
ARM GAS  /var/folders/k2/cd9bl_j17z77g23y6ffqb_400000gn/T//ccRoPncs.s 			page 16


 778:lvgl/src/extra/themes/default/lv_theme_default.c ****         lv_obj_add_style(obj, &styles->circle, LV_PART_INDICATOR);
 779:lvgl/src/extra/themes/default/lv_theme_default.c ****         lv_obj_add_style(obj, &styles->disabled, LV_PART_INDICATOR | LV_STATE_DISABLED);
 780:lvgl/src/extra/themes/default/lv_theme_default.c ****         lv_obj_add_style(obj, &styles->knob, LV_PART_KNOB);
 781:lvgl/src/extra/themes/default/lv_theme_default.c ****         lv_obj_add_style(obj, &styles->bg_color_white, LV_PART_KNOB);
 782:lvgl/src/extra/themes/default/lv_theme_default.c ****         lv_obj_add_style(obj, &styles->switch_knob, LV_PART_KNOB);
 783:lvgl/src/extra/themes/default/lv_theme_default.c ****         lv_obj_add_style(obj, &styles->disabled, LV_PART_KNOB | LV_STATE_DISABLED);
 784:lvgl/src/extra/themes/default/lv_theme_default.c ****     }
 785:lvgl/src/extra/themes/default/lv_theme_default.c **** #endif
 786:lvgl/src/extra/themes/default/lv_theme_default.c **** 
 787:lvgl/src/extra/themes/default/lv_theme_default.c **** #if LV_USE_CHART
 788:lvgl/src/extra/themes/default/lv_theme_default.c ****     else if(lv_obj_check_type(obj, &lv_chart_class)) {
 789:lvgl/src/extra/themes/default/lv_theme_default.c ****         lv_obj_add_style(obj, &styles->card, 0);
 790:lvgl/src/extra/themes/default/lv_theme_default.c ****         lv_obj_add_style(obj, &styles->pad_small, 0);
 791:lvgl/src/extra/themes/default/lv_theme_default.c ****         lv_obj_add_style(obj, &styles->chart_bg, 0);
 792:lvgl/src/extra/themes/default/lv_theme_default.c ****         lv_obj_add_style(obj, &styles->scrollbar, LV_PART_SCROLLBAR);
 793:lvgl/src/extra/themes/default/lv_theme_default.c ****         lv_obj_add_style(obj, &styles->scrollbar_scrolled, LV_PART_SCROLLBAR | LV_STATE_SCROLLED);
 794:lvgl/src/extra/themes/default/lv_theme_default.c ****         lv_obj_add_style(obj, &styles->chart_series, LV_PART_ITEMS);
 795:lvgl/src/extra/themes/default/lv_theme_default.c ****         lv_obj_add_style(obj, &styles->chart_indic, LV_PART_INDICATOR);
 796:lvgl/src/extra/themes/default/lv_theme_default.c ****         lv_obj_add_style(obj, &styles->chart_ticks, LV_PART_TICKS);
 797:lvgl/src/extra/themes/default/lv_theme_default.c ****         lv_obj_add_style(obj, &styles->chart_series, LV_PART_CURSOR);
 798:lvgl/src/extra/themes/default/lv_theme_default.c ****     }
 799:lvgl/src/extra/themes/default/lv_theme_default.c **** #endif
 800:lvgl/src/extra/themes/default/lv_theme_default.c **** 
 801:lvgl/src/extra/themes/default/lv_theme_default.c **** #if LV_USE_ROLLER
 802:lvgl/src/extra/themes/default/lv_theme_default.c ****     else if(lv_obj_check_type(obj, &lv_roller_class)) {
 803:lvgl/src/extra/themes/default/lv_theme_default.c ****         lv_obj_add_style(obj, &styles->card, 0);
 804:lvgl/src/extra/themes/default/lv_theme_default.c ****         lv_obj_add_style(obj, &styles->anim, 0);
 805:lvgl/src/extra/themes/default/lv_theme_default.c ****         lv_obj_add_style(obj, &styles->line_space_large, 0);
 806:lvgl/src/extra/themes/default/lv_theme_default.c ****         lv_obj_add_style(obj, &styles->text_align_center, 0);
 807:lvgl/src/extra/themes/default/lv_theme_default.c ****         lv_obj_add_style(obj, &styles->outline_primary, LV_STATE_FOCUS_KEY);
 808:lvgl/src/extra/themes/default/lv_theme_default.c ****         lv_obj_add_style(obj, &styles->outline_secondary, LV_STATE_EDITED);
 809:lvgl/src/extra/themes/default/lv_theme_default.c ****         lv_obj_add_style(obj, &styles->bg_color_primary, LV_PART_SELECTED);
 810:lvgl/src/extra/themes/default/lv_theme_default.c ****     }
 811:lvgl/src/extra/themes/default/lv_theme_default.c **** #endif
 812:lvgl/src/extra/themes/default/lv_theme_default.c **** 
 813:lvgl/src/extra/themes/default/lv_theme_default.c **** #if LV_USE_DROPDOWN
 814:lvgl/src/extra/themes/default/lv_theme_default.c ****     else if(lv_obj_check_type(obj, &lv_dropdown_class)) {
 815:lvgl/src/extra/themes/default/lv_theme_default.c ****         lv_obj_add_style(obj, &styles->card, 0);
 816:lvgl/src/extra/themes/default/lv_theme_default.c ****         lv_obj_add_style(obj, &styles->pad_small, 0);
 817:lvgl/src/extra/themes/default/lv_theme_default.c ****         lv_obj_add_style(obj, &styles->transition_delayed, 0);
 818:lvgl/src/extra/themes/default/lv_theme_default.c ****         lv_obj_add_style(obj, &styles->transition_normal, LV_STATE_PRESSED);
 819:lvgl/src/extra/themes/default/lv_theme_default.c ****         lv_obj_add_style(obj, &styles->pressed, LV_STATE_PRESSED);
 820:lvgl/src/extra/themes/default/lv_theme_default.c ****         lv_obj_add_style(obj, &styles->outline_primary, LV_STATE_FOCUS_KEY);
 821:lvgl/src/extra/themes/default/lv_theme_default.c ****         lv_obj_add_style(obj, &styles->outline_secondary, LV_STATE_EDITED);
 822:lvgl/src/extra/themes/default/lv_theme_default.c ****         lv_obj_add_style(obj, &styles->transition_normal, LV_PART_INDICATOR);
 823:lvgl/src/extra/themes/default/lv_theme_default.c ****     }
 824:lvgl/src/extra/themes/default/lv_theme_default.c ****     else if(lv_obj_check_type(obj, &lv_dropdownlist_class)) {
 825:lvgl/src/extra/themes/default/lv_theme_default.c ****         lv_obj_add_style(obj, &styles->card, 0);
 826:lvgl/src/extra/themes/default/lv_theme_default.c ****         lv_obj_add_style(obj, &styles->clip_corner, 0);
 827:lvgl/src/extra/themes/default/lv_theme_default.c ****         lv_obj_add_style(obj, &styles->line_space_large, 0);
 828:lvgl/src/extra/themes/default/lv_theme_default.c ****         lv_obj_add_style(obj, &styles->dropdown_list, 0);
 829:lvgl/src/extra/themes/default/lv_theme_default.c ****         lv_obj_add_style(obj, &styles->scrollbar, LV_PART_SCROLLBAR);
 830:lvgl/src/extra/themes/default/lv_theme_default.c ****         lv_obj_add_style(obj, &styles->scrollbar_scrolled, LV_PART_SCROLLBAR | LV_STATE_SCROLLED);
 831:lvgl/src/extra/themes/default/lv_theme_default.c ****         lv_obj_add_style(obj, &styles->bg_color_white, LV_PART_SELECTED);
 832:lvgl/src/extra/themes/default/lv_theme_default.c ****         lv_obj_add_style(obj, &styles->bg_color_primary, LV_PART_SELECTED | LV_STATE_CHECKED);
 833:lvgl/src/extra/themes/default/lv_theme_default.c ****         lv_obj_add_style(obj, &styles->pressed, LV_PART_SELECTED | LV_STATE_PRESSED);
 834:lvgl/src/extra/themes/default/lv_theme_default.c ****     }
ARM GAS  /var/folders/k2/cd9bl_j17z77g23y6ffqb_400000gn/T//ccRoPncs.s 			page 17


 835:lvgl/src/extra/themes/default/lv_theme_default.c **** #endif
 836:lvgl/src/extra/themes/default/lv_theme_default.c **** 
 837:lvgl/src/extra/themes/default/lv_theme_default.c **** #if LV_USE_ARC
 838:lvgl/src/extra/themes/default/lv_theme_default.c ****     else if(lv_obj_check_type(obj, &lv_arc_class)) {
 839:lvgl/src/extra/themes/default/lv_theme_default.c ****         lv_obj_add_style(obj, &styles->arc_indic, 0);
 840:lvgl/src/extra/themes/default/lv_theme_default.c ****         lv_obj_add_style(obj, &styles->arc_indic, LV_PART_INDICATOR);
 841:lvgl/src/extra/themes/default/lv_theme_default.c ****         lv_obj_add_style(obj, &styles->arc_indic_primary, LV_PART_INDICATOR);
 842:lvgl/src/extra/themes/default/lv_theme_default.c ****         lv_obj_add_style(obj, &styles->knob, LV_PART_KNOB);
 843:lvgl/src/extra/themes/default/lv_theme_default.c ****     }
 844:lvgl/src/extra/themes/default/lv_theme_default.c **** #endif
 845:lvgl/src/extra/themes/default/lv_theme_default.c **** 
 846:lvgl/src/extra/themes/default/lv_theme_default.c **** 
 847:lvgl/src/extra/themes/default/lv_theme_default.c **** #if LV_USE_SPINNER
 848:lvgl/src/extra/themes/default/lv_theme_default.c ****     else if(lv_obj_check_type(obj, &lv_spinner_class)) {
 849:lvgl/src/extra/themes/default/lv_theme_default.c ****         lv_obj_add_style(obj, &styles->arc_indic, 0);
 850:lvgl/src/extra/themes/default/lv_theme_default.c ****         lv_obj_add_style(obj, &styles->arc_indic, LV_PART_INDICATOR);
 851:lvgl/src/extra/themes/default/lv_theme_default.c ****         lv_obj_add_style(obj, &styles->arc_indic_primary, LV_PART_INDICATOR);
 852:lvgl/src/extra/themes/default/lv_theme_default.c ****     }
 853:lvgl/src/extra/themes/default/lv_theme_default.c **** #endif
 854:lvgl/src/extra/themes/default/lv_theme_default.c **** 
 855:lvgl/src/extra/themes/default/lv_theme_default.c **** #if LV_USE_METER
 856:lvgl/src/extra/themes/default/lv_theme_default.c ****     else if(lv_obj_check_type(obj, &lv_meter_class)) {
 857:lvgl/src/extra/themes/default/lv_theme_default.c ****         lv_obj_add_style(obj, &styles->card, 0);
 858:lvgl/src/extra/themes/default/lv_theme_default.c ****         lv_obj_add_style(obj, &styles->circle, 0);
 859:lvgl/src/extra/themes/default/lv_theme_default.c ****         lv_obj_add_style(obj, &styles->meter_indic, LV_PART_INDICATOR);
 860:lvgl/src/extra/themes/default/lv_theme_default.c ****     }
 861:lvgl/src/extra/themes/default/lv_theme_default.c **** #endif
 862:lvgl/src/extra/themes/default/lv_theme_default.c **** 
 863:lvgl/src/extra/themes/default/lv_theme_default.c **** #if LV_USE_TEXTAREA
 864:lvgl/src/extra/themes/default/lv_theme_default.c ****     else if(lv_obj_check_type(obj, &lv_textarea_class)) {
 865:lvgl/src/extra/themes/default/lv_theme_default.c ****         lv_obj_add_style(obj, &styles->card, 0);
 866:lvgl/src/extra/themes/default/lv_theme_default.c ****         lv_obj_add_style(obj, &styles->pad_small, 0);
 867:lvgl/src/extra/themes/default/lv_theme_default.c ****         lv_obj_add_style(obj, &styles->outline_primary, LV_STATE_FOCUS_KEY);
 868:lvgl/src/extra/themes/default/lv_theme_default.c ****         lv_obj_add_style(obj, &styles->outline_secondary, LV_STATE_EDITED);
 869:lvgl/src/extra/themes/default/lv_theme_default.c ****         lv_obj_add_style(obj, &styles->scrollbar, LV_PART_SCROLLBAR);
 870:lvgl/src/extra/themes/default/lv_theme_default.c ****         lv_obj_add_style(obj, &styles->scrollbar_scrolled, LV_PART_SCROLLBAR | LV_STATE_SCROLLED);
 871:lvgl/src/extra/themes/default/lv_theme_default.c ****         lv_obj_add_style(obj, &styles->ta_cursor, LV_PART_CURSOR | LV_STATE_FOCUSED);
 872:lvgl/src/extra/themes/default/lv_theme_default.c ****         lv_obj_add_style(obj, &styles->ta_placeholder, LV_PART_TEXTAREA_PLACEHOLDER);
 873:lvgl/src/extra/themes/default/lv_theme_default.c ****     }
 874:lvgl/src/extra/themes/default/lv_theme_default.c **** #endif
 875:lvgl/src/extra/themes/default/lv_theme_default.c **** 
 876:lvgl/src/extra/themes/default/lv_theme_default.c **** #if LV_USE_CALENDAR
 877:lvgl/src/extra/themes/default/lv_theme_default.c ****     else if(lv_obj_check_type(obj, &lv_calendar_class)) {
 878:lvgl/src/extra/themes/default/lv_theme_default.c ****         lv_obj_add_style(obj, &styles->card, 0);
 879:lvgl/src/extra/themes/default/lv_theme_default.c ****         lv_obj_add_style(obj, &styles->calendar_bg, 0);
 880:lvgl/src/extra/themes/default/lv_theme_default.c ****         lv_obj_add_style(obj, &styles->outline_primary, LV_STATE_FOCUS_KEY);
 881:lvgl/src/extra/themes/default/lv_theme_default.c ****         lv_obj_add_style(obj, &styles->outline_secondary, LV_STATE_EDITED);
 882:lvgl/src/extra/themes/default/lv_theme_default.c ****         lv_obj_add_style(obj, &styles->calendar_day, LV_PART_ITEMS);
 883:lvgl/src/extra/themes/default/lv_theme_default.c ****         lv_obj_add_style(obj, &styles->pressed, LV_PART_ITEMS | LV_STATE_PRESSED);
 884:lvgl/src/extra/themes/default/lv_theme_default.c ****         lv_obj_add_style(obj, &styles->disabled, LV_PART_ITEMS | LV_STATE_DISABLED);
 885:lvgl/src/extra/themes/default/lv_theme_default.c ****         lv_obj_add_style(obj, &styles->outline_primary, LV_PART_ITEMS | LV_STATE_FOCUS_KEY);
 886:lvgl/src/extra/themes/default/lv_theme_default.c ****         lv_obj_add_style(obj, &styles->outline_secondary, LV_PART_ITEMS | LV_STATE_EDITED);
 887:lvgl/src/extra/themes/default/lv_theme_default.c ****     }
 888:lvgl/src/extra/themes/default/lv_theme_default.c **** #endif
 889:lvgl/src/extra/themes/default/lv_theme_default.c **** 
 890:lvgl/src/extra/themes/default/lv_theme_default.c **** #if LV_USE_CALENDAR_HEADER_ARROW
 891:lvgl/src/extra/themes/default/lv_theme_default.c ****     else if(lv_obj_check_type(obj, &lv_calendar_header_arrow_class)) {
ARM GAS  /var/folders/k2/cd9bl_j17z77g23y6ffqb_400000gn/T//ccRoPncs.s 			page 18


 892:lvgl/src/extra/themes/default/lv_theme_default.c ****         lv_obj_add_style(obj, &styles->card, 0);
 893:lvgl/src/extra/themes/default/lv_theme_default.c ****     }
 894:lvgl/src/extra/themes/default/lv_theme_default.c **** #endif
 895:lvgl/src/extra/themes/default/lv_theme_default.c **** 
 896:lvgl/src/extra/themes/default/lv_theme_default.c **** #if LV_USE_CALENDAR_HEADER_DROPDOWN
 897:lvgl/src/extra/themes/default/lv_theme_default.c ****     else if(lv_obj_check_type(obj, &lv_calendar_header_dropdown_class)) {
 898:lvgl/src/extra/themes/default/lv_theme_default.c ****         lv_obj_add_style(obj, &styles->card, 0);
 899:lvgl/src/extra/themes/default/lv_theme_default.c ****     }
 900:lvgl/src/extra/themes/default/lv_theme_default.c **** #endif
 901:lvgl/src/extra/themes/default/lv_theme_default.c **** 
 902:lvgl/src/extra/themes/default/lv_theme_default.c **** #if LV_USE_KEYBOARD
 903:lvgl/src/extra/themes/default/lv_theme_default.c ****     else if(lv_obj_check_type(obj, &lv_keyboard_class)) {
 904:lvgl/src/extra/themes/default/lv_theme_default.c ****         lv_obj_add_style(obj, &styles->scr, 0);
 905:lvgl/src/extra/themes/default/lv_theme_default.c ****         lv_obj_add_style(obj, disp_size == DISP_LARGE ? &styles->pad_small : &styles->pad_tiny, 0);
 906:lvgl/src/extra/themes/default/lv_theme_default.c ****         lv_obj_add_style(obj, &styles->outline_primary, LV_STATE_FOCUS_KEY);
 907:lvgl/src/extra/themes/default/lv_theme_default.c ****         lv_obj_add_style(obj, &styles->outline_secondary, LV_STATE_EDITED);
 908:lvgl/src/extra/themes/default/lv_theme_default.c ****         lv_obj_add_style(obj, &styles->btn, LV_PART_ITEMS);
 909:lvgl/src/extra/themes/default/lv_theme_default.c ****         lv_obj_add_style(obj, &styles->disabled, LV_PART_ITEMS | LV_STATE_DISABLED);
 910:lvgl/src/extra/themes/default/lv_theme_default.c ****         lv_obj_add_style(obj, &styles->bg_color_white, LV_PART_ITEMS);
 911:lvgl/src/extra/themes/default/lv_theme_default.c ****         lv_obj_add_style(obj, &styles->keyboard_btn_bg, LV_PART_ITEMS);
 912:lvgl/src/extra/themes/default/lv_theme_default.c ****         lv_obj_add_style(obj, &styles->pressed, LV_PART_ITEMS | LV_STATE_PRESSED);
 913:lvgl/src/extra/themes/default/lv_theme_default.c ****         lv_obj_add_style(obj, &styles->bg_color_grey, LV_PART_ITEMS | LV_STATE_CHECKED);
 914:lvgl/src/extra/themes/default/lv_theme_default.c ****         lv_obj_add_style(obj, &styles->bg_color_primary_muted, LV_PART_ITEMS | LV_STATE_FOCUS_KEY);
 915:lvgl/src/extra/themes/default/lv_theme_default.c ****         lv_obj_add_style(obj, &styles->bg_color_secondary_muted, LV_PART_ITEMS | LV_STATE_EDITED);
 916:lvgl/src/extra/themes/default/lv_theme_default.c ****     }
 917:lvgl/src/extra/themes/default/lv_theme_default.c **** #endif
 918:lvgl/src/extra/themes/default/lv_theme_default.c **** #if LV_USE_LIST
 919:lvgl/src/extra/themes/default/lv_theme_default.c ****     else if(lv_obj_check_type(obj, &lv_list_class)) {
 920:lvgl/src/extra/themes/default/lv_theme_default.c ****         lv_obj_add_style(obj, &styles->card, 0);
 921:lvgl/src/extra/themes/default/lv_theme_default.c ****         lv_obj_add_style(obj, &styles->list_bg, 0);
 922:lvgl/src/extra/themes/default/lv_theme_default.c ****         lv_obj_add_style(obj, &styles->scrollbar, LV_PART_SCROLLBAR);
 923:lvgl/src/extra/themes/default/lv_theme_default.c ****         lv_obj_add_style(obj, &styles->scrollbar_scrolled, LV_PART_SCROLLBAR | LV_STATE_SCROLLED);
 924:lvgl/src/extra/themes/default/lv_theme_default.c ****         return;
 925:lvgl/src/extra/themes/default/lv_theme_default.c ****     }
 926:lvgl/src/extra/themes/default/lv_theme_default.c ****     else if(lv_obj_check_type(obj, &lv_list_text_class)) {
 927:lvgl/src/extra/themes/default/lv_theme_default.c ****         lv_obj_add_style(obj, &styles->bg_color_grey, 0);
 928:lvgl/src/extra/themes/default/lv_theme_default.c ****         lv_obj_add_style(obj, &styles->list_item_grow, 0);
 929:lvgl/src/extra/themes/default/lv_theme_default.c ****     }
 930:lvgl/src/extra/themes/default/lv_theme_default.c ****     else if(lv_obj_check_type(obj, &lv_list_btn_class)) {
 931:lvgl/src/extra/themes/default/lv_theme_default.c ****         lv_obj_add_style(obj, &styles->bg_color_white, 0);
 932:lvgl/src/extra/themes/default/lv_theme_default.c ****         lv_obj_add_style(obj, &styles->list_btn, 0);
 933:lvgl/src/extra/themes/default/lv_theme_default.c ****         lv_obj_add_style(obj, &styles->bg_color_primary, LV_STATE_FOCUS_KEY);
 934:lvgl/src/extra/themes/default/lv_theme_default.c ****         lv_obj_add_style(obj, &styles->list_item_grow, LV_STATE_FOCUS_KEY);
 935:lvgl/src/extra/themes/default/lv_theme_default.c ****         lv_obj_add_style(obj, &styles->list_item_grow, LV_STATE_PRESSED);
 936:lvgl/src/extra/themes/default/lv_theme_default.c ****         lv_obj_add_style(obj, &styles->pressed, LV_STATE_PRESSED);
 937:lvgl/src/extra/themes/default/lv_theme_default.c **** 
 938:lvgl/src/extra/themes/default/lv_theme_default.c ****     }
 939:lvgl/src/extra/themes/default/lv_theme_default.c **** #endif
 940:lvgl/src/extra/themes/default/lv_theme_default.c **** #if LV_USE_MSGBOX
 941:lvgl/src/extra/themes/default/lv_theme_default.c ****     else if(lv_obj_check_type(obj, &lv_msgbox_class)) {
 942:lvgl/src/extra/themes/default/lv_theme_default.c ****         lv_obj_add_style(obj, &styles->card, 0);
 943:lvgl/src/extra/themes/default/lv_theme_default.c ****         lv_obj_add_style(obj, &styles->msgbox_bg, 0);
 944:lvgl/src/extra/themes/default/lv_theme_default.c ****         return;
 945:lvgl/src/extra/themes/default/lv_theme_default.c ****     }
 946:lvgl/src/extra/themes/default/lv_theme_default.c **** #endif
 947:lvgl/src/extra/themes/default/lv_theme_default.c **** #if LV_USE_SPINBOX
 948:lvgl/src/extra/themes/default/lv_theme_default.c ****     else if(lv_obj_check_type(obj, &lv_spinbox_class)) {
ARM GAS  /var/folders/k2/cd9bl_j17z77g23y6ffqb_400000gn/T//ccRoPncs.s 			page 19


 949:lvgl/src/extra/themes/default/lv_theme_default.c ****         lv_obj_add_style(obj, &styles->card, 0);
 950:lvgl/src/extra/themes/default/lv_theme_default.c ****         lv_obj_add_style(obj, &styles->pad_small, 0);
 951:lvgl/src/extra/themes/default/lv_theme_default.c ****         lv_obj_add_style(obj, &styles->outline_primary, LV_STATE_FOCUS_KEY);
 952:lvgl/src/extra/themes/default/lv_theme_default.c ****         lv_obj_add_style(obj, &styles->outline_secondary, LV_STATE_EDITED);
 953:lvgl/src/extra/themes/default/lv_theme_default.c ****         lv_obj_add_style(obj, &styles->bg_color_primary, LV_PART_CURSOR);
 954:lvgl/src/extra/themes/default/lv_theme_default.c ****     }
 955:lvgl/src/extra/themes/default/lv_theme_default.c **** #endif
 956:lvgl/src/extra/themes/default/lv_theme_default.c **** #if LV_USE_TILEVIEW
 957:lvgl/src/extra/themes/default/lv_theme_default.c ****     else if(lv_obj_check_type(obj, &lv_tileview_class)) {
 958:lvgl/src/extra/themes/default/lv_theme_default.c ****         lv_obj_add_style(obj, &styles->scr, 0);
 959:lvgl/src/extra/themes/default/lv_theme_default.c ****         lv_obj_add_style(obj, &styles->scrollbar, LV_PART_SCROLLBAR);
 960:lvgl/src/extra/themes/default/lv_theme_default.c ****         lv_obj_add_style(obj, &styles->scrollbar_scrolled, LV_PART_SCROLLBAR | LV_STATE_SCROLLED);
 961:lvgl/src/extra/themes/default/lv_theme_default.c ****     }
 962:lvgl/src/extra/themes/default/lv_theme_default.c ****     else if(lv_obj_check_type(obj, &lv_tileview_tile_class)) {
 963:lvgl/src/extra/themes/default/lv_theme_default.c ****         lv_obj_add_style(obj, &styles->scrollbar, LV_PART_SCROLLBAR);
 964:lvgl/src/extra/themes/default/lv_theme_default.c ****         lv_obj_add_style(obj, &styles->scrollbar_scrolled, LV_PART_SCROLLBAR | LV_STATE_SCROLLED);
 965:lvgl/src/extra/themes/default/lv_theme_default.c ****     }
 966:lvgl/src/extra/themes/default/lv_theme_default.c **** #endif
 967:lvgl/src/extra/themes/default/lv_theme_default.c **** 
 968:lvgl/src/extra/themes/default/lv_theme_default.c **** #if LV_USE_TABVIEW
 969:lvgl/src/extra/themes/default/lv_theme_default.c ****     if(lv_obj_check_type(obj, &lv_tabview_class)) {
 970:lvgl/src/extra/themes/default/lv_theme_default.c ****         lv_obj_add_style(obj, &styles->scr, 0);
 971:lvgl/src/extra/themes/default/lv_theme_default.c ****         lv_obj_add_style(obj, &styles->pad_zero, 0);
 972:lvgl/src/extra/themes/default/lv_theme_default.c ****         return;
 973:lvgl/src/extra/themes/default/lv_theme_default.c ****     }
 974:lvgl/src/extra/themes/default/lv_theme_default.c **** #endif
 975:lvgl/src/extra/themes/default/lv_theme_default.c **** 
 976:lvgl/src/extra/themes/default/lv_theme_default.c **** #if LV_USE_COLORWHEEL
 977:lvgl/src/extra/themes/default/lv_theme_default.c ****     else if(lv_obj_check_type(obj, &lv_colorwheel_class)) {
 978:lvgl/src/extra/themes/default/lv_theme_default.c ****         lv_obj_add_style(obj, &styles->colorwheel_main, 0);
 979:lvgl/src/extra/themes/default/lv_theme_default.c ****         lv_obj_add_style(obj, &styles->pad_normal, 0);
 980:lvgl/src/extra/themes/default/lv_theme_default.c ****         lv_obj_add_style(obj, &styles->bg_color_white, LV_PART_KNOB);
 981:lvgl/src/extra/themes/default/lv_theme_default.c ****         lv_obj_add_style(obj, &styles->pad_normal, LV_PART_KNOB);
 982:lvgl/src/extra/themes/default/lv_theme_default.c ****     }
 983:lvgl/src/extra/themes/default/lv_theme_default.c **** #endif
 984:lvgl/src/extra/themes/default/lv_theme_default.c **** 
 985:lvgl/src/extra/themes/default/lv_theme_default.c **** #if LV_USE_LED
 986:lvgl/src/extra/themes/default/lv_theme_default.c ****     else if(lv_obj_check_type(obj, &lv_led_class)) {
 987:lvgl/src/extra/themes/default/lv_theme_default.c ****             lv_obj_add_style(obj, &styles->led, 0);
 988:lvgl/src/extra/themes/default/lv_theme_default.c ****         }
 989:lvgl/src/extra/themes/default/lv_theme_default.c **** #endif
 990:lvgl/src/extra/themes/default/lv_theme_default.c **** }
  80              		.loc 1 990 1 view .LVU16
  81 002a 70BD     		pop	{r4, r5, r6, pc}
  82              	.LVL8:
  83              	.L42:
 603:lvgl/src/extra/themes/default/lv_theme_default.c ****         lv_obj_add_style(obj, &styles->scrollbar, LV_PART_SCROLLBAR);
  84              		.loc 1 603 9 is_stmt 1 view .LVU17
 603:lvgl/src/extra/themes/default/lv_theme_default.c ****         lv_obj_add_style(obj, &styles->scrollbar, LV_PART_SCROLLBAR);
  85              		.loc 1 603 38 is_stmt 0 view .LVU18
  86 002c A74D     		ldr	r5, .L53+8
 603:lvgl/src/extra/themes/default/lv_theme_default.c ****         lv_obj_add_style(obj, &styles->scrollbar, LV_PART_SCROLLBAR);
  87              		.loc 1 603 9 view .LVU19
  88 002e 0022     		movs	r2, #0
  89 0030 2968     		ldr	r1, [r5]
  90 0032 2046     		mov	r0, r4
  91 0034 FFF7FEFF 		bl	lv_obj_add_style
ARM GAS  /var/folders/k2/cd9bl_j17z77g23y6ffqb_400000gn/T//ccRoPncs.s 			page 20


  92              	.LVL9:
 604:lvgl/src/extra/themes/default/lv_theme_default.c ****         lv_obj_add_style(obj, &styles->scrollbar_scrolled, LV_PART_SCROLLBAR | LV_STATE_SCROLLED);
  93              		.loc 1 604 9 is_stmt 1 view .LVU20
 604:lvgl/src/extra/themes/default/lv_theme_default.c ****         lv_obj_add_style(obj, &styles->scrollbar_scrolled, LV_PART_SCROLLBAR | LV_STATE_SCROLLED);
  94              		.loc 1 604 38 is_stmt 0 view .LVU21
  95 0038 2968     		ldr	r1, [r5]
 604:lvgl/src/extra/themes/default/lv_theme_default.c ****         lv_obj_add_style(obj, &styles->scrollbar_scrolled, LV_PART_SCROLLBAR | LV_STATE_SCROLLED);
  96              		.loc 1 604 9 view .LVU22
  97 003a 4FF48032 		mov	r2, #65536
  98 003e 0831     		adds	r1, r1, #8
  99 0040 2046     		mov	r0, r4
 100 0042 FFF7FEFF 		bl	lv_obj_add_style
 101              	.LVL10:
 605:lvgl/src/extra/themes/default/lv_theme_default.c ****         return;
 102              		.loc 1 605 9 is_stmt 1 view .LVU23
 605:lvgl/src/extra/themes/default/lv_theme_default.c ****         return;
 103              		.loc 1 605 38 is_stmt 0 view .LVU24
 104 0046 2968     		ldr	r1, [r5]
 605:lvgl/src/extra/themes/default/lv_theme_default.c ****         return;
 105              		.loc 1 605 9 view .LVU25
 106 0048 A14A     		ldr	r2, .L53+12
 107 004a 1031     		adds	r1, r1, #16
 108 004c 2046     		mov	r0, r4
 109 004e FFF7FEFF 		bl	lv_obj_add_style
 110              	.LVL11:
 606:lvgl/src/extra/themes/default/lv_theme_default.c ****     }
 111              		.loc 1 606 9 is_stmt 1 view .LVU26
 112 0052 EAE7     		b	.L1
 113              	.LVL12:
 114              	.L43:
 115              	.LBB53:
 617:lvgl/src/extra/themes/default/lv_theme_default.c ****             lv_obj_add_style(obj, &styles->pad_normal, 0);
 116              		.loc 1 617 14 view .LVU27
 617:lvgl/src/extra/themes/default/lv_theme_default.c ****             lv_obj_add_style(obj, &styles->pad_normal, 0);
 117              		.loc 1 617 35 is_stmt 0 view .LVU28
 118 0054 2846     		mov	r0, r5
 119 0056 FFF7FEFF 		bl	lv_obj_get_parent
 120              	.LVL13:
 617:lvgl/src/extra/themes/default/lv_theme_default.c ****             lv_obj_add_style(obj, &styles->pad_normal, 0);
 121              		.loc 1 617 17 view .LVU29
 122 005a 9B49     		ldr	r1, .L53+4
 123 005c FFF7FEFF 		bl	lv_obj_check_type
 124              	.LVL14:
 617:lvgl/src/extra/themes/default/lv_theme_default.c ****             lv_obj_add_style(obj, &styles->pad_normal, 0);
 125              		.loc 1 617 16 view .LVU30
 126 0060 20BB     		cbnz	r0, .L44
 627:lvgl/src/extra/themes/default/lv_theme_default.c ****             lv_obj_add_style(obj, &styles->bg_color_grey, 0);
 127              		.loc 1 627 9 is_stmt 1 view .LVU31
 627:lvgl/src/extra/themes/default/lv_theme_default.c ****             lv_obj_add_style(obj, &styles->bg_color_grey, 0);
 128              		.loc 1 627 12 is_stmt 0 view .LVU32
 129 0062 2046     		mov	r0, r4
 130 0064 FFF7FEFF 		bl	lv_obj_get_child_id
 131              	.LVL15:
 627:lvgl/src/extra/themes/default/lv_theme_default.c ****             lv_obj_add_style(obj, &styles->bg_color_grey, 0);
 132              		.loc 1 627 11 view .LVU33
 133 0068 30B9     		cbnz	r0, .L6
 627:lvgl/src/extra/themes/default/lv_theme_default.c ****             lv_obj_add_style(obj, &styles->bg_color_grey, 0);
ARM GAS  /var/folders/k2/cd9bl_j17z77g23y6ffqb_400000gn/T//ccRoPncs.s 			page 21


 134              		.loc 1 627 63 discriminator 1 view .LVU34
 135 006a 2046     		mov	r0, r4
 136 006c FFF7FEFF 		bl	lv_obj_get_parent
 137              	.LVL16:
 627:lvgl/src/extra/themes/default/lv_theme_default.c ****             lv_obj_add_style(obj, &styles->bg_color_grey, 0);
 138              		.loc 1 627 45 discriminator 1 view .LVU35
 139 0070 9849     		ldr	r1, .L53+16
 140 0072 FFF7FEFF 		bl	lv_obj_check_type
 141              	.LVL17:
 627:lvgl/src/extra/themes/default/lv_theme_default.c ****             lv_obj_add_style(obj, &styles->bg_color_grey, 0);
 142              		.loc 1 627 42 discriminator 1 view .LVU36
 143 0076 70BB     		cbnz	r0, .L45
 144              	.L6:
 633:lvgl/src/extra/themes/default/lv_theme_default.c ****             lv_obj_add_style(obj, &styles->scr, 0);
 145              		.loc 1 633 14 is_stmt 1 view .LVU37
 633:lvgl/src/extra/themes/default/lv_theme_default.c ****             lv_obj_add_style(obj, &styles->scr, 0);
 146              		.loc 1 633 17 is_stmt 0 view .LVU38
 147 0078 2046     		mov	r0, r4
 148 007a FFF7FEFF 		bl	lv_obj_get_child_id
 149              	.LVL18:
 633:lvgl/src/extra/themes/default/lv_theme_default.c ****             lv_obj_add_style(obj, &styles->scr, 0);
 150              		.loc 1 633 16 view .LVU39
 151 007e 0128     		cmp	r0, #1
 152 0080 37D0     		beq	.L46
 153              	.L7:
 641:lvgl/src/extra/themes/default/lv_theme_default.c ****         lv_obj_add_style(obj, &styles->scrollbar, LV_PART_SCROLLBAR);
 154              		.loc 1 641 9 is_stmt 1 view .LVU40
 641:lvgl/src/extra/themes/default/lv_theme_default.c ****         lv_obj_add_style(obj, &styles->scrollbar, LV_PART_SCROLLBAR);
 155              		.loc 1 641 38 is_stmt 0 view .LVU41
 156 0082 924D     		ldr	r5, .L53+8
 157              	.LVL19:
 641:lvgl/src/extra/themes/default/lv_theme_default.c ****         lv_obj_add_style(obj, &styles->scrollbar, LV_PART_SCROLLBAR);
 158              		.loc 1 641 38 view .LVU42
 159 0084 2968     		ldr	r1, [r5]
 641:lvgl/src/extra/themes/default/lv_theme_default.c ****         lv_obj_add_style(obj, &styles->scrollbar, LV_PART_SCROLLBAR);
 160              		.loc 1 641 9 view .LVU43
 161 0086 0022     		movs	r2, #0
 162 0088 1831     		adds	r1, r1, #24
 163 008a 2046     		mov	r0, r4
 164 008c FFF7FEFF 		bl	lv_obj_add_style
 165              	.LVL20:
 642:lvgl/src/extra/themes/default/lv_theme_default.c ****         lv_obj_add_style(obj, &styles->scrollbar_scrolled, LV_PART_SCROLLBAR | LV_STATE_SCROLLED);
 166              		.loc 1 642 9 is_stmt 1 view .LVU44
 642:lvgl/src/extra/themes/default/lv_theme_default.c ****         lv_obj_add_style(obj, &styles->scrollbar_scrolled, LV_PART_SCROLLBAR | LV_STATE_SCROLLED);
 167              		.loc 1 642 38 is_stmt 0 view .LVU45
 168 0090 2968     		ldr	r1, [r5]
 642:lvgl/src/extra/themes/default/lv_theme_default.c ****         lv_obj_add_style(obj, &styles->scrollbar_scrolled, LV_PART_SCROLLBAR | LV_STATE_SCROLLED);
 169              		.loc 1 642 9 view .LVU46
 170 0092 4FF48032 		mov	r2, #65536
 171 0096 0831     		adds	r1, r1, #8
 172 0098 2046     		mov	r0, r4
 173 009a FFF7FEFF 		bl	lv_obj_add_style
 174              	.LVL21:
 643:lvgl/src/extra/themes/default/lv_theme_default.c ****     }
 175              		.loc 1 643 9 is_stmt 1 view .LVU47
 643:lvgl/src/extra/themes/default/lv_theme_default.c ****     }
 176              		.loc 1 643 38 is_stmt 0 view .LVU48
ARM GAS  /var/folders/k2/cd9bl_j17z77g23y6ffqb_400000gn/T//ccRoPncs.s 			page 22


 177 009e 2968     		ldr	r1, [r5]
 643:lvgl/src/extra/themes/default/lv_theme_default.c ****     }
 178              		.loc 1 643 9 view .LVU49
 179 00a0 8B4A     		ldr	r2, .L53+12
 180 00a2 1031     		adds	r1, r1, #16
 181 00a4 2046     		mov	r0, r4
 182 00a6 FFF7FEFF 		bl	lv_obj_add_style
 183              	.LVL22:
 184              	.LBE53:
 185 00aa 81E0     		b	.L8
 186              	.LVL23:
 187              	.L44:
 188              	.LBB54:
 618:lvgl/src/extra/themes/default/lv_theme_default.c ****             lv_obj_add_style(obj, &styles->scrollbar, LV_PART_SCROLLBAR);
 189              		.loc 1 618 13 is_stmt 1 view .LVU50
 618:lvgl/src/extra/themes/default/lv_theme_default.c ****             lv_obj_add_style(obj, &styles->scrollbar, LV_PART_SCROLLBAR);
 190              		.loc 1 618 42 is_stmt 0 view .LVU51
 191 00ac 874D     		ldr	r5, .L53+8
 192              	.LVL24:
 618:lvgl/src/extra/themes/default/lv_theme_default.c ****             lv_obj_add_style(obj, &styles->scrollbar, LV_PART_SCROLLBAR);
 193              		.loc 1 618 42 view .LVU52
 194 00ae 2968     		ldr	r1, [r5]
 618:lvgl/src/extra/themes/default/lv_theme_default.c ****             lv_obj_add_style(obj, &styles->scrollbar, LV_PART_SCROLLBAR);
 195              		.loc 1 618 13 view .LVU53
 196 00b0 0022     		movs	r2, #0
 197 00b2 8031     		adds	r1, r1, #128
 198 00b4 2046     		mov	r0, r4
 199 00b6 FFF7FEFF 		bl	lv_obj_add_style
 200              	.LVL25:
 619:lvgl/src/extra/themes/default/lv_theme_default.c ****             lv_obj_add_style(obj, &styles->scrollbar_scrolled, LV_PART_SCROLLBAR | LV_STATE_SCROLLE
 201              		.loc 1 619 13 is_stmt 1 view .LVU54
 619:lvgl/src/extra/themes/default/lv_theme_default.c ****             lv_obj_add_style(obj, &styles->scrollbar_scrolled, LV_PART_SCROLLBAR | LV_STATE_SCROLLE
 202              		.loc 1 619 42 is_stmt 0 view .LVU55
 203 00ba 2968     		ldr	r1, [r5]
 619:lvgl/src/extra/themes/default/lv_theme_default.c ****             lv_obj_add_style(obj, &styles->scrollbar_scrolled, LV_PART_SCROLLBAR | LV_STATE_SCROLLE
 204              		.loc 1 619 13 view .LVU56
 205 00bc 4FF48032 		mov	r2, #65536
 206 00c0 0831     		adds	r1, r1, #8
 207 00c2 2046     		mov	r0, r4
 208 00c4 FFF7FEFF 		bl	lv_obj_add_style
 209              	.LVL26:
 620:lvgl/src/extra/themes/default/lv_theme_default.c ****             return;
 210              		.loc 1 620 13 is_stmt 1 view .LVU57
 620:lvgl/src/extra/themes/default/lv_theme_default.c ****             return;
 211              		.loc 1 620 42 is_stmt 0 view .LVU58
 212 00c8 2968     		ldr	r1, [r5]
 620:lvgl/src/extra/themes/default/lv_theme_default.c ****             return;
 213              		.loc 1 620 13 view .LVU59
 214 00ca 814A     		ldr	r2, .L53+12
 215 00cc 1031     		adds	r1, r1, #16
 216 00ce 2046     		mov	r0, r4
 217 00d0 FFF7FEFF 		bl	lv_obj_add_style
 218              	.LVL27:
 621:lvgl/src/extra/themes/default/lv_theme_default.c ****         }
 219              		.loc 1 621 13 is_stmt 1 view .LVU60
 220 00d4 A9E7     		b	.L1
 221              	.LVL28:
ARM GAS  /var/folders/k2/cd9bl_j17z77g23y6ffqb_400000gn/T//ccRoPncs.s 			page 23


 222              	.L45:
 628:lvgl/src/extra/themes/default/lv_theme_default.c ****             lv_obj_add_style(obj, &styles->pad_tiny, 0);
 223              		.loc 1 628 13 view .LVU61
 628:lvgl/src/extra/themes/default/lv_theme_default.c ****             lv_obj_add_style(obj, &styles->pad_tiny, 0);
 224              		.loc 1 628 42 is_stmt 0 view .LVU62
 225 00d6 7D4D     		ldr	r5, .L53+8
 226              	.LVL29:
 628:lvgl/src/extra/themes/default/lv_theme_default.c ****             lv_obj_add_style(obj, &styles->pad_tiny, 0);
 227              		.loc 1 628 42 view .LVU63
 228 00d8 2968     		ldr	r1, [r5]
 628:lvgl/src/extra/themes/default/lv_theme_default.c ****             lv_obj_add_style(obj, &styles->pad_tiny, 0);
 229              		.loc 1 628 13 view .LVU64
 230 00da 0022     		movs	r2, #0
 231 00dc 4831     		adds	r1, r1, #72
 232 00de 2046     		mov	r0, r4
 233 00e0 FFF7FEFF 		bl	lv_obj_add_style
 234              	.LVL30:
 629:lvgl/src/extra/themes/default/lv_theme_default.c ****             return;
 235              		.loc 1 629 13 is_stmt 1 view .LVU65
 629:lvgl/src/extra/themes/default/lv_theme_default.c ****             return;
 236              		.loc 1 629 42 is_stmt 0 view .LVU66
 237 00e4 2968     		ldr	r1, [r5]
 629:lvgl/src/extra/themes/default/lv_theme_default.c ****             return;
 238              		.loc 1 629 13 view .LVU67
 239 00e6 0022     		movs	r2, #0
 240 00e8 7031     		adds	r1, r1, #112
 241 00ea 2046     		mov	r0, r4
 242 00ec FFF7FEFF 		bl	lv_obj_add_style
 243              	.LVL31:
 630:lvgl/src/extra/themes/default/lv_theme_default.c ****         }
 244              		.loc 1 630 13 is_stmt 1 view .LVU68
 245 00f0 9BE7     		b	.L1
 246              	.LVL32:
 247              	.L46:
 633:lvgl/src/extra/themes/default/lv_theme_default.c ****             lv_obj_add_style(obj, &styles->scr, 0);
 248              		.loc 1 633 68 is_stmt 0 discriminator 1 view .LVU69
 249 00f2 2046     		mov	r0, r4
 250 00f4 FFF7FEFF 		bl	lv_obj_get_parent
 251              	.LVL33:
 633:lvgl/src/extra/themes/default/lv_theme_default.c ****             lv_obj_add_style(obj, &styles->scr, 0);
 252              		.loc 1 633 50 discriminator 1 view .LVU70
 253 00f8 7649     		ldr	r1, .L53+16
 254 00fa FFF7FEFF 		bl	lv_obj_check_type
 255              	.LVL34:
 633:lvgl/src/extra/themes/default/lv_theme_default.c ****             lv_obj_add_style(obj, &styles->scr, 0);
 256              		.loc 1 633 47 discriminator 1 view .LVU71
 257 00fe 0028     		cmp	r0, #0
 258 0100 BFD0     		beq	.L7
 634:lvgl/src/extra/themes/default/lv_theme_default.c ****             lv_obj_add_style(obj, &styles->pad_normal, 0);
 259              		.loc 1 634 13 is_stmt 1 view .LVU72
 634:lvgl/src/extra/themes/default/lv_theme_default.c ****             lv_obj_add_style(obj, &styles->pad_normal, 0);
 260              		.loc 1 634 42 is_stmt 0 view .LVU73
 261 0102 724D     		ldr	r5, .L53+8
 262              	.LVL35:
 634:lvgl/src/extra/themes/default/lv_theme_default.c ****             lv_obj_add_style(obj, &styles->pad_normal, 0);
 263              		.loc 1 634 13 view .LVU74
 264 0104 0022     		movs	r2, #0
ARM GAS  /var/folders/k2/cd9bl_j17z77g23y6ffqb_400000gn/T//ccRoPncs.s 			page 24


 265 0106 2968     		ldr	r1, [r5]
 266 0108 2046     		mov	r0, r4
 267 010a FFF7FEFF 		bl	lv_obj_add_style
 268              	.LVL36:
 635:lvgl/src/extra/themes/default/lv_theme_default.c ****             lv_obj_add_style(obj, &styles->scrollbar, LV_PART_SCROLLBAR);
 269              		.loc 1 635 13 is_stmt 1 view .LVU75
 635:lvgl/src/extra/themes/default/lv_theme_default.c ****             lv_obj_add_style(obj, &styles->scrollbar, LV_PART_SCROLLBAR);
 270              		.loc 1 635 42 is_stmt 0 view .LVU76
 271 010e 2968     		ldr	r1, [r5]
 635:lvgl/src/extra/themes/default/lv_theme_default.c ****             lv_obj_add_style(obj, &styles->scrollbar, LV_PART_SCROLLBAR);
 272              		.loc 1 635 13 view .LVU77
 273 0110 0022     		movs	r2, #0
 274 0112 8031     		adds	r1, r1, #128
 275 0114 2046     		mov	r0, r4
 276 0116 FFF7FEFF 		bl	lv_obj_add_style
 277              	.LVL37:
 636:lvgl/src/extra/themes/default/lv_theme_default.c ****             lv_obj_add_style(obj, &styles->scrollbar_scrolled, LV_PART_SCROLLBAR | LV_STATE_SCROLLE
 278              		.loc 1 636 13 is_stmt 1 view .LVU78
 636:lvgl/src/extra/themes/default/lv_theme_default.c ****             lv_obj_add_style(obj, &styles->scrollbar_scrolled, LV_PART_SCROLLBAR | LV_STATE_SCROLLE
 279              		.loc 1 636 42 is_stmt 0 view .LVU79
 280 011a 2968     		ldr	r1, [r5]
 636:lvgl/src/extra/themes/default/lv_theme_default.c ****             lv_obj_add_style(obj, &styles->scrollbar_scrolled, LV_PART_SCROLLBAR | LV_STATE_SCROLLE
 281              		.loc 1 636 13 view .LVU80
 282 011c 4FF48032 		mov	r2, #65536
 283 0120 0831     		adds	r1, r1, #8
 284 0122 2046     		mov	r0, r4
 285 0124 FFF7FEFF 		bl	lv_obj_add_style
 286              	.LVL38:
 637:lvgl/src/extra/themes/default/lv_theme_default.c ****             return;
 287              		.loc 1 637 13 is_stmt 1 view .LVU81
 637:lvgl/src/extra/themes/default/lv_theme_default.c ****             return;
 288              		.loc 1 637 42 is_stmt 0 view .LVU82
 289 0128 2968     		ldr	r1, [r5]
 637:lvgl/src/extra/themes/default/lv_theme_default.c ****             return;
 290              		.loc 1 637 13 view .LVU83
 291 012a 694A     		ldr	r2, .L53+12
 292 012c 1031     		adds	r1, r1, #16
 293 012e 2046     		mov	r0, r4
 294 0130 FFF7FEFF 		bl	lv_obj_add_style
 295              	.LVL39:
 638:lvgl/src/extra/themes/default/lv_theme_default.c ****         }
 296              		.loc 1 638 13 is_stmt 1 view .LVU84
 297 0134 79E7     		b	.L1
 298              	.L4:
 638:lvgl/src/extra/themes/default/lv_theme_default.c ****         }
 299              		.loc 1 638 13 is_stmt 0 view .LVU85
 300              	.LBE54:
 646:lvgl/src/extra/themes/default/lv_theme_default.c ****         lv_obj_add_style(obj, &styles->btn, 0);
 301              		.loc 1 646 10 is_stmt 1 view .LVU86
 646:lvgl/src/extra/themes/default/lv_theme_default.c ****         lv_obj_add_style(obj, &styles->btn, 0);
 302              		.loc 1 646 13 is_stmt 0 view .LVU87
 303 0136 6849     		ldr	r1, .L53+20
 304 0138 2046     		mov	r0, r4
 305 013a FFF7FEFF 		bl	lv_obj_check_type
 306              	.LVL40:
 646:lvgl/src/extra/themes/default/lv_theme_default.c ****         lv_obj_add_style(obj, &styles->btn, 0);
 307              		.loc 1 646 12 view .LVU88
ARM GAS  /var/folders/k2/cd9bl_j17z77g23y6ffqb_400000gn/T//ccRoPncs.s 			page 25


 308 013e 0028     		cmp	r0, #0
 309 0140 61D0     		beq	.L9
 647:lvgl/src/extra/themes/default/lv_theme_default.c ****         lv_obj_add_style(obj, &styles->bg_color_primary, 0);
 310              		.loc 1 647 9 is_stmt 1 view .LVU89
 647:lvgl/src/extra/themes/default/lv_theme_default.c ****         lv_obj_add_style(obj, &styles->bg_color_primary, 0);
 311              		.loc 1 647 38 is_stmt 0 view .LVU90
 312 0142 624D     		ldr	r5, .L53+8
 313 0144 2968     		ldr	r1, [r5]
 647:lvgl/src/extra/themes/default/lv_theme_default.c ****         lv_obj_add_style(obj, &styles->bg_color_primary, 0);
 314              		.loc 1 647 9 view .LVU91
 315 0146 0022     		movs	r2, #0
 316 0148 2031     		adds	r1, r1, #32
 317 014a 2046     		mov	r0, r4
 318 014c FFF7FEFF 		bl	lv_obj_add_style
 319              	.LVL41:
 648:lvgl/src/extra/themes/default/lv_theme_default.c ****         lv_obj_add_style(obj, &styles->transition_delayed, 0);
 320              		.loc 1 648 9 is_stmt 1 view .LVU92
 648:lvgl/src/extra/themes/default/lv_theme_default.c ****         lv_obj_add_style(obj, &styles->transition_delayed, 0);
 321              		.loc 1 648 38 is_stmt 0 view .LVU93
 322 0150 2968     		ldr	r1, [r5]
 648:lvgl/src/extra/themes/default/lv_theme_default.c ****         lv_obj_add_style(obj, &styles->transition_delayed, 0);
 323              		.loc 1 648 9 view .LVU94
 324 0152 0022     		movs	r2, #0
 325 0154 2831     		adds	r1, r1, #40
 326 0156 2046     		mov	r0, r4
 327 0158 FFF7FEFF 		bl	lv_obj_add_style
 328              	.LVL42:
 649:lvgl/src/extra/themes/default/lv_theme_default.c ****         lv_obj_add_style(obj, &styles->pressed, LV_STATE_PRESSED);
 329              		.loc 1 649 9 is_stmt 1 view .LVU95
 649:lvgl/src/extra/themes/default/lv_theme_default.c ****         lv_obj_add_style(obj, &styles->pressed, LV_STATE_PRESSED);
 330              		.loc 1 649 38 is_stmt 0 view .LVU96
 331 015c 2968     		ldr	r1, [r5]
 649:lvgl/src/extra/themes/default/lv_theme_default.c ****         lv_obj_add_style(obj, &styles->pressed, LV_STATE_PRESSED);
 332              		.loc 1 649 9 view .LVU97
 333 015e 0022     		movs	r2, #0
 334 0160 D031     		adds	r1, r1, #208
 335 0162 2046     		mov	r0, r4
 336 0164 FFF7FEFF 		bl	lv_obj_add_style
 337              	.LVL43:
 650:lvgl/src/extra/themes/default/lv_theme_default.c ****         lv_obj_add_style(obj, &styles->transition_normal, LV_STATE_PRESSED);
 338              		.loc 1 650 9 is_stmt 1 view .LVU98
 650:lvgl/src/extra/themes/default/lv_theme_default.c ****         lv_obj_add_style(obj, &styles->transition_normal, LV_STATE_PRESSED);
 339              		.loc 1 650 38 is_stmt 0 view .LVU99
 340 0168 2968     		ldr	r1, [r5]
 650:lvgl/src/extra/themes/default/lv_theme_default.c ****         lv_obj_add_style(obj, &styles->transition_normal, LV_STATE_PRESSED);
 341              		.loc 1 650 9 view .LVU100
 342 016a 2022     		movs	r2, #32
 343 016c 5831     		adds	r1, r1, #88
 344 016e 2046     		mov	r0, r4
 345 0170 FFF7FEFF 		bl	lv_obj_add_style
 346              	.LVL44:
 651:lvgl/src/extra/themes/default/lv_theme_default.c ****         lv_obj_add_style(obj, &styles->outline_primary, LV_STATE_FOCUS_KEY);
 347              		.loc 1 651 9 is_stmt 1 view .LVU101
 651:lvgl/src/extra/themes/default/lv_theme_default.c ****         lv_obj_add_style(obj, &styles->outline_primary, LV_STATE_FOCUS_KEY);
 348              		.loc 1 651 38 is_stmt 0 view .LVU102
 349 0174 2968     		ldr	r1, [r5]
 651:lvgl/src/extra/themes/default/lv_theme_default.c ****         lv_obj_add_style(obj, &styles->outline_primary, LV_STATE_FOCUS_KEY);
ARM GAS  /var/folders/k2/cd9bl_j17z77g23y6ffqb_400000gn/T//ccRoPncs.s 			page 26


 350              		.loc 1 651 9 view .LVU103
 351 0176 2022     		movs	r2, #32
 352 0178 D831     		adds	r1, r1, #216
 353 017a 2046     		mov	r0, r4
 354 017c FFF7FEFF 		bl	lv_obj_add_style
 355              	.LVL45:
 652:lvgl/src/extra/themes/default/lv_theme_default.c **** #if LV_THEME_DEFAULT_GROW
 356              		.loc 1 652 9 is_stmt 1 view .LVU104
 652:lvgl/src/extra/themes/default/lv_theme_default.c **** #if LV_THEME_DEFAULT_GROW
 357              		.loc 1 652 38 is_stmt 0 view .LVU105
 358 0180 2968     		ldr	r1, [r5]
 652:lvgl/src/extra/themes/default/lv_theme_default.c **** #if LV_THEME_DEFAULT_GROW
 359              		.loc 1 652 9 view .LVU106
 360 0182 0422     		movs	r2, #4
 361 0184 A031     		adds	r1, r1, #160
 362 0186 2046     		mov	r0, r4
 363 0188 FFF7FEFF 		bl	lv_obj_add_style
 364              	.LVL46:
 654:lvgl/src/extra/themes/default/lv_theme_default.c **** #endif
 365              		.loc 1 654 9 is_stmt 1 view .LVU107
 654:lvgl/src/extra/themes/default/lv_theme_default.c **** #endif
 366              		.loc 1 654 38 is_stmt 0 view .LVU108
 367 018c 2968     		ldr	r1, [r5]
 654:lvgl/src/extra/themes/default/lv_theme_default.c **** #endif
 368              		.loc 1 654 9 view .LVU109
 369 018e 2022     		movs	r2, #32
 370 0190 C831     		adds	r1, r1, #200
 371 0192 2046     		mov	r0, r4
 372 0194 FFF7FEFF 		bl	lv_obj_add_style
 373              	.LVL47:
 656:lvgl/src/extra/themes/default/lv_theme_default.c ****         lv_obj_add_style(obj, &styles->disabled, LV_STATE_DISABLED);
 374              		.loc 1 656 9 is_stmt 1 view .LVU110
 656:lvgl/src/extra/themes/default/lv_theme_default.c ****         lv_obj_add_style(obj, &styles->disabled, LV_STATE_DISABLED);
 375              		.loc 1 656 38 is_stmt 0 view .LVU111
 376 0198 2968     		ldr	r1, [r5]
 656:lvgl/src/extra/themes/default/lv_theme_default.c ****         lv_obj_add_style(obj, &styles->disabled, LV_STATE_DISABLED);
 377              		.loc 1 656 9 view .LVU112
 378 019a 0122     		movs	r2, #1
 379 019c 3831     		adds	r1, r1, #56
 380 019e 2046     		mov	r0, r4
 381 01a0 FFF7FEFF 		bl	lv_obj_add_style
 382              	.LVL48:
 657:lvgl/src/extra/themes/default/lv_theme_default.c ****     }
 383              		.loc 1 657 9 is_stmt 1 view .LVU113
 657:lvgl/src/extra/themes/default/lv_theme_default.c ****     }
 384              		.loc 1 657 38 is_stmt 0 view .LVU114
 385 01a4 2968     		ldr	r1, [r5]
 657:lvgl/src/extra/themes/default/lv_theme_default.c ****     }
 386              		.loc 1 657 9 view .LVU115
 387 01a6 8022     		movs	r2, #128
 388 01a8 6031     		adds	r1, r1, #96
 389 01aa 2046     		mov	r0, r4
 390 01ac FFF7FEFF 		bl	lv_obj_add_style
 391              	.LVL49:
 392              	.L8:
 969:lvgl/src/extra/themes/default/lv_theme_default.c ****         lv_obj_add_style(obj, &styles->scr, 0);
 393              		.loc 1 969 5 is_stmt 1 view .LVU116
ARM GAS  /var/folders/k2/cd9bl_j17z77g23y6ffqb_400000gn/T//ccRoPncs.s 			page 27


 969:lvgl/src/extra/themes/default/lv_theme_default.c ****         lv_obj_add_style(obj, &styles->scr, 0);
 394              		.loc 1 969 8 is_stmt 0 view .LVU117
 395 01b0 4549     		ldr	r1, .L53+4
 396 01b2 2046     		mov	r0, r4
 397 01b4 FFF7FEFF 		bl	lv_obj_check_type
 398              	.LVL50:
 969:lvgl/src/extra/themes/default/lv_theme_default.c ****         lv_obj_add_style(obj, &styles->scr, 0);
 399              		.loc 1 969 7 view .LVU118
 400 01b8 0028     		cmp	r0, #0
 401 01ba 40F0F485 		bne	.L47
 977:lvgl/src/extra/themes/default/lv_theme_default.c ****         lv_obj_add_style(obj, &styles->colorwheel_main, 0);
 402              		.loc 1 977 10 is_stmt 1 view .LVU119
 977:lvgl/src/extra/themes/default/lv_theme_default.c ****         lv_obj_add_style(obj, &styles->colorwheel_main, 0);
 403              		.loc 1 977 13 is_stmt 0 view .LVU120
 404 01be 4749     		ldr	r1, .L53+24
 405 01c0 2046     		mov	r0, r4
 406 01c2 FFF7FEFF 		bl	lv_obj_check_type
 407              	.LVL51:
 977:lvgl/src/extra/themes/default/lv_theme_default.c ****         lv_obj_add_style(obj, &styles->colorwheel_main, 0);
 408              		.loc 1 977 12 view .LVU121
 409 01c6 0028     		cmp	r0, #0
 410 01c8 00F0FB85 		beq	.L40
 978:lvgl/src/extra/themes/default/lv_theme_default.c ****         lv_obj_add_style(obj, &styles->pad_normal, 0);
 411              		.loc 1 978 9 is_stmt 1 view .LVU122
 978:lvgl/src/extra/themes/default/lv_theme_default.c ****         lv_obj_add_style(obj, &styles->pad_normal, 0);
 412              		.loc 1 978 38 is_stmt 0 view .LVU123
 413 01cc 3F4D     		ldr	r5, .L53+8
 414 01ce 2968     		ldr	r1, [r5]
 978:lvgl/src/extra/themes/default/lv_theme_default.c ****         lv_obj_add_style(obj, &styles->pad_normal, 0);
 415              		.loc 1 978 9 view .LVU124
 416 01d0 0022     		movs	r2, #0
 417 01d2 01F5C471 		add	r1, r1, #392
 418 01d6 2046     		mov	r0, r4
 419 01d8 FFF7FEFF 		bl	lv_obj_add_style
 420              	.LVL52:
 979:lvgl/src/extra/themes/default/lv_theme_default.c ****         lv_obj_add_style(obj, &styles->bg_color_white, LV_PART_KNOB);
 421              		.loc 1 979 9 is_stmt 1 view .LVU125
 979:lvgl/src/extra/themes/default/lv_theme_default.c ****         lv_obj_add_style(obj, &styles->bg_color_white, LV_PART_KNOB);
 422              		.loc 1 979 38 is_stmt 0 view .LVU126
 423 01dc 2968     		ldr	r1, [r5]
 979:lvgl/src/extra/themes/default/lv_theme_default.c ****         lv_obj_add_style(obj, &styles->bg_color_white, LV_PART_KNOB);
 424              		.loc 1 979 9 view .LVU127
 425 01de 0022     		movs	r2, #0
 426 01e0 8031     		adds	r1, r1, #128
 427 01e2 2046     		mov	r0, r4
 428 01e4 FFF7FEFF 		bl	lv_obj_add_style
 429              	.LVL53:
 980:lvgl/src/extra/themes/default/lv_theme_default.c ****         lv_obj_add_style(obj, &styles->pad_normal, LV_PART_KNOB);
 430              		.loc 1 980 9 is_stmt 1 view .LVU128
 980:lvgl/src/extra/themes/default/lv_theme_default.c ****         lv_obj_add_style(obj, &styles->pad_normal, LV_PART_KNOB);
 431              		.loc 1 980 38 is_stmt 0 view .LVU129
 432 01e8 2968     		ldr	r1, [r5]
 980:lvgl/src/extra/themes/default/lv_theme_default.c ****         lv_obj_add_style(obj, &styles->pad_normal, LV_PART_KNOB);
 433              		.loc 1 980 9 view .LVU130
 434 01ea 4FF44032 		mov	r2, #196608
 435 01ee 5031     		adds	r1, r1, #80
 436 01f0 2046     		mov	r0, r4
ARM GAS  /var/folders/k2/cd9bl_j17z77g23y6ffqb_400000gn/T//ccRoPncs.s 			page 28


 437 01f2 FFF7FEFF 		bl	lv_obj_add_style
 438              	.LVL54:
 981:lvgl/src/extra/themes/default/lv_theme_default.c ****     }
 439              		.loc 1 981 9 is_stmt 1 view .LVU131
 981:lvgl/src/extra/themes/default/lv_theme_default.c ****     }
 440              		.loc 1 981 38 is_stmt 0 view .LVU132
 441 01f6 2968     		ldr	r1, [r5]
 981:lvgl/src/extra/themes/default/lv_theme_default.c ****     }
 442              		.loc 1 981 9 view .LVU133
 443 01f8 4FF44032 		mov	r2, #196608
 444 01fc 8031     		adds	r1, r1, #128
 445 01fe 2046     		mov	r0, r4
 446 0200 FFF7FEFF 		bl	lv_obj_add_style
 447              	.LVL55:
 448 0204 11E7     		b	.L1
 449              	.L9:
 662:lvgl/src/extra/themes/default/lv_theme_default.c ****         lv_obj_add_style(obj, &styles->line, 0);
 450              		.loc 1 662 10 is_stmt 1 view .LVU134
 662:lvgl/src/extra/themes/default/lv_theme_default.c ****         lv_obj_add_style(obj, &styles->line, 0);
 451              		.loc 1 662 13 is_stmt 0 view .LVU135
 452 0206 3649     		ldr	r1, .L53+28
 453 0208 2046     		mov	r0, r4
 454 020a FFF7FEFF 		bl	lv_obj_check_type
 455              	.LVL56:
 662:lvgl/src/extra/themes/default/lv_theme_default.c ****         lv_obj_add_style(obj, &styles->line, 0);
 456              		.loc 1 662 12 view .LVU136
 457 020e 40B1     		cbz	r0, .L10
 663:lvgl/src/extra/themes/default/lv_theme_default.c ****     }
 458              		.loc 1 663 9 is_stmt 1 view .LVU137
 663:lvgl/src/extra/themes/default/lv_theme_default.c ****     }
 459              		.loc 1 663 38 is_stmt 0 view .LVU138
 460 0210 2E4B     		ldr	r3, .L53+8
 461 0212 1968     		ldr	r1, [r3]
 663:lvgl/src/extra/themes/default/lv_theme_default.c ****     }
 462              		.loc 1 663 9 view .LVU139
 463 0214 0022     		movs	r2, #0
 464 0216 01F5A471 		add	r1, r1, #328
 465 021a 2046     		mov	r0, r4
 466 021c FFF7FEFF 		bl	lv_obj_add_style
 467              	.LVL57:
 468 0220 C6E7     		b	.L8
 469              	.L10:
 668:lvgl/src/extra/themes/default/lv_theme_default.c **** #if LV_USE_MSGBOX
 470              		.loc 1 668 10 is_stmt 1 view .LVU140
 668:lvgl/src/extra/themes/default/lv_theme_default.c **** #if LV_USE_MSGBOX
 471              		.loc 1 668 13 is_stmt 0 view .LVU141
 472 0222 3049     		ldr	r1, .L53+32
 473 0224 2046     		mov	r0, r4
 474 0226 FFF7FEFF 		bl	lv_obj_check_type
 475              	.LVL58:
 668:lvgl/src/extra/themes/default/lv_theme_default.c **** #if LV_USE_MSGBOX
 476              		.loc 1 668 12 view .LVU142
 477 022a 0028     		cmp	r0, #0
 478 022c 00F0D980 		beq	.L11
 670:lvgl/src/extra/themes/default/lv_theme_default.c ****             lv_obj_add_style(obj, &styles->msgbox_btn_bg, 0);
 479              		.loc 1 670 9 is_stmt 1 view .LVU143
 670:lvgl/src/extra/themes/default/lv_theme_default.c ****             lv_obj_add_style(obj, &styles->msgbox_btn_bg, 0);
ARM GAS  /var/folders/k2/cd9bl_j17z77g23y6ffqb_400000gn/T//ccRoPncs.s 			page 29


 480              		.loc 1 670 30 is_stmt 0 view .LVU144
 481 0230 2046     		mov	r0, r4
 482 0232 FFF7FEFF 		bl	lv_obj_get_parent
 483              	.LVL59:
 670:lvgl/src/extra/themes/default/lv_theme_default.c ****             lv_obj_add_style(obj, &styles->msgbox_btn_bg, 0);
 484              		.loc 1 670 12 view .LVU145
 485 0236 2C49     		ldr	r1, .L53+36
 486 0238 FFF7FEFF 		bl	lv_obj_check_type
 487              	.LVL60:
 670:lvgl/src/extra/themes/default/lv_theme_default.c ****             lv_obj_add_style(obj, &styles->msgbox_btn_bg, 0);
 488              		.loc 1 670 11 view .LVU146
 489 023c 0028     		cmp	r0, #0
 490 023e 5FD1     		bne	.L48
 683:lvgl/src/extra/themes/default/lv_theme_default.c ****             lv_obj_add_style(obj, &styles->bg_color_white, 0);
 491              		.loc 1 683 9 is_stmt 1 view .LVU147
 683:lvgl/src/extra/themes/default/lv_theme_default.c ****             lv_obj_add_style(obj, &styles->bg_color_white, 0);
 492              		.loc 1 683 30 is_stmt 0 view .LVU148
 493 0240 2046     		mov	r0, r4
 494 0242 FFF7FEFF 		bl	lv_obj_get_parent
 495              	.LVL61:
 683:lvgl/src/extra/themes/default/lv_theme_default.c ****             lv_obj_add_style(obj, &styles->bg_color_white, 0);
 496              		.loc 1 683 12 view .LVU149
 497 0246 2049     		ldr	r1, .L53+4
 498 0248 FFF7FEFF 		bl	lv_obj_check_type
 499              	.LVL62:
 683:lvgl/src/extra/themes/default/lv_theme_default.c ****             lv_obj_add_style(obj, &styles->bg_color_white, 0);
 500              		.loc 1 683 11 view .LVU150
 501 024c 0028     		cmp	r0, #0
 502 024e 40F08B80 		bne	.L49
 696:lvgl/src/extra/themes/default/lv_theme_default.c ****         lv_obj_add_style(obj, &styles->outline_primary, LV_STATE_FOCUS_KEY);
 503              		.loc 1 696 9 is_stmt 1 view .LVU151
 696:lvgl/src/extra/themes/default/lv_theme_default.c ****         lv_obj_add_style(obj, &styles->outline_primary, LV_STATE_FOCUS_KEY);
 504              		.loc 1 696 38 is_stmt 0 view .LVU152
 505 0252 1E4D     		ldr	r5, .L53+8
 506 0254 2968     		ldr	r1, [r5]
 696:lvgl/src/extra/themes/default/lv_theme_default.c ****         lv_obj_add_style(obj, &styles->outline_primary, LV_STATE_FOCUS_KEY);
 507              		.loc 1 696 9 view .LVU153
 508 0256 0022     		movs	r2, #0
 509 0258 1831     		adds	r1, r1, #24
 510 025a 2046     		mov	r0, r4
 511 025c FFF7FEFF 		bl	lv_obj_add_style
 512              	.LVL63:
 697:lvgl/src/extra/themes/default/lv_theme_default.c ****         lv_obj_add_style(obj, &styles->outline_secondary, LV_STATE_EDITED);
 513              		.loc 1 697 9 is_stmt 1 view .LVU154
 697:lvgl/src/extra/themes/default/lv_theme_default.c ****         lv_obj_add_style(obj, &styles->outline_secondary, LV_STATE_EDITED);
 514              		.loc 1 697 38 is_stmt 0 view .LVU155
 515 0260 2968     		ldr	r1, [r5]
 697:lvgl/src/extra/themes/default/lv_theme_default.c ****         lv_obj_add_style(obj, &styles->outline_secondary, LV_STATE_EDITED);
 516              		.loc 1 697 9 view .LVU156
 517 0262 0422     		movs	r2, #4
 518 0264 A031     		adds	r1, r1, #160
 519 0266 2046     		mov	r0, r4
 520 0268 FFF7FEFF 		bl	lv_obj_add_style
 521              	.LVL64:
 698:lvgl/src/extra/themes/default/lv_theme_default.c ****         lv_obj_add_style(obj, &styles->btn, LV_PART_ITEMS);
 522              		.loc 1 698 9 is_stmt 1 view .LVU157
 698:lvgl/src/extra/themes/default/lv_theme_default.c ****         lv_obj_add_style(obj, &styles->btn, LV_PART_ITEMS);
ARM GAS  /var/folders/k2/cd9bl_j17z77g23y6ffqb_400000gn/T//ccRoPncs.s 			page 30


 523              		.loc 1 698 38 is_stmt 0 view .LVU158
 524 026c 2968     		ldr	r1, [r5]
 698:lvgl/src/extra/themes/default/lv_theme_default.c ****         lv_obj_add_style(obj, &styles->btn, LV_PART_ITEMS);
 525              		.loc 1 698 9 view .LVU159
 526 026e 0822     		movs	r2, #8
 527 0270 A831     		adds	r1, r1, #168
 528 0272 2046     		mov	r0, r4
 529 0274 FFF7FEFF 		bl	lv_obj_add_style
 530              	.LVL65:
 699:lvgl/src/extra/themes/default/lv_theme_default.c ****         lv_obj_add_style(obj, &styles->disabled, LV_PART_ITEMS | LV_STATE_DISABLED);
 531              		.loc 1 699 9 is_stmt 1 view .LVU160
 699:lvgl/src/extra/themes/default/lv_theme_default.c ****         lv_obj_add_style(obj, &styles->disabled, LV_PART_ITEMS | LV_STATE_DISABLED);
 532              		.loc 1 699 38 is_stmt 0 view .LVU161
 533 0278 2968     		ldr	r1, [r5]
 699:lvgl/src/extra/themes/default/lv_theme_default.c ****         lv_obj_add_style(obj, &styles->disabled, LV_PART_ITEMS | LV_STATE_DISABLED);
 534              		.loc 1 699 9 view .LVU162
 535 027a 4FF4A022 		mov	r2, #327680
 536 027e 2031     		adds	r1, r1, #32
 537 0280 2046     		mov	r0, r4
 538 0282 FFF7FEFF 		bl	lv_obj_add_style
 539              	.LVL66:
 700:lvgl/src/extra/themes/default/lv_theme_default.c ****         lv_obj_add_style(obj, &styles->pressed, LV_PART_ITEMS | LV_STATE_PRESSED);
 540              		.loc 1 700 9 is_stmt 1 view .LVU163
 700:lvgl/src/extra/themes/default/lv_theme_default.c ****         lv_obj_add_style(obj, &styles->pressed, LV_PART_ITEMS | LV_STATE_PRESSED);
 541              		.loc 1 700 38 is_stmt 0 view .LVU164
 542 0286 2968     		ldr	r1, [r5]
 700:lvgl/src/extra/themes/default/lv_theme_default.c ****         lv_obj_add_style(obj, &styles->pressed, LV_PART_ITEMS | LV_STATE_PRESSED);
 543              		.loc 1 700 9 view .LVU165
 544 0288 184A     		ldr	r2, .L53+40
 545 028a 6031     		adds	r1, r1, #96
 546 028c 2046     		mov	r0, r4
 547 028e FFF7FEFF 		bl	lv_obj_add_style
 548              	.LVL67:
 701:lvgl/src/extra/themes/default/lv_theme_default.c ****         lv_obj_add_style(obj, &styles->bg_color_primary, LV_PART_ITEMS | LV_STATE_CHECKED);
 549              		.loc 1 701 9 is_stmt 1 view .LVU166
 701:lvgl/src/extra/themes/default/lv_theme_default.c ****         lv_obj_add_style(obj, &styles->bg_color_primary, LV_PART_ITEMS | LV_STATE_CHECKED);
 550              		.loc 1 701 38 is_stmt 0 view .LVU167
 551 0292 2968     		ldr	r1, [r5]
 701:lvgl/src/extra/themes/default/lv_theme_default.c ****         lv_obj_add_style(obj, &styles->bg_color_primary, LV_PART_ITEMS | LV_STATE_CHECKED);
 552              		.loc 1 701 9 view .LVU168
 553 0294 164A     		ldr	r2, .L53+44
 554 0296 5831     		adds	r1, r1, #88
 555 0298 2046     		mov	r0, r4
 556 029a FFF7FEFF 		bl	lv_obj_add_style
 557              	.LVL68:
 702:lvgl/src/extra/themes/default/lv_theme_default.c ****         lv_obj_add_style(obj, &styles->outline_primary, LV_PART_ITEMS | LV_STATE_FOCUS_KEY);
 558              		.loc 1 702 9 is_stmt 1 view .LVU169
 702:lvgl/src/extra/themes/default/lv_theme_default.c ****         lv_obj_add_style(obj, &styles->outline_primary, LV_PART_ITEMS | LV_STATE_FOCUS_KEY);
 559              		.loc 1 702 38 is_stmt 0 view .LVU170
 560 029e 2968     		ldr	r1, [r5]
 702:lvgl/src/extra/themes/default/lv_theme_default.c ****         lv_obj_add_style(obj, &styles->outline_primary, LV_PART_ITEMS | LV_STATE_FOCUS_KEY);
 561              		.loc 1 702 9 view .LVU171
 562 02a0 144A     		ldr	r2, .L53+48
 563 02a2 2831     		adds	r1, r1, #40
 564 02a4 2046     		mov	r0, r4
 565 02a6 FFF7FEFF 		bl	lv_obj_add_style
 566              	.LVL69:
ARM GAS  /var/folders/k2/cd9bl_j17z77g23y6ffqb_400000gn/T//ccRoPncs.s 			page 31


 703:lvgl/src/extra/themes/default/lv_theme_default.c ****         lv_obj_add_style(obj, &styles->outline_secondary, LV_PART_ITEMS | LV_STATE_EDITED);
 567              		.loc 1 703 9 is_stmt 1 view .LVU172
 703:lvgl/src/extra/themes/default/lv_theme_default.c ****         lv_obj_add_style(obj, &styles->outline_secondary, LV_PART_ITEMS | LV_STATE_EDITED);
 568              		.loc 1 703 38 is_stmt 0 view .LVU173
 569 02aa 2968     		ldr	r1, [r5]
 703:lvgl/src/extra/themes/default/lv_theme_default.c ****         lv_obj_add_style(obj, &styles->outline_secondary, LV_PART_ITEMS | LV_STATE_EDITED);
 570              		.loc 1 703 9 view .LVU174
 571 02ac 124A     		ldr	r2, .L53+52
 572 02ae A031     		adds	r1, r1, #160
 573 02b0 2046     		mov	r0, r4
 574 02b2 FFF7FEFF 		bl	lv_obj_add_style
 575              	.LVL70:
 704:lvgl/src/extra/themes/default/lv_theme_default.c ****     }
 576              		.loc 1 704 9 is_stmt 1 view .LVU175
 704:lvgl/src/extra/themes/default/lv_theme_default.c ****     }
 577              		.loc 1 704 38 is_stmt 0 view .LVU176
 578 02b6 2968     		ldr	r1, [r5]
 704:lvgl/src/extra/themes/default/lv_theme_default.c ****     }
 579              		.loc 1 704 9 view .LVU177
 580 02b8 104A     		ldr	r2, .L53+56
 581 02ba A831     		adds	r1, r1, #168
 582 02bc 2046     		mov	r0, r4
 583 02be FFF7FEFF 		bl	lv_obj_add_style
 584              	.LVL71:
 585 02c2 75E7     		b	.L8
 586              	.L54:
 587              		.align	2
 588              	.L53:
 589 02c4 00000000 		.word	lv_obj_class
 590 02c8 00000000 		.word	lv_tabview_class
 591 02cc 00000000 		.word	.LANCHOR0
 592 02d0 40000100 		.word	65600
 593 02d4 00000000 		.word	lv_win_class
 594 02d8 00000000 		.word	lv_btn_class
 595 02dc 00000000 		.word	lv_colorwheel_class
 596 02e0 00000000 		.word	lv_line_class
 597 02e4 00000000 		.word	lv_btnmatrix_class
 598 02e8 00000000 		.word	lv_msgbox_class
 599 02ec 80000500 		.word	327808
 600 02f0 20000500 		.word	327712
 601 02f4 01000500 		.word	327681
 602 02f8 04000500 		.word	327684
 603 02fc 08000500 		.word	327688
 604              	.L48:
 671:lvgl/src/extra/themes/default/lv_theme_default.c ****             lv_obj_add_style(obj, &styles->pad_gap, 0);
 605              		.loc 1 671 13 is_stmt 1 view .LVU178
 671:lvgl/src/extra/themes/default/lv_theme_default.c ****             lv_obj_add_style(obj, &styles->pad_gap, 0);
 606              		.loc 1 671 42 is_stmt 0 view .LVU179
 607 0300 C54D     		ldr	r5, .L55
 608 0302 2968     		ldr	r1, [r5]
 671:lvgl/src/extra/themes/default/lv_theme_default.c ****             lv_obj_add_style(obj, &styles->pad_gap, 0);
 609              		.loc 1 671 13 view .LVU180
 610 0304 0022     		movs	r2, #0
 611 0306 01F5CC71 		add	r1, r1, #408
 612 030a 2046     		mov	r0, r4
 613 030c FFF7FEFF 		bl	lv_obj_add_style
 614              	.LVL72:
ARM GAS  /var/folders/k2/cd9bl_j17z77g23y6ffqb_400000gn/T//ccRoPncs.s 			page 32


 672:lvgl/src/extra/themes/default/lv_theme_default.c ****             lv_obj_add_style(obj, &styles->btn, LV_PART_ITEMS);
 615              		.loc 1 672 13 is_stmt 1 view .LVU181
 672:lvgl/src/extra/themes/default/lv_theme_default.c ****             lv_obj_add_style(obj, &styles->btn, LV_PART_ITEMS);
 616              		.loc 1 672 42 is_stmt 0 view .LVU182
 617 0310 2968     		ldr	r1, [r5]
 672:lvgl/src/extra/themes/default/lv_theme_default.c ****             lv_obj_add_style(obj, &styles->btn, LV_PART_ITEMS);
 618              		.loc 1 672 13 view .LVU183
 619 0312 0022     		movs	r2, #0
 620 0314 8831     		adds	r1, r1, #136
 621 0316 2046     		mov	r0, r4
 622 0318 FFF7FEFF 		bl	lv_obj_add_style
 623              	.LVL73:
 673:lvgl/src/extra/themes/default/lv_theme_default.c ****             lv_obj_add_style(obj, &styles->pressed, LV_PART_ITEMS | LV_STATE_PRESSED);
 624              		.loc 1 673 13 is_stmt 1 view .LVU184
 673:lvgl/src/extra/themes/default/lv_theme_default.c ****             lv_obj_add_style(obj, &styles->pressed, LV_PART_ITEMS | LV_STATE_PRESSED);
 625              		.loc 1 673 42 is_stmt 0 view .LVU185
 626 031c 2968     		ldr	r1, [r5]
 673:lvgl/src/extra/themes/default/lv_theme_default.c ****             lv_obj_add_style(obj, &styles->pressed, LV_PART_ITEMS | LV_STATE_PRESSED);
 627              		.loc 1 673 13 view .LVU186
 628 031e 4FF4A022 		mov	r2, #327680
 629 0322 2031     		adds	r1, r1, #32
 630 0324 2046     		mov	r0, r4
 631 0326 FFF7FEFF 		bl	lv_obj_add_style
 632              	.LVL74:
 674:lvgl/src/extra/themes/default/lv_theme_default.c ****             lv_obj_add_style(obj, &styles->disabled, LV_PART_ITEMS | LV_STATE_DISABLED);
 633              		.loc 1 674 13 is_stmt 1 view .LVU187
 674:lvgl/src/extra/themes/default/lv_theme_default.c ****             lv_obj_add_style(obj, &styles->disabled, LV_PART_ITEMS | LV_STATE_DISABLED);
 634              		.loc 1 674 42 is_stmt 0 view .LVU188
 635 032a 2968     		ldr	r1, [r5]
 674:lvgl/src/extra/themes/default/lv_theme_default.c ****             lv_obj_add_style(obj, &styles->disabled, LV_PART_ITEMS | LV_STATE_DISABLED);
 636              		.loc 1 674 13 view .LVU189
 637 032c BB4A     		ldr	r2, .L55+4
 638 032e 5831     		adds	r1, r1, #88
 639 0330 2046     		mov	r0, r4
 640 0332 FFF7FEFF 		bl	lv_obj_add_style
 641              	.LVL75:
 675:lvgl/src/extra/themes/default/lv_theme_default.c ****             lv_obj_add_style(obj, &styles->bg_color_primary, LV_PART_ITEMS | LV_STATE_CHECKED);
 642              		.loc 1 675 13 is_stmt 1 view .LVU190
 675:lvgl/src/extra/themes/default/lv_theme_default.c ****             lv_obj_add_style(obj, &styles->bg_color_primary, LV_PART_ITEMS | LV_STATE_CHECKED);
 643              		.loc 1 675 42 is_stmt 0 view .LVU191
 644 0336 2968     		ldr	r1, [r5]
 675:lvgl/src/extra/themes/default/lv_theme_default.c ****             lv_obj_add_style(obj, &styles->bg_color_primary, LV_PART_ITEMS | LV_STATE_CHECKED);
 645              		.loc 1 675 13 view .LVU192
 646 0338 B94A     		ldr	r2, .L55+8
 647 033a 6031     		adds	r1, r1, #96
 648 033c 2046     		mov	r0, r4
 649 033e FFF7FEFF 		bl	lv_obj_add_style
 650              	.LVL76:
 676:lvgl/src/extra/themes/default/lv_theme_default.c ****             lv_obj_add_style(obj, &styles->bg_color_primary_muted, LV_PART_ITEMS | LV_STATE_FOCUS_K
 651              		.loc 1 676 13 is_stmt 1 view .LVU193
 676:lvgl/src/extra/themes/default/lv_theme_default.c ****             lv_obj_add_style(obj, &styles->bg_color_primary_muted, LV_PART_ITEMS | LV_STATE_FOCUS_K
 652              		.loc 1 676 42 is_stmt 0 view .LVU194
 653 0342 2968     		ldr	r1, [r5]
 676:lvgl/src/extra/themes/default/lv_theme_default.c ****             lv_obj_add_style(obj, &styles->bg_color_primary_muted, LV_PART_ITEMS | LV_STATE_FOCUS_K
 654              		.loc 1 676 13 view .LVU195
 655 0344 B74A     		ldr	r2, .L55+12
 656 0346 2831     		adds	r1, r1, #40
ARM GAS  /var/folders/k2/cd9bl_j17z77g23y6ffqb_400000gn/T//ccRoPncs.s 			page 33


 657 0348 2046     		mov	r0, r4
 658 034a FFF7FEFF 		bl	lv_obj_add_style
 659              	.LVL77:
 677:lvgl/src/extra/themes/default/lv_theme_default.c ****             lv_obj_add_style(obj, &styles->bg_color_secondary_muted, LV_PART_ITEMS | LV_STATE_EDITE
 660              		.loc 1 677 13 is_stmt 1 view .LVU196
 677:lvgl/src/extra/themes/default/lv_theme_default.c ****             lv_obj_add_style(obj, &styles->bg_color_secondary_muted, LV_PART_ITEMS | LV_STATE_EDITE
 661              		.loc 1 677 42 is_stmt 0 view .LVU197
 662 034e 2968     		ldr	r1, [r5]
 677:lvgl/src/extra/themes/default/lv_theme_default.c ****             lv_obj_add_style(obj, &styles->bg_color_secondary_muted, LV_PART_ITEMS | LV_STATE_EDITE
 663              		.loc 1 677 13 view .LVU198
 664 0350 B54A     		ldr	r2, .L55+16
 665 0352 3031     		adds	r1, r1, #48
 666 0354 2046     		mov	r0, r4
 667 0356 FFF7FEFF 		bl	lv_obj_add_style
 668              	.LVL78:
 678:lvgl/src/extra/themes/default/lv_theme_default.c ****             return;
 669              		.loc 1 678 13 is_stmt 1 view .LVU199
 678:lvgl/src/extra/themes/default/lv_theme_default.c ****             return;
 670              		.loc 1 678 42 is_stmt 0 view .LVU200
 671 035a 2968     		ldr	r1, [r5]
 678:lvgl/src/extra/themes/default/lv_theme_default.c ****             return;
 672              		.loc 1 678 13 view .LVU201
 673 035c B34A     		ldr	r2, .L55+20
 674 035e 4031     		adds	r1, r1, #64
 675 0360 2046     		mov	r0, r4
 676 0362 FFF7FEFF 		bl	lv_obj_add_style
 677              	.LVL79:
 679:lvgl/src/extra/themes/default/lv_theme_default.c ****         }
 678              		.loc 1 679 13 is_stmt 1 view .LVU202
 679 0366 60E6     		b	.L1
 680              	.L49:
 684:lvgl/src/extra/themes/default/lv_theme_default.c ****             lv_obj_add_style(obj, &styles->outline_primary, LV_STATE_FOCUS_KEY);
 681              		.loc 1 684 13 view .LVU203
 684:lvgl/src/extra/themes/default/lv_theme_default.c ****             lv_obj_add_style(obj, &styles->outline_primary, LV_STATE_FOCUS_KEY);
 682              		.loc 1 684 42 is_stmt 0 view .LVU204
 683 0368 AB4D     		ldr	r5, .L55
 684 036a 2968     		ldr	r1, [r5]
 684:lvgl/src/extra/themes/default/lv_theme_default.c ****             lv_obj_add_style(obj, &styles->outline_primary, LV_STATE_FOCUS_KEY);
 685              		.loc 1 684 13 view .LVU205
 686 036c 0022     		movs	r2, #0
 687 036e 5031     		adds	r1, r1, #80
 688 0370 2046     		mov	r0, r4
 689 0372 FFF7FEFF 		bl	lv_obj_add_style
 690              	.LVL80:
 685:lvgl/src/extra/themes/default/lv_theme_default.c ****             lv_obj_add_style(obj, &styles->tab_bg_focus, LV_STATE_FOCUS_KEY);
 691              		.loc 1 685 13 is_stmt 1 view .LVU206
 685:lvgl/src/extra/themes/default/lv_theme_default.c ****             lv_obj_add_style(obj, &styles->tab_bg_focus, LV_STATE_FOCUS_KEY);
 692              		.loc 1 685 42 is_stmt 0 view .LVU207
 693 0376 2968     		ldr	r1, [r5]
 685:lvgl/src/extra/themes/default/lv_theme_default.c ****             lv_obj_add_style(obj, &styles->tab_bg_focus, LV_STATE_FOCUS_KEY);
 694              		.loc 1 685 13 view .LVU208
 695 0378 0422     		movs	r2, #4
 696 037a A031     		adds	r1, r1, #160
 697 037c 2046     		mov	r0, r4
 698 037e FFF7FEFF 		bl	lv_obj_add_style
 699              	.LVL81:
 686:lvgl/src/extra/themes/default/lv_theme_default.c ****             lv_obj_add_style(obj, &styles->pressed, LV_PART_ITEMS | LV_STATE_PRESSED);
ARM GAS  /var/folders/k2/cd9bl_j17z77g23y6ffqb_400000gn/T//ccRoPncs.s 			page 34


 700              		.loc 1 686 13 is_stmt 1 view .LVU209
 686:lvgl/src/extra/themes/default/lv_theme_default.c ****             lv_obj_add_style(obj, &styles->pressed, LV_PART_ITEMS | LV_STATE_PRESSED);
 701              		.loc 1 686 42 is_stmt 0 view .LVU210
 702 0382 2968     		ldr	r1, [r5]
 686:lvgl/src/extra/themes/default/lv_theme_default.c ****             lv_obj_add_style(obj, &styles->pressed, LV_PART_ITEMS | LV_STATE_PRESSED);
 703              		.loc 1 686 13 view .LVU211
 704 0384 0422     		movs	r2, #4
 705 0386 01F5E471 		add	r1, r1, #456
 706 038a 2046     		mov	r0, r4
 707 038c FFF7FEFF 		bl	lv_obj_add_style
 708              	.LVL82:
 687:lvgl/src/extra/themes/default/lv_theme_default.c ****             lv_obj_add_style(obj, &styles->bg_color_primary_muted, LV_PART_ITEMS | LV_STATE_CHECKED
 709              		.loc 1 687 13 is_stmt 1 view .LVU212
 687:lvgl/src/extra/themes/default/lv_theme_default.c ****             lv_obj_add_style(obj, &styles->bg_color_primary_muted, LV_PART_ITEMS | LV_STATE_CHECKED
 710              		.loc 1 687 42 is_stmt 0 view .LVU213
 711 0390 2968     		ldr	r1, [r5]
 687:lvgl/src/extra/themes/default/lv_theme_default.c ****             lv_obj_add_style(obj, &styles->bg_color_primary_muted, LV_PART_ITEMS | LV_STATE_CHECKED
 712              		.loc 1 687 13 view .LVU214
 713 0392 A24A     		ldr	r2, .L55+4
 714 0394 5831     		adds	r1, r1, #88
 715 0396 2046     		mov	r0, r4
 716 0398 FFF7FEFF 		bl	lv_obj_add_style
 717              	.LVL83:
 688:lvgl/src/extra/themes/default/lv_theme_default.c ****             lv_obj_add_style(obj, &styles->tab_btn, LV_PART_ITEMS | LV_STATE_CHECKED);
 718              		.loc 1 688 13 is_stmt 1 view .LVU215
 688:lvgl/src/extra/themes/default/lv_theme_default.c ****             lv_obj_add_style(obj, &styles->tab_btn, LV_PART_ITEMS | LV_STATE_CHECKED);
 719              		.loc 1 688 42 is_stmt 0 view .LVU216
 720 039c 2968     		ldr	r1, [r5]
 688:lvgl/src/extra/themes/default/lv_theme_default.c ****             lv_obj_add_style(obj, &styles->tab_btn, LV_PART_ITEMS | LV_STATE_CHECKED);
 721              		.loc 1 688 13 view .LVU217
 722 039e A14E     		ldr	r6, .L55+12
 723 03a0 3246     		mov	r2, r6
 724 03a2 3031     		adds	r1, r1, #48
 725 03a4 2046     		mov	r0, r4
 726 03a6 FFF7FEFF 		bl	lv_obj_add_style
 727              	.LVL84:
 689:lvgl/src/extra/themes/default/lv_theme_default.c ****             lv_obj_add_style(obj, &styles->outline_primary, LV_PART_ITEMS | LV_STATE_FOCUS_KEY);
 728              		.loc 1 689 13 is_stmt 1 view .LVU218
 689:lvgl/src/extra/themes/default/lv_theme_default.c ****             lv_obj_add_style(obj, &styles->outline_primary, LV_PART_ITEMS | LV_STATE_FOCUS_KEY);
 729              		.loc 1 689 42 is_stmt 0 view .LVU219
 730 03aa 2968     		ldr	r1, [r5]
 689:lvgl/src/extra/themes/default/lv_theme_default.c ****             lv_obj_add_style(obj, &styles->outline_primary, LV_PART_ITEMS | LV_STATE_FOCUS_KEY);
 731              		.loc 1 689 13 view .LVU220
 732 03ac 3246     		mov	r2, r6
 733 03ae 01F5E871 		add	r1, r1, #464
 734 03b2 2046     		mov	r0, r4
 735 03b4 FFF7FEFF 		bl	lv_obj_add_style
 736              	.LVL85:
 690:lvgl/src/extra/themes/default/lv_theme_default.c ****             lv_obj_add_style(obj, &styles->outline_secondary, LV_PART_ITEMS | LV_STATE_EDITED);
 737              		.loc 1 690 13 is_stmt 1 view .LVU221
 690:lvgl/src/extra/themes/default/lv_theme_default.c ****             lv_obj_add_style(obj, &styles->outline_secondary, LV_PART_ITEMS | LV_STATE_EDITED);
 738              		.loc 1 690 42 is_stmt 0 view .LVU222
 739 03b8 2968     		ldr	r1, [r5]
 690:lvgl/src/extra/themes/default/lv_theme_default.c ****             lv_obj_add_style(obj, &styles->outline_secondary, LV_PART_ITEMS | LV_STATE_EDITED);
 740              		.loc 1 690 13 view .LVU223
 741 03ba 0336     		adds	r6, r6, #3
 742 03bc 3246     		mov	r2, r6
ARM GAS  /var/folders/k2/cd9bl_j17z77g23y6ffqb_400000gn/T//ccRoPncs.s 			page 35


 743 03be A031     		adds	r1, r1, #160
 744 03c0 2046     		mov	r0, r4
 745 03c2 FFF7FEFF 		bl	lv_obj_add_style
 746              	.LVL86:
 691:lvgl/src/extra/themes/default/lv_theme_default.c ****             lv_obj_add_style(obj, &styles->tab_bg_focus, LV_PART_ITEMS | LV_STATE_FOCUS_KEY);
 747              		.loc 1 691 13 is_stmt 1 view .LVU224
 691:lvgl/src/extra/themes/default/lv_theme_default.c ****             lv_obj_add_style(obj, &styles->tab_bg_focus, LV_PART_ITEMS | LV_STATE_FOCUS_KEY);
 748              		.loc 1 691 42 is_stmt 0 view .LVU225
 749 03c6 2968     		ldr	r1, [r5]
 691:lvgl/src/extra/themes/default/lv_theme_default.c ****             lv_obj_add_style(obj, &styles->tab_bg_focus, LV_PART_ITEMS | LV_STATE_FOCUS_KEY);
 750              		.loc 1 691 13 view .LVU226
 751 03c8 984A     		ldr	r2, .L55+20
 752 03ca A831     		adds	r1, r1, #168
 753 03cc 2046     		mov	r0, r4
 754 03ce FFF7FEFF 		bl	lv_obj_add_style
 755              	.LVL87:
 692:lvgl/src/extra/themes/default/lv_theme_default.c ****             return;
 756              		.loc 1 692 13 is_stmt 1 view .LVU227
 692:lvgl/src/extra/themes/default/lv_theme_default.c ****             return;
 757              		.loc 1 692 42 is_stmt 0 view .LVU228
 758 03d2 2968     		ldr	r1, [r5]
 692:lvgl/src/extra/themes/default/lv_theme_default.c ****             return;
 759              		.loc 1 692 13 view .LVU229
 760 03d4 3246     		mov	r2, r6
 761 03d6 01F5E471 		add	r1, r1, #456
 762 03da 2046     		mov	r0, r4
 763 03dc FFF7FEFF 		bl	lv_obj_add_style
 764              	.LVL88:
 693:lvgl/src/extra/themes/default/lv_theme_default.c ****         }
 765              		.loc 1 693 13 is_stmt 1 view .LVU230
 766 03e0 23E6     		b	.L1
 767              	.L11:
 709:lvgl/src/extra/themes/default/lv_theme_default.c ****         lv_obj_add_style(obj, &styles->bg_color_primary_muted, 0);
 768              		.loc 1 709 10 view .LVU231
 709:lvgl/src/extra/themes/default/lv_theme_default.c ****         lv_obj_add_style(obj, &styles->bg_color_primary_muted, 0);
 769              		.loc 1 709 13 is_stmt 0 view .LVU232
 770 03e2 9349     		ldr	r1, .L55+24
 771 03e4 2046     		mov	r0, r4
 772 03e6 FFF7FEFF 		bl	lv_obj_check_type
 773              	.LVL89:
 709:lvgl/src/extra/themes/default/lv_theme_default.c ****         lv_obj_add_style(obj, &styles->bg_color_primary_muted, 0);
 774              		.loc 1 709 12 view .LVU233
 775 03ea 38B3     		cbz	r0, .L14
 710:lvgl/src/extra/themes/default/lv_theme_default.c ****         lv_obj_add_style(obj, &styles->circle, 0);
 776              		.loc 1 710 9 is_stmt 1 view .LVU234
 710:lvgl/src/extra/themes/default/lv_theme_default.c ****         lv_obj_add_style(obj, &styles->circle, 0);
 777              		.loc 1 710 38 is_stmt 0 view .LVU235
 778 03ec 8A4D     		ldr	r5, .L55
 779 03ee 2968     		ldr	r1, [r5]
 710:lvgl/src/extra/themes/default/lv_theme_default.c ****         lv_obj_add_style(obj, &styles->circle, 0);
 780              		.loc 1 710 9 view .LVU236
 781 03f0 0022     		movs	r2, #0
 782 03f2 3031     		adds	r1, r1, #48
 783 03f4 2046     		mov	r0, r4
 784 03f6 FFF7FEFF 		bl	lv_obj_add_style
 785              	.LVL90:
 711:lvgl/src/extra/themes/default/lv_theme_default.c ****         lv_obj_add_style(obj, &styles->outline_primary, LV_STATE_FOCUS_KEY);
ARM GAS  /var/folders/k2/cd9bl_j17z77g23y6ffqb_400000gn/T//ccRoPncs.s 			page 36


 786              		.loc 1 711 9 is_stmt 1 view .LVU237
 711:lvgl/src/extra/themes/default/lv_theme_default.c ****         lv_obj_add_style(obj, &styles->outline_primary, LV_STATE_FOCUS_KEY);
 787              		.loc 1 711 38 is_stmt 0 view .LVU238
 788 03fa 2968     		ldr	r1, [r5]
 711:lvgl/src/extra/themes/default/lv_theme_default.c ****         lv_obj_add_style(obj, &styles->outline_primary, LV_STATE_FOCUS_KEY);
 789              		.loc 1 711 9 view .LVU239
 790 03fc 0022     		movs	r2, #0
 791 03fe B031     		adds	r1, r1, #176
 792 0400 2046     		mov	r0, r4
 793 0402 FFF7FEFF 		bl	lv_obj_add_style
 794              	.LVL91:
 712:lvgl/src/extra/themes/default/lv_theme_default.c ****         lv_obj_add_style(obj, &styles->outline_secondary, LV_STATE_EDITED);
 795              		.loc 1 712 9 is_stmt 1 view .LVU240
 712:lvgl/src/extra/themes/default/lv_theme_default.c ****         lv_obj_add_style(obj, &styles->outline_secondary, LV_STATE_EDITED);
 796              		.loc 1 712 38 is_stmt 0 view .LVU241
 797 0406 2968     		ldr	r1, [r5]
 712:lvgl/src/extra/themes/default/lv_theme_default.c ****         lv_obj_add_style(obj, &styles->outline_secondary, LV_STATE_EDITED);
 798              		.loc 1 712 9 view .LVU242
 799 0408 0422     		movs	r2, #4
 800 040a A031     		adds	r1, r1, #160
 801 040c 2046     		mov	r0, r4
 802 040e FFF7FEFF 		bl	lv_obj_add_style
 803              	.LVL92:
 713:lvgl/src/extra/themes/default/lv_theme_default.c ****         lv_obj_add_style(obj, &styles->bg_color_primary, LV_PART_INDICATOR);
 804              		.loc 1 713 9 is_stmt 1 view .LVU243
 713:lvgl/src/extra/themes/default/lv_theme_default.c ****         lv_obj_add_style(obj, &styles->bg_color_primary, LV_PART_INDICATOR);
 805              		.loc 1 713 38 is_stmt 0 view .LVU244
 806 0412 2968     		ldr	r1, [r5]
 713:lvgl/src/extra/themes/default/lv_theme_default.c ****         lv_obj_add_style(obj, &styles->bg_color_primary, LV_PART_INDICATOR);
 807              		.loc 1 713 9 view .LVU245
 808 0414 0822     		movs	r2, #8
 809 0416 A831     		adds	r1, r1, #168
 810 0418 2046     		mov	r0, r4
 811 041a FFF7FEFF 		bl	lv_obj_add_style
 812              	.LVL93:
 714:lvgl/src/extra/themes/default/lv_theme_default.c ****         lv_obj_add_style(obj, &styles->circle, LV_PART_INDICATOR);
 813              		.loc 1 714 9 is_stmt 1 view .LVU246
 714:lvgl/src/extra/themes/default/lv_theme_default.c ****         lv_obj_add_style(obj, &styles->circle, LV_PART_INDICATOR);
 814              		.loc 1 714 38 is_stmt 0 view .LVU247
 815 041e 2968     		ldr	r1, [r5]
 714:lvgl/src/extra/themes/default/lv_theme_default.c ****         lv_obj_add_style(obj, &styles->circle, LV_PART_INDICATOR);
 816              		.loc 1 714 9 view .LVU248
 817 0420 4FF40032 		mov	r2, #131072
 818 0424 2831     		adds	r1, r1, #40
 819 0426 2046     		mov	r0, r4
 820 0428 FFF7FEFF 		bl	lv_obj_add_style
 821              	.LVL94:
 715:lvgl/src/extra/themes/default/lv_theme_default.c ****     }
 822              		.loc 1 715 9 is_stmt 1 view .LVU249
 715:lvgl/src/extra/themes/default/lv_theme_default.c ****     }
 823              		.loc 1 715 38 is_stmt 0 view .LVU250
 824 042c 2968     		ldr	r1, [r5]
 715:lvgl/src/extra/themes/default/lv_theme_default.c ****     }
 825              		.loc 1 715 9 view .LVU251
 826 042e 4FF40032 		mov	r2, #131072
 827 0432 B031     		adds	r1, r1, #176
 828 0434 2046     		mov	r0, r4
ARM GAS  /var/folders/k2/cd9bl_j17z77g23y6ffqb_400000gn/T//ccRoPncs.s 			page 37


 829 0436 FFF7FEFF 		bl	lv_obj_add_style
 830              	.LVL95:
 831 043a B9E6     		b	.L8
 832              	.L14:
 720:lvgl/src/extra/themes/default/lv_theme_default.c ****         lv_obj_add_style(obj, &styles->bg_color_primary_muted, 0);
 833              		.loc 1 720 10 is_stmt 1 view .LVU252
 720:lvgl/src/extra/themes/default/lv_theme_default.c ****         lv_obj_add_style(obj, &styles->bg_color_primary_muted, 0);
 834              		.loc 1 720 13 is_stmt 0 view .LVU253
 835 043c 7D49     		ldr	r1, .L55+28
 836 043e 2046     		mov	r0, r4
 837 0440 FFF7FEFF 		bl	lv_obj_check_type
 838              	.LVL96:
 720:lvgl/src/extra/themes/default/lv_theme_default.c ****         lv_obj_add_style(obj, &styles->bg_color_primary_muted, 0);
 839              		.loc 1 720 12 view .LVU254
 840 0444 0028     		cmp	r0, #0
 841 0446 42D0     		beq	.L15
 721:lvgl/src/extra/themes/default/lv_theme_default.c ****         lv_obj_add_style(obj, &styles->circle, 0);
 842              		.loc 1 721 9 is_stmt 1 view .LVU255
 721:lvgl/src/extra/themes/default/lv_theme_default.c ****         lv_obj_add_style(obj, &styles->circle, 0);
 843              		.loc 1 721 38 is_stmt 0 view .LVU256
 844 0448 734D     		ldr	r5, .L55
 845 044a 2968     		ldr	r1, [r5]
 721:lvgl/src/extra/themes/default/lv_theme_default.c ****         lv_obj_add_style(obj, &styles->circle, 0);
 846              		.loc 1 721 9 view .LVU257
 847 044c 0022     		movs	r2, #0
 848 044e 3031     		adds	r1, r1, #48
 849 0450 2046     		mov	r0, r4
 850 0452 FFF7FEFF 		bl	lv_obj_add_style
 851              	.LVL97:
 722:lvgl/src/extra/themes/default/lv_theme_default.c ****         lv_obj_add_style(obj, &styles->outline_primary, LV_STATE_FOCUS_KEY);
 852              		.loc 1 722 9 is_stmt 1 view .LVU258
 722:lvgl/src/extra/themes/default/lv_theme_default.c ****         lv_obj_add_style(obj, &styles->outline_primary, LV_STATE_FOCUS_KEY);
 853              		.loc 1 722 38 is_stmt 0 view .LVU259
 854 0456 2968     		ldr	r1, [r5]
 722:lvgl/src/extra/themes/default/lv_theme_default.c ****         lv_obj_add_style(obj, &styles->outline_primary, LV_STATE_FOCUS_KEY);
 855              		.loc 1 722 9 view .LVU260
 856 0458 0022     		movs	r2, #0
 857 045a B031     		adds	r1, r1, #176
 858 045c 2046     		mov	r0, r4
 859 045e FFF7FEFF 		bl	lv_obj_add_style
 860              	.LVL98:
 723:lvgl/src/extra/themes/default/lv_theme_default.c ****         lv_obj_add_style(obj, &styles->outline_secondary, LV_STATE_EDITED);
 861              		.loc 1 723 9 is_stmt 1 view .LVU261
 723:lvgl/src/extra/themes/default/lv_theme_default.c ****         lv_obj_add_style(obj, &styles->outline_secondary, LV_STATE_EDITED);
 862              		.loc 1 723 38 is_stmt 0 view .LVU262
 863 0462 2968     		ldr	r1, [r5]
 723:lvgl/src/extra/themes/default/lv_theme_default.c ****         lv_obj_add_style(obj, &styles->outline_secondary, LV_STATE_EDITED);
 864              		.loc 1 723 9 view .LVU263
 865 0464 0422     		movs	r2, #4
 866 0466 A031     		adds	r1, r1, #160
 867 0468 2046     		mov	r0, r4
 868 046a FFF7FEFF 		bl	lv_obj_add_style
 869              	.LVL99:
 724:lvgl/src/extra/themes/default/lv_theme_default.c ****         lv_obj_add_style(obj, &styles->bg_color_primary, LV_PART_INDICATOR);
 870              		.loc 1 724 9 is_stmt 1 view .LVU264
 724:lvgl/src/extra/themes/default/lv_theme_default.c ****         lv_obj_add_style(obj, &styles->bg_color_primary, LV_PART_INDICATOR);
 871              		.loc 1 724 38 is_stmt 0 view .LVU265
ARM GAS  /var/folders/k2/cd9bl_j17z77g23y6ffqb_400000gn/T//ccRoPncs.s 			page 38


 872 046e 2968     		ldr	r1, [r5]
 724:lvgl/src/extra/themes/default/lv_theme_default.c ****         lv_obj_add_style(obj, &styles->bg_color_primary, LV_PART_INDICATOR);
 873              		.loc 1 724 9 view .LVU266
 874 0470 0822     		movs	r2, #8
 875 0472 A831     		adds	r1, r1, #168
 876 0474 2046     		mov	r0, r4
 877 0476 FFF7FEFF 		bl	lv_obj_add_style
 878              	.LVL100:
 725:lvgl/src/extra/themes/default/lv_theme_default.c ****         lv_obj_add_style(obj, &styles->circle, LV_PART_INDICATOR);
 879              		.loc 1 725 9 is_stmt 1 view .LVU267
 725:lvgl/src/extra/themes/default/lv_theme_default.c ****         lv_obj_add_style(obj, &styles->circle, LV_PART_INDICATOR);
 880              		.loc 1 725 38 is_stmt 0 view .LVU268
 881 047a 2968     		ldr	r1, [r5]
 725:lvgl/src/extra/themes/default/lv_theme_default.c ****         lv_obj_add_style(obj, &styles->circle, LV_PART_INDICATOR);
 882              		.loc 1 725 9 view .LVU269
 883 047c 4FF40032 		mov	r2, #131072
 884 0480 2831     		adds	r1, r1, #40
 885 0482 2046     		mov	r0, r4
 886 0484 FFF7FEFF 		bl	lv_obj_add_style
 887              	.LVL101:
 726:lvgl/src/extra/themes/default/lv_theme_default.c ****         lv_obj_add_style(obj, &styles->knob, LV_PART_KNOB);
 888              		.loc 1 726 9 is_stmt 1 view .LVU270
 726:lvgl/src/extra/themes/default/lv_theme_default.c ****         lv_obj_add_style(obj, &styles->knob, LV_PART_KNOB);
 889              		.loc 1 726 38 is_stmt 0 view .LVU271
 890 0488 2968     		ldr	r1, [r5]
 726:lvgl/src/extra/themes/default/lv_theme_default.c ****         lv_obj_add_style(obj, &styles->knob, LV_PART_KNOB);
 891              		.loc 1 726 9 view .LVU272
 892 048a 4FF40032 		mov	r2, #131072
 893 048e B031     		adds	r1, r1, #176
 894 0490 2046     		mov	r0, r4
 895 0492 FFF7FEFF 		bl	lv_obj_add_style
 896              	.LVL102:
 727:lvgl/src/extra/themes/default/lv_theme_default.c **** #if LV_THEME_DEFAULT_GROW
 897              		.loc 1 727 9 is_stmt 1 view .LVU273
 727:lvgl/src/extra/themes/default/lv_theme_default.c **** #if LV_THEME_DEFAULT_GROW
 898              		.loc 1 727 38 is_stmt 0 view .LVU274
 899 0496 2968     		ldr	r1, [r5]
 727:lvgl/src/extra/themes/default/lv_theme_default.c **** #if LV_THEME_DEFAULT_GROW
 900              		.loc 1 727 9 view .LVU275
 901 0498 4FF44032 		mov	r2, #196608
 902 049c E831     		adds	r1, r1, #232
 903 049e 2046     		mov	r0, r4
 904 04a0 FFF7FEFF 		bl	lv_obj_add_style
 905              	.LVL103:
 729:lvgl/src/extra/themes/default/lv_theme_default.c **** #endif
 906              		.loc 1 729 9 is_stmt 1 view .LVU276
 729:lvgl/src/extra/themes/default/lv_theme_default.c **** #endif
 907              		.loc 1 729 38 is_stmt 0 view .LVU277
 908 04a4 2968     		ldr	r1, [r5]
 729:lvgl/src/extra/themes/default/lv_theme_default.c **** #endif
 909              		.loc 1 729 9 view .LVU278
 910 04a6 644E     		ldr	r6, .L55+32
 911 04a8 3246     		mov	r2, r6
 912 04aa C831     		adds	r1, r1, #200
 913 04ac 2046     		mov	r0, r4
 914 04ae FFF7FEFF 		bl	lv_obj_add_style
 915              	.LVL104:
ARM GAS  /var/folders/k2/cd9bl_j17z77g23y6ffqb_400000gn/T//ccRoPncs.s 			page 39


 731:lvgl/src/extra/themes/default/lv_theme_default.c ****         lv_obj_add_style(obj, &styles->transition_normal, LV_PART_KNOB | LV_STATE_PRESSED);
 916              		.loc 1 731 9 is_stmt 1 view .LVU279
 731:lvgl/src/extra/themes/default/lv_theme_default.c ****         lv_obj_add_style(obj, &styles->transition_normal, LV_PART_KNOB | LV_STATE_PRESSED);
 917              		.loc 1 731 38 is_stmt 0 view .LVU280
 918 04b2 2968     		ldr	r1, [r5]
 731:lvgl/src/extra/themes/default/lv_theme_default.c ****         lv_obj_add_style(obj, &styles->transition_normal, LV_PART_KNOB | LV_STATE_PRESSED);
 919              		.loc 1 731 9 view .LVU281
 920 04b4 4FF44032 		mov	r2, #196608
 921 04b8 D031     		adds	r1, r1, #208
 922 04ba 2046     		mov	r0, r4
 923 04bc FFF7FEFF 		bl	lv_obj_add_style
 924              	.LVL105:
 732:lvgl/src/extra/themes/default/lv_theme_default.c ****     }
 925              		.loc 1 732 9 is_stmt 1 view .LVU282
 732:lvgl/src/extra/themes/default/lv_theme_default.c ****     }
 926              		.loc 1 732 38 is_stmt 0 view .LVU283
 927 04c0 2968     		ldr	r1, [r5]
 732:lvgl/src/extra/themes/default/lv_theme_default.c ****     }
 928              		.loc 1 732 9 view .LVU284
 929 04c2 3246     		mov	r2, r6
 930 04c4 D831     		adds	r1, r1, #216
 931 04c6 2046     		mov	r0, r4
 932 04c8 FFF7FEFF 		bl	lv_obj_add_style
 933              	.LVL106:
 934 04cc 70E6     		b	.L8
 935              	.L15:
 737:lvgl/src/extra/themes/default/lv_theme_default.c ****         lv_obj_add_style(obj, &styles->card, 0);
 936              		.loc 1 737 10 is_stmt 1 view .LVU285
 737:lvgl/src/extra/themes/default/lv_theme_default.c ****         lv_obj_add_style(obj, &styles->card, 0);
 937              		.loc 1 737 13 is_stmt 0 view .LVU286
 938 04ce 5B49     		ldr	r1, .L55+36
 939 04d0 2046     		mov	r0, r4
 940 04d2 FFF7FEFF 		bl	lv_obj_check_type
 941              	.LVL107:
 737:lvgl/src/extra/themes/default/lv_theme_default.c ****         lv_obj_add_style(obj, &styles->card, 0);
 942              		.loc 1 737 12 view .LVU287
 943 04d6 0028     		cmp	r0, #0
 944 04d8 54D0     		beq	.L16
 738:lvgl/src/extra/themes/default/lv_theme_default.c ****         lv_obj_add_style(obj, &styles->pad_zero, 0);
 945              		.loc 1 738 9 is_stmt 1 view .LVU288
 738:lvgl/src/extra/themes/default/lv_theme_default.c ****         lv_obj_add_style(obj, &styles->pad_zero, 0);
 946              		.loc 1 738 38 is_stmt 0 view .LVU289
 947 04da 4F4D     		ldr	r5, .L55
 948 04dc 2968     		ldr	r1, [r5]
 738:lvgl/src/extra/themes/default/lv_theme_default.c ****         lv_obj_add_style(obj, &styles->pad_zero, 0);
 949              		.loc 1 738 9 view .LVU290
 950 04de 0022     		movs	r2, #0
 951 04e0 1831     		adds	r1, r1, #24
 952 04e2 2046     		mov	r0, r4
 953 04e4 FFF7FEFF 		bl	lv_obj_add_style
 954              	.LVL108:
 739:lvgl/src/extra/themes/default/lv_theme_default.c ****         lv_obj_add_style(obj, &styles->no_radius, 0);
 955              		.loc 1 739 9 is_stmt 1 view .LVU291
 739:lvgl/src/extra/themes/default/lv_theme_default.c ****         lv_obj_add_style(obj, &styles->no_radius, 0);
 956              		.loc 1 739 38 is_stmt 0 view .LVU292
 957 04e8 2968     		ldr	r1, [r5]
 739:lvgl/src/extra/themes/default/lv_theme_default.c ****         lv_obj_add_style(obj, &styles->no_radius, 0);
ARM GAS  /var/folders/k2/cd9bl_j17z77g23y6ffqb_400000gn/T//ccRoPncs.s 			page 40


 958              		.loc 1 739 9 view .LVU293
 959 04ea 0022     		movs	r2, #0
 960 04ec 6831     		adds	r1, r1, #104
 961 04ee 2046     		mov	r0, r4
 962 04f0 FFF7FEFF 		bl	lv_obj_add_style
 963              	.LVL109:
 740:lvgl/src/extra/themes/default/lv_theme_default.c ****         lv_obj_add_style(obj, &styles->outline_primary, LV_STATE_FOCUS_KEY);
 964              		.loc 1 740 9 is_stmt 1 view .LVU294
 740:lvgl/src/extra/themes/default/lv_theme_default.c ****         lv_obj_add_style(obj, &styles->outline_primary, LV_STATE_FOCUS_KEY);
 965              		.loc 1 740 38 is_stmt 0 view .LVU295
 966 04f4 2968     		ldr	r1, [r5]
 740:lvgl/src/extra/themes/default/lv_theme_default.c ****         lv_obj_add_style(obj, &styles->outline_primary, LV_STATE_FOCUS_KEY);
 967              		.loc 1 740 9 view .LVU296
 968 04f6 0022     		movs	r2, #0
 969 04f8 B831     		adds	r1, r1, #184
 970 04fa 2046     		mov	r0, r4
 971 04fc FFF7FEFF 		bl	lv_obj_add_style
 972              	.LVL110:
 741:lvgl/src/extra/themes/default/lv_theme_default.c ****         lv_obj_add_style(obj, &styles->outline_secondary, LV_STATE_EDITED);
 973              		.loc 1 741 9 is_stmt 1 view .LVU297
 741:lvgl/src/extra/themes/default/lv_theme_default.c ****         lv_obj_add_style(obj, &styles->outline_secondary, LV_STATE_EDITED);
 974              		.loc 1 741 38 is_stmt 0 view .LVU298
 975 0500 2968     		ldr	r1, [r5]
 741:lvgl/src/extra/themes/default/lv_theme_default.c ****         lv_obj_add_style(obj, &styles->outline_secondary, LV_STATE_EDITED);
 976              		.loc 1 741 9 view .LVU299
 977 0502 0422     		movs	r2, #4
 978 0504 A031     		adds	r1, r1, #160
 979 0506 2046     		mov	r0, r4
 980 0508 FFF7FEFF 		bl	lv_obj_add_style
 981              	.LVL111:
 742:lvgl/src/extra/themes/default/lv_theme_default.c ****         lv_obj_add_style(obj, &styles->scrollbar, LV_PART_SCROLLBAR);
 982              		.loc 1 742 9 is_stmt 1 view .LVU300
 742:lvgl/src/extra/themes/default/lv_theme_default.c ****         lv_obj_add_style(obj, &styles->scrollbar, LV_PART_SCROLLBAR);
 983              		.loc 1 742 38 is_stmt 0 view .LVU301
 984 050c 2968     		ldr	r1, [r5]
 742:lvgl/src/extra/themes/default/lv_theme_default.c ****         lv_obj_add_style(obj, &styles->scrollbar, LV_PART_SCROLLBAR);
 985              		.loc 1 742 9 view .LVU302
 986 050e 0822     		movs	r2, #8
 987 0510 A831     		adds	r1, r1, #168
 988 0512 2046     		mov	r0, r4
 989 0514 FFF7FEFF 		bl	lv_obj_add_style
 990              	.LVL112:
 743:lvgl/src/extra/themes/default/lv_theme_default.c ****         lv_obj_add_style(obj, &styles->scrollbar_scrolled, LV_PART_SCROLLBAR | LV_STATE_SCROLLED);
 991              		.loc 1 743 9 is_stmt 1 view .LVU303
 743:lvgl/src/extra/themes/default/lv_theme_default.c ****         lv_obj_add_style(obj, &styles->scrollbar_scrolled, LV_PART_SCROLLBAR | LV_STATE_SCROLLED);
 992              		.loc 1 743 38 is_stmt 0 view .LVU304
 993 0518 2968     		ldr	r1, [r5]
 743:lvgl/src/extra/themes/default/lv_theme_default.c ****         lv_obj_add_style(obj, &styles->scrollbar_scrolled, LV_PART_SCROLLBAR | LV_STATE_SCROLLED);
 994              		.loc 1 743 9 view .LVU305
 995 051a 4FF48032 		mov	r2, #65536
 996 051e 0831     		adds	r1, r1, #8
 997 0520 2046     		mov	r0, r4
 998 0522 FFF7FEFF 		bl	lv_obj_add_style
 999              	.LVL113:
 744:lvgl/src/extra/themes/default/lv_theme_default.c ****         lv_obj_add_style(obj, &styles->bg_color_white, LV_PART_ITEMS);
 1000              		.loc 1 744 9 is_stmt 1 view .LVU306
 744:lvgl/src/extra/themes/default/lv_theme_default.c ****         lv_obj_add_style(obj, &styles->bg_color_white, LV_PART_ITEMS);
ARM GAS  /var/folders/k2/cd9bl_j17z77g23y6ffqb_400000gn/T//ccRoPncs.s 			page 41


 1001              		.loc 1 744 38 is_stmt 0 view .LVU307
 1002 0526 2968     		ldr	r1, [r5]
 744:lvgl/src/extra/themes/default/lv_theme_default.c ****         lv_obj_add_style(obj, &styles->bg_color_white, LV_PART_ITEMS);
 1003              		.loc 1 744 9 view .LVU308
 1004 0528 454A     		ldr	r2, .L55+40
 1005 052a 1031     		adds	r1, r1, #16
 1006 052c 2046     		mov	r0, r4
 1007 052e FFF7FEFF 		bl	lv_obj_add_style
 1008              	.LVL114:
 745:lvgl/src/extra/themes/default/lv_theme_default.c ****         lv_obj_add_style(obj, &styles->table_cell, LV_PART_ITEMS);
 1009              		.loc 1 745 9 is_stmt 1 view .LVU309
 745:lvgl/src/extra/themes/default/lv_theme_default.c ****         lv_obj_add_style(obj, &styles->table_cell, LV_PART_ITEMS);
 1010              		.loc 1 745 38 is_stmt 0 view .LVU310
 1011 0532 2968     		ldr	r1, [r5]
 745:lvgl/src/extra/themes/default/lv_theme_default.c ****         lv_obj_add_style(obj, &styles->table_cell, LV_PART_ITEMS);
 1012              		.loc 1 745 9 view .LVU311
 1013 0534 4FF4A022 		mov	r2, #327680
 1014 0538 5031     		adds	r1, r1, #80
 1015 053a 2046     		mov	r0, r4
 1016 053c FFF7FEFF 		bl	lv_obj_add_style
 1017              	.LVL115:
 746:lvgl/src/extra/themes/default/lv_theme_default.c ****         lv_obj_add_style(obj, &styles->pad_normal, LV_PART_ITEMS);
 1018              		.loc 1 746 9 is_stmt 1 view .LVU312
 746:lvgl/src/extra/themes/default/lv_theme_default.c ****         lv_obj_add_style(obj, &styles->pad_normal, LV_PART_ITEMS);
 1019              		.loc 1 746 38 is_stmt 0 view .LVU313
 1020 0540 2968     		ldr	r1, [r5]
 746:lvgl/src/extra/themes/default/lv_theme_default.c ****         lv_obj_add_style(obj, &styles->pad_normal, LV_PART_ITEMS);
 1021              		.loc 1 746 9 view .LVU314
 1022 0542 4FF4A022 		mov	r2, #327680
 1023 0546 01F5A871 		add	r1, r1, #336
 1024 054a 2046     		mov	r0, r4
 1025 054c FFF7FEFF 		bl	lv_obj_add_style
 1026              	.LVL116:
 747:lvgl/src/extra/themes/default/lv_theme_default.c ****         lv_obj_add_style(obj, &styles->pressed, LV_PART_ITEMS | LV_STATE_PRESSED);
 1027              		.loc 1 747 9 is_stmt 1 view .LVU315
 747:lvgl/src/extra/themes/default/lv_theme_default.c ****         lv_obj_add_style(obj, &styles->pressed, LV_PART_ITEMS | LV_STATE_PRESSED);
 1028              		.loc 1 747 38 is_stmt 0 view .LVU316
 1029 0550 2968     		ldr	r1, [r5]
 747:lvgl/src/extra/themes/default/lv_theme_default.c ****         lv_obj_add_style(obj, &styles->pressed, LV_PART_ITEMS | LV_STATE_PRESSED);
 1030              		.loc 1 747 9 view .LVU317
 1031 0552 4FF4A022 		mov	r2, #327680
 1032 0556 8031     		adds	r1, r1, #128
 1033 0558 2046     		mov	r0, r4
 1034 055a FFF7FEFF 		bl	lv_obj_add_style
 1035              	.LVL117:
 748:lvgl/src/extra/themes/default/lv_theme_default.c ****         lv_obj_add_style(obj, &styles->bg_color_primary, LV_PART_ITEMS | LV_STATE_FOCUS_KEY);
 1036              		.loc 1 748 9 is_stmt 1 view .LVU318
 748:lvgl/src/extra/themes/default/lv_theme_default.c ****         lv_obj_add_style(obj, &styles->bg_color_primary, LV_PART_ITEMS | LV_STATE_FOCUS_KEY);
 1037              		.loc 1 748 38 is_stmt 0 view .LVU319
 1038 055e 2968     		ldr	r1, [r5]
 748:lvgl/src/extra/themes/default/lv_theme_default.c ****         lv_obj_add_style(obj, &styles->bg_color_primary, LV_PART_ITEMS | LV_STATE_FOCUS_KEY);
 1039              		.loc 1 748 9 view .LVU320
 1040 0560 2E4A     		ldr	r2, .L55+4
 1041 0562 5831     		adds	r1, r1, #88
 1042 0564 2046     		mov	r0, r4
 1043 0566 FFF7FEFF 		bl	lv_obj_add_style
 1044              	.LVL118:
ARM GAS  /var/folders/k2/cd9bl_j17z77g23y6ffqb_400000gn/T//ccRoPncs.s 			page 42


 749:lvgl/src/extra/themes/default/lv_theme_default.c ****         lv_obj_add_style(obj, &styles->bg_color_secondary, LV_PART_ITEMS | LV_STATE_EDITED);
 1045              		.loc 1 749 9 is_stmt 1 view .LVU321
 749:lvgl/src/extra/themes/default/lv_theme_default.c ****         lv_obj_add_style(obj, &styles->bg_color_secondary, LV_PART_ITEMS | LV_STATE_EDITED);
 1046              		.loc 1 749 38 is_stmt 0 view .LVU322
 1047 056a 2968     		ldr	r1, [r5]
 749:lvgl/src/extra/themes/default/lv_theme_default.c ****         lv_obj_add_style(obj, &styles->bg_color_secondary, LV_PART_ITEMS | LV_STATE_EDITED);
 1048              		.loc 1 749 9 view .LVU323
 1049 056c 2E4A     		ldr	r2, .L55+16
 1050 056e 2831     		adds	r1, r1, #40
 1051 0570 2046     		mov	r0, r4
 1052 0572 FFF7FEFF 		bl	lv_obj_add_style
 1053              	.LVL119:
 750:lvgl/src/extra/themes/default/lv_theme_default.c ****     }
 1054              		.loc 1 750 9 is_stmt 1 view .LVU324
 750:lvgl/src/extra/themes/default/lv_theme_default.c ****     }
 1055              		.loc 1 750 38 is_stmt 0 view .LVU325
 1056 0576 2968     		ldr	r1, [r5]
 750:lvgl/src/extra/themes/default/lv_theme_default.c ****     }
 1057              		.loc 1 750 9 view .LVU326
 1058 0578 2C4A     		ldr	r2, .L55+20
 1059 057a 3831     		adds	r1, r1, #56
 1060 057c 2046     		mov	r0, r4
 1061 057e FFF7FEFF 		bl	lv_obj_add_style
 1062              	.LVL120:
 1063 0582 15E6     		b	.L8
 1064              	.L16:
 755:lvgl/src/extra/themes/default/lv_theme_default.c ****         lv_obj_add_style(obj, &styles->pad_gap, 0);
 1065              		.loc 1 755 10 is_stmt 1 view .LVU327
 755:lvgl/src/extra/themes/default/lv_theme_default.c ****         lv_obj_add_style(obj, &styles->pad_gap, 0);
 1066              		.loc 1 755 13 is_stmt 0 view .LVU328
 1067 0584 2F49     		ldr	r1, .L55+44
 1068 0586 2046     		mov	r0, r4
 1069 0588 FFF7FEFF 		bl	lv_obj_check_type
 1070              	.LVL121:
 755:lvgl/src/extra/themes/default/lv_theme_default.c ****         lv_obj_add_style(obj, &styles->pad_gap, 0);
 1071              		.loc 1 755 12 view .LVU329
 1072 058c 0028     		cmp	r0, #0
 1073 058e 5FD0     		beq	.L17
 756:lvgl/src/extra/themes/default/lv_theme_default.c ****         lv_obj_add_style(obj, &styles->outline_primary, LV_STATE_FOCUS_KEY);
 1074              		.loc 1 756 9 is_stmt 1 view .LVU330
 756:lvgl/src/extra/themes/default/lv_theme_default.c ****         lv_obj_add_style(obj, &styles->outline_primary, LV_STATE_FOCUS_KEY);
 1075              		.loc 1 756 38 is_stmt 0 view .LVU331
 1076 0590 214D     		ldr	r5, .L55
 1077 0592 2968     		ldr	r1, [r5]
 756:lvgl/src/extra/themes/default/lv_theme_default.c ****         lv_obj_add_style(obj, &styles->outline_primary, LV_STATE_FOCUS_KEY);
 1078              		.loc 1 756 9 view .LVU332
 1079 0594 0022     		movs	r2, #0
 1080 0596 8831     		adds	r1, r1, #136
 1081 0598 2046     		mov	r0, r4
 1082 059a FFF7FEFF 		bl	lv_obj_add_style
 1083              	.LVL122:
 757:lvgl/src/extra/themes/default/lv_theme_default.c ****         lv_obj_add_style(obj, &styles->disabled, LV_PART_INDICATOR | LV_STATE_DISABLED);
 1084              		.loc 1 757 9 is_stmt 1 view .LVU333
 757:lvgl/src/extra/themes/default/lv_theme_default.c ****         lv_obj_add_style(obj, &styles->disabled, LV_PART_INDICATOR | LV_STATE_DISABLED);
 1085              		.loc 1 757 38 is_stmt 0 view .LVU334
 1086 059e 2968     		ldr	r1, [r5]
 757:lvgl/src/extra/themes/default/lv_theme_default.c ****         lv_obj_add_style(obj, &styles->disabled, LV_PART_INDICATOR | LV_STATE_DISABLED);
ARM GAS  /var/folders/k2/cd9bl_j17z77g23y6ffqb_400000gn/T//ccRoPncs.s 			page 43


 1087              		.loc 1 757 9 view .LVU335
 1088 05a0 0422     		movs	r2, #4
 1089 05a2 A031     		adds	r1, r1, #160
 1090 05a4 2046     		mov	r0, r4
 1091 05a6 FFF7FEFF 		bl	lv_obj_add_style
 1092              	.LVL123:
 758:lvgl/src/extra/themes/default/lv_theme_default.c ****         lv_obj_add_style(obj, &styles->cb_marker, LV_PART_INDICATOR);
 1093              		.loc 1 758 9 is_stmt 1 view .LVU336
 758:lvgl/src/extra/themes/default/lv_theme_default.c ****         lv_obj_add_style(obj, &styles->cb_marker, LV_PART_INDICATOR);
 1094              		.loc 1 758 38 is_stmt 0 view .LVU337
 1095 05aa 2968     		ldr	r1, [r5]
 758:lvgl/src/extra/themes/default/lv_theme_default.c ****         lv_obj_add_style(obj, &styles->cb_marker, LV_PART_INDICATOR);
 1096              		.loc 1 758 9 view .LVU338
 1097 05ac 264A     		ldr	r2, .L55+48
 1098 05ae 6031     		adds	r1, r1, #96
 1099 05b0 2046     		mov	r0, r4
 1100 05b2 FFF7FEFF 		bl	lv_obj_add_style
 1101              	.LVL124:
 759:lvgl/src/extra/themes/default/lv_theme_default.c ****         lv_obj_add_style(obj, &styles->bg_color_primary, LV_PART_INDICATOR | LV_STATE_CHECKED);
 1102              		.loc 1 759 9 is_stmt 1 view .LVU339
 759:lvgl/src/extra/themes/default/lv_theme_default.c ****         lv_obj_add_style(obj, &styles->bg_color_primary, LV_PART_INDICATOR | LV_STATE_CHECKED);
 1103              		.loc 1 759 38 is_stmt 0 view .LVU340
 1104 05b6 2968     		ldr	r1, [r5]
 759:lvgl/src/extra/themes/default/lv_theme_default.c ****         lv_obj_add_style(obj, &styles->bg_color_primary, LV_PART_INDICATOR | LV_STATE_CHECKED);
 1105              		.loc 1 759 9 view .LVU341
 1106 05b8 4FF40032 		mov	r2, #131072
 1107 05bc 01F59871 		add	r1, r1, #304
 1108 05c0 2046     		mov	r0, r4
 1109 05c2 FFF7FEFF 		bl	lv_obj_add_style
 1110              	.LVL125:
 760:lvgl/src/extra/themes/default/lv_theme_default.c ****         lv_obj_add_style(obj, &styles->cb_marker_checked, LV_PART_INDICATOR | LV_STATE_CHECKED);
 1111              		.loc 1 760 9 is_stmt 1 view .LVU342
 760:lvgl/src/extra/themes/default/lv_theme_default.c ****         lv_obj_add_style(obj, &styles->cb_marker_checked, LV_PART_INDICATOR | LV_STATE_CHECKED);
 1112              		.loc 1 760 38 is_stmt 0 view .LVU343
 1113 05c6 2968     		ldr	r1, [r5]
 760:lvgl/src/extra/themes/default/lv_theme_default.c ****         lv_obj_add_style(obj, &styles->cb_marker_checked, LV_PART_INDICATOR | LV_STATE_CHECKED);
 1114              		.loc 1 760 9 view .LVU344
 1115 05c8 204E     		ldr	r6, .L55+52
 1116 05ca 3246     		mov	r2, r6
 1117 05cc 2831     		adds	r1, r1, #40
 1118 05ce 2046     		mov	r0, r4
 1119 05d0 FFF7FEFF 		bl	lv_obj_add_style
 1120              	.LVL126:
 761:lvgl/src/extra/themes/default/lv_theme_default.c ****         lv_obj_add_style(obj, &styles->pressed, LV_PART_INDICATOR | LV_STATE_PRESSED);
 1121              		.loc 1 761 9 is_stmt 1 view .LVU345
 761:lvgl/src/extra/themes/default/lv_theme_default.c ****         lv_obj_add_style(obj, &styles->pressed, LV_PART_INDICATOR | LV_STATE_PRESSED);
 1122              		.loc 1 761 38 is_stmt 0 view .LVU346
 1123 05d4 2968     		ldr	r1, [r5]
 761:lvgl/src/extra/themes/default/lv_theme_default.c ****         lv_obj_add_style(obj, &styles->pressed, LV_PART_INDICATOR | LV_STATE_PRESSED);
 1124              		.loc 1 761 9 view .LVU347
 1125 05d6 3246     		mov	r2, r6
 1126 05d8 01F59C71 		add	r1, r1, #312
 1127 05dc 2046     		mov	r0, r4
 1128 05de FFF7FEFF 		bl	lv_obj_add_style
 1129              	.LVL127:
 762:lvgl/src/extra/themes/default/lv_theme_default.c **** #if LV_THEME_DEFAULT_GROW
 1130              		.loc 1 762 9 is_stmt 1 view .LVU348
ARM GAS  /var/folders/k2/cd9bl_j17z77g23y6ffqb_400000gn/T//ccRoPncs.s 			page 44


 762:lvgl/src/extra/themes/default/lv_theme_default.c **** #if LV_THEME_DEFAULT_GROW
 1131              		.loc 1 762 38 is_stmt 0 view .LVU349
 1132 05e2 2968     		ldr	r1, [r5]
 762:lvgl/src/extra/themes/default/lv_theme_default.c **** #if LV_THEME_DEFAULT_GROW
 1133              		.loc 1 762 9 view .LVU350
 1134 05e4 1F36     		adds	r6, r6, #31
 1135 05e6 3246     		mov	r2, r6
 1136 05e8 5831     		adds	r1, r1, #88
 1137 05ea 2046     		mov	r0, r4
 1138 05ec FFF7FEFF 		bl	lv_obj_add_style
 1139              	.LVL128:
 764:lvgl/src/extra/themes/default/lv_theme_default.c **** #endif
 1140              		.loc 1 764 9 is_stmt 1 view .LVU351
 764:lvgl/src/extra/themes/default/lv_theme_default.c **** #endif
 1141              		.loc 1 764 38 is_stmt 0 view .LVU352
 1142 05f0 2968     		ldr	r1, [r5]
 764:lvgl/src/extra/themes/default/lv_theme_default.c **** #endif
 1143              		.loc 1 764 9 view .LVU353
 1144 05f2 3246     		mov	r2, r6
 1145 05f4 C831     		adds	r1, r1, #200
 1146 05f6 2046     		mov	r0, r4
 1147 05f8 FFF7FEFF 		bl	lv_obj_add_style
 1148              	.LVL129:
 766:lvgl/src/extra/themes/default/lv_theme_default.c ****         lv_obj_add_style(obj, &styles->transition_delayed, LV_PART_INDICATOR);
 1149              		.loc 1 766 9 is_stmt 1 view .LVU354
 766:lvgl/src/extra/themes/default/lv_theme_default.c ****         lv_obj_add_style(obj, &styles->transition_delayed, LV_PART_INDICATOR);
 1150              		.loc 1 766 38 is_stmt 0 view .LVU355
 1151 05fc 2968     		ldr	r1, [r5]
 766:lvgl/src/extra/themes/default/lv_theme_default.c ****         lv_obj_add_style(obj, &styles->transition_delayed, LV_PART_INDICATOR);
 1152              		.loc 1 766 9 view .LVU356
 1153 05fe 3246     		mov	r2, r6
 1154 0600 D831     		adds	r1, r1, #216
 1155 0602 2046     		mov	r0, r4
 1156 0604 FFF7FEFF 		bl	lv_obj_add_style
 1157              	.LVL130:
 767:lvgl/src/extra/themes/default/lv_theme_default.c ****     }
 1158              		.loc 1 767 9 is_stmt 1 view .LVU357
 767:lvgl/src/extra/themes/default/lv_theme_default.c ****     }
 1159              		.loc 1 767 38 is_stmt 0 view .LVU358
 1160 0608 2968     		ldr	r1, [r5]
 767:lvgl/src/extra/themes/default/lv_theme_default.c ****     }
 1161              		.loc 1 767 9 view .LVU359
 1162 060a 4FF40032 		mov	r2, #131072
 1163 060e D031     		adds	r1, r1, #208
 1164 0610 2046     		mov	r0, r4
 1165 0612 FFF7FEFF 		bl	lv_obj_add_style
 1166              	.LVL131:
 1167 0616 CBE5     		b	.L8
 1168              	.L56:
 1169              		.align	2
 1170              	.L55:
 1171 0618 00000000 		.word	.LANCHOR0
 1172 061c 20000500 		.word	327712
 1173 0620 80000500 		.word	327808
 1174 0624 01000500 		.word	327681
 1175 0628 04000500 		.word	327684
 1176 062c 08000500 		.word	327688
ARM GAS  /var/folders/k2/cd9bl_j17z77g23y6ffqb_400000gn/T//ccRoPncs.s 			page 45


 1177 0630 00000000 		.word	lv_bar_class
 1178 0634 00000000 		.word	lv_slider_class
 1179 0638 20000300 		.word	196640
 1180 063c 00000000 		.word	lv_table_class
 1181 0640 40000100 		.word	65600
 1182 0644 00000000 		.word	lv_checkbox_class
 1183 0648 80000200 		.word	131200
 1184 064c 01000200 		.word	131073
 1185              	.L17:
 772:lvgl/src/extra/themes/default/lv_theme_default.c ****         lv_obj_add_style(obj, &styles->bg_color_grey, 0);
 1186              		.loc 1 772 10 is_stmt 1 view .LVU360
 772:lvgl/src/extra/themes/default/lv_theme_default.c ****         lv_obj_add_style(obj, &styles->bg_color_grey, 0);
 1187              		.loc 1 772 13 is_stmt 0 view .LVU361
 1188 0650 C049     		ldr	r1, .L57
 1189 0652 2046     		mov	r0, r4
 1190 0654 FFF7FEFF 		bl	lv_obj_check_type
 1191              	.LVL132:
 772:lvgl/src/extra/themes/default/lv_theme_default.c ****         lv_obj_add_style(obj, &styles->bg_color_grey, 0);
 1192              		.loc 1 772 12 view .LVU362
 1193 0658 0028     		cmp	r0, #0
 1194 065a 48D0     		beq	.L18
 773:lvgl/src/extra/themes/default/lv_theme_default.c ****         lv_obj_add_style(obj, &styles->circle, 0);
 1195              		.loc 1 773 9 is_stmt 1 view .LVU363
 773:lvgl/src/extra/themes/default/lv_theme_default.c ****         lv_obj_add_style(obj, &styles->circle, 0);
 1196              		.loc 1 773 38 is_stmt 0 view .LVU364
 1197 065c BE4D     		ldr	r5, .L57+4
 1198 065e 2968     		ldr	r1, [r5]
 773:lvgl/src/extra/themes/default/lv_theme_default.c ****         lv_obj_add_style(obj, &styles->circle, 0);
 1199              		.loc 1 773 9 view .LVU365
 1200 0660 0022     		movs	r2, #0
 1201 0662 4831     		adds	r1, r1, #72
 1202 0664 2046     		mov	r0, r4
 1203 0666 FFF7FEFF 		bl	lv_obj_add_style
 1204              	.LVL133:
 774:lvgl/src/extra/themes/default/lv_theme_default.c ****         lv_obj_add_style(obj, &styles->disabled, LV_STATE_DISABLED);
 1205              		.loc 1 774 9 is_stmt 1 view .LVU366
 774:lvgl/src/extra/themes/default/lv_theme_default.c ****         lv_obj_add_style(obj, &styles->disabled, LV_STATE_DISABLED);
 1206              		.loc 1 774 38 is_stmt 0 view .LVU367
 1207 066a 2968     		ldr	r1, [r5]
 774:lvgl/src/extra/themes/default/lv_theme_default.c ****         lv_obj_add_style(obj, &styles->disabled, LV_STATE_DISABLED);
 1208              		.loc 1 774 9 view .LVU368
 1209 066c 0022     		movs	r2, #0
 1210 066e B031     		adds	r1, r1, #176
 1211 0670 2046     		mov	r0, r4
 1212 0672 FFF7FEFF 		bl	lv_obj_add_style
 1213              	.LVL134:
 775:lvgl/src/extra/themes/default/lv_theme_default.c ****         lv_obj_add_style(obj, &styles->outline_primary, LV_STATE_FOCUS_KEY);
 1214              		.loc 1 775 9 is_stmt 1 view .LVU369
 775:lvgl/src/extra/themes/default/lv_theme_default.c ****         lv_obj_add_style(obj, &styles->outline_primary, LV_STATE_FOCUS_KEY);
 1215              		.loc 1 775 38 is_stmt 0 view .LVU370
 1216 0676 2968     		ldr	r1, [r5]
 775:lvgl/src/extra/themes/default/lv_theme_default.c ****         lv_obj_add_style(obj, &styles->outline_primary, LV_STATE_FOCUS_KEY);
 1217              		.loc 1 775 9 view .LVU371
 1218 0678 8022     		movs	r2, #128
 1219 067a 6031     		adds	r1, r1, #96
 1220 067c 2046     		mov	r0, r4
 1221 067e FFF7FEFF 		bl	lv_obj_add_style
ARM GAS  /var/folders/k2/cd9bl_j17z77g23y6ffqb_400000gn/T//ccRoPncs.s 			page 46


 1222              	.LVL135:
 776:lvgl/src/extra/themes/default/lv_theme_default.c ****         lv_obj_add_style(obj, &styles->bg_color_primary, LV_PART_INDICATOR | LV_STATE_CHECKED);
 1223              		.loc 1 776 9 is_stmt 1 view .LVU372
 776:lvgl/src/extra/themes/default/lv_theme_default.c ****         lv_obj_add_style(obj, &styles->bg_color_primary, LV_PART_INDICATOR | LV_STATE_CHECKED);
 1224              		.loc 1 776 38 is_stmt 0 view .LVU373
 1225 0682 2968     		ldr	r1, [r5]
 776:lvgl/src/extra/themes/default/lv_theme_default.c ****         lv_obj_add_style(obj, &styles->bg_color_primary, LV_PART_INDICATOR | LV_STATE_CHECKED);
 1226              		.loc 1 776 9 view .LVU374
 1227 0684 0422     		movs	r2, #4
 1228 0686 A031     		adds	r1, r1, #160
 1229 0688 2046     		mov	r0, r4
 1230 068a FFF7FEFF 		bl	lv_obj_add_style
 1231              	.LVL136:
 777:lvgl/src/extra/themes/default/lv_theme_default.c ****         lv_obj_add_style(obj, &styles->circle, LV_PART_INDICATOR);
 1232              		.loc 1 777 9 is_stmt 1 view .LVU375
 777:lvgl/src/extra/themes/default/lv_theme_default.c ****         lv_obj_add_style(obj, &styles->circle, LV_PART_INDICATOR);
 1233              		.loc 1 777 38 is_stmt 0 view .LVU376
 1234 068e 2968     		ldr	r1, [r5]
 777:lvgl/src/extra/themes/default/lv_theme_default.c ****         lv_obj_add_style(obj, &styles->circle, LV_PART_INDICATOR);
 1235              		.loc 1 777 9 view .LVU377
 1236 0690 B24A     		ldr	r2, .L57+8
 1237 0692 2831     		adds	r1, r1, #40
 1238 0694 2046     		mov	r0, r4
 1239 0696 FFF7FEFF 		bl	lv_obj_add_style
 1240              	.LVL137:
 778:lvgl/src/extra/themes/default/lv_theme_default.c ****         lv_obj_add_style(obj, &styles->disabled, LV_PART_INDICATOR | LV_STATE_DISABLED);
 1241              		.loc 1 778 9 is_stmt 1 view .LVU378
 778:lvgl/src/extra/themes/default/lv_theme_default.c ****         lv_obj_add_style(obj, &styles->disabled, LV_PART_INDICATOR | LV_STATE_DISABLED);
 1242              		.loc 1 778 38 is_stmt 0 view .LVU379
 1243 069a 2968     		ldr	r1, [r5]
 778:lvgl/src/extra/themes/default/lv_theme_default.c ****         lv_obj_add_style(obj, &styles->disabled, LV_PART_INDICATOR | LV_STATE_DISABLED);
 1244              		.loc 1 778 9 view .LVU380
 1245 069c 4FF40032 		mov	r2, #131072
 1246 06a0 B031     		adds	r1, r1, #176
 1247 06a2 2046     		mov	r0, r4
 1248 06a4 FFF7FEFF 		bl	lv_obj_add_style
 1249              	.LVL138:
 779:lvgl/src/extra/themes/default/lv_theme_default.c ****         lv_obj_add_style(obj, &styles->knob, LV_PART_KNOB);
 1250              		.loc 1 779 9 is_stmt 1 view .LVU381
 779:lvgl/src/extra/themes/default/lv_theme_default.c ****         lv_obj_add_style(obj, &styles->knob, LV_PART_KNOB);
 1251              		.loc 1 779 38 is_stmt 0 view .LVU382
 1252 06a8 2968     		ldr	r1, [r5]
 779:lvgl/src/extra/themes/default/lv_theme_default.c ****         lv_obj_add_style(obj, &styles->knob, LV_PART_KNOB);
 1253              		.loc 1 779 9 view .LVU383
 1254 06aa AD4A     		ldr	r2, .L57+12
 1255 06ac 6031     		adds	r1, r1, #96
 1256 06ae 2046     		mov	r0, r4
 1257 06b0 FFF7FEFF 		bl	lv_obj_add_style
 1258              	.LVL139:
 780:lvgl/src/extra/themes/default/lv_theme_default.c ****         lv_obj_add_style(obj, &styles->bg_color_white, LV_PART_KNOB);
 1259              		.loc 1 780 9 is_stmt 1 view .LVU384
 780:lvgl/src/extra/themes/default/lv_theme_default.c ****         lv_obj_add_style(obj, &styles->bg_color_white, LV_PART_KNOB);
 1260              		.loc 1 780 38 is_stmt 0 view .LVU385
 1261 06b4 2968     		ldr	r1, [r5]
 780:lvgl/src/extra/themes/default/lv_theme_default.c ****         lv_obj_add_style(obj, &styles->bg_color_white, LV_PART_KNOB);
 1262              		.loc 1 780 9 view .LVU386
 1263 06b6 4FF44032 		mov	r2, #196608
ARM GAS  /var/folders/k2/cd9bl_j17z77g23y6ffqb_400000gn/T//ccRoPncs.s 			page 47


 1264 06ba E831     		adds	r1, r1, #232
 1265 06bc 2046     		mov	r0, r4
 1266 06be FFF7FEFF 		bl	lv_obj_add_style
 1267              	.LVL140:
 781:lvgl/src/extra/themes/default/lv_theme_default.c ****         lv_obj_add_style(obj, &styles->switch_knob, LV_PART_KNOB);
 1268              		.loc 1 781 9 is_stmt 1 view .LVU387
 781:lvgl/src/extra/themes/default/lv_theme_default.c ****         lv_obj_add_style(obj, &styles->switch_knob, LV_PART_KNOB);
 1269              		.loc 1 781 38 is_stmt 0 view .LVU388
 1270 06c2 2968     		ldr	r1, [r5]
 781:lvgl/src/extra/themes/default/lv_theme_default.c ****         lv_obj_add_style(obj, &styles->switch_knob, LV_PART_KNOB);
 1271              		.loc 1 781 9 view .LVU389
 1272 06c4 4FF44032 		mov	r2, #196608
 1273 06c8 5031     		adds	r1, r1, #80
 1274 06ca 2046     		mov	r0, r4
 1275 06cc FFF7FEFF 		bl	lv_obj_add_style
 1276              	.LVL141:
 782:lvgl/src/extra/themes/default/lv_theme_default.c ****         lv_obj_add_style(obj, &styles->disabled, LV_PART_KNOB | LV_STATE_DISABLED);
 1277              		.loc 1 782 9 is_stmt 1 view .LVU390
 782:lvgl/src/extra/themes/default/lv_theme_default.c ****         lv_obj_add_style(obj, &styles->disabled, LV_PART_KNOB | LV_STATE_DISABLED);
 1278              		.loc 1 782 38 is_stmt 0 view .LVU391
 1279 06d0 2968     		ldr	r1, [r5]
 782:lvgl/src/extra/themes/default/lv_theme_default.c ****         lv_obj_add_style(obj, &styles->disabled, LV_PART_KNOB | LV_STATE_DISABLED);
 1280              		.loc 1 782 9 view .LVU392
 1281 06d2 4FF44032 		mov	r2, #196608
 1282 06d6 01F5A071 		add	r1, r1, #320
 1283 06da 2046     		mov	r0, r4
 1284 06dc FFF7FEFF 		bl	lv_obj_add_style
 1285              	.LVL142:
 783:lvgl/src/extra/themes/default/lv_theme_default.c ****     }
 1286              		.loc 1 783 9 is_stmt 1 view .LVU393
 783:lvgl/src/extra/themes/default/lv_theme_default.c ****     }
 1287              		.loc 1 783 38 is_stmt 0 view .LVU394
 1288 06e0 2968     		ldr	r1, [r5]
 783:lvgl/src/extra/themes/default/lv_theme_default.c ****     }
 1289              		.loc 1 783 9 view .LVU395
 1290 06e2 A04A     		ldr	r2, .L57+16
 1291 06e4 6031     		adds	r1, r1, #96
 1292 06e6 2046     		mov	r0, r4
 1293 06e8 FFF7FEFF 		bl	lv_obj_add_style
 1294              	.LVL143:
 1295 06ec 60E5     		b	.L8
 1296              	.L18:
 788:lvgl/src/extra/themes/default/lv_theme_default.c ****         lv_obj_add_style(obj, &styles->card, 0);
 1297              		.loc 1 788 10 is_stmt 1 view .LVU396
 788:lvgl/src/extra/themes/default/lv_theme_default.c ****         lv_obj_add_style(obj, &styles->card, 0);
 1298              		.loc 1 788 13 is_stmt 0 view .LVU397
 1299 06ee 9E49     		ldr	r1, .L57+20
 1300 06f0 2046     		mov	r0, r4
 1301 06f2 FFF7FEFF 		bl	lv_obj_check_type
 1302              	.LVL144:
 788:lvgl/src/extra/themes/default/lv_theme_default.c ****         lv_obj_add_style(obj, &styles->card, 0);
 1303              		.loc 1 788 12 view .LVU398
 1304 06f6 0028     		cmp	r0, #0
 1305 06f8 41D0     		beq	.L19
 789:lvgl/src/extra/themes/default/lv_theme_default.c ****         lv_obj_add_style(obj, &styles->pad_small, 0);
 1306              		.loc 1 789 9 is_stmt 1 view .LVU399
 789:lvgl/src/extra/themes/default/lv_theme_default.c ****         lv_obj_add_style(obj, &styles->pad_small, 0);
ARM GAS  /var/folders/k2/cd9bl_j17z77g23y6ffqb_400000gn/T//ccRoPncs.s 			page 48


 1307              		.loc 1 789 38 is_stmt 0 view .LVU400
 1308 06fa 974D     		ldr	r5, .L57+4
 1309 06fc 2968     		ldr	r1, [r5]
 789:lvgl/src/extra/themes/default/lv_theme_default.c ****         lv_obj_add_style(obj, &styles->pad_small, 0);
 1310              		.loc 1 789 9 view .LVU401
 1311 06fe 0022     		movs	r2, #0
 1312 0700 1831     		adds	r1, r1, #24
 1313 0702 2046     		mov	r0, r4
 1314 0704 FFF7FEFF 		bl	lv_obj_add_style
 1315              	.LVL145:
 790:lvgl/src/extra/themes/default/lv_theme_default.c ****         lv_obj_add_style(obj, &styles->chart_bg, 0);
 1316              		.loc 1 790 9 is_stmt 1 view .LVU402
 790:lvgl/src/extra/themes/default/lv_theme_default.c ****         lv_obj_add_style(obj, &styles->chart_bg, 0);
 1317              		.loc 1 790 38 is_stmt 0 view .LVU403
 1318 0708 2968     		ldr	r1, [r5]
 790:lvgl/src/extra/themes/default/lv_theme_default.c ****         lv_obj_add_style(obj, &styles->chart_bg, 0);
 1319              		.loc 1 790 9 view .LVU404
 1320 070a 0022     		movs	r2, #0
 1321 070c 7831     		adds	r1, r1, #120
 1322 070e 2046     		mov	r0, r4
 1323 0710 FFF7FEFF 		bl	lv_obj_add_style
 1324              	.LVL146:
 791:lvgl/src/extra/themes/default/lv_theme_default.c ****         lv_obj_add_style(obj, &styles->scrollbar, LV_PART_SCROLLBAR);
 1325              		.loc 1 791 9 is_stmt 1 view .LVU405
 791:lvgl/src/extra/themes/default/lv_theme_default.c ****         lv_obj_add_style(obj, &styles->scrollbar, LV_PART_SCROLLBAR);
 1326              		.loc 1 791 38 is_stmt 0 view .LVU406
 1327 0714 2968     		ldr	r1, [r5]
 791:lvgl/src/extra/themes/default/lv_theme_default.c ****         lv_obj_add_style(obj, &styles->scrollbar, LV_PART_SCROLLBAR);
 1328              		.loc 1 791 9 view .LVU407
 1329 0716 0022     		movs	r2, #0
 1330 0718 01F59071 		add	r1, r1, #288
 1331 071c 2046     		mov	r0, r4
 1332 071e FFF7FEFF 		bl	lv_obj_add_style
 1333              	.LVL147:
 792:lvgl/src/extra/themes/default/lv_theme_default.c ****         lv_obj_add_style(obj, &styles->scrollbar_scrolled, LV_PART_SCROLLBAR | LV_STATE_SCROLLED);
 1334              		.loc 1 792 9 is_stmt 1 view .LVU408
 792:lvgl/src/extra/themes/default/lv_theme_default.c ****         lv_obj_add_style(obj, &styles->scrollbar_scrolled, LV_PART_SCROLLBAR | LV_STATE_SCROLLED);
 1335              		.loc 1 792 38 is_stmt 0 view .LVU409
 1336 0722 2968     		ldr	r1, [r5]
 792:lvgl/src/extra/themes/default/lv_theme_default.c ****         lv_obj_add_style(obj, &styles->scrollbar_scrolled, LV_PART_SCROLLBAR | LV_STATE_SCROLLED);
 1337              		.loc 1 792 9 view .LVU410
 1338 0724 4FF48032 		mov	r2, #65536
 1339 0728 0831     		adds	r1, r1, #8
 1340 072a 2046     		mov	r0, r4
 1341 072c FFF7FEFF 		bl	lv_obj_add_style
 1342              	.LVL148:
 793:lvgl/src/extra/themes/default/lv_theme_default.c ****         lv_obj_add_style(obj, &styles->chart_series, LV_PART_ITEMS);
 1343              		.loc 1 793 9 is_stmt 1 view .LVU411
 793:lvgl/src/extra/themes/default/lv_theme_default.c ****         lv_obj_add_style(obj, &styles->chart_series, LV_PART_ITEMS);
 1344              		.loc 1 793 38 is_stmt 0 view .LVU412
 1345 0730 2968     		ldr	r1, [r5]
 793:lvgl/src/extra/themes/default/lv_theme_default.c ****         lv_obj_add_style(obj, &styles->chart_series, LV_PART_ITEMS);
 1346              		.loc 1 793 9 view .LVU413
 1347 0732 8E4A     		ldr	r2, .L57+24
 1348 0734 1031     		adds	r1, r1, #16
 1349 0736 2046     		mov	r0, r4
 1350 0738 FFF7FEFF 		bl	lv_obj_add_style
ARM GAS  /var/folders/k2/cd9bl_j17z77g23y6ffqb_400000gn/T//ccRoPncs.s 			page 49


 1351              	.LVL149:
 794:lvgl/src/extra/themes/default/lv_theme_default.c ****         lv_obj_add_style(obj, &styles->chart_indic, LV_PART_INDICATOR);
 1352              		.loc 1 794 9 is_stmt 1 view .LVU414
 794:lvgl/src/extra/themes/default/lv_theme_default.c ****         lv_obj_add_style(obj, &styles->chart_indic, LV_PART_INDICATOR);
 1353              		.loc 1 794 38 is_stmt 0 view .LVU415
 1354 073c 2968     		ldr	r1, [r5]
 794:lvgl/src/extra/themes/default/lv_theme_default.c ****         lv_obj_add_style(obj, &styles->chart_indic, LV_PART_INDICATOR);
 1355              		.loc 1 794 9 view .LVU416
 1356 073e 4FF4A022 		mov	r2, #327680
 1357 0742 01F58471 		add	r1, r1, #264
 1358 0746 2046     		mov	r0, r4
 1359 0748 FFF7FEFF 		bl	lv_obj_add_style
 1360              	.LVL150:
 795:lvgl/src/extra/themes/default/lv_theme_default.c ****         lv_obj_add_style(obj, &styles->chart_ticks, LV_PART_TICKS);
 1361              		.loc 1 795 9 is_stmt 1 view .LVU417
 795:lvgl/src/extra/themes/default/lv_theme_default.c ****         lv_obj_add_style(obj, &styles->chart_ticks, LV_PART_TICKS);
 1362              		.loc 1 795 38 is_stmt 0 view .LVU418
 1363 074c 2968     		ldr	r1, [r5]
 795:lvgl/src/extra/themes/default/lv_theme_default.c ****         lv_obj_add_style(obj, &styles->chart_ticks, LV_PART_TICKS);
 1364              		.loc 1 795 9 view .LVU419
 1365 074e 4FF40032 		mov	r2, #131072
 1366 0752 01F58871 		add	r1, r1, #272
 1367 0756 2046     		mov	r0, r4
 1368 0758 FFF7FEFF 		bl	lv_obj_add_style
 1369              	.LVL151:
 796:lvgl/src/extra/themes/default/lv_theme_default.c ****         lv_obj_add_style(obj, &styles->chart_series, LV_PART_CURSOR);
 1370              		.loc 1 796 9 is_stmt 1 view .LVU420
 796:lvgl/src/extra/themes/default/lv_theme_default.c ****         lv_obj_add_style(obj, &styles->chart_series, LV_PART_CURSOR);
 1371              		.loc 1 796 38 is_stmt 0 view .LVU421
 1372 075c 2968     		ldr	r1, [r5]
 796:lvgl/src/extra/themes/default/lv_theme_default.c ****         lv_obj_add_style(obj, &styles->chart_series, LV_PART_CURSOR);
 1373              		.loc 1 796 9 view .LVU422
 1374 075e 4FF4C022 		mov	r2, #393216
 1375 0762 01F58C71 		add	r1, r1, #280
 1376 0766 2046     		mov	r0, r4
 1377 0768 FFF7FEFF 		bl	lv_obj_add_style
 1378              	.LVL152:
 797:lvgl/src/extra/themes/default/lv_theme_default.c ****     }
 1379              		.loc 1 797 9 is_stmt 1 view .LVU423
 797:lvgl/src/extra/themes/default/lv_theme_default.c ****     }
 1380              		.loc 1 797 38 is_stmt 0 view .LVU424
 1381 076c 2968     		ldr	r1, [r5]
 797:lvgl/src/extra/themes/default/lv_theme_default.c ****     }
 1382              		.loc 1 797 9 view .LVU425
 1383 076e 4FF4E022 		mov	r2, #458752
 1384 0772 01F58471 		add	r1, r1, #264
 1385 0776 2046     		mov	r0, r4
 1386 0778 FFF7FEFF 		bl	lv_obj_add_style
 1387              	.LVL153:
 1388 077c 18E5     		b	.L8
 1389              	.L19:
 802:lvgl/src/extra/themes/default/lv_theme_default.c ****         lv_obj_add_style(obj, &styles->card, 0);
 1390              		.loc 1 802 10 is_stmt 1 view .LVU426
 802:lvgl/src/extra/themes/default/lv_theme_default.c ****         lv_obj_add_style(obj, &styles->card, 0);
 1391              		.loc 1 802 13 is_stmt 0 view .LVU427
 1392 077e 7C49     		ldr	r1, .L57+28
 1393 0780 2046     		mov	r0, r4
ARM GAS  /var/folders/k2/cd9bl_j17z77g23y6ffqb_400000gn/T//ccRoPncs.s 			page 50


 1394 0782 FFF7FEFF 		bl	lv_obj_check_type
 1395              	.LVL154:
 802:lvgl/src/extra/themes/default/lv_theme_default.c ****         lv_obj_add_style(obj, &styles->card, 0);
 1396              		.loc 1 802 12 view .LVU428
 1397 0786 60B3     		cbz	r0, .L20
 803:lvgl/src/extra/themes/default/lv_theme_default.c ****         lv_obj_add_style(obj, &styles->anim, 0);
 1398              		.loc 1 803 9 is_stmt 1 view .LVU429
 803:lvgl/src/extra/themes/default/lv_theme_default.c ****         lv_obj_add_style(obj, &styles->anim, 0);
 1399              		.loc 1 803 38 is_stmt 0 view .LVU430
 1400 0788 734D     		ldr	r5, .L57+4
 1401 078a 2968     		ldr	r1, [r5]
 803:lvgl/src/extra/themes/default/lv_theme_default.c ****         lv_obj_add_style(obj, &styles->anim, 0);
 1402              		.loc 1 803 9 view .LVU431
 1403 078c 0022     		movs	r2, #0
 1404 078e 1831     		adds	r1, r1, #24
 1405 0790 2046     		mov	r0, r4
 1406 0792 FFF7FEFF 		bl	lv_obj_add_style
 1407              	.LVL155:
 804:lvgl/src/extra/themes/default/lv_theme_default.c ****         lv_obj_add_style(obj, &styles->line_space_large, 0);
 1408              		.loc 1 804 9 is_stmt 1 view .LVU432
 804:lvgl/src/extra/themes/default/lv_theme_default.c ****         lv_obj_add_style(obj, &styles->line_space_large, 0);
 1409              		.loc 1 804 38 is_stmt 0 view .LVU433
 1410 0796 2968     		ldr	r1, [r5]
 804:lvgl/src/extra/themes/default/lv_theme_default.c ****         lv_obj_add_style(obj, &styles->line_space_large, 0);
 1411              		.loc 1 804 9 view .LVU434
 1412 0798 0022     		movs	r2, #0
 1413 079a E031     		adds	r1, r1, #224
 1414 079c 2046     		mov	r0, r4
 1415 079e FFF7FEFF 		bl	lv_obj_add_style
 1416              	.LVL156:
 805:lvgl/src/extra/themes/default/lv_theme_default.c ****         lv_obj_add_style(obj, &styles->text_align_center, 0);
 1417              		.loc 1 805 9 is_stmt 1 view .LVU435
 805:lvgl/src/extra/themes/default/lv_theme_default.c ****         lv_obj_add_style(obj, &styles->text_align_center, 0);
 1418              		.loc 1 805 38 is_stmt 0 view .LVU436
 1419 07a2 2968     		ldr	r1, [r5]
 805:lvgl/src/extra/themes/default/lv_theme_default.c ****         lv_obj_add_style(obj, &styles->text_align_center, 0);
 1420              		.loc 1 805 9 view .LVU437
 1421 07a4 0022     		movs	r2, #0
 1422 07a6 9031     		adds	r1, r1, #144
 1423 07a8 2046     		mov	r0, r4
 1424 07aa FFF7FEFF 		bl	lv_obj_add_style
 1425              	.LVL157:
 806:lvgl/src/extra/themes/default/lv_theme_default.c ****         lv_obj_add_style(obj, &styles->outline_primary, LV_STATE_FOCUS_KEY);
 1426              		.loc 1 806 9 is_stmt 1 view .LVU438
 806:lvgl/src/extra/themes/default/lv_theme_default.c ****         lv_obj_add_style(obj, &styles->outline_primary, LV_STATE_FOCUS_KEY);
 1427              		.loc 1 806 38 is_stmt 0 view .LVU439
 1428 07ae 2968     		ldr	r1, [r5]
 806:lvgl/src/extra/themes/default/lv_theme_default.c ****         lv_obj_add_style(obj, &styles->outline_primary, LV_STATE_FOCUS_KEY);
 1429              		.loc 1 806 9 view .LVU440
 1430 07b0 0022     		movs	r2, #0
 1431 07b2 9831     		adds	r1, r1, #152
 1432 07b4 2046     		mov	r0, r4
 1433 07b6 FFF7FEFF 		bl	lv_obj_add_style
 1434              	.LVL158:
 807:lvgl/src/extra/themes/default/lv_theme_default.c ****         lv_obj_add_style(obj, &styles->outline_secondary, LV_STATE_EDITED);
 1435              		.loc 1 807 9 is_stmt 1 view .LVU441
 807:lvgl/src/extra/themes/default/lv_theme_default.c ****         lv_obj_add_style(obj, &styles->outline_secondary, LV_STATE_EDITED);
ARM GAS  /var/folders/k2/cd9bl_j17z77g23y6ffqb_400000gn/T//ccRoPncs.s 			page 51


 1436              		.loc 1 807 38 is_stmt 0 view .LVU442
 1437 07ba 2968     		ldr	r1, [r5]
 807:lvgl/src/extra/themes/default/lv_theme_default.c ****         lv_obj_add_style(obj, &styles->outline_secondary, LV_STATE_EDITED);
 1438              		.loc 1 807 9 view .LVU443
 1439 07bc 0422     		movs	r2, #4
 1440 07be A031     		adds	r1, r1, #160
 1441 07c0 2046     		mov	r0, r4
 1442 07c2 FFF7FEFF 		bl	lv_obj_add_style
 1443              	.LVL159:
 808:lvgl/src/extra/themes/default/lv_theme_default.c ****         lv_obj_add_style(obj, &styles->bg_color_primary, LV_PART_SELECTED);
 1444              		.loc 1 808 9 is_stmt 1 view .LVU444
 808:lvgl/src/extra/themes/default/lv_theme_default.c ****         lv_obj_add_style(obj, &styles->bg_color_primary, LV_PART_SELECTED);
 1445              		.loc 1 808 38 is_stmt 0 view .LVU445
 1446 07c6 2968     		ldr	r1, [r5]
 808:lvgl/src/extra/themes/default/lv_theme_default.c ****         lv_obj_add_style(obj, &styles->bg_color_primary, LV_PART_SELECTED);
 1447              		.loc 1 808 9 view .LVU446
 1448 07c8 0822     		movs	r2, #8
 1449 07ca A831     		adds	r1, r1, #168
 1450 07cc 2046     		mov	r0, r4
 1451 07ce FFF7FEFF 		bl	lv_obj_add_style
 1452              	.LVL160:
 809:lvgl/src/extra/themes/default/lv_theme_default.c ****     }
 1453              		.loc 1 809 9 is_stmt 1 view .LVU447
 809:lvgl/src/extra/themes/default/lv_theme_default.c ****     }
 1454              		.loc 1 809 38 is_stmt 0 view .LVU448
 1455 07d2 2968     		ldr	r1, [r5]
 809:lvgl/src/extra/themes/default/lv_theme_default.c ****     }
 1456              		.loc 1 809 9 view .LVU449
 1457 07d4 4FF48022 		mov	r2, #262144
 1458 07d8 2831     		adds	r1, r1, #40
 1459 07da 2046     		mov	r0, r4
 1460 07dc FFF7FEFF 		bl	lv_obj_add_style
 1461              	.LVL161:
 1462 07e0 E6E4     		b	.L8
 1463              	.L20:
 814:lvgl/src/extra/themes/default/lv_theme_default.c ****         lv_obj_add_style(obj, &styles->card, 0);
 1464              		.loc 1 814 10 is_stmt 1 view .LVU450
 814:lvgl/src/extra/themes/default/lv_theme_default.c ****         lv_obj_add_style(obj, &styles->card, 0);
 1465              		.loc 1 814 13 is_stmt 0 view .LVU451
 1466 07e2 6449     		ldr	r1, .L57+32
 1467 07e4 2046     		mov	r0, r4
 1468 07e6 FFF7FEFF 		bl	lv_obj_check_type
 1469              	.LVL162:
 814:lvgl/src/extra/themes/default/lv_theme_default.c ****         lv_obj_add_style(obj, &styles->card, 0);
 1470              		.loc 1 814 12 view .LVU452
 1471 07ea 90B3     		cbz	r0, .L21
 815:lvgl/src/extra/themes/default/lv_theme_default.c ****         lv_obj_add_style(obj, &styles->pad_small, 0);
 1472              		.loc 1 815 9 is_stmt 1 view .LVU453
 815:lvgl/src/extra/themes/default/lv_theme_default.c ****         lv_obj_add_style(obj, &styles->pad_small, 0);
 1473              		.loc 1 815 38 is_stmt 0 view .LVU454
 1474 07ec 5A4D     		ldr	r5, .L57+4
 1475 07ee 2968     		ldr	r1, [r5]
 815:lvgl/src/extra/themes/default/lv_theme_default.c ****         lv_obj_add_style(obj, &styles->pad_small, 0);
 1476              		.loc 1 815 9 view .LVU455
 1477 07f0 0022     		movs	r2, #0
 1478 07f2 1831     		adds	r1, r1, #24
 1479 07f4 2046     		mov	r0, r4
ARM GAS  /var/folders/k2/cd9bl_j17z77g23y6ffqb_400000gn/T//ccRoPncs.s 			page 52


 1480 07f6 FFF7FEFF 		bl	lv_obj_add_style
 1481              	.LVL163:
 816:lvgl/src/extra/themes/default/lv_theme_default.c ****         lv_obj_add_style(obj, &styles->transition_delayed, 0);
 1482              		.loc 1 816 9 is_stmt 1 view .LVU456
 816:lvgl/src/extra/themes/default/lv_theme_default.c ****         lv_obj_add_style(obj, &styles->transition_delayed, 0);
 1483              		.loc 1 816 38 is_stmt 0 view .LVU457
 1484 07fa 2968     		ldr	r1, [r5]
 816:lvgl/src/extra/themes/default/lv_theme_default.c ****         lv_obj_add_style(obj, &styles->transition_delayed, 0);
 1485              		.loc 1 816 9 view .LVU458
 1486 07fc 0022     		movs	r2, #0
 1487 07fe 7831     		adds	r1, r1, #120
 1488 0800 2046     		mov	r0, r4
 1489 0802 FFF7FEFF 		bl	lv_obj_add_style
 1490              	.LVL164:
 817:lvgl/src/extra/themes/default/lv_theme_default.c ****         lv_obj_add_style(obj, &styles->transition_normal, LV_STATE_PRESSED);
 1491              		.loc 1 817 9 is_stmt 1 view .LVU459
 817:lvgl/src/extra/themes/default/lv_theme_default.c ****         lv_obj_add_style(obj, &styles->transition_normal, LV_STATE_PRESSED);
 1492              		.loc 1 817 38 is_stmt 0 view .LVU460
 1493 0806 2968     		ldr	r1, [r5]
 817:lvgl/src/extra/themes/default/lv_theme_default.c ****         lv_obj_add_style(obj, &styles->transition_normal, LV_STATE_PRESSED);
 1494              		.loc 1 817 9 view .LVU461
 1495 0808 0022     		movs	r2, #0
 1496 080a D031     		adds	r1, r1, #208
 1497 080c 2046     		mov	r0, r4
 1498 080e FFF7FEFF 		bl	lv_obj_add_style
 1499              	.LVL165:
 818:lvgl/src/extra/themes/default/lv_theme_default.c ****         lv_obj_add_style(obj, &styles->pressed, LV_STATE_PRESSED);
 1500              		.loc 1 818 9 is_stmt 1 view .LVU462
 818:lvgl/src/extra/themes/default/lv_theme_default.c ****         lv_obj_add_style(obj, &styles->pressed, LV_STATE_PRESSED);
 1501              		.loc 1 818 38 is_stmt 0 view .LVU463
 1502 0812 2968     		ldr	r1, [r5]
 818:lvgl/src/extra/themes/default/lv_theme_default.c ****         lv_obj_add_style(obj, &styles->pressed, LV_STATE_PRESSED);
 1503              		.loc 1 818 9 view .LVU464
 1504 0814 2022     		movs	r2, #32
 1505 0816 D831     		adds	r1, r1, #216
 1506 0818 2046     		mov	r0, r4
 1507 081a FFF7FEFF 		bl	lv_obj_add_style
 1508              	.LVL166:
 819:lvgl/src/extra/themes/default/lv_theme_default.c ****         lv_obj_add_style(obj, &styles->outline_primary, LV_STATE_FOCUS_KEY);
 1509              		.loc 1 819 9 is_stmt 1 view .LVU465
 819:lvgl/src/extra/themes/default/lv_theme_default.c ****         lv_obj_add_style(obj, &styles->outline_primary, LV_STATE_FOCUS_KEY);
 1510              		.loc 1 819 38 is_stmt 0 view .LVU466
 1511 081e 2968     		ldr	r1, [r5]
 819:lvgl/src/extra/themes/default/lv_theme_default.c ****         lv_obj_add_style(obj, &styles->outline_primary, LV_STATE_FOCUS_KEY);
 1512              		.loc 1 819 9 view .LVU467
 1513 0820 2022     		movs	r2, #32
 1514 0822 5831     		adds	r1, r1, #88
 1515 0824 2046     		mov	r0, r4
 1516 0826 FFF7FEFF 		bl	lv_obj_add_style
 1517              	.LVL167:
 820:lvgl/src/extra/themes/default/lv_theme_default.c ****         lv_obj_add_style(obj, &styles->outline_secondary, LV_STATE_EDITED);
 1518              		.loc 1 820 9 is_stmt 1 view .LVU468
 820:lvgl/src/extra/themes/default/lv_theme_default.c ****         lv_obj_add_style(obj, &styles->outline_secondary, LV_STATE_EDITED);
 1519              		.loc 1 820 38 is_stmt 0 view .LVU469
 1520 082a 2968     		ldr	r1, [r5]
 820:lvgl/src/extra/themes/default/lv_theme_default.c ****         lv_obj_add_style(obj, &styles->outline_secondary, LV_STATE_EDITED);
 1521              		.loc 1 820 9 view .LVU470
ARM GAS  /var/folders/k2/cd9bl_j17z77g23y6ffqb_400000gn/T//ccRoPncs.s 			page 53


 1522 082c 0422     		movs	r2, #4
 1523 082e A031     		adds	r1, r1, #160
 1524 0830 2046     		mov	r0, r4
 1525 0832 FFF7FEFF 		bl	lv_obj_add_style
 1526              	.LVL168:
 821:lvgl/src/extra/themes/default/lv_theme_default.c ****         lv_obj_add_style(obj, &styles->transition_normal, LV_PART_INDICATOR);
 1527              		.loc 1 821 9 is_stmt 1 view .LVU471
 821:lvgl/src/extra/themes/default/lv_theme_default.c ****         lv_obj_add_style(obj, &styles->transition_normal, LV_PART_INDICATOR);
 1528              		.loc 1 821 38 is_stmt 0 view .LVU472
 1529 0836 2968     		ldr	r1, [r5]
 821:lvgl/src/extra/themes/default/lv_theme_default.c ****         lv_obj_add_style(obj, &styles->transition_normal, LV_PART_INDICATOR);
 1530              		.loc 1 821 9 view .LVU473
 1531 0838 0822     		movs	r2, #8
 1532 083a A831     		adds	r1, r1, #168
 1533 083c 2046     		mov	r0, r4
 1534 083e FFF7FEFF 		bl	lv_obj_add_style
 1535              	.LVL169:
 822:lvgl/src/extra/themes/default/lv_theme_default.c ****     }
 1536              		.loc 1 822 9 is_stmt 1 view .LVU474
 822:lvgl/src/extra/themes/default/lv_theme_default.c ****     }
 1537              		.loc 1 822 38 is_stmt 0 view .LVU475
 1538 0842 2968     		ldr	r1, [r5]
 822:lvgl/src/extra/themes/default/lv_theme_default.c ****     }
 1539              		.loc 1 822 9 view .LVU476
 1540 0844 4FF40032 		mov	r2, #131072
 1541 0848 D831     		adds	r1, r1, #216
 1542 084a 2046     		mov	r0, r4
 1543 084c FFF7FEFF 		bl	lv_obj_add_style
 1544              	.LVL170:
 1545 0850 AEE4     		b	.L8
 1546              	.L21:
 824:lvgl/src/extra/themes/default/lv_theme_default.c ****         lv_obj_add_style(obj, &styles->card, 0);
 1547              		.loc 1 824 10 is_stmt 1 view .LVU477
 824:lvgl/src/extra/themes/default/lv_theme_default.c ****         lv_obj_add_style(obj, &styles->card, 0);
 1548              		.loc 1 824 13 is_stmt 0 view .LVU478
 1549 0852 4949     		ldr	r1, .L57+36
 1550 0854 2046     		mov	r0, r4
 1551 0856 FFF7FEFF 		bl	lv_obj_check_type
 1552              	.LVL171:
 824:lvgl/src/extra/themes/default/lv_theme_default.c ****         lv_obj_add_style(obj, &styles->card, 0);
 1553              		.loc 1 824 12 view .LVU479
 1554 085a 0028     		cmp	r0, #0
 1555 085c 3AD0     		beq	.L22
 825:lvgl/src/extra/themes/default/lv_theme_default.c ****         lv_obj_add_style(obj, &styles->clip_corner, 0);
 1556              		.loc 1 825 9 is_stmt 1 view .LVU480
 825:lvgl/src/extra/themes/default/lv_theme_default.c ****         lv_obj_add_style(obj, &styles->clip_corner, 0);
 1557              		.loc 1 825 38 is_stmt 0 view .LVU481
 1558 085e 3E4D     		ldr	r5, .L57+4
 1559 0860 2968     		ldr	r1, [r5]
 825:lvgl/src/extra/themes/default/lv_theme_default.c ****         lv_obj_add_style(obj, &styles->clip_corner, 0);
 1560              		.loc 1 825 9 view .LVU482
 1561 0862 0022     		movs	r2, #0
 1562 0864 1831     		adds	r1, r1, #24
 1563 0866 2046     		mov	r0, r4
 1564 0868 FFF7FEFF 		bl	lv_obj_add_style
 1565              	.LVL172:
 826:lvgl/src/extra/themes/default/lv_theme_default.c ****         lv_obj_add_style(obj, &styles->line_space_large, 0);
ARM GAS  /var/folders/k2/cd9bl_j17z77g23y6ffqb_400000gn/T//ccRoPncs.s 			page 54


 1566              		.loc 1 826 9 is_stmt 1 view .LVU483
 826:lvgl/src/extra/themes/default/lv_theme_default.c ****         lv_obj_add_style(obj, &styles->line_space_large, 0);
 1567              		.loc 1 826 38 is_stmt 0 view .LVU484
 1568 086c 2968     		ldr	r1, [r5]
 826:lvgl/src/extra/themes/default/lv_theme_default.c ****         lv_obj_add_style(obj, &styles->line_space_large, 0);
 1569              		.loc 1 826 9 view .LVU485
 1570 086e 0022     		movs	r2, #0
 1571 0870 C031     		adds	r1, r1, #192
 1572 0872 2046     		mov	r0, r4
 1573 0874 FFF7FEFF 		bl	lv_obj_add_style
 1574              	.LVL173:
 827:lvgl/src/extra/themes/default/lv_theme_default.c ****         lv_obj_add_style(obj, &styles->dropdown_list, 0);
 1575              		.loc 1 827 9 is_stmt 1 view .LVU486
 827:lvgl/src/extra/themes/default/lv_theme_default.c ****         lv_obj_add_style(obj, &styles->dropdown_list, 0);
 1576              		.loc 1 827 38 is_stmt 0 view .LVU487
 1577 0878 2968     		ldr	r1, [r5]
 827:lvgl/src/extra/themes/default/lv_theme_default.c ****         lv_obj_add_style(obj, &styles->dropdown_list, 0);
 1578              		.loc 1 827 9 view .LVU488
 1579 087a 0022     		movs	r2, #0
 1580 087c 9031     		adds	r1, r1, #144
 1581 087e 2046     		mov	r0, r4
 1582 0880 FFF7FEFF 		bl	lv_obj_add_style
 1583              	.LVL174:
 828:lvgl/src/extra/themes/default/lv_theme_default.c ****         lv_obj_add_style(obj, &styles->scrollbar, LV_PART_SCROLLBAR);
 1584              		.loc 1 828 9 is_stmt 1 view .LVU489
 828:lvgl/src/extra/themes/default/lv_theme_default.c ****         lv_obj_add_style(obj, &styles->scrollbar, LV_PART_SCROLLBAR);
 1585              		.loc 1 828 38 is_stmt 0 view .LVU490
 1586 0884 2968     		ldr	r1, [r5]
 828:lvgl/src/extra/themes/default/lv_theme_default.c ****         lv_obj_add_style(obj, &styles->scrollbar, LV_PART_SCROLLBAR);
 1587              		.loc 1 828 9 view .LVU491
 1588 0886 0022     		movs	r2, #0
 1589 0888 01F59471 		add	r1, r1, #296
 1590 088c 2046     		mov	r0, r4
 1591 088e FFF7FEFF 		bl	lv_obj_add_style
 1592              	.LVL175:
 829:lvgl/src/extra/themes/default/lv_theme_default.c ****         lv_obj_add_style(obj, &styles->scrollbar_scrolled, LV_PART_SCROLLBAR | LV_STATE_SCROLLED);
 1593              		.loc 1 829 9 is_stmt 1 view .LVU492
 829:lvgl/src/extra/themes/default/lv_theme_default.c ****         lv_obj_add_style(obj, &styles->scrollbar_scrolled, LV_PART_SCROLLBAR | LV_STATE_SCROLLED);
 1594              		.loc 1 829 38 is_stmt 0 view .LVU493
 1595 0892 2968     		ldr	r1, [r5]
 829:lvgl/src/extra/themes/default/lv_theme_default.c ****         lv_obj_add_style(obj, &styles->scrollbar_scrolled, LV_PART_SCROLLBAR | LV_STATE_SCROLLED);
 1596              		.loc 1 829 9 view .LVU494
 1597 0894 4FF48032 		mov	r2, #65536
 1598 0898 0831     		adds	r1, r1, #8
 1599 089a 2046     		mov	r0, r4
 1600 089c FFF7FEFF 		bl	lv_obj_add_style
 1601              	.LVL176:
 830:lvgl/src/extra/themes/default/lv_theme_default.c ****         lv_obj_add_style(obj, &styles->bg_color_white, LV_PART_SELECTED);
 1602              		.loc 1 830 9 is_stmt 1 view .LVU495
 830:lvgl/src/extra/themes/default/lv_theme_default.c ****         lv_obj_add_style(obj, &styles->bg_color_white, LV_PART_SELECTED);
 1603              		.loc 1 830 38 is_stmt 0 view .LVU496
 1604 08a0 2968     		ldr	r1, [r5]
 830:lvgl/src/extra/themes/default/lv_theme_default.c ****         lv_obj_add_style(obj, &styles->bg_color_white, LV_PART_SELECTED);
 1605              		.loc 1 830 9 view .LVU497
 1606 08a2 324A     		ldr	r2, .L57+24
 1607 08a4 1031     		adds	r1, r1, #16
 1608 08a6 2046     		mov	r0, r4
ARM GAS  /var/folders/k2/cd9bl_j17z77g23y6ffqb_400000gn/T//ccRoPncs.s 			page 55


 1609 08a8 FFF7FEFF 		bl	lv_obj_add_style
 1610              	.LVL177:
 831:lvgl/src/extra/themes/default/lv_theme_default.c ****         lv_obj_add_style(obj, &styles->bg_color_primary, LV_PART_SELECTED | LV_STATE_CHECKED);
 1611              		.loc 1 831 9 is_stmt 1 view .LVU498
 831:lvgl/src/extra/themes/default/lv_theme_default.c ****         lv_obj_add_style(obj, &styles->bg_color_primary, LV_PART_SELECTED | LV_STATE_CHECKED);
 1612              		.loc 1 831 38 is_stmt 0 view .LVU499
 1613 08ac 2968     		ldr	r1, [r5]
 831:lvgl/src/extra/themes/default/lv_theme_default.c ****         lv_obj_add_style(obj, &styles->bg_color_primary, LV_PART_SELECTED | LV_STATE_CHECKED);
 1614              		.loc 1 831 9 view .LVU500
 1615 08ae 4FF48022 		mov	r2, #262144
 1616 08b2 5031     		adds	r1, r1, #80
 1617 08b4 2046     		mov	r0, r4
 1618 08b6 FFF7FEFF 		bl	lv_obj_add_style
 1619              	.LVL178:
 832:lvgl/src/extra/themes/default/lv_theme_default.c ****         lv_obj_add_style(obj, &styles->pressed, LV_PART_SELECTED | LV_STATE_PRESSED);
 1620              		.loc 1 832 9 is_stmt 1 view .LVU501
 832:lvgl/src/extra/themes/default/lv_theme_default.c ****         lv_obj_add_style(obj, &styles->pressed, LV_PART_SELECTED | LV_STATE_PRESSED);
 1621              		.loc 1 832 38 is_stmt 0 view .LVU502
 1622 08ba 2968     		ldr	r1, [r5]
 832:lvgl/src/extra/themes/default/lv_theme_default.c ****         lv_obj_add_style(obj, &styles->pressed, LV_PART_SELECTED | LV_STATE_PRESSED);
 1623              		.loc 1 832 9 view .LVU503
 1624 08bc 2F4A     		ldr	r2, .L57+40
 1625 08be 2831     		adds	r1, r1, #40
 1626 08c0 2046     		mov	r0, r4
 1627 08c2 FFF7FEFF 		bl	lv_obj_add_style
 1628              	.LVL179:
 833:lvgl/src/extra/themes/default/lv_theme_default.c ****     }
 1629              		.loc 1 833 9 is_stmt 1 view .LVU504
 833:lvgl/src/extra/themes/default/lv_theme_default.c ****     }
 1630              		.loc 1 833 38 is_stmt 0 view .LVU505
 1631 08c6 2968     		ldr	r1, [r5]
 833:lvgl/src/extra/themes/default/lv_theme_default.c ****     }
 1632              		.loc 1 833 9 view .LVU506
 1633 08c8 2D4A     		ldr	r2, .L57+44
 1634 08ca 5831     		adds	r1, r1, #88
 1635 08cc 2046     		mov	r0, r4
 1636 08ce FFF7FEFF 		bl	lv_obj_add_style
 1637              	.LVL180:
 1638 08d2 6DE4     		b	.L8
 1639              	.L22:
 838:lvgl/src/extra/themes/default/lv_theme_default.c ****         lv_obj_add_style(obj, &styles->arc_indic, 0);
 1640              		.loc 1 838 10 is_stmt 1 view .LVU507
 838:lvgl/src/extra/themes/default/lv_theme_default.c ****         lv_obj_add_style(obj, &styles->arc_indic, 0);
 1641              		.loc 1 838 13 is_stmt 0 view .LVU508
 1642 08d4 2B49     		ldr	r1, .L57+48
 1643 08d6 2046     		mov	r0, r4
 1644 08d8 FFF7FEFF 		bl	lv_obj_check_type
 1645              	.LVL181:
 838:lvgl/src/extra/themes/default/lv_theme_default.c ****         lv_obj_add_style(obj, &styles->arc_indic, 0);
 1646              		.loc 1 838 12 view .LVU509
 1647 08dc E8B1     		cbz	r0, .L23
 839:lvgl/src/extra/themes/default/lv_theme_default.c ****         lv_obj_add_style(obj, &styles->arc_indic, LV_PART_INDICATOR);
 1648              		.loc 1 839 9 is_stmt 1 view .LVU510
 839:lvgl/src/extra/themes/default/lv_theme_default.c ****         lv_obj_add_style(obj, &styles->arc_indic, LV_PART_INDICATOR);
 1649              		.loc 1 839 38 is_stmt 0 view .LVU511
 1650 08de 1E4D     		ldr	r5, .L57+4
 1651 08e0 2968     		ldr	r1, [r5]
ARM GAS  /var/folders/k2/cd9bl_j17z77g23y6ffqb_400000gn/T//ccRoPncs.s 			page 56


 839:lvgl/src/extra/themes/default/lv_theme_default.c ****         lv_obj_add_style(obj, &styles->arc_indic, LV_PART_INDICATOR);
 1652              		.loc 1 839 9 view .LVU512
 1653 08e2 0022     		movs	r2, #0
 1654 08e4 F831     		adds	r1, r1, #248
 1655 08e6 2046     		mov	r0, r4
 1656 08e8 FFF7FEFF 		bl	lv_obj_add_style
 1657              	.LVL182:
 840:lvgl/src/extra/themes/default/lv_theme_default.c ****         lv_obj_add_style(obj, &styles->arc_indic_primary, LV_PART_INDICATOR);
 1658              		.loc 1 840 9 is_stmt 1 view .LVU513
 840:lvgl/src/extra/themes/default/lv_theme_default.c ****         lv_obj_add_style(obj, &styles->arc_indic_primary, LV_PART_INDICATOR);
 1659              		.loc 1 840 38 is_stmt 0 view .LVU514
 1660 08ec 2968     		ldr	r1, [r5]
 840:lvgl/src/extra/themes/default/lv_theme_default.c ****         lv_obj_add_style(obj, &styles->arc_indic_primary, LV_PART_INDICATOR);
 1661              		.loc 1 840 9 view .LVU515
 1662 08ee 4FF40032 		mov	r2, #131072
 1663 08f2 F831     		adds	r1, r1, #248
 1664 08f4 2046     		mov	r0, r4
 1665 08f6 FFF7FEFF 		bl	lv_obj_add_style
 1666              	.LVL183:
 841:lvgl/src/extra/themes/default/lv_theme_default.c ****         lv_obj_add_style(obj, &styles->knob, LV_PART_KNOB);
 1667              		.loc 1 841 9 is_stmt 1 view .LVU516
 841:lvgl/src/extra/themes/default/lv_theme_default.c ****         lv_obj_add_style(obj, &styles->knob, LV_PART_KNOB);
 1668              		.loc 1 841 38 is_stmt 0 view .LVU517
 1669 08fa 2968     		ldr	r1, [r5]
 841:lvgl/src/extra/themes/default/lv_theme_default.c ****         lv_obj_add_style(obj, &styles->knob, LV_PART_KNOB);
 1670              		.loc 1 841 9 view .LVU518
 1671 08fc 4FF40032 		mov	r2, #131072
 1672 0900 01F58071 		add	r1, r1, #256
 1673 0904 2046     		mov	r0, r4
 1674 0906 FFF7FEFF 		bl	lv_obj_add_style
 1675              	.LVL184:
 842:lvgl/src/extra/themes/default/lv_theme_default.c ****     }
 1676              		.loc 1 842 9 is_stmt 1 view .LVU519
 842:lvgl/src/extra/themes/default/lv_theme_default.c ****     }
 1677              		.loc 1 842 38 is_stmt 0 view .LVU520
 1678 090a 2968     		ldr	r1, [r5]
 842:lvgl/src/extra/themes/default/lv_theme_default.c ****     }
 1679              		.loc 1 842 9 view .LVU521
 1680 090c 4FF44032 		mov	r2, #196608
 1681 0910 E831     		adds	r1, r1, #232
 1682 0912 2046     		mov	r0, r4
 1683 0914 FFF7FEFF 		bl	lv_obj_add_style
 1684              	.LVL185:
 1685 0918 4AE4     		b	.L8
 1686              	.L23:
 848:lvgl/src/extra/themes/default/lv_theme_default.c ****         lv_obj_add_style(obj, &styles->arc_indic, 0);
 1687              		.loc 1 848 10 is_stmt 1 view .LVU522
 848:lvgl/src/extra/themes/default/lv_theme_default.c ****         lv_obj_add_style(obj, &styles->arc_indic, 0);
 1688              		.loc 1 848 13 is_stmt 0 view .LVU523
 1689 091a 1B49     		ldr	r1, .L57+52
 1690 091c 2046     		mov	r0, r4
 1691 091e FFF7FEFF 		bl	lv_obj_check_type
 1692              	.LVL186:
 848:lvgl/src/extra/themes/default/lv_theme_default.c ****         lv_obj_add_style(obj, &styles->arc_indic, 0);
 1693              		.loc 1 848 12 view .LVU524
 1694 0922 98B3     		cbz	r0, .L24
 849:lvgl/src/extra/themes/default/lv_theme_default.c ****         lv_obj_add_style(obj, &styles->arc_indic, LV_PART_INDICATOR);
ARM GAS  /var/folders/k2/cd9bl_j17z77g23y6ffqb_400000gn/T//ccRoPncs.s 			page 57


 1695              		.loc 1 849 9 is_stmt 1 view .LVU525
 849:lvgl/src/extra/themes/default/lv_theme_default.c ****         lv_obj_add_style(obj, &styles->arc_indic, LV_PART_INDICATOR);
 1696              		.loc 1 849 38 is_stmt 0 view .LVU526
 1697 0924 0C4D     		ldr	r5, .L57+4
 1698 0926 2968     		ldr	r1, [r5]
 849:lvgl/src/extra/themes/default/lv_theme_default.c ****         lv_obj_add_style(obj, &styles->arc_indic, LV_PART_INDICATOR);
 1699              		.loc 1 849 9 view .LVU527
 1700 0928 0022     		movs	r2, #0
 1701 092a F831     		adds	r1, r1, #248
 1702 092c 2046     		mov	r0, r4
 1703 092e FFF7FEFF 		bl	lv_obj_add_style
 1704              	.LVL187:
 850:lvgl/src/extra/themes/default/lv_theme_default.c ****         lv_obj_add_style(obj, &styles->arc_indic_primary, LV_PART_INDICATOR);
 1705              		.loc 1 850 9 is_stmt 1 view .LVU528
 850:lvgl/src/extra/themes/default/lv_theme_default.c ****         lv_obj_add_style(obj, &styles->arc_indic_primary, LV_PART_INDICATOR);
 1706              		.loc 1 850 38 is_stmt 0 view .LVU529
 1707 0932 2968     		ldr	r1, [r5]
 850:lvgl/src/extra/themes/default/lv_theme_default.c ****         lv_obj_add_style(obj, &styles->arc_indic_primary, LV_PART_INDICATOR);
 1708              		.loc 1 850 9 view .LVU530
 1709 0934 4FF40032 		mov	r2, #131072
 1710 0938 F831     		adds	r1, r1, #248
 1711 093a 2046     		mov	r0, r4
 1712 093c FFF7FEFF 		bl	lv_obj_add_style
 1713              	.LVL188:
 851:lvgl/src/extra/themes/default/lv_theme_default.c ****     }
 1714              		.loc 1 851 9 is_stmt 1 view .LVU531
 851:lvgl/src/extra/themes/default/lv_theme_default.c ****     }
 1715              		.loc 1 851 38 is_stmt 0 view .LVU532
 1716 0940 2968     		ldr	r1, [r5]
 851:lvgl/src/extra/themes/default/lv_theme_default.c ****     }
 1717              		.loc 1 851 9 view .LVU533
 1718 0942 4FF40032 		mov	r2, #131072
 1719 0946 01F58071 		add	r1, r1, #256
 1720 094a 2046     		mov	r0, r4
 1721 094c FFF7FEFF 		bl	lv_obj_add_style
 1722              	.LVL189:
 1723 0950 2EE4     		b	.L8
 1724              	.L58:
 1725 0952 00BF     		.align	2
 1726              	.L57:
 1727 0954 00000000 		.word	lv_switch_class
 1728 0958 00000000 		.word	.LANCHOR0
 1729 095c 01000200 		.word	131073
 1730 0960 80000200 		.word	131200
 1731 0964 80000300 		.word	196736
 1732 0968 00000000 		.word	lv_chart_class
 1733 096c 40000100 		.word	65600
 1734 0970 00000000 		.word	lv_roller_class
 1735 0974 00000000 		.word	lv_dropdown_class
 1736 0978 00000000 		.word	lv_dropdownlist_class
 1737 097c 01000400 		.word	262145
 1738 0980 20000400 		.word	262176
 1739 0984 00000000 		.word	lv_arc_class
 1740 0988 00000000 		.word	lv_spinner_class
 1741              	.L24:
 856:lvgl/src/extra/themes/default/lv_theme_default.c ****         lv_obj_add_style(obj, &styles->card, 0);
 1742              		.loc 1 856 10 is_stmt 1 view .LVU534
ARM GAS  /var/folders/k2/cd9bl_j17z77g23y6ffqb_400000gn/T//ccRoPncs.s 			page 58


 856:lvgl/src/extra/themes/default/lv_theme_default.c ****         lv_obj_add_style(obj, &styles->card, 0);
 1743              		.loc 1 856 13 is_stmt 0 view .LVU535
 1744 098c BD49     		ldr	r1, .L59
 1745 098e 2046     		mov	r0, r4
 1746 0990 FFF7FEFF 		bl	lv_obj_check_type
 1747              	.LVL190:
 856:lvgl/src/extra/themes/default/lv_theme_default.c ****         lv_obj_add_style(obj, &styles->card, 0);
 1748              		.loc 1 856 12 view .LVU536
 1749 0994 B0B1     		cbz	r0, .L25
 857:lvgl/src/extra/themes/default/lv_theme_default.c ****         lv_obj_add_style(obj, &styles->circle, 0);
 1750              		.loc 1 857 9 is_stmt 1 view .LVU537
 857:lvgl/src/extra/themes/default/lv_theme_default.c ****         lv_obj_add_style(obj, &styles->circle, 0);
 1751              		.loc 1 857 38 is_stmt 0 view .LVU538
 1752 0996 BC4D     		ldr	r5, .L59+4
 1753 0998 2968     		ldr	r1, [r5]
 857:lvgl/src/extra/themes/default/lv_theme_default.c ****         lv_obj_add_style(obj, &styles->circle, 0);
 1754              		.loc 1 857 9 view .LVU539
 1755 099a 0022     		movs	r2, #0
 1756 099c 1831     		adds	r1, r1, #24
 1757 099e 2046     		mov	r0, r4
 1758 09a0 FFF7FEFF 		bl	lv_obj_add_style
 1759              	.LVL191:
 858:lvgl/src/extra/themes/default/lv_theme_default.c ****         lv_obj_add_style(obj, &styles->meter_indic, LV_PART_INDICATOR);
 1760              		.loc 1 858 9 is_stmt 1 view .LVU540
 858:lvgl/src/extra/themes/default/lv_theme_default.c ****         lv_obj_add_style(obj, &styles->meter_indic, LV_PART_INDICATOR);
 1761              		.loc 1 858 38 is_stmt 0 view .LVU541
 1762 09a4 2968     		ldr	r1, [r5]
 858:lvgl/src/extra/themes/default/lv_theme_default.c ****         lv_obj_add_style(obj, &styles->meter_indic, LV_PART_INDICATOR);
 1763              		.loc 1 858 9 view .LVU542
 1764 09a6 0022     		movs	r2, #0
 1765 09a8 B031     		adds	r1, r1, #176
 1766 09aa 2046     		mov	r0, r4
 1767 09ac FFF7FEFF 		bl	lv_obj_add_style
 1768              	.LVL192:
 859:lvgl/src/extra/themes/default/lv_theme_default.c ****     }
 1769              		.loc 1 859 9 is_stmt 1 view .LVU543
 859:lvgl/src/extra/themes/default/lv_theme_default.c ****     }
 1770              		.loc 1 859 38 is_stmt 0 view .LVU544
 1771 09b0 2968     		ldr	r1, [r5]
 859:lvgl/src/extra/themes/default/lv_theme_default.c ****     }
 1772              		.loc 1 859 9 view .LVU545
 1773 09b2 4FF40032 		mov	r2, #131072
 1774 09b6 01F5B071 		add	r1, r1, #352
 1775 09ba 2046     		mov	r0, r4
 1776 09bc FFF7FEFF 		bl	lv_obj_add_style
 1777              	.LVL193:
 1778 09c0 FFF7F6BB 		b	.L8
 1779              	.L25:
 864:lvgl/src/extra/themes/default/lv_theme_default.c ****         lv_obj_add_style(obj, &styles->card, 0);
 1780              		.loc 1 864 10 is_stmt 1 view .LVU546
 864:lvgl/src/extra/themes/default/lv_theme_default.c ****         lv_obj_add_style(obj, &styles->card, 0);
 1781              		.loc 1 864 13 is_stmt 0 view .LVU547
 1782 09c4 B149     		ldr	r1, .L59+8
 1783 09c6 2046     		mov	r0, r4
 1784 09c8 FFF7FEFF 		bl	lv_obj_check_type
 1785              	.LVL194:
 864:lvgl/src/extra/themes/default/lv_theme_default.c ****         lv_obj_add_style(obj, &styles->card, 0);
ARM GAS  /var/folders/k2/cd9bl_j17z77g23y6ffqb_400000gn/T//ccRoPncs.s 			page 59


 1786              		.loc 1 864 12 view .LVU548
 1787 09cc 0028     		cmp	r0, #0
 1788 09ce 36D0     		beq	.L26
 865:lvgl/src/extra/themes/default/lv_theme_default.c ****         lv_obj_add_style(obj, &styles->pad_small, 0);
 1789              		.loc 1 865 9 is_stmt 1 view .LVU549
 865:lvgl/src/extra/themes/default/lv_theme_default.c ****         lv_obj_add_style(obj, &styles->pad_small, 0);
 1790              		.loc 1 865 38 is_stmt 0 view .LVU550
 1791 09d0 AD4D     		ldr	r5, .L59+4
 1792 09d2 2968     		ldr	r1, [r5]
 865:lvgl/src/extra/themes/default/lv_theme_default.c ****         lv_obj_add_style(obj, &styles->pad_small, 0);
 1793              		.loc 1 865 9 view .LVU551
 1794 09d4 0022     		movs	r2, #0
 1795 09d6 1831     		adds	r1, r1, #24
 1796 09d8 2046     		mov	r0, r4
 1797 09da FFF7FEFF 		bl	lv_obj_add_style
 1798              	.LVL195:
 866:lvgl/src/extra/themes/default/lv_theme_default.c ****         lv_obj_add_style(obj, &styles->outline_primary, LV_STATE_FOCUS_KEY);
 1799              		.loc 1 866 9 is_stmt 1 view .LVU552
 866:lvgl/src/extra/themes/default/lv_theme_default.c ****         lv_obj_add_style(obj, &styles->outline_primary, LV_STATE_FOCUS_KEY);
 1800              		.loc 1 866 38 is_stmt 0 view .LVU553
 1801 09de 2968     		ldr	r1, [r5]
 866:lvgl/src/extra/themes/default/lv_theme_default.c ****         lv_obj_add_style(obj, &styles->outline_primary, LV_STATE_FOCUS_KEY);
 1802              		.loc 1 866 9 view .LVU554
 1803 09e0 0022     		movs	r2, #0
 1804 09e2 7831     		adds	r1, r1, #120
 1805 09e4 2046     		mov	r0, r4
 1806 09e6 FFF7FEFF 		bl	lv_obj_add_style
 1807              	.LVL196:
 867:lvgl/src/extra/themes/default/lv_theme_default.c ****         lv_obj_add_style(obj, &styles->outline_secondary, LV_STATE_EDITED);
 1808              		.loc 1 867 9 is_stmt 1 view .LVU555
 867:lvgl/src/extra/themes/default/lv_theme_default.c ****         lv_obj_add_style(obj, &styles->outline_secondary, LV_STATE_EDITED);
 1809              		.loc 1 867 38 is_stmt 0 view .LVU556
 1810 09ea 2968     		ldr	r1, [r5]
 867:lvgl/src/extra/themes/default/lv_theme_default.c ****         lv_obj_add_style(obj, &styles->outline_secondary, LV_STATE_EDITED);
 1811              		.loc 1 867 9 view .LVU557
 1812 09ec 0422     		movs	r2, #4
 1813 09ee A031     		adds	r1, r1, #160
 1814 09f0 2046     		mov	r0, r4
 1815 09f2 FFF7FEFF 		bl	lv_obj_add_style
 1816              	.LVL197:
 868:lvgl/src/extra/themes/default/lv_theme_default.c ****         lv_obj_add_style(obj, &styles->scrollbar, LV_PART_SCROLLBAR);
 1817              		.loc 1 868 9 is_stmt 1 view .LVU558
 868:lvgl/src/extra/themes/default/lv_theme_default.c ****         lv_obj_add_style(obj, &styles->scrollbar, LV_PART_SCROLLBAR);
 1818              		.loc 1 868 38 is_stmt 0 view .LVU559
 1819 09f6 2968     		ldr	r1, [r5]
 868:lvgl/src/extra/themes/default/lv_theme_default.c ****         lv_obj_add_style(obj, &styles->scrollbar, LV_PART_SCROLLBAR);
 1820              		.loc 1 868 9 view .LVU560
 1821 09f8 0822     		movs	r2, #8
 1822 09fa A831     		adds	r1, r1, #168
 1823 09fc 2046     		mov	r0, r4
 1824 09fe FFF7FEFF 		bl	lv_obj_add_style
 1825              	.LVL198:
 869:lvgl/src/extra/themes/default/lv_theme_default.c ****         lv_obj_add_style(obj, &styles->scrollbar_scrolled, LV_PART_SCROLLBAR | LV_STATE_SCROLLED);
 1826              		.loc 1 869 9 is_stmt 1 view .LVU561
 869:lvgl/src/extra/themes/default/lv_theme_default.c ****         lv_obj_add_style(obj, &styles->scrollbar_scrolled, LV_PART_SCROLLBAR | LV_STATE_SCROLLED);
 1827              		.loc 1 869 38 is_stmt 0 view .LVU562
 1828 0a02 2968     		ldr	r1, [r5]
ARM GAS  /var/folders/k2/cd9bl_j17z77g23y6ffqb_400000gn/T//ccRoPncs.s 			page 60


 869:lvgl/src/extra/themes/default/lv_theme_default.c ****         lv_obj_add_style(obj, &styles->scrollbar_scrolled, LV_PART_SCROLLBAR | LV_STATE_SCROLLED);
 1829              		.loc 1 869 9 view .LVU563
 1830 0a04 4FF48032 		mov	r2, #65536
 1831 0a08 0831     		adds	r1, r1, #8
 1832 0a0a 2046     		mov	r0, r4
 1833 0a0c FFF7FEFF 		bl	lv_obj_add_style
 1834              	.LVL199:
 870:lvgl/src/extra/themes/default/lv_theme_default.c ****         lv_obj_add_style(obj, &styles->ta_cursor, LV_PART_CURSOR | LV_STATE_FOCUSED);
 1835              		.loc 1 870 9 is_stmt 1 view .LVU564
 870:lvgl/src/extra/themes/default/lv_theme_default.c ****         lv_obj_add_style(obj, &styles->ta_cursor, LV_PART_CURSOR | LV_STATE_FOCUSED);
 1836              		.loc 1 870 38 is_stmt 0 view .LVU565
 1837 0a10 2968     		ldr	r1, [r5]
 870:lvgl/src/extra/themes/default/lv_theme_default.c ****         lv_obj_add_style(obj, &styles->ta_cursor, LV_PART_CURSOR | LV_STATE_FOCUSED);
 1838              		.loc 1 870 9 view .LVU566
 1839 0a12 9F4A     		ldr	r2, .L59+12
 1840 0a14 1031     		adds	r1, r1, #16
 1841 0a16 2046     		mov	r0, r4
 1842 0a18 FFF7FEFF 		bl	lv_obj_add_style
 1843              	.LVL200:
 871:lvgl/src/extra/themes/default/lv_theme_default.c ****         lv_obj_add_style(obj, &styles->ta_placeholder, LV_PART_TEXTAREA_PLACEHOLDER);
 1844              		.loc 1 871 9 is_stmt 1 view .LVU567
 871:lvgl/src/extra/themes/default/lv_theme_default.c ****         lv_obj_add_style(obj, &styles->ta_placeholder, LV_PART_TEXTAREA_PLACEHOLDER);
 1845              		.loc 1 871 38 is_stmt 0 view .LVU568
 1846 0a1c 2968     		ldr	r1, [r5]
 871:lvgl/src/extra/themes/default/lv_theme_default.c ****         lv_obj_add_style(obj, &styles->ta_placeholder, LV_PART_TEXTAREA_PLACEHOLDER);
 1847              		.loc 1 871 9 view .LVU569
 1848 0a1e 9D4A     		ldr	r2, .L59+16
 1849 0a20 01F5B471 		add	r1, r1, #360
 1850 0a24 2046     		mov	r0, r4
 1851 0a26 FFF7FEFF 		bl	lv_obj_add_style
 1852              	.LVL201:
 872:lvgl/src/extra/themes/default/lv_theme_default.c ****     }
 1853              		.loc 1 872 9 is_stmt 1 view .LVU570
 872:lvgl/src/extra/themes/default/lv_theme_default.c ****     }
 1854              		.loc 1 872 38 is_stmt 0 view .LVU571
 1855 0a2a 2968     		ldr	r1, [r5]
 872:lvgl/src/extra/themes/default/lv_theme_default.c ****     }
 1856              		.loc 1 872 9 view .LVU572
 1857 0a2c 4FF40022 		mov	r2, #524288
 1858 0a30 01F5B871 		add	r1, r1, #368
 1859 0a34 2046     		mov	r0, r4
 1860 0a36 FFF7FEFF 		bl	lv_obj_add_style
 1861              	.LVL202:
 1862 0a3a FFF7B9BB 		b	.L8
 1863              	.L26:
 877:lvgl/src/extra/themes/default/lv_theme_default.c ****         lv_obj_add_style(obj, &styles->card, 0);
 1864              		.loc 1 877 10 is_stmt 1 view .LVU573
 877:lvgl/src/extra/themes/default/lv_theme_default.c ****         lv_obj_add_style(obj, &styles->card, 0);
 1865              		.loc 1 877 13 is_stmt 0 view .LVU574
 1866 0a3e 9649     		ldr	r1, .L59+20
 1867 0a40 2046     		mov	r0, r4
 1868 0a42 FFF7FEFF 		bl	lv_obj_check_type
 1869              	.LVL203:
 877:lvgl/src/extra/themes/default/lv_theme_default.c ****         lv_obj_add_style(obj, &styles->card, 0);
 1870              		.loc 1 877 12 view .LVU575
 1871 0a46 0028     		cmp	r0, #0
 1872 0a48 3BD0     		beq	.L27
ARM GAS  /var/folders/k2/cd9bl_j17z77g23y6ffqb_400000gn/T//ccRoPncs.s 			page 61


 878:lvgl/src/extra/themes/default/lv_theme_default.c ****         lv_obj_add_style(obj, &styles->calendar_bg, 0);
 1873              		.loc 1 878 9 is_stmt 1 view .LVU576
 878:lvgl/src/extra/themes/default/lv_theme_default.c ****         lv_obj_add_style(obj, &styles->calendar_bg, 0);
 1874              		.loc 1 878 38 is_stmt 0 view .LVU577
 1875 0a4a 8F4D     		ldr	r5, .L59+4
 1876 0a4c 2968     		ldr	r1, [r5]
 878:lvgl/src/extra/themes/default/lv_theme_default.c ****         lv_obj_add_style(obj, &styles->calendar_bg, 0);
 1877              		.loc 1 878 9 view .LVU578
 1878 0a4e 0022     		movs	r2, #0
 1879 0a50 1831     		adds	r1, r1, #24
 1880 0a52 2046     		mov	r0, r4
 1881 0a54 FFF7FEFF 		bl	lv_obj_add_style
 1882              	.LVL204:
 879:lvgl/src/extra/themes/default/lv_theme_default.c ****         lv_obj_add_style(obj, &styles->outline_primary, LV_STATE_FOCUS_KEY);
 1883              		.loc 1 879 9 is_stmt 1 view .LVU579
 879:lvgl/src/extra/themes/default/lv_theme_default.c ****         lv_obj_add_style(obj, &styles->outline_primary, LV_STATE_FOCUS_KEY);
 1884              		.loc 1 879 38 is_stmt 0 view .LVU580
 1885 0a58 2968     		ldr	r1, [r5]
 879:lvgl/src/extra/themes/default/lv_theme_default.c ****         lv_obj_add_style(obj, &styles->outline_primary, LV_STATE_FOCUS_KEY);
 1886              		.loc 1 879 9 view .LVU581
 1887 0a5a 0022     		movs	r2, #0
 1888 0a5c 01F5BC71 		add	r1, r1, #376
 1889 0a60 2046     		mov	r0, r4
 1890 0a62 FFF7FEFF 		bl	lv_obj_add_style
 1891              	.LVL205:
 880:lvgl/src/extra/themes/default/lv_theme_default.c ****         lv_obj_add_style(obj, &styles->outline_secondary, LV_STATE_EDITED);
 1892              		.loc 1 880 9 is_stmt 1 view .LVU582
 880:lvgl/src/extra/themes/default/lv_theme_default.c ****         lv_obj_add_style(obj, &styles->outline_secondary, LV_STATE_EDITED);
 1893              		.loc 1 880 38 is_stmt 0 view .LVU583
 1894 0a66 2968     		ldr	r1, [r5]
 880:lvgl/src/extra/themes/default/lv_theme_default.c ****         lv_obj_add_style(obj, &styles->outline_secondary, LV_STATE_EDITED);
 1895              		.loc 1 880 9 view .LVU584
 1896 0a68 0422     		movs	r2, #4
 1897 0a6a A031     		adds	r1, r1, #160
 1898 0a6c 2046     		mov	r0, r4
 1899 0a6e FFF7FEFF 		bl	lv_obj_add_style
 1900              	.LVL206:
 881:lvgl/src/extra/themes/default/lv_theme_default.c ****         lv_obj_add_style(obj, &styles->calendar_day, LV_PART_ITEMS);
 1901              		.loc 1 881 9 is_stmt 1 view .LVU585
 881:lvgl/src/extra/themes/default/lv_theme_default.c ****         lv_obj_add_style(obj, &styles->calendar_day, LV_PART_ITEMS);
 1902              		.loc 1 881 38 is_stmt 0 view .LVU586
 1903 0a72 2968     		ldr	r1, [r5]
