ARM GAS  /var/folders/k2/cd9bl_j17z77g23y6ffqb_400000gn/T//ccRoPncs.s 			page 1


   1              		.cpu cortex-m4
   2              		.eabi_attribute 27, 1
   3              		.eabi_attribute 28, 1
   4              		.eabi_attribute 20, 1
   5              		.eabi_attribute 21, 1
   6              		.eabi_attribute 23, 3
   7              		.eabi_attribute 24, 1
   8              		.eabi_attribute 25, 1
   9              		.eabi_attribute 26, 1
  10              		.eabi_attribute 30, 1
  11              		.eabi_attribute 34, 1
  12              		.eabi_attribute 18, 4
  13              		.file	"lv_theme_default.c"
  14              		.text
  15              	.Ltext0:
  16              		.cfi_sections	.debug_frame
  17              		.section	.text.theme_apply,"ax",%progbits
  18              		.align	1
  19              		.arch armv7e-m
  20              		.syntax unified
  21              		.thumb
  22              		.thumb_func
  23              		.fpu fpv4-sp-d16
  25              	theme_apply:
  26              	.LVL0:
  27              	.LFB189:
  28              		.file 1 "lvgl/src/extra/themes/default/lv_theme_default.c"
   1:lvgl/src/extra/themes/default/lv_theme_default.c **** /**
   2:lvgl/src/extra/themes/default/lv_theme_default.c ****  * @file lv_theme_defau.c
   3:lvgl/src/extra/themes/default/lv_theme_default.c ****  *
   4:lvgl/src/extra/themes/default/lv_theme_default.c ****  */
   5:lvgl/src/extra/themes/default/lv_theme_default.c **** 
   6:lvgl/src/extra/themes/default/lv_theme_default.c **** /*********************
   7:lvgl/src/extra/themes/default/lv_theme_default.c ****  *      INCLUDES
   8:lvgl/src/extra/themes/default/lv_theme_default.c ****  *********************/
   9:lvgl/src/extra/themes/default/lv_theme_default.c **** #include "../../../lvgl.h" /*To see all the widgets*/
  10:lvgl/src/extra/themes/default/lv_theme_default.c **** 
  11:lvgl/src/extra/themes/default/lv_theme_default.c **** #if LV_USE_THEME_DEFAULT
  12:lvgl/src/extra/themes/default/lv_theme_default.c **** 
  13:lvgl/src/extra/themes/default/lv_theme_default.c **** #include "lv_theme_default.h"
  14:lvgl/src/extra/themes/default/lv_theme_default.c **** #include "../../../misc/lv_gc.h"
  15:lvgl/src/extra/themes/default/lv_theme_default.c **** 
  16:lvgl/src/extra/themes/default/lv_theme_default.c **** /*********************
  17:lvgl/src/extra/themes/default/lv_theme_default.c ****  *      DEFINES
  18:lvgl/src/extra/themes/default/lv_theme_default.c ****  *********************/
  19:lvgl/src/extra/themes/default/lv_theme_default.c **** #define MODE_DARK 1
  20:lvgl/src/extra/themes/default/lv_theme_default.c **** #define RADIUS_DEFAULT (disp_size == DISP_LARGE ? lv_disp_dpx(theme.disp, 12) : lv_disp_dpx(theme.d
  21:lvgl/src/extra/themes/default/lv_theme_default.c **** 
  22:lvgl/src/extra/themes/default/lv_theme_default.c **** /*SCREEN*/
  23:lvgl/src/extra/themes/default/lv_theme_default.c **** #define LIGHT_COLOR_SCR        lv_palette_lighten(LV_PALETTE_GREY, 4)
  24:lvgl/src/extra/themes/default/lv_theme_default.c **** #define LIGHT_COLOR_CARD       lv_color_white()
  25:lvgl/src/extra/themes/default/lv_theme_default.c **** #define LIGHT_COLOR_TEXT       lv_palette_darken(LV_PALETTE_GREY, 4)
  26:lvgl/src/extra/themes/default/lv_theme_default.c **** #define LIGHT_COLOR_GREY       lv_palette_lighten(LV_PALETTE_GREY, 2)
  27:lvgl/src/extra/themes/default/lv_theme_default.c **** #define DARK_COLOR_SCR         lv_color_hex(0x15171A)
  28:lvgl/src/extra/themes/default/lv_theme_default.c **** #define DARK_COLOR_CARD        lv_color_hex(0x282b30)
  29:lvgl/src/extra/themes/default/lv_theme_default.c **** #define DARK_COLOR_TEXT        lv_palette_lighten(LV_PALETTE_GREY, 5)
  30:lvgl/src/extra/themes/default/lv_theme_default.c **** #define DARK_COLOR_GREY        lv_color_hex(0x2f3237)
ARM GAS  /var/folders/k2/cd9bl_j17z77g23y6ffqb_400000gn/T//ccRoPncs.s 			page 2


  31:lvgl/src/extra/themes/default/lv_theme_default.c **** 
  32:lvgl/src/extra/themes/default/lv_theme_default.c **** #define TRANSITION_TIME         LV_THEME_DEFAULT_TRANSITON_TIME
  33:lvgl/src/extra/themes/default/lv_theme_default.c **** #define BORDER_WIDTH            lv_disp_dpx(theme.disp, 2)
  34:lvgl/src/extra/themes/default/lv_theme_default.c **** #define OUTLINE_WIDTH           lv_disp_dpx(theme.disp, 3)
  35:lvgl/src/extra/themes/default/lv_theme_default.c **** 
  36:lvgl/src/extra/themes/default/lv_theme_default.c **** #define PAD_DEF     (disp_size == DISP_LARGE ? lv_disp_dpx(theme.disp, 24) : disp_size == DISP_MEDI
  37:lvgl/src/extra/themes/default/lv_theme_default.c **** #define PAD_SMALL   (disp_size == DISP_LARGE ? lv_disp_dpx(theme.disp, 14) : disp_size == DISP_MEDI
  38:lvgl/src/extra/themes/default/lv_theme_default.c **** #define PAD_TINY   (disp_size == DISP_LARGE ? lv_disp_dpx(theme.disp, 8) : disp_size == DISP_MEDIUM
  39:lvgl/src/extra/themes/default/lv_theme_default.c **** 
  40:lvgl/src/extra/themes/default/lv_theme_default.c **** /**********************
  41:lvgl/src/extra/themes/default/lv_theme_default.c ****  *      TYPEDEFS
  42:lvgl/src/extra/themes/default/lv_theme_default.c ****  **********************/
  43:lvgl/src/extra/themes/default/lv_theme_default.c **** typedef struct {
  44:lvgl/src/extra/themes/default/lv_theme_default.c ****     lv_style_t scr;
  45:lvgl/src/extra/themes/default/lv_theme_default.c ****     lv_style_t scrollbar;
  46:lvgl/src/extra/themes/default/lv_theme_default.c ****     lv_style_t scrollbar_scrolled;
  47:lvgl/src/extra/themes/default/lv_theme_default.c ****     lv_style_t card;
  48:lvgl/src/extra/themes/default/lv_theme_default.c ****     lv_style_t btn;
  49:lvgl/src/extra/themes/default/lv_theme_default.c **** 
  50:lvgl/src/extra/themes/default/lv_theme_default.c ****     /*Utility*/
  51:lvgl/src/extra/themes/default/lv_theme_default.c ****     lv_style_t bg_color_primary;
  52:lvgl/src/extra/themes/default/lv_theme_default.c ****     lv_style_t bg_color_primary_muted;
  53:lvgl/src/extra/themes/default/lv_theme_default.c ****     lv_style_t bg_color_secondary;
  54:lvgl/src/extra/themes/default/lv_theme_default.c ****     lv_style_t bg_color_secondary_muted;
  55:lvgl/src/extra/themes/default/lv_theme_default.c ****     lv_style_t bg_color_grey;
  56:lvgl/src/extra/themes/default/lv_theme_default.c ****     lv_style_t bg_color_white;
  57:lvgl/src/extra/themes/default/lv_theme_default.c ****     lv_style_t pressed;
  58:lvgl/src/extra/themes/default/lv_theme_default.c ****     lv_style_t disabled;
  59:lvgl/src/extra/themes/default/lv_theme_default.c ****     lv_style_t pad_zero;
  60:lvgl/src/extra/themes/default/lv_theme_default.c ****     lv_style_t pad_tiny;
  61:lvgl/src/extra/themes/default/lv_theme_default.c ****     lv_style_t pad_small;
  62:lvgl/src/extra/themes/default/lv_theme_default.c ****     lv_style_t pad_normal;
  63:lvgl/src/extra/themes/default/lv_theme_default.c ****     lv_style_t pad_gap;
  64:lvgl/src/extra/themes/default/lv_theme_default.c ****     lv_style_t line_space_large;
  65:lvgl/src/extra/themes/default/lv_theme_default.c ****     lv_style_t text_align_center;
  66:lvgl/src/extra/themes/default/lv_theme_default.c ****     lv_style_t outline_primary;
  67:lvgl/src/extra/themes/default/lv_theme_default.c ****     lv_style_t outline_secondary;
  68:lvgl/src/extra/themes/default/lv_theme_default.c ****     lv_style_t circle;
  69:lvgl/src/extra/themes/default/lv_theme_default.c ****     lv_style_t no_radius;
  70:lvgl/src/extra/themes/default/lv_theme_default.c ****     lv_style_t clip_corner;
  71:lvgl/src/extra/themes/default/lv_theme_default.c **** #if LV_THEME_DEFAULT_GROW
  72:lvgl/src/extra/themes/default/lv_theme_default.c ****     lv_style_t grow;
  73:lvgl/src/extra/themes/default/lv_theme_default.c **** #endif
  74:lvgl/src/extra/themes/default/lv_theme_default.c ****     lv_style_t transition_delayed;
  75:lvgl/src/extra/themes/default/lv_theme_default.c ****     lv_style_t transition_normal;
  76:lvgl/src/extra/themes/default/lv_theme_default.c ****     lv_style_t anim;
  77:lvgl/src/extra/themes/default/lv_theme_default.c **** 
  78:lvgl/src/extra/themes/default/lv_theme_default.c ****     /*Parts*/
  79:lvgl/src/extra/themes/default/lv_theme_default.c ****     lv_style_t knob;
  80:lvgl/src/extra/themes/default/lv_theme_default.c ****     lv_style_t indic;
  81:lvgl/src/extra/themes/default/lv_theme_default.c **** 
  82:lvgl/src/extra/themes/default/lv_theme_default.c **** #if LV_USE_ARC
  83:lvgl/src/extra/themes/default/lv_theme_default.c ****     lv_style_t arc_indic;
  84:lvgl/src/extra/themes/default/lv_theme_default.c ****     lv_style_t arc_indic_primary;
  85:lvgl/src/extra/themes/default/lv_theme_default.c **** #endif
  86:lvgl/src/extra/themes/default/lv_theme_default.c **** 
  87:lvgl/src/extra/themes/default/lv_theme_default.c **** #if LV_USE_CHART
ARM GAS  /var/folders/k2/cd9bl_j17z77g23y6ffqb_400000gn/T//ccRoPncs.s 			page 3


  88:lvgl/src/extra/themes/default/lv_theme_default.c ****     lv_style_t chart_series, chart_indic, chart_ticks, chart_bg;
  89:lvgl/src/extra/themes/default/lv_theme_default.c **** #endif
  90:lvgl/src/extra/themes/default/lv_theme_default.c **** 
  91:lvgl/src/extra/themes/default/lv_theme_default.c **** #if LV_USE_DROPDOWN
  92:lvgl/src/extra/themes/default/lv_theme_default.c ****     lv_style_t dropdown_list;
  93:lvgl/src/extra/themes/default/lv_theme_default.c **** #endif
  94:lvgl/src/extra/themes/default/lv_theme_default.c **** 
  95:lvgl/src/extra/themes/default/lv_theme_default.c **** #if LV_USE_CHECKBOX
  96:lvgl/src/extra/themes/default/lv_theme_default.c ****     lv_style_t cb_marker, cb_marker_checked;
  97:lvgl/src/extra/themes/default/lv_theme_default.c **** #endif
  98:lvgl/src/extra/themes/default/lv_theme_default.c **** 
  99:lvgl/src/extra/themes/default/lv_theme_default.c **** #if LV_USE_SWITCH
 100:lvgl/src/extra/themes/default/lv_theme_default.c ****     lv_style_t switch_knob;
 101:lvgl/src/extra/themes/default/lv_theme_default.c **** #endif
 102:lvgl/src/extra/themes/default/lv_theme_default.c **** 
 103:lvgl/src/extra/themes/default/lv_theme_default.c **** #if LV_USE_LINE
 104:lvgl/src/extra/themes/default/lv_theme_default.c ****     lv_style_t line;
 105:lvgl/src/extra/themes/default/lv_theme_default.c **** #endif
 106:lvgl/src/extra/themes/default/lv_theme_default.c **** 
 107:lvgl/src/extra/themes/default/lv_theme_default.c **** #if LV_USE_TABLE
 108:lvgl/src/extra/themes/default/lv_theme_default.c ****     lv_style_t table_cell;
 109:lvgl/src/extra/themes/default/lv_theme_default.c **** #endif
 110:lvgl/src/extra/themes/default/lv_theme_default.c **** 
 111:lvgl/src/extra/themes/default/lv_theme_default.c **** #if LV_USE_METER
 112:lvgl/src/extra/themes/default/lv_theme_default.c ****     lv_style_t meter_marker, meter_indic;
 113:lvgl/src/extra/themes/default/lv_theme_default.c **** #endif
 114:lvgl/src/extra/themes/default/lv_theme_default.c **** 
 115:lvgl/src/extra/themes/default/lv_theme_default.c **** #if LV_USE_TEXTAREA
 116:lvgl/src/extra/themes/default/lv_theme_default.c ****     lv_style_t ta_cursor, ta_placeholder;
 117:lvgl/src/extra/themes/default/lv_theme_default.c **** #endif
 118:lvgl/src/extra/themes/default/lv_theme_default.c **** 
 119:lvgl/src/extra/themes/default/lv_theme_default.c **** #if LV_USE_CALENDAR
 120:lvgl/src/extra/themes/default/lv_theme_default.c ****     lv_style_t calendar_bg, calendar_day;
 121:lvgl/src/extra/themes/default/lv_theme_default.c **** #endif
 122:lvgl/src/extra/themes/default/lv_theme_default.c **** 
 123:lvgl/src/extra/themes/default/lv_theme_default.c **** #if LV_USE_COLORWHEEL
 124:lvgl/src/extra/themes/default/lv_theme_default.c ****     lv_style_t colorwheel_main;
 125:lvgl/src/extra/themes/default/lv_theme_default.c **** #endif
 126:lvgl/src/extra/themes/default/lv_theme_default.c **** 
 127:lvgl/src/extra/themes/default/lv_theme_default.c **** #if LV_USE_MSGBOX
 128:lvgl/src/extra/themes/default/lv_theme_default.c ****     lv_style_t msgbox_bg, msgbox_btn_bg;
 129:lvgl/src/extra/themes/default/lv_theme_default.c **** #endif
 130:lvgl/src/extra/themes/default/lv_theme_default.c **** 
 131:lvgl/src/extra/themes/default/lv_theme_default.c **** #if LV_USE_KEYBOARD
 132:lvgl/src/extra/themes/default/lv_theme_default.c ****     lv_style_t keyboard_btn_bg;
 133:lvgl/src/extra/themes/default/lv_theme_default.c **** #endif
 134:lvgl/src/extra/themes/default/lv_theme_default.c **** 
 135:lvgl/src/extra/themes/default/lv_theme_default.c **** #if LV_USE_LIST
 136:lvgl/src/extra/themes/default/lv_theme_default.c ****     lv_style_t list_bg, list_btn, list_item_grow, list_label;
 137:lvgl/src/extra/themes/default/lv_theme_default.c **** #endif
 138:lvgl/src/extra/themes/default/lv_theme_default.c **** 
 139:lvgl/src/extra/themes/default/lv_theme_default.c **** #if LV_USE_TABVIEW
 140:lvgl/src/extra/themes/default/lv_theme_default.c ****     lv_style_t tab_bg_focus, tab_btn;
 141:lvgl/src/extra/themes/default/lv_theme_default.c **** #endif
 142:lvgl/src/extra/themes/default/lv_theme_default.c **** #if LV_USE_LED
 143:lvgl/src/extra/themes/default/lv_theme_default.c ****     lv_style_t led;
 144:lvgl/src/extra/themes/default/lv_theme_default.c **** #endif
ARM GAS  /var/folders/k2/cd9bl_j17z77g23y6ffqb_400000gn/T//ccRoPncs.s 			page 4


 145:lvgl/src/extra/themes/default/lv_theme_default.c **** } my_theme_styles_t;
 146:lvgl/src/extra/themes/default/lv_theme_default.c **** 
 147:lvgl/src/extra/themes/default/lv_theme_default.c **** typedef struct {
 148:lvgl/src/extra/themes/default/lv_theme_default.c ****     lv_theme_t base;
 149:lvgl/src/extra/themes/default/lv_theme_default.c ****     uint8_t light :1;
 150:lvgl/src/extra/themes/default/lv_theme_default.c **** }my_theme_t;
 151:lvgl/src/extra/themes/default/lv_theme_default.c **** 
 152:lvgl/src/extra/themes/default/lv_theme_default.c **** typedef enum {
 153:lvgl/src/extra/themes/default/lv_theme_default.c ****     DISP_SMALL = 3,
 154:lvgl/src/extra/themes/default/lv_theme_default.c ****     DISP_MEDIUM = 2,
 155:lvgl/src/extra/themes/default/lv_theme_default.c ****     DISP_LARGE = 1,
 156:lvgl/src/extra/themes/default/lv_theme_default.c **** }disp_size_t;
 157:lvgl/src/extra/themes/default/lv_theme_default.c **** 
 158:lvgl/src/extra/themes/default/lv_theme_default.c **** /**********************
 159:lvgl/src/extra/themes/default/lv_theme_default.c ****  *  STATIC PROTOTYPES
 160:lvgl/src/extra/themes/default/lv_theme_default.c ****  **********************/
 161:lvgl/src/extra/themes/default/lv_theme_default.c **** static void theme_apply(lv_theme_t * th, lv_obj_t * obj);
 162:lvgl/src/extra/themes/default/lv_theme_default.c **** static void style_init_reset(lv_style_t * style);
 163:lvgl/src/extra/themes/default/lv_theme_default.c **** 
 164:lvgl/src/extra/themes/default/lv_theme_default.c **** /**********************
 165:lvgl/src/extra/themes/default/lv_theme_default.c ****  *  STATIC VARIABLES
 166:lvgl/src/extra/themes/default/lv_theme_default.c ****  **********************/
 167:lvgl/src/extra/themes/default/lv_theme_default.c **** static my_theme_styles_t * styles;
 168:lvgl/src/extra/themes/default/lv_theme_default.c **** static lv_theme_t theme;
 169:lvgl/src/extra/themes/default/lv_theme_default.c **** static disp_size_t disp_size;
 170:lvgl/src/extra/themes/default/lv_theme_default.c **** static bool inited;
 171:lvgl/src/extra/themes/default/lv_theme_default.c **** static lv_color_t color_scr;
 172:lvgl/src/extra/themes/default/lv_theme_default.c **** static lv_color_t color_text;
 173:lvgl/src/extra/themes/default/lv_theme_default.c **** static lv_color_t color_card;
 174:lvgl/src/extra/themes/default/lv_theme_default.c **** static lv_color_t color_grey;
 175:lvgl/src/extra/themes/default/lv_theme_default.c **** 
 176:lvgl/src/extra/themes/default/lv_theme_default.c **** 
 177:lvgl/src/extra/themes/default/lv_theme_default.c **** /**********************
 178:lvgl/src/extra/themes/default/lv_theme_default.c ****  *      MACROS
 179:lvgl/src/extra/themes/default/lv_theme_default.c ****  **********************/
 180:lvgl/src/extra/themes/default/lv_theme_default.c **** 
 181:lvgl/src/extra/themes/default/lv_theme_default.c **** /**********************
 182:lvgl/src/extra/themes/default/lv_theme_default.c ****  *   STATIC FUNCTIONS
 183:lvgl/src/extra/themes/default/lv_theme_default.c ****  **********************/
 184:lvgl/src/extra/themes/default/lv_theme_default.c **** 
 185:lvgl/src/extra/themes/default/lv_theme_default.c **** 
 186:lvgl/src/extra/themes/default/lv_theme_default.c **** static lv_color_t dark_color_filter_cb(const lv_color_filter_dsc_t * f, lv_color_t c, lv_opa_t opa)
 187:lvgl/src/extra/themes/default/lv_theme_default.c **** {
 188:lvgl/src/extra/themes/default/lv_theme_default.c ****     LV_UNUSED(f);
 189:lvgl/src/extra/themes/default/lv_theme_default.c ****     return lv_color_darken(c, opa);
 190:lvgl/src/extra/themes/default/lv_theme_default.c **** }
 191:lvgl/src/extra/themes/default/lv_theme_default.c **** 
 192:lvgl/src/extra/themes/default/lv_theme_default.c **** static lv_color_t grey_filter_cb(const lv_color_filter_dsc_t * f, lv_color_t color, lv_opa_t opa)
 193:lvgl/src/extra/themes/default/lv_theme_default.c **** {
 194:lvgl/src/extra/themes/default/lv_theme_default.c ****     LV_UNUSED(f);
 195:lvgl/src/extra/themes/default/lv_theme_default.c ****     if(theme.flags & MODE_DARK) return lv_color_mix(lv_palette_darken(LV_PALETTE_GREY, 2), color, o
 196:lvgl/src/extra/themes/default/lv_theme_default.c ****     else return lv_color_mix(lv_palette_lighten(LV_PALETTE_GREY, 2), color, opa);
 197:lvgl/src/extra/themes/default/lv_theme_default.c **** }
 198:lvgl/src/extra/themes/default/lv_theme_default.c **** 
 199:lvgl/src/extra/themes/default/lv_theme_default.c **** static void style_init(void)
 200:lvgl/src/extra/themes/default/lv_theme_default.c **** {
 201:lvgl/src/extra/themes/default/lv_theme_default.c ****     static const lv_style_prop_t trans_props[] = {
ARM GAS  /var/folders/k2/cd9bl_j17z77g23y6ffqb_400000gn/T//ccRoPncs.s 			page 5


 202:lvgl/src/extra/themes/default/lv_theme_default.c ****             LV_STYLE_BG_OPA, LV_STYLE_BG_COLOR,
 203:lvgl/src/extra/themes/default/lv_theme_default.c ****             LV_STYLE_TRANSFORM_WIDTH, LV_STYLE_TRANSFORM_HEIGHT,
 204:lvgl/src/extra/themes/default/lv_theme_default.c ****             LV_STYLE_TRANSLATE_Y, LV_STYLE_TRANSLATE_X,
 205:lvgl/src/extra/themes/default/lv_theme_default.c ****             LV_STYLE_TRANSFORM_ZOOM, LV_STYLE_TRANSFORM_ANGLE,
 206:lvgl/src/extra/themes/default/lv_theme_default.c ****             LV_STYLE_COLOR_FILTER_OPA, LV_STYLE_COLOR_FILTER_DSC,
 207:lvgl/src/extra/themes/default/lv_theme_default.c ****             0
 208:lvgl/src/extra/themes/default/lv_theme_default.c ****     };
 209:lvgl/src/extra/themes/default/lv_theme_default.c **** 
 210:lvgl/src/extra/themes/default/lv_theme_default.c ****     color_scr = theme.flags & MODE_DARK ? DARK_COLOR_SCR : LIGHT_COLOR_SCR;
 211:lvgl/src/extra/themes/default/lv_theme_default.c ****     color_text = theme.flags & MODE_DARK ? DARK_COLOR_TEXT : LIGHT_COLOR_TEXT;
 212:lvgl/src/extra/themes/default/lv_theme_default.c ****     color_card = theme.flags & MODE_DARK ? DARK_COLOR_CARD : LIGHT_COLOR_CARD;
 213:lvgl/src/extra/themes/default/lv_theme_default.c ****     color_grey = theme.flags & MODE_DARK ? DARK_COLOR_GREY : LIGHT_COLOR_GREY;
 214:lvgl/src/extra/themes/default/lv_theme_default.c **** 
 215:lvgl/src/extra/themes/default/lv_theme_default.c ****     static lv_style_transition_dsc_t trans_delayed;
 216:lvgl/src/extra/themes/default/lv_theme_default.c ****     lv_style_transition_dsc_init(&trans_delayed, trans_props, lv_anim_path_linear, TRANSITION_TIME,
 217:lvgl/src/extra/themes/default/lv_theme_default.c **** 
 218:lvgl/src/extra/themes/default/lv_theme_default.c ****     static lv_style_transition_dsc_t trans_normal;
 219:lvgl/src/extra/themes/default/lv_theme_default.c ****     lv_style_transition_dsc_init(&trans_normal, trans_props, lv_anim_path_linear, TRANSITION_TIME, 
 220:lvgl/src/extra/themes/default/lv_theme_default.c **** 
 221:lvgl/src/extra/themes/default/lv_theme_default.c ****     style_init_reset(&styles->transition_delayed);
 222:lvgl/src/extra/themes/default/lv_theme_default.c ****     lv_style_set_transition(&styles->transition_delayed, &trans_delayed); /*Go back to default stat
 223:lvgl/src/extra/themes/default/lv_theme_default.c **** 
 224:lvgl/src/extra/themes/default/lv_theme_default.c ****     style_init_reset(&styles->transition_normal);
 225:lvgl/src/extra/themes/default/lv_theme_default.c ****     lv_style_set_transition(&styles->transition_normal, &trans_normal); /*Go back to default state 
 226:lvgl/src/extra/themes/default/lv_theme_default.c **** 
 227:lvgl/src/extra/themes/default/lv_theme_default.c ****     style_init_reset(&styles->scrollbar);
 228:lvgl/src/extra/themes/default/lv_theme_default.c ****     lv_style_set_bg_color(&styles->scrollbar, (theme.flags & MODE_DARK) ? lv_palette_darken(LV_PALE
 229:lvgl/src/extra/themes/default/lv_theme_default.c ****     lv_style_set_radius(&styles->scrollbar, LV_RADIUS_CIRCLE);
 230:lvgl/src/extra/themes/default/lv_theme_default.c ****     lv_style_set_pad_right(&styles->scrollbar, lv_disp_dpx(theme.disp, 7));
 231:lvgl/src/extra/themes/default/lv_theme_default.c ****     lv_style_set_pad_top(&styles->scrollbar,  lv_disp_dpx(theme.disp, 7));
 232:lvgl/src/extra/themes/default/lv_theme_default.c ****     lv_style_set_size(&styles->scrollbar,  lv_disp_dpx(theme.disp, 5));
 233:lvgl/src/extra/themes/default/lv_theme_default.c ****     lv_style_set_bg_opa(&styles->scrollbar,  LV_OPA_40);
 234:lvgl/src/extra/themes/default/lv_theme_default.c ****     lv_style_set_transition(&styles->scrollbar, &trans_normal);
 235:lvgl/src/extra/themes/default/lv_theme_default.c **** 
 236:lvgl/src/extra/themes/default/lv_theme_default.c ****     style_init_reset(&styles->scrollbar_scrolled);
 237:lvgl/src/extra/themes/default/lv_theme_default.c ****     lv_style_set_bg_opa(&styles->scrollbar_scrolled,  LV_OPA_COVER);
 238:lvgl/src/extra/themes/default/lv_theme_default.c **** 
 239:lvgl/src/extra/themes/default/lv_theme_default.c ****     style_init_reset(&styles->scr);
 240:lvgl/src/extra/themes/default/lv_theme_default.c ****     lv_style_set_bg_opa(&styles->scr, LV_OPA_COVER);
 241:lvgl/src/extra/themes/default/lv_theme_default.c ****     lv_style_set_bg_color(&styles->scr, color_scr);
 242:lvgl/src/extra/themes/default/lv_theme_default.c ****     lv_style_set_text_color(&styles->scr, color_text);
 243:lvgl/src/extra/themes/default/lv_theme_default.c ****     lv_style_set_pad_row(&styles->scr, PAD_SMALL);
 244:lvgl/src/extra/themes/default/lv_theme_default.c ****     lv_style_set_pad_column(&styles->scr, PAD_SMALL);
 245:lvgl/src/extra/themes/default/lv_theme_default.c **** 
 246:lvgl/src/extra/themes/default/lv_theme_default.c ****     style_init_reset(&styles->card);
 247:lvgl/src/extra/themes/default/lv_theme_default.c ****     lv_style_set_radius(&styles->card, RADIUS_DEFAULT);
 248:lvgl/src/extra/themes/default/lv_theme_default.c ****     lv_style_set_bg_opa(&styles->card, LV_OPA_COVER);
 249:lvgl/src/extra/themes/default/lv_theme_default.c ****     lv_style_set_bg_color(&styles->card, color_card);
 250:lvgl/src/extra/themes/default/lv_theme_default.c ****     lv_style_set_border_color(&styles->card, color_grey);
 251:lvgl/src/extra/themes/default/lv_theme_default.c ****     lv_style_set_border_width(&styles->card, BORDER_WIDTH);
 252:lvgl/src/extra/themes/default/lv_theme_default.c ****     lv_style_set_border_post(&styles->card, true);
 253:lvgl/src/extra/themes/default/lv_theme_default.c ****     lv_style_set_text_color(&styles->card, color_text);
 254:lvgl/src/extra/themes/default/lv_theme_default.c ****     lv_style_set_pad_all(&styles->card, PAD_DEF);
 255:lvgl/src/extra/themes/default/lv_theme_default.c ****     lv_style_set_pad_row(&styles->card, PAD_SMALL);
 256:lvgl/src/extra/themes/default/lv_theme_default.c ****     lv_style_set_pad_column(&styles->card, PAD_SMALL);
 257:lvgl/src/extra/themes/default/lv_theme_default.c ****     lv_style_set_line_color(&styles->card, lv_palette_main(LV_PALETTE_GREY));
 258:lvgl/src/extra/themes/default/lv_theme_default.c ****     lv_style_set_line_width(&styles->card, lv_disp_dpx(theme.disp, 1));
ARM GAS  /var/folders/k2/cd9bl_j17z77g23y6ffqb_400000gn/T//ccRoPncs.s 			page 6


 259:lvgl/src/extra/themes/default/lv_theme_default.c **** 
 260:lvgl/src/extra/themes/default/lv_theme_default.c ****     style_init_reset(&styles->outline_primary);
 261:lvgl/src/extra/themes/default/lv_theme_default.c ****     lv_style_set_outline_color(&styles->outline_primary, theme.color_primary);
 262:lvgl/src/extra/themes/default/lv_theme_default.c ****     lv_style_set_outline_width(&styles->outline_primary, OUTLINE_WIDTH);
 263:lvgl/src/extra/themes/default/lv_theme_default.c ****     lv_style_set_outline_pad(&styles->outline_primary, OUTLINE_WIDTH);
 264:lvgl/src/extra/themes/default/lv_theme_default.c ****     lv_style_set_outline_opa(&styles->outline_primary, LV_OPA_50);
 265:lvgl/src/extra/themes/default/lv_theme_default.c **** 
 266:lvgl/src/extra/themes/default/lv_theme_default.c ****     style_init_reset(&styles->outline_secondary);
 267:lvgl/src/extra/themes/default/lv_theme_default.c ****     lv_style_set_outline_color(&styles->outline_secondary, theme.color_secondary);
 268:lvgl/src/extra/themes/default/lv_theme_default.c ****     lv_style_set_outline_width(&styles->outline_secondary, OUTLINE_WIDTH);
 269:lvgl/src/extra/themes/default/lv_theme_default.c ****     lv_style_set_outline_opa(&styles->outline_secondary, LV_OPA_50);
 270:lvgl/src/extra/themes/default/lv_theme_default.c **** 
 271:lvgl/src/extra/themes/default/lv_theme_default.c ****     style_init_reset(&styles->btn);
 272:lvgl/src/extra/themes/default/lv_theme_default.c ****     lv_style_set_radius(&styles->btn, (disp_size == DISP_LARGE ? lv_disp_dpx(theme.disp, 16) : disp
 273:lvgl/src/extra/themes/default/lv_theme_default.c ****     lv_style_set_bg_opa(&styles->btn, LV_OPA_COVER);
 274:lvgl/src/extra/themes/default/lv_theme_default.c ****     lv_style_set_bg_color(&styles->btn, color_grey);
 275:lvgl/src/extra/themes/default/lv_theme_default.c ****     if(!(theme.flags & MODE_DARK)) {
 276:lvgl/src/extra/themes/default/lv_theme_default.c ****         lv_style_set_shadow_color(&styles->btn, lv_palette_lighten(LV_PALETTE_GREY, 3));
 277:lvgl/src/extra/themes/default/lv_theme_default.c ****         lv_style_set_shadow_width(&styles->btn, 1);
 278:lvgl/src/extra/themes/default/lv_theme_default.c ****         lv_style_set_shadow_ofs_y(&styles->btn, lv_disp_dpx(theme.disp, 4));
 279:lvgl/src/extra/themes/default/lv_theme_default.c ****     }
 280:lvgl/src/extra/themes/default/lv_theme_default.c ****     lv_style_set_text_color(&styles->btn, color_text);
 281:lvgl/src/extra/themes/default/lv_theme_default.c ****     lv_style_set_pad_hor(&styles->btn, PAD_DEF);
 282:lvgl/src/extra/themes/default/lv_theme_default.c ****     lv_style_set_pad_ver(&styles->btn, PAD_SMALL);
 283:lvgl/src/extra/themes/default/lv_theme_default.c ****     lv_style_set_pad_column(&styles->btn, lv_disp_dpx(theme.disp, 5));
 284:lvgl/src/extra/themes/default/lv_theme_default.c ****     lv_style_set_pad_row(&styles->btn, lv_disp_dpx(theme.disp, 5));
 285:lvgl/src/extra/themes/default/lv_theme_default.c **** 
 286:lvgl/src/extra/themes/default/lv_theme_default.c ****     static lv_color_filter_dsc_t dark_filter;
 287:lvgl/src/extra/themes/default/lv_theme_default.c ****     lv_color_filter_dsc_init(&dark_filter, dark_color_filter_cb);
 288:lvgl/src/extra/themes/default/lv_theme_default.c **** 
 289:lvgl/src/extra/themes/default/lv_theme_default.c ****     static lv_color_filter_dsc_t grey_filter;
 290:lvgl/src/extra/themes/default/lv_theme_default.c ****     lv_color_filter_dsc_init(&grey_filter, grey_filter_cb);
 291:lvgl/src/extra/themes/default/lv_theme_default.c **** 
 292:lvgl/src/extra/themes/default/lv_theme_default.c ****     style_init_reset(&styles->pressed);
 293:lvgl/src/extra/themes/default/lv_theme_default.c ****     lv_style_set_color_filter_dsc(&styles->pressed, &dark_filter);
 294:lvgl/src/extra/themes/default/lv_theme_default.c ****     lv_style_set_color_filter_opa(&styles->pressed, 35);
 295:lvgl/src/extra/themes/default/lv_theme_default.c **** 
 296:lvgl/src/extra/themes/default/lv_theme_default.c ****     style_init_reset(&styles->disabled);
 297:lvgl/src/extra/themes/default/lv_theme_default.c ****     lv_style_set_color_filter_dsc(&styles->disabled, &grey_filter);
 298:lvgl/src/extra/themes/default/lv_theme_default.c ****     lv_style_set_color_filter_opa(&styles->disabled, LV_OPA_50);
 299:lvgl/src/extra/themes/default/lv_theme_default.c **** 
 300:lvgl/src/extra/themes/default/lv_theme_default.c ****     style_init_reset(&styles->clip_corner);
 301:lvgl/src/extra/themes/default/lv_theme_default.c ****     lv_style_set_clip_corner(&styles->clip_corner, true);
 302:lvgl/src/extra/themes/default/lv_theme_default.c **** 
 303:lvgl/src/extra/themes/default/lv_theme_default.c ****     style_init_reset(&styles->pad_normal);
 304:lvgl/src/extra/themes/default/lv_theme_default.c ****     lv_style_set_pad_all(&styles->pad_normal, PAD_DEF);
 305:lvgl/src/extra/themes/default/lv_theme_default.c ****     lv_style_set_pad_row(&styles->pad_normal, PAD_DEF);
 306:lvgl/src/extra/themes/default/lv_theme_default.c ****     lv_style_set_pad_column(&styles->pad_normal, PAD_DEF);
 307:lvgl/src/extra/themes/default/lv_theme_default.c **** 
 308:lvgl/src/extra/themes/default/lv_theme_default.c ****     style_init_reset(&styles->pad_small);
 309:lvgl/src/extra/themes/default/lv_theme_default.c ****     lv_style_set_pad_all(&styles->pad_small, PAD_SMALL);
 310:lvgl/src/extra/themes/default/lv_theme_default.c ****     lv_style_set_pad_gap(&styles->pad_small, PAD_SMALL);
 311:lvgl/src/extra/themes/default/lv_theme_default.c **** 
 312:lvgl/src/extra/themes/default/lv_theme_default.c ****     style_init_reset(&styles->pad_gap);
 313:lvgl/src/extra/themes/default/lv_theme_default.c ****     lv_style_set_pad_row(&styles->pad_gap, lv_disp_dpx(theme.disp, 10));
 314:lvgl/src/extra/themes/default/lv_theme_default.c ****     lv_style_set_pad_column(&styles->pad_gap, lv_disp_dpx(theme.disp, 10));
 315:lvgl/src/extra/themes/default/lv_theme_default.c **** 
ARM GAS  /var/folders/k2/cd9bl_j17z77g23y6ffqb_400000gn/T//ccRoPncs.s 			page 7


 316:lvgl/src/extra/themes/default/lv_theme_default.c ****     style_init_reset(&styles->line_space_large);
 317:lvgl/src/extra/themes/default/lv_theme_default.c ****     lv_style_set_text_line_space(&styles->line_space_large, lv_disp_dpx(theme.disp, 20));
 318:lvgl/src/extra/themes/default/lv_theme_default.c **** 
 319:lvgl/src/extra/themes/default/lv_theme_default.c ****     style_init_reset(&styles->text_align_center);
 320:lvgl/src/extra/themes/default/lv_theme_default.c ****     lv_style_set_text_align(&styles->text_align_center, LV_TEXT_ALIGN_CENTER);
 321:lvgl/src/extra/themes/default/lv_theme_default.c **** 
 322:lvgl/src/extra/themes/default/lv_theme_default.c ****     style_init_reset(&styles->pad_zero);
 323:lvgl/src/extra/themes/default/lv_theme_default.c ****     lv_style_set_pad_all(&styles->pad_zero, 0);
 324:lvgl/src/extra/themes/default/lv_theme_default.c ****     lv_style_set_pad_row(&styles->pad_zero, 0);
 325:lvgl/src/extra/themes/default/lv_theme_default.c ****     lv_style_set_pad_column(&styles->pad_zero, 0);
 326:lvgl/src/extra/themes/default/lv_theme_default.c **** 
 327:lvgl/src/extra/themes/default/lv_theme_default.c ****     style_init_reset(&styles->pad_tiny);
 328:lvgl/src/extra/themes/default/lv_theme_default.c ****     lv_style_set_pad_all(&styles->pad_tiny, PAD_TINY);
 329:lvgl/src/extra/themes/default/lv_theme_default.c ****     lv_style_set_pad_row(&styles->pad_tiny, PAD_TINY);
 330:lvgl/src/extra/themes/default/lv_theme_default.c ****     lv_style_set_pad_column(&styles->pad_tiny, PAD_TINY);
 331:lvgl/src/extra/themes/default/lv_theme_default.c **** 
 332:lvgl/src/extra/themes/default/lv_theme_default.c ****     style_init_reset(&styles->bg_color_primary);
 333:lvgl/src/extra/themes/default/lv_theme_default.c ****     lv_style_set_bg_color(&styles->bg_color_primary, theme.color_primary);
 334:lvgl/src/extra/themes/default/lv_theme_default.c ****     lv_style_set_text_color(&styles->bg_color_primary, lv_color_white());
 335:lvgl/src/extra/themes/default/lv_theme_default.c ****     lv_style_set_bg_opa(&styles->bg_color_primary, LV_OPA_COVER);
 336:lvgl/src/extra/themes/default/lv_theme_default.c **** 
 337:lvgl/src/extra/themes/default/lv_theme_default.c ****     style_init_reset(&styles->bg_color_primary_muted);
 338:lvgl/src/extra/themes/default/lv_theme_default.c ****     lv_style_set_bg_color(&styles->bg_color_primary_muted, theme.color_primary);
 339:lvgl/src/extra/themes/default/lv_theme_default.c ****     lv_style_set_text_color(&styles->bg_color_primary_muted, theme.color_primary);
 340:lvgl/src/extra/themes/default/lv_theme_default.c ****     lv_style_set_bg_opa(&styles->bg_color_primary_muted, LV_OPA_20);
 341:lvgl/src/extra/themes/default/lv_theme_default.c **** 
 342:lvgl/src/extra/themes/default/lv_theme_default.c ****     style_init_reset(&styles->bg_color_secondary);
 343:lvgl/src/extra/themes/default/lv_theme_default.c ****     lv_style_set_bg_color(&styles->bg_color_secondary, theme.color_secondary);
 344:lvgl/src/extra/themes/default/lv_theme_default.c ****     lv_style_set_text_color(&styles->bg_color_secondary, lv_color_white());
 345:lvgl/src/extra/themes/default/lv_theme_default.c ****     lv_style_set_bg_opa(&styles->bg_color_secondary, LV_OPA_COVER);
 346:lvgl/src/extra/themes/default/lv_theme_default.c **** 
 347:lvgl/src/extra/themes/default/lv_theme_default.c ****     style_init_reset(&styles->bg_color_secondary_muted);
 348:lvgl/src/extra/themes/default/lv_theme_default.c ****     lv_style_set_bg_color(&styles->bg_color_secondary_muted, theme.color_secondary);
 349:lvgl/src/extra/themes/default/lv_theme_default.c ****     lv_style_set_text_color(&styles->bg_color_secondary_muted, theme.color_secondary);
 350:lvgl/src/extra/themes/default/lv_theme_default.c ****     lv_style_set_bg_opa(&styles->bg_color_secondary_muted, LV_OPA_20);
 351:lvgl/src/extra/themes/default/lv_theme_default.c **** 
 352:lvgl/src/extra/themes/default/lv_theme_default.c ****     style_init_reset(&styles->bg_color_grey);
 353:lvgl/src/extra/themes/default/lv_theme_default.c ****     lv_style_set_bg_color(&styles->bg_color_grey, color_grey);
 354:lvgl/src/extra/themes/default/lv_theme_default.c ****     lv_style_set_bg_opa(&styles->bg_color_grey, LV_OPA_COVER);
 355:lvgl/src/extra/themes/default/lv_theme_default.c ****     lv_style_set_text_color(&styles->bg_color_grey, color_text);
 356:lvgl/src/extra/themes/default/lv_theme_default.c **** 
 357:lvgl/src/extra/themes/default/lv_theme_default.c ****     style_init_reset(&styles->bg_color_white);
 358:lvgl/src/extra/themes/default/lv_theme_default.c ****     lv_style_set_bg_color(&styles->bg_color_white, color_card);
 359:lvgl/src/extra/themes/default/lv_theme_default.c ****     lv_style_set_bg_opa(&styles->bg_color_white, LV_OPA_COVER);
 360:lvgl/src/extra/themes/default/lv_theme_default.c ****     lv_style_set_text_color(&styles->bg_color_white, color_text);
 361:lvgl/src/extra/themes/default/lv_theme_default.c **** 
 362:lvgl/src/extra/themes/default/lv_theme_default.c ****     style_init_reset(&styles->circle);
 363:lvgl/src/extra/themes/default/lv_theme_default.c ****     lv_style_set_radius(&styles->circle, LV_RADIUS_CIRCLE);
 364:lvgl/src/extra/themes/default/lv_theme_default.c **** 
 365:lvgl/src/extra/themes/default/lv_theme_default.c ****     style_init_reset(&styles->no_radius);
 366:lvgl/src/extra/themes/default/lv_theme_default.c ****     lv_style_set_radius(&styles->no_radius, 0);
 367:lvgl/src/extra/themes/default/lv_theme_default.c **** 
 368:lvgl/src/extra/themes/default/lv_theme_default.c **** #if LV_THEME_DEFAULT_GROW
 369:lvgl/src/extra/themes/default/lv_theme_default.c ****     style_init_reset(&styles->grow);
 370:lvgl/src/extra/themes/default/lv_theme_default.c ****     lv_style_set_transform_width(&styles->grow, lv_disp_dpx(theme.disp, 3));
 371:lvgl/src/extra/themes/default/lv_theme_default.c ****     lv_style_set_transform_height(&styles->grow, lv_disp_dpx(theme.disp, 3));
 372:lvgl/src/extra/themes/default/lv_theme_default.c **** #endif
ARM GAS  /var/folders/k2/cd9bl_j17z77g23y6ffqb_400000gn/T//ccRoPncs.s 			page 8


 373:lvgl/src/extra/themes/default/lv_theme_default.c **** 
 374:lvgl/src/extra/themes/default/lv_theme_default.c ****     style_init_reset(&styles->knob);
 375:lvgl/src/extra/themes/default/lv_theme_default.c ****     lv_style_set_bg_color(&styles->knob, theme.color_primary);
 376:lvgl/src/extra/themes/default/lv_theme_default.c ****     lv_style_set_bg_opa(&styles->knob, LV_OPA_COVER);
 377:lvgl/src/extra/themes/default/lv_theme_default.c ****     lv_style_set_pad_all(&styles->knob, lv_disp_dpx(theme.disp, 6));
 378:lvgl/src/extra/themes/default/lv_theme_default.c ****     lv_style_set_radius(&styles->knob, LV_RADIUS_CIRCLE);
 379:lvgl/src/extra/themes/default/lv_theme_default.c **** 
 380:lvgl/src/extra/themes/default/lv_theme_default.c ****     style_init_reset(&styles->anim);
 381:lvgl/src/extra/themes/default/lv_theme_default.c ****     lv_style_set_anim_time(&styles->anim, 200);
 382:lvgl/src/extra/themes/default/lv_theme_default.c **** 
 383:lvgl/src/extra/themes/default/lv_theme_default.c **** #if LV_USE_ARC
 384:lvgl/src/extra/themes/default/lv_theme_default.c ****     style_init_reset(&styles->arc_indic);
 385:lvgl/src/extra/themes/default/lv_theme_default.c ****     lv_style_set_arc_color(&styles->arc_indic, color_grey);
 386:lvgl/src/extra/themes/default/lv_theme_default.c ****     lv_style_set_arc_width(&styles->arc_indic, lv_disp_dpx(theme.disp, 15));
 387:lvgl/src/extra/themes/default/lv_theme_default.c ****     lv_style_set_arc_rounded(&styles->arc_indic, true);
 388:lvgl/src/extra/themes/default/lv_theme_default.c **** 
 389:lvgl/src/extra/themes/default/lv_theme_default.c ****     style_init_reset(&styles->arc_indic_primary);
 390:lvgl/src/extra/themes/default/lv_theme_default.c ****     lv_style_set_arc_color(&styles->arc_indic_primary, theme.color_primary);
 391:lvgl/src/extra/themes/default/lv_theme_default.c **** #endif
 392:lvgl/src/extra/themes/default/lv_theme_default.c **** 
 393:lvgl/src/extra/themes/default/lv_theme_default.c **** #if LV_USE_DROPDOWN
 394:lvgl/src/extra/themes/default/lv_theme_default.c ****     style_init_reset(&styles->dropdown_list);
 395:lvgl/src/extra/themes/default/lv_theme_default.c ****     lv_style_set_max_height(&styles->dropdown_list, LV_DPI_DEF * 2);
 396:lvgl/src/extra/themes/default/lv_theme_default.c **** #endif
 397:lvgl/src/extra/themes/default/lv_theme_default.c **** #if LV_USE_CHECKBOX
 398:lvgl/src/extra/themes/default/lv_theme_default.c ****     style_init_reset(&styles->cb_marker);
 399:lvgl/src/extra/themes/default/lv_theme_default.c ****     lv_style_set_pad_all(&styles->cb_marker, lv_disp_dpx(theme.disp, 3));
 400:lvgl/src/extra/themes/default/lv_theme_default.c ****     lv_style_set_border_width(&styles->cb_marker, BORDER_WIDTH);
 401:lvgl/src/extra/themes/default/lv_theme_default.c ****     lv_style_set_border_color(&styles->cb_marker, theme.color_primary);
 402:lvgl/src/extra/themes/default/lv_theme_default.c ****     lv_style_set_bg_color(&styles->cb_marker, color_card);
 403:lvgl/src/extra/themes/default/lv_theme_default.c ****     lv_style_set_bg_opa(&styles->cb_marker, LV_OPA_COVER);
 404:lvgl/src/extra/themes/default/lv_theme_default.c ****     lv_style_set_radius(&styles->cb_marker, RADIUS_DEFAULT / 2);
 405:lvgl/src/extra/themes/default/lv_theme_default.c **** 
 406:lvgl/src/extra/themes/default/lv_theme_default.c ****     style_init_reset(&styles->cb_marker_checked);
 407:lvgl/src/extra/themes/default/lv_theme_default.c ****     lv_style_set_bg_img_src(&styles->cb_marker_checked, LV_SYMBOL_OK);
 408:lvgl/src/extra/themes/default/lv_theme_default.c ****     lv_style_set_text_color(&styles->cb_marker_checked, lv_color_white());
 409:lvgl/src/extra/themes/default/lv_theme_default.c ****     lv_style_set_text_font(&styles->cb_marker_checked, theme.font_small);
 410:lvgl/src/extra/themes/default/lv_theme_default.c **** #endif
 411:lvgl/src/extra/themes/default/lv_theme_default.c **** 
 412:lvgl/src/extra/themes/default/lv_theme_default.c **** #if LV_USE_SWITCH
 413:lvgl/src/extra/themes/default/lv_theme_default.c ****     style_init_reset(&styles->switch_knob);
 414:lvgl/src/extra/themes/default/lv_theme_default.c ****     lv_style_set_pad_all(&styles->switch_knob, - lv_disp_dpx(theme.disp, 4));
 415:lvgl/src/extra/themes/default/lv_theme_default.c ****     lv_style_set_bg_color(&styles->switch_knob, lv_color_white());
 416:lvgl/src/extra/themes/default/lv_theme_default.c **** #endif
 417:lvgl/src/extra/themes/default/lv_theme_default.c **** 
 418:lvgl/src/extra/themes/default/lv_theme_default.c **** #if LV_USE_LINE
 419:lvgl/src/extra/themes/default/lv_theme_default.c ****     style_init_reset(&styles->line);
 420:lvgl/src/extra/themes/default/lv_theme_default.c ****     lv_style_set_line_width(&styles->line, 1);
 421:lvgl/src/extra/themes/default/lv_theme_default.c ****     lv_style_set_line_color(&styles->line, color_text);
 422:lvgl/src/extra/themes/default/lv_theme_default.c **** #endif
 423:lvgl/src/extra/themes/default/lv_theme_default.c **** 
 424:lvgl/src/extra/themes/default/lv_theme_default.c **** #if LV_USE_CHART
 425:lvgl/src/extra/themes/default/lv_theme_default.c ****     style_init_reset(&styles->chart_bg);
 426:lvgl/src/extra/themes/default/lv_theme_default.c ****     lv_style_set_border_post(&styles->chart_bg, false);
 427:lvgl/src/extra/themes/default/lv_theme_default.c ****     lv_style_set_pad_column(&styles->chart_bg, lv_disp_dpx(theme.disp, 10));
 428:lvgl/src/extra/themes/default/lv_theme_default.c ****     lv_style_set_line_color(&styles->chart_bg, color_grey);
 429:lvgl/src/extra/themes/default/lv_theme_default.c **** 
ARM GAS  /var/folders/k2/cd9bl_j17z77g23y6ffqb_400000gn/T//ccRoPncs.s 			page 9


 430:lvgl/src/extra/themes/default/lv_theme_default.c ****     style_init_reset(&styles->chart_series);
 431:lvgl/src/extra/themes/default/lv_theme_default.c ****     lv_style_set_line_width(&styles->chart_series, lv_disp_dpx(theme.disp, 3));
 432:lvgl/src/extra/themes/default/lv_theme_default.c ****     lv_style_set_radius(&styles->chart_series, lv_disp_dpx(theme.disp, 3));
 433:lvgl/src/extra/themes/default/lv_theme_default.c ****     lv_style_set_size(&styles->chart_series, lv_disp_dpx(theme.disp, 8));
 434:lvgl/src/extra/themes/default/lv_theme_default.c ****     lv_style_set_pad_column(&styles->chart_series, lv_disp_dpx(theme.disp, 2));
 435:lvgl/src/extra/themes/default/lv_theme_default.c **** 
 436:lvgl/src/extra/themes/default/lv_theme_default.c ****     style_init_reset(&styles->chart_indic);
 437:lvgl/src/extra/themes/default/lv_theme_default.c ****     lv_style_set_radius(&styles->chart_indic,LV_RADIUS_CIRCLE);
 438:lvgl/src/extra/themes/default/lv_theme_default.c ****     lv_style_set_size(&styles->chart_indic, lv_disp_dpx(theme.disp, 8));
 439:lvgl/src/extra/themes/default/lv_theme_default.c ****     lv_style_set_bg_color(&styles->chart_indic, theme.color_primary);
 440:lvgl/src/extra/themes/default/lv_theme_default.c ****     lv_style_set_bg_opa(&styles->chart_indic, LV_OPA_COVER);
 441:lvgl/src/extra/themes/default/lv_theme_default.c **** 
 442:lvgl/src/extra/themes/default/lv_theme_default.c ****     style_init_reset(&styles->chart_ticks);
 443:lvgl/src/extra/themes/default/lv_theme_default.c ****     lv_style_set_line_width(&styles->chart_ticks, lv_disp_dpx(theme.disp, 1));
 444:lvgl/src/extra/themes/default/lv_theme_default.c ****     lv_style_set_line_color(&styles->chart_ticks, color_text);
 445:lvgl/src/extra/themes/default/lv_theme_default.c ****     lv_style_set_pad_all(&styles->chart_ticks, lv_disp_dpx(theme.disp, 2));
 446:lvgl/src/extra/themes/default/lv_theme_default.c ****     lv_style_set_text_color(&styles->chart_ticks, lv_palette_main(LV_PALETTE_GREY));
 447:lvgl/src/extra/themes/default/lv_theme_default.c **** #endif
 448:lvgl/src/extra/themes/default/lv_theme_default.c **** 
 449:lvgl/src/extra/themes/default/lv_theme_default.c **** #if LV_USE_METER
 450:lvgl/src/extra/themes/default/lv_theme_default.c ****     style_init_reset(&styles->meter_marker);
 451:lvgl/src/extra/themes/default/lv_theme_default.c ****     lv_style_set_line_width(&styles->meter_marker, lv_disp_dpx(theme.disp, 5));
 452:lvgl/src/extra/themes/default/lv_theme_default.c ****     lv_style_set_line_color(&styles->meter_marker, color_text);
 453:lvgl/src/extra/themes/default/lv_theme_default.c ****     lv_style_set_size(&styles->meter_marker, lv_disp_dpx(theme.disp, 20));
 454:lvgl/src/extra/themes/default/lv_theme_default.c ****     lv_style_set_pad_left(&styles->meter_marker, lv_disp_dpx(theme.disp, 15));
 455:lvgl/src/extra/themes/default/lv_theme_default.c **** 
 456:lvgl/src/extra/themes/default/lv_theme_default.c ****     style_init_reset(&styles->meter_indic);
 457:lvgl/src/extra/themes/default/lv_theme_default.c ****     lv_style_set_radius(&styles->meter_indic, LV_RADIUS_CIRCLE);
 458:lvgl/src/extra/themes/default/lv_theme_default.c ****     lv_style_set_bg_color(&styles->meter_indic, color_text);
 459:lvgl/src/extra/themes/default/lv_theme_default.c ****     lv_style_set_bg_opa(&styles->meter_indic, LV_OPA_COVER);
 460:lvgl/src/extra/themes/default/lv_theme_default.c ****     lv_style_set_size(&styles->meter_indic, lv_disp_dpx(theme.disp, 15));
 461:lvgl/src/extra/themes/default/lv_theme_default.c **** #endif
 462:lvgl/src/extra/themes/default/lv_theme_default.c **** 
 463:lvgl/src/extra/themes/default/lv_theme_default.c **** #if LV_USE_TABLE
 464:lvgl/src/extra/themes/default/lv_theme_default.c ****     style_init_reset(&styles->table_cell);
 465:lvgl/src/extra/themes/default/lv_theme_default.c ****     lv_style_set_border_width(&styles->table_cell, lv_disp_dpx(theme.disp, 1));
 466:lvgl/src/extra/themes/default/lv_theme_default.c ****     lv_style_set_border_color(&styles->table_cell, color_grey);
 467:lvgl/src/extra/themes/default/lv_theme_default.c ****     lv_style_set_border_side(&styles->table_cell, LV_BORDER_SIDE_TOP | LV_BORDER_SIDE_BOTTOM );
 468:lvgl/src/extra/themes/default/lv_theme_default.c **** #endif
 469:lvgl/src/extra/themes/default/lv_theme_default.c **** 
 470:lvgl/src/extra/themes/default/lv_theme_default.c **** #if LV_USE_TEXTAREA
 471:lvgl/src/extra/themes/default/lv_theme_default.c ****     style_init_reset(&styles->ta_cursor);
 472:lvgl/src/extra/themes/default/lv_theme_default.c ****     lv_style_set_border_color(&styles->ta_cursor, color_text);
 473:lvgl/src/extra/themes/default/lv_theme_default.c ****     lv_style_set_border_width(&styles->ta_cursor, lv_disp_dpx(theme.disp, 2));
 474:lvgl/src/extra/themes/default/lv_theme_default.c ****     lv_style_set_pad_left(&styles->ta_cursor, lv_disp_dpx(theme.disp, 1));
 475:lvgl/src/extra/themes/default/lv_theme_default.c ****     lv_style_set_border_side(&styles->ta_cursor, LV_BORDER_SIDE_LEFT);
 476:lvgl/src/extra/themes/default/lv_theme_default.c ****     lv_style_set_anim_time(&styles->ta_cursor, 400);
 477:lvgl/src/extra/themes/default/lv_theme_default.c **** 
 478:lvgl/src/extra/themes/default/lv_theme_default.c ****     style_init_reset(&styles->ta_placeholder);
 479:lvgl/src/extra/themes/default/lv_theme_default.c ****     lv_style_set_text_color(&styles->ta_placeholder, (theme.flags & MODE_DARK) ? lv_palette_darken(
 480:lvgl/src/extra/themes/default/lv_theme_default.c **** #endif
 481:lvgl/src/extra/themes/default/lv_theme_default.c **** 
 482:lvgl/src/extra/themes/default/lv_theme_default.c **** #if LV_USE_CALENDAR
 483:lvgl/src/extra/themes/default/lv_theme_default.c ****     style_init_reset(&styles->calendar_bg);
 484:lvgl/src/extra/themes/default/lv_theme_default.c ****     lv_style_set_pad_all(&styles->calendar_bg, PAD_SMALL);
 485:lvgl/src/extra/themes/default/lv_theme_default.c ****     lv_style_set_pad_gap(&styles->calendar_bg, PAD_SMALL / 2);
 486:lvgl/src/extra/themes/default/lv_theme_default.c ****     lv_style_set_radius(&styles->calendar_bg, 0);
ARM GAS  /var/folders/k2/cd9bl_j17z77g23y6ffqb_400000gn/T//ccRoPncs.s 			page 10


 487:lvgl/src/extra/themes/default/lv_theme_default.c **** 
 488:lvgl/src/extra/themes/default/lv_theme_default.c ****     style_init_reset(&styles->calendar_day);
 489:lvgl/src/extra/themes/default/lv_theme_default.c ****     lv_style_set_border_width(&styles->calendar_day, lv_disp_dpx(theme.disp, 1));
 490:lvgl/src/extra/themes/default/lv_theme_default.c ****     lv_style_set_border_color(&styles->calendar_day, color_grey);
 491:lvgl/src/extra/themes/default/lv_theme_default.c ****     lv_style_set_bg_color(&styles->calendar_day, color_card);
 492:lvgl/src/extra/themes/default/lv_theme_default.c ****     lv_style_set_bg_opa(&styles->calendar_day, LV_OPA_20);
 493:lvgl/src/extra/themes/default/lv_theme_default.c **** #endif
 494:lvgl/src/extra/themes/default/lv_theme_default.c **** 
 495:lvgl/src/extra/themes/default/lv_theme_default.c **** #if LV_USE_COLORWHEEL
 496:lvgl/src/extra/themes/default/lv_theme_default.c ****     style_init_reset(&styles->colorwheel_main);
 497:lvgl/src/extra/themes/default/lv_theme_default.c ****     lv_style_set_arc_width(&styles->colorwheel_main, lv_disp_dpx(theme.disp, 10));
 498:lvgl/src/extra/themes/default/lv_theme_default.c **** #endif
 499:lvgl/src/extra/themes/default/lv_theme_default.c **** 
 500:lvgl/src/extra/themes/default/lv_theme_default.c **** #if LV_USE_MSGBOX
 501:lvgl/src/extra/themes/default/lv_theme_default.c ****     /*To add space for for the button shadow*/
 502:lvgl/src/extra/themes/default/lv_theme_default.c ****     style_init_reset(&styles->msgbox_btn_bg);
 503:lvgl/src/extra/themes/default/lv_theme_default.c ****     lv_style_set_pad_all(&styles->msgbox_btn_bg, lv_disp_dpx(theme.disp, 4));
 504:lvgl/src/extra/themes/default/lv_theme_default.c **** 
 505:lvgl/src/extra/themes/default/lv_theme_default.c ****     style_init_reset(&styles->msgbox_bg);
 506:lvgl/src/extra/themes/default/lv_theme_default.c ****     lv_style_set_max_width(&styles->msgbox_bg, lv_pct(100));
 507:lvgl/src/extra/themes/default/lv_theme_default.c **** #endif
 508:lvgl/src/extra/themes/default/lv_theme_default.c **** #if LV_USE_KEYBOARD
 509:lvgl/src/extra/themes/default/lv_theme_default.c ****     style_init_reset(&styles->keyboard_btn_bg);
 510:lvgl/src/extra/themes/default/lv_theme_default.c ****     lv_style_set_shadow_width(&styles->keyboard_btn_bg, 0);
 511:lvgl/src/extra/themes/default/lv_theme_default.c ****     lv_style_set_radius(&styles->keyboard_btn_bg, disp_size == DISP_SMALL ? RADIUS_DEFAULT / 2 : RA
 512:lvgl/src/extra/themes/default/lv_theme_default.c **** #endif
 513:lvgl/src/extra/themes/default/lv_theme_default.c **** 
 514:lvgl/src/extra/themes/default/lv_theme_default.c **** #if LV_USE_TABVIEW
 515:lvgl/src/extra/themes/default/lv_theme_default.c ****     style_init_reset(&styles->tab_btn);
 516:lvgl/src/extra/themes/default/lv_theme_default.c ****     lv_style_set_border_color(&styles->tab_btn, theme.color_primary);
 517:lvgl/src/extra/themes/default/lv_theme_default.c ****     lv_style_set_border_width(&styles->tab_btn, BORDER_WIDTH * 2);
 518:lvgl/src/extra/themes/default/lv_theme_default.c ****     lv_style_set_border_side(&styles->tab_btn, LV_BORDER_SIDE_BOTTOM);
 519:lvgl/src/extra/themes/default/lv_theme_default.c **** 
 520:lvgl/src/extra/themes/default/lv_theme_default.c ****     style_init_reset(&styles->tab_bg_focus);
 521:lvgl/src/extra/themes/default/lv_theme_default.c ****     lv_style_set_outline_pad(&styles->tab_bg_focus, -BORDER_WIDTH);
 522:lvgl/src/extra/themes/default/lv_theme_default.c **** #endif
 523:lvgl/src/extra/themes/default/lv_theme_default.c **** 
 524:lvgl/src/extra/themes/default/lv_theme_default.c **** #if LV_USE_LIST
 525:lvgl/src/extra/themes/default/lv_theme_default.c ****     style_init_reset(&styles->list_bg);
 526:lvgl/src/extra/themes/default/lv_theme_default.c ****     lv_style_set_pad_hor(&styles->list_bg, PAD_DEF);
 527:lvgl/src/extra/themes/default/lv_theme_default.c ****     lv_style_set_pad_ver(&styles->list_bg, 0);
 528:lvgl/src/extra/themes/default/lv_theme_default.c ****     lv_style_set_pad_gap(&styles->list_bg, 0);
 529:lvgl/src/extra/themes/default/lv_theme_default.c ****     lv_style_set_clip_corner(&styles->list_bg, true);
 530:lvgl/src/extra/themes/default/lv_theme_default.c **** 
 531:lvgl/src/extra/themes/default/lv_theme_default.c ****     style_init_reset(&styles->list_btn);
 532:lvgl/src/extra/themes/default/lv_theme_default.c ****     lv_style_set_border_width(&styles->list_btn, lv_disp_dpx(theme.disp, 1));
 533:lvgl/src/extra/themes/default/lv_theme_default.c ****     lv_style_set_border_color(&styles->list_btn, color_grey);
 534:lvgl/src/extra/themes/default/lv_theme_default.c ****     lv_style_set_border_side(&styles->list_btn, LV_BORDER_SIDE_BOTTOM);
 535:lvgl/src/extra/themes/default/lv_theme_default.c ****     lv_style_set_pad_all(&styles->list_btn, PAD_SMALL);
 536:lvgl/src/extra/themes/default/lv_theme_default.c ****     lv_style_set_pad_column(&styles->list_btn, PAD_SMALL);
 537:lvgl/src/extra/themes/default/lv_theme_default.c **** 
 538:lvgl/src/extra/themes/default/lv_theme_default.c ****     style_init_reset(&styles->list_item_grow);
 539:lvgl/src/extra/themes/default/lv_theme_default.c ****     lv_style_set_transform_width(&styles->list_item_grow, PAD_DEF);
 540:lvgl/src/extra/themes/default/lv_theme_default.c **** #endif
 541:lvgl/src/extra/themes/default/lv_theme_default.c **** 
 542:lvgl/src/extra/themes/default/lv_theme_default.c **** 
 543:lvgl/src/extra/themes/default/lv_theme_default.c **** #if LV_USE_LED
ARM GAS  /var/folders/k2/cd9bl_j17z77g23y6ffqb_400000gn/T//ccRoPncs.s 			page 11


 544:lvgl/src/extra/themes/default/lv_theme_default.c ****     style_init_reset(&styles->led);
 545:lvgl/src/extra/themes/default/lv_theme_default.c ****     lv_style_set_bg_opa(&styles->led, LV_OPA_COVER);
 546:lvgl/src/extra/themes/default/lv_theme_default.c ****     lv_style_set_bg_color(&styles->led, lv_color_white());
 547:lvgl/src/extra/themes/default/lv_theme_default.c ****     lv_style_set_bg_grad_color(&styles->led, lv_palette_main(LV_PALETTE_GREY));
 548:lvgl/src/extra/themes/default/lv_theme_default.c ****     lv_style_set_radius(&styles->led, LV_RADIUS_CIRCLE);
 549:lvgl/src/extra/themes/default/lv_theme_default.c ****     lv_style_set_shadow_width(&styles->led, lv_disp_dpx(theme.disp, 15));
 550:lvgl/src/extra/themes/default/lv_theme_default.c ****     lv_style_set_shadow_color(&styles->led, lv_color_white());
 551:lvgl/src/extra/themes/default/lv_theme_default.c ****     lv_style_set_shadow_spread(&styles->led, lv_disp_dpx(theme.disp, 5));
 552:lvgl/src/extra/themes/default/lv_theme_default.c **** #endif
 553:lvgl/src/extra/themes/default/lv_theme_default.c **** }
 554:lvgl/src/extra/themes/default/lv_theme_default.c **** 
 555:lvgl/src/extra/themes/default/lv_theme_default.c **** /**********************
 556:lvgl/src/extra/themes/default/lv_theme_default.c ****  *   GLOBAL FUNCTIONS
 557:lvgl/src/extra/themes/default/lv_theme_default.c ****  **********************/
 558:lvgl/src/extra/themes/default/lv_theme_default.c **** 
 559:lvgl/src/extra/themes/default/lv_theme_default.c **** lv_theme_t * lv_theme_default_init(lv_disp_t * disp, lv_color_t color_primary, lv_color_t color_sec
 560:lvgl/src/extra/themes/default/lv_theme_default.c **** {
 561:lvgl/src/extra/themes/default/lv_theme_default.c **** 
 562:lvgl/src/extra/themes/default/lv_theme_default.c ****     /*This trick is required only to avoid the garbage collection of
 563:lvgl/src/extra/themes/default/lv_theme_default.c ****      *styles' data if LVGL is used in a binding (e.g. Micropython)
 564:lvgl/src/extra/themes/default/lv_theme_default.c ****      *In a general case styles could be in simple `static lv_style_t my_style...` variables*/
 565:lvgl/src/extra/themes/default/lv_theme_default.c ****     if(!inited) {
 566:lvgl/src/extra/themes/default/lv_theme_default.c ****         LV_GC_ROOT(_lv_theme_default_styles) = lv_mem_alloc(sizeof(my_theme_styles_t));
 567:lvgl/src/extra/themes/default/lv_theme_default.c ****         styles = (my_theme_styles_t *)LV_GC_ROOT(_lv_theme_default_styles);
 568:lvgl/src/extra/themes/default/lv_theme_default.c ****     }
 569:lvgl/src/extra/themes/default/lv_theme_default.c **** 
 570:lvgl/src/extra/themes/default/lv_theme_default.c ****     if(LV_HOR_RES <= 320) disp_size = DISP_SMALL;
 571:lvgl/src/extra/themes/default/lv_theme_default.c ****     else if(LV_HOR_RES < 720) disp_size = DISP_MEDIUM;
 572:lvgl/src/extra/themes/default/lv_theme_default.c ****     else disp_size = DISP_LARGE;
 573:lvgl/src/extra/themes/default/lv_theme_default.c **** 
 574:lvgl/src/extra/themes/default/lv_theme_default.c ****     theme.disp = disp;
 575:lvgl/src/extra/themes/default/lv_theme_default.c ****     theme.color_primary = color_primary;
 576:lvgl/src/extra/themes/default/lv_theme_default.c ****     theme.color_secondary = color_secondary;
 577:lvgl/src/extra/themes/default/lv_theme_default.c ****     theme.font_small = font;
 578:lvgl/src/extra/themes/default/lv_theme_default.c ****     theme.font_normal = font;
 579:lvgl/src/extra/themes/default/lv_theme_default.c ****     theme.font_large = font;
 580:lvgl/src/extra/themes/default/lv_theme_default.c ****     theme.apply_cb = theme_apply;
 581:lvgl/src/extra/themes/default/lv_theme_default.c ****     theme.flags = dark ? MODE_DARK : 0;
 582:lvgl/src/extra/themes/default/lv_theme_default.c **** 
 583:lvgl/src/extra/themes/default/lv_theme_default.c ****     style_init();
 584:lvgl/src/extra/themes/default/lv_theme_default.c **** 
 585:lvgl/src/extra/themes/default/lv_theme_default.c ****     inited = true;
 586:lvgl/src/extra/themes/default/lv_theme_default.c **** 
 587:lvgl/src/extra/themes/default/lv_theme_default.c ****     if(disp == NULL || lv_disp_get_theme(disp) == &theme) lv_obj_report_style_change(NULL);
 588:lvgl/src/extra/themes/default/lv_theme_default.c **** 
 589:lvgl/src/extra/themes/default/lv_theme_default.c ****     return (lv_theme_t *)&theme;
 590:lvgl/src/extra/themes/default/lv_theme_default.c **** }
 591:lvgl/src/extra/themes/default/lv_theme_default.c **** 
 592:lvgl/src/extra/themes/default/lv_theme_default.c **** bool lv_theme_default_is_inited(void)
 593:lvgl/src/extra/themes/default/lv_theme_default.c **** {
 594:lvgl/src/extra/themes/default/lv_theme_default.c ****     return inited;
 595:lvgl/src/extra/themes/default/lv_theme_default.c **** }
 596:lvgl/src/extra/themes/default/lv_theme_default.c **** 
 597:lvgl/src/extra/themes/default/lv_theme_default.c **** 
 598:lvgl/src/extra/themes/default/lv_theme_default.c **** static void theme_apply(lv_theme_t * th, lv_obj_t * obj)
 599:lvgl/src/extra/themes/default/lv_theme_default.c **** {
  29              		.loc 1 599 1 view -0
ARM GAS  /var/folders/k2/cd9bl_j17z77g23y6ffqb_400000gn/T//ccRoPncs.s 			page 12


  30              		.cfi_startproc
  31              		@ args = 0, pretend = 0, frame = 0
  32              		@ frame_needed = 0, uses_anonymous_args = 0
  33              		.loc 1 599 1 is_stmt 0 view .LVU1
  34 0000 70B5     		push	{r4, r5, r6, lr}
  35              	.LCFI0:
  36              		.cfi_def_cfa_offset 16
  37              		.cfi_offset 4, -16
  38              		.cfi_offset 5, -12
  39              		.cfi_offset 6, -8
  40              		.cfi_offset 14, -4
  41 0002 0C46     		mov	r4, r1
 600:lvgl/src/extra/themes/default/lv_theme_default.c ****     LV_UNUSED(th);
  42              		.loc 1 600 5 is_stmt 1 view .LVU2
 601:lvgl/src/extra/themes/default/lv_theme_default.c **** 
 602:lvgl/src/extra/themes/default/lv_theme_default.c ****     if(lv_obj_get_parent(obj) == NULL) {
  43              		.loc 1 602 5 view .LVU3
  44              		.loc 1 602 8 is_stmt 0 view .LVU4
  45 0004 0846     		mov	r0, r1
  46              	.LVL1:
  47              		.loc 1 602 8 view .LVU5
  48 0006 FFF7FEFF 		bl	lv_obj_get_parent
  49              	.LVL2:
  50              		.loc 1 602 7 view .LVU6
  51 000a 78B1     		cbz	r0, .L42
 603:lvgl/src/extra/themes/default/lv_theme_default.c ****         lv_obj_add_style(obj, &styles->scr, 0);
 604:lvgl/src/extra/themes/default/lv_theme_default.c ****         lv_obj_add_style(obj, &styles->scrollbar, LV_PART_SCROLLBAR);
 605:lvgl/src/extra/themes/default/lv_theme_default.c ****         lv_obj_add_style(obj, &styles->scrollbar_scrolled, LV_PART_SCROLLBAR | LV_STATE_SCROLLED);
 606:lvgl/src/extra/themes/default/lv_theme_default.c ****         return;
 607:lvgl/src/extra/themes/default/lv_theme_default.c ****     }
 608:lvgl/src/extra/themes/default/lv_theme_default.c **** 
 609:lvgl/src/extra/themes/default/lv_theme_default.c ****     if(lv_obj_check_type(obj, &lv_obj_class)) {
  52              		.loc 1 609 5 is_stmt 1 view .LVU7
  53              		.loc 1 609 8 is_stmt 0 view .LVU8
  54 000c AD49     		ldr	r1, .L53
  55 000e 2046     		mov	r0, r4
  56 0010 FFF7FEFF 		bl	lv_obj_check_type
  57              	.LVL3:
  58              		.loc 1 609 7 view .LVU9
  59 0014 0028     		cmp	r0, #0
  60 0016 00F08E80 		beq	.L4
  61              	.LBB52:
 610:lvgl/src/extra/themes/default/lv_theme_default.c **** #if LV_USE_TABVIEW
 611:lvgl/src/extra/themes/default/lv_theme_default.c ****         lv_obj_t * parent = lv_obj_get_parent(obj);
  62              		.loc 1 611 9 is_stmt 1 view .LVU10
  63              		.loc 1 611 29 is_stmt 0 view .LVU11
  64 001a 2046     		mov	r0, r4
  65 001c FFF7FEFF 		bl	lv_obj_get_parent
  66              	.LVL4:
  67 0020 0546     		mov	r5, r0
  68              	.LVL5:
 612:lvgl/src/extra/themes/default/lv_theme_default.c ****         /*Tabview content area*/
 613:lvgl/src/extra/themes/default/lv_theme_default.c ****         if(lv_obj_check_type(parent, &lv_tabview_class)) {
  69              		.loc 1 613 9 is_stmt 1 view .LVU12
  70              		.loc 1 613 12 is_stmt 0 view .LVU13
  71 0022 A949     		ldr	r1, .L53+4
  72 0024 FFF7FEFF 		bl	lv_obj_check_type
ARM GAS  /var/folders/k2/cd9bl_j17z77g23y6ffqb_400000gn/T//ccRoPncs.s 			page 13


  73              	.LVL6:
  74              		.loc 1 613 11 view .LVU14
  75 0028 A0B1     		cbz	r0, .L43
  76              	.LVL7:
  77              	.L1:
  78              		.loc 1 613 11 view .LVU15
  79              	.LBE52:
 614:lvgl/src/extra/themes/default/lv_theme_default.c ****             return;
 615:lvgl/src/extra/themes/default/lv_theme_default.c ****         }
 616:lvgl/src/extra/themes/default/lv_theme_default.c ****         /*Tabview pages*/
 617:lvgl/src/extra/themes/default/lv_theme_default.c ****         else if(lv_obj_check_type(lv_obj_get_parent(parent), &lv_tabview_class)) {
 618:lvgl/src/extra/themes/default/lv_theme_default.c ****             lv_obj_add_style(obj, &styles->pad_normal, 0);
 619:lvgl/src/extra/themes/default/lv_theme_default.c ****             lv_obj_add_style(obj, &styles->scrollbar, LV_PART_SCROLLBAR);
 620:lvgl/src/extra/themes/default/lv_theme_default.c ****             lv_obj_add_style(obj, &styles->scrollbar_scrolled, LV_PART_SCROLLBAR | LV_STATE_SCROLLE
 621:lvgl/src/extra/themes/default/lv_theme_default.c ****             return;
 622:lvgl/src/extra/themes/default/lv_theme_default.c ****         }
 623:lvgl/src/extra/themes/default/lv_theme_default.c **** #endif
 624:lvgl/src/extra/themes/default/lv_theme_default.c **** 
 625:lvgl/src/extra/themes/default/lv_theme_default.c **** #if LV_USE_WIN
 626:lvgl/src/extra/themes/default/lv_theme_default.c ****         /*Header*/
 627:lvgl/src/extra/themes/default/lv_theme_default.c ****         if(lv_obj_get_child_id(obj) == 0 && lv_obj_check_type(lv_obj_get_parent(obj), &lv_win_class
 628:lvgl/src/extra/themes/default/lv_theme_default.c ****             lv_obj_add_style(obj, &styles->bg_color_grey, 0);
 629:lvgl/src/extra/themes/default/lv_theme_default.c ****             lv_obj_add_style(obj, &styles->pad_tiny, 0);
 630:lvgl/src/extra/themes/default/lv_theme_default.c ****             return;
 631:lvgl/src/extra/themes/default/lv_theme_default.c ****         }
 632:lvgl/src/extra/themes/default/lv_theme_default.c ****         /*Content*/
 633:lvgl/src/extra/themes/default/lv_theme_default.c ****         else if(lv_obj_get_child_id(obj) == 1 && lv_obj_check_type(lv_obj_get_parent(obj), &lv_win_
 634:lvgl/src/extra/themes/default/lv_theme_default.c ****             lv_obj_add_style(obj, &styles->scr, 0);
 635:lvgl/src/extra/themes/default/lv_theme_default.c ****             lv_obj_add_style(obj, &styles->pad_normal, 0);
 636:lvgl/src/extra/themes/default/lv_theme_default.c ****             lv_obj_add_style(obj, &styles->scrollbar, LV_PART_SCROLLBAR);
 637:lvgl/src/extra/themes/default/lv_theme_default.c ****             lv_obj_add_style(obj, &styles->scrollbar_scrolled, LV_PART_SCROLLBAR | LV_STATE_SCROLLE
 638:lvgl/src/extra/themes/default/lv_theme_default.c ****             return;
 639:lvgl/src/extra/themes/default/lv_theme_default.c ****         }
 640:lvgl/src/extra/themes/default/lv_theme_default.c **** #endif
 641:lvgl/src/extra/themes/default/lv_theme_default.c ****         lv_obj_add_style(obj, &styles->card, 0);
 642:lvgl/src/extra/themes/default/lv_theme_default.c ****         lv_obj_add_style(obj, &styles->scrollbar, LV_PART_SCROLLBAR);
 643:lvgl/src/extra/themes/default/lv_theme_default.c ****         lv_obj_add_style(obj, &styles->scrollbar_scrolled, LV_PART_SCROLLBAR | LV_STATE_SCROLLED);
 644:lvgl/src/extra/themes/default/lv_theme_default.c ****     }
 645:lvgl/src/extra/themes/default/lv_theme_default.c ****     #if LV_USE_BTN
 646:lvgl/src/extra/themes/default/lv_theme_default.c ****     else if(lv_obj_check_type(obj, &lv_btn_class)) {
 647:lvgl/src/extra/themes/default/lv_theme_default.c ****         lv_obj_add_style(obj, &styles->btn, 0);
 648:lvgl/src/extra/themes/default/lv_theme_default.c ****         lv_obj_add_style(obj, &styles->bg_color_primary, 0);
 649:lvgl/src/extra/themes/default/lv_theme_default.c ****         lv_obj_add_style(obj, &styles->transition_delayed, 0);
 650:lvgl/src/extra/themes/default/lv_theme_default.c ****         lv_obj_add_style(obj, &styles->pressed, LV_STATE_PRESSED);
 651:lvgl/src/extra/themes/default/lv_theme_default.c ****         lv_obj_add_style(obj, &styles->transition_normal, LV_STATE_PRESSED);
 652:lvgl/src/extra/themes/default/lv_theme_default.c ****         lv_obj_add_style(obj, &styles->outline_primary, LV_STATE_FOCUS_KEY);
 653:lvgl/src/extra/themes/default/lv_theme_default.c **** #if LV_THEME_DEFAULT_GROW
 654:lvgl/src/extra/themes/default/lv_theme_default.c ****         lv_obj_add_style(obj, &styles->grow, LV_STATE_PRESSED);
 655:lvgl/src/extra/themes/default/lv_theme_default.c **** #endif
 656:lvgl/src/extra/themes/default/lv_theme_default.c ****         lv_obj_add_style(obj, &styles->bg_color_secondary, LV_STATE_CHECKED);
 657:lvgl/src/extra/themes/default/lv_theme_default.c ****         lv_obj_add_style(obj, &styles->disabled, LV_STATE_DISABLED);
 658:lvgl/src/extra/themes/default/lv_theme_default.c ****     }
 659:lvgl/src/extra/themes/default/lv_theme_default.c **** #endif
 660:lvgl/src/extra/themes/default/lv_theme_default.c **** 
 661:lvgl/src/extra/themes/default/lv_theme_default.c **** #if LV_USE_LINE
 662:lvgl/src/extra/themes/default/lv_theme_default.c ****     else if(lv_obj_check_type(obj, &lv_line_class)) {
 663:lvgl/src/extra/themes/default/lv_theme_default.c ****         lv_obj_add_style(obj, &styles->line, 0);
ARM GAS  /var/folders/k2/cd9bl_j17z77g23y6ffqb_400000gn/T//ccRoPncs.s 			page 14


 664:lvgl/src/extra/themes/default/lv_theme_default.c ****     }
 665:lvgl/src/extra/themes/default/lv_theme_default.c **** #endif
 666:lvgl/src/extra/themes/default/lv_theme_default.c **** 
 667:lvgl/src/extra/themes/default/lv_theme_default.c **** #if LV_USE_BTNMATRIX
 668:lvgl/src/extra/themes/default/lv_theme_default.c ****     else if(lv_obj_check_type(obj, &lv_btnmatrix_class)) {
 669:lvgl/src/extra/themes/default/lv_theme_default.c **** #if LV_USE_MSGBOX
 670:lvgl/src/extra/themes/default/lv_theme_default.c ****         if(lv_obj_check_type(lv_obj_get_parent(obj), &lv_msgbox_class)) {
 671:lvgl/src/extra/themes/default/lv_theme_default.c ****             lv_obj_add_style(obj, &styles->msgbox_btn_bg, 0);
 672:lvgl/src/extra/themes/default/lv_theme_default.c ****             lv_obj_add_style(obj, &styles->pad_gap, 0);
 673:lvgl/src/extra/themes/default/lv_theme_default.c ****             lv_obj_add_style(obj, &styles->btn, LV_PART_ITEMS);
 674:lvgl/src/extra/themes/default/lv_theme_default.c ****             lv_obj_add_style(obj, &styles->pressed, LV_PART_ITEMS | LV_STATE_PRESSED);
 675:lvgl/src/extra/themes/default/lv_theme_default.c ****             lv_obj_add_style(obj, &styles->disabled, LV_PART_ITEMS | LV_STATE_DISABLED);
 676:lvgl/src/extra/themes/default/lv_theme_default.c ****             lv_obj_add_style(obj, &styles->bg_color_primary, LV_PART_ITEMS | LV_STATE_CHECKED);
 677:lvgl/src/extra/themes/default/lv_theme_default.c ****             lv_obj_add_style(obj, &styles->bg_color_primary_muted, LV_PART_ITEMS | LV_STATE_FOCUS_K
 678:lvgl/src/extra/themes/default/lv_theme_default.c ****             lv_obj_add_style(obj, &styles->bg_color_secondary_muted, LV_PART_ITEMS | LV_STATE_EDITE
 679:lvgl/src/extra/themes/default/lv_theme_default.c ****             return;
 680:lvgl/src/extra/themes/default/lv_theme_default.c ****         }
 681:lvgl/src/extra/themes/default/lv_theme_default.c **** #endif
 682:lvgl/src/extra/themes/default/lv_theme_default.c **** #if LV_USE_TABVIEW
 683:lvgl/src/extra/themes/default/lv_theme_default.c ****         if(lv_obj_check_type(lv_obj_get_parent(obj), &lv_tabview_class)) {
 684:lvgl/src/extra/themes/default/lv_theme_default.c ****             lv_obj_add_style(obj, &styles->bg_color_white, 0);
 685:lvgl/src/extra/themes/default/lv_theme_default.c ****             lv_obj_add_style(obj, &styles->outline_primary, LV_STATE_FOCUS_KEY);
 686:lvgl/src/extra/themes/default/lv_theme_default.c ****             lv_obj_add_style(obj, &styles->tab_bg_focus, LV_STATE_FOCUS_KEY);
 687:lvgl/src/extra/themes/default/lv_theme_default.c ****             lv_obj_add_style(obj, &styles->pressed, LV_PART_ITEMS | LV_STATE_PRESSED);
 688:lvgl/src/extra/themes/default/lv_theme_default.c ****             lv_obj_add_style(obj, &styles->bg_color_primary_muted, LV_PART_ITEMS | LV_STATE_CHECKED
 689:lvgl/src/extra/themes/default/lv_theme_default.c ****             lv_obj_add_style(obj, &styles->tab_btn, LV_PART_ITEMS | LV_STATE_CHECKED);
 690:lvgl/src/extra/themes/default/lv_theme_default.c ****             lv_obj_add_style(obj, &styles->outline_primary, LV_PART_ITEMS | LV_STATE_FOCUS_KEY);
 691:lvgl/src/extra/themes/default/lv_theme_default.c ****             lv_obj_add_style(obj, &styles->outline_secondary, LV_PART_ITEMS | LV_STATE_EDITED);
 692:lvgl/src/extra/themes/default/lv_theme_default.c ****             lv_obj_add_style(obj, &styles->tab_bg_focus, LV_PART_ITEMS | LV_STATE_FOCUS_KEY);
 693:lvgl/src/extra/themes/default/lv_theme_default.c ****             return;
 694:lvgl/src/extra/themes/default/lv_theme_default.c ****         }
 695:lvgl/src/extra/themes/default/lv_theme_default.c **** #endif
 696:lvgl/src/extra/themes/default/lv_theme_default.c ****         lv_obj_add_style(obj, &styles->card, 0);
 697:lvgl/src/extra/themes/default/lv_theme_default.c ****         lv_obj_add_style(obj, &styles->outline_primary, LV_STATE_FOCUS_KEY);
 698:lvgl/src/extra/themes/default/lv_theme_default.c ****         lv_obj_add_style(obj, &styles->outline_secondary, LV_STATE_EDITED);
 699:lvgl/src/extra/themes/default/lv_theme_default.c ****         lv_obj_add_style(obj, &styles->btn, LV_PART_ITEMS);
 700:lvgl/src/extra/themes/default/lv_theme_default.c ****         lv_obj_add_style(obj, &styles->disabled, LV_PART_ITEMS | LV_STATE_DISABLED);
 701:lvgl/src/extra/themes/default/lv_theme_default.c ****         lv_obj_add_style(obj, &styles->pressed, LV_PART_ITEMS | LV_STATE_PRESSED);
 702:lvgl/src/extra/themes/default/lv_theme_default.c ****         lv_obj_add_style(obj, &styles->bg_color_primary, LV_PART_ITEMS | LV_STATE_CHECKED);
 703:lvgl/src/extra/themes/default/lv_theme_default.c ****         lv_obj_add_style(obj, &styles->outline_primary, LV_PART_ITEMS | LV_STATE_FOCUS_KEY);
 704:lvgl/src/extra/themes/default/lv_theme_default.c ****         lv_obj_add_style(obj, &styles->outline_secondary, LV_PART_ITEMS | LV_STATE_EDITED);
 705:lvgl/src/extra/themes/default/lv_theme_default.c ****     }
 706:lvgl/src/extra/themes/default/lv_theme_default.c **** #endif
 707:lvgl/src/extra/themes/default/lv_theme_default.c **** 
 708:lvgl/src/extra/themes/default/lv_theme_default.c **** #if LV_USE_BAR
 709:lvgl/src/extra/themes/default/lv_theme_default.c ****     else if(lv_obj_check_type(obj, &lv_bar_class)) {
 710:lvgl/src/extra/themes/default/lv_theme_default.c ****         lv_obj_add_style(obj, &styles->bg_color_primary_muted, 0);
 711:lvgl/src/extra/themes/default/lv_theme_default.c ****         lv_obj_add_style(obj, &styles->circle, 0);
 712:lvgl/src/extra/themes/default/lv_theme_default.c ****         lv_obj_add_style(obj, &styles->outline_primary, LV_STATE_FOCUS_KEY);
 713:lvgl/src/extra/themes/default/lv_theme_default.c ****         lv_obj_add_style(obj, &styles->outline_secondary, LV_STATE_EDITED);
 714:lvgl/src/extra/themes/default/lv_theme_default.c ****         lv_obj_add_style(obj, &styles->bg_color_primary, LV_PART_INDICATOR);
 715:lvgl/src/extra/themes/default/lv_theme_default.c ****         lv_obj_add_style(obj, &styles->circle, LV_PART_INDICATOR);
 716:lvgl/src/extra/themes/default/lv_theme_default.c ****     }
 717:lvgl/src/extra/themes/default/lv_theme_default.c **** #endif
 718:lvgl/src/extra/themes/default/lv_theme_default.c **** 
 719:lvgl/src/extra/themes/default/lv_theme_default.c **** #if LV_USE_SLIDER
 720:lvgl/src/extra/themes/default/lv_theme_default.c ****     else if(lv_obj_check_type(obj, &lv_slider_class)) {
ARM GAS  /var/folders/k2/cd9bl_j17z77g23y6ffqb_400000gn/T//ccRoPncs.s 			page 15


 721:lvgl/src/extra/themes/default/lv_theme_default.c ****         lv_obj_add_style(obj, &styles->bg_color_primary_muted, 0);
 722:lvgl/src/extra/themes/default/lv_theme_default.c ****         lv_obj_add_style(obj, &styles->circle, 0);
 723:lvgl/src/extra/themes/default/lv_theme_default.c ****         lv_obj_add_style(obj, &styles->outline_primary, LV_STATE_FOCUS_KEY);
 724:lvgl/src/extra/themes/default/lv_theme_default.c ****         lv_obj_add_style(obj, &styles->outline_secondary, LV_STATE_EDITED);
 725:lvgl/src/extra/themes/default/lv_theme_default.c ****         lv_obj_add_style(obj, &styles->bg_color_primary, LV_PART_INDICATOR);
 726:lvgl/src/extra/themes/default/lv_theme_default.c ****         lv_obj_add_style(obj, &styles->circle, LV_PART_INDICATOR);
 727:lvgl/src/extra/themes/default/lv_theme_default.c ****         lv_obj_add_style(obj, &styles->knob, LV_PART_KNOB);
 728:lvgl/src/extra/themes/default/lv_theme_default.c **** #if LV_THEME_DEFAULT_GROW
 729:lvgl/src/extra/themes/default/lv_theme_default.c ****         lv_obj_add_style(obj, &styles->grow, LV_PART_KNOB | LV_STATE_PRESSED);
 730:lvgl/src/extra/themes/default/lv_theme_default.c **** #endif
 731:lvgl/src/extra/themes/default/lv_theme_default.c ****         lv_obj_add_style(obj, &styles->transition_delayed, LV_PART_KNOB);
 732:lvgl/src/extra/themes/default/lv_theme_default.c ****         lv_obj_add_style(obj, &styles->transition_normal, LV_PART_KNOB | LV_STATE_PRESSED);
 733:lvgl/src/extra/themes/default/lv_theme_default.c ****     }
 734:lvgl/src/extra/themes/default/lv_theme_default.c **** #endif
 735:lvgl/src/extra/themes/default/lv_theme_default.c **** 
 736:lvgl/src/extra/themes/default/lv_theme_default.c **** #if LV_USE_TABLE
 737:lvgl/src/extra/themes/default/lv_theme_default.c ****     else if(lv_obj_check_type(obj, &lv_table_class)) {
 738:lvgl/src/extra/themes/default/lv_theme_default.c ****         lv_obj_add_style(obj, &styles->card, 0);
 739:lvgl/src/extra/themes/default/lv_theme_default.c ****         lv_obj_add_style(obj, &styles->pad_zero, 0);
 740:lvgl/src/extra/themes/default/lv_theme_default.c ****         lv_obj_add_style(obj, &styles->no_radius, 0);
 741:lvgl/src/extra/themes/default/lv_theme_default.c ****         lv_obj_add_style(obj, &styles->outline_primary, LV_STATE_FOCUS_KEY);
 742:lvgl/src/extra/themes/default/lv_theme_default.c ****         lv_obj_add_style(obj, &styles->outline_secondary, LV_STATE_EDITED);
 743:lvgl/src/extra/themes/default/lv_theme_default.c ****         lv_obj_add_style(obj, &styles->scrollbar, LV_PART_SCROLLBAR);
 744:lvgl/src/extra/themes/default/lv_theme_default.c ****         lv_obj_add_style(obj, &styles->scrollbar_scrolled, LV_PART_SCROLLBAR | LV_STATE_SCROLLED);
 745:lvgl/src/extra/themes/default/lv_theme_default.c ****         lv_obj_add_style(obj, &styles->bg_color_white, LV_PART_ITEMS);
 746:lvgl/src/extra/themes/default/lv_theme_default.c ****         lv_obj_add_style(obj, &styles->table_cell, LV_PART_ITEMS);
 747:lvgl/src/extra/themes/default/lv_theme_default.c ****         lv_obj_add_style(obj, &styles->pad_normal, LV_PART_ITEMS);
 748:lvgl/src/extra/themes/default/lv_theme_default.c ****         lv_obj_add_style(obj, &styles->pressed, LV_PART_ITEMS | LV_STATE_PRESSED);
 749:lvgl/src/extra/themes/default/lv_theme_default.c ****         lv_obj_add_style(obj, &styles->bg_color_primary, LV_PART_ITEMS | LV_STATE_FOCUS_KEY);
 750:lvgl/src/extra/themes/default/lv_theme_default.c ****         lv_obj_add_style(obj, &styles->bg_color_secondary, LV_PART_ITEMS | LV_STATE_EDITED);
 751:lvgl/src/extra/themes/default/lv_theme_default.c ****     }
 752:lvgl/src/extra/themes/default/lv_theme_default.c **** #endif
 753:lvgl/src/extra/themes/default/lv_theme_default.c **** 
 754:lvgl/src/extra/themes/default/lv_theme_default.c **** #if LV_USE_CHECKBOX
 755:lvgl/src/extra/themes/default/lv_theme_default.c ****     else if(lv_obj_check_type(obj, &lv_checkbox_class)) {
 756:lvgl/src/extra/themes/default/lv_theme_default.c ****         lv_obj_add_style(obj, &styles->pad_gap, 0);
 757:lvgl/src/extra/themes/default/lv_theme_default.c ****         lv_obj_add_style(obj, &styles->outline_primary, LV_STATE_FOCUS_KEY);
 758:lvgl/src/extra/themes/default/lv_theme_default.c ****         lv_obj_add_style(obj, &styles->disabled, LV_PART_INDICATOR | LV_STATE_DISABLED);
 759:lvgl/src/extra/themes/default/lv_theme_default.c ****         lv_obj_add_style(obj, &styles->cb_marker, LV_PART_INDICATOR);
 760:lvgl/src/extra/themes/default/lv_theme_default.c ****         lv_obj_add_style(obj, &styles->bg_color_primary, LV_PART_INDICATOR | LV_STATE_CHECKED);
 761:lvgl/src/extra/themes/default/lv_theme_default.c ****         lv_obj_add_style(obj, &styles->cb_marker_checked, LV_PART_INDICATOR | LV_STATE_CHECKED);
 762:lvgl/src/extra/themes/default/lv_theme_default.c ****         lv_obj_add_style(obj, &styles->pressed, LV_PART_INDICATOR | LV_STATE_PRESSED);
 763:lvgl/src/extra/themes/default/lv_theme_default.c **** #if LV_THEME_DEFAULT_GROW
 764:lvgl/src/extra/themes/default/lv_theme_default.c ****         lv_obj_add_style(obj, &styles->grow, LV_PART_INDICATOR | LV_STATE_PRESSED);
 765:lvgl/src/extra/themes/default/lv_theme_default.c **** #endif
 766:lvgl/src/extra/themes/default/lv_theme_default.c ****         lv_obj_add_style(obj, &styles->transition_normal, LV_PART_INDICATOR | LV_STATE_PRESSED);
 767:lvgl/src/extra/themes/default/lv_theme_default.c ****         lv_obj_add_style(obj, &styles->transition_delayed, LV_PART_INDICATOR);
 768:lvgl/src/extra/themes/default/lv_theme_default.c ****     }
 769:lvgl/src/extra/themes/default/lv_theme_default.c **** #endif
 770:lvgl/src/extra/themes/default/lv_theme_default.c **** 
 771:lvgl/src/extra/themes/default/lv_theme_default.c **** #if LV_USE_SWITCH
 772:lvgl/src/extra/themes/default/lv_theme_default.c ****     else if(lv_obj_check_type(obj, &lv_switch_class)) {
 773:lvgl/src/extra/themes/default/lv_theme_default.c ****         lv_obj_add_style(obj, &styles->bg_color_grey, 0);
 774:lvgl/src/extra/themes/default/lv_theme_default.c ****         lv_obj_add_style(obj, &styles->circle, 0);
 775:lvgl/src/extra/themes/default/lv_theme_default.c ****         lv_obj_add_style(obj, &styles->disabled, LV_STATE_DISABLED);
 776:lvgl/src/extra/themes/default/lv_theme_default.c ****         lv_obj_add_style(obj, &styles->outline_primary, LV_STATE_FOCUS_KEY);
 777:lvgl/src/extra/themes/default/lv_theme_default.c ****         lv_obj_add_style(obj, &styles->bg_color_primary, LV_PART_INDICATOR | LV_STATE_CHECKED);
ARM GAS  /var/folders/k2/cd9bl_j17z77g23y6ffqb_400000gn/T//ccRoPncs.s 			page 16


 778:lvgl/src/extra/themes/default/lv_theme_default.c ****         lv_obj_add_style(obj, &styles->circle, LV_PART_INDICATOR);
 779:lvgl/src/extra/themes/default/lv_theme_default.c ****         lv_obj_add_style(obj, &styles->disabled, LV_PART_INDICATOR | LV_STATE_DISABLED);
 780:lvgl/src/extra/themes/default/lv_theme_default.c ****         lv_obj_add_style(obj, &styles->knob, LV_PART_KNOB);
 781:lvgl/src/extra/themes/default/lv_theme_default.c ****         lv_obj_add_style(obj, &styles->bg_color_white, LV_PART_KNOB);
 782:lvgl/src/extra/themes/default/lv_theme_default.c ****         lv_obj_add_style(obj, &styles->switch_knob, LV_PART_KNOB);
 783:lvgl/src/extra/themes/default/lv_theme_default.c ****         lv_obj_add_style(obj, &styles->disabled, LV_PART_KNOB | LV_STATE_DISABLED);
 784:lvgl/src/extra/themes/default/lv_theme_default.c ****     }
 785:lvgl/src/extra/themes/default/lv_theme_default.c **** #endif
 786:lvgl/src/extra/themes/default/lv_theme_default.c **** 
 787:lvgl/src/extra/themes/default/lv_theme_default.c **** #if LV_USE_CHART
 788:lvgl/src/extra/themes/default/lv_theme_default.c ****     else if(lv_obj_check_type(obj, &lv_chart_class)) {
 789:lvgl/src/extra/themes/default/lv_theme_default.c ****         lv_obj_add_style(obj, &styles->card, 0);
 790:lvgl/src/extra/themes/default/lv_theme_default.c ****         lv_obj_add_style(obj, &styles->pad_small, 0);
 791:lvgl/src/extra/themes/default/lv_theme_default.c ****         lv_obj_add_style(obj, &styles->chart_bg, 0);
 792:lvgl/src/extra/themes/default/lv_theme_default.c ****         lv_obj_add_style(obj, &styles->scrollbar, LV_PART_SCROLLBAR);
 793:lvgl/src/extra/themes/default/lv_theme_default.c ****         lv_obj_add_style(obj, &styles->scrollbar_scrolled, LV_PART_SCROLLBAR | LV_STATE_SCROLLED);
 794:lvgl/src/extra/themes/default/lv_theme_default.c ****         lv_obj_add_style(obj, &styles->chart_series, LV_PART_ITEMS);
 795:lvgl/src/extra/themes/default/lv_theme_default.c ****         lv_obj_add_style(obj, &styles->chart_indic, LV_PART_INDICATOR);
 796:lvgl/src/extra/themes/default/lv_theme_default.c ****         lv_obj_add_style(obj, &styles->chart_ticks, LV_PART_TICKS);
 797:lvgl/src/extra/themes/default/lv_theme_default.c ****         lv_obj_add_style(obj, &styles->chart_series, LV_PART_CURSOR);
 798:lvgl/src/extra/themes/default/lv_theme_default.c ****     }
 799:lvgl/src/extra/themes/default/lv_theme_default.c **** #endif
 800:lvgl/src/extra/themes/default/lv_theme_default.c **** 
 801:lvgl/src/extra/themes/default/lv_theme_default.c **** #if LV_USE_ROLLER
 802:lvgl/src/extra/themes/default/lv_theme_default.c ****     else if(lv_obj_check_type(obj, &lv_roller_class)) {
 803:lvgl/src/extra/themes/default/lv_theme_default.c ****         lv_obj_add_style(obj, &styles->card, 0);
 804:lvgl/src/extra/themes/default/lv_theme_default.c ****         lv_obj_add_style(obj, &styles->anim, 0);
 805:lvgl/src/extra/themes/default/lv_theme_default.c ****         lv_obj_add_style(obj, &styles->line_space_large, 0);
 806:lvgl/src/extra/themes/default/lv_theme_default.c ****         lv_obj_add_style(obj, &styles->text_align_center, 0);
 807:lvgl/src/extra/themes/default/lv_theme_default.c ****         lv_obj_add_style(obj, &styles->outline_primary, LV_STATE_FOCUS_KEY);
 808:lvgl/src/extra/themes/default/lv_theme_default.c ****         lv_obj_add_style(obj, &styles->outline_secondary, LV_STATE_EDITED);
 809:lvgl/src/extra/themes/default/lv_theme_default.c ****         lv_obj_add_style(obj, &styles->bg_color_primary, LV_PART_SELECTED);
 810:lvgl/src/extra/themes/default/lv_theme_default.c ****     }
 811:lvgl/src/extra/themes/default/lv_theme_default.c **** #endif
 812:lvgl/src/extra/themes/default/lv_theme_default.c **** 
 813:lvgl/src/extra/themes/default/lv_theme_default.c **** #if LV_USE_DROPDOWN
 814:lvgl/src/extra/themes/default/lv_theme_default.c ****     else if(lv_obj_check_type(obj, &lv_dropdown_class)) {
 815:lvgl/src/extra/themes/default/lv_theme_default.c ****         lv_obj_add_style(obj, &styles->card, 0);
 816:lvgl/src/extra/themes/default/lv_theme_default.c ****         lv_obj_add_style(obj, &styles->pad_small, 0);
 817:lvgl/src/extra/themes/default/lv_theme_default.c ****         lv_obj_add_style(obj, &styles->transition_delayed, 0);
 818:lvgl/src/extra/themes/default/lv_theme_default.c ****         lv_obj_add_style(obj, &styles->transition_normal, LV_STATE_PRESSED);
 819:lvgl/src/extra/themes/default/lv_theme_default.c ****         lv_obj_add_style(obj, &styles->pressed, LV_STATE_PRESSED);
 820:lvgl/src/extra/themes/default/lv_theme_default.c ****         lv_obj_add_style(obj, &styles->outline_primary, LV_STATE_FOCUS_KEY);
 821:lvgl/src/extra/themes/default/lv_theme_default.c ****         lv_obj_add_style(obj, &styles->outline_secondary, LV_STATE_EDITED);
 822:lvgl/src/extra/themes/default/lv_theme_default.c ****         lv_obj_add_style(obj, &styles->transition_normal, LV_PART_INDICATOR);
 823:lvgl/src/extra/themes/default/lv_theme_default.c ****     }
 824:lvgl/src/extra/themes/default/lv_theme_default.c ****     else if(lv_obj_check_type(obj, &lv_dropdownlist_class)) {
 825:lvgl/src/extra/themes/default/lv_theme_default.c ****         lv_obj_add_style(obj, &styles->card, 0);
 826:lvgl/src/extra/themes/default/lv_theme_default.c ****         lv_obj_add_style(obj, &styles->clip_corner, 0);
 827:lvgl/src/extra/themes/default/lv_theme_default.c ****         lv_obj_add_style(obj, &styles->line_space_large, 0);
 828:lvgl/src/extra/themes/default/lv_theme_default.c ****         lv_obj_add_style(obj, &styles->dropdown_list, 0);
 829:lvgl/src/extra/themes/default/lv_theme_default.c ****         lv_obj_add_style(obj, &styles->scrollbar, LV_PART_SCROLLBAR);
 830:lvgl/src/extra/themes/default/lv_theme_default.c ****         lv_obj_add_style(obj, &styles->scrollbar_scrolled, LV_PART_SCROLLBAR | LV_STATE_SCROLLED);
 831:lvgl/src/extra/themes/default/lv_theme_default.c ****         lv_obj_add_style(obj, &styles->bg_color_white, LV_PART_SELECTED);
 832:lvgl/src/extra/themes/default/lv_theme_default.c ****         lv_obj_add_style(obj, &styles->bg_color_primary, LV_PART_SELECTED | LV_STATE_CHECKED);
 833:lvgl/src/extra/themes/default/lv_theme_default.c ****         lv_obj_add_style(obj, &styles->pressed, LV_PART_SELECTED | LV_STATE_PRESSED);
 834:lvgl/src/extra/themes/default/lv_theme_default.c ****     }
ARM GAS  /var/folders/k2/cd9bl_j17z77g23y6ffqb_400000gn/T//ccRoPncs.s 			page 17


 835:lvgl/src/extra/themes/default/lv_theme_default.c **** #endif
 836:lvgl/src/extra/themes/default/lv_theme_default.c **** 
 837:lvgl/src/extra/themes/default/lv_theme_default.c **** #if LV_USE_ARC
 838:lvgl/src/extra/themes/default/lv_theme_default.c ****     else if(lv_obj_check_type(obj, &lv_arc_class)) {
 839:lvgl/src/extra/themes/default/lv_theme_default.c ****         lv_obj_add_style(obj, &styles->arc_indic, 0);
 840:lvgl/src/extra/themes/default/lv_theme_default.c ****         lv_obj_add_style(obj, &styles->arc_indic, LV_PART_INDICATOR);
 841:lvgl/src/extra/themes/default/lv_theme_default.c ****         lv_obj_add_style(obj, &styles->arc_indic_primary, LV_PART_INDICATOR);
 842:lvgl/src/extra/themes/default/lv_theme_default.c ****         lv_obj_add_style(obj, &styles->knob, LV_PART_KNOB);
 843:lvgl/src/extra/themes/default/lv_theme_default.c ****     }
 844:lvgl/src/extra/themes/default/lv_theme_default.c **** #endif
 845:lvgl/src/extra/themes/default/lv_theme_default.c **** 
 846:lvgl/src/extra/themes/default/lv_theme_default.c **** 
 847:lvgl/src/extra/themes/default/lv_theme_default.c **** #if LV_USE_SPINNER
 848:lvgl/src/extra/themes/default/lv_theme_default.c ****     else if(lv_obj_check_type(obj, &lv_spinner_class)) {
 849:lvgl/src/extra/themes/default/lv_theme_default.c ****         lv_obj_add_style(obj, &styles->arc_indic, 0);
 850:lvgl/src/extra/themes/default/lv_theme_default.c ****         lv_obj_add_style(obj, &styles->arc_indic, LV_PART_INDICATOR);
 851:lvgl/src/extra/themes/default/lv_theme_default.c ****         lv_obj_add_style(obj, &styles->arc_indic_primary, LV_PART_INDICATOR);
 852:lvgl/src/extra/themes/default/lv_theme_default.c ****     }
 853:lvgl/src/extra/themes/default/lv_theme_default.c **** #endif
 854:lvgl/src/extra/themes/default/lv_theme_default.c **** 
 855:lvgl/src/extra/themes/default/lv_theme_default.c **** #if LV_USE_METER
 856:lvgl/src/extra/themes/default/lv_theme_default.c ****     else if(lv_obj_check_type(obj, &lv_meter_class)) {
 857:lvgl/src/extra/themes/default/lv_theme_default.c ****         lv_obj_add_style(obj, &styles->card, 0);
 858:lvgl/src/extra/themes/default/lv_theme_default.c ****         lv_obj_add_style(obj, &styles->circle, 0);
 859:lvgl/src/extra/themes/default/lv_theme_default.c ****         lv_obj_add_style(obj, &styles->meter_indic, LV_PART_INDICATOR);
 860:lvgl/src/extra/themes/default/lv_theme_default.c ****     }
 861:lvgl/src/extra/themes/default/lv_theme_default.c **** #endif
 862:lvgl/src/extra/themes/default/lv_theme_default.c **** 
 863:lvgl/src/extra/themes/default/lv_theme_default.c **** #if LV_USE_TEXTAREA
 864:lvgl/src/extra/themes/default/lv_theme_default.c ****     else if(lv_obj_check_type(obj, &lv_textarea_class)) {
 865:lvgl/src/extra/themes/default/lv_theme_default.c ****         lv_obj_add_style(obj, &styles->card, 0);
 866:lvgl/src/extra/themes/default/lv_theme_default.c ****         lv_obj_add_style(obj, &styles->pad_small, 0);
 867:lvgl/src/extra/themes/default/lv_theme_default.c ****         lv_obj_add_style(obj, &styles->outline_primary, LV_STATE_FOCUS_KEY);
 868:lvgl/src/extra/themes/default/lv_theme_default.c ****         lv_obj_add_style(obj, &styles->outline_secondary, LV_STATE_EDITED);
 869:lvgl/src/extra/themes/default/lv_theme_default.c ****         lv_obj_add_style(obj, &styles->scrollbar, LV_PART_SCROLLBAR);
 870:lvgl/src/extra/themes/default/lv_theme_default.c ****         lv_obj_add_style(obj, &styles->scrollbar_scrolled, LV_PART_SCROLLBAR | LV_STATE_SCROLLED);
 871:lvgl/src/extra/themes/default/lv_theme_default.c ****         lv_obj_add_style(obj, &styles->ta_cursor, LV_PART_CURSOR | LV_STATE_FOCUSED);
 872:lvgl/src/extra/themes/default/lv_theme_default.c ****         lv_obj_add_style(obj, &styles->ta_placeholder, LV_PART_TEXTAREA_PLACEHOLDER);
 873:lvgl/src/extra/themes/default/lv_theme_default.c ****     }
 874:lvgl/src/extra/themes/default/lv_theme_default.c **** #endif
 875:lvgl/src/extra/themes/default/lv_theme_default.c **** 
 876:lvgl/src/extra/themes/default/lv_theme_default.c **** #if LV_USE_CALENDAR
 877:lvgl/src/extra/themes/default/lv_theme_default.c ****     else if(lv_obj_check_type(obj, &lv_calendar_class)) {
 878:lvgl/src/extra/themes/default/lv_theme_default.c ****         lv_obj_add_style(obj, &styles->card, 0);
 879:lvgl/src/extra/themes/default/lv_theme_default.c ****         lv_obj_add_style(obj, &styles->calendar_bg, 0);
 880:lvgl/src/extra/themes/default/lv_theme_default.c ****         lv_obj_add_style(obj, &styles->outline_primary, LV_STATE_FOCUS_KEY);
 881:lvgl/src/extra/themes/default/lv_theme_default.c ****         lv_obj_add_style(obj, &styles->outline_secondary, LV_STATE_EDITED);
 882:lvgl/src/extra/themes/default/lv_theme_default.c ****         lv_obj_add_style(obj, &styles->calendar_day, LV_PART_ITEMS);
 883:lvgl/src/extra/themes/default/lv_theme_default.c ****         lv_obj_add_style(obj, &styles->pressed, LV_PART_ITEMS | LV_STATE_PRESSED);
 884:lvgl/src/extra/themes/default/lv_theme_default.c ****         lv_obj_add_style(obj, &styles->disabled, LV_PART_ITEMS | LV_STATE_DISABLED);
 885:lvgl/src/extra/themes/default/lv_theme_default.c ****         lv_obj_add_style(obj, &styles->outline_primary, LV_PART_ITEMS | LV_STATE_FOCUS_KEY);
 886:lvgl/src/extra/themes/default/lv_theme_default.c ****         lv_obj_add_style(obj, &styles->outline_secondary, LV_PART_ITEMS | LV_STATE_EDITED);
 887:lvgl/src/extra/themes/default/lv_theme_default.c ****     }
 888:lvgl/src/extra/themes/default/lv_theme_default.c **** #endif
 889:lvgl/src/extra/themes/default/lv_theme_default.c **** 
 890:lvgl/src/extra/themes/default/lv_theme_default.c **** #if LV_USE_CALENDAR_HEADER_ARROW
 891:lvgl/src/extra/themes/default/lv_theme_default.c ****     else if(lv_obj_check_type(obj, &lv_calendar_header_arrow_class)) {
ARM GAS  /var/folders/k2/cd9bl_j17z77g23y6ffqb_400000gn/T//ccRoPncs.s 			page 18


 892:lvgl/src/extra/themes/default/lv_theme_default.c ****         lv_obj_add_style(obj, &styles->card, 0);
 893:lvgl/src/extra/themes/default/lv_theme_default.c ****     }
 894:lvgl/src/extra/themes/default/lv_theme_default.c **** #endif
 895:lvgl/src/extra/themes/default/lv_theme_default.c **** 
 896:lvgl/src/extra/themes/default/lv_theme_default.c **** #if LV_USE_CALENDAR_HEADER_DROPDOWN
 897:lvgl/src/extra/themes/default/lv_theme_default.c ****     else if(lv_obj_check_type(obj, &lv_calendar_header_dropdown_class)) {
 898:lvgl/src/extra/themes/default/lv_theme_default.c ****         lv_obj_add_style(obj, &styles->card, 0);
 899:lvgl/src/extra/themes/default/lv_theme_default.c ****     }
 900:lvgl/src/extra/themes/default/lv_theme_default.c **** #endif
 901:lvgl/src/extra/themes/default/lv_theme_default.c **** 
 902:lvgl/src/extra/themes/default/lv_theme_default.c **** #if LV_USE_KEYBOARD
 903:lvgl/src/extra/themes/default/lv_theme_default.c ****     else if(lv_obj_check_type(obj, &lv_keyboard_class)) {
 904:lvgl/src/extra/themes/default/lv_theme_default.c ****         lv_obj_add_style(obj, &styles->scr, 0);
 905:lvgl/src/extra/themes/default/lv_theme_default.c ****         lv_obj_add_style(obj, disp_size == DISP_LARGE ? &styles->pad_small : &styles->pad_tiny, 0);
 906:lvgl/src/extra/themes/default/lv_theme_default.c ****         lv_obj_add_style(obj, &styles->outline_primary, LV_STATE_FOCUS_KEY);
 907:lvgl/src/extra/themes/default/lv_theme_default.c ****         lv_obj_add_style(obj, &styles->outline_secondary, LV_STATE_EDITED);
 908:lvgl/src/extra/themes/default/lv_theme_default.c ****         lv_obj_add_style(obj, &styles->btn, LV_PART_ITEMS);
 909:lvgl/src/extra/themes/default/lv_theme_default.c ****         lv_obj_add_style(obj, &styles->disabled, LV_PART_ITEMS | LV_STATE_DISABLED);
 910:lvgl/src/extra/themes/default/lv_theme_default.c ****         lv_obj_add_style(obj, &styles->bg_color_white, LV_PART_ITEMS);
 911:lvgl/src/extra/themes/default/lv_theme_default.c ****         lv_obj_add_style(obj, &styles->keyboard_btn_bg, LV_PART_ITEMS);
 912:lvgl/src/extra/themes/default/lv_theme_default.c ****         lv_obj_add_style(obj, &styles->pressed, LV_PART_ITEMS | LV_STATE_PRESSED);
 913:lvgl/src/extra/themes/default/lv_theme_default.c ****         lv_obj_add_style(obj, &styles->bg_color_grey, LV_PART_ITEMS | LV_STATE_CHECKED);
 914:lvgl/src/extra/themes/default/lv_theme_default.c ****         lv_obj_add_style(obj, &styles->bg_color_primary_muted, LV_PART_ITEMS | LV_STATE_FOCUS_KEY);
 915:lvgl/src/extra/themes/default/lv_theme_default.c ****         lv_obj_add_style(obj, &styles->bg_color_secondary_muted, LV_PART_ITEMS | LV_STATE_EDITED);
 916:lvgl/src/extra/themes/default/lv_theme_default.c ****     }
 917:lvgl/src/extra/themes/default/lv_theme_default.c **** #endif
 918:lvgl/src/extra/themes/default/lv_theme_default.c **** #if LV_USE_LIST
 919:lvgl/src/extra/themes/default/lv_theme_default.c ****     else if(lv_obj_check_type(obj, &lv_list_class)) {
 920:lvgl/src/extra/themes/default/lv_theme_default.c ****         lv_obj_add_style(obj, &styles->card, 0);
 921:lvgl/src/extra/themes/default/lv_theme_default.c ****         lv_obj_add_style(obj, &styles->list_bg, 0);
 922:lvgl/src/extra/themes/default/lv_theme_default.c ****         lv_obj_add_style(obj, &styles->scrollbar, LV_PART_SCROLLBAR);
 923:lvgl/src/extra/themes/default/lv_theme_default.c ****         lv_obj_add_style(obj, &styles->scrollbar_scrolled, LV_PART_SCROLLBAR | LV_STATE_SCROLLED);
 924:lvgl/src/extra/themes/default/lv_theme_default.c ****         return;
 925:lvgl/src/extra/themes/default/lv_theme_default.c ****     }
 926:lvgl/src/extra/themes/default/lv_theme_default.c ****     else if(lv_obj_check_type(obj, &lv_list_text_class)) {
 927:lvgl/src/extra/themes/default/lv_theme_default.c ****         lv_obj_add_style(obj, &styles->bg_color_grey, 0);
 928:lvgl/src/extra/themes/default/lv_theme_default.c ****         lv_obj_add_style(obj, &styles->list_item_grow, 0);
 929:lvgl/src/extra/themes/default/lv_theme_default.c ****     }
 930:lvgl/src/extra/themes/default/lv_theme_default.c ****     else if(lv_obj_check_type(obj, &lv_list_btn_class)) {
 931:lvgl/src/extra/themes/default/lv_theme_default.c ****         lv_obj_add_style(obj, &styles->bg_color_white, 0);
 932:lvgl/src/extra/themes/default/lv_theme_default.c ****         lv_obj_add_style(obj, &styles->list_btn, 0);
 933:lvgl/src/extra/themes/default/lv_theme_default.c ****         lv_obj_add_style(obj, &styles->bg_color_primary, LV_STATE_FOCUS_KEY);
 934:lvgl/src/extra/themes/default/lv_theme_default.c ****         lv_obj_add_style(obj, &styles->list_item_grow, LV_STATE_FOCUS_KEY);
 935:lvgl/src/extra/themes/default/lv_theme_default.c ****         lv_obj_add_style(obj, &styles->list_item_grow, LV_STATE_PRESSED);
 936:lvgl/src/extra/themes/default/lv_theme_default.c ****         lv_obj_add_style(obj, &styles->pressed, LV_STATE_PRESSED);
 937:lvgl/src/extra/themes/default/lv_theme_default.c **** 
 938:lvgl/src/extra/themes/default/lv_theme_default.c ****     }
 939:lvgl/src/extra/themes/default/lv_theme_default.c **** #endif
 940:lvgl/src/extra/themes/default/lv_theme_default.c **** #if LV_USE_MSGBOX
 941:lvgl/src/extra/themes/default/lv_theme_default.c ****     else if(lv_obj_check_type(obj, &lv_msgbox_class)) {
 942:lvgl/src/extra/themes/default/lv_theme_default.c ****         lv_obj_add_style(obj, &styles->card, 0);
 943:lvgl/src/extra/themes/default/lv_theme_default.c ****         lv_obj_add_style(obj, &styles->msgbox_bg, 0);
 944:lvgl/src/extra/themes/default/lv_theme_default.c ****         return;
 945:lvgl/src/extra/themes/default/lv_theme_default.c ****     }
 946:lvgl/src/extra/themes/default/lv_theme_default.c **** #endif
 947:lvgl/src/extra/themes/default/lv_theme_default.c **** #if LV_USE_SPINBOX
 948:lvgl/src/extra/themes/default/lv_theme_default.c ****     else if(lv_obj_check_type(obj, &lv_spinbox_class)) {
ARM GAS  /var/folders/k2/cd9bl_j17z77g23y6ffqb_400000gn/T//ccRoPncs.s 			page 19


 949:lvgl/src/extra/themes/default/lv_theme_default.c ****         lv_obj_add_style(obj, &styles->card, 0);
 950:lvgl/src/extra/themes/default/lv_theme_default.c ****         lv_obj_add_style(obj, &styles->pad_small, 0);
 951:lvgl/src/extra/themes/default/lv_theme_default.c ****         lv_obj_add_style(obj, &styles->outline_primary, LV_STATE_FOCUS_KEY);
 952:lvgl/src/extra/themes/default/lv_theme_default.c ****         lv_obj_add_style(obj, &styles->outline_secondary, LV_STATE_EDITED);
 953:lvgl/src/extra/themes/default/lv_theme_default.c ****         lv_obj_add_style(obj, &styles->bg_color_primary, LV_PART_CURSOR);
 954:lvgl/src/extra/themes/default/lv_theme_default.c ****     }
 955:lvgl/src/extra/themes/default/lv_theme_default.c **** #endif
 956:lvgl/src/extra/themes/default/lv_theme_default.c **** #if LV_USE_TILEVIEW
 957:lvgl/src/extra/themes/default/lv_theme_default.c ****     else if(lv_obj_check_type(obj, &lv_tileview_class)) {
 958:lvgl/src/extra/themes/default/lv_theme_default.c ****         lv_obj_add_style(obj, &styles->scr, 0);
 959:lvgl/src/extra/themes/default/lv_theme_default.c ****         lv_obj_add_style(obj, &styles->scrollbar, LV_PART_SCROLLBAR);
 960:lvgl/src/extra/themes/default/lv_theme_default.c ****         lv_obj_add_style(obj, &styles->scrollbar_scrolled, LV_PART_SCROLLBAR | LV_STATE_SCROLLED);
 961:lvgl/src/extra/themes/default/lv_theme_default.c ****     }
 962:lvgl/src/extra/themes/default/lv_theme_default.c ****     else if(lv_obj_check_type(obj, &lv_tileview_tile_class)) {
 963:lvgl/src/extra/themes/default/lv_theme_default.c ****         lv_obj_add_style(obj, &styles->scrollbar, LV_PART_SCROLLBAR);
 964:lvgl/src/extra/themes/default/lv_theme_default.c ****         lv_obj_add_style(obj, &styles->scrollbar_scrolled, LV_PART_SCROLLBAR | LV_STATE_SCROLLED);
 965:lvgl/src/extra/themes/default/lv_theme_default.c ****     }
 966:lvgl/src/extra/themes/default/lv_theme_default.c **** #endif
 967:lvgl/src/extra/themes/default/lv_theme_default.c **** 
 968:lvgl/src/extra/themes/default/lv_theme_default.c **** #if LV_USE_TABVIEW
 969:lvgl/src/extra/themes/default/lv_theme_default.c ****     if(lv_obj_check_type(obj, &lv_tabview_class)) {
 970:lvgl/src/extra/themes/default/lv_theme_default.c ****         lv_obj_add_style(obj, &styles->scr, 0);
 971:lvgl/src/extra/themes/default/lv_theme_default.c ****         lv_obj_add_style(obj, &styles->pad_zero, 0);
 972:lvgl/src/extra/themes/default/lv_theme_default.c ****         return;
 973:lvgl/src/extra/themes/default/lv_theme_default.c ****     }
 974:lvgl/src/extra/themes/default/lv_theme_default.c **** #endif
 975:lvgl/src/extra/themes/default/lv_theme_default.c **** 
 976:lvgl/src/extra/themes/default/lv_theme_default.c **** #if LV_USE_COLORWHEEL
 977:lvgl/src/extra/themes/default/lv_theme_default.c ****     else if(lv_obj_check_type(obj, &lv_colorwheel_class)) {
 978:lvgl/src/extra/themes/default/lv_theme_default.c ****         lv_obj_add_style(obj, &styles->colorwheel_main, 0);
 979:lvgl/src/extra/themes/default/lv_theme_default.c ****         lv_obj_add_style(obj, &styles->pad_normal, 0);
 980:lvgl/src/extra/themes/default/lv_theme_default.c ****         lv_obj_add_style(obj, &styles->bg_color_white, LV_PART_KNOB);
 981:lvgl/src/extra/themes/default/lv_theme_default.c ****         lv_obj_add_style(obj, &styles->pad_normal, LV_PART_KNOB);
 982:lvgl/src/extra/themes/default/lv_theme_default.c ****     }
 983:lvgl/src/extra/themes/default/lv_theme_default.c **** #endif
 984:lvgl/src/extra/themes/default/lv_theme_default.c **** 
 985:lvgl/src/extra/themes/default/lv_theme_default.c **** #if LV_USE_LED
 986:lvgl/src/extra/themes/default/lv_theme_default.c ****     else if(lv_obj_check_type(obj, &lv_led_class)) {
 987:lvgl/src/extra/themes/default/lv_theme_default.c ****             lv_obj_add_style(obj, &styles->led, 0);
 988:lvgl/src/extra/themes/default/lv_theme_default.c ****         }
 989:lvgl/src/extra/themes/default/lv_theme_default.c **** #endif
 990:lvgl/src/extra/themes/default/lv_theme_default.c **** }
  80              		.loc 1 990 1 view .LVU16
  81 002a 70BD     		pop	{r4, r5, r6, pc}
  82              	.LVL8:
  83              	.L42:
 603:lvgl/src/extra/themes/default/lv_theme_default.c ****         lv_obj_add_style(obj, &styles->scrollbar, LV_PART_SCROLLBAR);
  84              		.loc 1 603 9 is_stmt 1 view .LVU17
 603:lvgl/src/extra/themes/default/lv_theme_default.c ****         lv_obj_add_style(obj, &styles->scrollbar, LV_PART_SCROLLBAR);
  85              		.loc 1 603 38 is_stmt 0 view .LVU18
  86 002c A74D     		ldr	r5, .L53+8
 603:lvgl/src/extra/themes/default/lv_theme_default.c ****         lv_obj_add_style(obj, &styles->scrollbar, LV_PART_SCROLLBAR);
  87              		.loc 1 603 9 view .LVU19
  88 002e 0022     		movs	r2, #0
  89 0030 2968     		ldr	r1, [r5]
  90 0032 2046     		mov	r0, r4
  91 0034 FFF7FEFF 		bl	lv_obj_add_style
ARM GAS  /var/folders/k2/cd9bl_j17z77g23y6ffqb_400000gn/T//ccRoPncs.s 			page 20


  92              	.LVL9:
 604:lvgl/src/extra/themes/default/lv_theme_default.c ****         lv_obj_add_style(obj, &styles->scrollbar_scrolled, LV_PART_SCROLLBAR | LV_STATE_SCROLLED);
  93              		.loc 1 604 9 is_stmt 1 view .LVU20
 604:lvgl/src/extra/themes/default/lv_theme_default.c ****         lv_obj_add_style(obj, &styles->scrollbar_scrolled, LV_PART_SCROLLBAR | LV_STATE_SCROLLED);
  94              		.loc 1 604 38 is_stmt 0 view .LVU21
  95 0038 2968     		ldr	r1, [r5]
 604:lvgl/src/extra/themes/default/lv_theme_default.c ****         lv_obj_add_style(obj, &styles->scrollbar_scrolled, LV_PART_SCROLLBAR | LV_STATE_SCROLLED);
  96              		.loc 1 604 9 view .LVU22
  97 003a 4FF48032 		mov	r2, #65536
  98 003e 0831     		adds	r1, r1, #8
  99 0040 2046     		mov	r0, r4
 100 0042 FFF7FEFF 		bl	lv_obj_add_style
 101              	.LVL10:
 605:lvgl/src/extra/themes/default/lv_theme_default.c ****         return;
 102              		.loc 1 605 9 is_stmt 1 view .LVU23
 605:lvgl/src/extra/themes/default/lv_theme_default.c ****         return;
 103              		.loc 1 605 38 is_stmt 0 view .LVU24
 104 0046 2968     		ldr	r1, [r5]
 605:lvgl/src/extra/themes/default/lv_theme_default.c ****         return;
 105              		.loc 1 605 9 view .LVU25
 106 0048 A14A     		ldr	r2, .L53+12
 107 004a 1031     		adds	r1, r1, #16
 108 004c 2046     		mov	r0, r4
 109 004e FFF7FEFF 		bl	lv_obj_add_style
 110              	.LVL11:
 606:lvgl/src/extra/themes/default/lv_theme_default.c ****     }
 111              		.loc 1 606 9 is_stmt 1 view .LVU26
 112 0052 EAE7     		b	.L1
 113              	.LVL12:
 114              	.L43:
 115              	.LBB53:
 617:lvgl/src/extra/themes/default/lv_theme_default.c ****             lv_obj_add_style(obj, &styles->pad_normal, 0);
 116              		.loc 1 617 14 view .LVU27
 617:lvgl/src/extra/themes/default/lv_theme_default.c ****             lv_obj_add_style(obj, &styles->pad_normal, 0);
 117              		.loc 1 617 35 is_stmt 0 view .LVU28
 118 0054 2846     		mov	r0, r5
 119 0056 FFF7FEFF 		bl	lv_obj_get_parent
 120              	.LVL13:
 617:lvgl/src/extra/themes/default/lv_theme_default.c ****             lv_obj_add_style(obj, &styles->pad_normal, 0);
 121              		.loc 1 617 17 view .LVU29
 122 005a 9B49     		ldr	r1, .L53+4
 123 005c FFF7FEFF 		bl	lv_obj_check_type
 124              	.LVL14:
 617:lvgl/src/extra/themes/default/lv_theme_default.c ****             lv_obj_add_style(obj, &styles->pad_normal, 0);
 125              		.loc 1 617 16 view .LVU30
 126 0060 20BB     		cbnz	r0, .L44
 627:lvgl/src/extra/themes/default/lv_theme_default.c ****             lv_obj_add_style(obj, &styles->bg_color_grey, 0);
 127              		.loc 1 627 9 is_stmt 1 view .LVU31
 627:lvgl/src/extra/themes/default/lv_theme_default.c ****             lv_obj_add_style(obj, &styles->bg_color_grey, 0);
 128              		.loc 1 627 12 is_stmt 0 view .LVU32
 129 0062 2046     		mov	r0, r4
 130 0064 FFF7FEFF 		bl	lv_obj_get_child_id
 131              	.LVL15:
 627:lvgl/src/extra/themes/default/lv_theme_default.c ****             lv_obj_add_style(obj, &styles->bg_color_grey, 0);
 132              		.loc 1 627 11 view .LVU33
 133 0068 30B9     		cbnz	r0, .L6
 627:lvgl/src/extra/themes/default/lv_theme_default.c ****             lv_obj_add_style(obj, &styles->bg_color_grey, 0);
ARM GAS  /var/folders/k2/cd9bl_j17z77g23y6ffqb_400000gn/T//ccRoPncs.s 			page 21


 134              		.loc 1 627 63 discriminator 1 view .LVU34
 135 006a 2046     		mov	r0, r4
 136 006c FFF7FEFF 		bl	lv_obj_get_parent
 137              	.LVL16:
 627:lvgl/src/extra/themes/default/lv_theme_default.c ****             lv_obj_add_style(obj, &styles->bg_color_grey, 0);
 138              		.loc 1 627 45 discriminator 1 view .LVU35
 139 0070 9849     		ldr	r1, .L53+16
 140 0072 FFF7FEFF 		bl	lv_obj_check_type
 141              	.LVL17:
 627:lvgl/src/extra/themes/default/lv_theme_default.c ****             lv_obj_add_style(obj, &styles->bg_color_grey, 0);
 142              		.loc 1 627 42 discriminator 1 view .LVU36
 143 0076 70BB     		cbnz	r0, .L45
 144              	.L6:
 633:lvgl/src/extra/themes/default/lv_theme_default.c ****             lv_obj_add_style(obj, &styles->scr, 0);
 145              		.loc 1 633 14 is_stmt 1 view .LVU37
 633:lvgl/src/extra/themes/default/lv_theme_default.c ****             lv_obj_add_style(obj, &styles->scr, 0);
 146              		.loc 1 633 17 is_stmt 0 view .LVU38
 147 0078 2046     		mov	r0, r4
 148 007a FFF7FEFF 		bl	lv_obj_get_child_id
 149              	.LVL18:
 633:lvgl/src/extra/themes/default/lv_theme_default.c ****             lv_obj_add_style(obj, &styles->scr, 0);
 150              		.loc 1 633 16 view .LVU39
 151 007e 0128     		cmp	r0, #1
 152 0080 37D0     		beq	.L46
 153              	.L7:
 641:lvgl/src/extra/themes/default/lv_theme_default.c ****         lv_obj_add_style(obj, &styles->scrollbar, LV_PART_SCROLLBAR);
 154              		.loc 1 641 9 is_stmt 1 view .LVU40
 641:lvgl/src/extra/themes/default/lv_theme_default.c ****         lv_obj_add_style(obj, &styles->scrollbar, LV_PART_SCROLLBAR);
 155              		.loc 1 641 38 is_stmt 0 view .LVU41
 156 0082 924D     		ldr	r5, .L53+8
 157              	.LVL19:
 641:lvgl/src/extra/themes/default/lv_theme_default.c ****         lv_obj_add_style(obj, &styles->scrollbar, LV_PART_SCROLLBAR);
 158              		.loc 1 641 38 view .LVU42
 159 0084 2968     		ldr	r1, [r5]
 641:lvgl/src/extra/themes/default/lv_theme_default.c ****         lv_obj_add_style(obj, &styles->scrollbar, LV_PART_SCROLLBAR);
 160              		.loc 1 641 9 view .LVU43
 161 0086 0022     		movs	r2, #0
 162 0088 1831     		adds	r1, r1, #24
 163 008a 2046     		mov	r0, r4
 164 008c FFF7FEFF 		bl	lv_obj_add_style
 165              	.LVL20:
 642:lvgl/src/extra/themes/default/lv_theme_default.c ****         lv_obj_add_style(obj, &styles->scrollbar_scrolled, LV_PART_SCROLLBAR | LV_STATE_SCROLLED);
 166              		.loc 1 642 9 is_stmt 1 view .LVU44
 642:lvgl/src/extra/themes/default/lv_theme_default.c ****         lv_obj_add_style(obj, &styles->scrollbar_scrolled, LV_PART_SCROLLBAR | LV_STATE_SCROLLED);
 167              		.loc 1 642 38 is_stmt 0 view .LVU45
 168 0090 2968     		ldr	r1, [r5]
 642:lvgl/src/extra/themes/default/lv_theme_default.c ****         lv_obj_add_style(obj, &styles->scrollbar_scrolled, LV_PART_SCROLLBAR | LV_STATE_SCROLLED);
 169              		.loc 1 642 9 view .LVU46
 170 0092 4FF48032 		mov	r2, #65536
 171 0096 0831     		adds	r1, r1, #8
 172 0098 2046     		mov	r0, r4
 173 009a FFF7FEFF 		bl	lv_obj_add_style
 174              	.LVL21:
 643:lvgl/src/extra/themes/default/lv_theme_default.c ****     }
 175              		.loc 1 643 9 is_stmt 1 view .LVU47
 643:lvgl/src/extra/themes/default/lv_theme_default.c ****     }
 176              		.loc 1 643 38 is_stmt 0 view .LVU48
ARM GAS  /var/folders/k2/cd9bl_j17z77g23y6ffqb_400000gn/T//ccRoPncs.s 			page 22


 177 009e 2968     		ldr	r1, [r5]
 643:lvgl/src/extra/themes/default/lv_theme_default.c ****     }
 178              		.loc 1 643 9 view .LVU49
 179 00a0 8B4A     		ldr	r2, .L53+12
 180 00a2 1031     		adds	r1, r1, #16
 181 00a4 2046     		mov	r0, r4
 182 00a6 FFF7FEFF 		bl	lv_obj_add_style
 183              	.LVL22:
 184              	.LBE53:
 185 00aa 81E0     		b	.L8
 186              	.LVL23:
 187              	.L44:
 188              	.LBB54:
 618:lvgl/src/extra/themes/default/lv_theme_default.c ****             lv_obj_add_style(obj, &styles->scrollbar, LV_PART_SCROLLBAR);
 189              		.loc 1 618 13 is_stmt 1 view .LVU50
 618:lvgl/src/extra/themes/default/lv_theme_default.c ****             lv_obj_add_style(obj, &styles->scrollbar, LV_PART_SCROLLBAR);
 190              		.loc 1 618 42 is_stmt 0 view .LVU51
 191 00ac 874D     		ldr	r5, .L53+8
 192              	.LVL24:
 618:lvgl/src/extra/themes/default/lv_theme_default.c ****             lv_obj_add_style(obj, &styles->scrollbar, LV_PART_SCROLLBAR);
 193              		.loc 1 618 42 view .LVU52
 194 00ae 2968     		ldr	r1, [r5]
 618:lvgl/src/extra/themes/default/lv_theme_default.c ****             lv_obj_add_style(obj, &styles->scrollbar, LV_PART_SCROLLBAR);
 195              		.loc 1 618 13 view .LVU53
 196 00b0 0022     		movs	r2, #0
 197 00b2 8031     		adds	r1, r1, #128
 198 00b4 2046     		mov	r0, r4
 199 00b6 FFF7FEFF 		bl	lv_obj_add_style
 200              	.LVL25:
 619:lvgl/src/extra/themes/default/lv_theme_default.c ****             lv_obj_add_style(obj, &styles->scrollbar_scrolled, LV_PART_SCROLLBAR | LV_STATE_SCROLLE
 201              		.loc 1 619 13 is_stmt 1 view .LVU54
 619:lvgl/src/extra/themes/default/lv_theme_default.c ****             lv_obj_add_style(obj, &styles->scrollbar_scrolled, LV_PART_SCROLLBAR | LV_STATE_SCROLLE
 202              		.loc 1 619 42 is_stmt 0 view .LVU55
 203 00ba 2968     		ldr	r1, [r5]
 619:lvgl/src/extra/themes/default/lv_theme_default.c ****             lv_obj_add_style(obj, &styles->scrollbar_scrolled, LV_PART_SCROLLBAR | LV_STATE_SCROLLE
 204              		.loc 1 619 13 view .LVU56
 205 00bc 4FF48032 		mov	r2, #65536
 206 00c0 0831     		adds	r1, r1, #8
 207 00c2 2046     		mov	r0, r4
 208 00c4 FFF7FEFF 		bl	lv_obj_add_style
 209              	.LVL26:
 620:lvgl/src/extra/themes/default/lv_theme_default.c ****             return;
 210              		.loc 1 620 13 is_stmt 1 view .LVU57
 620:lvgl/src/extra/themes/default/lv_theme_default.c ****             return;
 211              		.loc 1 620 42 is_stmt 0 view .LVU58
 212 00c8 2968     		ldr	r1, [r5]
 620:lvgl/src/extra/themes/default/lv_theme_default.c ****             return;
 213              		.loc 1 620 13 view .LVU59
 214 00ca 814A     		ldr	r2, .L53+12
 215 00cc 1031     		adds	r1, r1, #16
 216 00ce 2046     		mov	r0, r4
 217 00d0 FFF7FEFF 		bl	lv_obj_add_style
 218              	.LVL27:
 621:lvgl/src/extra/themes/default/lv_theme_default.c ****         }
 219              		.loc 1 621 13 is_stmt 1 view .LVU60
 220 00d4 A9E7     		b	.L1
 221              	.LVL28:
ARM GAS  /var/folders/k2/cd9bl_j17z77g23y6ffqb_400000gn/T//ccRoPncs.s 			page 23


 222              	.L45:
 628:lvgl/src/extra/themes/default/lv_theme_default.c ****             lv_obj_add_style(obj, &styles->pad_tiny, 0);
 223              		.loc 1 628 13 view .LVU61
 628:lvgl/src/extra/themes/default/lv_theme_default.c ****             lv_obj_add_style(obj, &styles->pad_tiny, 0);
 224              		.loc 1 628 42 is_stmt 0 view .LVU62
 225 00d6 7D4D     		ldr	r5, .L53+8
 226              	.LVL29:
 628:lvgl/src/extra/themes/default/lv_theme_default.c ****             lv_obj_add_style(obj, &styles->pad_tiny, 0);
 227              		.loc 1 628 42 view .LVU63
 228 00d8 2968     		ldr	r1, [r5]
 628:lvgl/src/extra/themes/default/lv_theme_default.c ****             lv_obj_add_style(obj, &styles->pad_tiny, 0);
 229              		.loc 1 628 13 view .LVU64
 230 00da 0022     		movs	r2, #0
 231 00dc 4831     		adds	r1, r1, #72
 232 00de 2046     		mov	r0, r4
 233 00e0 FFF7FEFF 		bl	lv_obj_add_style
 234              	.LVL30:
 629:lvgl/src/extra/themes/default/lv_theme_default.c ****             return;
 235              		.loc 1 629 13 is_stmt 1 view .LVU65
 629:lvgl/src/extra/themes/default/lv_theme_default.c ****             return;
 236              		.loc 1 629 42 is_stmt 0 view .LVU66
 237 00e4 2968     		ldr	r1, [r5]
 629:lvgl/src/extra/themes/default/lv_theme_default.c ****             return;
 238              		.loc 1 629 13 view .LVU67
 239 00e6 0022     		movs	r2, #0
 240 00e8 7031     		adds	r1, r1, #112
 241 00ea 2046     		mov	r0, r4
 242 00ec FFF7FEFF 		bl	lv_obj_add_style
 243              	.LVL31:
 630:lvgl/src/extra/themes/default/lv_theme_default.c ****         }
 244              		.loc 1 630 13 is_stmt 1 view .LVU68
 245 00f0 9BE7     		b	.L1
 246              	.LVL32:
 247              	.L46:
 633:lvgl/src/extra/themes/default/lv_theme_default.c ****             lv_obj_add_style(obj, &styles->scr, 0);
 248              		.loc 1 633 68 is_stmt 0 discriminator 1 view .LVU69
 249 00f2 2046     		mov	r0, r4
 250 00f4 FFF7FEFF 		bl	lv_obj_get_parent
 251              	.LVL33:
 633:lvgl/src/extra/themes/default/lv_theme_default.c ****             lv_obj_add_style(obj, &styles->scr, 0);
 252              		.loc 1 633 50 discriminator 1 view .LVU70
 253 00f8 7649     		ldr	r1, .L53+16
 254 00fa FFF7FEFF 		bl	lv_obj_check_type
 255              	.LVL34:
 633:lvgl/src/extra/themes/default/lv_theme_default.c ****             lv_obj_add_style(obj, &styles->scr, 0);
 256              		.loc 1 633 47 discriminator 1 view .LVU71
 257 00fe 0028     		cmp	r0, #0
 258 0100 BFD0     		beq	.L7
 634:lvgl/src/extra/themes/default/lv_theme_default.c ****             lv_obj_add_style(obj, &styles->pad_normal, 0);
 259              		.loc 1 634 13 is_stmt 1 view .LVU72
 634:lvgl/src/extra/themes/default/lv_theme_default.c ****             lv_obj_add_style(obj, &styles->pad_normal, 0);
 260              		.loc 1 634 42 is_stmt 0 view .LVU73
 261 0102 724D     		ldr	r5, .L53+8
 262              	.LVL35:
 634:lvgl/src/extra/themes/default/lv_theme_default.c ****             lv_obj_add_style(obj, &styles->pad_normal, 0);
 263              		.loc 1 634 13 view .LVU74
 264 0104 0022     		movs	r2, #0
ARM GAS  /var/folders/k2/cd9bl_j17z77g23y6ffqb_400000gn/T//ccRoPncs.s 			page 24


 265 0106 2968     		ldr	r1, [r5]
 266 0108 2046     		mov	r0, r4
 267 010a FFF7FEFF 		bl	lv_obj_add_style
 268              	.LVL36:
 635:lvgl/src/extra/themes/default/lv_theme_default.c ****             lv_obj_add_style(obj, &styles->scrollbar, LV_PART_SCROLLBAR);
 269              		.loc 1 635 13 is_stmt 1 view .LVU75
 635:lvgl/src/extra/themes/default/lv_theme_default.c ****             lv_obj_add_style(obj, &styles->scrollbar, LV_PART_SCROLLBAR);
 270              		.loc 1 635 42 is_stmt 0 view .LVU76
 271 010e 2968     		ldr	r1, [r5]
 635:lvgl/src/extra/themes/default/lv_theme_default.c ****             lv_obj_add_style(obj, &styles->scrollbar, LV_PART_SCROLLBAR);
 272              		.loc 1 635 13 view .LVU77
 273 0110 0022     		movs	r2, #0
 274 0112 8031     		adds	r1, r1, #128
 275 0114 2046     		mov	r0, r4
 276 0116 FFF7FEFF 		bl	lv_obj_add_style
 277              	.LVL37:
 636:lvgl/src/extra/themes/default/lv_theme_default.c ****             lv_obj_add_style(obj, &styles->scrollbar_scrolled, LV_PART_SCROLLBAR | LV_STATE_SCROLLE
 278              		.loc 1 636 13 is_stmt 1 view .LVU78
 636:lvgl/src/extra/themes/default/lv_theme_default.c ****             lv_obj_add_style(obj, &styles->scrollbar_scrolled, LV_PART_SCROLLBAR | LV_STATE_SCROLLE
 279              		.loc 1 636 42 is_stmt 0 view .LVU79
 280 011a 2968     		ldr	r1, [r5]
 636:lvgl/src/extra/themes/default/lv_theme_default.c ****             lv_obj_add_style(obj, &styles->scrollbar_scrolled, LV_PART_SCROLLBAR | LV_STATE_SCROLLE
 281              		.loc 1 636 13 view .LVU80
 282 011c 4FF48032 		mov	r2, #65536
 283 0120 0831     		adds	r1, r1, #8
 284 0122 2046     		mov	r0, r4
 285 0124 FFF7FEFF 		bl	lv_obj_add_style
 286              	.LVL38:
 637:lvgl/src/extra/themes/default/lv_theme_default.c ****             return;
 287              		.loc 1 637 13 is_stmt 1 view .LVU81
 637:lvgl/src/extra/themes/default/lv_theme_default.c ****             return;
 288              		.loc 1 637 42 is_stmt 0 view .LVU82
 289 0128 2968     		ldr	r1, [r5]
 637:lvgl/src/extra/themes/default/lv_theme_default.c ****             return;
 290              		.loc 1 637 13 view .LVU83
 291 012a 694A     		ldr	r2, .L53+12
 292 012c 1031     		adds	r1, r1, #16
 293 012e 2046     		mov	r0, r4
 294 0130 FFF7FEFF 		bl	lv_obj_add_style
 295              	.LVL39:
 638:lvgl/src/extra/themes/default/lv_theme_default.c ****         }
 296              		.loc 1 638 13 is_stmt 1 view .LVU84
 297 0134 79E7     		b	.L1
 298              	.L4:
 638:lvgl/src/extra/themes/default/lv_theme_default.c ****         }
 299              		.loc 1 638 13 is_stmt 0 view .LVU85
 300              	.LBE54:
 646:lvgl/src/extra/themes/default/lv_theme_default.c ****         lv_obj_add_style(obj, &styles->btn, 0);
 301              		.loc 1 646 10 is_stmt 1 view .LVU86
 646:lvgl/src/extra/themes/default/lv_theme_default.c ****         lv_obj_add_style(obj, &styles->btn, 0);
 302              		.loc 1 646 13 is_stmt 0 view .LVU87
 303 0136 6849     		ldr	r1, .L53+20
 304 0138 2046     		mov	r0, r4
 305 013a FFF7FEFF 		bl	lv_obj_check_type
 306              	.LVL40:
 646:lvgl/src/extra/themes/default/lv_theme_default.c ****         lv_obj_add_style(obj, &styles->btn, 0);
 307              		.loc 1 646 12 view .LVU88
ARM GAS  /var/folders/k2/cd9bl_j17z77g23y6ffqb_400000gn/T//ccRoPncs.s 			page 25


 308 013e 0028     		cmp	r0, #0
 309 0140 61D0     		beq	.L9
 647:lvgl/src/extra/themes/default/lv_theme_default.c ****         lv_obj_add_style(obj, &styles->bg_color_primary, 0);
 310              		.loc 1 647 9 is_stmt 1 view .LVU89
 647:lvgl/src/extra/themes/default/lv_theme_default.c ****         lv_obj_add_style(obj, &styles->bg_color_primary, 0);
 311              		.loc 1 647 38 is_stmt 0 view .LVU90
 312 0142 624D     		ldr	r5, .L53+8
 313 0144 2968     		ldr	r1, [r5]
 647:lvgl/src/extra/themes/default/lv_theme_default.c ****         lv_obj_add_style(obj, &styles->bg_color_primary, 0);
 314              		.loc 1 647 9 view .LVU91
 315 0146 0022     		movs	r2, #0
 316 0148 2031     		adds	r1, r1, #32
 317 014a 2046     		mov	r0, r4
 318 014c FFF7FEFF 		bl	lv_obj_add_style
 319              	.LVL41:
 648:lvgl/src/extra/themes/default/lv_theme_default.c ****         lv_obj_add_style(obj, &styles->transition_delayed, 0);
 320              		.loc 1 648 9 is_stmt 1 view .LVU92
 648:lvgl/src/extra/themes/default/lv_theme_default.c ****         lv_obj_add_style(obj, &styles->transition_delayed, 0);
 321              		.loc 1 648 38 is_stmt 0 view .LVU93
 322 0150 2968     		ldr	r1, [r5]
 648:lvgl/src/extra/themes/default/lv_theme_default.c ****         lv_obj_add_style(obj, &styles->transition_delayed, 0);
 323              		.loc 1 648 9 view .LVU94
 324 0152 0022     		movs	r2, #0
 325 0154 2831     		adds	r1, r1, #40
 326 0156 2046     		mov	r0, r4
 327 0158 FFF7FEFF 		bl	lv_obj_add_style
 328              	.LVL42:
 649:lvgl/src/extra/themes/default/lv_theme_default.c ****         lv_obj_add_style(obj, &styles->pressed, LV_STATE_PRESSED);
 329              		.loc 1 649 9 is_stmt 1 view .LVU95
 649:lvgl/src/extra/themes/default/lv_theme_default.c ****         lv_obj_add_style(obj, &styles->pressed, LV_STATE_PRESSED);
 330              		.loc 1 649 38 is_stmt 0 view .LVU96
 331 015c 2968     		ldr	r1, [r5]
 649:lvgl/src/extra/themes/default/lv_theme_default.c ****         lv_obj_add_style(obj, &styles->pressed, LV_STATE_PRESSED);
 332              		.loc 1 649 9 view .LVU97
 333 015e 0022     		movs	r2, #0
 334 0160 D031     		adds	r1, r1, #208
 335 0162 2046     		mov	r0, r4
 336 0164 FFF7FEFF 		bl	lv_obj_add_style
 337              	.LVL43:
 650:lvgl/src/extra/themes/default/lv_theme_default.c ****         lv_obj_add_style(obj, &styles->transition_normal, LV_STATE_PRESSED);
 338              		.loc 1 650 9 is_stmt 1 view .LVU98
 650:lvgl/src/extra/themes/default/lv_theme_default.c ****         lv_obj_add_style(obj, &styles->transition_normal, LV_STATE_PRESSED);
 339              		.loc 1 650 38 is_stmt 0 view .LVU99
 340 0168 2968     		ldr	r1, [r5]
 650:lvgl/src/extra/themes/default/lv_theme_default.c ****         lv_obj_add_style(obj, &styles->transition_normal, LV_STATE_PRESSED);
 341              		.loc 1 650 9 view .LVU100
 342 016a 2022     		movs	r2, #32
 343 016c 5831     		adds	r1, r1, #88
 344 016e 2046     		mov	r0, r4
 345 0170 FFF7FEFF 		bl	lv_obj_add_style
 346              	.LVL44:
 651:lvgl/src/extra/themes/default/lv_theme_default.c ****         lv_obj_add_style(obj, &styles->outline_primary, LV_STATE_FOCUS_KEY);
 347              		.loc 1 651 9 is_stmt 1 view .LVU101
 651:lvgl/src/extra/themes/default/lv_theme_default.c ****         lv_obj_add_style(obj, &styles->outline_primary, LV_STATE_FOCUS_KEY);
 348              		.loc 1 651 38 is_stmt 0 view .LVU102
 349 0174 2968     		ldr	r1, [r5]
 651:lvgl/src/extra/themes/default/lv_theme_default.c ****         lv_obj_add_style(obj, &styles->outline_primary, LV_STATE_FOCUS_KEY);
ARM GAS  /var/folders/k2/cd9bl_j17z77g23y6ffqb_400000gn/T//ccRoPncs.s 			page 26


 350              		.loc 1 651 9 view .LVU103
 351 0176 2022     		movs	r2, #32
 352 0178 D831     		adds	r1, r1, #216
 353 017a 2046     		mov	r0, r4
 354 017c FFF7FEFF 		bl	lv_obj_add_style
 355              	.LVL45:
 652:lvgl/src/extra/themes/default/lv_theme_default.c **** #if LV_THEME_DEFAULT_GROW
 356              		.loc 1 652 9 is_stmt 1 view .LVU104
 652:lvgl/src/extra/themes/default/lv_theme_default.c **** #if LV_THEME_DEFAULT_GROW
 357              		.loc 1 652 38 is_stmt 0 view .LVU105
 358 0180 2968     		ldr	r1, [r5]
 652:lvgl/src/extra/themes/default/lv_theme_default.c **** #if LV_THEME_DEFAULT_GROW
 359              		.loc 1 652 9 view .LVU106
 360 0182 0422     		movs	r2, #4
 361 0184 A031     		adds	r1, r1, #160
 362 0186 2046     		mov	r0, r4
 363 0188 FFF7FEFF 		bl	lv_obj_add_style
 364              	.LVL46:
 654:lvgl/src/extra/themes/default/lv_theme_default.c **** #endif
 365              		.loc 1 654 9 is_stmt 1 view .LVU107
 654:lvgl/src/extra/themes/default/lv_theme_default.c **** #endif
 366              		.loc 1 654 38 is_stmt 0 view .LVU108
 367 018c 2968     		ldr	r1, [r5]
 654:lvgl/src/extra/themes/default/lv_theme_default.c **** #endif
 368              		.loc 1 654 9 view .LVU109
 369 018e 2022     		movs	r2, #32
 370 0190 C831     		adds	r1, r1, #200
 371 0192 2046     		mov	r0, r4
 372 0194 FFF7FEFF 		bl	lv_obj_add_style
 373              	.LVL47:
 656:lvgl/src/extra/themes/default/lv_theme_default.c ****         lv_obj_add_style(obj, &styles->disabled, LV_STATE_DISABLED);
 374              		.loc 1 656 9 is_stmt 1 view .LVU110
 656:lvgl/src/extra/themes/default/lv_theme_default.c ****         lv_obj_add_style(obj, &styles->disabled, LV_STATE_DISABLED);
 375              		.loc 1 656 38 is_stmt 0 view .LVU111
 376 0198 2968     		ldr	r1, [r5]
 656:lvgl/src/extra/themes/default/lv_theme_default.c ****         lv_obj_add_style(obj, &styles->disabled, LV_STATE_DISABLED);
 377              		.loc 1 656 9 view .LVU112
 378 019a 0122     		movs	r2, #1
 379 019c 3831     		adds	r1, r1, #56
 380 019e 2046     		mov	r0, r4
 381 01a0 FFF7FEFF 		bl	lv_obj_add_style
 382              	.LVL48:
 657:lvgl/src/extra/themes/default/lv_theme_default.c ****     }
 383              		.loc 1 657 9 is_stmt 1 view .LVU113
 657:lvgl/src/extra/themes/default/lv_theme_default.c ****     }
 384              		.loc 1 657 38 is_stmt 0 view .LVU114
 385 01a4 2968     		ldr	r1, [r5]
 657:lvgl/src/extra/themes/default/lv_theme_default.c ****     }
 386              		.loc 1 657 9 view .LVU115
 387 01a6 8022     		movs	r2, #128
 388 01a8 6031     		adds	r1, r1, #96
 389 01aa 2046     		mov	r0, r4
 390 01ac FFF7FEFF 		bl	lv_obj_add_style
 391              	.LVL49:
 392              	.L8:
 969:lvgl/src/extra/themes/default/lv_theme_default.c ****         lv_obj_add_style(obj, &styles->scr, 0);
 393              		.loc 1 969 5 is_stmt 1 view .LVU116
ARM GAS  /var/folders/k2/cd9bl_j17z77g23y6ffqb_400000gn/T//ccRoPncs.s 			page 27


 969:lvgl/src/extra/themes/default/lv_theme_default.c ****         lv_obj_add_style(obj, &styles->scr, 0);
 394              		.loc 1 969 8 is_stmt 0 view .LVU117
 395 01b0 4549     		ldr	r1, .L53+4
 396 01b2 2046     		mov	r0, r4
 397 01b4 FFF7FEFF 		bl	lv_obj_check_type
 398              	.LVL50:
 969:lvgl/src/extra/themes/default/lv_theme_default.c ****         lv_obj_add_style(obj, &styles->scr, 0);
 399              		.loc 1 969 7 view .LVU118
 400 01b8 0028     		cmp	r0, #0
 401 01ba 40F0F485 		bne	.L47
 977:lvgl/src/extra/themes/default/lv_theme_default.c ****         lv_obj_add_style(obj, &styles->colorwheel_main, 0);
 402              		.loc 1 977 10 is_stmt 1 view .LVU119
 977:lvgl/src/extra/themes/default/lv_theme_default.c ****         lv_obj_add_style(obj, &styles->colorwheel_main, 0);
 403              		.loc 1 977 13 is_stmt 0 view .LVU120
 404 01be 4749     		ldr	r1, .L53+24
 405 01c0 2046     		mov	r0, r4
 406 01c2 FFF7FEFF 		bl	lv_obj_check_type
 407              	.LVL51:
 977:lvgl/src/extra/themes/default/lv_theme_default.c ****         lv_obj_add_style(obj, &styles->colorwheel_main, 0);
 408              		.loc 1 977 12 view .LVU121
 409 01c6 0028     		cmp	r0, #0
 410 01c8 00F0FB85 		beq	.L40
 978:lvgl/src/extra/themes/default/lv_theme_default.c ****         lv_obj_add_style(obj, &styles->pad_normal, 0);
 411              		.loc 1 978 9 is_stmt 1 view .LVU122
 978:lvgl/src/extra/themes/default/lv_theme_default.c ****         lv_obj_add_style(obj, &styles->pad_normal, 0);
 412              		.loc 1 978 38 is_stmt 0 view .LVU123
 413 01cc 3F4D     		ldr	r5, .L53+8
 414 01ce 2968     		ldr	r1, [r5]
 978:lvgl/src/extra/themes/default/lv_theme_default.c ****         lv_obj_add_style(obj, &styles->pad_normal, 0);
 415              		.loc 1 978 9 view .LVU124
 416 01d0 0022     		movs	r2, #0
 417 01d2 01F5C471 		add	r1, r1, #392
 418 01d6 2046     		mov	r0, r4
 419 01d8 FFF7FEFF 		bl	lv_obj_add_style
 420              	.LVL52:
 979:lvgl/src/extra/themes/default/lv_theme_default.c ****         lv_obj_add_style(obj, &styles->bg_color_white, LV_PART_KNOB);
 421              		.loc 1 979 9 is_stmt 1 view .LVU125
 979:lvgl/src/extra/themes/default/lv_theme_default.c ****         lv_obj_add_style(obj, &styles->bg_color_white, LV_PART_KNOB);
 422              		.loc 1 979 38 is_stmt 0 view .LVU126
 423 01dc 2968     		ldr	r1, [r5]
 979:lvgl/src/extra/themes/default/lv_theme_default.c ****         lv_obj_add_style(obj, &styles->bg_color_white, LV_PART_KNOB);
 424              		.loc 1 979 9 view .LVU127
 425 01de 0022     		movs	r2, #0
 426 01e0 8031     		adds	r1, r1, #128
 427 01e2 2046     		mov	r0, r4
 428 01e4 FFF7FEFF 		bl	lv_obj_add_style
 429              	.LVL53:
 980:lvgl/src/extra/themes/default/lv_theme_default.c ****         lv_obj_add_style(obj, &styles->pad_normal, LV_PART_KNOB);
 430              		.loc 1 980 9 is_stmt 1 view .LVU128
 980:lvgl/src/extra/themes/default/lv_theme_default.c ****         lv_obj_add_style(obj, &styles->pad_normal, LV_PART_KNOB);
 431              		.loc 1 980 38 is_stmt 0 view .LVU129
 432 01e8 2968     		ldr	r1, [r5]
 980:lvgl/src/extra/themes/default/lv_theme_default.c ****         lv_obj_add_style(obj, &styles->pad_normal, LV_PART_KNOB);
 433              		.loc 1 980 9 view .LVU130
 434 01ea 4FF44032 		mov	r2, #196608
 435 01ee 5031     		adds	r1, r1, #80
 436 01f0 2046     		mov	r0, r4
ARM GAS  /var/folders/k2/cd9bl_j17z77g23y6ffqb_400000gn/T//ccRoPncs.s 			page 28


 437 01f2 FFF7FEFF 		bl	lv_obj_add_style
 438              	.LVL54:
 981:lvgl/src/extra/themes/default/lv_theme_default.c ****     }
 439              		.loc 1 981 9 is_stmt 1 view .LVU131
 981:lvgl/src/extra/themes/default/lv_theme_default.c ****     }
 440              		.loc 1 981 38 is_stmt 0 view .LVU132
 441 01f6 2968     		ldr	r1, [r5]
 981:lvgl/src/extra/themes/default/lv_theme_default.c ****     }
 442              		.loc 1 981 9 view .LVU133
 443 01f8 4FF44032 		mov	r2, #196608
 444 01fc 8031     		adds	r1, r1, #128
 445 01fe 2046     		mov	r0, r4
 446 0200 FFF7FEFF 		bl	lv_obj_add_style
 447              	.LVL55:
 448 0204 11E7     		b	.L1
 449              	.L9:
 662:lvgl/src/extra/themes/default/lv_theme_default.c ****         lv_obj_add_style(obj, &styles->line, 0);
 450              		.loc 1 662 10 is_stmt 1 view .LVU134
 662:lvgl/src/extra/themes/default/lv_theme_default.c ****         lv_obj_add_style(obj, &styles->line, 0);
 451              		.loc 1 662 13 is_stmt 0 view .LVU135
 452 0206 3649     		ldr	r1, .L53+28
 453 0208 2046     		mov	r0, r4
 454 020a FFF7FEFF 		bl	lv_obj_check_type
 455              	.LVL56:
 662:lvgl/src/extra/themes/default/lv_theme_default.c ****         lv_obj_add_style(obj, &styles->line, 0);
 456              		.loc 1 662 12 view .LVU136
 457 020e 40B1     		cbz	r0, .L10
 663:lvgl/src/extra/themes/default/lv_theme_default.c ****     }
 458              		.loc 1 663 9 is_stmt 1 view .LVU137
 663:lvgl/src/extra/themes/default/lv_theme_default.c ****     }
 459              		.loc 1 663 38 is_stmt 0 view .LVU138
 460 0210 2E4B     		ldr	r3, .L53+8
 461 0212 1968     		ldr	r1, [r3]
 663:lvgl/src/extra/themes/default/lv_theme_default.c ****     }
 462              		.loc 1 663 9 view .LVU139
 463 0214 0022     		movs	r2, #0
 464 0216 01F5A471 		add	r1, r1, #328
 465 021a 2046     		mov	r0, r4
 466 021c FFF7FEFF 		bl	lv_obj_add_style
 467              	.LVL57:
 468 0220 C6E7     		b	.L8
 469              	.L10:
 668:lvgl/src/extra/themes/default/lv_theme_default.c **** #if LV_USE_MSGBOX
 470              		.loc 1 668 10 is_stmt 1 view .LVU140
 668:lvgl/src/extra/themes/default/lv_theme_default.c **** #if LV_USE_MSGBOX
 471              		.loc 1 668 13 is_stmt 0 view .LVU141
 472 0222 3049     		ldr	r1, .L53+32
 473 0224 2046     		mov	r0, r4
 474 0226 FFF7FEFF 		bl	lv_obj_check_type
 475              	.LVL58:
 668:lvgl/src/extra/themes/default/lv_theme_default.c **** #if LV_USE_MSGBOX
 476              		.loc 1 668 12 view .LVU142
 477 022a 0028     		cmp	r0, #0
 478 022c 00F0D980 		beq	.L11
 670:lvgl/src/extra/themes/default/lv_theme_default.c ****             lv_obj_add_style(obj, &styles->msgbox_btn_bg, 0);
 479              		.loc 1 670 9 is_stmt 1 view .LVU143
 670:lvgl/src/extra/themes/default/lv_theme_default.c ****             lv_obj_add_style(obj, &styles->msgbox_btn_bg, 0);
ARM GAS  /var/folders/k2/cd9bl_j17z77g23y6ffqb_400000gn/T//ccRoPncs.s 			page 29


 480              		.loc 1 670 30 is_stmt 0 view .LVU144
 481 0230 2046     		mov	r0, r4
 482 0232 FFF7FEFF 		bl	lv_obj_get_parent
 483              	.LVL59:
 670:lvgl/src/extra/themes/default/lv_theme_default.c ****             lv_obj_add_style(obj, &styles->msgbox_btn_bg, 0);
 484              		.loc 1 670 12 view .LVU145
 485 0236 2C49     		ldr	r1, .L53+36
 486 0238 FFF7FEFF 		bl	lv_obj_check_type
 487              	.LVL60:
 670:lvgl/src/extra/themes/default/lv_theme_default.c ****             lv_obj_add_style(obj, &styles->msgbox_btn_bg, 0);
 488              		.loc 1 670 11 view .LVU146
 489 023c 0028     		cmp	r0, #0
 490 023e 5FD1     		bne	.L48
 683:lvgl/src/extra/themes/default/lv_theme_default.c ****             lv_obj_add_style(obj, &styles->bg_color_white, 0);
 491              		.loc 1 683 9 is_stmt 1 view .LVU147
 683:lvgl/src/extra/themes/default/lv_theme_default.c ****             lv_obj_add_style(obj, &styles->bg_color_white, 0);
 492              		.loc 1 683 30 is_stmt 0 view .LVU148
 493 0240 2046     		mov	r0, r4
 494 0242 FFF7FEFF 		bl	lv_obj_get_parent
 495              	.LVL61:
 683:lvgl/src/extra/themes/default/lv_theme_default.c ****             lv_obj_add_style(obj, &styles->bg_color_white, 0);
 496              		.loc 1 683 12 view .LVU149
 497 0246 2049     		ldr	r1, .L53+4
 498 0248 FFF7FEFF 		bl	lv_obj_check_type
 499              	.LVL62:
 683:lvgl/src/extra/themes/default/lv_theme_default.c ****             lv_obj_add_style(obj, &styles->bg_color_white, 0);
 500              		.loc 1 683 11 view .LVU150
 501 024c 0028     		cmp	r0, #0
 502 024e 40F08B80 		bne	.L49
 696:lvgl/src/extra/themes/default/lv_theme_default.c ****         lv_obj_add_style(obj, &styles->outline_primary, LV_STATE_FOCUS_KEY);
 503              		.loc 1 696 9 is_stmt 1 view .LVU151
 696:lvgl/src/extra/themes/default/lv_theme_default.c ****         lv_obj_add_style(obj, &styles->outline_primary, LV_STATE_FOCUS_KEY);
 504              		.loc 1 696 38 is_stmt 0 view .LVU152
 505 0252 1E4D     		ldr	r5, .L53+8
 506 0254 2968     		ldr	r1, [r5]
 696:lvgl/src/extra/themes/default/lv_theme_default.c ****         lv_obj_add_style(obj, &styles->outline_primary, LV_STATE_FOCUS_KEY);
 507              		.loc 1 696 9 view .LVU153
 508 0256 0022     		movs	r2, #0
 509 0258 1831     		adds	r1, r1, #24
 510 025a 2046     		mov	r0, r4
 511 025c FFF7FEFF 		bl	lv_obj_add_style
 512              	.LVL63:
 697:lvgl/src/extra/themes/default/lv_theme_default.c ****         lv_obj_add_style(obj, &styles->outline_secondary, LV_STATE_EDITED);
 513              		.loc 1 697 9 is_stmt 1 view .LVU154
 697:lvgl/src/extra/themes/default/lv_theme_default.c ****         lv_obj_add_style(obj, &styles->outline_secondary, LV_STATE_EDITED);
 514              		.loc 1 697 38 is_stmt 0 view .LVU155
 515 0260 2968     		ldr	r1, [r5]
 697:lvgl/src/extra/themes/default/lv_theme_default.c ****         lv_obj_add_style(obj, &styles->outline_secondary, LV_STATE_EDITED);
 516              		.loc 1 697 9 view .LVU156
 517 0262 0422     		movs	r2, #4
 518 0264 A031     		adds	r1, r1, #160
 519 0266 2046     		mov	r0, r4
 520 0268 FFF7FEFF 		bl	lv_obj_add_style
 521              	.LVL64:
 698:lvgl/src/extra/themes/default/lv_theme_default.c ****         lv_obj_add_style(obj, &styles->btn, LV_PART_ITEMS);
 522              		.loc 1 698 9 is_stmt 1 view .LVU157
 698:lvgl/src/extra/themes/default/lv_theme_default.c ****         lv_obj_add_style(obj, &styles->btn, LV_PART_ITEMS);
ARM GAS  /var/folders/k2/cd9bl_j17z77g23y6ffqb_400000gn/T//ccRoPncs.s 			page 30


 523              		.loc 1 698 38 is_stmt 0 view .LVU158
 524 026c 2968     		ldr	r1, [r5]
 698:lvgl/src/extra/themes/default/lv_theme_default.c ****         lv_obj_add_style(obj, &styles->btn, LV_PART_ITEMS);
 525              		.loc 1 698 9 view .LVU159
 526 026e 0822     		movs	r2, #8
 527 0270 A831     		adds	r1, r1, #168
 528 0272 2046     		mov	r0, r4
 529 0274 FFF7FEFF 		bl	lv_obj_add_style
 530              	.LVL65:
 699:lvgl/src/extra/themes/default/lv_theme_default.c ****         lv_obj_add_style(obj, &styles->disabled, LV_PART_ITEMS | LV_STATE_DISABLED);
 531              		.loc 1 699 9 is_stmt 1 view .LVU160
 699:lvgl/src/extra/themes/default/lv_theme_default.c ****         lv_obj_add_style(obj, &styles->disabled, LV_PART_ITEMS | LV_STATE_DISABLED);
 532              		.loc 1 699 38 is_stmt 0 view .LVU161
 533 0278 2968     		ldr	r1, [r5]
 699:lvgl/src/extra/themes/default/lv_theme_default.c ****         lv_obj_add_style(obj, &styles->disabled, LV_PART_ITEMS | LV_STATE_DISABLED);
 534              		.loc 1 699 9 view .LVU162
 535 027a 4FF4A022 		mov	r2, #327680
 536 027e 2031     		adds	r1, r1, #32
 537 0280 2046     		mov	r0, r4
 538 0282 FFF7FEFF 		bl	lv_obj_add_style
 539              	.LVL66:
 700:lvgl/src/extra/themes/default/lv_theme_default.c ****         lv_obj_add_style(obj, &styles->pressed, LV_PART_ITEMS | LV_STATE_PRESSED);
 540              		.loc 1 700 9 is_stmt 1 view .LVU163
 700:lvgl/src/extra/themes/default/lv_theme_default.c ****         lv_obj_add_style(obj, &styles->pressed, LV_PART_ITEMS | LV_STATE_PRESSED);
 541              		.loc 1 700 38 is_stmt 0 view .LVU164
 542 0286 2968     		ldr	r1, [r5]
 700:lvgl/src/extra/themes/default/lv_theme_default.c ****         lv_obj_add_style(obj, &styles->pressed, LV_PART_ITEMS | LV_STATE_PRESSED);
 543              		.loc 1 700 9 view .LVU165
 544 0288 184A     		ldr	r2, .L53+40
 545 028a 6031     		adds	r1, r1, #96
 546 028c 2046     		mov	r0, r4
 547 028e FFF7FEFF 		bl	lv_obj_add_style
 548              	.LVL67:
 701:lvgl/src/extra/themes/default/lv_theme_default.c ****         lv_obj_add_style(obj, &styles->bg_color_primary, LV_PART_ITEMS | LV_STATE_CHECKED);
 549              		.loc 1 701 9 is_stmt 1 view .LVU166
 701:lvgl/src/extra/themes/default/lv_theme_default.c ****         lv_obj_add_style(obj, &styles->bg_color_primary, LV_PART_ITEMS | LV_STATE_CHECKED);
 550              		.loc 1 701 38 is_stmt 0 view .LVU167
 551 0292 2968     		ldr	r1, [r5]
 701:lvgl/src/extra/themes/default/lv_theme_default.c ****         lv_obj_add_style(obj, &styles->bg_color_primary, LV_PART_ITEMS | LV_STATE_CHECKED);
 552              		.loc 1 701 9 view .LVU168
 553 0294 164A     		ldr	r2, .L53+44
 554 0296 5831     		adds	r1, r1, #88
 555 0298 2046     		mov	r0, r4
 556 029a FFF7FEFF 		bl	lv_obj_add_style
 557              	.LVL68:
 702:lvgl/src/extra/themes/default/lv_theme_default.c ****         lv_obj_add_style(obj, &styles->outline_primary, LV_PART_ITEMS | LV_STATE_FOCUS_KEY);
 558              		.loc 1 702 9 is_stmt 1 view .LVU169
 702:lvgl/src/extra/themes/default/lv_theme_default.c ****         lv_obj_add_style(obj, &styles->outline_primary, LV_PART_ITEMS | LV_STATE_FOCUS_KEY);
 559              		.loc 1 702 38 is_stmt 0 view .LVU170
 560 029e 2968     		ldr	r1, [r5]
 702:lvgl/src/extra/themes/default/lv_theme_default.c ****         lv_obj_add_style(obj, &styles->outline_primary, LV_PART_ITEMS | LV_STATE_FOCUS_KEY);
 561              		.loc 1 702 9 view .LVU171
 562 02a0 144A     		ldr	r2, .L53+48
 563 02a2 2831     		adds	r1, r1, #40
 564 02a4 2046     		mov	r0, r4
 565 02a6 FFF7FEFF 		bl	lv_obj_add_style
 566              	.LVL69:
ARM GAS  /var/folders/k2/cd9bl_j17z77g23y6ffqb_400000gn/T//ccRoPncs.s 			page 31


 703:lvgl/src/extra/themes/default/lv_theme_default.c ****         lv_obj_add_style(obj, &styles->outline_secondary, LV_PART_ITEMS | LV_STATE_EDITED);
 567              		.loc 1 703 9 is_stmt 1 view .LVU172
 703:lvgl/src/extra/themes/default/lv_theme_default.c ****         lv_obj_add_style(obj, &styles->outline_secondary, LV_PART_ITEMS | LV_STATE_EDITED);
 568              		.loc 1 703 38 is_stmt 0 view .LVU173
 569 02aa 2968     		ldr	r1, [r5]
 703:lvgl/src/extra/themes/default/lv_theme_default.c ****         lv_obj_add_style(obj, &styles->outline_secondary, LV_PART_ITEMS | LV_STATE_EDITED);
 570              		.loc 1 703 9 view .LVU174
 571 02ac 124A     		ldr	r2, .L53+52
 572 02ae A031     		adds	r1, r1, #160
 573 02b0 2046     		mov	r0, r4
 574 02b2 FFF7FEFF 		bl	lv_obj_add_style
 575              	.LVL70:
 704:lvgl/src/extra/themes/default/lv_theme_default.c ****     }
 576              		.loc 1 704 9 is_stmt 1 view .LVU175
 704:lvgl/src/extra/themes/default/lv_theme_default.c ****     }
 577              		.loc 1 704 38 is_stmt 0 view .LVU176
 578 02b6 2968     		ldr	r1, [r5]
 704:lvgl/src/extra/themes/default/lv_theme_default.c ****     }
 579              		.loc 1 704 9 view .LVU177
 580 02b8 104A     		ldr	r2, .L53+56
 581 02ba A831     		adds	r1, r1, #168
 582 02bc 2046     		mov	r0, r4
 583 02be FFF7FEFF 		bl	lv_obj_add_style
 584              	.LVL71:
 585 02c2 75E7     		b	.L8
 586              	.L54:
 587              		.align	2
 588              	.L53:
 589 02c4 00000000 		.word	lv_obj_class
 590 02c8 00000000 		.word	lv_tabview_class
 591 02cc 00000000 		.word	.LANCHOR0
 592 02d0 40000100 		.word	65600
 593 02d4 00000000 		.word	lv_win_class
 594 02d8 00000000 		.word	lv_btn_class
 595 02dc 00000000 		.word	lv_colorwheel_class
 596 02e0 00000000 		.word	lv_line_class
 597 02e4 00000000 		.word	lv_btnmatrix_class
 598 02e8 00000000 		.word	lv_msgbox_class
 599 02ec 80000500 		.word	327808
 600 02f0 20000500 		.word	327712
 601 02f4 01000500 		.word	327681
 602 02f8 04000500 		.word	327684
 603 02fc 08000500 		.word	327688
 604              	.L48:
 671:lvgl/src/extra/themes/default/lv_theme_default.c ****             lv_obj_add_style(obj, &styles->pad_gap, 0);
 605              		.loc 1 671 13 is_stmt 1 view .LVU178
 671:lvgl/src/extra/themes/default/lv_theme_default.c ****             lv_obj_add_style(obj, &styles->pad_gap, 0);
 606              		.loc 1 671 42 is_stmt 0 view .LVU179
 607 0300 C54D     		ldr	r5, .L55
 608 0302 2968     		ldr	r1, [r5]
 671:lvgl/src/extra/themes/default/lv_theme_default.c ****             lv_obj_add_style(obj, &styles->pad_gap, 0);
 609              		.loc 1 671 13 view .LVU180
 610 0304 0022     		movs	r2, #0
 611 0306 01F5CC71 		add	r1, r1, #408
 612 030a 2046     		mov	r0, r4
 613 030c FFF7FEFF 		bl	lv_obj_add_style
 614              	.LVL72:
ARM GAS  /var/folders/k2/cd9bl_j17z77g23y6ffqb_400000gn/T//ccRoPncs.s 			page 32


 672:lvgl/src/extra/themes/default/lv_theme_default.c ****             lv_obj_add_style(obj, &styles->btn, LV_PART_ITEMS);
 615              		.loc 1 672 13 is_stmt 1 view .LVU181
 672:lvgl/src/extra/themes/default/lv_theme_default.c ****             lv_obj_add_style(obj, &styles->btn, LV_PART_ITEMS);
 616              		.loc 1 672 42 is_stmt 0 view .LVU182
 617 0310 2968     		ldr	r1, [r5]
 672:lvgl/src/extra/themes/default/lv_theme_default.c ****             lv_obj_add_style(obj, &styles->btn, LV_PART_ITEMS);
 618              		.loc 1 672 13 view .LVU183
 619 0312 0022     		movs	r2, #0
 620 0314 8831     		adds	r1, r1, #136
 621 0316 2046     		mov	r0, r4
 622 0318 FFF7FEFF 		bl	lv_obj_add_style
 623              	.LVL73:
 673:lvgl/src/extra/themes/default/lv_theme_default.c ****             lv_obj_add_style(obj, &styles->pressed, LV_PART_ITEMS | LV_STATE_PRESSED);
 624              		.loc 1 673 13 is_stmt 1 view .LVU184
 673:lvgl/src/extra/themes/default/lv_theme_default.c ****             lv_obj_add_style(obj, &styles->pressed, LV_PART_ITEMS | LV_STATE_PRESSED);
 625              		.loc 1 673 42 is_stmt 0 view .LVU185
 626 031c 2968     		ldr	r1, [r5]
 673:lvgl/src/extra/themes/default/lv_theme_default.c ****             lv_obj_add_style(obj, &styles->pressed, LV_PART_ITEMS | LV_STATE_PRESSED);
 627              		.loc 1 673 13 view .LVU186
 628 031e 4FF4A022 		mov	r2, #327680
 629 0322 2031     		adds	r1, r1, #32
 630 0324 2046     		mov	r0, r4
 631 0326 FFF7FEFF 		bl	lv_obj_add_style
 632              	.LVL74:
 674:lvgl/src/extra/themes/default/lv_theme_default.c ****             lv_obj_add_style(obj, &styles->disabled, LV_PART_ITEMS | LV_STATE_DISABLED);
 633              		.loc 1 674 13 is_stmt 1 view .LVU187
 674:lvgl/src/extra/themes/default/lv_theme_default.c ****             lv_obj_add_style(obj, &styles->disabled, LV_PART_ITEMS | LV_STATE_DISABLED);
 634              		.loc 1 674 42 is_stmt 0 view .LVU188
 635 032a 2968     		ldr	r1, [r5]
 674:lvgl/src/extra/themes/default/lv_theme_default.c ****             lv_obj_add_style(obj, &styles->disabled, LV_PART_ITEMS | LV_STATE_DISABLED);
 636              		.loc 1 674 13 view .LVU189
 637 032c BB4A     		ldr	r2, .L55+4
 638 032e 5831     		adds	r1, r1, #88
 639 0330 2046     		mov	r0, r4
 640 0332 FFF7FEFF 		bl	lv_obj_add_style
 641              	.LVL75:
 675:lvgl/src/extra/themes/default/lv_theme_default.c ****             lv_obj_add_style(obj, &styles->bg_color_primary, LV_PART_ITEMS | LV_STATE_CHECKED);
 642              		.loc 1 675 13 is_stmt 1 view .LVU190
 675:lvgl/src/extra/themes/default/lv_theme_default.c ****             lv_obj_add_style(obj, &styles->bg_color_primary, LV_PART_ITEMS | LV_STATE_CHECKED);
 643              		.loc 1 675 42 is_stmt 0 view .LVU191
 644 0336 2968     		ldr	r1, [r5]
 675:lvgl/src/extra/themes/default/lv_theme_default.c ****             lv_obj_add_style(obj, &styles->bg_color_primary, LV_PART_ITEMS | LV_STATE_CHECKED);
 645              		.loc 1 675 13 view .LVU192
 646 0338 B94A     		ldr	r2, .L55+8
 647 033a 6031     		adds	r1, r1, #96
 648 033c 2046     		mov	r0, r4
 649 033e FFF7FEFF 		bl	lv_obj_add_style
 650              	.LVL76:
 676:lvgl/src/extra/themes/default/lv_theme_default.c ****             lv_obj_add_style(obj, &styles->bg_color_primary_muted, LV_PART_ITEMS | LV_STATE_FOCUS_K
 651              		.loc 1 676 13 is_stmt 1 view .LVU193
 676:lvgl/src/extra/themes/default/lv_theme_default.c ****             lv_obj_add_style(obj, &styles->bg_color_primary_muted, LV_PART_ITEMS | LV_STATE_FOCUS_K
 652              		.loc 1 676 42 is_stmt 0 view .LVU194
 653 0342 2968     		ldr	r1, [r5]
 676:lvgl/src/extra/themes/default/lv_theme_default.c ****             lv_obj_add_style(obj, &styles->bg_color_primary_muted, LV_PART_ITEMS | LV_STATE_FOCUS_K
 654              		.loc 1 676 13 view .LVU195
 655 0344 B74A     		ldr	r2, .L55+12
 656 0346 2831     		adds	r1, r1, #40
ARM GAS  /var/folders/k2/cd9bl_j17z77g23y6ffqb_400000gn/T//ccRoPncs.s 			page 33


 657 0348 2046     		mov	r0, r4
 658 034a FFF7FEFF 		bl	lv_obj_add_style
 659              	.LVL77:
 677:lvgl/src/extra/themes/default/lv_theme_default.c ****             lv_obj_add_style(obj, &styles->bg_color_secondary_muted, LV_PART_ITEMS | LV_STATE_EDITE
 660              		.loc 1 677 13 is_stmt 1 view .LVU196
 677:lvgl/src/extra/themes/default/lv_theme_default.c ****             lv_obj_add_style(obj, &styles->bg_color_secondary_muted, LV_PART_ITEMS | LV_STATE_EDITE
 661              		.loc 1 677 42 is_stmt 0 view .LVU197
 662 034e 2968     		ldr	r1, [r5]
 677:lvgl/src/extra/themes/default/lv_theme_default.c ****             lv_obj_add_style(obj, &styles->bg_color_secondary_muted, LV_PART_ITEMS | LV_STATE_EDITE
 663              		.loc 1 677 13 view .LVU198
 664 0350 B54A     		ldr	r2, .L55+16
 665 0352 3031     		adds	r1, r1, #48
 666 0354 2046     		mov	r0, r4
 667 0356 FFF7FEFF 		bl	lv_obj_add_style
 668              	.LVL78:
 678:lvgl/src/extra/themes/default/lv_theme_default.c ****             return;
 669              		.loc 1 678 13 is_stmt 1 view .LVU199
 678:lvgl/src/extra/themes/default/lv_theme_default.c ****             return;
 670              		.loc 1 678 42 is_stmt 0 view .LVU200
 671 035a 2968     		ldr	r1, [r5]
 678:lvgl/src/extra/themes/default/lv_theme_default.c ****             return;
 672              		.loc 1 678 13 view .LVU201
 673 035c B34A     		ldr	r2, .L55+20
 674 035e 4031     		adds	r1, r1, #64
 675 0360 2046     		mov	r0, r4
 676 0362 FFF7FEFF 		bl	lv_obj_add_style
 677              	.LVL79:
 679:lvgl/src/extra/themes/default/lv_theme_default.c ****         }
 678              		.loc 1 679 13 is_stmt 1 view .LVU202
 679 0366 60E6     		b	.L1
 680              	.L49:
 684:lvgl/src/extra/themes/default/lv_theme_default.c ****             lv_obj_add_style(obj, &styles->outline_primary, LV_STATE_FOCUS_KEY);
 681              		.loc 1 684 13 view .LVU203
 684:lvgl/src/extra/themes/default/lv_theme_default.c ****             lv_obj_add_style(obj, &styles->outline_primary, LV_STATE_FOCUS_KEY);
 682              		.loc 1 684 42 is_stmt 0 view .LVU204
 683 0368 AB4D     		ldr	r5, .L55
 684 036a 2968     		ldr	r1, [r5]
 684:lvgl/src/extra/themes/default/lv_theme_default.c ****             lv_obj_add_style(obj, &styles->outline_primary, LV_STATE_FOCUS_KEY);
 685              		.loc 1 684 13 view .LVU205
 686 036c 0022     		movs	r2, #0
 687 036e 5031     		adds	r1, r1, #80
 688 0370 2046     		mov	r0, r4
 689 0372 FFF7FEFF 		bl	lv_obj_add_style
 690              	.LVL80:
 685:lvgl/src/extra/themes/default/lv_theme_default.c ****             lv_obj_add_style(obj, &styles->tab_bg_focus, LV_STATE_FOCUS_KEY);
 691              		.loc 1 685 13 is_stmt 1 view .LVU206
 685:lvgl/src/extra/themes/default/lv_theme_default.c ****             lv_obj_add_style(obj, &styles->tab_bg_focus, LV_STATE_FOCUS_KEY);
 692              		.loc 1 685 42 is_stmt 0 view .LVU207
 693 0376 2968     		ldr	r1, [r5]
 685:lvgl/src/extra/themes/default/lv_theme_default.c ****             lv_obj_add_style(obj, &styles->tab_bg_focus, LV_STATE_FOCUS_KEY);
 694              		.loc 1 685 13 view .LVU208
 695 0378 0422     		movs	r2, #4
 696 037a A031     		adds	r1, r1, #160
 697 037c 2046     		mov	r0, r4
 698 037e FFF7FEFF 		bl	lv_obj_add_style
 699              	.LVL81:
 686:lvgl/src/extra/themes/default/lv_theme_default.c ****             lv_obj_add_style(obj, &styles->pressed, LV_PART_ITEMS | LV_STATE_PRESSED);
ARM GAS  /var/folders/k2/cd9bl_j17z77g23y6ffqb_400000gn/T//ccRoPncs.s 			page 34


 700              		.loc 1 686 13 is_stmt 1 view .LVU209
 686:lvgl/src/extra/themes/default/lv_theme_default.c ****             lv_obj_add_style(obj, &styles->pressed, LV_PART_ITEMS | LV_STATE_PRESSED);
 701              		.loc 1 686 42 is_stmt 0 view .LVU210
 702 0382 2968     		ldr	r1, [r5]
 686:lvgl/src/extra/themes/default/lv_theme_default.c ****             lv_obj_add_style(obj, &styles->pressed, LV_PART_ITEMS | LV_STATE_PRESSED);
 703              		.loc 1 686 13 view .LVU211
 704 0384 0422     		movs	r2, #4
 705 0386 01F5E471 		add	r1, r1, #456
 706 038a 2046     		mov	r0, r4
 707 038c FFF7FEFF 		bl	lv_obj_add_style
 708              	.LVL82:
 687:lvgl/src/extra/themes/default/lv_theme_default.c ****             lv_obj_add_style(obj, &styles->bg_color_primary_muted, LV_PART_ITEMS | LV_STATE_CHECKED
 709              		.loc 1 687 13 is_stmt 1 view .LVU212
 687:lvgl/src/extra/themes/default/lv_theme_default.c ****             lv_obj_add_style(obj, &styles->bg_color_primary_muted, LV_PART_ITEMS | LV_STATE_CHECKED
 710              		.loc 1 687 42 is_stmt 0 view .LVU213
 711 0390 2968     		ldr	r1, [r5]
 687:lvgl/src/extra/themes/default/lv_theme_default.c ****             lv_obj_add_style(obj, &styles->bg_color_primary_muted, LV_PART_ITEMS | LV_STATE_CHECKED
 712              		.loc 1 687 13 view .LVU214
 713 0392 A24A     		ldr	r2, .L55+4
 714 0394 5831     		adds	r1, r1, #88
 715 0396 2046     		mov	r0, r4
 716 0398 FFF7FEFF 		bl	lv_obj_add_style
 717              	.LVL83:
 688:lvgl/src/extra/themes/default/lv_theme_default.c ****             lv_obj_add_style(obj, &styles->tab_btn, LV_PART_ITEMS | LV_STATE_CHECKED);
 718              		.loc 1 688 13 is_stmt 1 view .LVU215
 688:lvgl/src/extra/themes/default/lv_theme_default.c ****             lv_obj_add_style(obj, &styles->tab_btn, LV_PART_ITEMS | LV_STATE_CHECKED);
 719              		.loc 1 688 42 is_stmt 0 view .LVU216
 720 039c 2968     		ldr	r1, [r5]
 688:lvgl/src/extra/themes/default/lv_theme_default.c ****             lv_obj_add_style(obj, &styles->tab_btn, LV_PART_ITEMS | LV_STATE_CHECKED);
 721              		.loc 1 688 13 view .LVU217
 722 039e A14E     		ldr	r6, .L55+12
 723 03a0 3246     		mov	r2, r6
 724 03a2 3031     		adds	r1, r1, #48
 725 03a4 2046     		mov	r0, r4
 726 03a6 FFF7FEFF 		bl	lv_obj_add_style
 727              	.LVL84:
 689:lvgl/src/extra/themes/default/lv_theme_default.c ****             lv_obj_add_style(obj, &styles->outline_primary, LV_PART_ITEMS | LV_STATE_FOCUS_KEY);
 728              		.loc 1 689 13 is_stmt 1 view .LVU218
 689:lvgl/src/extra/themes/default/lv_theme_default.c ****             lv_obj_add_style(obj, &styles->outline_primary, LV_PART_ITEMS | LV_STATE_FOCUS_KEY);
 729              		.loc 1 689 42 is_stmt 0 view .LVU219
 730 03aa 2968     		ldr	r1, [r5]
 689:lvgl/src/extra/themes/default/lv_theme_default.c ****             lv_obj_add_style(obj, &styles->outline_primary, LV_PART_ITEMS | LV_STATE_FOCUS_KEY);
 731              		.loc 1 689 13 view .LVU220
 732 03ac 3246     		mov	r2, r6
 733 03ae 01F5E871 		add	r1, r1, #464
 734 03b2 2046     		mov	r0, r4
 735 03b4 FFF7FEFF 		bl	lv_obj_add_style
 736              	.LVL85:
 690:lvgl/src/extra/themes/default/lv_theme_default.c ****             lv_obj_add_style(obj, &styles->outline_secondary, LV_PART_ITEMS | LV_STATE_EDITED);
 737              		.loc 1 690 13 is_stmt 1 view .LVU221
 690:lvgl/src/extra/themes/default/lv_theme_default.c ****             lv_obj_add_style(obj, &styles->outline_secondary, LV_PART_ITEMS | LV_STATE_EDITED);
 738              		.loc 1 690 42 is_stmt 0 view .LVU222
 739 03b8 2968     		ldr	r1, [r5]
 690:lvgl/src/extra/themes/default/lv_theme_default.c ****             lv_obj_add_style(obj, &styles->outline_secondary, LV_PART_ITEMS | LV_STATE_EDITED);
 740              		.loc 1 690 13 view .LVU223
 741 03ba 0336     		adds	r6, r6, #3
 742 03bc 3246     		mov	r2, r6
ARM GAS  /var/folders/k2/cd9bl_j17z77g23y6ffqb_400000gn/T//ccRoPncs.s 			page 35


 743 03be A031     		adds	r1, r1, #160
 744 03c0 2046     		mov	r0, r4
 745 03c2 FFF7FEFF 		bl	lv_obj_add_style
 746              	.LVL86:
 691:lvgl/src/extra/themes/default/lv_theme_default.c ****             lv_obj_add_style(obj, &styles->tab_bg_focus, LV_PART_ITEMS | LV_STATE_FOCUS_KEY);
 747              		.loc 1 691 13 is_stmt 1 view .LVU224
 691:lvgl/src/extra/themes/default/lv_theme_default.c ****             lv_obj_add_style(obj, &styles->tab_bg_focus, LV_PART_ITEMS | LV_STATE_FOCUS_KEY);
 748              		.loc 1 691 42 is_stmt 0 view .LVU225
 749 03c6 2968     		ldr	r1, [r5]
 691:lvgl/src/extra/themes/default/lv_theme_default.c ****             lv_obj_add_style(obj, &styles->tab_bg_focus, LV_PART_ITEMS | LV_STATE_FOCUS_KEY);
 750              		.loc 1 691 13 view .LVU226
 751 03c8 984A     		ldr	r2, .L55+20
 752 03ca A831     		adds	r1, r1, #168
 753 03cc 2046     		mov	r0, r4
 754 03ce FFF7FEFF 		bl	lv_obj_add_style
 755              	.LVL87:
 692:lvgl/src/extra/themes/default/lv_theme_default.c ****             return;
 756              		.loc 1 692 13 is_stmt 1 view .LVU227
 692:lvgl/src/extra/themes/default/lv_theme_default.c ****             return;
 757              		.loc 1 692 42 is_stmt 0 view .LVU228
 758 03d2 2968     		ldr	r1, [r5]
 692:lvgl/src/extra/themes/default/lv_theme_default.c ****             return;
 759              		.loc 1 692 13 view .LVU229
 760 03d4 3246     		mov	r2, r6
 761 03d6 01F5E471 		add	r1, r1, #456
 762 03da 2046     		mov	r0, r4
 763 03dc FFF7FEFF 		bl	lv_obj_add_style
 764              	.LVL88:
 693:lvgl/src/extra/themes/default/lv_theme_default.c ****         }
 765              		.loc 1 693 13 is_stmt 1 view .LVU230
 766 03e0 23E6     		b	.L1
 767              	.L11:
 709:lvgl/src/extra/themes/default/lv_theme_default.c ****         lv_obj_add_style(obj, &styles->bg_color_primary_muted, 0);
 768              		.loc 1 709 10 view .LVU231
 709:lvgl/src/extra/themes/default/lv_theme_default.c ****         lv_obj_add_style(obj, &styles->bg_color_primary_muted, 0);
 769              		.loc 1 709 13 is_stmt 0 view .LVU232
 770 03e2 9349     		ldr	r1, .L55+24
 771 03e4 2046     		mov	r0, r4
 772 03e6 FFF7FEFF 		bl	lv_obj_check_type
 773              	.LVL89:
 709:lvgl/src/extra/themes/default/lv_theme_default.c ****         lv_obj_add_style(obj, &styles->bg_color_primary_muted, 0);
 774              		.loc 1 709 12 view .LVU233
 775 03ea 38B3     		cbz	r0, .L14
 710:lvgl/src/extra/themes/default/lv_theme_default.c ****         lv_obj_add_style(obj, &styles->circle, 0);
 776              		.loc 1 710 9 is_stmt 1 view .LVU234
 710:lvgl/src/extra/themes/default/lv_theme_default.c ****         lv_obj_add_style(obj, &styles->circle, 0);
 777              		.loc 1 710 38 is_stmt 0 view .LVU235
 778 03ec 8A4D     		ldr	r5, .L55
 779 03ee 2968     		ldr	r1, [r5]
 710:lvgl/src/extra/themes/default/lv_theme_default.c ****         lv_obj_add_style(obj, &styles->circle, 0);
 780              		.loc 1 710 9 view .LVU236
 781 03f0 0022     		movs	r2, #0
 782 03f2 3031     		adds	r1, r1, #48
 783 03f4 2046     		mov	r0, r4
 784 03f6 FFF7FEFF 		bl	lv_obj_add_style
 785              	.LVL90:
 711:lvgl/src/extra/themes/default/lv_theme_default.c ****         lv_obj_add_style(obj, &styles->outline_primary, LV_STATE_FOCUS_KEY);
ARM GAS  /var/folders/k2/cd9bl_j17z77g23y6ffqb_400000gn/T//ccRoPncs.s 			page 36


 786              		.loc 1 711 9 is_stmt 1 view .LVU237
 711:lvgl/src/extra/themes/default/lv_theme_default.c ****         lv_obj_add_style(obj, &styles->outline_primary, LV_STATE_FOCUS_KEY);
 787              		.loc 1 711 38 is_stmt 0 view .LVU238
 788 03fa 2968     		ldr	r1, [r5]
 711:lvgl/src/extra/themes/default/lv_theme_default.c ****         lv_obj_add_style(obj, &styles->outline_primary, LV_STATE_FOCUS_KEY);
 789              		.loc 1 711 9 view .LVU239
 790 03fc 0022     		movs	r2, #0
 791 03fe B031     		adds	r1, r1, #176
 792 0400 2046     		mov	r0, r4
 793 0402 FFF7FEFF 		bl	lv_obj_add_style
 794              	.LVL91:
 712:lvgl/src/extra/themes/default/lv_theme_default.c ****         lv_obj_add_style(obj, &styles->outline_secondary, LV_STATE_EDITED);
 795              		.loc 1 712 9 is_stmt 1 view .LVU240
 712:lvgl/src/extra/themes/default/lv_theme_default.c ****         lv_obj_add_style(obj, &styles->outline_secondary, LV_STATE_EDITED);
 796              		.loc 1 712 38 is_stmt 0 view .LVU241
 797 0406 2968     		ldr	r1, [r5]
 712:lvgl/src/extra/themes/default/lv_theme_default.c ****         lv_obj_add_style(obj, &styles->outline_secondary, LV_STATE_EDITED);
 798              		.loc 1 712 9 view .LVU242
 799 0408 0422     		movs	r2, #4
 800 040a A031     		adds	r1, r1, #160
 801 040c 2046     		mov	r0, r4
 802 040e FFF7FEFF 		bl	lv_obj_add_style
 803              	.LVL92:
 713:lvgl/src/extra/themes/default/lv_theme_default.c ****         lv_obj_add_style(obj, &styles->bg_color_primary, LV_PART_INDICATOR);
 804              		.loc 1 713 9 is_stmt 1 view .LVU243
 713:lvgl/src/extra/themes/default/lv_theme_default.c ****         lv_obj_add_style(obj, &styles->bg_color_primary, LV_PART_INDICATOR);
 805              		.loc 1 713 38 is_stmt 0 view .LVU244
 806 0412 2968     		ldr	r1, [r5]
 713:lvgl/src/extra/themes/default/lv_theme_default.c ****         lv_obj_add_style(obj, &styles->bg_color_primary, LV_PART_INDICATOR);
 807              		.loc 1 713 9 view .LVU245
 808 0414 0822     		movs	r2, #8
 809 0416 A831     		adds	r1, r1, #168
 810 0418 2046     		mov	r0, r4
 811 041a FFF7FEFF 		bl	lv_obj_add_style
 812              	.LVL93:
 714:lvgl/src/extra/themes/default/lv_theme_default.c ****         lv_obj_add_style(obj, &styles->circle, LV_PART_INDICATOR);
 813              		.loc 1 714 9 is_stmt 1 view .LVU246
 714:lvgl/src/extra/themes/default/lv_theme_default.c ****         lv_obj_add_style(obj, &styles->circle, LV_PART_INDICATOR);
 814              		.loc 1 714 38 is_stmt 0 view .LVU247
 815 041e 2968     		ldr	r1, [r5]
 714:lvgl/src/extra/themes/default/lv_theme_default.c ****         lv_obj_add_style(obj, &styles->circle, LV_PART_INDICATOR);
 816              		.loc 1 714 9 view .LVU248
 817 0420 4FF40032 		mov	r2, #131072
 818 0424 2831     		adds	r1, r1, #40
 819 0426 2046     		mov	r0, r4
 820 0428 FFF7FEFF 		bl	lv_obj_add_style
 821              	.LVL94:
 715:lvgl/src/extra/themes/default/lv_theme_default.c ****     }
 822              		.loc 1 715 9 is_stmt 1 view .LVU249
 715:lvgl/src/extra/themes/default/lv_theme_default.c ****     }
 823              		.loc 1 715 38 is_stmt 0 view .LVU250
 824 042c 2968     		ldr	r1, [r5]
 715:lvgl/src/extra/themes/default/lv_theme_default.c ****     }
 825              		.loc 1 715 9 view .LVU251
 826 042e 4FF40032 		mov	r2, #131072
 827 0432 B031     		adds	r1, r1, #176
 828 0434 2046     		mov	r0, r4
ARM GAS  /var/folders/k2/cd9bl_j17z77g23y6ffqb_400000gn/T//ccRoPncs.s 			page 37


 829 0436 FFF7FEFF 		bl	lv_obj_add_style
 830              	.LVL95:
 831 043a B9E6     		b	.L8
 832              	.L14:
 720:lvgl/src/extra/themes/default/lv_theme_default.c ****         lv_obj_add_style(obj, &styles->bg_color_primary_muted, 0);
 833              		.loc 1 720 10 is_stmt 1 view .LVU252
 720:lvgl/src/extra/themes/default/lv_theme_default.c ****         lv_obj_add_style(obj, &styles->bg_color_primary_muted, 0);
 834              		.loc 1 720 13 is_stmt 0 view .LVU253
 835 043c 7D49     		ldr	r1, .L55+28
 836 043e 2046     		mov	r0, r4
 837 0440 FFF7FEFF 		bl	lv_obj_check_type
 838              	.LVL96:
 720:lvgl/src/extra/themes/default/lv_theme_default.c ****         lv_obj_add_style(obj, &styles->bg_color_primary_muted, 0);
 839              		.loc 1 720 12 view .LVU254
 840 0444 0028     		cmp	r0, #0
 841 0446 42D0     		beq	.L15
 721:lvgl/src/extra/themes/default/lv_theme_default.c ****         lv_obj_add_style(obj, &styles->circle, 0);
 842              		.loc 1 721 9 is_stmt 1 view .LVU255
 721:lvgl/src/extra/themes/default/lv_theme_default.c ****         lv_obj_add_style(obj, &styles->circle, 0);
 843              		.loc 1 721 38 is_stmt 0 view .LVU256
 844 0448 734D     		ldr	r5, .L55
 845 044a 2968     		ldr	r1, [r5]
 721:lvgl/src/extra/themes/default/lv_theme_default.c ****         lv_obj_add_style(obj, &styles->circle, 0);
 846              		.loc 1 721 9 view .LVU257
 847 044c 0022     		movs	r2, #0
 848 044e 3031     		adds	r1, r1, #48
 849 0450 2046     		mov	r0, r4
 850 0452 FFF7FEFF 		bl	lv_obj_add_style
 851              	.LVL97:
 722:lvgl/src/extra/themes/default/lv_theme_default.c ****         lv_obj_add_style(obj, &styles->outline_primary, LV_STATE_FOCUS_KEY);
 852              		.loc 1 722 9 is_stmt 1 view .LVU258
 722:lvgl/src/extra/themes/default/lv_theme_default.c ****         lv_obj_add_style(obj, &styles->outline_primary, LV_STATE_FOCUS_KEY);
 853              		.loc 1 722 38 is_stmt 0 view .LVU259
 854 0456 2968     		ldr	r1, [r5]
 722:lvgl/src/extra/themes/default/lv_theme_default.c ****         lv_obj_add_style(obj, &styles->outline_primary, LV_STATE_FOCUS_KEY);
 855              		.loc 1 722 9 view .LVU260
 856 0458 0022     		movs	r2, #0
 857 045a B031     		adds	r1, r1, #176
 858 045c 2046     		mov	r0, r4
 859 045e FFF7FEFF 		bl	lv_obj_add_style
 860              	.LVL98:
 723:lvgl/src/extra/themes/default/lv_theme_default.c ****         lv_obj_add_style(obj, &styles->outline_secondary, LV_STATE_EDITED);
 861              		.loc 1 723 9 is_stmt 1 view .LVU261
 723:lvgl/src/extra/themes/default/lv_theme_default.c ****         lv_obj_add_style(obj, &styles->outline_secondary, LV_STATE_EDITED);
 862              		.loc 1 723 38 is_stmt 0 view .LVU262
 863 0462 2968     		ldr	r1, [r5]
 723:lvgl/src/extra/themes/default/lv_theme_default.c ****         lv_obj_add_style(obj, &styles->outline_secondary, LV_STATE_EDITED);
 864              		.loc 1 723 9 view .LVU263
 865 0464 0422     		movs	r2, #4
 866 0466 A031     		adds	r1, r1, #160
 867 0468 2046     		mov	r0, r4
 868 046a FFF7FEFF 		bl	lv_obj_add_style
 869              	.LVL99:
 724:lvgl/src/extra/themes/default/lv_theme_default.c ****         lv_obj_add_style(obj, &styles->bg_color_primary, LV_PART_INDICATOR);
 870              		.loc 1 724 9 is_stmt 1 view .LVU264
 724:lvgl/src/extra/themes/default/lv_theme_default.c ****         lv_obj_add_style(obj, &styles->bg_color_primary, LV_PART_INDICATOR);
 871              		.loc 1 724 38 is_stmt 0 view .LVU265
ARM GAS  /var/folders/k2/cd9bl_j17z77g23y6ffqb_400000gn/T//ccRoPncs.s 			page 38


 872 046e 2968     		ldr	r1, [r5]
 724:lvgl/src/extra/themes/default/lv_theme_default.c ****         lv_obj_add_style(obj, &styles->bg_color_primary, LV_PART_INDICATOR);
 873              		.loc 1 724 9 view .LVU266
 874 0470 0822     		movs	r2, #8
 875 0472 A831     		adds	r1, r1, #168
 876 0474 2046     		mov	r0, r4
 877 0476 FFF7FEFF 		bl	lv_obj_add_style
 878              	.LVL100:
 725:lvgl/src/extra/themes/default/lv_theme_default.c ****         lv_obj_add_style(obj, &styles->circle, LV_PART_INDICATOR);
 879              		.loc 1 725 9 is_stmt 1 view .LVU267
 725:lvgl/src/extra/themes/default/lv_theme_default.c ****         lv_obj_add_style(obj, &styles->circle, LV_PART_INDICATOR);
 880              		.loc 1 725 38 is_stmt 0 view .LVU268
 881 047a 2968     		ldr	r1, [r5]
 725:lvgl/src/extra/themes/default/lv_theme_default.c ****         lv_obj_add_style(obj, &styles->circle, LV_PART_INDICATOR);
 882              		.loc 1 725 9 view .LVU269
 883 047c 4FF40032 		mov	r2, #131072
 884 0480 2831     		adds	r1, r1, #40
 885 0482 2046     		mov	r0, r4
 886 0484 FFF7FEFF 		bl	lv_obj_add_style
 887              	.LVL101:
 726:lvgl/src/extra/themes/default/lv_theme_default.c ****         lv_obj_add_style(obj, &styles->knob, LV_PART_KNOB);
 888              		.loc 1 726 9 is_stmt 1 view .LVU270
 726:lvgl/src/extra/themes/default/lv_theme_default.c ****         lv_obj_add_style(obj, &styles->knob, LV_PART_KNOB);
 889              		.loc 1 726 38 is_stmt 0 view .LVU271
 890 0488 2968     		ldr	r1, [r5]
 726:lvgl/src/extra/themes/default/lv_theme_default.c ****         lv_obj_add_style(obj, &styles->knob, LV_PART_KNOB);
 891              		.loc 1 726 9 view .LVU272
 892 048a 4FF40032 		mov	r2, #131072
 893 048e B031     		adds	r1, r1, #176
 894 0490 2046     		mov	r0, r4
 895 0492 FFF7FEFF 		bl	lv_obj_add_style
 896              	.LVL102:
 727:lvgl/src/extra/themes/default/lv_theme_default.c **** #if LV_THEME_DEFAULT_GROW
 897              		.loc 1 727 9 is_stmt 1 view .LVU273
 727:lvgl/src/extra/themes/default/lv_theme_default.c **** #if LV_THEME_DEFAULT_GROW
 898              		.loc 1 727 38 is_stmt 0 view .LVU274
 899 0496 2968     		ldr	r1, [r5]
 727:lvgl/src/extra/themes/default/lv_theme_default.c **** #if LV_THEME_DEFAULT_GROW
 900              		.loc 1 727 9 view .LVU275
 901 0498 4FF44032 		mov	r2, #196608
 902 049c E831     		adds	r1, r1, #232
 903 049e 2046     		mov	r0, r4
 904 04a0 FFF7FEFF 		bl	lv_obj_add_style
 905              	.LVL103:
 729:lvgl/src/extra/themes/default/lv_theme_default.c **** #endif
 906              		.loc 1 729 9 is_stmt 1 view .LVU276
 729:lvgl/src/extra/themes/default/lv_theme_default.c **** #endif
 907              		.loc 1 729 38 is_stmt 0 view .LVU277
 908 04a4 2968     		ldr	r1, [r5]
 729:lvgl/src/extra/themes/default/lv_theme_default.c **** #endif
 909              		.loc 1 729 9 view .LVU278
 910 04a6 644E     		ldr	r6, .L55+32
 911 04a8 3246     		mov	r2, r6
 912 04aa C831     		adds	r1, r1, #200
 913 04ac 2046     		mov	r0, r4
 914 04ae FFF7FEFF 		bl	lv_obj_add_style
 915              	.LVL104:
ARM GAS  /var/folders/k2/cd9bl_j17z77g23y6ffqb_400000gn/T//ccRoPncs.s 			page 39


 731:lvgl/src/extra/themes/default/lv_theme_default.c ****         lv_obj_add_style(obj, &styles->transition_normal, LV_PART_KNOB | LV_STATE_PRESSED);
 916              		.loc 1 731 9 is_stmt 1 view .LVU279
 731:lvgl/src/extra/themes/default/lv_theme_default.c ****         lv_obj_add_style(obj, &styles->transition_normal, LV_PART_KNOB | LV_STATE_PRESSED);
 917              		.loc 1 731 38 is_stmt 0 view .LVU280
 918 04b2 2968     		ldr	r1, [r5]
 731:lvgl/src/extra/themes/default/lv_theme_default.c ****         lv_obj_add_style(obj, &styles->transition_normal, LV_PART_KNOB | LV_STATE_PRESSED);
 919              		.loc 1 731 9 view .LVU281
 920 04b4 4FF44032 		mov	r2, #196608
 921 04b8 D031     		adds	r1, r1, #208
 922 04ba 2046     		mov	r0, r4
 923 04bc FFF7FEFF 		bl	lv_obj_add_style
 924              	.LVL105:
 732:lvgl/src/extra/themes/default/lv_theme_default.c ****     }
 925              		.loc 1 732 9 is_stmt 1 view .LVU282
 732:lvgl/src/extra/themes/default/lv_theme_default.c ****     }
 926              		.loc 1 732 38 is_stmt 0 view .LVU283
 927 04c0 2968     		ldr	r1, [r5]
 732:lvgl/src/extra/themes/default/lv_theme_default.c ****     }
 928              		.loc 1 732 9 view .LVU284
 929 04c2 3246     		mov	r2, r6
 930 04c4 D831     		adds	r1, r1, #216
 931 04c6 2046     		mov	r0, r4
 932 04c8 FFF7FEFF 		bl	lv_obj_add_style
 933              	.LVL106:
 934 04cc 70E6     		b	.L8
 935              	.L15:
 737:lvgl/src/extra/themes/default/lv_theme_default.c ****         lv_obj_add_style(obj, &styles->card, 0);
 936              		.loc 1 737 10 is_stmt 1 view .LVU285
 737:lvgl/src/extra/themes/default/lv_theme_default.c ****         lv_obj_add_style(obj, &styles->card, 0);
 937              		.loc 1 737 13 is_stmt 0 view .LVU286
 938 04ce 5B49     		ldr	r1, .L55+36
 939 04d0 2046     		mov	r0, r4
 940 04d2 FFF7FEFF 		bl	lv_obj_check_type
 941              	.LVL107:
 737:lvgl/src/extra/themes/default/lv_theme_default.c ****         lv_obj_add_style(obj, &styles->card, 0);
 942              		.loc 1 737 12 view .LVU287
 943 04d6 0028     		cmp	r0, #0
 944 04d8 54D0     		beq	.L16
 738:lvgl/src/extra/themes/default/lv_theme_default.c ****         lv_obj_add_style(obj, &styles->pad_zero, 0);
 945              		.loc 1 738 9 is_stmt 1 view .LVU288
 738:lvgl/src/extra/themes/default/lv_theme_default.c ****         lv_obj_add_style(obj, &styles->pad_zero, 0);
 946              		.loc 1 738 38 is_stmt 0 view .LVU289
 947 04da 4F4D     		ldr	r5, .L55
 948 04dc 2968     		ldr	r1, [r5]
 738:lvgl/src/extra/themes/default/lv_theme_default.c ****         lv_obj_add_style(obj, &styles->pad_zero, 0);
 949              		.loc 1 738 9 view .LVU290
 950 04de 0022     		movs	r2, #0
 951 04e0 1831     		adds	r1, r1, #24
 952 04e2 2046     		mov	r0, r4
 953 04e4 FFF7FEFF 		bl	lv_obj_add_style
 954              	.LVL108:
 739:lvgl/src/extra/themes/default/lv_theme_default.c ****         lv_obj_add_style(obj, &styles->no_radius, 0);
 955              		.loc 1 739 9 is_stmt 1 view .LVU291
 739:lvgl/src/extra/themes/default/lv_theme_default.c ****         lv_obj_add_style(obj, &styles->no_radius, 0);
 956              		.loc 1 739 38 is_stmt 0 view .LVU292
 957 04e8 2968     		ldr	r1, [r5]
 739:lvgl/src/extra/themes/default/lv_theme_default.c ****         lv_obj_add_style(obj, &styles->no_radius, 0);
ARM GAS  /var/folders/k2/cd9bl_j17z77g23y6ffqb_400000gn/T//ccRoPncs.s 			page 40


 958              		.loc 1 739 9 view .LVU293
 959 04ea 0022     		movs	r2, #0
 960 04ec 6831     		adds	r1, r1, #104
 961 04ee 2046     		mov	r0, r4
 962 04f0 FFF7FEFF 		bl	lv_obj_add_style
 963              	.LVL109:
 740:lvgl/src/extra/themes/default/lv_theme_default.c ****         lv_obj_add_style(obj, &styles->outline_primary, LV_STATE_FOCUS_KEY);
 964              		.loc 1 740 9 is_stmt 1 view .LVU294
 740:lvgl/src/extra/themes/default/lv_theme_default.c ****         lv_obj_add_style(obj, &styles->outline_primary, LV_STATE_FOCUS_KEY);
 965              		.loc 1 740 38 is_stmt 0 view .LVU295
 966 04f4 2968     		ldr	r1, [r5]
 740:lvgl/src/extra/themes/default/lv_theme_default.c ****         lv_obj_add_style(obj, &styles->outline_primary, LV_STATE_FOCUS_KEY);
 967              		.loc 1 740 9 view .LVU296
 968 04f6 0022     		movs	r2, #0
 969 04f8 B831     		adds	r1, r1, #184
 970 04fa 2046     		mov	r0, r4
 971 04fc FFF7FEFF 		bl	lv_obj_add_style
 972              	.LVL110:
 741:lvgl/src/extra/themes/default/lv_theme_default.c ****         lv_obj_add_style(obj, &styles->outline_secondary, LV_STATE_EDITED);
 973              		.loc 1 741 9 is_stmt 1 view .LVU297
 741:lvgl/src/extra/themes/default/lv_theme_default.c ****         lv_obj_add_style(obj, &styles->outline_secondary, LV_STATE_EDITED);
 974              		.loc 1 741 38 is_stmt 0 view .LVU298
 975 0500 2968     		ldr	r1, [r5]
 741:lvgl/src/extra/themes/default/lv_theme_default.c ****         lv_obj_add_style(obj, &styles->outline_secondary, LV_STATE_EDITED);
 976              		.loc 1 741 9 view .LVU299
 977 0502 0422     		movs	r2, #4
 978 0504 A031     		adds	r1, r1, #160
 979 0506 2046     		mov	r0, r4
 980 0508 FFF7FEFF 		bl	lv_obj_add_style
 981              	.LVL111:
 742:lvgl/src/extra/themes/default/lv_theme_default.c ****         lv_obj_add_style(obj, &styles->scrollbar, LV_PART_SCROLLBAR);
 982              		.loc 1 742 9 is_stmt 1 view .LVU300
 742:lvgl/src/extra/themes/default/lv_theme_default.c ****         lv_obj_add_style(obj, &styles->scrollbar, LV_PART_SCROLLBAR);
 983              		.loc 1 742 38 is_stmt 0 view .LVU301
 984 050c 2968     		ldr	r1, [r5]
 742:lvgl/src/extra/themes/default/lv_theme_default.c ****         lv_obj_add_style(obj, &styles->scrollbar, LV_PART_SCROLLBAR);
 985              		.loc 1 742 9 view .LVU302
 986 050e 0822     		movs	r2, #8
 987 0510 A831     		adds	r1, r1, #168
 988 0512 2046     		mov	r0, r4
 989 0514 FFF7FEFF 		bl	lv_obj_add_style
 990              	.LVL112:
 743:lvgl/src/extra/themes/default/lv_theme_default.c ****         lv_obj_add_style(obj, &styles->scrollbar_scrolled, LV_PART_SCROLLBAR | LV_STATE_SCROLLED);
 991              		.loc 1 743 9 is_stmt 1 view .LVU303
 743:lvgl/src/extra/themes/default/lv_theme_default.c ****         lv_obj_add_style(obj, &styles->scrollbar_scrolled, LV_PART_SCROLLBAR | LV_STATE_SCROLLED);
 992              		.loc 1 743 38 is_stmt 0 view .LVU304
 993 0518 2968     		ldr	r1, [r5]
 743:lvgl/src/extra/themes/default/lv_theme_default.c ****         lv_obj_add_style(obj, &styles->scrollbar_scrolled, LV_PART_SCROLLBAR | LV_STATE_SCROLLED);
 994              		.loc 1 743 9 view .LVU305
 995 051a 4FF48032 		mov	r2, #65536
 996 051e 0831     		adds	r1, r1, #8
 997 0520 2046     		mov	r0, r4
 998 0522 FFF7FEFF 		bl	lv_obj_add_style
 999              	.LVL113:
 744:lvgl/src/extra/themes/default/lv_theme_default.c ****         lv_obj_add_style(obj, &styles->bg_color_white, LV_PART_ITEMS);
 1000              		.loc 1 744 9 is_stmt 1 view .LVU306
 744:lvgl/src/extra/themes/default/lv_theme_default.c ****         lv_obj_add_style(obj, &styles->bg_color_white, LV_PART_ITEMS);
ARM GAS  /var/folders/k2/cd9bl_j17z77g23y6ffqb_400000gn/T//ccRoPncs.s 			page 41


 1001              		.loc 1 744 38 is_stmt 0 view .LVU307
 1002 0526 2968     		ldr	r1, [r5]
 744:lvgl/src/extra/themes/default/lv_theme_default.c ****         lv_obj_add_style(obj, &styles->bg_color_white, LV_PART_ITEMS);
 1003              		.loc 1 744 9 view .LVU308
 1004 0528 454A     		ldr	r2, .L55+40
 1005 052a 1031     		adds	r1, r1, #16
 1006 052c 2046     		mov	r0, r4
 1007 052e FFF7FEFF 		bl	lv_obj_add_style
 1008              	.LVL114:
 745:lvgl/src/extra/themes/default/lv_theme_default.c ****         lv_obj_add_style(obj, &styles->table_cell, LV_PART_ITEMS);
 1009              		.loc 1 745 9 is_stmt 1 view .LVU309
 745:lvgl/src/extra/themes/default/lv_theme_default.c ****         lv_obj_add_style(obj, &styles->table_cell, LV_PART_ITEMS);
 1010              		.loc 1 745 38 is_stmt 0 view .LVU310
 1011 0532 2968     		ldr	r1, [r5]
 745:lvgl/src/extra/themes/default/lv_theme_default.c ****         lv_obj_add_style(obj, &styles->table_cell, LV_PART_ITEMS);
 1012              		.loc 1 745 9 view .LVU311
 1013 0534 4FF4A022 		mov	r2, #327680
 1014 0538 5031     		adds	r1, r1, #80
 1015 053a 2046     		mov	r0, r4
 1016 053c FFF7FEFF 		bl	lv_obj_add_style
 1017              	.LVL115:
 746:lvgl/src/extra/themes/default/lv_theme_default.c ****         lv_obj_add_style(obj, &styles->pad_normal, LV_PART_ITEMS);
 1018              		.loc 1 746 9 is_stmt 1 view .LVU312
 746:lvgl/src/extra/themes/default/lv_theme_default.c ****         lv_obj_add_style(obj, &styles->pad_normal, LV_PART_ITEMS);
 1019              		.loc 1 746 38 is_stmt 0 view .LVU313
 1020 0540 2968     		ldr	r1, [r5]
 746:lvgl/src/extra/themes/default/lv_theme_default.c ****         lv_obj_add_style(obj, &styles->pad_normal, LV_PART_ITEMS);
 1021              		.loc 1 746 9 view .LVU314
 1022 0542 4FF4A022 		mov	r2, #327680
 1023 0546 01F5A871 		add	r1, r1, #336
 1024 054a 2046     		mov	r0, r4
 1025 054c FFF7FEFF 		bl	lv_obj_add_style
 1026              	.LVL116:
 747:lvgl/src/extra/themes/default/lv_theme_default.c ****         lv_obj_add_style(obj, &styles->pressed, LV_PART_ITEMS | LV_STATE_PRESSED);
 1027              		.loc 1 747 9 is_stmt 1 view .LVU315
 747:lvgl/src/extra/themes/default/lv_theme_default.c ****         lv_obj_add_style(obj, &styles->pressed, LV_PART_ITEMS | LV_STATE_PRESSED);
 1028              		.loc 1 747 38 is_stmt 0 view .LVU316
 1029 0550 2968     		ldr	r1, [r5]
 747:lvgl/src/extra/themes/default/lv_theme_default.c ****         lv_obj_add_style(obj, &styles->pressed, LV_PART_ITEMS | LV_STATE_PRESSED);
 1030              		.loc 1 747 9 view .LVU317
 1031 0552 4FF4A022 		mov	r2, #327680
 1032 0556 8031     		adds	r1, r1, #128
 1033 0558 2046     		mov	r0, r4
 1034 055a FFF7FEFF 		bl	lv_obj_add_style
 1035              	.LVL117:
 748:lvgl/src/extra/themes/default/lv_theme_default.c ****         lv_obj_add_style(obj, &styles->bg_color_primary, LV_PART_ITEMS | LV_STATE_FOCUS_KEY);
 1036              		.loc 1 748 9 is_stmt 1 view .LVU318
 748:lvgl/src/extra/themes/default/lv_theme_default.c ****         lv_obj_add_style(obj, &styles->bg_color_primary, LV_PART_ITEMS | LV_STATE_FOCUS_KEY);
 1037              		.loc 1 748 38 is_stmt 0 view .LVU319
 1038 055e 2968     		ldr	r1, [r5]
 748:lvgl/src/extra/themes/default/lv_theme_default.c ****         lv_obj_add_style(obj, &styles->bg_color_primary, LV_PART_ITEMS | LV_STATE_FOCUS_KEY);
 1039              		.loc 1 748 9 view .LVU320
 1040 0560 2E4A     		ldr	r2, .L55+4
 1041 0562 5831     		adds	r1, r1, #88
 1042 0564 2046     		mov	r0, r4
 1043 0566 FFF7FEFF 		bl	lv_obj_add_style
 1044              	.LVL118:
ARM GAS  /var/folders/k2/cd9bl_j17z77g23y6ffqb_400000gn/T//ccRoPncs.s 			page 42


 749:lvgl/src/extra/themes/default/lv_theme_default.c ****         lv_obj_add_style(obj, &styles->bg_color_secondary, LV_PART_ITEMS | LV_STATE_EDITED);
 1045              		.loc 1 749 9 is_stmt 1 view .LVU321
 749:lvgl/src/extra/themes/default/lv_theme_default.c ****         lv_obj_add_style(obj, &styles->bg_color_secondary, LV_PART_ITEMS | LV_STATE_EDITED);
 1046              		.loc 1 749 38 is_stmt 0 view .LVU322
 1047 056a 2968     		ldr	r1, [r5]
 749:lvgl/src/extra/themes/default/lv_theme_default.c ****         lv_obj_add_style(obj, &styles->bg_color_secondary, LV_PART_ITEMS | LV_STATE_EDITED);
 1048              		.loc 1 749 9 view .LVU323
 1049 056c 2E4A     		ldr	r2, .L55+16
 1050 056e 2831     		adds	r1, r1, #40
 1051 0570 2046     		mov	r0, r4
 1052 0572 FFF7FEFF 		bl	lv_obj_add_style
 1053              	.LVL119:
 750:lvgl/src/extra/themes/default/lv_theme_default.c ****     }
 1054              		.loc 1 750 9 is_stmt 1 view .LVU324
 750:lvgl/src/extra/themes/default/lv_theme_default.c ****     }
 1055              		.loc 1 750 38 is_stmt 0 view .LVU325
 1056 0576 2968     		ldr	r1, [r5]
 750:lvgl/src/extra/themes/default/lv_theme_default.c ****     }
 1057              		.loc 1 750 9 view .LVU326
 1058 0578 2C4A     		ldr	r2, .L55+20
 1059 057a 3831     		adds	r1, r1, #56
 1060 057c 2046     		mov	r0, r4
 1061 057e FFF7FEFF 		bl	lv_obj_add_style
 1062              	.LVL120:
 1063 0582 15E6     		b	.L8
 1064              	.L16:
 755:lvgl/src/extra/themes/default/lv_theme_default.c ****         lv_obj_add_style(obj, &styles->pad_gap, 0);
 1065              		.loc 1 755 10 is_stmt 1 view .LVU327
 755:lvgl/src/extra/themes/default/lv_theme_default.c ****         lv_obj_add_style(obj, &styles->pad_gap, 0);
 1066              		.loc 1 755 13 is_stmt 0 view .LVU328
 1067 0584 2F49     		ldr	r1, .L55+44
 1068 0586 2046     		mov	r0, r4
 1069 0588 FFF7FEFF 		bl	lv_obj_check_type
 1070              	.LVL121:
 755:lvgl/src/extra/themes/default/lv_theme_default.c ****         lv_obj_add_style(obj, &styles->pad_gap, 0);
 1071              		.loc 1 755 12 view .LVU329
 1072 058c 0028     		cmp	r0, #0
 1073 058e 5FD0     		beq	.L17
 756:lvgl/src/extra/themes/default/lv_theme_default.c ****         lv_obj_add_style(obj, &styles->outline_primary, LV_STATE_FOCUS_KEY);
 1074              		.loc 1 756 9 is_stmt 1 view .LVU330
 756:lvgl/src/extra/themes/default/lv_theme_default.c ****         lv_obj_add_style(obj, &styles->outline_primary, LV_STATE_FOCUS_KEY);
 1075              		.loc 1 756 38 is_stmt 0 view .LVU331
 1076 0590 214D     		ldr	r5, .L55
 1077 0592 2968     		ldr	r1, [r5]
 756:lvgl/src/extra/themes/default/lv_theme_default.c ****         lv_obj_add_style(obj, &styles->outline_primary, LV_STATE_FOCUS_KEY);
 1078              		.loc 1 756 9 view .LVU332
 1079 0594 0022     		movs	r2, #0
 1080 0596 8831     		adds	r1, r1, #136
 1081 0598 2046     		mov	r0, r4
 1082 059a FFF7FEFF 		bl	lv_obj_add_style
 1083              	.LVL122:
 757:lvgl/src/extra/themes/default/lv_theme_default.c ****         lv_obj_add_style(obj, &styles->disabled, LV_PART_INDICATOR | LV_STATE_DISABLED);
 1084              		.loc 1 757 9 is_stmt 1 view .LVU333
 757:lvgl/src/extra/themes/default/lv_theme_default.c ****         lv_obj_add_style(obj, &styles->disabled, LV_PART_INDICATOR | LV_STATE_DISABLED);
 1085              		.loc 1 757 38 is_stmt 0 view .LVU334
 1086 059e 2968     		ldr	r1, [r5]
 757:lvgl/src/extra/themes/default/lv_theme_default.c ****         lv_obj_add_style(obj, &styles->disabled, LV_PART_INDICATOR | LV_STATE_DISABLED);
ARM GAS  /var/folders/k2/cd9bl_j17z77g23y6ffqb_400000gn/T//ccRoPncs.s 			page 43


 1087              		.loc 1 757 9 view .LVU335
 1088 05a0 0422     		movs	r2, #4
 1089 05a2 A031     		adds	r1, r1, #160
 1090 05a4 2046     		mov	r0, r4
 1091 05a6 FFF7FEFF 		bl	lv_obj_add_style
 1092              	.LVL123:
 758:lvgl/src/extra/themes/default/lv_theme_default.c ****         lv_obj_add_style(obj, &styles->cb_marker, LV_PART_INDICATOR);
 1093              		.loc 1 758 9 is_stmt 1 view .LVU336
 758:lvgl/src/extra/themes/default/lv_theme_default.c ****         lv_obj_add_style(obj, &styles->cb_marker, LV_PART_INDICATOR);
 1094              		.loc 1 758 38 is_stmt 0 view .LVU337
 1095 05aa 2968     		ldr	r1, [r5]
 758:lvgl/src/extra/themes/default/lv_theme_default.c ****         lv_obj_add_style(obj, &styles->cb_marker, LV_PART_INDICATOR);
 1096              		.loc 1 758 9 view .LVU338
 1097 05ac 264A     		ldr	r2, .L55+48
 1098 05ae 6031     		adds	r1, r1, #96
 1099 05b0 2046     		mov	r0, r4
 1100 05b2 FFF7FEFF 		bl	lv_obj_add_style
 1101              	.LVL124:
 759:lvgl/src/extra/themes/default/lv_theme_default.c ****         lv_obj_add_style(obj, &styles->bg_color_primary, LV_PART_INDICATOR | LV_STATE_CHECKED);
 1102              		.loc 1 759 9 is_stmt 1 view .LVU339
 759:lvgl/src/extra/themes/default/lv_theme_default.c ****         lv_obj_add_style(obj, &styles->bg_color_primary, LV_PART_INDICATOR | LV_STATE_CHECKED);
 1103              		.loc 1 759 38 is_stmt 0 view .LVU340
 1104 05b6 2968     		ldr	r1, [r5]
 759:lvgl/src/extra/themes/default/lv_theme_default.c ****         lv_obj_add_style(obj, &styles->bg_color_primary, LV_PART_INDICATOR | LV_STATE_CHECKED);
 1105              		.loc 1 759 9 view .LVU341
 1106 05b8 4FF40032 		mov	r2, #131072
 1107 05bc 01F59871 		add	r1, r1, #304
 1108 05c0 2046     		mov	r0, r4
 1109 05c2 FFF7FEFF 		bl	lv_obj_add_style
 1110              	.LVL125:
 760:lvgl/src/extra/themes/default/lv_theme_default.c ****         lv_obj_add_style(obj, &styles->cb_marker_checked, LV_PART_INDICATOR | LV_STATE_CHECKED);
 1111              		.loc 1 760 9 is_stmt 1 view .LVU342
 760:lvgl/src/extra/themes/default/lv_theme_default.c ****         lv_obj_add_style(obj, &styles->cb_marker_checked, LV_PART_INDICATOR | LV_STATE_CHECKED);
 1112              		.loc 1 760 38 is_stmt 0 view .LVU343
 1113 05c6 2968     		ldr	r1, [r5]
 760:lvgl/src/extra/themes/default/lv_theme_default.c ****         lv_obj_add_style(obj, &styles->cb_marker_checked, LV_PART_INDICATOR | LV_STATE_CHECKED);
 1114              		.loc 1 760 9 view .LVU344
 1115 05c8 204E     		ldr	r6, .L55+52
 1116 05ca 3246     		mov	r2, r6
 1117 05cc 2831     		adds	r1, r1, #40
 1118 05ce 2046     		mov	r0, r4
 1119 05d0 FFF7FEFF 		bl	lv_obj_add_style
 1120              	.LVL126:
 761:lvgl/src/extra/themes/default/lv_theme_default.c ****         lv_obj_add_style(obj, &styles->pressed, LV_PART_INDICATOR | LV_STATE_PRESSED);
 1121              		.loc 1 761 9 is_stmt 1 view .LVU345
 761:lvgl/src/extra/themes/default/lv_theme_default.c ****         lv_obj_add_style(obj, &styles->pressed, LV_PART_INDICATOR | LV_STATE_PRESSED);
 1122              		.loc 1 761 38 is_stmt 0 view .LVU346
 1123 05d4 2968     		ldr	r1, [r5]
 761:lvgl/src/extra/themes/default/lv_theme_default.c ****         lv_obj_add_style(obj, &styles->pressed, LV_PART_INDICATOR | LV_STATE_PRESSED);
 1124              		.loc 1 761 9 view .LVU347
 1125 05d6 3246     		mov	r2, r6
 1126 05d8 01F59C71 		add	r1, r1, #312
 1127 05dc 2046     		mov	r0, r4
 1128 05de FFF7FEFF 		bl	lv_obj_add_style
 1129              	.LVL127:
 762:lvgl/src/extra/themes/default/lv_theme_default.c **** #if LV_THEME_DEFAULT_GROW
 1130              		.loc 1 762 9 is_stmt 1 view .LVU348
ARM GAS  /var/folders/k2/cd9bl_j17z77g23y6ffqb_400000gn/T//ccRoPncs.s 			page 44


 762:lvgl/src/extra/themes/default/lv_theme_default.c **** #if LV_THEME_DEFAULT_GROW
 1131              		.loc 1 762 38 is_stmt 0 view .LVU349
 1132 05e2 2968     		ldr	r1, [r5]
 762:lvgl/src/extra/themes/default/lv_theme_default.c **** #if LV_THEME_DEFAULT_GROW
 1133              		.loc 1 762 9 view .LVU350
 1134 05e4 1F36     		adds	r6, r6, #31
 1135 05e6 3246     		mov	r2, r6
 1136 05e8 5831     		adds	r1, r1, #88
 1137 05ea 2046     		mov	r0, r4
 1138 05ec FFF7FEFF 		bl	lv_obj_add_style
 1139              	.LVL128:
 764:lvgl/src/extra/themes/default/lv_theme_default.c **** #endif
 1140              		.loc 1 764 9 is_stmt 1 view .LVU351
 764:lvgl/src/extra/themes/default/lv_theme_default.c **** #endif
 1141              		.loc 1 764 38 is_stmt 0 view .LVU352
 1142 05f0 2968     		ldr	r1, [r5]
 764:lvgl/src/extra/themes/default/lv_theme_default.c **** #endif
 1143              		.loc 1 764 9 view .LVU353
 1144 05f2 3246     		mov	r2, r6
 1145 05f4 C831     		adds	r1, r1, #200
 1146 05f6 2046     		mov	r0, r4
 1147 05f8 FFF7FEFF 		bl	lv_obj_add_style
 1148              	.LVL129:
 766:lvgl/src/extra/themes/default/lv_theme_default.c ****         lv_obj_add_style(obj, &styles->transition_delayed, LV_PART_INDICATOR);
 1149              		.loc 1 766 9 is_stmt 1 view .LVU354
 766:lvgl/src/extra/themes/default/lv_theme_default.c ****         lv_obj_add_style(obj, &styles->transition_delayed, LV_PART_INDICATOR);
 1150              		.loc 1 766 38 is_stmt 0 view .LVU355
 1151 05fc 2968     		ldr	r1, [r5]
 766:lvgl/src/extra/themes/default/lv_theme_default.c ****         lv_obj_add_style(obj, &styles->transition_delayed, LV_PART_INDICATOR);
 1152              		.loc 1 766 9 view .LVU356
 1153 05fe 3246     		mov	r2, r6
 1154 0600 D831     		adds	r1, r1, #216
 1155 0602 2046     		mov	r0, r4
 1156 0604 FFF7FEFF 		bl	lv_obj_add_style
 1157              	.LVL130:
 767:lvgl/src/extra/themes/default/lv_theme_default.c ****     }
 1158              		.loc 1 767 9 is_stmt 1 view .LVU357
 767:lvgl/src/extra/themes/default/lv_theme_default.c ****     }
 1159              		.loc 1 767 38 is_stmt 0 view .LVU358
 1160 0608 2968     		ldr	r1, [r5]
 767:lvgl/src/extra/themes/default/lv_theme_default.c ****     }
 1161              		.loc 1 767 9 view .LVU359
 1162 060a 4FF40032 		mov	r2, #131072
 1163 060e D031     		adds	r1, r1, #208
 1164 0610 2046     		mov	r0, r4
 1165 0612 FFF7FEFF 		bl	lv_obj_add_style
 1166              	.LVL131:
 1167 0616 CBE5     		b	.L8
 1168              	.L56:
 1169              		.align	2
 1170              	.L55:
 1171 0618 00000000 		.word	.LANCHOR0
 1172 061c 20000500 		.word	327712
 1173 0620 80000500 		.word	327808
 1174 0624 01000500 		.word	327681
 1175 0628 04000500 		.word	327684
 1176 062c 08000500 		.word	327688
ARM GAS  /var/folders/k2/cd9bl_j17z77g23y6ffqb_400000gn/T//ccRoPncs.s 			page 45


 1177 0630 00000000 		.word	lv_bar_class
 1178 0634 00000000 		.word	lv_slider_class
 1179 0638 20000300 		.word	196640
 1180 063c 00000000 		.word	lv_table_class
 1181 0640 40000100 		.word	65600
 1182 0644 00000000 		.word	lv_checkbox_class
 1183 0648 80000200 		.word	131200
 1184 064c 01000200 		.word	131073
 1185              	.L17:
 772:lvgl/src/extra/themes/default/lv_theme_default.c ****         lv_obj_add_style(obj, &styles->bg_color_grey, 0);
 1186              		.loc 1 772 10 is_stmt 1 view .LVU360
 772:lvgl/src/extra/themes/default/lv_theme_default.c ****         lv_obj_add_style(obj, &styles->bg_color_grey, 0);
 1187              		.loc 1 772 13 is_stmt 0 view .LVU361
 1188 0650 C049     		ldr	r1, .L57
 1189 0652 2046     		mov	r0, r4
 1190 0654 FFF7FEFF 		bl	lv_obj_check_type
 1191              	.LVL132:
 772:lvgl/src/extra/themes/default/lv_theme_default.c ****         lv_obj_add_style(obj, &styles->bg_color_grey, 0);
 1192              		.loc 1 772 12 view .LVU362
 1193 0658 0028     		cmp	r0, #0
 1194 065a 48D0     		beq	.L18
 773:lvgl/src/extra/themes/default/lv_theme_default.c ****         lv_obj_add_style(obj, &styles->circle, 0);
 1195              		.loc 1 773 9 is_stmt 1 view .LVU363
 773:lvgl/src/extra/themes/default/lv_theme_default.c ****         lv_obj_add_style(obj, &styles->circle, 0);
 1196              		.loc 1 773 38 is_stmt 0 view .LVU364
 1197 065c BE4D     		ldr	r5, .L57+4
 1198 065e 2968     		ldr	r1, [r5]
 773:lvgl/src/extra/themes/default/lv_theme_default.c ****         lv_obj_add_style(obj, &styles->circle, 0);
 1199              		.loc 1 773 9 view .LVU365
 1200 0660 0022     		movs	r2, #0
 1201 0662 4831     		adds	r1, r1, #72
 1202 0664 2046     		mov	r0, r4
 1203 0666 FFF7FEFF 		bl	lv_obj_add_style
 1204              	.LVL133:
 774:lvgl/src/extra/themes/default/lv_theme_default.c ****         lv_obj_add_style(obj, &styles->disabled, LV_STATE_DISABLED);
 1205              		.loc 1 774 9 is_stmt 1 view .LVU366
 774:lvgl/src/extra/themes/default/lv_theme_default.c ****         lv_obj_add_style(obj, &styles->disabled, LV_STATE_DISABLED);
 1206              		.loc 1 774 38 is_stmt 0 view .LVU367
 1207 066a 2968     		ldr	r1, [r5]
 774:lvgl/src/extra/themes/default/lv_theme_default.c ****         lv_obj_add_style(obj, &styles->disabled, LV_STATE_DISABLED);
 1208              		.loc 1 774 9 view .LVU368
 1209 066c 0022     		movs	r2, #0
 1210 066e B031     		adds	r1, r1, #176
 1211 0670 2046     		mov	r0, r4
 1212 0672 FFF7FEFF 		bl	lv_obj_add_style
 1213              	.LVL134:
 775:lvgl/src/extra/themes/default/lv_theme_default.c ****         lv_obj_add_style(obj, &styles->outline_primary, LV_STATE_FOCUS_KEY);
 1214              		.loc 1 775 9 is_stmt 1 view .LVU369
 775:lvgl/src/extra/themes/default/lv_theme_default.c ****         lv_obj_add_style(obj, &styles->outline_primary, LV_STATE_FOCUS_KEY);
 1215              		.loc 1 775 38 is_stmt 0 view .LVU370
 1216 0676 2968     		ldr	r1, [r5]
 775:lvgl/src/extra/themes/default/lv_theme_default.c ****         lv_obj_add_style(obj, &styles->outline_primary, LV_STATE_FOCUS_KEY);
 1217              		.loc 1 775 9 view .LVU371
 1218 0678 8022     		movs	r2, #128
 1219 067a 6031     		adds	r1, r1, #96
 1220 067c 2046     		mov	r0, r4
 1221 067e FFF7FEFF 		bl	lv_obj_add_style
ARM GAS  /var/folders/k2/cd9bl_j17z77g23y6ffqb_400000gn/T//ccRoPncs.s 			page 46


 1222              	.LVL135:
 776:lvgl/src/extra/themes/default/lv_theme_default.c ****         lv_obj_add_style(obj, &styles->bg_color_primary, LV_PART_INDICATOR | LV_STATE_CHECKED);
 1223              		.loc 1 776 9 is_stmt 1 view .LVU372
 776:lvgl/src/extra/themes/default/lv_theme_default.c ****         lv_obj_add_style(obj, &styles->bg_color_primary, LV_PART_INDICATOR | LV_STATE_CHECKED);
 1224              		.loc 1 776 38 is_stmt 0 view .LVU373
 1225 0682 2968     		ldr	r1, [r5]
 776:lvgl/src/extra/themes/default/lv_theme_default.c ****         lv_obj_add_style(obj, &styles->bg_color_primary, LV_PART_INDICATOR | LV_STATE_CHECKED);
 1226              		.loc 1 776 9 view .LVU374
 1227 0684 0422     		movs	r2, #4
 1228 0686 A031     		adds	r1, r1, #160
 1229 0688 2046     		mov	r0, r4
 1230 068a FFF7FEFF 		bl	lv_obj_add_style
 1231              	.LVL136:
 777:lvgl/src/extra/themes/default/lv_theme_default.c ****         lv_obj_add_style(obj, &styles->circle, LV_PART_INDICATOR);
 1232              		.loc 1 777 9 is_stmt 1 view .LVU375
 777:lvgl/src/extra/themes/default/lv_theme_default.c ****         lv_obj_add_style(obj, &styles->circle, LV_PART_INDICATOR);
 1233              		.loc 1 777 38 is_stmt 0 view .LVU376
 1234 068e 2968     		ldr	r1, [r5]
 777:lvgl/src/extra/themes/default/lv_theme_default.c ****         lv_obj_add_style(obj, &styles->circle, LV_PART_INDICATOR);
 1235              		.loc 1 777 9 view .LVU377
 1236 0690 B24A     		ldr	r2, .L57+8
 1237 0692 2831     		adds	r1, r1, #40
 1238 0694 2046     		mov	r0, r4
 1239 0696 FFF7FEFF 		bl	lv_obj_add_style
 1240              	.LVL137:
 778:lvgl/src/extra/themes/default/lv_theme_default.c ****         lv_obj_add_style(obj, &styles->disabled, LV_PART_INDICATOR | LV_STATE_DISABLED);
 1241              		.loc 1 778 9 is_stmt 1 view .LVU378
 778:lvgl/src/extra/themes/default/lv_theme_default.c ****         lv_obj_add_style(obj, &styles->disabled, LV_PART_INDICATOR | LV_STATE_DISABLED);
 1242              		.loc 1 778 38 is_stmt 0 view .LVU379
 1243 069a 2968     		ldr	r1, [r5]
 778:lvgl/src/extra/themes/default/lv_theme_default.c ****         lv_obj_add_style(obj, &styles->disabled, LV_PART_INDICATOR | LV_STATE_DISABLED);
 1244              		.loc 1 778 9 view .LVU380
 1245 069c 4FF40032 		mov	r2, #131072
 1246 06a0 B031     		adds	r1, r1, #176
 1247 06a2 2046     		mov	r0, r4
 1248 06a4 FFF7FEFF 		bl	lv_obj_add_style
 1249              	.LVL138:
 779:lvgl/src/extra/themes/default/lv_theme_default.c ****         lv_obj_add_style(obj, &styles->knob, LV_PART_KNOB);
 1250              		.loc 1 779 9 is_stmt 1 view .LVU381
 779:lvgl/src/extra/themes/default/lv_theme_default.c ****         lv_obj_add_style(obj, &styles->knob, LV_PART_KNOB);
 1251              		.loc 1 779 38 is_stmt 0 view .LVU382
 1252 06a8 2968     		ldr	r1, [r5]
 779:lvgl/src/extra/themes/default/lv_theme_default.c ****         lv_obj_add_style(obj, &styles->knob, LV_PART_KNOB);
 1253              		.loc 1 779 9 view .LVU383
 1254 06aa AD4A     		ldr	r2, .L57+12
 1255 06ac 6031     		adds	r1, r1, #96
 1256 06ae 2046     		mov	r0, r4
 1257 06b0 FFF7FEFF 		bl	lv_obj_add_style
 1258              	.LVL139:
 780:lvgl/src/extra/themes/default/lv_theme_default.c ****         lv_obj_add_style(obj, &styles->bg_color_white, LV_PART_KNOB);
 1259              		.loc 1 780 9 is_stmt 1 view .LVU384
 780:lvgl/src/extra/themes/default/lv_theme_default.c ****         lv_obj_add_style(obj, &styles->bg_color_white, LV_PART_KNOB);
 1260              		.loc 1 780 38 is_stmt 0 view .LVU385
 1261 06b4 2968     		ldr	r1, [r5]
 780:lvgl/src/extra/themes/default/lv_theme_default.c ****         lv_obj_add_style(obj, &styles->bg_color_white, LV_PART_KNOB);
 1262              		.loc 1 780 9 view .LVU386
 1263 06b6 4FF44032 		mov	r2, #196608
ARM GAS  /var/folders/k2/cd9bl_j17z77g23y6ffqb_400000gn/T//ccRoPncs.s 			page 47


 1264 06ba E831     		adds	r1, r1, #232
 1265 06bc 2046     		mov	r0, r4
 1266 06be FFF7FEFF 		bl	lv_obj_add_style
 1267              	.LVL140:
 781:lvgl/src/extra/themes/default/lv_theme_default.c ****         lv_obj_add_style(obj, &styles->switch_knob, LV_PART_KNOB);
 1268              		.loc 1 781 9 is_stmt 1 view .LVU387
 781:lvgl/src/extra/themes/default/lv_theme_default.c ****         lv_obj_add_style(obj, &styles->switch_knob, LV_PART_KNOB);
 1269              		.loc 1 781 38 is_stmt 0 view .LVU388
 1270 06c2 2968     		ldr	r1, [r5]
 781:lvgl/src/extra/themes/default/lv_theme_default.c ****         lv_obj_add_style(obj, &styles->switch_knob, LV_PART_KNOB);
 1271              		.loc 1 781 9 view .LVU389
 1272 06c4 4FF44032 		mov	r2, #196608
 1273 06c8 5031     		adds	r1, r1, #80
 1274 06ca 2046     		mov	r0, r4
 1275 06cc FFF7FEFF 		bl	lv_obj_add_style
 1276              	.LVL141:
 782:lvgl/src/extra/themes/default/lv_theme_default.c ****         lv_obj_add_style(obj, &styles->disabled, LV_PART_KNOB | LV_STATE_DISABLED);
 1277              		.loc 1 782 9 is_stmt 1 view .LVU390
 782:lvgl/src/extra/themes/default/lv_theme_default.c ****         lv_obj_add_style(obj, &styles->disabled, LV_PART_KNOB | LV_STATE_DISABLED);
 1278              		.loc 1 782 38 is_stmt 0 view .LVU391
 1279 06d0 2968     		ldr	r1, [r5]
 782:lvgl/src/extra/themes/default/lv_theme_default.c ****         lv_obj_add_style(obj, &styles->disabled, LV_PART_KNOB | LV_STATE_DISABLED);
 1280              		.loc 1 782 9 view .LVU392
 1281 06d2 4FF44032 		mov	r2, #196608
 1282 06d6 01F5A071 		add	r1, r1, #320
 1283 06da 2046     		mov	r0, r4
 1284 06dc FFF7FEFF 		bl	lv_obj_add_style
 1285              	.LVL142:
 783:lvgl/src/extra/themes/default/lv_theme_default.c ****     }
 1286              		.loc 1 783 9 is_stmt 1 view .LVU393
 783:lvgl/src/extra/themes/default/lv_theme_default.c ****     }
 1287              		.loc 1 783 38 is_stmt 0 view .LVU394
 1288 06e0 2968     		ldr	r1, [r5]
 783:lvgl/src/extra/themes/default/lv_theme_default.c ****     }
 1289              		.loc 1 783 9 view .LVU395
 1290 06e2 A04A     		ldr	r2, .L57+16
 1291 06e4 6031     		adds	r1, r1, #96
 1292 06e6 2046     		mov	r0, r4
 1293 06e8 FFF7FEFF 		bl	lv_obj_add_style
 1294              	.LVL143:
 1295 06ec 60E5     		b	.L8
 1296              	.L18:
 788:lvgl/src/extra/themes/default/lv_theme_default.c ****         lv_obj_add_style(obj, &styles->card, 0);
 1297              		.loc 1 788 10 is_stmt 1 view .LVU396
 788:lvgl/src/extra/themes/default/lv_theme_default.c ****         lv_obj_add_style(obj, &styles->card, 0);
 1298              		.loc 1 788 13 is_stmt 0 view .LVU397
 1299 06ee 9E49     		ldr	r1, .L57+20
 1300 06f0 2046     		mov	r0, r4
 1301 06f2 FFF7FEFF 		bl	lv_obj_check_type
 1302              	.LVL144:
 788:lvgl/src/extra/themes/default/lv_theme_default.c ****         lv_obj_add_style(obj, &styles->card, 0);
 1303              		.loc 1 788 12 view .LVU398
 1304 06f6 0028     		cmp	r0, #0
 1305 06f8 41D0     		beq	.L19
 789:lvgl/src/extra/themes/default/lv_theme_default.c ****         lv_obj_add_style(obj, &styles->pad_small, 0);
 1306              		.loc 1 789 9 is_stmt 1 view .LVU399
 789:lvgl/src/extra/themes/default/lv_theme_default.c ****         lv_obj_add_style(obj, &styles->pad_small, 0);
ARM GAS  /var/folders/k2/cd9bl_j17z77g23y6ffqb_400000gn/T//ccRoPncs.s 			page 48


 1307              		.loc 1 789 38 is_stmt 0 view .LVU400
 1308 06fa 974D     		ldr	r5, .L57+4
 1309 06fc 2968     		ldr	r1, [r5]
 789:lvgl/src/extra/themes/default/lv_theme_default.c ****         lv_obj_add_style(obj, &styles->pad_small, 0);
 1310              		.loc 1 789 9 view .LVU401
 1311 06fe 0022     		movs	r2, #0
 1312 0700 1831     		adds	r1, r1, #24
 1313 0702 2046     		mov	r0, r4
 1314 0704 FFF7FEFF 		bl	lv_obj_add_style
 1315              	.LVL145:
 790:lvgl/src/extra/themes/default/lv_theme_default.c ****         lv_obj_add_style(obj, &styles->chart_bg, 0);
 1316              		.loc 1 790 9 is_stmt 1 view .LVU402
 790:lvgl/src/extra/themes/default/lv_theme_default.c ****         lv_obj_add_style(obj, &styles->chart_bg, 0);
 1317              		.loc 1 790 38 is_stmt 0 view .LVU403
 1318 0708 2968     		ldr	r1, [r5]
 790:lvgl/src/extra/themes/default/lv_theme_default.c ****         lv_obj_add_style(obj, &styles->chart_bg, 0);
 1319              		.loc 1 790 9 view .LVU404
 1320 070a 0022     		movs	r2, #0
 1321 070c 7831     		adds	r1, r1, #120
 1322 070e 2046     		mov	r0, r4
 1323 0710 FFF7FEFF 		bl	lv_obj_add_style
 1324              	.LVL146:
 791:lvgl/src/extra/themes/default/lv_theme_default.c ****         lv_obj_add_style(obj, &styles->scrollbar, LV_PART_SCROLLBAR);
 1325              		.loc 1 791 9 is_stmt 1 view .LVU405
 791:lvgl/src/extra/themes/default/lv_theme_default.c ****         lv_obj_add_style(obj, &styles->scrollbar, LV_PART_SCROLLBAR);
 1326              		.loc 1 791 38 is_stmt 0 view .LVU406
 1327 0714 2968     		ldr	r1, [r5]
 791:lvgl/src/extra/themes/default/lv_theme_default.c ****         lv_obj_add_style(obj, &styles->scrollbar, LV_PART_SCROLLBAR);
 1328              		.loc 1 791 9 view .LVU407
 1329 0716 0022     		movs	r2, #0
 1330 0718 01F59071 		add	r1, r1, #288
 1331 071c 2046     		mov	r0, r4
 1332 071e FFF7FEFF 		bl	lv_obj_add_style
 1333              	.LVL147:
 792:lvgl/src/extra/themes/default/lv_theme_default.c ****         lv_obj_add_style(obj, &styles->scrollbar_scrolled, LV_PART_SCROLLBAR | LV_STATE_SCROLLED);
 1334              		.loc 1 792 9 is_stmt 1 view .LVU408
 792:lvgl/src/extra/themes/default/lv_theme_default.c ****         lv_obj_add_style(obj, &styles->scrollbar_scrolled, LV_PART_SCROLLBAR | LV_STATE_SCROLLED);
 1335              		.loc 1 792 38 is_stmt 0 view .LVU409
 1336 0722 2968     		ldr	r1, [r5]
 792:lvgl/src/extra/themes/default/lv_theme_default.c ****         lv_obj_add_style(obj, &styles->scrollbar_scrolled, LV_PART_SCROLLBAR | LV_STATE_SCROLLED);
 1337              		.loc 1 792 9 view .LVU410
 1338 0724 4FF48032 		mov	r2, #65536
 1339 0728 0831     		adds	r1, r1, #8
 1340 072a 2046     		mov	r0, r4
 1341 072c FFF7FEFF 		bl	lv_obj_add_style
 1342              	.LVL148:
 793:lvgl/src/extra/themes/default/lv_theme_default.c ****         lv_obj_add_style(obj, &styles->chart_series, LV_PART_ITEMS);
 1343              		.loc 1 793 9 is_stmt 1 view .LVU411
 793:lvgl/src/extra/themes/default/lv_theme_default.c ****         lv_obj_add_style(obj, &styles->chart_series, LV_PART_ITEMS);
 1344              		.loc 1 793 38 is_stmt 0 view .LVU412
 1345 0730 2968     		ldr	r1, [r5]
 793:lvgl/src/extra/themes/default/lv_theme_default.c ****         lv_obj_add_style(obj, &styles->chart_series, LV_PART_ITEMS);
 1346              		.loc 1 793 9 view .LVU413
 1347 0732 8E4A     		ldr	r2, .L57+24
 1348 0734 1031     		adds	r1, r1, #16
 1349 0736 2046     		mov	r0, r4
 1350 0738 FFF7FEFF 		bl	lv_obj_add_style
ARM GAS  /var/folders/k2/cd9bl_j17z77g23y6ffqb_400000gn/T//ccRoPncs.s 			page 49


 1351              	.LVL149:
 794:lvgl/src/extra/themes/default/lv_theme_default.c ****         lv_obj_add_style(obj, &styles->chart_indic, LV_PART_INDICATOR);
 1352              		.loc 1 794 9 is_stmt 1 view .LVU414
 794:lvgl/src/extra/themes/default/lv_theme_default.c ****         lv_obj_add_style(obj, &styles->chart_indic, LV_PART_INDICATOR);
 1353              		.loc 1 794 38 is_stmt 0 view .LVU415
 1354 073c 2968     		ldr	r1, [r5]
 794:lvgl/src/extra/themes/default/lv_theme_default.c ****         lv_obj_add_style(obj, &styles->chart_indic, LV_PART_INDICATOR);
 1355              		.loc 1 794 9 view .LVU416
 1356 073e 4FF4A022 		mov	r2, #327680
 1357 0742 01F58471 		add	r1, r1, #264
 1358 0746 2046     		mov	r0, r4
 1359 0748 FFF7FEFF 		bl	lv_obj_add_style
 1360              	.LVL150:
 795:lvgl/src/extra/themes/default/lv_theme_default.c ****         lv_obj_add_style(obj, &styles->chart_ticks, LV_PART_TICKS);
 1361              		.loc 1 795 9 is_stmt 1 view .LVU417
 795:lvgl/src/extra/themes/default/lv_theme_default.c ****         lv_obj_add_style(obj, &styles->chart_ticks, LV_PART_TICKS);
 1362              		.loc 1 795 38 is_stmt 0 view .LVU418
 1363 074c 2968     		ldr	r1, [r5]
 795:lvgl/src/extra/themes/default/lv_theme_default.c ****         lv_obj_add_style(obj, &styles->chart_ticks, LV_PART_TICKS);
 1364              		.loc 1 795 9 view .LVU419
 1365 074e 4FF40032 		mov	r2, #131072
 1366 0752 01F58871 		add	r1, r1, #272
 1367 0756 2046     		mov	r0, r4
 1368 0758 FFF7FEFF 		bl	lv_obj_add_style
 1369              	.LVL151:
 796:lvgl/src/extra/themes/default/lv_theme_default.c ****         lv_obj_add_style(obj, &styles->chart_series, LV_PART_CURSOR);
 1370              		.loc 1 796 9 is_stmt 1 view .LVU420
 796:lvgl/src/extra/themes/default/lv_theme_default.c ****         lv_obj_add_style(obj, &styles->chart_series, LV_PART_CURSOR);
 1371              		.loc 1 796 38 is_stmt 0 view .LVU421
 1372 075c 2968     		ldr	r1, [r5]
 796:lvgl/src/extra/themes/default/lv_theme_default.c ****         lv_obj_add_style(obj, &styles->chart_series, LV_PART_CURSOR);
 1373              		.loc 1 796 9 view .LVU422
 1374 075e 4FF4C022 		mov	r2, #393216
 1375 0762 01F58C71 		add	r1, r1, #280
 1376 0766 2046     		mov	r0, r4
 1377 0768 FFF7FEFF 		bl	lv_obj_add_style
 1378              	.LVL152:
 797:lvgl/src/extra/themes/default/lv_theme_default.c ****     }
 1379              		.loc 1 797 9 is_stmt 1 view .LVU423
 797:lvgl/src/extra/themes/default/lv_theme_default.c ****     }
 1380              		.loc 1 797 38 is_stmt 0 view .LVU424
 1381 076c 2968     		ldr	r1, [r5]
 797:lvgl/src/extra/themes/default/lv_theme_default.c ****     }
 1382              		.loc 1 797 9 view .LVU425
 1383 076e 4FF4E022 		mov	r2, #458752
 1384 0772 01F58471 		add	r1, r1, #264
 1385 0776 2046     		mov	r0, r4
 1386 0778 FFF7FEFF 		bl	lv_obj_add_style
 1387              	.LVL153:
 1388 077c 18E5     		b	.L8
 1389              	.L19:
 802:lvgl/src/extra/themes/default/lv_theme_default.c ****         lv_obj_add_style(obj, &styles->card, 0);
 1390              		.loc 1 802 10 is_stmt 1 view .LVU426
 802:lvgl/src/extra/themes/default/lv_theme_default.c ****         lv_obj_add_style(obj, &styles->card, 0);
 1391              		.loc 1 802 13 is_stmt 0 view .LVU427
 1392 077e 7C49     		ldr	r1, .L57+28
 1393 0780 2046     		mov	r0, r4
ARM GAS  /var/folders/k2/cd9bl_j17z77g23y6ffqb_400000gn/T//ccRoPncs.s 			page 50


 1394 0782 FFF7FEFF 		bl	lv_obj_check_type
 1395              	.LVL154:
 802:lvgl/src/extra/themes/default/lv_theme_default.c ****         lv_obj_add_style(obj, &styles->card, 0);
 1396              		.loc 1 802 12 view .LVU428
 1397 0786 60B3     		cbz	r0, .L20
 803:lvgl/src/extra/themes/default/lv_theme_default.c ****         lv_obj_add_style(obj, &styles->anim, 0);
 1398              		.loc 1 803 9 is_stmt 1 view .LVU429
 803:lvgl/src/extra/themes/default/lv_theme_default.c ****         lv_obj_add_style(obj, &styles->anim, 0);
 1399              		.loc 1 803 38 is_stmt 0 view .LVU430
 1400 0788 734D     		ldr	r5, .L57+4
 1401 078a 2968     		ldr	r1, [r5]
 803:lvgl/src/extra/themes/default/lv_theme_default.c ****         lv_obj_add_style(obj, &styles->anim, 0);
 1402              		.loc 1 803 9 view .LVU431
 1403 078c 0022     		movs	r2, #0
 1404 078e 1831     		adds	r1, r1, #24
 1405 0790 2046     		mov	r0, r4
 1406 0792 FFF7FEFF 		bl	lv_obj_add_style
 1407              	.LVL155:
 804:lvgl/src/extra/themes/default/lv_theme_default.c ****         lv_obj_add_style(obj, &styles->line_space_large, 0);
 1408              		.loc 1 804 9 is_stmt 1 view .LVU432
 804:lvgl/src/extra/themes/default/lv_theme_default.c ****         lv_obj_add_style(obj, &styles->line_space_large, 0);
 1409              		.loc 1 804 38 is_stmt 0 view .LVU433
 1410 0796 2968     		ldr	r1, [r5]
 804:lvgl/src/extra/themes/default/lv_theme_default.c ****         lv_obj_add_style(obj, &styles->line_space_large, 0);
 1411              		.loc 1 804 9 view .LVU434
 1412 0798 0022     		movs	r2, #0
 1413 079a E031     		adds	r1, r1, #224
 1414 079c 2046     		mov	r0, r4
 1415 079e FFF7FEFF 		bl	lv_obj_add_style
 1416              	.LVL156:
 805:lvgl/src/extra/themes/default/lv_theme_default.c ****         lv_obj_add_style(obj, &styles->text_align_center, 0);
 1417              		.loc 1 805 9 is_stmt 1 view .LVU435
 805:lvgl/src/extra/themes/default/lv_theme_default.c ****         lv_obj_add_style(obj, &styles->text_align_center, 0);
 1418              		.loc 1 805 38 is_stmt 0 view .LVU436
 1419 07a2 2968     		ldr	r1, [r5]
 805:lvgl/src/extra/themes/default/lv_theme_default.c ****         lv_obj_add_style(obj, &styles->text_align_center, 0);
 1420              		.loc 1 805 9 view .LVU437
 1421 07a4 0022     		movs	r2, #0
 1422 07a6 9031     		adds	r1, r1, #144
 1423 07a8 2046     		mov	r0, r4
 1424 07aa FFF7FEFF 		bl	lv_obj_add_style
 1425              	.LVL157:
 806:lvgl/src/extra/themes/default/lv_theme_default.c ****         lv_obj_add_style(obj, &styles->outline_primary, LV_STATE_FOCUS_KEY);
 1426              		.loc 1 806 9 is_stmt 1 view .LVU438
 806:lvgl/src/extra/themes/default/lv_theme_default.c ****         lv_obj_add_style(obj, &styles->outline_primary, LV_STATE_FOCUS_KEY);
 1427              		.loc 1 806 38 is_stmt 0 view .LVU439
 1428 07ae 2968     		ldr	r1, [r5]
 806:lvgl/src/extra/themes/default/lv_theme_default.c ****         lv_obj_add_style(obj, &styles->outline_primary, LV_STATE_FOCUS_KEY);
 1429              		.loc 1 806 9 view .LVU440
 1430 07b0 0022     		movs	r2, #0
 1431 07b2 9831     		adds	r1, r1, #152
 1432 07b4 2046     		mov	r0, r4
 1433 07b6 FFF7FEFF 		bl	lv_obj_add_style
 1434              	.LVL158:
 807:lvgl/src/extra/themes/default/lv_theme_default.c ****         lv_obj_add_style(obj, &styles->outline_secondary, LV_STATE_EDITED);
 1435              		.loc 1 807 9 is_stmt 1 view .LVU441
 807:lvgl/src/extra/themes/default/lv_theme_default.c ****         lv_obj_add_style(obj, &styles->outline_secondary, LV_STATE_EDITED);
ARM GAS  /var/folders/k2/cd9bl_j17z77g23y6ffqb_400000gn/T//ccRoPncs.s 			page 51


 1436              		.loc 1 807 38 is_stmt 0 view .LVU442
 1437 07ba 2968     		ldr	r1, [r5]
 807:lvgl/src/extra/themes/default/lv_theme_default.c ****         lv_obj_add_style(obj, &styles->outline_secondary, LV_STATE_EDITED);
 1438              		.loc 1 807 9 view .LVU443
 1439 07bc 0422     		movs	r2, #4
 1440 07be A031     		adds	r1, r1, #160
 1441 07c0 2046     		mov	r0, r4
 1442 07c2 FFF7FEFF 		bl	lv_obj_add_style
 1443              	.LVL159:
 808:lvgl/src/extra/themes/default/lv_theme_default.c ****         lv_obj_add_style(obj, &styles->bg_color_primary, LV_PART_SELECTED);
 1444              		.loc 1 808 9 is_stmt 1 view .LVU444
 808:lvgl/src/extra/themes/default/lv_theme_default.c ****         lv_obj_add_style(obj, &styles->bg_color_primary, LV_PART_SELECTED);
 1445              		.loc 1 808 38 is_stmt 0 view .LVU445
 1446 07c6 2968     		ldr	r1, [r5]
 808:lvgl/src/extra/themes/default/lv_theme_default.c ****         lv_obj_add_style(obj, &styles->bg_color_primary, LV_PART_SELECTED);
 1447              		.loc 1 808 9 view .LVU446
 1448 07c8 0822     		movs	r2, #8
 1449 07ca A831     		adds	r1, r1, #168
 1450 07cc 2046     		mov	r0, r4
 1451 07ce FFF7FEFF 		bl	lv_obj_add_style
 1452              	.LVL160:
 809:lvgl/src/extra/themes/default/lv_theme_default.c ****     }
 1453              		.loc 1 809 9 is_stmt 1 view .LVU447
 809:lvgl/src/extra/themes/default/lv_theme_default.c ****     }
 1454              		.loc 1 809 38 is_stmt 0 view .LVU448
 1455 07d2 2968     		ldr	r1, [r5]
 809:lvgl/src/extra/themes/default/lv_theme_default.c ****     }
 1456              		.loc 1 809 9 view .LVU449
 1457 07d4 4FF48022 		mov	r2, #262144
 1458 07d8 2831     		adds	r1, r1, #40
 1459 07da 2046     		mov	r0, r4
 1460 07dc FFF7FEFF 		bl	lv_obj_add_style
 1461              	.LVL161:
 1462 07e0 E6E4     		b	.L8
 1463              	.L20:
 814:lvgl/src/extra/themes/default/lv_theme_default.c ****         lv_obj_add_style(obj, &styles->card, 0);
 1464              		.loc 1 814 10 is_stmt 1 view .LVU450
 814:lvgl/src/extra/themes/default/lv_theme_default.c ****         lv_obj_add_style(obj, &styles->card, 0);
 1465              		.loc 1 814 13 is_stmt 0 view .LVU451
 1466 07e2 6449     		ldr	r1, .L57+32
 1467 07e4 2046     		mov	r0, r4
 1468 07e6 FFF7FEFF 		bl	lv_obj_check_type
 1469              	.LVL162:
 814:lvgl/src/extra/themes/default/lv_theme_default.c ****         lv_obj_add_style(obj, &styles->card, 0);
 1470              		.loc 1 814 12 view .LVU452
 1471 07ea 90B3     		cbz	r0, .L21
 815:lvgl/src/extra/themes/default/lv_theme_default.c ****         lv_obj_add_style(obj, &styles->pad_small, 0);
 1472              		.loc 1 815 9 is_stmt 1 view .LVU453
 815:lvgl/src/extra/themes/default/lv_theme_default.c ****         lv_obj_add_style(obj, &styles->pad_small, 0);
 1473              		.loc 1 815 38 is_stmt 0 view .LVU454
 1474 07ec 5A4D     		ldr	r5, .L57+4
 1475 07ee 2968     		ldr	r1, [r5]
 815:lvgl/src/extra/themes/default/lv_theme_default.c ****         lv_obj_add_style(obj, &styles->pad_small, 0);
 1476              		.loc 1 815 9 view .LVU455
 1477 07f0 0022     		movs	r2, #0
 1478 07f2 1831     		adds	r1, r1, #24
 1479 07f4 2046     		mov	r0, r4
ARM GAS  /var/folders/k2/cd9bl_j17z77g23y6ffqb_400000gn/T//ccRoPncs.s 			page 52


 1480 07f6 FFF7FEFF 		bl	lv_obj_add_style
 1481              	.LVL163:
 816:lvgl/src/extra/themes/default/lv_theme_default.c ****         lv_obj_add_style(obj, &styles->transition_delayed, 0);
 1482              		.loc 1 816 9 is_stmt 1 view .LVU456
 816:lvgl/src/extra/themes/default/lv_theme_default.c ****         lv_obj_add_style(obj, &styles->transition_delayed, 0);
 1483              		.loc 1 816 38 is_stmt 0 view .LVU457
 1484 07fa 2968     		ldr	r1, [r5]
 816:lvgl/src/extra/themes/default/lv_theme_default.c ****         lv_obj_add_style(obj, &styles->transition_delayed, 0);
 1485              		.loc 1 816 9 view .LVU458
 1486 07fc 0022     		movs	r2, #0
 1487 07fe 7831     		adds	r1, r1, #120
 1488 0800 2046     		mov	r0, r4
 1489 0802 FFF7FEFF 		bl	lv_obj_add_style
 1490              	.LVL164:
 817:lvgl/src/extra/themes/default/lv_theme_default.c ****         lv_obj_add_style(obj, &styles->transition_normal, LV_STATE_PRESSED);
 1491              		.loc 1 817 9 is_stmt 1 view .LVU459
 817:lvgl/src/extra/themes/default/lv_theme_default.c ****         lv_obj_add_style(obj, &styles->transition_normal, LV_STATE_PRESSED);
 1492              		.loc 1 817 38 is_stmt 0 view .LVU460
 1493 0806 2968     		ldr	r1, [r5]
 817:lvgl/src/extra/themes/default/lv_theme_default.c ****         lv_obj_add_style(obj, &styles->transition_normal, LV_STATE_PRESSED);
 1494              		.loc 1 817 9 view .LVU461
 1495 0808 0022     		movs	r2, #0
 1496 080a D031     		adds	r1, r1, #208
 1497 080c 2046     		mov	r0, r4
 1498 080e FFF7FEFF 		bl	lv_obj_add_style
 1499              	.LVL165:
 818:lvgl/src/extra/themes/default/lv_theme_default.c ****         lv_obj_add_style(obj, &styles->pressed, LV_STATE_PRESSED);
 1500              		.loc 1 818 9 is_stmt 1 view .LVU462
 818:lvgl/src/extra/themes/default/lv_theme_default.c ****         lv_obj_add_style(obj, &styles->pressed, LV_STATE_PRESSED);
 1501              		.loc 1 818 38 is_stmt 0 view .LVU463
 1502 0812 2968     		ldr	r1, [r5]
 818:lvgl/src/extra/themes/default/lv_theme_default.c ****         lv_obj_add_style(obj, &styles->pressed, LV_STATE_PRESSED);
 1503              		.loc 1 818 9 view .LVU464
 1504 0814 2022     		movs	r2, #32
 1505 0816 D831     		adds	r1, r1, #216
 1506 0818 2046     		mov	r0, r4
 1507 081a FFF7FEFF 		bl	lv_obj_add_style
 1508              	.LVL166:
 819:lvgl/src/extra/themes/default/lv_theme_default.c ****         lv_obj_add_style(obj, &styles->outline_primary, LV_STATE_FOCUS_KEY);
 1509              		.loc 1 819 9 is_stmt 1 view .LVU465
 819:lvgl/src/extra/themes/default/lv_theme_default.c ****         lv_obj_add_style(obj, &styles->outline_primary, LV_STATE_FOCUS_KEY);
 1510              		.loc 1 819 38 is_stmt 0 view .LVU466
 1511 081e 2968     		ldr	r1, [r5]
 819:lvgl/src/extra/themes/default/lv_theme_default.c ****         lv_obj_add_style(obj, &styles->outline_primary, LV_STATE_FOCUS_KEY);
 1512              		.loc 1 819 9 view .LVU467
 1513 0820 2022     		movs	r2, #32
 1514 0822 5831     		adds	r1, r1, #88
 1515 0824 2046     		mov	r0, r4
 1516 0826 FFF7FEFF 		bl	lv_obj_add_style
 1517              	.LVL167:
 820:lvgl/src/extra/themes/default/lv_theme_default.c ****         lv_obj_add_style(obj, &styles->outline_secondary, LV_STATE_EDITED);
 1518              		.loc 1 820 9 is_stmt 1 view .LVU468
 820:lvgl/src/extra/themes/default/lv_theme_default.c ****         lv_obj_add_style(obj, &styles->outline_secondary, LV_STATE_EDITED);
 1519              		.loc 1 820 38 is_stmt 0 view .LVU469
 1520 082a 2968     		ldr	r1, [r5]
 820:lvgl/src/extra/themes/default/lv_theme_default.c ****         lv_obj_add_style(obj, &styles->outline_secondary, LV_STATE_EDITED);
 1521              		.loc 1 820 9 view .LVU470
ARM GAS  /var/folders/k2/cd9bl_j17z77g23y6ffqb_400000gn/T//ccRoPncs.s 			page 53


 1522 082c 0422     		movs	r2, #4
 1523 082e A031     		adds	r1, r1, #160
 1524 0830 2046     		mov	r0, r4
 1525 0832 FFF7FEFF 		bl	lv_obj_add_style
 1526              	.LVL168:
 821:lvgl/src/extra/themes/default/lv_theme_default.c ****         lv_obj_add_style(obj, &styles->transition_normal, LV_PART_INDICATOR);
 1527              		.loc 1 821 9 is_stmt 1 view .LVU471
 821:lvgl/src/extra/themes/default/lv_theme_default.c ****         lv_obj_add_style(obj, &styles->transition_normal, LV_PART_INDICATOR);
 1528              		.loc 1 821 38 is_stmt 0 view .LVU472
 1529 0836 2968     		ldr	r1, [r5]
 821:lvgl/src/extra/themes/default/lv_theme_default.c ****         lv_obj_add_style(obj, &styles->transition_normal, LV_PART_INDICATOR);
 1530              		.loc 1 821 9 view .LVU473
 1531 0838 0822     		movs	r2, #8
 1532 083a A831     		adds	r1, r1, #168
 1533 083c 2046     		mov	r0, r4
 1534 083e FFF7FEFF 		bl	lv_obj_add_style
 1535              	.LVL169:
 822:lvgl/src/extra/themes/default/lv_theme_default.c ****     }
 1536              		.loc 1 822 9 is_stmt 1 view .LVU474
 822:lvgl/src/extra/themes/default/lv_theme_default.c ****     }
 1537              		.loc 1 822 38 is_stmt 0 view .LVU475
 1538 0842 2968     		ldr	r1, [r5]
 822:lvgl/src/extra/themes/default/lv_theme_default.c ****     }
 1539              		.loc 1 822 9 view .LVU476
 1540 0844 4FF40032 		mov	r2, #131072
 1541 0848 D831     		adds	r1, r1, #216
 1542 084a 2046     		mov	r0, r4
 1543 084c FFF7FEFF 		bl	lv_obj_add_style
 1544              	.LVL170:
 1545 0850 AEE4     		b	.L8
 1546              	.L21:
 824:lvgl/src/extra/themes/default/lv_theme_default.c ****         lv_obj_add_style(obj, &styles->card, 0);
 1547              		.loc 1 824 10 is_stmt 1 view .LVU477
 824:lvgl/src/extra/themes/default/lv_theme_default.c ****         lv_obj_add_style(obj, &styles->card, 0);
 1548              		.loc 1 824 13 is_stmt 0 view .LVU478
 1549 0852 4949     		ldr	r1, .L57+36
 1550 0854 2046     		mov	r0, r4
 1551 0856 FFF7FEFF 		bl	lv_obj_check_type
 1552              	.LVL171:
 824:lvgl/src/extra/themes/default/lv_theme_default.c ****         lv_obj_add_style(obj, &styles->card, 0);
 1553              		.loc 1 824 12 view .LVU479
 1554 085a 0028     		cmp	r0, #0
 1555 085c 3AD0     		beq	.L22
 825:lvgl/src/extra/themes/default/lv_theme_default.c ****         lv_obj_add_style(obj, &styles->clip_corner, 0);
 1556              		.loc 1 825 9 is_stmt 1 view .LVU480
 825:lvgl/src/extra/themes/default/lv_theme_default.c ****         lv_obj_add_style(obj, &styles->clip_corner, 0);
 1557              		.loc 1 825 38 is_stmt 0 view .LVU481
 1558 085e 3E4D     		ldr	r5, .L57+4
 1559 0860 2968     		ldr	r1, [r5]
 825:lvgl/src/extra/themes/default/lv_theme_default.c ****         lv_obj_add_style(obj, &styles->clip_corner, 0);
 1560              		.loc 1 825 9 view .LVU482
 1561 0862 0022     		movs	r2, #0
 1562 0864 1831     		adds	r1, r1, #24
 1563 0866 2046     		mov	r0, r4
 1564 0868 FFF7FEFF 		bl	lv_obj_add_style
 1565              	.LVL172:
 826:lvgl/src/extra/themes/default/lv_theme_default.c ****         lv_obj_add_style(obj, &styles->line_space_large, 0);
ARM GAS  /var/folders/k2/cd9bl_j17z77g23y6ffqb_400000gn/T//ccRoPncs.s 			page 54


 1566              		.loc 1 826 9 is_stmt 1 view .LVU483
 826:lvgl/src/extra/themes/default/lv_theme_default.c ****         lv_obj_add_style(obj, &styles->line_space_large, 0);
 1567              		.loc 1 826 38 is_stmt 0 view .LVU484
 1568 086c 2968     		ldr	r1, [r5]
 826:lvgl/src/extra/themes/default/lv_theme_default.c ****         lv_obj_add_style(obj, &styles->line_space_large, 0);
 1569              		.loc 1 826 9 view .LVU485
 1570 086e 0022     		movs	r2, #0
 1571 0870 C031     		adds	r1, r1, #192
 1572 0872 2046     		mov	r0, r4
 1573 0874 FFF7FEFF 		bl	lv_obj_add_style
 1574              	.LVL173:
 827:lvgl/src/extra/themes/default/lv_theme_default.c ****         lv_obj_add_style(obj, &styles->dropdown_list, 0);
 1575              		.loc 1 827 9 is_stmt 1 view .LVU486
 827:lvgl/src/extra/themes/default/lv_theme_default.c ****         lv_obj_add_style(obj, &styles->dropdown_list, 0);
 1576              		.loc 1 827 38 is_stmt 0 view .LVU487
 1577 0878 2968     		ldr	r1, [r5]
 827:lvgl/src/extra/themes/default/lv_theme_default.c ****         lv_obj_add_style(obj, &styles->dropdown_list, 0);
 1578              		.loc 1 827 9 view .LVU488
 1579 087a 0022     		movs	r2, #0
 1580 087c 9031     		adds	r1, r1, #144
 1581 087e 2046     		mov	r0, r4
 1582 0880 FFF7FEFF 		bl	lv_obj_add_style
 1583              	.LVL174:
 828:lvgl/src/extra/themes/default/lv_theme_default.c ****         lv_obj_add_style(obj, &styles->scrollbar, LV_PART_SCROLLBAR);
 1584              		.loc 1 828 9 is_stmt 1 view .LVU489
 828:lvgl/src/extra/themes/default/lv_theme_default.c ****         lv_obj_add_style(obj, &styles->scrollbar, LV_PART_SCROLLBAR);
 1585              		.loc 1 828 38 is_stmt 0 view .LVU490
 1586 0884 2968     		ldr	r1, [r5]
 828:lvgl/src/extra/themes/default/lv_theme_default.c ****         lv_obj_add_style(obj, &styles->scrollbar, LV_PART_SCROLLBAR);
 1587              		.loc 1 828 9 view .LVU491
 1588 0886 0022     		movs	r2, #0
 1589 0888 01F59471 		add	r1, r1, #296
 1590 088c 2046     		mov	r0, r4
 1591 088e FFF7FEFF 		bl	lv_obj_add_style
 1592              	.LVL175:
 829:lvgl/src/extra/themes/default/lv_theme_default.c ****         lv_obj_add_style(obj, &styles->scrollbar_scrolled, LV_PART_SCROLLBAR | LV_STATE_SCROLLED);
 1593              		.loc 1 829 9 is_stmt 1 view .LVU492
 829:lvgl/src/extra/themes/default/lv_theme_default.c ****         lv_obj_add_style(obj, &styles->scrollbar_scrolled, LV_PART_SCROLLBAR | LV_STATE_SCROLLED);
 1594              		.loc 1 829 38 is_stmt 0 view .LVU493
 1595 0892 2968     		ldr	r1, [r5]
 829:lvgl/src/extra/themes/default/lv_theme_default.c ****         lv_obj_add_style(obj, &styles->scrollbar_scrolled, LV_PART_SCROLLBAR | LV_STATE_SCROLLED);
 1596              		.loc 1 829 9 view .LVU494
 1597 0894 4FF48032 		mov	r2, #65536
 1598 0898 0831     		adds	r1, r1, #8
 1599 089a 2046     		mov	r0, r4
 1600 089c FFF7FEFF 		bl	lv_obj_add_style
 1601              	.LVL176:
 830:lvgl/src/extra/themes/default/lv_theme_default.c ****         lv_obj_add_style(obj, &styles->bg_color_white, LV_PART_SELECTED);
 1602              		.loc 1 830 9 is_stmt 1 view .LVU495
 830:lvgl/src/extra/themes/default/lv_theme_default.c ****         lv_obj_add_style(obj, &styles->bg_color_white, LV_PART_SELECTED);
 1603              		.loc 1 830 38 is_stmt 0 view .LVU496
 1604 08a0 2968     		ldr	r1, [r5]
 830:lvgl/src/extra/themes/default/lv_theme_default.c ****         lv_obj_add_style(obj, &styles->bg_color_white, LV_PART_SELECTED);
 1605              		.loc 1 830 9 view .LVU497
 1606 08a2 324A     		ldr	r2, .L57+24
 1607 08a4 1031     		adds	r1, r1, #16
 1608 08a6 2046     		mov	r0, r4
ARM GAS  /var/folders/k2/cd9bl_j17z77g23y6ffqb_400000gn/T//ccRoPncs.s 			page 55


 1609 08a8 FFF7FEFF 		bl	lv_obj_add_style
 1610              	.LVL177:
 831:lvgl/src/extra/themes/default/lv_theme_default.c ****         lv_obj_add_style(obj, &styles->bg_color_primary, LV_PART_SELECTED | LV_STATE_CHECKED);
 1611              		.loc 1 831 9 is_stmt 1 view .LVU498
 831:lvgl/src/extra/themes/default/lv_theme_default.c ****         lv_obj_add_style(obj, &styles->bg_color_primary, LV_PART_SELECTED | LV_STATE_CHECKED);
 1612              		.loc 1 831 38 is_stmt 0 view .LVU499
 1613 08ac 2968     		ldr	r1, [r5]
 831:lvgl/src/extra/themes/default/lv_theme_default.c ****         lv_obj_add_style(obj, &styles->bg_color_primary, LV_PART_SELECTED | LV_STATE_CHECKED);
 1614              		.loc 1 831 9 view .LVU500
 1615 08ae 4FF48022 		mov	r2, #262144
 1616 08b2 5031     		adds	r1, r1, #80
 1617 08b4 2046     		mov	r0, r4
 1618 08b6 FFF7FEFF 		bl	lv_obj_add_style
 1619              	.LVL178:
 832:lvgl/src/extra/themes/default/lv_theme_default.c ****         lv_obj_add_style(obj, &styles->pressed, LV_PART_SELECTED | LV_STATE_PRESSED);
 1620              		.loc 1 832 9 is_stmt 1 view .LVU501
 832:lvgl/src/extra/themes/default/lv_theme_default.c ****         lv_obj_add_style(obj, &styles->pressed, LV_PART_SELECTED | LV_STATE_PRESSED);
 1621              		.loc 1 832 38 is_stmt 0 view .LVU502
 1622 08ba 2968     		ldr	r1, [r5]
 832:lvgl/src/extra/themes/default/lv_theme_default.c ****         lv_obj_add_style(obj, &styles->pressed, LV_PART_SELECTED | LV_STATE_PRESSED);
 1623              		.loc 1 832 9 view .LVU503
 1624 08bc 2F4A     		ldr	r2, .L57+40
 1625 08be 2831     		adds	r1, r1, #40
 1626 08c0 2046     		mov	r0, r4
 1627 08c2 FFF7FEFF 		bl	lv_obj_add_style
 1628              	.LVL179:
 833:lvgl/src/extra/themes/default/lv_theme_default.c ****     }
 1629              		.loc 1 833 9 is_stmt 1 view .LVU504
 833:lvgl/src/extra/themes/default/lv_theme_default.c ****     }
 1630              		.loc 1 833 38 is_stmt 0 view .LVU505
 1631 08c6 2968     		ldr	r1, [r5]
 833:lvgl/src/extra/themes/default/lv_theme_default.c ****     }
 1632              		.loc 1 833 9 view .LVU506
 1633 08c8 2D4A     		ldr	r2, .L57+44
 1634 08ca 5831     		adds	r1, r1, #88
 1635 08cc 2046     		mov	r0, r4
 1636 08ce FFF7FEFF 		bl	lv_obj_add_style
 1637              	.LVL180:
 1638 08d2 6DE4     		b	.L8
 1639              	.L22:
 838:lvgl/src/extra/themes/default/lv_theme_default.c ****         lv_obj_add_style(obj, &styles->arc_indic, 0);
 1640              		.loc 1 838 10 is_stmt 1 view .LVU507
 838:lvgl/src/extra/themes/default/lv_theme_default.c ****         lv_obj_add_style(obj, &styles->arc_indic, 0);
 1641              		.loc 1 838 13 is_stmt 0 view .LVU508
 1642 08d4 2B49     		ldr	r1, .L57+48
 1643 08d6 2046     		mov	r0, r4
 1644 08d8 FFF7FEFF 		bl	lv_obj_check_type
 1645              	.LVL181:
 838:lvgl/src/extra/themes/default/lv_theme_default.c ****         lv_obj_add_style(obj, &styles->arc_indic, 0);
 1646              		.loc 1 838 12 view .LVU509
 1647 08dc E8B1     		cbz	r0, .L23
 839:lvgl/src/extra/themes/default/lv_theme_default.c ****         lv_obj_add_style(obj, &styles->arc_indic, LV_PART_INDICATOR);
 1648              		.loc 1 839 9 is_stmt 1 view .LVU510
 839:lvgl/src/extra/themes/default/lv_theme_default.c ****         lv_obj_add_style(obj, &styles->arc_indic, LV_PART_INDICATOR);
 1649              		.loc 1 839 38 is_stmt 0 view .LVU511
 1650 08de 1E4D     		ldr	r5, .L57+4
 1651 08e0 2968     		ldr	r1, [r5]
ARM GAS  /var/folders/k2/cd9bl_j17z77g23y6ffqb_400000gn/T//ccRoPncs.s 			page 56


 839:lvgl/src/extra/themes/default/lv_theme_default.c ****         lv_obj_add_style(obj, &styles->arc_indic, LV_PART_INDICATOR);
 1652              		.loc 1 839 9 view .LVU512
 1653 08e2 0022     		movs	r2, #0
 1654 08e4 F831     		adds	r1, r1, #248
 1655 08e6 2046     		mov	r0, r4
 1656 08e8 FFF7FEFF 		bl	lv_obj_add_style
 1657              	.LVL182:
 840:lvgl/src/extra/themes/default/lv_theme_default.c ****         lv_obj_add_style(obj, &styles->arc_indic_primary, LV_PART_INDICATOR);
 1658              		.loc 1 840 9 is_stmt 1 view .LVU513
 840:lvgl/src/extra/themes/default/lv_theme_default.c ****         lv_obj_add_style(obj, &styles->arc_indic_primary, LV_PART_INDICATOR);
 1659              		.loc 1 840 38 is_stmt 0 view .LVU514
 1660 08ec 2968     		ldr	r1, [r5]
 840:lvgl/src/extra/themes/default/lv_theme_default.c ****         lv_obj_add_style(obj, &styles->arc_indic_primary, LV_PART_INDICATOR);
 1661              		.loc 1 840 9 view .LVU515
 1662 08ee 4FF40032 		mov	r2, #131072
 1663 08f2 F831     		adds	r1, r1, #248
 1664 08f4 2046     		mov	r0, r4
 1665 08f6 FFF7FEFF 		bl	lv_obj_add_style
 1666              	.LVL183:
 841:lvgl/src/extra/themes/default/lv_theme_default.c ****         lv_obj_add_style(obj, &styles->knob, LV_PART_KNOB);
 1667              		.loc 1 841 9 is_stmt 1 view .LVU516
 841:lvgl/src/extra/themes/default/lv_theme_default.c ****         lv_obj_add_style(obj, &styles->knob, LV_PART_KNOB);
 1668              		.loc 1 841 38 is_stmt 0 view .LVU517
 1669 08fa 2968     		ldr	r1, [r5]
 841:lvgl/src/extra/themes/default/lv_theme_default.c ****         lv_obj_add_style(obj, &styles->knob, LV_PART_KNOB);
 1670              		.loc 1 841 9 view .LVU518
 1671 08fc 4FF40032 		mov	r2, #131072
 1672 0900 01F58071 		add	r1, r1, #256
 1673 0904 2046     		mov	r0, r4
 1674 0906 FFF7FEFF 		bl	lv_obj_add_style
 1675              	.LVL184:
 842:lvgl/src/extra/themes/default/lv_theme_default.c ****     }
 1676              		.loc 1 842 9 is_stmt 1 view .LVU519
 842:lvgl/src/extra/themes/default/lv_theme_default.c ****     }
 1677              		.loc 1 842 38 is_stmt 0 view .LVU520
 1678 090a 2968     		ldr	r1, [r5]
 842:lvgl/src/extra/themes/default/lv_theme_default.c ****     }
 1679              		.loc 1 842 9 view .LVU521
 1680 090c 4FF44032 		mov	r2, #196608
 1681 0910 E831     		adds	r1, r1, #232
 1682 0912 2046     		mov	r0, r4
 1683 0914 FFF7FEFF 		bl	lv_obj_add_style
 1684              	.LVL185:
 1685 0918 4AE4     		b	.L8
 1686              	.L23:
 848:lvgl/src/extra/themes/default/lv_theme_default.c ****         lv_obj_add_style(obj, &styles->arc_indic, 0);
 1687              		.loc 1 848 10 is_stmt 1 view .LVU522
 848:lvgl/src/extra/themes/default/lv_theme_default.c ****         lv_obj_add_style(obj, &styles->arc_indic, 0);
 1688              		.loc 1 848 13 is_stmt 0 view .LVU523
 1689 091a 1B49     		ldr	r1, .L57+52
 1690 091c 2046     		mov	r0, r4
 1691 091e FFF7FEFF 		bl	lv_obj_check_type
 1692              	.LVL186:
 848:lvgl/src/extra/themes/default/lv_theme_default.c ****         lv_obj_add_style(obj, &styles->arc_indic, 0);
 1693              		.loc 1 848 12 view .LVU524
 1694 0922 98B3     		cbz	r0, .L24
 849:lvgl/src/extra/themes/default/lv_theme_default.c ****         lv_obj_add_style(obj, &styles->arc_indic, LV_PART_INDICATOR);
ARM GAS  /var/folders/k2/cd9bl_j17z77g23y6ffqb_400000gn/T//ccRoPncs.s 			page 57


 1695              		.loc 1 849 9 is_stmt 1 view .LVU525
 849:lvgl/src/extra/themes/default/lv_theme_default.c ****         lv_obj_add_style(obj, &styles->arc_indic, LV_PART_INDICATOR);
 1696              		.loc 1 849 38 is_stmt 0 view .LVU526
 1697 0924 0C4D     		ldr	r5, .L57+4
 1698 0926 2968     		ldr	r1, [r5]
 849:lvgl/src/extra/themes/default/lv_theme_default.c ****         lv_obj_add_style(obj, &styles->arc_indic, LV_PART_INDICATOR);
 1699              		.loc 1 849 9 view .LVU527
 1700 0928 0022     		movs	r2, #0
 1701 092a F831     		adds	r1, r1, #248
 1702 092c 2046     		mov	r0, r4
 1703 092e FFF7FEFF 		bl	lv_obj_add_style
 1704              	.LVL187:
 850:lvgl/src/extra/themes/default/lv_theme_default.c ****         lv_obj_add_style(obj, &styles->arc_indic_primary, LV_PART_INDICATOR);
 1705              		.loc 1 850 9 is_stmt 1 view .LVU528
 850:lvgl/src/extra/themes/default/lv_theme_default.c ****         lv_obj_add_style(obj, &styles->arc_indic_primary, LV_PART_INDICATOR);
 1706              		.loc 1 850 38 is_stmt 0 view .LVU529
 1707 0932 2968     		ldr	r1, [r5]
 850:lvgl/src/extra/themes/default/lv_theme_default.c ****         lv_obj_add_style(obj, &styles->arc_indic_primary, LV_PART_INDICATOR);
 1708              		.loc 1 850 9 view .LVU530
 1709 0934 4FF40032 		mov	r2, #131072
 1710 0938 F831     		adds	r1, r1, #248
 1711 093a 2046     		mov	r0, r4
 1712 093c FFF7FEFF 		bl	lv_obj_add_style
 1713              	.LVL188:
 851:lvgl/src/extra/themes/default/lv_theme_default.c ****     }
 1714              		.loc 1 851 9 is_stmt 1 view .LVU531
 851:lvgl/src/extra/themes/default/lv_theme_default.c ****     }
 1715              		.loc 1 851 38 is_stmt 0 view .LVU532
 1716 0940 2968     		ldr	r1, [r5]
 851:lvgl/src/extra/themes/default/lv_theme_default.c ****     }
 1717              		.loc 1 851 9 view .LVU533
 1718 0942 4FF40032 		mov	r2, #131072
 1719 0946 01F58071 		add	r1, r1, #256
 1720 094a 2046     		mov	r0, r4
 1721 094c FFF7FEFF 		bl	lv_obj_add_style
 1722              	.LVL189:
 1723 0950 2EE4     		b	.L8
 1724              	.L58:
 1725 0952 00BF     		.align	2
 1726              	.L57:
 1727 0954 00000000 		.word	lv_switch_class
 1728 0958 00000000 		.word	.LANCHOR0
 1729 095c 01000200 		.word	131073
 1730 0960 80000200 		.word	131200
 1731 0964 80000300 		.word	196736
 1732 0968 00000000 		.word	lv_chart_class
 1733 096c 40000100 		.word	65600
 1734 0970 00000000 		.word	lv_roller_class
 1735 0974 00000000 		.word	lv_dropdown_class
 1736 0978 00000000 		.word	lv_dropdownlist_class
 1737 097c 01000400 		.word	262145
 1738 0980 20000400 		.word	262176
 1739 0984 00000000 		.word	lv_arc_class
 1740 0988 00000000 		.word	lv_spinner_class
 1741              	.L24:
 856:lvgl/src/extra/themes/default/lv_theme_default.c ****         lv_obj_add_style(obj, &styles->card, 0);
 1742              		.loc 1 856 10 is_stmt 1 view .LVU534
ARM GAS  /var/folders/k2/cd9bl_j17z77g23y6ffqb_400000gn/T//ccRoPncs.s 			page 58


 856:lvgl/src/extra/themes/default/lv_theme_default.c ****         lv_obj_add_style(obj, &styles->card, 0);
 1743              		.loc 1 856 13 is_stmt 0 view .LVU535
 1744 098c BD49     		ldr	r1, .L59
 1745 098e 2046     		mov	r0, r4
 1746 0990 FFF7FEFF 		bl	lv_obj_check_type
 1747              	.LVL190:
 856:lvgl/src/extra/themes/default/lv_theme_default.c ****         lv_obj_add_style(obj, &styles->card, 0);
 1748              		.loc 1 856 12 view .LVU536
 1749 0994 B0B1     		cbz	r0, .L25
 857:lvgl/src/extra/themes/default/lv_theme_default.c ****         lv_obj_add_style(obj, &styles->circle, 0);
 1750              		.loc 1 857 9 is_stmt 1 view .LVU537
 857:lvgl/src/extra/themes/default/lv_theme_default.c ****         lv_obj_add_style(obj, &styles->circle, 0);
 1751              		.loc 1 857 38 is_stmt 0 view .LVU538
 1752 0996 BC4D     		ldr	r5, .L59+4
 1753 0998 2968     		ldr	r1, [r5]
 857:lvgl/src/extra/themes/default/lv_theme_default.c ****         lv_obj_add_style(obj, &styles->circle, 0);
 1754              		.loc 1 857 9 view .LVU539
 1755 099a 0022     		movs	r2, #0
 1756 099c 1831     		adds	r1, r1, #24
 1757 099e 2046     		mov	r0, r4
 1758 09a0 FFF7FEFF 		bl	lv_obj_add_style
 1759              	.LVL191:
 858:lvgl/src/extra/themes/default/lv_theme_default.c ****         lv_obj_add_style(obj, &styles->meter_indic, LV_PART_INDICATOR);
 1760              		.loc 1 858 9 is_stmt 1 view .LVU540
 858:lvgl/src/extra/themes/default/lv_theme_default.c ****         lv_obj_add_style(obj, &styles->meter_indic, LV_PART_INDICATOR);
 1761              		.loc 1 858 38 is_stmt 0 view .LVU541
 1762 09a4 2968     		ldr	r1, [r5]
 858:lvgl/src/extra/themes/default/lv_theme_default.c ****         lv_obj_add_style(obj, &styles->meter_indic, LV_PART_INDICATOR);
 1763              		.loc 1 858 9 view .LVU542
 1764 09a6 0022     		movs	r2, #0
 1765 09a8 B031     		adds	r1, r1, #176
 1766 09aa 2046     		mov	r0, r4
 1767 09ac FFF7FEFF 		bl	lv_obj_add_style
 1768              	.LVL192:
 859:lvgl/src/extra/themes/default/lv_theme_default.c ****     }
 1769              		.loc 1 859 9 is_stmt 1 view .LVU543
 859:lvgl/src/extra/themes/default/lv_theme_default.c ****     }
 1770              		.loc 1 859 38 is_stmt 0 view .LVU544
 1771 09b0 2968     		ldr	r1, [r5]
 859:lvgl/src/extra/themes/default/lv_theme_default.c ****     }
 1772              		.loc 1 859 9 view .LVU545
 1773 09b2 4FF40032 		mov	r2, #131072
 1774 09b6 01F5B071 		add	r1, r1, #352
 1775 09ba 2046     		mov	r0, r4
 1776 09bc FFF7FEFF 		bl	lv_obj_add_style
 1777              	.LVL193:
 1778 09c0 FFF7F6BB 		b	.L8
 1779              	.L25:
 864:lvgl/src/extra/themes/default/lv_theme_default.c ****         lv_obj_add_style(obj, &styles->card, 0);
 1780              		.loc 1 864 10 is_stmt 1 view .LVU546
 864:lvgl/src/extra/themes/default/lv_theme_default.c ****         lv_obj_add_style(obj, &styles->card, 0);
 1781              		.loc 1 864 13 is_stmt 0 view .LVU547
 1782 09c4 B149     		ldr	r1, .L59+8
 1783 09c6 2046     		mov	r0, r4
 1784 09c8 FFF7FEFF 		bl	lv_obj_check_type
 1785              	.LVL194:
 864:lvgl/src/extra/themes/default/lv_theme_default.c ****         lv_obj_add_style(obj, &styles->card, 0);
ARM GAS  /var/folders/k2/cd9bl_j17z77g23y6ffqb_400000gn/T//ccRoPncs.s 			page 59


 1786              		.loc 1 864 12 view .LVU548
 1787 09cc 0028     		cmp	r0, #0
 1788 09ce 36D0     		beq	.L26
 865:lvgl/src/extra/themes/default/lv_theme_default.c ****         lv_obj_add_style(obj, &styles->pad_small, 0);
 1789              		.loc 1 865 9 is_stmt 1 view .LVU549
 865:lvgl/src/extra/themes/default/lv_theme_default.c ****         lv_obj_add_style(obj, &styles->pad_small, 0);
 1790              		.loc 1 865 38 is_stmt 0 view .LVU550
 1791 09d0 AD4D     		ldr	r5, .L59+4
 1792 09d2 2968     		ldr	r1, [r5]
 865:lvgl/src/extra/themes/default/lv_theme_default.c ****         lv_obj_add_style(obj, &styles->pad_small, 0);
 1793              		.loc 1 865 9 view .LVU551
 1794 09d4 0022     		movs	r2, #0
 1795 09d6 1831     		adds	r1, r1, #24
 1796 09d8 2046     		mov	r0, r4
 1797 09da FFF7FEFF 		bl	lv_obj_add_style
 1798              	.LVL195:
 866:lvgl/src/extra/themes/default/lv_theme_default.c ****         lv_obj_add_style(obj, &styles->outline_primary, LV_STATE_FOCUS_KEY);
 1799              		.loc 1 866 9 is_stmt 1 view .LVU552
 866:lvgl/src/extra/themes/default/lv_theme_default.c ****         lv_obj_add_style(obj, &styles->outline_primary, LV_STATE_FOCUS_KEY);
 1800              		.loc 1 866 38 is_stmt 0 view .LVU553
 1801 09de 2968     		ldr	r1, [r5]
 866:lvgl/src/extra/themes/default/lv_theme_default.c ****         lv_obj_add_style(obj, &styles->outline_primary, LV_STATE_FOCUS_KEY);
 1802              		.loc 1 866 9 view .LVU554
 1803 09e0 0022     		movs	r2, #0
 1804 09e2 7831     		adds	r1, r1, #120
 1805 09e4 2046     		mov	r0, r4
 1806 09e6 FFF7FEFF 		bl	lv_obj_add_style
 1807              	.LVL196:
 867:lvgl/src/extra/themes/default/lv_theme_default.c ****         lv_obj_add_style(obj, &styles->outline_secondary, LV_STATE_EDITED);
 1808              		.loc 1 867 9 is_stmt 1 view .LVU555
 867:lvgl/src/extra/themes/default/lv_theme_default.c ****         lv_obj_add_style(obj, &styles->outline_secondary, LV_STATE_EDITED);
 1809              		.loc 1 867 38 is_stmt 0 view .LVU556
 1810 09ea 2968     		ldr	r1, [r5]
 867:lvgl/src/extra/themes/default/lv_theme_default.c ****         lv_obj_add_style(obj, &styles->outline_secondary, LV_STATE_EDITED);
 1811              		.loc 1 867 9 view .LVU557
 1812 09ec 0422     		movs	r2, #4
 1813 09ee A031     		adds	r1, r1, #160
 1814 09f0 2046     		mov	r0, r4
 1815 09f2 FFF7FEFF 		bl	lv_obj_add_style
 1816              	.LVL197:
 868:lvgl/src/extra/themes/default/lv_theme_default.c ****         lv_obj_add_style(obj, &styles->scrollbar, LV_PART_SCROLLBAR);
 1817              		.loc 1 868 9 is_stmt 1 view .LVU558
 868:lvgl/src/extra/themes/default/lv_theme_default.c ****         lv_obj_add_style(obj, &styles->scrollbar, LV_PART_SCROLLBAR);
 1818              		.loc 1 868 38 is_stmt 0 view .LVU559
 1819 09f6 2968     		ldr	r1, [r5]
 868:lvgl/src/extra/themes/default/lv_theme_default.c ****         lv_obj_add_style(obj, &styles->scrollbar, LV_PART_SCROLLBAR);
 1820              		.loc 1 868 9 view .LVU560
 1821 09f8 0822     		movs	r2, #8
 1822 09fa A831     		adds	r1, r1, #168
 1823 09fc 2046     		mov	r0, r4
 1824 09fe FFF7FEFF 		bl	lv_obj_add_style
 1825              	.LVL198:
 869:lvgl/src/extra/themes/default/lv_theme_default.c ****         lv_obj_add_style(obj, &styles->scrollbar_scrolled, LV_PART_SCROLLBAR | LV_STATE_SCROLLED);
 1826              		.loc 1 869 9 is_stmt 1 view .LVU561
 869:lvgl/src/extra/themes/default/lv_theme_default.c ****         lv_obj_add_style(obj, &styles->scrollbar_scrolled, LV_PART_SCROLLBAR | LV_STATE_SCROLLED);
 1827              		.loc 1 869 38 is_stmt 0 view .LVU562
 1828 0a02 2968     		ldr	r1, [r5]
ARM GAS  /var/folders/k2/cd9bl_j17z77g23y6ffqb_400000gn/T//ccRoPncs.s 			page 60


 869:lvgl/src/extra/themes/default/lv_theme_default.c ****         lv_obj_add_style(obj, &styles->scrollbar_scrolled, LV_PART_SCROLLBAR | LV_STATE_SCROLLED);
 1829              		.loc 1 869 9 view .LVU563
 1830 0a04 4FF48032 		mov	r2, #65536
 1831 0a08 0831     		adds	r1, r1, #8
 1832 0a0a 2046     		mov	r0, r4
 1833 0a0c FFF7FEFF 		bl	lv_obj_add_style
 1834              	.LVL199:
 870:lvgl/src/extra/themes/default/lv_theme_default.c ****         lv_obj_add_style(obj, &styles->ta_cursor, LV_PART_CURSOR | LV_STATE_FOCUSED);
 1835              		.loc 1 870 9 is_stmt 1 view .LVU564
 870:lvgl/src/extra/themes/default/lv_theme_default.c ****         lv_obj_add_style(obj, &styles->ta_cursor, LV_PART_CURSOR | LV_STATE_FOCUSED);
 1836              		.loc 1 870 38 is_stmt 0 view .LVU565
 1837 0a10 2968     		ldr	r1, [r5]
 870:lvgl/src/extra/themes/default/lv_theme_default.c ****         lv_obj_add_style(obj, &styles->ta_cursor, LV_PART_CURSOR | LV_STATE_FOCUSED);
 1838              		.loc 1 870 9 view .LVU566
 1839 0a12 9F4A     		ldr	r2, .L59+12
 1840 0a14 1031     		adds	r1, r1, #16
 1841 0a16 2046     		mov	r0, r4
 1842 0a18 FFF7FEFF 		bl	lv_obj_add_style
 1843              	.LVL200:
 871:lvgl/src/extra/themes/default/lv_theme_default.c ****         lv_obj_add_style(obj, &styles->ta_placeholder, LV_PART_TEXTAREA_PLACEHOLDER);
 1844              		.loc 1 871 9 is_stmt 1 view .LVU567
 871:lvgl/src/extra/themes/default/lv_theme_default.c ****         lv_obj_add_style(obj, &styles->ta_placeholder, LV_PART_TEXTAREA_PLACEHOLDER);
 1845              		.loc 1 871 38 is_stmt 0 view .LVU568
 1846 0a1c 2968     		ldr	r1, [r5]
 871:lvgl/src/extra/themes/default/lv_theme_default.c ****         lv_obj_add_style(obj, &styles->ta_placeholder, LV_PART_TEXTAREA_PLACEHOLDER);
 1847              		.loc 1 871 9 view .LVU569
 1848 0a1e 9D4A     		ldr	r2, .L59+16
 1849 0a20 01F5B471 		add	r1, r1, #360
 1850 0a24 2046     		mov	r0, r4
 1851 0a26 FFF7FEFF 		bl	lv_obj_add_style
 1852              	.LVL201:
 872:lvgl/src/extra/themes/default/lv_theme_default.c ****     }
 1853              		.loc 1 872 9 is_stmt 1 view .LVU570
 872:lvgl/src/extra/themes/default/lv_theme_default.c ****     }
 1854              		.loc 1 872 38 is_stmt 0 view .LVU571
 1855 0a2a 2968     		ldr	r1, [r5]
 872:lvgl/src/extra/themes/default/lv_theme_default.c ****     }
 1856              		.loc 1 872 9 view .LVU572
 1857 0a2c 4FF40022 		mov	r2, #524288
 1858 0a30 01F5B871 		add	r1, r1, #368
 1859 0a34 2046     		mov	r0, r4
 1860 0a36 FFF7FEFF 		bl	lv_obj_add_style
 1861              	.LVL202:
 1862 0a3a FFF7B9BB 		b	.L8
 1863              	.L26:
 877:lvgl/src/extra/themes/default/lv_theme_default.c ****         lv_obj_add_style(obj, &styles->card, 0);
 1864              		.loc 1 877 10 is_stmt 1 view .LVU573
 877:lvgl/src/extra/themes/default/lv_theme_default.c ****         lv_obj_add_style(obj, &styles->card, 0);
 1865              		.loc 1 877 13 is_stmt 0 view .LVU574
 1866 0a3e 9649     		ldr	r1, .L59+20
 1867 0a40 2046     		mov	r0, r4
 1868 0a42 FFF7FEFF 		bl	lv_obj_check_type
 1869              	.LVL203:
 877:lvgl/src/extra/themes/default/lv_theme_default.c ****         lv_obj_add_style(obj, &styles->card, 0);
 1870              		.loc 1 877 12 view .LVU575
 1871 0a46 0028     		cmp	r0, #0
 1872 0a48 3BD0     		beq	.L27
ARM GAS  /var/folders/k2/cd9bl_j17z77g23y6ffqb_400000gn/T//ccRoPncs.s 			page 61


 878:lvgl/src/extra/themes/default/lv_theme_default.c ****         lv_obj_add_style(obj, &styles->calendar_bg, 0);
 1873              		.loc 1 878 9 is_stmt 1 view .LVU576
 878:lvgl/src/extra/themes/default/lv_theme_default.c ****         lv_obj_add_style(obj, &styles->calendar_bg, 0);
 1874              		.loc 1 878 38 is_stmt 0 view .LVU577
 1875 0a4a 8F4D     		ldr	r5, .L59+4
 1876 0a4c 2968     		ldr	r1, [r5]
 878:lvgl/src/extra/themes/default/lv_theme_default.c ****         lv_obj_add_style(obj, &styles->calendar_bg, 0);
 1877              		.loc 1 878 9 view .LVU578
 1878 0a4e 0022     		movs	r2, #0
 1879 0a50 1831     		adds	r1, r1, #24
 1880 0a52 2046     		mov	r0, r4
 1881 0a54 FFF7FEFF 		bl	lv_obj_add_style
 1882              	.LVL204:
 879:lvgl/src/extra/themes/default/lv_theme_default.c ****         lv_obj_add_style(obj, &styles->outline_primary, LV_STATE_FOCUS_KEY);
 1883              		.loc 1 879 9 is_stmt 1 view .LVU579
 879:lvgl/src/extra/themes/default/lv_theme_default.c ****         lv_obj_add_style(obj, &styles->outline_primary, LV_STATE_FOCUS_KEY);
 1884              		.loc 1 879 38 is_stmt 0 view .LVU580
 1885 0a58 2968     		ldr	r1, [r5]
 879:lvgl/src/extra/themes/default/lv_theme_default.c ****         lv_obj_add_style(obj, &styles->outline_primary, LV_STATE_FOCUS_KEY);
 1886              		.loc 1 879 9 view .LVU581
 1887 0a5a 0022     		movs	r2, #0
 1888 0a5c 01F5BC71 		add	r1, r1, #376
 1889 0a60 2046     		mov	r0, r4
 1890 0a62 FFF7FEFF 		bl	lv_obj_add_style
 1891              	.LVL205:
 880:lvgl/src/extra/themes/default/lv_theme_default.c ****         lv_obj_add_style(obj, &styles->outline_secondary, LV_STATE_EDITED);
 1892              		.loc 1 880 9 is_stmt 1 view .LVU582
 880:lvgl/src/extra/themes/default/lv_theme_default.c ****         lv_obj_add_style(obj, &styles->outline_secondary, LV_STATE_EDITED);
 1893              		.loc 1 880 38 is_stmt 0 view .LVU583
 1894 0a66 2968     		ldr	r1, [r5]
 880:lvgl/src/extra/themes/default/lv_theme_default.c ****         lv_obj_add_style(obj, &styles->outline_secondary, LV_STATE_EDITED);
 1895              		.loc 1 880 9 view .LVU584
 1896 0a68 0422     		movs	r2, #4
 1897 0a6a A031     		adds	r1, r1, #160
 1898 0a6c 2046     		mov	r0, r4
 1899 0a6e FFF7FEFF 		bl	lv_obj_add_style
 1900              	.LVL206:
 881:lvgl/src/extra/themes/default/lv_theme_default.c ****         lv_obj_add_style(obj, &styles->calendar_day, LV_PART_ITEMS);
 1901              		.loc 1 881 9 is_stmt 1 view .LVU585
 881:lvgl/src/extra/themes/default/lv_theme_default.c ****         lv_obj_add_style(obj, &styles->calendar_day, LV_PART_ITEMS);
 1902              		.loc 1 881 38 is_stmt 0 view .LVU586
 1903 0a72 2968     		ldr	r1, [r5]
 881:lvgl/src/extra/themes/default/lv_theme_default.c ****         lv_obj_add_style(obj, &styles->calendar_day, LV_PART_ITEMS);
 1904              		.loc 1 881 9 view .LVU587
 1905 0a74 0822     		movs	r2, #8
 1906 0a76 A831     		adds	r1, r1, #168
 1907 0a78 2046     		mov	r0, r4
 1908 0a7a FFF7FEFF 		bl	lv_obj_add_style
 1909              	.LVL207:
 882:lvgl/src/extra/themes/default/lv_theme_default.c ****         lv_obj_add_style(obj, &styles->pressed, LV_PART_ITEMS | LV_STATE_PRESSED);
 1910              		.loc 1 882 9 is_stmt 1 view .LVU588
 882:lvgl/src/extra/themes/default/lv_theme_default.c ****         lv_obj_add_style(obj, &styles->pressed, LV_PART_ITEMS | LV_STATE_PRESSED);
 1911              		.loc 1 882 38 is_stmt 0 view .LVU589
 1912 0a7e 2968     		ldr	r1, [r5]
 882:lvgl/src/extra/themes/default/lv_theme_default.c ****         lv_obj_add_style(obj, &styles->pressed, LV_PART_ITEMS | LV_STATE_PRESSED);
 1913              		.loc 1 882 9 view .LVU590
 1914 0a80 4FF4A022 		mov	r2, #327680
ARM GAS  /var/folders/k2/cd9bl_j17z77g23y6ffqb_400000gn/T//ccRoPncs.s 			page 62


 1915 0a84 01F5C071 		add	r1, r1, #384
 1916 0a88 2046     		mov	r0, r4
 1917 0a8a FFF7FEFF 		bl	lv_obj_add_style
 1918              	.LVL208:
 883:lvgl/src/extra/themes/default/lv_theme_default.c ****         lv_obj_add_style(obj, &styles->disabled, LV_PART_ITEMS | LV_STATE_DISABLED);
 1919              		.loc 1 883 9 is_stmt 1 view .LVU591
 883:lvgl/src/extra/themes/default/lv_theme_default.c ****         lv_obj_add_style(obj, &styles->disabled, LV_PART_ITEMS | LV_STATE_DISABLED);
 1920              		.loc 1 883 38 is_stmt 0 view .LVU592
 1921 0a8e 2968     		ldr	r1, [r5]
 883:lvgl/src/extra/themes/default/lv_theme_default.c ****         lv_obj_add_style(obj, &styles->disabled, LV_PART_ITEMS | LV_STATE_DISABLED);
 1922              		.loc 1 883 9 view .LVU593
 1923 0a90 824A     		ldr	r2, .L59+24
 1924 0a92 5831     		adds	r1, r1, #88
 1925 0a94 2046     		mov	r0, r4
 1926 0a96 FFF7FEFF 		bl	lv_obj_add_style
 1927              	.LVL209:
 884:lvgl/src/extra/themes/default/lv_theme_default.c ****         lv_obj_add_style(obj, &styles->outline_primary, LV_PART_ITEMS | LV_STATE_FOCUS_KEY);
 1928              		.loc 1 884 9 is_stmt 1 view .LVU594
 884:lvgl/src/extra/themes/default/lv_theme_default.c ****         lv_obj_add_style(obj, &styles->outline_primary, LV_PART_ITEMS | LV_STATE_FOCUS_KEY);
 1929              		.loc 1 884 38 is_stmt 0 view .LVU595
 1930 0a9a 2968     		ldr	r1, [r5]
 884:lvgl/src/extra/themes/default/lv_theme_default.c ****         lv_obj_add_style(obj, &styles->outline_primary, LV_PART_ITEMS | LV_STATE_FOCUS_KEY);
 1931              		.loc 1 884 9 view .LVU596
 1932 0a9c 804A     		ldr	r2, .L59+28
 1933 0a9e 6031     		adds	r1, r1, #96
 1934 0aa0 2046     		mov	r0, r4
 1935 0aa2 FFF7FEFF 		bl	lv_obj_add_style
 1936              	.LVL210:
 885:lvgl/src/extra/themes/default/lv_theme_default.c ****         lv_obj_add_style(obj, &styles->outline_secondary, LV_PART_ITEMS | LV_STATE_EDITED);
 1937              		.loc 1 885 9 is_stmt 1 view .LVU597
 885:lvgl/src/extra/themes/default/lv_theme_default.c ****         lv_obj_add_style(obj, &styles->outline_secondary, LV_PART_ITEMS | LV_STATE_EDITED);
 1938              		.loc 1 885 38 is_stmt 0 view .LVU598
 1939 0aa6 2968     		ldr	r1, [r5]
 885:lvgl/src/extra/themes/default/lv_theme_default.c ****         lv_obj_add_style(obj, &styles->outline_secondary, LV_PART_ITEMS | LV_STATE_EDITED);
 1940              		.loc 1 885 9 view .LVU599
 1941 0aa8 7E4A     		ldr	r2, .L59+32
 1942 0aaa A031     		adds	r1, r1, #160
 1943 0aac 2046     		mov	r0, r4
 1944 0aae FFF7FEFF 		bl	lv_obj_add_style
 1945              	.LVL211:
 886:lvgl/src/extra/themes/default/lv_theme_default.c ****     }
 1946              		.loc 1 886 9 is_stmt 1 view .LVU600
 886:lvgl/src/extra/themes/default/lv_theme_default.c ****     }
 1947              		.loc 1 886 38 is_stmt 0 view .LVU601
 1948 0ab2 2968     		ldr	r1, [r5]
 886:lvgl/src/extra/themes/default/lv_theme_default.c ****     }
 1949              		.loc 1 886 9 view .LVU602
 1950 0ab4 7C4A     		ldr	r2, .L59+36
 1951 0ab6 A831     		adds	r1, r1, #168
 1952 0ab8 2046     		mov	r0, r4
 1953 0aba FFF7FEFF 		bl	lv_obj_add_style
 1954              	.LVL212:
 1955 0abe FFF777BB 		b	.L8
 1956              	.L27:
 891:lvgl/src/extra/themes/default/lv_theme_default.c ****         lv_obj_add_style(obj, &styles->card, 0);
 1957              		.loc 1 891 10 is_stmt 1 view .LVU603
 891:lvgl/src/extra/themes/default/lv_theme_default.c ****         lv_obj_add_style(obj, &styles->card, 0);
ARM GAS  /var/folders/k2/cd9bl_j17z77g23y6ffqb_400000gn/T//ccRoPncs.s 			page 63


 1958              		.loc 1 891 13 is_stmt 0 view .LVU604
 1959 0ac2 7A49     		ldr	r1, .L59+40
 1960 0ac4 2046     		mov	r0, r4
 1961 0ac6 FFF7FEFF 		bl	lv_obj_check_type
 1962              	.LVL213:
 891:lvgl/src/extra/themes/default/lv_theme_default.c ****         lv_obj_add_style(obj, &styles->card, 0);
 1963              		.loc 1 891 12 view .LVU605
 1964 0aca 40B1     		cbz	r0, .L28
 892:lvgl/src/extra/themes/default/lv_theme_default.c ****     }
 1965              		.loc 1 892 9 is_stmt 1 view .LVU606
 892:lvgl/src/extra/themes/default/lv_theme_default.c ****     }
 1966              		.loc 1 892 38 is_stmt 0 view .LVU607
 1967 0acc 6E4B     		ldr	r3, .L59+4
 1968 0ace 1968     		ldr	r1, [r3]
 892:lvgl/src/extra/themes/default/lv_theme_default.c ****     }
 1969              		.loc 1 892 9 view .LVU608
 1970 0ad0 0022     		movs	r2, #0
 1971 0ad2 1831     		adds	r1, r1, #24
 1972 0ad4 2046     		mov	r0, r4
 1973 0ad6 FFF7FEFF 		bl	lv_obj_add_style
 1974              	.LVL214:
 1975 0ada FFF769BB 		b	.L8
 1976              	.L28:
 897:lvgl/src/extra/themes/default/lv_theme_default.c ****         lv_obj_add_style(obj, &styles->card, 0);
 1977              		.loc 1 897 10 is_stmt 1 view .LVU609
 897:lvgl/src/extra/themes/default/lv_theme_default.c ****         lv_obj_add_style(obj, &styles->card, 0);
 1978              		.loc 1 897 13 is_stmt 0 view .LVU610
 1979 0ade 7449     		ldr	r1, .L59+44
 1980 0ae0 2046     		mov	r0, r4
 1981 0ae2 FFF7FEFF 		bl	lv_obj_check_type
 1982              	.LVL215:
 897:lvgl/src/extra/themes/default/lv_theme_default.c ****         lv_obj_add_style(obj, &styles->card, 0);
 1983              		.loc 1 897 12 view .LVU611
 1984 0ae6 40B1     		cbz	r0, .L29
 898:lvgl/src/extra/themes/default/lv_theme_default.c ****     }
 1985              		.loc 1 898 9 is_stmt 1 view .LVU612
 898:lvgl/src/extra/themes/default/lv_theme_default.c ****     }
 1986              		.loc 1 898 38 is_stmt 0 view .LVU613
 1987 0ae8 674B     		ldr	r3, .L59+4
 1988 0aea 1968     		ldr	r1, [r3]
 898:lvgl/src/extra/themes/default/lv_theme_default.c ****     }
 1989              		.loc 1 898 9 view .LVU614
 1990 0aec 0022     		movs	r2, #0
 1991 0aee 1831     		adds	r1, r1, #24
 1992 0af0 2046     		mov	r0, r4
 1993 0af2 FFF7FEFF 		bl	lv_obj_add_style
 1994              	.LVL216:
 1995 0af6 FFF75BBB 		b	.L8
 1996              	.L29:
 903:lvgl/src/extra/themes/default/lv_theme_default.c ****         lv_obj_add_style(obj, &styles->scr, 0);
 1997              		.loc 1 903 10 is_stmt 1 view .LVU615
 903:lvgl/src/extra/themes/default/lv_theme_default.c ****         lv_obj_add_style(obj, &styles->scr, 0);
 1998              		.loc 1 903 13 is_stmt 0 view .LVU616
 1999 0afa 6E49     		ldr	r1, .L59+48
 2000 0afc 2046     		mov	r0, r4
 2001 0afe FFF7FEFF 		bl	lv_obj_check_type
 2002              	.LVL217:
ARM GAS  /var/folders/k2/cd9bl_j17z77g23y6ffqb_400000gn/T//ccRoPncs.s 			page 64


 903:lvgl/src/extra/themes/default/lv_theme_default.c ****         lv_obj_add_style(obj, &styles->scr, 0);
 2003              		.loc 1 903 12 view .LVU617
 2004 0b02 0028     		cmp	r0, #0
 2005 0b04 57D0     		beq	.L30
 904:lvgl/src/extra/themes/default/lv_theme_default.c ****         lv_obj_add_style(obj, disp_size == DISP_LARGE ? &styles->pad_small : &styles->pad_tiny, 0);
 2006              		.loc 1 904 9 is_stmt 1 view .LVU618
 2007 0b06 0022     		movs	r2, #0
 2008 0b08 5F4B     		ldr	r3, .L59+4
 2009 0b0a 1968     		ldr	r1, [r3]
 2010 0b0c 2046     		mov	r0, r4
 2011 0b0e FFF7FEFF 		bl	lv_obj_add_style
 2012              	.LVL218:
 905:lvgl/src/extra/themes/default/lv_theme_default.c ****         lv_obj_add_style(obj, &styles->outline_primary, LV_STATE_FOCUS_KEY);
 2013              		.loc 1 905 9 view .LVU619
 905:lvgl/src/extra/themes/default/lv_theme_default.c ****         lv_obj_add_style(obj, &styles->outline_primary, LV_STATE_FOCUS_KEY);
 2014              		.loc 1 905 41 is_stmt 0 view .LVU620
 2015 0b12 694B     		ldr	r3, .L59+52
 2016 0b14 1B78     		ldrb	r3, [r3]	@ zero_extendqisi2
 905:lvgl/src/extra/themes/default/lv_theme_default.c ****         lv_obj_add_style(obj, &styles->outline_primary, LV_STATE_FOCUS_KEY);
 2017              		.loc 1 905 9 view .LVU621
 2018 0b16 012B     		cmp	r3, #1
 2019 0b18 49D0     		beq	.L50
 905:lvgl/src/extra/themes/default/lv_theme_default.c ****         lv_obj_add_style(obj, &styles->outline_primary, LV_STATE_FOCUS_KEY);
 2020              		.loc 1 905 85 discriminator 2 view .LVU622
 2021 0b1a 5B4B     		ldr	r3, .L59+4
 2022 0b1c 1968     		ldr	r1, [r3]
 905:lvgl/src/extra/themes/default/lv_theme_default.c ****         lv_obj_add_style(obj, &styles->outline_primary, LV_STATE_FOCUS_KEY);
 2023              		.loc 1 905 9 discriminator 2 view .LVU623
 2024 0b1e 7031     		adds	r1, r1, #112
 2025              	.L32:
 905:lvgl/src/extra/themes/default/lv_theme_default.c ****         lv_obj_add_style(obj, &styles->outline_primary, LV_STATE_FOCUS_KEY);
 2026              		.loc 1 905 9 discriminator 4 view .LVU624
 2027 0b20 0022     		movs	r2, #0
 2028 0b22 2046     		mov	r0, r4
 2029 0b24 FFF7FEFF 		bl	lv_obj_add_style
 2030              	.LVL219:
 906:lvgl/src/extra/themes/default/lv_theme_default.c ****         lv_obj_add_style(obj, &styles->outline_secondary, LV_STATE_EDITED);
 2031              		.loc 1 906 9 is_stmt 1 discriminator 4 view .LVU625
 906:lvgl/src/extra/themes/default/lv_theme_default.c ****         lv_obj_add_style(obj, &styles->outline_secondary, LV_STATE_EDITED);
 2032              		.loc 1 906 38 is_stmt 0 discriminator 4 view .LVU626
 2033 0b28 574D     		ldr	r5, .L59+4
 2034 0b2a 2968     		ldr	r1, [r5]
 906:lvgl/src/extra/themes/default/lv_theme_default.c ****         lv_obj_add_style(obj, &styles->outline_secondary, LV_STATE_EDITED);
 2035              		.loc 1 906 9 discriminator 4 view .LVU627
 2036 0b2c 0422     		movs	r2, #4
 2037 0b2e A031     		adds	r1, r1, #160
 2038 0b30 2046     		mov	r0, r4
 2039 0b32 FFF7FEFF 		bl	lv_obj_add_style
 2040              	.LVL220:
 907:lvgl/src/extra/themes/default/lv_theme_default.c ****         lv_obj_add_style(obj, &styles->btn, LV_PART_ITEMS);
 2041              		.loc 1 907 9 is_stmt 1 discriminator 4 view .LVU628
 907:lvgl/src/extra/themes/default/lv_theme_default.c ****         lv_obj_add_style(obj, &styles->btn, LV_PART_ITEMS);
 2042              		.loc 1 907 38 is_stmt 0 discriminator 4 view .LVU629
 2043 0b36 2968     		ldr	r1, [r5]
 907:lvgl/src/extra/themes/default/lv_theme_default.c ****         lv_obj_add_style(obj, &styles->btn, LV_PART_ITEMS);
 2044              		.loc 1 907 9 discriminator 4 view .LVU630
 2045 0b38 0822     		movs	r2, #8
ARM GAS  /var/folders/k2/cd9bl_j17z77g23y6ffqb_400000gn/T//ccRoPncs.s 			page 65


 2046 0b3a A831     		adds	r1, r1, #168
 2047 0b3c 2046     		mov	r0, r4
 2048 0b3e FFF7FEFF 		bl	lv_obj_add_style
 2049              	.LVL221:
 908:lvgl/src/extra/themes/default/lv_theme_default.c ****         lv_obj_add_style(obj, &styles->disabled, LV_PART_ITEMS | LV_STATE_DISABLED);
 2050              		.loc 1 908 9 is_stmt 1 discriminator 4 view .LVU631
 908:lvgl/src/extra/themes/default/lv_theme_default.c ****         lv_obj_add_style(obj, &styles->disabled, LV_PART_ITEMS | LV_STATE_DISABLED);
 2051              		.loc 1 908 38 is_stmt 0 discriminator 4 view .LVU632
 2052 0b42 2968     		ldr	r1, [r5]
 908:lvgl/src/extra/themes/default/lv_theme_default.c ****         lv_obj_add_style(obj, &styles->disabled, LV_PART_ITEMS | LV_STATE_DISABLED);
 2053              		.loc 1 908 9 discriminator 4 view .LVU633
 2054 0b44 4FF4A022 		mov	r2, #327680
 2055 0b48 2031     		adds	r1, r1, #32
 2056 0b4a 2046     		mov	r0, r4
 2057 0b4c FFF7FEFF 		bl	lv_obj_add_style
 2058              	.LVL222:
 909:lvgl/src/extra/themes/default/lv_theme_default.c ****         lv_obj_add_style(obj, &styles->bg_color_white, LV_PART_ITEMS);
 2059              		.loc 1 909 9 is_stmt 1 discriminator 4 view .LVU634
 909:lvgl/src/extra/themes/default/lv_theme_default.c ****         lv_obj_add_style(obj, &styles->bg_color_white, LV_PART_ITEMS);
 2060              		.loc 1 909 38 is_stmt 0 discriminator 4 view .LVU635
 2061 0b50 2968     		ldr	r1, [r5]
 909:lvgl/src/extra/themes/default/lv_theme_default.c ****         lv_obj_add_style(obj, &styles->bg_color_white, LV_PART_ITEMS);
 2062              		.loc 1 909 9 discriminator 4 view .LVU636
 2063 0b52 534A     		ldr	r2, .L59+28
 2064 0b54 6031     		adds	r1, r1, #96
 2065 0b56 2046     		mov	r0, r4
 2066 0b58 FFF7FEFF 		bl	lv_obj_add_style
 2067              	.LVL223:
 910:lvgl/src/extra/themes/default/lv_theme_default.c ****         lv_obj_add_style(obj, &styles->keyboard_btn_bg, LV_PART_ITEMS);
 2068              		.loc 1 910 9 is_stmt 1 discriminator 4 view .LVU637
 910:lvgl/src/extra/themes/default/lv_theme_default.c ****         lv_obj_add_style(obj, &styles->keyboard_btn_bg, LV_PART_ITEMS);
 2069              		.loc 1 910 38 is_stmt 0 discriminator 4 view .LVU638
 2070 0b5c 2968     		ldr	r1, [r5]
 910:lvgl/src/extra/themes/default/lv_theme_default.c ****         lv_obj_add_style(obj, &styles->keyboard_btn_bg, LV_PART_ITEMS);
 2071              		.loc 1 910 9 discriminator 4 view .LVU639
 2072 0b5e 4FF4A022 		mov	r2, #327680
 2073 0b62 5031     		adds	r1, r1, #80
 2074 0b64 2046     		mov	r0, r4
 2075 0b66 FFF7FEFF 		bl	lv_obj_add_style
 2076              	.LVL224:
 911:lvgl/src/extra/themes/default/lv_theme_default.c ****         lv_obj_add_style(obj, &styles->pressed, LV_PART_ITEMS | LV_STATE_PRESSED);
 2077              		.loc 1 911 9 is_stmt 1 discriminator 4 view .LVU640
 911:lvgl/src/extra/themes/default/lv_theme_default.c ****         lv_obj_add_style(obj, &styles->pressed, LV_PART_ITEMS | LV_STATE_PRESSED);
 2078              		.loc 1 911 38 is_stmt 0 discriminator 4 view .LVU641
 2079 0b6a 2968     		ldr	r1, [r5]
 911:lvgl/src/extra/themes/default/lv_theme_default.c ****         lv_obj_add_style(obj, &styles->pressed, LV_PART_ITEMS | LV_STATE_PRESSED);
 2080              		.loc 1 911 9 discriminator 4 view .LVU642
 2081 0b6c 4FF4A022 		mov	r2, #327680
 2082 0b70 01F5D071 		add	r1, r1, #416
 2083 0b74 2046     		mov	r0, r4
 2084 0b76 FFF7FEFF 		bl	lv_obj_add_style
 2085              	.LVL225:
 912:lvgl/src/extra/themes/default/lv_theme_default.c ****         lv_obj_add_style(obj, &styles->bg_color_grey, LV_PART_ITEMS | LV_STATE_CHECKED);
 2086              		.loc 1 912 9 is_stmt 1 discriminator 4 view .LVU643
 912:lvgl/src/extra/themes/default/lv_theme_default.c ****         lv_obj_add_style(obj, &styles->bg_color_grey, LV_PART_ITEMS | LV_STATE_CHECKED);
 2087              		.loc 1 912 38 is_stmt 0 discriminator 4 view .LVU644
 2088 0b7a 2968     		ldr	r1, [r5]
ARM GAS  /var/folders/k2/cd9bl_j17z77g23y6ffqb_400000gn/T//ccRoPncs.s 			page 66


 912:lvgl/src/extra/themes/default/lv_theme_default.c ****         lv_obj_add_style(obj, &styles->bg_color_grey, LV_PART_ITEMS | LV_STATE_CHECKED);
 2089              		.loc 1 912 9 discriminator 4 view .LVU645
 2090 0b7c 474A     		ldr	r2, .L59+24
 2091 0b7e 5831     		adds	r1, r1, #88
 2092 0b80 2046     		mov	r0, r4
 2093 0b82 FFF7FEFF 		bl	lv_obj_add_style
 2094              	.LVL226:
 913:lvgl/src/extra/themes/default/lv_theme_default.c ****         lv_obj_add_style(obj, &styles->bg_color_primary_muted, LV_PART_ITEMS | LV_STATE_FOCUS_KEY);
 2095              		.loc 1 913 9 is_stmt 1 discriminator 4 view .LVU646
 913:lvgl/src/extra/themes/default/lv_theme_default.c ****         lv_obj_add_style(obj, &styles->bg_color_primary_muted, LV_PART_ITEMS | LV_STATE_FOCUS_KEY);
 2096              		.loc 1 913 38 is_stmt 0 discriminator 4 view .LVU647
 2097 0b86 2968     		ldr	r1, [r5]
 913:lvgl/src/extra/themes/default/lv_theme_default.c ****         lv_obj_add_style(obj, &styles->bg_color_primary_muted, LV_PART_ITEMS | LV_STATE_FOCUS_KEY);
 2098              		.loc 1 913 9 discriminator 4 view .LVU648
 2099 0b88 4C4A     		ldr	r2, .L59+56
 2100 0b8a 4831     		adds	r1, r1, #72
 2101 0b8c 2046     		mov	r0, r4
 2102 0b8e FFF7FEFF 		bl	lv_obj_add_style
 2103              	.LVL227:
 914:lvgl/src/extra/themes/default/lv_theme_default.c ****         lv_obj_add_style(obj, &styles->bg_color_secondary_muted, LV_PART_ITEMS | LV_STATE_EDITED);
 2104              		.loc 1 914 9 is_stmt 1 discriminator 4 view .LVU649
 914:lvgl/src/extra/themes/default/lv_theme_default.c ****         lv_obj_add_style(obj, &styles->bg_color_secondary_muted, LV_PART_ITEMS | LV_STATE_EDITED);
 2105              		.loc 1 914 38 is_stmt 0 discriminator 4 view .LVU650
 2106 0b92 2968     		ldr	r1, [r5]
 914:lvgl/src/extra/themes/default/lv_theme_default.c ****         lv_obj_add_style(obj, &styles->bg_color_secondary_muted, LV_PART_ITEMS | LV_STATE_EDITED);
 2107              		.loc 1 914 9 discriminator 4 view .LVU651
 2108 0b94 434A     		ldr	r2, .L59+32
 2109 0b96 3031     		adds	r1, r1, #48
 2110 0b98 2046     		mov	r0, r4
 2111 0b9a FFF7FEFF 		bl	lv_obj_add_style
 2112              	.LVL228:
 915:lvgl/src/extra/themes/default/lv_theme_default.c ****     }
 2113              		.loc 1 915 9 is_stmt 1 discriminator 4 view .LVU652
 915:lvgl/src/extra/themes/default/lv_theme_default.c ****     }
 2114              		.loc 1 915 38 is_stmt 0 discriminator 4 view .LVU653
 2115 0b9e 2968     		ldr	r1, [r5]
 915:lvgl/src/extra/themes/default/lv_theme_default.c ****     }
 2116              		.loc 1 915 9 discriminator 4 view .LVU654
 2117 0ba0 414A     		ldr	r2, .L59+36
 2118 0ba2 4031     		adds	r1, r1, #64
 2119 0ba4 2046     		mov	r0, r4
 2120 0ba6 FFF7FEFF 		bl	lv_obj_add_style
 2121              	.LVL229:
 2122 0baa FFF701BB 		b	.L8
 2123              	.L50:
 905:lvgl/src/extra/themes/default/lv_theme_default.c ****         lv_obj_add_style(obj, &styles->outline_primary, LV_STATE_FOCUS_KEY);
 2124              		.loc 1 905 64 discriminator 1 view .LVU655
 2125 0bae 364B     		ldr	r3, .L59+4
 2126 0bb0 1968     		ldr	r1, [r3]
 905:lvgl/src/extra/themes/default/lv_theme_default.c ****         lv_obj_add_style(obj, &styles->outline_primary, LV_STATE_FOCUS_KEY);
 2127              		.loc 1 905 9 discriminator 1 view .LVU656
 2128 0bb2 7831     		adds	r1, r1, #120
 2129 0bb4 B4E7     		b	.L32
 2130              	.L30:
 919:lvgl/src/extra/themes/default/lv_theme_default.c ****         lv_obj_add_style(obj, &styles->card, 0);
 2131              		.loc 1 919 10 is_stmt 1 view .LVU657
 919:lvgl/src/extra/themes/default/lv_theme_default.c ****         lv_obj_add_style(obj, &styles->card, 0);
ARM GAS  /var/folders/k2/cd9bl_j17z77g23y6ffqb_400000gn/T//ccRoPncs.s 			page 67


 2132              		.loc 1 919 13 is_stmt 0 view .LVU658
 2133 0bb6 4249     		ldr	r1, .L59+60
 2134 0bb8 2046     		mov	r0, r4
 2135 0bba FFF7FEFF 		bl	lv_obj_check_type
 2136              	.LVL230:
 919:lvgl/src/extra/themes/default/lv_theme_default.c ****         lv_obj_add_style(obj, &styles->card, 0);
 2137              		.loc 1 919 12 view .LVU659
 2138 0bbe A0B9     		cbnz	r0, .L51
 926:lvgl/src/extra/themes/default/lv_theme_default.c ****         lv_obj_add_style(obj, &styles->bg_color_grey, 0);
 2139              		.loc 1 926 10 is_stmt 1 view .LVU660
 926:lvgl/src/extra/themes/default/lv_theme_default.c ****         lv_obj_add_style(obj, &styles->bg_color_grey, 0);
 2140              		.loc 1 926 13 is_stmt 0 view .LVU661
 2141 0bc0 4049     		ldr	r1, .L59+64
 2142 0bc2 2046     		mov	r0, r4
 2143 0bc4 FFF7FEFF 		bl	lv_obj_check_type
 2144              	.LVL231:
 926:lvgl/src/extra/themes/default/lv_theme_default.c ****         lv_obj_add_style(obj, &styles->bg_color_grey, 0);
 2145              		.loc 1 926 12 view .LVU662
 2146 0bc8 60B3     		cbz	r0, .L34
 927:lvgl/src/extra/themes/default/lv_theme_default.c ****         lv_obj_add_style(obj, &styles->list_item_grow, 0);
 2147              		.loc 1 927 9 is_stmt 1 view .LVU663
 927:lvgl/src/extra/themes/default/lv_theme_default.c ****         lv_obj_add_style(obj, &styles->list_item_grow, 0);
 2148              		.loc 1 927 38 is_stmt 0 view .LVU664
 2149 0bca 2F4D     		ldr	r5, .L59+4
 2150 0bcc 2968     		ldr	r1, [r5]
 927:lvgl/src/extra/themes/default/lv_theme_default.c ****         lv_obj_add_style(obj, &styles->list_item_grow, 0);
 2151              		.loc 1 927 9 view .LVU665
 2152 0bce 0022     		movs	r2, #0
 2153 0bd0 4831     		adds	r1, r1, #72
 2154 0bd2 2046     		mov	r0, r4
 2155 0bd4 FFF7FEFF 		bl	lv_obj_add_style
 2156              	.LVL232:
 928:lvgl/src/extra/themes/default/lv_theme_default.c ****     }
 2157              		.loc 1 928 9 is_stmt 1 view .LVU666
 928:lvgl/src/extra/themes/default/lv_theme_default.c ****     }
 2158              		.loc 1 928 38 is_stmt 0 view .LVU667
 2159 0bd8 2968     		ldr	r1, [r5]
 928:lvgl/src/extra/themes/default/lv_theme_default.c ****     }
 2160              		.loc 1 928 9 view .LVU668
 2161 0bda 0022     		movs	r2, #0
 2162 0bdc 01F5DC71 		add	r1, r1, #440
 2163 0be0 2046     		mov	r0, r4
 2164 0be2 FFF7FEFF 		bl	lv_obj_add_style
 2165              	.LVL233:
 2166 0be6 FFF7E3BA 		b	.L8
 2167              	.L51:
 920:lvgl/src/extra/themes/default/lv_theme_default.c ****         lv_obj_add_style(obj, &styles->list_bg, 0);
 2168              		.loc 1 920 9 is_stmt 1 view .LVU669
 920:lvgl/src/extra/themes/default/lv_theme_default.c ****         lv_obj_add_style(obj, &styles->list_bg, 0);
 2169              		.loc 1 920 38 is_stmt 0 view .LVU670
 2170 0bea 274D     		ldr	r5, .L59+4
 2171 0bec 2968     		ldr	r1, [r5]
 920:lvgl/src/extra/themes/default/lv_theme_default.c ****         lv_obj_add_style(obj, &styles->list_bg, 0);
 2172              		.loc 1 920 9 view .LVU671
 2173 0bee 0022     		movs	r2, #0
 2174 0bf0 1831     		adds	r1, r1, #24
 2175 0bf2 2046     		mov	r0, r4
ARM GAS  /var/folders/k2/cd9bl_j17z77g23y6ffqb_400000gn/T//ccRoPncs.s 			page 68


 2176 0bf4 FFF7FEFF 		bl	lv_obj_add_style
 2177              	.LVL234:
 921:lvgl/src/extra/themes/default/lv_theme_default.c ****         lv_obj_add_style(obj, &styles->scrollbar, LV_PART_SCROLLBAR);
 2178              		.loc 1 921 9 is_stmt 1 view .LVU672
 921:lvgl/src/extra/themes/default/lv_theme_default.c ****         lv_obj_add_style(obj, &styles->scrollbar, LV_PART_SCROLLBAR);
 2179              		.loc 1 921 38 is_stmt 0 view .LVU673
 2180 0bf8 2968     		ldr	r1, [r5]
 921:lvgl/src/extra/themes/default/lv_theme_default.c ****         lv_obj_add_style(obj, &styles->scrollbar, LV_PART_SCROLLBAR);
 2181              		.loc 1 921 9 view .LVU674
 2182 0bfa 0022     		movs	r2, #0
 2183 0bfc 01F5D471 		add	r1, r1, #424
 2184 0c00 2046     		mov	r0, r4
 2185 0c02 FFF7FEFF 		bl	lv_obj_add_style
 2186              	.LVL235:
 922:lvgl/src/extra/themes/default/lv_theme_default.c ****         lv_obj_add_style(obj, &styles->scrollbar_scrolled, LV_PART_SCROLLBAR | LV_STATE_SCROLLED);
 2187              		.loc 1 922 9 is_stmt 1 view .LVU675
 922:lvgl/src/extra/themes/default/lv_theme_default.c ****         lv_obj_add_style(obj, &styles->scrollbar_scrolled, LV_PART_SCROLLBAR | LV_STATE_SCROLLED);
 2188              		.loc 1 922 38 is_stmt 0 view .LVU676
 2189 0c06 2968     		ldr	r1, [r5]
 922:lvgl/src/extra/themes/default/lv_theme_default.c ****         lv_obj_add_style(obj, &styles->scrollbar_scrolled, LV_PART_SCROLLBAR | LV_STATE_SCROLLED);
 2190              		.loc 1 922 9 view .LVU677
 2191 0c08 4FF48032 		mov	r2, #65536
 2192 0c0c 0831     		adds	r1, r1, #8
 2193 0c0e 2046     		mov	r0, r4
 2194 0c10 FFF7FEFF 		bl	lv_obj_add_style
 2195              	.LVL236:
 923:lvgl/src/extra/themes/default/lv_theme_default.c ****         return;
 2196              		.loc 1 923 9 is_stmt 1 view .LVU678
 923:lvgl/src/extra/themes/default/lv_theme_default.c ****         return;
 2197              		.loc 1 923 38 is_stmt 0 view .LVU679
 2198 0c14 2968     		ldr	r1, [r5]
 923:lvgl/src/extra/themes/default/lv_theme_default.c ****         return;
 2199              		.loc 1 923 9 view .LVU680
 2200 0c16 1E4A     		ldr	r2, .L59+12
 2201 0c18 1031     		adds	r1, r1, #16
 2202 0c1a 2046     		mov	r0, r4
 2203 0c1c FFF7FEFF 		bl	lv_obj_add_style
 2204              	.LVL237:
 924:lvgl/src/extra/themes/default/lv_theme_default.c ****     }
 2205              		.loc 1 924 9 is_stmt 1 view .LVU681
 2206 0c20 FFF703BA 		b	.L1
 2207              	.L34:
 930:lvgl/src/extra/themes/default/lv_theme_default.c ****         lv_obj_add_style(obj, &styles->bg_color_white, 0);
 2208              		.loc 1 930 10 view .LVU682
 930:lvgl/src/extra/themes/default/lv_theme_default.c ****         lv_obj_add_style(obj, &styles->bg_color_white, 0);
 2209              		.loc 1 930 13 is_stmt 0 view .LVU683
 2210 0c24 2849     		ldr	r1, .L59+68
 2211 0c26 2046     		mov	r0, r4
 2212 0c28 FFF7FEFF 		bl	lv_obj_check_type
 2213              	.LVL238:
 930:lvgl/src/extra/themes/default/lv_theme_default.c ****         lv_obj_add_style(obj, &styles->bg_color_white, 0);
 2214              		.loc 1 930 12 view .LVU684
 2215 0c2c 0028     		cmp	r0, #0
 2216 0c2e 4DD0     		beq	.L35
 931:lvgl/src/extra/themes/default/lv_theme_default.c ****         lv_obj_add_style(obj, &styles->list_btn, 0);
 2217              		.loc 1 931 9 is_stmt 1 view .LVU685
 931:lvgl/src/extra/themes/default/lv_theme_default.c ****         lv_obj_add_style(obj, &styles->list_btn, 0);
ARM GAS  /var/folders/k2/cd9bl_j17z77g23y6ffqb_400000gn/T//ccRoPncs.s 			page 69


 2218              		.loc 1 931 38 is_stmt 0 view .LVU686
 2219 0c30 154D     		ldr	r5, .L59+4
 2220 0c32 2968     		ldr	r1, [r5]
 931:lvgl/src/extra/themes/default/lv_theme_default.c ****         lv_obj_add_style(obj, &styles->list_btn, 0);
 2221              		.loc 1 931 9 view .LVU687
 2222 0c34 0022     		movs	r2, #0
 2223 0c36 5031     		adds	r1, r1, #80
 2224 0c38 2046     		mov	r0, r4
 2225 0c3a FFF7FEFF 		bl	lv_obj_add_style
 2226              	.LVL239:
 932:lvgl/src/extra/themes/default/lv_theme_default.c ****         lv_obj_add_style(obj, &styles->bg_color_primary, LV_STATE_FOCUS_KEY);
 2227              		.loc 1 932 9 is_stmt 1 view .LVU688
 932:lvgl/src/extra/themes/default/lv_theme_default.c ****         lv_obj_add_style(obj, &styles->bg_color_primary, LV_STATE_FOCUS_KEY);
 2228              		.loc 1 932 38 is_stmt 0 view .LVU689
 2229 0c3e 2968     		ldr	r1, [r5]
 932:lvgl/src/extra/themes/default/lv_theme_default.c ****         lv_obj_add_style(obj, &styles->bg_color_primary, LV_STATE_FOCUS_KEY);
 2230              		.loc 1 932 9 view .LVU690
 2231 0c40 0022     		movs	r2, #0
 2232 0c42 01F5D871 		add	r1, r1, #432
 2233 0c46 2046     		mov	r0, r4
 2234 0c48 FFF7FEFF 		bl	lv_obj_add_style
 2235              	.LVL240:
 933:lvgl/src/extra/themes/default/lv_theme_default.c ****         lv_obj_add_style(obj, &styles->list_item_grow, LV_STATE_FOCUS_KEY);
 2236              		.loc 1 933 9 is_stmt 1 view .LVU691
 933:lvgl/src/extra/themes/default/lv_theme_default.c ****         lv_obj_add_style(obj, &styles->list_item_grow, LV_STATE_FOCUS_KEY);
 2237              		.loc 1 933 38 is_stmt 0 view .LVU692
 2238 0c4c 2968     		ldr	r1, [r5]
 933:lvgl/src/extra/themes/default/lv_theme_default.c ****         lv_obj_add_style(obj, &styles->list_item_grow, LV_STATE_FOCUS_KEY);
 2239              		.loc 1 933 9 view .LVU693
 2240 0c4e 0422     		movs	r2, #4
 2241 0c50 2831     		adds	r1, r1, #40
 2242 0c52 2046     		mov	r0, r4
 2243 0c54 FFF7FEFF 		bl	lv_obj_add_style
 2244              	.LVL241:
 934:lvgl/src/extra/themes/default/lv_theme_default.c ****         lv_obj_add_style(obj, &styles->list_item_grow, LV_STATE_PRESSED);
 2245              		.loc 1 934 9 is_stmt 1 view .LVU694
 934:lvgl/src/extra/themes/default/lv_theme_default.c ****         lv_obj_add_style(obj, &styles->list_item_grow, LV_STATE_PRESSED);
 2246              		.loc 1 934 38 is_stmt 0 view .LVU695
 2247 0c58 2968     		ldr	r1, [r5]
 934:lvgl/src/extra/themes/default/lv_theme_default.c ****         lv_obj_add_style(obj, &styles->list_item_grow, LV_STATE_PRESSED);
 2248              		.loc 1 934 9 view .LVU696
 2249 0c5a 0422     		movs	r2, #4
 2250 0c5c 01F5DC71 		add	r1, r1, #440
 2251 0c60 2046     		mov	r0, r4
 2252 0c62 FFF7FEFF 		bl	lv_obj_add_style
 2253              	.LVL242:
 935:lvgl/src/extra/themes/default/lv_theme_default.c ****         lv_obj_add_style(obj, &styles->pressed, LV_STATE_PRESSED);
 2254              		.loc 1 935 9 is_stmt 1 view .LVU697
 935:lvgl/src/extra/themes/default/lv_theme_default.c ****         lv_obj_add_style(obj, &styles->pressed, LV_STATE_PRESSED);
 2255              		.loc 1 935 38 is_stmt 0 view .LVU698
 2256 0c66 2968     		ldr	r1, [r5]
 935:lvgl/src/extra/themes/default/lv_theme_default.c ****         lv_obj_add_style(obj, &styles->pressed, LV_STATE_PRESSED);
 2257              		.loc 1 935 9 view .LVU699
 2258 0c68 2022     		movs	r2, #32
 2259 0c6a 01F5DC71 		add	r1, r1, #440
 2260 0c6e 2046     		mov	r0, r4
 2261 0c70 FFF7FEFF 		bl	lv_obj_add_style
ARM GAS  /var/folders/k2/cd9bl_j17z77g23y6ffqb_400000gn/T//ccRoPncs.s 			page 70


 2262              	.LVL243:
 936:lvgl/src/extra/themes/default/lv_theme_default.c **** 
 2263              		.loc 1 936 9 is_stmt 1 view .LVU700
 936:lvgl/src/extra/themes/default/lv_theme_default.c **** 
 2264              		.loc 1 936 38 is_stmt 0 view .LVU701
 2265 0c74 2968     		ldr	r1, [r5]
 936:lvgl/src/extra/themes/default/lv_theme_default.c **** 
 2266              		.loc 1 936 9 view .LVU702
 2267 0c76 2022     		movs	r2, #32
 2268 0c78 5831     		adds	r1, r1, #88
 2269 0c7a 2046     		mov	r0, r4
 2270 0c7c FFF7FEFF 		bl	lv_obj_add_style
 2271              	.LVL244:
 2272 0c80 FFF796BA 		b	.L8
 2273              	.L60:
 2274              		.align	2
 2275              	.L59:
 2276 0c84 00000000 		.word	lv_meter_class
 2277 0c88 00000000 		.word	.LANCHOR0
 2278 0c8c 00000000 		.word	lv_textarea_class
 2279 0c90 40000100 		.word	65600
 2280 0c94 02000700 		.word	458754
 2281 0c98 00000000 		.word	lv_calendar_class
 2282 0c9c 20000500 		.word	327712
 2283 0ca0 80000500 		.word	327808
 2284 0ca4 04000500 		.word	327684
 2285 0ca8 08000500 		.word	327688
 2286 0cac 00000000 		.word	lv_calendar_header_arrow_class
 2287 0cb0 00000000 		.word	lv_calendar_header_dropdown_class
 2288 0cb4 00000000 		.word	lv_keyboard_class
 2289 0cb8 00000000 		.word	.LANCHOR1
 2290 0cbc 01000500 		.word	327681
 2291 0cc0 00000000 		.word	lv_list_class
 2292 0cc4 00000000 		.word	lv_list_text_class
 2293 0cc8 00000000 		.word	lv_list_btn_class
 2294              	.L35:
 941:lvgl/src/extra/themes/default/lv_theme_default.c ****         lv_obj_add_style(obj, &styles->card, 0);
 2295              		.loc 1 941 10 is_stmt 1 view .LVU703
 941:lvgl/src/extra/themes/default/lv_theme_default.c ****         lv_obj_add_style(obj, &styles->card, 0);
 2296              		.loc 1 941 13 is_stmt 0 view .LVU704
 2297 0ccc 4549     		ldr	r1, .L61
 2298 0cce 2046     		mov	r0, r4
 2299 0cd0 FFF7FEFF 		bl	lv_obj_check_type
 2300              	.LVL245:
 941:lvgl/src/extra/themes/default/lv_theme_default.c ****         lv_obj_add_style(obj, &styles->card, 0);
 2301              		.loc 1 941 12 view .LVU705
 2302 0cd4 30BB     		cbnz	r0, .L52
 948:lvgl/src/extra/themes/default/lv_theme_default.c ****         lv_obj_add_style(obj, &styles->card, 0);
 2303              		.loc 1 948 10 is_stmt 1 view .LVU706
 948:lvgl/src/extra/themes/default/lv_theme_default.c ****         lv_obj_add_style(obj, &styles->card, 0);
 2304              		.loc 1 948 13 is_stmt 0 view .LVU707
 2305 0cd6 4449     		ldr	r1, .L61+4
 2306 0cd8 2046     		mov	r0, r4
 2307 0cda FFF7FEFF 		bl	lv_obj_check_type
 2308              	.LVL246:
 948:lvgl/src/extra/themes/default/lv_theme_default.c ****         lv_obj_add_style(obj, &styles->card, 0);
 2309              		.loc 1 948 12 view .LVU708
ARM GAS  /var/folders/k2/cd9bl_j17z77g23y6ffqb_400000gn/T//ccRoPncs.s 			page 71


 2310 0cde 88B3     		cbz	r0, .L37
 949:lvgl/src/extra/themes/default/lv_theme_default.c ****         lv_obj_add_style(obj, &styles->pad_small, 0);
 2311              		.loc 1 949 9 is_stmt 1 view .LVU709
 949:lvgl/src/extra/themes/default/lv_theme_default.c ****         lv_obj_add_style(obj, &styles->pad_small, 0);
 2312              		.loc 1 949 38 is_stmt 0 view .LVU710
 2313 0ce0 424D     		ldr	r5, .L61+8
 2314 0ce2 2968     		ldr	r1, [r5]
 949:lvgl/src/extra/themes/default/lv_theme_default.c ****         lv_obj_add_style(obj, &styles->pad_small, 0);
 2315              		.loc 1 949 9 view .LVU711
 2316 0ce4 0022     		movs	r2, #0
 2317 0ce6 1831     		adds	r1, r1, #24
 2318 0ce8 2046     		mov	r0, r4
 2319 0cea FFF7FEFF 		bl	lv_obj_add_style
 2320              	.LVL247:
 950:lvgl/src/extra/themes/default/lv_theme_default.c ****         lv_obj_add_style(obj, &styles->outline_primary, LV_STATE_FOCUS_KEY);
 2321              		.loc 1 950 9 is_stmt 1 view .LVU712
 950:lvgl/src/extra/themes/default/lv_theme_default.c ****         lv_obj_add_style(obj, &styles->outline_primary, LV_STATE_FOCUS_KEY);
 2322              		.loc 1 950 38 is_stmt 0 view .LVU713
 2323 0cee 2968     		ldr	r1, [r5]
 950:lvgl/src/extra/themes/default/lv_theme_default.c ****         lv_obj_add_style(obj, &styles->outline_primary, LV_STATE_FOCUS_KEY);
 2324              		.loc 1 950 9 view .LVU714
 2325 0cf0 0022     		movs	r2, #0
 2326 0cf2 7831     		adds	r1, r1, #120
 2327 0cf4 2046     		mov	r0, r4
 2328 0cf6 FFF7FEFF 		bl	lv_obj_add_style
 2329              	.LVL248:
 951:lvgl/src/extra/themes/default/lv_theme_default.c ****         lv_obj_add_style(obj, &styles->outline_secondary, LV_STATE_EDITED);
 2330              		.loc 1 951 9 is_stmt 1 view .LVU715
 951:lvgl/src/extra/themes/default/lv_theme_default.c ****         lv_obj_add_style(obj, &styles->outline_secondary, LV_STATE_EDITED);
 2331              		.loc 1 951 38 is_stmt 0 view .LVU716
 2332 0cfa 2968     		ldr	r1, [r5]
 951:lvgl/src/extra/themes/default/lv_theme_default.c ****         lv_obj_add_style(obj, &styles->outline_secondary, LV_STATE_EDITED);
 2333              		.loc 1 951 9 view .LVU717
 2334 0cfc 0422     		movs	r2, #4
 2335 0cfe A031     		adds	r1, r1, #160
 2336 0d00 2046     		mov	r0, r4
 2337 0d02 FFF7FEFF 		bl	lv_obj_add_style
 2338              	.LVL249:
 952:lvgl/src/extra/themes/default/lv_theme_default.c ****         lv_obj_add_style(obj, &styles->bg_color_primary, LV_PART_CURSOR);
 2339              		.loc 1 952 9 is_stmt 1 view .LVU718
 952:lvgl/src/extra/themes/default/lv_theme_default.c ****         lv_obj_add_style(obj, &styles->bg_color_primary, LV_PART_CURSOR);
 2340              		.loc 1 952 38 is_stmt 0 view .LVU719
 2341 0d06 2968     		ldr	r1, [r5]
 952:lvgl/src/extra/themes/default/lv_theme_default.c ****         lv_obj_add_style(obj, &styles->bg_color_primary, LV_PART_CURSOR);
 2342              		.loc 1 952 9 view .LVU720
 2343 0d08 0822     		movs	r2, #8
 2344 0d0a A831     		adds	r1, r1, #168
 2345 0d0c 2046     		mov	r0, r4
 2346 0d0e FFF7FEFF 		bl	lv_obj_add_style
 2347              	.LVL250:
 953:lvgl/src/extra/themes/default/lv_theme_default.c ****     }
 2348              		.loc 1 953 9 is_stmt 1 view .LVU721
 953:lvgl/src/extra/themes/default/lv_theme_default.c ****     }
 2349              		.loc 1 953 38 is_stmt 0 view .LVU722
 2350 0d12 2968     		ldr	r1, [r5]
 953:lvgl/src/extra/themes/default/lv_theme_default.c ****     }
 2351              		.loc 1 953 9 view .LVU723
ARM GAS  /var/folders/k2/cd9bl_j17z77g23y6ffqb_400000gn/T//ccRoPncs.s 			page 72


 2352 0d14 4FF4E022 		mov	r2, #458752
 2353 0d18 2831     		adds	r1, r1, #40
 2354 0d1a 2046     		mov	r0, r4
 2355 0d1c FFF7FEFF 		bl	lv_obj_add_style
 2356              	.LVL251:
 2357 0d20 FFF746BA 		b	.L8
 2358              	.L52:
 942:lvgl/src/extra/themes/default/lv_theme_default.c ****         lv_obj_add_style(obj, &styles->msgbox_bg, 0);
 2359              		.loc 1 942 9 is_stmt 1 view .LVU724
 942:lvgl/src/extra/themes/default/lv_theme_default.c ****         lv_obj_add_style(obj, &styles->msgbox_bg, 0);
 2360              		.loc 1 942 38 is_stmt 0 view .LVU725
 2361 0d24 314D     		ldr	r5, .L61+8
 2362 0d26 2968     		ldr	r1, [r5]
 942:lvgl/src/extra/themes/default/lv_theme_default.c ****         lv_obj_add_style(obj, &styles->msgbox_bg, 0);
 2363              		.loc 1 942 9 view .LVU726
 2364 0d28 0022     		movs	r2, #0
 2365 0d2a 1831     		adds	r1, r1, #24
 2366 0d2c 2046     		mov	r0, r4
 2367 0d2e FFF7FEFF 		bl	lv_obj_add_style
 2368              	.LVL252:
 943:lvgl/src/extra/themes/default/lv_theme_default.c ****         return;
 2369              		.loc 1 943 9 is_stmt 1 view .LVU727
 943:lvgl/src/extra/themes/default/lv_theme_default.c ****         return;
 2370              		.loc 1 943 38 is_stmt 0 view .LVU728
 2371 0d32 2968     		ldr	r1, [r5]
 943:lvgl/src/extra/themes/default/lv_theme_default.c ****         return;
 2372              		.loc 1 943 9 view .LVU729
 2373 0d34 0022     		movs	r2, #0
 2374 0d36 01F5C871 		add	r1, r1, #400
 2375 0d3a 2046     		mov	r0, r4
 2376 0d3c FFF7FEFF 		bl	lv_obj_add_style
 2377              	.LVL253:
 944:lvgl/src/extra/themes/default/lv_theme_default.c ****     }
 2378              		.loc 1 944 9 is_stmt 1 view .LVU730
 2379 0d40 FFF773B9 		b	.L1
 2380              	.L37:
 957:lvgl/src/extra/themes/default/lv_theme_default.c ****         lv_obj_add_style(obj, &styles->scr, 0);
 2381              		.loc 1 957 10 view .LVU731
 957:lvgl/src/extra/themes/default/lv_theme_default.c ****         lv_obj_add_style(obj, &styles->scr, 0);
 2382              		.loc 1 957 13 is_stmt 0 view .LVU732
 2383 0d44 2A49     		ldr	r1, .L61+12
 2384 0d46 2046     		mov	r0, r4
 2385 0d48 FFF7FEFF 		bl	lv_obj_check_type
 2386              	.LVL254:
 957:lvgl/src/extra/themes/default/lv_theme_default.c ****         lv_obj_add_style(obj, &styles->scr, 0);
 2387              		.loc 1 957 12 view .LVU733
 2388 0d4c A0B1     		cbz	r0, .L38
 958:lvgl/src/extra/themes/default/lv_theme_default.c ****         lv_obj_add_style(obj, &styles->scrollbar, LV_PART_SCROLLBAR);
 2389              		.loc 1 958 9 is_stmt 1 view .LVU734
 958:lvgl/src/extra/themes/default/lv_theme_default.c ****         lv_obj_add_style(obj, &styles->scrollbar, LV_PART_SCROLLBAR);
 2390              		.loc 1 958 38 is_stmt 0 view .LVU735
 2391 0d4e 274D     		ldr	r5, .L61+8
 958:lvgl/src/extra/themes/default/lv_theme_default.c ****         lv_obj_add_style(obj, &styles->scrollbar, LV_PART_SCROLLBAR);
 2392              		.loc 1 958 9 view .LVU736
 2393 0d50 0022     		movs	r2, #0
 2394 0d52 2968     		ldr	r1, [r5]
 2395 0d54 2046     		mov	r0, r4
ARM GAS  /var/folders/k2/cd9bl_j17z77g23y6ffqb_400000gn/T//ccRoPncs.s 			page 73


 2396 0d56 FFF7FEFF 		bl	lv_obj_add_style
 2397              	.LVL255:
 959:lvgl/src/extra/themes/default/lv_theme_default.c ****         lv_obj_add_style(obj, &styles->scrollbar_scrolled, LV_PART_SCROLLBAR | LV_STATE_SCROLLED);
 2398              		.loc 1 959 9 is_stmt 1 view .LVU737
 959:lvgl/src/extra/themes/default/lv_theme_default.c ****         lv_obj_add_style(obj, &styles->scrollbar_scrolled, LV_PART_SCROLLBAR | LV_STATE_SCROLLED);
 2399              		.loc 1 959 38 is_stmt 0 view .LVU738
 2400 0d5a 2968     		ldr	r1, [r5]
 959:lvgl/src/extra/themes/default/lv_theme_default.c ****         lv_obj_add_style(obj, &styles->scrollbar_scrolled, LV_PART_SCROLLBAR | LV_STATE_SCROLLED);
 2401              		.loc 1 959 9 view .LVU739
 2402 0d5c 4FF48032 		mov	r2, #65536
 2403 0d60 0831     		adds	r1, r1, #8
 2404 0d62 2046     		mov	r0, r4
 2405 0d64 FFF7FEFF 		bl	lv_obj_add_style
 2406              	.LVL256:
 960:lvgl/src/extra/themes/default/lv_theme_default.c ****     }
 2407              		.loc 1 960 9 is_stmt 1 view .LVU740
 960:lvgl/src/extra/themes/default/lv_theme_default.c ****     }
 2408              		.loc 1 960 38 is_stmt 0 view .LVU741
 2409 0d68 2968     		ldr	r1, [r5]
 960:lvgl/src/extra/themes/default/lv_theme_default.c ****     }
 2410              		.loc 1 960 9 view .LVU742
 2411 0d6a 224A     		ldr	r2, .L61+16
 2412 0d6c 1031     		adds	r1, r1, #16
 2413 0d6e 2046     		mov	r0, r4
 2414 0d70 FFF7FEFF 		bl	lv_obj_add_style
 2415              	.LVL257:
 2416 0d74 FFF71CBA 		b	.L8
 2417              	.L38:
 962:lvgl/src/extra/themes/default/lv_theme_default.c ****         lv_obj_add_style(obj, &styles->scrollbar, LV_PART_SCROLLBAR);
 2418              		.loc 1 962 10 is_stmt 1 view .LVU743
 962:lvgl/src/extra/themes/default/lv_theme_default.c ****         lv_obj_add_style(obj, &styles->scrollbar, LV_PART_SCROLLBAR);
 2419              		.loc 1 962 13 is_stmt 0 view .LVU744
 2420 0d78 1F49     		ldr	r1, .L61+20
 2421 0d7a 2046     		mov	r0, r4
 2422 0d7c FFF7FEFF 		bl	lv_obj_check_type
 2423              	.LVL258:
 962:lvgl/src/extra/themes/default/lv_theme_default.c ****         lv_obj_add_style(obj, &styles->scrollbar, LV_PART_SCROLLBAR);
 2424              		.loc 1 962 12 view .LVU745
 2425 0d80 0028     		cmp	r0, #0
 2426 0d82 3FF415AA 		beq	.L8
 963:lvgl/src/extra/themes/default/lv_theme_default.c ****         lv_obj_add_style(obj, &styles->scrollbar_scrolled, LV_PART_SCROLLBAR | LV_STATE_SCROLLED);
 2427              		.loc 1 963 9 is_stmt 1 view .LVU746
 963:lvgl/src/extra/themes/default/lv_theme_default.c ****         lv_obj_add_style(obj, &styles->scrollbar_scrolled, LV_PART_SCROLLBAR | LV_STATE_SCROLLED);
 2428              		.loc 1 963 38 is_stmt 0 view .LVU747
 2429 0d86 194D     		ldr	r5, .L61+8
 2430 0d88 2968     		ldr	r1, [r5]
 963:lvgl/src/extra/themes/default/lv_theme_default.c ****         lv_obj_add_style(obj, &styles->scrollbar_scrolled, LV_PART_SCROLLBAR | LV_STATE_SCROLLED);
 2431              		.loc 1 963 9 view .LVU748
 2432 0d8a 4FF48032 		mov	r2, #65536
 2433 0d8e 0831     		adds	r1, r1, #8
 2434 0d90 2046     		mov	r0, r4
 2435 0d92 FFF7FEFF 		bl	lv_obj_add_style
 2436              	.LVL259:
 964:lvgl/src/extra/themes/default/lv_theme_default.c ****     }
 2437              		.loc 1 964 9 is_stmt 1 view .LVU749
 964:lvgl/src/extra/themes/default/lv_theme_default.c ****     }
 2438              		.loc 1 964 38 is_stmt 0 view .LVU750
ARM GAS  /var/folders/k2/cd9bl_j17z77g23y6ffqb_400000gn/T//ccRoPncs.s 			page 74


 2439 0d96 2968     		ldr	r1, [r5]
 964:lvgl/src/extra/themes/default/lv_theme_default.c ****     }
 2440              		.loc 1 964 9 view .LVU751
 2441 0d98 164A     		ldr	r2, .L61+16
 2442 0d9a 1031     		adds	r1, r1, #16
 2443 0d9c 2046     		mov	r0, r4
 2444 0d9e FFF7FEFF 		bl	lv_obj_add_style
 2445              	.LVL260:
 2446 0da2 FFF705BA 		b	.L8
 2447              	.L47:
 970:lvgl/src/extra/themes/default/lv_theme_default.c ****         lv_obj_add_style(obj, &styles->pad_zero, 0);
 2448              		.loc 1 970 9 is_stmt 1 view .LVU752
 970:lvgl/src/extra/themes/default/lv_theme_default.c ****         lv_obj_add_style(obj, &styles->pad_zero, 0);
 2449              		.loc 1 970 38 is_stmt 0 view .LVU753
 2450 0da6 114D     		ldr	r5, .L61+8
 970:lvgl/src/extra/themes/default/lv_theme_default.c ****         lv_obj_add_style(obj, &styles->pad_zero, 0);
 2451              		.loc 1 970 9 view .LVU754
 2452 0da8 0022     		movs	r2, #0
 2453 0daa 2968     		ldr	r1, [r5]
 2454 0dac 2046     		mov	r0, r4
 2455 0dae FFF7FEFF 		bl	lv_obj_add_style
 2456              	.LVL261:
 971:lvgl/src/extra/themes/default/lv_theme_default.c ****         return;
 2457              		.loc 1 971 9 is_stmt 1 view .LVU755
 971:lvgl/src/extra/themes/default/lv_theme_default.c ****         return;
 2458              		.loc 1 971 38 is_stmt 0 view .LVU756
 2459 0db2 2968     		ldr	r1, [r5]
 971:lvgl/src/extra/themes/default/lv_theme_default.c ****         return;
 2460              		.loc 1 971 9 view .LVU757
 2461 0db4 0022     		movs	r2, #0
 2462 0db6 6831     		adds	r1, r1, #104
 2463 0db8 2046     		mov	r0, r4
 2464 0dba FFF7FEFF 		bl	lv_obj_add_style
 2465              	.LVL262:
 972:lvgl/src/extra/themes/default/lv_theme_default.c ****     }
 2466              		.loc 1 972 9 is_stmt 1 view .LVU758
 2467 0dbe FFF734B9 		b	.L1
 2468              	.L40:
 986:lvgl/src/extra/themes/default/lv_theme_default.c ****             lv_obj_add_style(obj, &styles->led, 0);
 2469              		.loc 1 986 10 view .LVU759
 986:lvgl/src/extra/themes/default/lv_theme_default.c ****             lv_obj_add_style(obj, &styles->led, 0);
 2470              		.loc 1 986 13 is_stmt 0 view .LVU760
 2471 0dc2 0E49     		ldr	r1, .L61+24
 2472 0dc4 2046     		mov	r0, r4
 2473 0dc6 FFF7FEFF 		bl	lv_obj_check_type
 2474              	.LVL263:
 986:lvgl/src/extra/themes/default/lv_theme_default.c ****             lv_obj_add_style(obj, &styles->led, 0);
 2475              		.loc 1 986 12 view .LVU761
 2476 0dca 0028     		cmp	r0, #0
 2477 0dcc 3FF42DA9 		beq	.L1
 987:lvgl/src/extra/themes/default/lv_theme_default.c ****         }
 2478              		.loc 1 987 13 is_stmt 1 view .LVU762
 987:lvgl/src/extra/themes/default/lv_theme_default.c ****         }
 2479              		.loc 1 987 42 is_stmt 0 view .LVU763
 2480 0dd0 064B     		ldr	r3, .L61+8
 2481 0dd2 1968     		ldr	r1, [r3]
 987:lvgl/src/extra/themes/default/lv_theme_default.c ****         }
ARM GAS  /var/folders/k2/cd9bl_j17z77g23y6ffqb_400000gn/T//ccRoPncs.s 			page 75


 2482              		.loc 1 987 13 view .LVU764
 2483 0dd4 0022     		movs	r2, #0
 2484 0dd6 01F5EC71 		add	r1, r1, #472
 2485 0dda 2046     		mov	r0, r4
 2486 0ddc FFF7FEFF 		bl	lv_obj_add_style
 2487              	.LVL264:
 2488 0de0 FFF723B9 		b	.L1
 2489              	.L62:
 2490              		.align	2
 2491              	.L61:
 2492 0de4 00000000 		.word	lv_msgbox_class
 2493 0de8 00000000 		.word	lv_spinbox_class
 2494 0dec 00000000 		.word	.LANCHOR0
 2495 0df0 00000000 		.word	lv_tileview_class
 2496 0df4 40000100 		.word	65600
 2497 0df8 00000000 		.word	lv_tileview_tile_class
 2498 0dfc 00000000 		.word	lv_led_class
 2499              		.cfi_endproc
 2500              	.LFE189:
 2502              		.section	.text.dark_color_filter_cb,"ax",%progbits
 2503              		.align	1
 2504              		.syntax unified
 2505              		.thumb
 2506              		.thumb_func
 2507              		.fpu fpv4-sp-d16
 2509              	dark_color_filter_cb:
 2510              	.LVL265:
 2511              	.LFB184:
 187:lvgl/src/extra/themes/default/lv_theme_default.c ****     LV_UNUSED(f);
 2512              		.loc 1 187 1 is_stmt 1 view -0
 2513              		.cfi_startproc
 2514              		@ args = 0, pretend = 0, frame = 0
 2515              		@ frame_needed = 0, uses_anonymous_args = 0
 187:lvgl/src/extra/themes/default/lv_theme_default.c ****     LV_UNUSED(f);
 2516              		.loc 1 187 1 is_stmt 0 view .LVU766
 2517 0000 08B5     		push	{r3, lr}
 2518              	.LCFI1:
 2519              		.cfi_def_cfa_offset 8
 2520              		.cfi_offset 3, -8
 2521              		.cfi_offset 14, -4
 2522 0002 0846     		mov	r0, r1
 2523              	.LVL266:
 188:lvgl/src/extra/themes/default/lv_theme_default.c ****     return lv_color_darken(c, opa);
 2524              		.loc 1 188 5 is_stmt 1 view .LVU767
 189:lvgl/src/extra/themes/default/lv_theme_default.c **** }
 2525              		.loc 1 189 5 view .LVU768
 189:lvgl/src/extra/themes/default/lv_theme_default.c **** }
 2526              		.loc 1 189 12 is_stmt 0 view .LVU769
 2527 0004 1146     		mov	r1, r2
 2528              	.LVL267:
 189:lvgl/src/extra/themes/default/lv_theme_default.c **** }
 2529              		.loc 1 189 12 view .LVU770
 2530 0006 FFF7FEFF 		bl	lv_color_darken
 2531              	.LVL268:
 190:lvgl/src/extra/themes/default/lv_theme_default.c **** 
 2532              		.loc 1 190 1 view .LVU771
 2533 000a 08BD     		pop	{r3, pc}
ARM GAS  /var/folders/k2/cd9bl_j17z77g23y6ffqb_400000gn/T//ccRoPncs.s 			page 76


 2534              		.cfi_endproc
 2535              	.LFE184:
 2537              		.section	.text.style_init_reset,"ax",%progbits
 2538              		.align	1
 2539              		.syntax unified
 2540              		.thumb
 2541              		.thumb_func
 2542              		.fpu fpv4-sp-d16
 2544              	style_init_reset:
 2545              	.LVL269:
 2546              	.LFB190:
 991:lvgl/src/extra/themes/default/lv_theme_default.c **** 
 992:lvgl/src/extra/themes/default/lv_theme_default.c **** /**********************
 993:lvgl/src/extra/themes/default/lv_theme_default.c ****  *   STATIC FUNCTIONS
 994:lvgl/src/extra/themes/default/lv_theme_default.c ****  **********************/
 995:lvgl/src/extra/themes/default/lv_theme_default.c **** 
 996:lvgl/src/extra/themes/default/lv_theme_default.c **** static void style_init_reset(lv_style_t * style)
 997:lvgl/src/extra/themes/default/lv_theme_default.c **** {
 2547              		.loc 1 997 1 is_stmt 1 view -0
 2548              		.cfi_startproc
 2549              		@ args = 0, pretend = 0, frame = 0
 2550              		@ frame_needed = 0, uses_anonymous_args = 0
 2551              		.loc 1 997 1 is_stmt 0 view .LVU773
 2552 0000 08B5     		push	{r3, lr}
 2553              	.LCFI2:
 2554              		.cfi_def_cfa_offset 8
 2555              		.cfi_offset 3, -8
 2556              		.cfi_offset 14, -4
 998:lvgl/src/extra/themes/default/lv_theme_default.c ****     if(inited) lv_style_reset(style);
 2557              		.loc 1 998 5 is_stmt 1 view .LVU774
 2558              		.loc 1 998 8 is_stmt 0 view .LVU775
 2559 0002 044B     		ldr	r3, .L69
 2560 0004 1B78     		ldrb	r3, [r3]	@ zero_extendqisi2
 2561              		.loc 1 998 7 view .LVU776
 2562 0006 13B1     		cbz	r3, .L66
 2563              		.loc 1 998 16 is_stmt 1 discriminator 1 view .LVU777
 2564 0008 FFF7FEFF 		bl	lv_style_reset
 2565              	.LVL270:
 2566              	.L65:
 999:lvgl/src/extra/themes/default/lv_theme_default.c ****     else lv_style_init(style);
1000:lvgl/src/extra/themes/default/lv_theme_default.c **** }
 2567              		.loc 1 1000 1 is_stmt 0 view .LVU778
 2568 000c 08BD     		pop	{r3, pc}
 2569              	.LVL271:
 2570              	.L66:
 999:lvgl/src/extra/themes/default/lv_theme_default.c ****     else lv_style_init(style);
 2571              		.loc 1 999 10 is_stmt 1 view .LVU779
 2572 000e FFF7FEFF 		bl	lv_style_init
 2573              	.LVL272:
 2574              		.loc 1 1000 1 is_stmt 0 view .LVU780
 2575 0012 FBE7     		b	.L65
 2576              	.L70:
 2577              		.align	2
 2578              	.L69:
 2579 0014 00000000 		.word	.LANCHOR2
 2580              		.cfi_endproc
 2581              	.LFE190:
ARM GAS  /var/folders/k2/cd9bl_j17z77g23y6ffqb_400000gn/T//ccRoPncs.s 			page 77


 2583              		.section	.text.grey_filter_cb,"ax",%progbits
 2584              		.align	1
 2585              		.syntax unified
 2586              		.thumb
 2587              		.thumb_func
 2588              		.fpu fpv4-sp-d16
 2590              	grey_filter_cb:
 2591              	.LVL273:
 2592              	.LFB185:
 193:lvgl/src/extra/themes/default/lv_theme_default.c ****     LV_UNUSED(f);
 2593              		.loc 1 193 1 is_stmt 1 view -0
 2594              		.cfi_startproc
 2595              		@ args = 0, pretend = 0, frame = 0
 2596              		@ frame_needed = 0, uses_anonymous_args = 0
 193:lvgl/src/extra/themes/default/lv_theme_default.c ****     LV_UNUSED(f);
 2597              		.loc 1 193 1 is_stmt 0 view .LVU782
 2598 0000 38B5     		push	{r3, r4, r5, lr}
 2599              	.LCFI3:
 2600              		.cfi_def_cfa_offset 16
 2601              		.cfi_offset 3, -16
 2602              		.cfi_offset 4, -12
 2603              		.cfi_offset 5, -8
 2604              		.cfi_offset 14, -4
 2605 0002 0C46     		mov	r4, r1
 2606              	.LVL274:
 193:lvgl/src/extra/themes/default/lv_theme_default.c ****     LV_UNUSED(f);
 2607              		.loc 1 193 1 view .LVU783
 2608 0004 1546     		mov	r5, r2
 194:lvgl/src/extra/themes/default/lv_theme_default.c ****     if(theme.flags & MODE_DARK) return lv_color_mix(lv_palette_darken(LV_PALETTE_GREY, 2), color, o
 2609              		.loc 1 194 5 is_stmt 1 view .LVU784
 195:lvgl/src/extra/themes/default/lv_theme_default.c ****     else return lv_color_mix(lv_palette_lighten(LV_PALETTE_GREY, 2), color, opa);
 2610              		.loc 1 195 5 view .LVU785
 195:lvgl/src/extra/themes/default/lv_theme_default.c ****     else return lv_color_mix(lv_palette_lighten(LV_PALETTE_GREY, 2), color, opa);
 2611              		.loc 1 195 13 is_stmt 0 view .LVU786
 2612 0006 3A4B     		ldr	r3, .L75
 2613 0008 5B6A     		ldr	r3, [r3, #36]
 195:lvgl/src/extra/themes/default/lv_theme_default.c ****     else return lv_color_mix(lv_palette_lighten(LV_PALETTE_GREY, 2), color, opa);
 2614              		.loc 1 195 7 view .LVU787
 2615 000a 13F0010F 		tst	r3, #1
 2616 000e 37D0     		beq	.L72
 195:lvgl/src/extra/themes/default/lv_theme_default.c ****     else return lv_color_mix(lv_palette_lighten(LV_PALETTE_GREY, 2), color, opa);
 2617              		.loc 1 195 33 is_stmt 1 discriminator 1 view .LVU788
 195:lvgl/src/extra/themes/default/lv_theme_default.c ****     else return lv_color_mix(lv_palette_lighten(LV_PALETTE_GREY, 2), color, opa);
 2618              		.loc 1 195 40 is_stmt 0 discriminator 1 view .LVU789
 2619 0010 0221     		movs	r1, #2
 2620 0012 1220     		movs	r0, #18
 2621              	.LVL275:
 195:lvgl/src/extra/themes/default/lv_theme_default.c ****     else return lv_color_mix(lv_palette_lighten(LV_PALETTE_GREY, 2), color, opa);
 2622              		.loc 1 195 40 discriminator 1 view .LVU790
 2623 0014 FFF7FEFF 		bl	lv_palette_darken
 2624              	.LVL276:
 2625              	.LBB59:
 2626              	.LBI59:
 2627              		.file 2 "lvgl/src/extra/themes/default/../../../../src/hal/../misc/lv_color.h"
   1:lvgl/src/extra/themes/default/../../../../src/hal/../misc/lv_color.h **** /**
   2:lvgl/src/extra/themes/default/../../../../src/hal/../misc/lv_color.h ****  * @file lv_color.h
   3:lvgl/src/extra/themes/default/../../../../src/hal/../misc/lv_color.h ****  *
ARM GAS  /var/folders/k2/cd9bl_j17z77g23y6ffqb_400000gn/T//ccRoPncs.s 			page 78


   4:lvgl/src/extra/themes/default/../../../../src/hal/../misc/lv_color.h ****  */
   5:lvgl/src/extra/themes/default/../../../../src/hal/../misc/lv_color.h **** 
   6:lvgl/src/extra/themes/default/../../../../src/hal/../misc/lv_color.h **** #ifndef LV_COLOR_H
   7:lvgl/src/extra/themes/default/../../../../src/hal/../misc/lv_color.h **** #define LV_COLOR_H
   8:lvgl/src/extra/themes/default/../../../../src/hal/../misc/lv_color.h **** 
   9:lvgl/src/extra/themes/default/../../../../src/hal/../misc/lv_color.h **** #ifdef __cplusplus
  10:lvgl/src/extra/themes/default/../../../../src/hal/../misc/lv_color.h **** extern "C" {
  11:lvgl/src/extra/themes/default/../../../../src/hal/../misc/lv_color.h **** #endif
  12:lvgl/src/extra/themes/default/../../../../src/hal/../misc/lv_color.h **** 
  13:lvgl/src/extra/themes/default/../../../../src/hal/../misc/lv_color.h **** /*********************
  14:lvgl/src/extra/themes/default/../../../../src/hal/../misc/lv_color.h ****  *      INCLUDES
  15:lvgl/src/extra/themes/default/../../../../src/hal/../misc/lv_color.h ****  *********************/
  16:lvgl/src/extra/themes/default/../../../../src/hal/../misc/lv_color.h **** #include "../lv_conf_internal.h"
  17:lvgl/src/extra/themes/default/../../../../src/hal/../misc/lv_color.h **** #include "lv_math.h"
  18:lvgl/src/extra/themes/default/../../../../src/hal/../misc/lv_color.h **** #include "lv_types.h"
  19:lvgl/src/extra/themes/default/../../../../src/hal/../misc/lv_color.h **** 
  20:lvgl/src/extra/themes/default/../../../../src/hal/../misc/lv_color.h **** /*Error checking*/
  21:lvgl/src/extra/themes/default/../../../../src/hal/../misc/lv_color.h **** #if LV_COLOR_DEPTH == 24
  22:lvgl/src/extra/themes/default/../../../../src/hal/../misc/lv_color.h **** #error "LV_COLOR_DEPTH 24 is deprecated. Use LV_COLOR_DEPTH 32 instead (lv_conf.h)"
  23:lvgl/src/extra/themes/default/../../../../src/hal/../misc/lv_color.h **** #endif
  24:lvgl/src/extra/themes/default/../../../../src/hal/../misc/lv_color.h **** 
  25:lvgl/src/extra/themes/default/../../../../src/hal/../misc/lv_color.h **** #if LV_COLOR_DEPTH != 32 && LV_COLOR_SCREEN_TRANSP != 0
  26:lvgl/src/extra/themes/default/../../../../src/hal/../misc/lv_color.h **** #error "LV_COLOR_SCREEN_TRANSP requires LV_COLOR_DEPTH == 32. Set it in lv_conf.h"
  27:lvgl/src/extra/themes/default/../../../../src/hal/../misc/lv_color.h **** #endif
  28:lvgl/src/extra/themes/default/../../../../src/hal/../misc/lv_color.h **** 
  29:lvgl/src/extra/themes/default/../../../../src/hal/../misc/lv_color.h **** #if LV_COLOR_DEPTH != 16 && LV_COLOR_16_SWAP != 0
  30:lvgl/src/extra/themes/default/../../../../src/hal/../misc/lv_color.h **** #error "LV_COLOR_16_SWAP requires LV_COLOR_DEPTH == 16. Set it in lv_conf.h"
  31:lvgl/src/extra/themes/default/../../../../src/hal/../misc/lv_color.h **** #endif
  32:lvgl/src/extra/themes/default/../../../../src/hal/../misc/lv_color.h **** 
  33:lvgl/src/extra/themes/default/../../../../src/hal/../misc/lv_color.h **** #include <stdint.h>
  34:lvgl/src/extra/themes/default/../../../../src/hal/../misc/lv_color.h **** 
  35:lvgl/src/extra/themes/default/../../../../src/hal/../misc/lv_color.h **** /*********************
  36:lvgl/src/extra/themes/default/../../../../src/hal/../misc/lv_color.h ****  *      DEFINES
  37:lvgl/src/extra/themes/default/../../../../src/hal/../misc/lv_color.h ****  *********************/
  38:lvgl/src/extra/themes/default/../../../../src/hal/../misc/lv_color.h **** 
  39:lvgl/src/extra/themes/default/../../../../src/hal/../misc/lv_color.h **** /**
  40:lvgl/src/extra/themes/default/../../../../src/hal/../misc/lv_color.h ****  * Opacity percentages.
  41:lvgl/src/extra/themes/default/../../../../src/hal/../misc/lv_color.h ****  */
  42:lvgl/src/extra/themes/default/../../../../src/hal/../misc/lv_color.h **** enum {
  43:lvgl/src/extra/themes/default/../../../../src/hal/../misc/lv_color.h ****     LV_OPA_TRANSP = 0,
  44:lvgl/src/extra/themes/default/../../../../src/hal/../misc/lv_color.h ****     LV_OPA_0      = 0,
  45:lvgl/src/extra/themes/default/../../../../src/hal/../misc/lv_color.h ****     LV_OPA_10     = 25,
  46:lvgl/src/extra/themes/default/../../../../src/hal/../misc/lv_color.h ****     LV_OPA_20     = 51,
  47:lvgl/src/extra/themes/default/../../../../src/hal/../misc/lv_color.h ****     LV_OPA_30     = 76,
  48:lvgl/src/extra/themes/default/../../../../src/hal/../misc/lv_color.h ****     LV_OPA_40     = 102,
  49:lvgl/src/extra/themes/default/../../../../src/hal/../misc/lv_color.h ****     LV_OPA_50     = 127,
  50:lvgl/src/extra/themes/default/../../../../src/hal/../misc/lv_color.h ****     LV_OPA_60     = 153,
  51:lvgl/src/extra/themes/default/../../../../src/hal/../misc/lv_color.h ****     LV_OPA_70     = 178,
  52:lvgl/src/extra/themes/default/../../../../src/hal/../misc/lv_color.h ****     LV_OPA_80     = 204,
  53:lvgl/src/extra/themes/default/../../../../src/hal/../misc/lv_color.h ****     LV_OPA_90     = 229,
  54:lvgl/src/extra/themes/default/../../../../src/hal/../misc/lv_color.h ****     LV_OPA_100    = 255,
  55:lvgl/src/extra/themes/default/../../../../src/hal/../misc/lv_color.h ****     LV_OPA_COVER  = 255,
  56:lvgl/src/extra/themes/default/../../../../src/hal/../misc/lv_color.h **** };
  57:lvgl/src/extra/themes/default/../../../../src/hal/../misc/lv_color.h **** 
  58:lvgl/src/extra/themes/default/../../../../src/hal/../misc/lv_color.h **** #define LV_OPA_MIN 2    /*Opacities below this will be transparent*/
  59:lvgl/src/extra/themes/default/../../../../src/hal/../misc/lv_color.h **** #define LV_OPA_MAX 253  /*Opacities above this will fully cover*/
  60:lvgl/src/extra/themes/default/../../../../src/hal/../misc/lv_color.h **** 
ARM GAS  /var/folders/k2/cd9bl_j17z77g23y6ffqb_400000gn/T//ccRoPncs.s 			page 79


  61:lvgl/src/extra/themes/default/../../../../src/hal/../misc/lv_color.h **** #if LV_COLOR_DEPTH == 1
  62:lvgl/src/extra/themes/default/../../../../src/hal/../misc/lv_color.h **** #define LV_COLOR_SIZE 8
  63:lvgl/src/extra/themes/default/../../../../src/hal/../misc/lv_color.h **** #elif LV_COLOR_DEPTH == 8
  64:lvgl/src/extra/themes/default/../../../../src/hal/../misc/lv_color.h **** #define LV_COLOR_SIZE 8
  65:lvgl/src/extra/themes/default/../../../../src/hal/../misc/lv_color.h **** #elif LV_COLOR_DEPTH == 16
  66:lvgl/src/extra/themes/default/../../../../src/hal/../misc/lv_color.h **** #define LV_COLOR_SIZE 16
  67:lvgl/src/extra/themes/default/../../../../src/hal/../misc/lv_color.h **** #elif LV_COLOR_DEPTH == 32
  68:lvgl/src/extra/themes/default/../../../../src/hal/../misc/lv_color.h **** #define LV_COLOR_SIZE 32
  69:lvgl/src/extra/themes/default/../../../../src/hal/../misc/lv_color.h **** #else
  70:lvgl/src/extra/themes/default/../../../../src/hal/../misc/lv_color.h **** #error "Invalid LV_COLOR_DEPTH in lv_conf.h! Set it to 1, 8, 16 or 32!"
  71:lvgl/src/extra/themes/default/../../../../src/hal/../misc/lv_color.h **** #endif
  72:lvgl/src/extra/themes/default/../../../../src/hal/../misc/lv_color.h **** 
  73:lvgl/src/extra/themes/default/../../../../src/hal/../misc/lv_color.h **** /**
  74:lvgl/src/extra/themes/default/../../../../src/hal/../misc/lv_color.h ****  * Adjust color mix functions rounding.
  75:lvgl/src/extra/themes/default/../../../../src/hal/../misc/lv_color.h ****  * GPUs might calculate color mix (blending) differently.
  76:lvgl/src/extra/themes/default/../../../../src/hal/../misc/lv_color.h ****  * Should be in range of 0..254
  77:lvgl/src/extra/themes/default/../../../../src/hal/../misc/lv_color.h ****  * 0: no adjustment, get the integer part of the result (round down)
  78:lvgl/src/extra/themes/default/../../../../src/hal/../misc/lv_color.h ****  * 64: round up from x.75
  79:lvgl/src/extra/themes/default/../../../../src/hal/../misc/lv_color.h ****  * 128: round up from half
  80:lvgl/src/extra/themes/default/../../../../src/hal/../misc/lv_color.h ****  * 192: round up from x.25
  81:lvgl/src/extra/themes/default/../../../../src/hal/../misc/lv_color.h ****  * 254: round up*/
  82:lvgl/src/extra/themes/default/../../../../src/hal/../misc/lv_color.h **** #ifndef LV_COLOR_MIX_ROUND_OFS
  83:lvgl/src/extra/themes/default/../../../../src/hal/../misc/lv_color.h **** #if LV_COLOR_DEPTH == 32
  84:lvgl/src/extra/themes/default/../../../../src/hal/../misc/lv_color.h **** #define LV_COLOR_MIX_ROUND_OFS 0
  85:lvgl/src/extra/themes/default/../../../../src/hal/../misc/lv_color.h **** #else
  86:lvgl/src/extra/themes/default/../../../../src/hal/../misc/lv_color.h **** #define LV_COLOR_MIX_ROUND_OFS 128
  87:lvgl/src/extra/themes/default/../../../../src/hal/../misc/lv_color.h **** #endif
  88:lvgl/src/extra/themes/default/../../../../src/hal/../misc/lv_color.h **** #endif
  89:lvgl/src/extra/themes/default/../../../../src/hal/../misc/lv_color.h **** 
  90:lvgl/src/extra/themes/default/../../../../src/hal/../misc/lv_color.h **** #if defined(__cplusplus) && !defined(_LV_COLOR_HAS_MODERN_CPP)
  91:lvgl/src/extra/themes/default/../../../../src/hal/../misc/lv_color.h **** /**
  92:lvgl/src/extra/themes/default/../../../../src/hal/../misc/lv_color.h **** * MSVC compiler's definition of the __cplusplus indicating 199711L regardless to C++ standard versi
  93:lvgl/src/extra/themes/default/../../../../src/hal/../misc/lv_color.h **** * see https://devblogs.microsoft.com/cppblog/msvc-now-correctly-reports-cplusplus
  94:lvgl/src/extra/themes/default/../../../../src/hal/../misc/lv_color.h **** * so we use _MSC_VER macro instead of __cplusplus
  95:lvgl/src/extra/themes/default/../../../../src/hal/../misc/lv_color.h **** */
  96:lvgl/src/extra/themes/default/../../../../src/hal/../misc/lv_color.h **** #ifdef _MSC_VER
  97:lvgl/src/extra/themes/default/../../../../src/hal/../misc/lv_color.h **** #if _MSC_VER >= 1900 /*Visual Studio 2015*/
  98:lvgl/src/extra/themes/default/../../../../src/hal/../misc/lv_color.h **** #define _LV_COLOR_HAS_MODERN_CPP 1
  99:lvgl/src/extra/themes/default/../../../../src/hal/../misc/lv_color.h **** #endif
 100:lvgl/src/extra/themes/default/../../../../src/hal/../misc/lv_color.h **** #else
 101:lvgl/src/extra/themes/default/../../../../src/hal/../misc/lv_color.h **** #if __cplusplus >= 201103L
 102:lvgl/src/extra/themes/default/../../../../src/hal/../misc/lv_color.h **** #define _LV_COLOR_HAS_MODERN_CPP 1
 103:lvgl/src/extra/themes/default/../../../../src/hal/../misc/lv_color.h **** #endif
 104:lvgl/src/extra/themes/default/../../../../src/hal/../misc/lv_color.h **** #endif
 105:lvgl/src/extra/themes/default/../../../../src/hal/../misc/lv_color.h **** #endif /*__cplusplus*/
 106:lvgl/src/extra/themes/default/../../../../src/hal/../misc/lv_color.h **** 
 107:lvgl/src/extra/themes/default/../../../../src/hal/../misc/lv_color.h **** #ifndef _LV_COLOR_HAS_MODERN_CPP
 108:lvgl/src/extra/themes/default/../../../../src/hal/../misc/lv_color.h **** #define _LV_COLOR_HAS_MODERN_CPP 0
 109:lvgl/src/extra/themes/default/../../../../src/hal/../misc/lv_color.h **** #endif
 110:lvgl/src/extra/themes/default/../../../../src/hal/../misc/lv_color.h **** 
 111:lvgl/src/extra/themes/default/../../../../src/hal/../misc/lv_color.h **** #if _LV_COLOR_HAS_MODERN_CPP
 112:lvgl/src/extra/themes/default/../../../../src/hal/../misc/lv_color.h **** /*Fix msvc compiler error C4576 inside C++ code*/
 113:lvgl/src/extra/themes/default/../../../../src/hal/../misc/lv_color.h **** #define _LV_COLOR_MAKE_TYPE_HELPER lv_color_t
 114:lvgl/src/extra/themes/default/../../../../src/hal/../misc/lv_color.h **** #else
 115:lvgl/src/extra/themes/default/../../../../src/hal/../misc/lv_color.h **** #define _LV_COLOR_MAKE_TYPE_HELPER (lv_color_t)
 116:lvgl/src/extra/themes/default/../../../../src/hal/../misc/lv_color.h **** #endif
 117:lvgl/src/extra/themes/default/../../../../src/hal/../misc/lv_color.h **** 
ARM GAS  /var/folders/k2/cd9bl_j17z77g23y6ffqb_400000gn/T//ccRoPncs.s 			page 80


 118:lvgl/src/extra/themes/default/../../../../src/hal/../misc/lv_color.h **** /*---------------------------------------
 119:lvgl/src/extra/themes/default/../../../../src/hal/../misc/lv_color.h ****  * Macros for all existing color depths
 120:lvgl/src/extra/themes/default/../../../../src/hal/../misc/lv_color.h ****  * to set/get values of the color channels
 121:lvgl/src/extra/themes/default/../../../../src/hal/../misc/lv_color.h ****  *------------------------------------------*/
 122:lvgl/src/extra/themes/default/../../../../src/hal/../misc/lv_color.h **** # define LV_COLOR_SET_R1(c, v) (c).ch.red = (uint8_t)((v) & 0x1)
 123:lvgl/src/extra/themes/default/../../../../src/hal/../misc/lv_color.h **** # define LV_COLOR_SET_G1(c, v) (c).ch.green = (uint8_t)((v) & 0x1)
 124:lvgl/src/extra/themes/default/../../../../src/hal/../misc/lv_color.h **** # define LV_COLOR_SET_B1(c, v) (c).ch.blue = (uint8_t)((v) & 0x1)
 125:lvgl/src/extra/themes/default/../../../../src/hal/../misc/lv_color.h **** # define LV_COLOR_SET_A1(c, v) do {} while(0)
 126:lvgl/src/extra/themes/default/../../../../src/hal/../misc/lv_color.h **** 
 127:lvgl/src/extra/themes/default/../../../../src/hal/../misc/lv_color.h **** # define LV_COLOR_GET_R1(c) (c).ch.red
 128:lvgl/src/extra/themes/default/../../../../src/hal/../misc/lv_color.h **** # define LV_COLOR_GET_G1(c) (c).ch.green
 129:lvgl/src/extra/themes/default/../../../../src/hal/../misc/lv_color.h **** # define LV_COLOR_GET_B1(c) (c).ch.blue
 130:lvgl/src/extra/themes/default/../../../../src/hal/../misc/lv_color.h **** # define LV_COLOR_GET_A1(c) 0xFF
 131:lvgl/src/extra/themes/default/../../../../src/hal/../misc/lv_color.h **** 
 132:lvgl/src/extra/themes/default/../../../../src/hal/../misc/lv_color.h **** # define _LV_COLOR_ZERO_INITIALIZER1 {0x00}
 133:lvgl/src/extra/themes/default/../../../../src/hal/../misc/lv_color.h **** # define LV_COLOR_MAKE1(r8, g8, b8)  {(uint8_t)((b8 >> 7) | (g8 >> 7) | (r8 >> 7))}
 134:lvgl/src/extra/themes/default/../../../../src/hal/../misc/lv_color.h **** 
 135:lvgl/src/extra/themes/default/../../../../src/hal/../misc/lv_color.h **** # define LV_COLOR_SET_R8(c, v) (c).ch.red = (uint8_t)((v) & 0x7U)
 136:lvgl/src/extra/themes/default/../../../../src/hal/../misc/lv_color.h **** # define LV_COLOR_SET_G8(c, v) (c).ch.green = (uint8_t)((v) & 0x7U)
 137:lvgl/src/extra/themes/default/../../../../src/hal/../misc/lv_color.h **** # define LV_COLOR_SET_B8(c, v) (c).ch.blue = (uint8_t)((v) & 0x3U)
 138:lvgl/src/extra/themes/default/../../../../src/hal/../misc/lv_color.h **** # define LV_COLOR_SET_A8(c, v) do {} while(0)
 139:lvgl/src/extra/themes/default/../../../../src/hal/../misc/lv_color.h **** 
 140:lvgl/src/extra/themes/default/../../../../src/hal/../misc/lv_color.h **** # define LV_COLOR_GET_R8(c) (c).ch.red
 141:lvgl/src/extra/themes/default/../../../../src/hal/../misc/lv_color.h **** # define LV_COLOR_GET_G8(c) (c).ch.green
 142:lvgl/src/extra/themes/default/../../../../src/hal/../misc/lv_color.h **** # define LV_COLOR_GET_B8(c) (c).ch.blue
 143:lvgl/src/extra/themes/default/../../../../src/hal/../misc/lv_color.h **** # define LV_COLOR_GET_A8(c) 0xFF
 144:lvgl/src/extra/themes/default/../../../../src/hal/../misc/lv_color.h **** 
 145:lvgl/src/extra/themes/default/../../../../src/hal/../misc/lv_color.h **** # define _LV_COLOR_ZERO_INITIALIZER8 {{0x00, 0x00, 0x00}}
 146:lvgl/src/extra/themes/default/../../../../src/hal/../misc/lv_color.h **** # define LV_COLOR_MAKE8(r8, g8, b8) {{(uint8_t)((b8 >> 6) & 0x3U), (uint8_t)((g8 >> 5) & 0x7U), (ui
 147:lvgl/src/extra/themes/default/../../../../src/hal/../misc/lv_color.h **** 
 148:lvgl/src/extra/themes/default/../../../../src/hal/../misc/lv_color.h **** # define LV_COLOR_SET_R16(c, v) (c).ch.red = (uint8_t)((v) & 0x1FU)
 149:lvgl/src/extra/themes/default/../../../../src/hal/../misc/lv_color.h **** #if LV_COLOR_16_SWAP == 0
 150:lvgl/src/extra/themes/default/../../../../src/hal/../misc/lv_color.h **** # define LV_COLOR_SET_G16(c, v) (c).ch.green = (uint8_t)((v) & 0x3FU)
 151:lvgl/src/extra/themes/default/../../../../src/hal/../misc/lv_color.h **** #else
 152:lvgl/src/extra/themes/default/../../../../src/hal/../misc/lv_color.h **** # define LV_COLOR_SET_G16(c, v) {(c).ch.green_h = (uint8_t)(((v) >> 3) & 0x7); (c).ch.green_l = (ui
 153:lvgl/src/extra/themes/default/../../../../src/hal/../misc/lv_color.h **** #endif
 154:lvgl/src/extra/themes/default/../../../../src/hal/../misc/lv_color.h **** # define LV_COLOR_SET_B16(c, v) (c).ch.blue = (uint8_t)((v) & 0x1FU)
 155:lvgl/src/extra/themes/default/../../../../src/hal/../misc/lv_color.h **** # define LV_COLOR_SET_A16(c, v) do {} while(0)
 156:lvgl/src/extra/themes/default/../../../../src/hal/../misc/lv_color.h **** 
 157:lvgl/src/extra/themes/default/../../../../src/hal/../misc/lv_color.h **** # define LV_COLOR_GET_R16(c) (c).ch.red
 158:lvgl/src/extra/themes/default/../../../../src/hal/../misc/lv_color.h **** #if LV_COLOR_16_SWAP == 0
 159:lvgl/src/extra/themes/default/../../../../src/hal/../misc/lv_color.h **** # define LV_COLOR_GET_G16(c) (c).ch.green
 160:lvgl/src/extra/themes/default/../../../../src/hal/../misc/lv_color.h **** #else
 161:lvgl/src/extra/themes/default/../../../../src/hal/../misc/lv_color.h **** # define LV_COLOR_GET_G16(c) (((c).ch.green_h << 3) + (c).ch.green_l)
 162:lvgl/src/extra/themes/default/../../../../src/hal/../misc/lv_color.h **** #endif
 163:lvgl/src/extra/themes/default/../../../../src/hal/../misc/lv_color.h **** # define LV_COLOR_GET_B16(c) (c).ch.blue
 164:lvgl/src/extra/themes/default/../../../../src/hal/../misc/lv_color.h **** # define LV_COLOR_GET_A16(c) 0xFF
 165:lvgl/src/extra/themes/default/../../../../src/hal/../misc/lv_color.h **** 
 166:lvgl/src/extra/themes/default/../../../../src/hal/../misc/lv_color.h **** #if LV_COLOR_16_SWAP == 0
 167:lvgl/src/extra/themes/default/../../../../src/hal/../misc/lv_color.h **** # define _LV_COLOR_ZERO_INITIALIZER16  {{0x00, 0x00, 0x00}}
 168:lvgl/src/extra/themes/default/../../../../src/hal/../misc/lv_color.h **** # define LV_COLOR_MAKE16(r8, g8, b8) {{(uint8_t)((b8 >> 3) & 0x1FU), (uint8_t)((g8 >> 2) & 0x3FU), 
 169:lvgl/src/extra/themes/default/../../../../src/hal/../misc/lv_color.h **** #else
 170:lvgl/src/extra/themes/default/../../../../src/hal/../misc/lv_color.h **** # define _LV_COLOR_ZERO_INITIALIZER16 {{0x00, 0x00, 0x00, 0x00}}
 171:lvgl/src/extra/themes/default/../../../../src/hal/../misc/lv_color.h **** # define LV_COLOR_MAKE16(r8, g8, b8) {{(uint8_t)((g8 >> 5) & 0x7U), (uint8_t)((r8 >> 3) & 0x1FU), (
 172:lvgl/src/extra/themes/default/../../../../src/hal/../misc/lv_color.h **** #endif
 173:lvgl/src/extra/themes/default/../../../../src/hal/../misc/lv_color.h **** 
 174:lvgl/src/extra/themes/default/../../../../src/hal/../misc/lv_color.h **** # define LV_COLOR_SET_R32(c, v) (c).ch.red = (uint8_t)((v) & 0xFF)
ARM GAS  /var/folders/k2/cd9bl_j17z77g23y6ffqb_400000gn/T//ccRoPncs.s 			page 81


 175:lvgl/src/extra/themes/default/../../../../src/hal/../misc/lv_color.h **** # define LV_COLOR_SET_G32(c, v) (c).ch.green = (uint8_t)((v) & 0xFF)
 176:lvgl/src/extra/themes/default/../../../../src/hal/../misc/lv_color.h **** # define LV_COLOR_SET_B32(c, v) (c).ch.blue = (uint8_t)((v) & 0xFF)
 177:lvgl/src/extra/themes/default/../../../../src/hal/../misc/lv_color.h **** # define LV_COLOR_SET_A32(c, v) (c).ch.alpha = (uint8_t)((v) & 0xFF)
 178:lvgl/src/extra/themes/default/../../../../src/hal/../misc/lv_color.h **** 
 179:lvgl/src/extra/themes/default/../../../../src/hal/../misc/lv_color.h **** # define LV_COLOR_GET_R32(c) (c).ch.red
 180:lvgl/src/extra/themes/default/../../../../src/hal/../misc/lv_color.h **** # define LV_COLOR_GET_G32(c) (c).ch.green
 181:lvgl/src/extra/themes/default/../../../../src/hal/../misc/lv_color.h **** # define LV_COLOR_GET_B32(c) (c).ch.blue
 182:lvgl/src/extra/themes/default/../../../../src/hal/../misc/lv_color.h **** # define LV_COLOR_GET_A32(c) (c).ch.alpha
 183:lvgl/src/extra/themes/default/../../../../src/hal/../misc/lv_color.h **** 
 184:lvgl/src/extra/themes/default/../../../../src/hal/../misc/lv_color.h **** # define _LV_COLOR_ZERO_INITIALIZER32  {{0x00, 0x00, 0x00, 0x00}}
 185:lvgl/src/extra/themes/default/../../../../src/hal/../misc/lv_color.h **** # define LV_COLOR_MAKE32(r8, g8, b8) {{b8, g8, r8, 0xff}} /*Fix 0xff alpha*/
 186:lvgl/src/extra/themes/default/../../../../src/hal/../misc/lv_color.h **** 
 187:lvgl/src/extra/themes/default/../../../../src/hal/../misc/lv_color.h **** /*---------------------------------------
 188:lvgl/src/extra/themes/default/../../../../src/hal/../misc/lv_color.h ****  * Macros for the current color depth
 189:lvgl/src/extra/themes/default/../../../../src/hal/../misc/lv_color.h ****  * to set/get values of the color channels
 190:lvgl/src/extra/themes/default/../../../../src/hal/../misc/lv_color.h ****  *------------------------------------------*/
 191:lvgl/src/extra/themes/default/../../../../src/hal/../misc/lv_color.h **** #define LV_COLOR_SET_R(c, v) LV_CONCAT(LV_COLOR_SET_R, LV_COLOR_DEPTH)(c, v)
 192:lvgl/src/extra/themes/default/../../../../src/hal/../misc/lv_color.h **** #define LV_COLOR_SET_G(c, v) LV_CONCAT(LV_COLOR_SET_G, LV_COLOR_DEPTH)(c, v)
 193:lvgl/src/extra/themes/default/../../../../src/hal/../misc/lv_color.h **** #define LV_COLOR_SET_B(c, v) LV_CONCAT(LV_COLOR_SET_B, LV_COLOR_DEPTH)(c, v)
 194:lvgl/src/extra/themes/default/../../../../src/hal/../misc/lv_color.h **** #define LV_COLOR_SET_A(c, v) LV_CONCAT(LV_COLOR_SET_A, LV_COLOR_DEPTH)(c, v)
 195:lvgl/src/extra/themes/default/../../../../src/hal/../misc/lv_color.h **** 
 196:lvgl/src/extra/themes/default/../../../../src/hal/../misc/lv_color.h **** #define LV_COLOR_GET_R(c) LV_CONCAT(LV_COLOR_GET_R, LV_COLOR_DEPTH)(c)
 197:lvgl/src/extra/themes/default/../../../../src/hal/../misc/lv_color.h **** #define LV_COLOR_GET_G(c) LV_CONCAT(LV_COLOR_GET_G, LV_COLOR_DEPTH)(c)
 198:lvgl/src/extra/themes/default/../../../../src/hal/../misc/lv_color.h **** #define LV_COLOR_GET_B(c) LV_CONCAT(LV_COLOR_GET_B, LV_COLOR_DEPTH)(c)
 199:lvgl/src/extra/themes/default/../../../../src/hal/../misc/lv_color.h **** #define LV_COLOR_GET_A(c) LV_CONCAT(LV_COLOR_GET_A, LV_COLOR_DEPTH)(c)
 200:lvgl/src/extra/themes/default/../../../../src/hal/../misc/lv_color.h **** 
 201:lvgl/src/extra/themes/default/../../../../src/hal/../misc/lv_color.h **** #define _LV_COLOR_ZERO_INITIALIZER LV_CONCAT(_LV_COLOR_ZERO_INITIALIZER, LV_COLOR_DEPTH)
 202:lvgl/src/extra/themes/default/../../../../src/hal/../misc/lv_color.h **** #define LV_COLOR_MAKE(r8, g8, b8) LV_CONCAT(LV_COLOR_MAKE, LV_COLOR_DEPTH)(r8, g8, b8)
 203:lvgl/src/extra/themes/default/../../../../src/hal/../misc/lv_color.h **** 
 204:lvgl/src/extra/themes/default/../../../../src/hal/../misc/lv_color.h **** #define LV_UDIV255(x) ((uint32_t)((uint32_t) (x) * 0x8081) >> 0x17)
 205:lvgl/src/extra/themes/default/../../../../src/hal/../misc/lv_color.h **** 
 206:lvgl/src/extra/themes/default/../../../../src/hal/../misc/lv_color.h **** /**********************
 207:lvgl/src/extra/themes/default/../../../../src/hal/../misc/lv_color.h ****  *      TYPEDEFS
 208:lvgl/src/extra/themes/default/../../../../src/hal/../misc/lv_color.h ****  **********************/
 209:lvgl/src/extra/themes/default/../../../../src/hal/../misc/lv_color.h **** 
 210:lvgl/src/extra/themes/default/../../../../src/hal/../misc/lv_color.h **** typedef union {
 211:lvgl/src/extra/themes/default/../../../../src/hal/../misc/lv_color.h ****     uint8_t full; /*must be declared first to set all bits of byte via initializer list*/
 212:lvgl/src/extra/themes/default/../../../../src/hal/../misc/lv_color.h ****     union {
 213:lvgl/src/extra/themes/default/../../../../src/hal/../misc/lv_color.h ****         uint8_t blue : 1;
 214:lvgl/src/extra/themes/default/../../../../src/hal/../misc/lv_color.h ****         uint8_t green : 1;
 215:lvgl/src/extra/themes/default/../../../../src/hal/../misc/lv_color.h ****         uint8_t red : 1;
 216:lvgl/src/extra/themes/default/../../../../src/hal/../misc/lv_color.h ****     } ch;
 217:lvgl/src/extra/themes/default/../../../../src/hal/../misc/lv_color.h **** } lv_color1_t;
 218:lvgl/src/extra/themes/default/../../../../src/hal/../misc/lv_color.h **** 
 219:lvgl/src/extra/themes/default/../../../../src/hal/../misc/lv_color.h **** typedef union {
 220:lvgl/src/extra/themes/default/../../../../src/hal/../misc/lv_color.h ****     struct {
 221:lvgl/src/extra/themes/default/../../../../src/hal/../misc/lv_color.h ****         uint8_t blue : 2;
 222:lvgl/src/extra/themes/default/../../../../src/hal/../misc/lv_color.h ****         uint8_t green : 3;
 223:lvgl/src/extra/themes/default/../../../../src/hal/../misc/lv_color.h ****         uint8_t red : 3;
 224:lvgl/src/extra/themes/default/../../../../src/hal/../misc/lv_color.h ****     } ch;
 225:lvgl/src/extra/themes/default/../../../../src/hal/../misc/lv_color.h ****     uint8_t full;
 226:lvgl/src/extra/themes/default/../../../../src/hal/../misc/lv_color.h **** } lv_color8_t;
 227:lvgl/src/extra/themes/default/../../../../src/hal/../misc/lv_color.h **** 
 228:lvgl/src/extra/themes/default/../../../../src/hal/../misc/lv_color.h **** typedef union {
 229:lvgl/src/extra/themes/default/../../../../src/hal/../misc/lv_color.h ****     struct {
 230:lvgl/src/extra/themes/default/../../../../src/hal/../misc/lv_color.h **** #if LV_COLOR_16_SWAP == 0
 231:lvgl/src/extra/themes/default/../../../../src/hal/../misc/lv_color.h ****         uint16_t blue : 5;
ARM GAS  /var/folders/k2/cd9bl_j17z77g23y6ffqb_400000gn/T//ccRoPncs.s 			page 82


 232:lvgl/src/extra/themes/default/../../../../src/hal/../misc/lv_color.h ****         uint16_t green : 6;
 233:lvgl/src/extra/themes/default/../../../../src/hal/../misc/lv_color.h ****         uint16_t red : 5;
 234:lvgl/src/extra/themes/default/../../../../src/hal/../misc/lv_color.h **** #else
 235:lvgl/src/extra/themes/default/../../../../src/hal/../misc/lv_color.h ****         uint16_t green_h : 3;
 236:lvgl/src/extra/themes/default/../../../../src/hal/../misc/lv_color.h ****         uint16_t red : 5;
 237:lvgl/src/extra/themes/default/../../../../src/hal/../misc/lv_color.h ****         uint16_t blue : 5;
 238:lvgl/src/extra/themes/default/../../../../src/hal/../misc/lv_color.h ****         uint16_t green_l : 3;
 239:lvgl/src/extra/themes/default/../../../../src/hal/../misc/lv_color.h **** #endif
 240:lvgl/src/extra/themes/default/../../../../src/hal/../misc/lv_color.h ****     } ch;
 241:lvgl/src/extra/themes/default/../../../../src/hal/../misc/lv_color.h ****     uint16_t full;
 242:lvgl/src/extra/themes/default/../../../../src/hal/../misc/lv_color.h **** } lv_color16_t;
 243:lvgl/src/extra/themes/default/../../../../src/hal/../misc/lv_color.h **** 
 244:lvgl/src/extra/themes/default/../../../../src/hal/../misc/lv_color.h **** typedef union {
 245:lvgl/src/extra/themes/default/../../../../src/hal/../misc/lv_color.h ****     struct {
 246:lvgl/src/extra/themes/default/../../../../src/hal/../misc/lv_color.h ****         uint8_t blue;
 247:lvgl/src/extra/themes/default/../../../../src/hal/../misc/lv_color.h ****         uint8_t green;
 248:lvgl/src/extra/themes/default/../../../../src/hal/../misc/lv_color.h ****         uint8_t red;
 249:lvgl/src/extra/themes/default/../../../../src/hal/../misc/lv_color.h ****         uint8_t alpha;
 250:lvgl/src/extra/themes/default/../../../../src/hal/../misc/lv_color.h ****     } ch;
 251:lvgl/src/extra/themes/default/../../../../src/hal/../misc/lv_color.h ****     uint32_t full;
 252:lvgl/src/extra/themes/default/../../../../src/hal/../misc/lv_color.h **** } lv_color32_t;
 253:lvgl/src/extra/themes/default/../../../../src/hal/../misc/lv_color.h **** 
 254:lvgl/src/extra/themes/default/../../../../src/hal/../misc/lv_color.h **** typedef LV_CONCAT3(uint, LV_COLOR_SIZE, _t) lv_color_int_t;
 255:lvgl/src/extra/themes/default/../../../../src/hal/../misc/lv_color.h **** typedef LV_CONCAT3(lv_color, LV_COLOR_DEPTH, _t) lv_color_t;
 256:lvgl/src/extra/themes/default/../../../../src/hal/../misc/lv_color.h **** 
 257:lvgl/src/extra/themes/default/../../../../src/hal/../misc/lv_color.h **** typedef struct {
 258:lvgl/src/extra/themes/default/../../../../src/hal/../misc/lv_color.h ****     uint16_t h;
 259:lvgl/src/extra/themes/default/../../../../src/hal/../misc/lv_color.h ****     uint8_t s;
 260:lvgl/src/extra/themes/default/../../../../src/hal/../misc/lv_color.h ****     uint8_t v;
 261:lvgl/src/extra/themes/default/../../../../src/hal/../misc/lv_color.h **** } lv_color_hsv_t;
 262:lvgl/src/extra/themes/default/../../../../src/hal/../misc/lv_color.h **** 
 263:lvgl/src/extra/themes/default/../../../../src/hal/../misc/lv_color.h **** //! @cond Doxygen_Suppress
 264:lvgl/src/extra/themes/default/../../../../src/hal/../misc/lv_color.h **** /*No idea where the guard is required but else throws warnings in the docs*/
 265:lvgl/src/extra/themes/default/../../../../src/hal/../misc/lv_color.h **** typedef uint8_t lv_opa_t;
 266:lvgl/src/extra/themes/default/../../../../src/hal/../misc/lv_color.h **** //! @endcond
 267:lvgl/src/extra/themes/default/../../../../src/hal/../misc/lv_color.h **** 
 268:lvgl/src/extra/themes/default/../../../../src/hal/../misc/lv_color.h **** struct _lv_color_filter_dsc_t;
 269:lvgl/src/extra/themes/default/../../../../src/hal/../misc/lv_color.h **** 
 270:lvgl/src/extra/themes/default/../../../../src/hal/../misc/lv_color.h **** typedef lv_color_t (*lv_color_filter_cb_t)(const struct _lv_color_filter_dsc_t *, lv_color_t, lv_op
 271:lvgl/src/extra/themes/default/../../../../src/hal/../misc/lv_color.h **** 
 272:lvgl/src/extra/themes/default/../../../../src/hal/../misc/lv_color.h **** typedef struct _lv_color_filter_dsc_t {
 273:lvgl/src/extra/themes/default/../../../../src/hal/../misc/lv_color.h ****     lv_color_filter_cb_t filter_cb;
 274:lvgl/src/extra/themes/default/../../../../src/hal/../misc/lv_color.h ****     void * user_data;
 275:lvgl/src/extra/themes/default/../../../../src/hal/../misc/lv_color.h **** }lv_color_filter_dsc_t;
 276:lvgl/src/extra/themes/default/../../../../src/hal/../misc/lv_color.h **** 
 277:lvgl/src/extra/themes/default/../../../../src/hal/../misc/lv_color.h **** 
 278:lvgl/src/extra/themes/default/../../../../src/hal/../misc/lv_color.h **** typedef enum {
 279:lvgl/src/extra/themes/default/../../../../src/hal/../misc/lv_color.h ****     LV_PALETTE_RED,
 280:lvgl/src/extra/themes/default/../../../../src/hal/../misc/lv_color.h ****     LV_PALETTE_PINK,
 281:lvgl/src/extra/themes/default/../../../../src/hal/../misc/lv_color.h ****     LV_PALETTE_PURPLE,
 282:lvgl/src/extra/themes/default/../../../../src/hal/../misc/lv_color.h ****     LV_PALETTE_DEEP_PURPLE,
 283:lvgl/src/extra/themes/default/../../../../src/hal/../misc/lv_color.h ****     LV_PALETTE_INDIGO,
 284:lvgl/src/extra/themes/default/../../../../src/hal/../misc/lv_color.h ****     LV_PALETTE_BLUE,
 285:lvgl/src/extra/themes/default/../../../../src/hal/../misc/lv_color.h ****     LV_PALETTE_LIGHT_BLUE,
 286:lvgl/src/extra/themes/default/../../../../src/hal/../misc/lv_color.h ****     LV_PALETTE_CYAN,
 287:lvgl/src/extra/themes/default/../../../../src/hal/../misc/lv_color.h ****     LV_PALETTE_TEAL,
 288:lvgl/src/extra/themes/default/../../../../src/hal/../misc/lv_color.h ****     LV_PALETTE_GREEN,
ARM GAS  /var/folders/k2/cd9bl_j17z77g23y6ffqb_400000gn/T//ccRoPncs.s 			page 83


 289:lvgl/src/extra/themes/default/../../../../src/hal/../misc/lv_color.h ****     LV_PALETTE_LIGHT_GREEN,
 290:lvgl/src/extra/themes/default/../../../../src/hal/../misc/lv_color.h ****     LV_PALETTE_LIME,
 291:lvgl/src/extra/themes/default/../../../../src/hal/../misc/lv_color.h ****     LV_PALETTE_YELLOW,
 292:lvgl/src/extra/themes/default/../../../../src/hal/../misc/lv_color.h ****     LV_PALETTE_AMBER,
 293:lvgl/src/extra/themes/default/../../../../src/hal/../misc/lv_color.h ****     LV_PALETTE_ORANGE,
 294:lvgl/src/extra/themes/default/../../../../src/hal/../misc/lv_color.h ****     LV_PALETTE_DEEP_ORANGE,
 295:lvgl/src/extra/themes/default/../../../../src/hal/../misc/lv_color.h ****     LV_PALETTE_BROWN,
 296:lvgl/src/extra/themes/default/../../../../src/hal/../misc/lv_color.h ****     LV_PALETTE_BLUE_GREY,
 297:lvgl/src/extra/themes/default/../../../../src/hal/../misc/lv_color.h ****     LV_PALETTE_GREY,
 298:lvgl/src/extra/themes/default/../../../../src/hal/../misc/lv_color.h ****     _LV_PALETTE_LAST,
 299:lvgl/src/extra/themes/default/../../../../src/hal/../misc/lv_color.h ****     LV_PALETTE_NONE = 0xff,
 300:lvgl/src/extra/themes/default/../../../../src/hal/../misc/lv_color.h **** }lv_palette_t;
 301:lvgl/src/extra/themes/default/../../../../src/hal/../misc/lv_color.h **** 
 302:lvgl/src/extra/themes/default/../../../../src/hal/../misc/lv_color.h **** /**********************
 303:lvgl/src/extra/themes/default/../../../../src/hal/../misc/lv_color.h ****  * GLOBAL PROTOTYPES
 304:lvgl/src/extra/themes/default/../../../../src/hal/../misc/lv_color.h ****  **********************/
 305:lvgl/src/extra/themes/default/../../../../src/hal/../misc/lv_color.h **** 
 306:lvgl/src/extra/themes/default/../../../../src/hal/../misc/lv_color.h **** /*In color conversations:
 307:lvgl/src/extra/themes/default/../../../../src/hal/../misc/lv_color.h ****  * - When converting to bigger color type the LSB weight of 1 LSB is calculated
 308:lvgl/src/extra/themes/default/../../../../src/hal/../misc/lv_color.h ****  *   E.g. 16 bit Red has 5 bits
 309:lvgl/src/extra/themes/default/../../../../src/hal/../misc/lv_color.h ****  *         8 bit Red has 3 bits
 310:lvgl/src/extra/themes/default/../../../../src/hal/../misc/lv_color.h ****  *        ----------------------
 311:lvgl/src/extra/themes/default/../../../../src/hal/../misc/lv_color.h ****  *        8 bit red LSB = (2^5 - 1) / (2^3 - 1) = 31 / 7 = 4
 312:lvgl/src/extra/themes/default/../../../../src/hal/../misc/lv_color.h ****  *
 313:lvgl/src/extra/themes/default/../../../../src/hal/../misc/lv_color.h ****  * - When calculating to smaller color type simply shift out the LSBs
 314:lvgl/src/extra/themes/default/../../../../src/hal/../misc/lv_color.h ****  *   E.g.  8 bit Red has 3 bits
 315:lvgl/src/extra/themes/default/../../../../src/hal/../misc/lv_color.h ****  *        16 bit Red has 5 bits
 316:lvgl/src/extra/themes/default/../../../../src/hal/../misc/lv_color.h ****  *        ----------------------
 317:lvgl/src/extra/themes/default/../../../../src/hal/../misc/lv_color.h ****  *         Shift right with 5 - 3 = 2
 318:lvgl/src/extra/themes/default/../../../../src/hal/../misc/lv_color.h ****  */
 319:lvgl/src/extra/themes/default/../../../../src/hal/../misc/lv_color.h **** static inline uint8_t lv_color_to1(lv_color_t color)
 320:lvgl/src/extra/themes/default/../../../../src/hal/../misc/lv_color.h **** {
 321:lvgl/src/extra/themes/default/../../../../src/hal/../misc/lv_color.h **** #if LV_COLOR_DEPTH == 1
 322:lvgl/src/extra/themes/default/../../../../src/hal/../misc/lv_color.h ****     return color.full;
 323:lvgl/src/extra/themes/default/../../../../src/hal/../misc/lv_color.h **** #elif LV_COLOR_DEPTH == 8
 324:lvgl/src/extra/themes/default/../../../../src/hal/../misc/lv_color.h ****     if((LV_COLOR_GET_R(color) & 0x4) || (LV_COLOR_GET_G(color) & 0x4) || (LV_COLOR_GET_B(color) & 0
 325:lvgl/src/extra/themes/default/../../../../src/hal/../misc/lv_color.h ****         return 1;
 326:lvgl/src/extra/themes/default/../../../../src/hal/../misc/lv_color.h ****     }
 327:lvgl/src/extra/themes/default/../../../../src/hal/../misc/lv_color.h ****     else {
 328:lvgl/src/extra/themes/default/../../../../src/hal/../misc/lv_color.h ****         return 0;
 329:lvgl/src/extra/themes/default/../../../../src/hal/../misc/lv_color.h ****     }
 330:lvgl/src/extra/themes/default/../../../../src/hal/../misc/lv_color.h **** #elif LV_COLOR_DEPTH == 16
 331:lvgl/src/extra/themes/default/../../../../src/hal/../misc/lv_color.h ****     if((LV_COLOR_GET_R(color) & 0x10) || (LV_COLOR_GET_G(color) & 0x20) || (LV_COLOR_GET_B(color) &
 332:lvgl/src/extra/themes/default/../../../../src/hal/../misc/lv_color.h ****         return 1;
 333:lvgl/src/extra/themes/default/../../../../src/hal/../misc/lv_color.h ****     }
 334:lvgl/src/extra/themes/default/../../../../src/hal/../misc/lv_color.h ****     else {
 335:lvgl/src/extra/themes/default/../../../../src/hal/../misc/lv_color.h ****         return 0;
 336:lvgl/src/extra/themes/default/../../../../src/hal/../misc/lv_color.h ****     }
 337:lvgl/src/extra/themes/default/../../../../src/hal/../misc/lv_color.h **** #elif LV_COLOR_DEPTH == 32
 338:lvgl/src/extra/themes/default/../../../../src/hal/../misc/lv_color.h ****     if((LV_COLOR_GET_R(color) & 0x80) || (LV_COLOR_GET_G(color) & 0x80) || (LV_COLOR_GET_B(color) &
 339:lvgl/src/extra/themes/default/../../../../src/hal/../misc/lv_color.h ****         return 1;
 340:lvgl/src/extra/themes/default/../../../../src/hal/../misc/lv_color.h ****     }
 341:lvgl/src/extra/themes/default/../../../../src/hal/../misc/lv_color.h ****     else {
 342:lvgl/src/extra/themes/default/../../../../src/hal/../misc/lv_color.h ****         return 0;
 343:lvgl/src/extra/themes/default/../../../../src/hal/../misc/lv_color.h ****     }
 344:lvgl/src/extra/themes/default/../../../../src/hal/../misc/lv_color.h **** #endif
 345:lvgl/src/extra/themes/default/../../../../src/hal/../misc/lv_color.h **** }
ARM GAS  /var/folders/k2/cd9bl_j17z77g23y6ffqb_400000gn/T//ccRoPncs.s 			page 84


 346:lvgl/src/extra/themes/default/../../../../src/hal/../misc/lv_color.h **** 
 347:lvgl/src/extra/themes/default/../../../../src/hal/../misc/lv_color.h **** static inline uint8_t lv_color_to8(lv_color_t color)
 348:lvgl/src/extra/themes/default/../../../../src/hal/../misc/lv_color.h **** {
 349:lvgl/src/extra/themes/default/../../../../src/hal/../misc/lv_color.h **** #if LV_COLOR_DEPTH == 1
 350:lvgl/src/extra/themes/default/../../../../src/hal/../misc/lv_color.h ****     if(color.full == 0)
 351:lvgl/src/extra/themes/default/../../../../src/hal/../misc/lv_color.h ****         return 0;
 352:lvgl/src/extra/themes/default/../../../../src/hal/../misc/lv_color.h ****     else
 353:lvgl/src/extra/themes/default/../../../../src/hal/../misc/lv_color.h ****         return 0xFF;
 354:lvgl/src/extra/themes/default/../../../../src/hal/../misc/lv_color.h **** #elif LV_COLOR_DEPTH == 8
 355:lvgl/src/extra/themes/default/../../../../src/hal/../misc/lv_color.h ****     return color.full;
 356:lvgl/src/extra/themes/default/../../../../src/hal/../misc/lv_color.h **** #elif LV_COLOR_DEPTH == 16
 357:lvgl/src/extra/themes/default/../../../../src/hal/../misc/lv_color.h ****     lv_color8_t ret;
 358:lvgl/src/extra/themes/default/../../../../src/hal/../misc/lv_color.h ****     LV_COLOR_SET_R8(ret, LV_COLOR_GET_R(color) >> 2); /*5 - 3  = 2*/
 359:lvgl/src/extra/themes/default/../../../../src/hal/../misc/lv_color.h ****     LV_COLOR_SET_G8(ret, LV_COLOR_GET_G(color) >> 3); /*6 - 3  = 3*/
 360:lvgl/src/extra/themes/default/../../../../src/hal/../misc/lv_color.h ****     LV_COLOR_SET_B8(ret, LV_COLOR_GET_B(color) >> 3); /*5 - 2  = 3*/
 361:lvgl/src/extra/themes/default/../../../../src/hal/../misc/lv_color.h ****     return ret.full;
 362:lvgl/src/extra/themes/default/../../../../src/hal/../misc/lv_color.h **** #elif LV_COLOR_DEPTH == 32
 363:lvgl/src/extra/themes/default/../../../../src/hal/../misc/lv_color.h ****     lv_color8_t ret;
 364:lvgl/src/extra/themes/default/../../../../src/hal/../misc/lv_color.h ****     LV_COLOR_SET_R8(ret, LV_COLOR_GET_R(color) >> 5); /*8 - 3  = 5*/
 365:lvgl/src/extra/themes/default/../../../../src/hal/../misc/lv_color.h ****     LV_COLOR_SET_G8(ret, LV_COLOR_GET_G(color) >> 5); /*8 - 3  = 5*/
 366:lvgl/src/extra/themes/default/../../../../src/hal/../misc/lv_color.h ****     LV_COLOR_SET_B8(ret, LV_COLOR_GET_B(color) >> 6); /*8 - 2  = 6*/
 367:lvgl/src/extra/themes/default/../../../../src/hal/../misc/lv_color.h ****     return ret.full;
 368:lvgl/src/extra/themes/default/../../../../src/hal/../misc/lv_color.h **** #endif
 369:lvgl/src/extra/themes/default/../../../../src/hal/../misc/lv_color.h **** }
 370:lvgl/src/extra/themes/default/../../../../src/hal/../misc/lv_color.h **** 
 371:lvgl/src/extra/themes/default/../../../../src/hal/../misc/lv_color.h **** static inline uint16_t lv_color_to16(lv_color_t color)
 372:lvgl/src/extra/themes/default/../../../../src/hal/../misc/lv_color.h **** {
 373:lvgl/src/extra/themes/default/../../../../src/hal/../misc/lv_color.h **** #if LV_COLOR_DEPTH == 1
 374:lvgl/src/extra/themes/default/../../../../src/hal/../misc/lv_color.h ****     if(color.full == 0)
 375:lvgl/src/extra/themes/default/../../../../src/hal/../misc/lv_color.h ****         return 0;
 376:lvgl/src/extra/themes/default/../../../../src/hal/../misc/lv_color.h ****     else
 377:lvgl/src/extra/themes/default/../../../../src/hal/../misc/lv_color.h ****         return 0xFFFF;
 378:lvgl/src/extra/themes/default/../../../../src/hal/../misc/lv_color.h **** #elif LV_COLOR_DEPTH == 8
 379:lvgl/src/extra/themes/default/../../../../src/hal/../misc/lv_color.h ****     lv_color16_t ret;
 380:lvgl/src/extra/themes/default/../../../../src/hal/../misc/lv_color.h ****     LV_COLOR_SET_R16(ret, LV_COLOR_GET_R(color) * 4);  /*(2^5 - 1)/(2^3 - 1) = 31/7 = 4*/
 381:lvgl/src/extra/themes/default/../../../../src/hal/../misc/lv_color.h ****     LV_COLOR_SET_G16(ret, LV_COLOR_GET_G(color) * 9);  /*(2^6 - 1)/(2^3 - 1) = 63/7 = 9*/
 382:lvgl/src/extra/themes/default/../../../../src/hal/../misc/lv_color.h ****     LV_COLOR_SET_B16(ret, LV_COLOR_GET_B(color) * 10); /*(2^5 - 1)/(2^2 - 1) = 31/3 = 10*/
 383:lvgl/src/extra/themes/default/../../../../src/hal/../misc/lv_color.h ****     return ret.full;
 384:lvgl/src/extra/themes/default/../../../../src/hal/../misc/lv_color.h **** #elif LV_COLOR_DEPTH == 16
 385:lvgl/src/extra/themes/default/../../../../src/hal/../misc/lv_color.h ****     return color.full;
 386:lvgl/src/extra/themes/default/../../../../src/hal/../misc/lv_color.h **** #elif LV_COLOR_DEPTH == 32
 387:lvgl/src/extra/themes/default/../../../../src/hal/../misc/lv_color.h ****     lv_color16_t ret;
 388:lvgl/src/extra/themes/default/../../../../src/hal/../misc/lv_color.h ****     LV_COLOR_SET_R16(ret, LV_COLOR_GET_R(color) >> 3); /*8 - 5  = 3*/
 389:lvgl/src/extra/themes/default/../../../../src/hal/../misc/lv_color.h ****     LV_COLOR_SET_G16(ret, LV_COLOR_GET_G(color) >> 2); /*8 - 6  = 2*/
 390:lvgl/src/extra/themes/default/../../../../src/hal/../misc/lv_color.h ****     LV_COLOR_SET_B16(ret, LV_COLOR_GET_B(color) >> 3); /*8 - 5  = 3*/
 391:lvgl/src/extra/themes/default/../../../../src/hal/../misc/lv_color.h ****     return ret.full;
 392:lvgl/src/extra/themes/default/../../../../src/hal/../misc/lv_color.h **** #endif
 393:lvgl/src/extra/themes/default/../../../../src/hal/../misc/lv_color.h **** }
 394:lvgl/src/extra/themes/default/../../../../src/hal/../misc/lv_color.h **** 
 395:lvgl/src/extra/themes/default/../../../../src/hal/../misc/lv_color.h **** static inline uint32_t lv_color_to32(lv_color_t color)
 396:lvgl/src/extra/themes/default/../../../../src/hal/../misc/lv_color.h **** {
 397:lvgl/src/extra/themes/default/../../../../src/hal/../misc/lv_color.h **** #if LV_COLOR_DEPTH == 1
 398:lvgl/src/extra/themes/default/../../../../src/hal/../misc/lv_color.h ****     if(color.full == 0)
 399:lvgl/src/extra/themes/default/../../../../src/hal/../misc/lv_color.h ****         return 0xFF000000;
 400:lvgl/src/extra/themes/default/../../../../src/hal/../misc/lv_color.h ****     else
 401:lvgl/src/extra/themes/default/../../../../src/hal/../misc/lv_color.h ****         return 0xFFFFFFFF;
 402:lvgl/src/extra/themes/default/../../../../src/hal/../misc/lv_color.h **** #elif LV_COLOR_DEPTH == 8
ARM GAS  /var/folders/k2/cd9bl_j17z77g23y6ffqb_400000gn/T//ccRoPncs.s 			page 85


 403:lvgl/src/extra/themes/default/../../../../src/hal/../misc/lv_color.h ****     lv_color32_t ret;
 404:lvgl/src/extra/themes/default/../../../../src/hal/../misc/lv_color.h ****     LV_COLOR_SET_R32(ret, LV_COLOR_GET_R(color) * 36); /*(2^8 - 1)/(2^3 - 1) = 255/7 = 36*/
 405:lvgl/src/extra/themes/default/../../../../src/hal/../misc/lv_color.h ****     LV_COLOR_SET_G32(ret, LV_COLOR_GET_G(color) * 36); /*(2^8 - 1)/(2^3 - 1) = 255/7 = 36*/
 406:lvgl/src/extra/themes/default/../../../../src/hal/../misc/lv_color.h ****     LV_COLOR_SET_B32(ret, LV_COLOR_GET_B(color) * 85); /*(2^8 - 1)/(2^2 - 1) = 255/3 = 85*/
 407:lvgl/src/extra/themes/default/../../../../src/hal/../misc/lv_color.h ****     LV_COLOR_SET_A32(ret, 0xFF);
 408:lvgl/src/extra/themes/default/../../../../src/hal/../misc/lv_color.h ****     return ret.full;
 409:lvgl/src/extra/themes/default/../../../../src/hal/../misc/lv_color.h **** #elif LV_COLOR_DEPTH == 16
 410:lvgl/src/extra/themes/default/../../../../src/hal/../misc/lv_color.h ****     /**
 411:lvgl/src/extra/themes/default/../../../../src/hal/../misc/lv_color.h ****      * The floating point math for conversion is:
 412:lvgl/src/extra/themes/default/../../../../src/hal/../misc/lv_color.h ****      *  valueto = valuefrom * ( (2^bitsto - 1) / (float)(2^bitsfrom - 1) )
 413:lvgl/src/extra/themes/default/../../../../src/hal/../misc/lv_color.h ****      * The faster integer math for conversion is:
 414:lvgl/src/extra/themes/default/../../../../src/hal/../misc/lv_color.h ****      *  valueto = ( valuefrom * multiplier + adder ) >> divisor
 415:lvgl/src/extra/themes/default/../../../../src/hal/../misc/lv_color.h ****      *   multiplier = FLOOR( ( (2^bitsto - 1) << divisor ) / (float)(2^bitsfrom - 1) )
 416:lvgl/src/extra/themes/default/../../../../src/hal/../misc/lv_color.h ****      *
 417:lvgl/src/extra/themes/default/../../../../src/hal/../misc/lv_color.h ****      * Find the first divisor where ( adder >> divisor ) <= 0
 418:lvgl/src/extra/themes/default/../../../../src/hal/../misc/lv_color.h ****      *
 419:lvgl/src/extra/themes/default/../../../../src/hal/../misc/lv_color.h ****      * 5-bit to 8-bit: ( 31 * multiplier + adder ) >> divisor = 255
 420:lvgl/src/extra/themes/default/../../../../src/hal/../misc/lv_color.h ****      * divisor  multiplier  adder  min (0)  max (31)
 421:lvgl/src/extra/themes/default/../../../../src/hal/../misc/lv_color.h ****      *       0           8      7        7       255
 422:lvgl/src/extra/themes/default/../../../../src/hal/../misc/lv_color.h ****      *       1          16     14        7       255
 423:lvgl/src/extra/themes/default/../../../../src/hal/../misc/lv_color.h ****      *       2          32     28        7       255
 424:lvgl/src/extra/themes/default/../../../../src/hal/../misc/lv_color.h ****      *       3          65     25        3       255
 425:lvgl/src/extra/themes/default/../../../../src/hal/../misc/lv_color.h ****      *       4         131     19        1       255
 426:lvgl/src/extra/themes/default/../../../../src/hal/../misc/lv_color.h ****      *       5         263      7        0       255
 427:lvgl/src/extra/themes/default/../../../../src/hal/../misc/lv_color.h ****      *
 428:lvgl/src/extra/themes/default/../../../../src/hal/../misc/lv_color.h ****      * 6-bit to 8-bit: 255 = ( 63 * multiplier + adder ) >> divisor
 429:lvgl/src/extra/themes/default/../../../../src/hal/../misc/lv_color.h ****      * divisor  multiplier  adder  min (0)  max (63)
 430:lvgl/src/extra/themes/default/../../../../src/hal/../misc/lv_color.h ****      *       0           4      3        3       255
 431:lvgl/src/extra/themes/default/../../../../src/hal/../misc/lv_color.h ****      *       1           8      6        3       255
 432:lvgl/src/extra/themes/default/../../../../src/hal/../misc/lv_color.h ****      *       2          16     12        3       255
 433:lvgl/src/extra/themes/default/../../../../src/hal/../misc/lv_color.h ****      *       3          32     24        3       255
 434:lvgl/src/extra/themes/default/../../../../src/hal/../misc/lv_color.h ****      *       4          64     48        3       255
 435:lvgl/src/extra/themes/default/../../../../src/hal/../misc/lv_color.h ****      *       5         129     33        1       255
 436:lvgl/src/extra/themes/default/../../../../src/hal/../misc/lv_color.h ****      *       6         259      3        0       255
 437:lvgl/src/extra/themes/default/../../../../src/hal/../misc/lv_color.h ****      */
 438:lvgl/src/extra/themes/default/../../../../src/hal/../misc/lv_color.h **** 
 439:lvgl/src/extra/themes/default/../../../../src/hal/../misc/lv_color.h ****     lv_color32_t ret;
 440:lvgl/src/extra/themes/default/../../../../src/hal/../misc/lv_color.h ****     LV_COLOR_SET_R32(ret, (LV_COLOR_GET_R(color) * 263 + 7) >> 5);
 441:lvgl/src/extra/themes/default/../../../../src/hal/../misc/lv_color.h ****     LV_COLOR_SET_G32(ret, (LV_COLOR_GET_G(color) * 259 + 3) >> 6);
 442:lvgl/src/extra/themes/default/../../../../src/hal/../misc/lv_color.h ****     LV_COLOR_SET_B32(ret, (LV_COLOR_GET_B(color) * 263 + 7) >> 5);
 443:lvgl/src/extra/themes/default/../../../../src/hal/../misc/lv_color.h ****     LV_COLOR_SET_A32(ret, 0xFF);
 444:lvgl/src/extra/themes/default/../../../../src/hal/../misc/lv_color.h ****     return ret.full;
 445:lvgl/src/extra/themes/default/../../../../src/hal/../misc/lv_color.h **** #elif LV_COLOR_DEPTH == 32
 446:lvgl/src/extra/themes/default/../../../../src/hal/../misc/lv_color.h ****     return color.full;
 447:lvgl/src/extra/themes/default/../../../../src/hal/../misc/lv_color.h **** #endif
 448:lvgl/src/extra/themes/default/../../../../src/hal/../misc/lv_color.h **** }
 449:lvgl/src/extra/themes/default/../../../../src/hal/../misc/lv_color.h **** 
 450:lvgl/src/extra/themes/default/../../../../src/hal/../misc/lv_color.h **** //! @cond Doxygen_Suppress
 451:lvgl/src/extra/themes/default/../../../../src/hal/../misc/lv_color.h **** 
 452:lvgl/src/extra/themes/default/../../../../src/hal/../misc/lv_color.h **** /**
 453:lvgl/src/extra/themes/default/../../../../src/hal/../misc/lv_color.h ****  * Mix two colors with a given ratio.
 454:lvgl/src/extra/themes/default/../../../../src/hal/../misc/lv_color.h ****  * @param c1 the first color to mix (usually the foreground)
 455:lvgl/src/extra/themes/default/../../../../src/hal/../misc/lv_color.h ****  * @param c2 the second color to mix (usually the background)
 456:lvgl/src/extra/themes/default/../../../../src/hal/../misc/lv_color.h ****  * @param mix The ratio of the colors. 0: full `c2`, 255: full `c1`, 127: half `c1` and half`c2`
 457:lvgl/src/extra/themes/default/../../../../src/hal/../misc/lv_color.h ****  * @return the mixed color
 458:lvgl/src/extra/themes/default/../../../../src/hal/../misc/lv_color.h ****  */
 459:lvgl/src/extra/themes/default/../../../../src/hal/../misc/lv_color.h **** LV_ATTRIBUTE_FAST_MEM static inline lv_color_t lv_color_mix(lv_color_t c1, lv_color_t c2, uint8_t m
ARM GAS  /var/folders/k2/cd9bl_j17z77g23y6ffqb_400000gn/T//ccRoPncs.s 			page 86


 2628              		.loc 2 459 48 is_stmt 1 discriminator 1 view .LVU791
 2629              	.LBB60:
 460:lvgl/src/extra/themes/default/../../../../src/hal/../misc/lv_color.h **** {
 461:lvgl/src/extra/themes/default/../../../../src/hal/../misc/lv_color.h ****     lv_color_t ret;
 2630              		.loc 2 461 5 discriminator 1 view .LVU792
 462:lvgl/src/extra/themes/default/../../../../src/hal/../misc/lv_color.h **** #if LV_COLOR_DEPTH != 1
 463:lvgl/src/extra/themes/default/../../../../src/hal/../misc/lv_color.h ****     /*LV_COLOR_DEPTH == 8, 16 or 32*/
 464:lvgl/src/extra/themes/default/../../../../src/hal/../misc/lv_color.h ****     LV_COLOR_SET_R(ret, LV_UDIV255((uint16_t) LV_COLOR_GET_R(c1) * mix + LV_COLOR_GET_R(c2) *
 2631              		.loc 2 464 5 discriminator 1 view .LVU793
 2632 0018 C0F30742 		ubfx	r2, r0, #16, #8
 2633              	.LVL277:
 2634              		.loc 2 464 5 is_stmt 0 discriminator 1 view .LVU794
 2635 001c C4F30743 		ubfx	r3, r4, #16, #8
 2636 0020 C5F1FF0C 		rsb	ip, r5, #255
 2637 0024 0CFB03F3 		mul	r3, ip, r3
 2638 0028 05FB0233 		mla	r3, r5, r2, r3
 2639 002c 03EB0321 		add	r1, r3, r3, lsl #8
 2640 0030 03EBC113 		add	r3, r3, r1, lsl #7
 2641 0034 C3F3C751 		ubfx	r1, r3, #23, #8
 2642 0038 0023     		movs	r3, #0
 2643              	.LVL278:
 2644              		.loc 2 464 5 discriminator 1 view .LVU795
 2645 003a 61F31743 		bfi	r3, r1, #16, #8
 2646              	.LVL279:
 465:lvgl/src/extra/themes/default/../../../../src/hal/../misc/lv_color.h ****                                         (255 - mix) + LV_COLOR_MIX_ROUND_OFS));
 466:lvgl/src/extra/themes/default/../../../../src/hal/../misc/lv_color.h ****     LV_COLOR_SET_G(ret, LV_UDIV255((uint16_t) LV_COLOR_GET_G(c1) * mix + LV_COLOR_GET_G(c2) *
 2647              		.loc 2 466 5 is_stmt 1 discriminator 1 view .LVU796
 2648 003e C0F30722 		ubfx	r2, r0, #8, #8
 2649 0042 C4F30721 		ubfx	r1, r4, #8, #8
 2650 0046 01FB0CF1 		mul	r1, r1, ip
 2651 004a 02FB0511 		mla	r1, r2, r5, r1
 2652 004e 01EB0122 		add	r2, r1, r1, lsl #8
 2653 0052 01EBC211 		add	r1, r1, r2, lsl #7
 2654 0056 C1F3C751 		ubfx	r1, r1, #23, #8
 2655 005a 61F30F23 		bfi	r3, r1, #8, #8
 467:lvgl/src/extra/themes/default/../../../../src/hal/../misc/lv_color.h ****                                         (255 - mix) + LV_COLOR_MIX_ROUND_OFS));
 468:lvgl/src/extra/themes/default/../../../../src/hal/../misc/lv_color.h ****     LV_COLOR_SET_B(ret, LV_UDIV255((uint16_t) LV_COLOR_GET_B(c1) * mix + LV_COLOR_GET_B(c2) *
 2656              		.loc 2 468 5 discriminator 1 view .LVU797
 2657 005e C0B2     		uxtb	r0, r0
 2658 0060 E2B2     		uxtb	r2, r4
 2659 0062 02FB0CF2 		mul	r2, r2, ip
 2660 0066 00FB0522 		mla	r2, r0, r5, r2
 2661 006a 02EB0225 		add	r5, r2, r2, lsl #8
 2662              	.LVL280:
 2663              		.loc 2 468 5 is_stmt 0 discriminator 1 view .LVU798
 2664 006e 02EBC512 		add	r2, r2, r5, lsl #7
 2665 0072 C2F3C752 		ubfx	r2, r2, #23, #8
 2666 0076 62F30703 		bfi	r3, r2, #0, #8
 469:lvgl/src/extra/themes/default/../../../../src/hal/../misc/lv_color.h ****                                         (255 - mix) + LV_COLOR_MIX_ROUND_OFS));
 470:lvgl/src/extra/themes/default/../../../../src/hal/../misc/lv_color.h ****     LV_COLOR_SET_A(ret, 0xFF);
 2667              		.loc 2 470 5 is_stmt 1 discriminator 1 view .LVU799
 471:lvgl/src/extra/themes/default/../../../../src/hal/../misc/lv_color.h **** #else
 472:lvgl/src/extra/themes/default/../../../../src/hal/../misc/lv_color.h ****     /*LV_COLOR_DEPTH == 1*/
 473:lvgl/src/extra/themes/default/../../../../src/hal/../misc/lv_color.h ****     ret.full = mix > LV_OPA_50 ? c1.full : c2.full;
 474:lvgl/src/extra/themes/default/../../../../src/hal/../misc/lv_color.h **** #endif
 475:lvgl/src/extra/themes/default/../../../../src/hal/../misc/lv_color.h **** 
 476:lvgl/src/extra/themes/default/../../../../src/hal/../misc/lv_color.h ****     return ret;
ARM GAS  /var/folders/k2/cd9bl_j17z77g23y6ffqb_400000gn/T//ccRoPncs.s 			page 87


 2668              		.loc 2 476 5 discriminator 1 view .LVU800
 2669 007a 43F07F40 		orr	r0, r3, #-16777216
 2670              	.LVL281:
 2671              	.L73:
 2672              		.loc 2 476 5 is_stmt 0 discriminator 1 view .LVU801
 2673              	.LBE60:
 2674              	.LBE59:
 197:lvgl/src/extra/themes/default/lv_theme_default.c **** 
 2675              		.loc 1 197 1 view .LVU802
 2676 007e 38BD     		pop	{r3, r4, r5, pc}
 2677              	.LVL282:
 2678              	.L72:
 196:lvgl/src/extra/themes/default/lv_theme_default.c **** }
 2679              		.loc 1 196 10 is_stmt 1 view .LVU803
 196:lvgl/src/extra/themes/default/lv_theme_default.c **** }
 2680              		.loc 1 196 17 is_stmt 0 view .LVU804
 2681 0080 0221     		movs	r1, #2
 2682 0082 1220     		movs	r0, #18
 2683              	.LVL283:
 196:lvgl/src/extra/themes/default/lv_theme_default.c **** }
 2684              		.loc 1 196 17 view .LVU805
 2685 0084 FFF7FEFF 		bl	lv_palette_lighten
 2686              	.LVL284:
 2687              	.LBB61:
 2688              	.LBI61:
 459:lvgl/src/extra/themes/default/../../../../src/hal/../misc/lv_color.h **** {
 2689              		.loc 2 459 48 is_stmt 1 view .LVU806
 2690              	.LBB62:
 461:lvgl/src/extra/themes/default/../../../../src/hal/../misc/lv_color.h **** #if LV_COLOR_DEPTH != 1
 2691              		.loc 2 461 5 view .LVU807
 464:lvgl/src/extra/themes/default/../../../../src/hal/../misc/lv_color.h ****                                         (255 - mix) + LV_COLOR_MIX_ROUND_OFS));
 2692              		.loc 2 464 5 view .LVU808
 2693 0088 C0F30742 		ubfx	r2, r0, #16, #8
 2694              	.LVL285:
 464:lvgl/src/extra/themes/default/../../../../src/hal/../misc/lv_color.h ****                                         (255 - mix) + LV_COLOR_MIX_ROUND_OFS));
 2695              		.loc 2 464 5 is_stmt 0 view .LVU809
 2696 008c C4F30743 		ubfx	r3, r4, #16, #8
 2697 0090 C5F1FF0C 		rsb	ip, r5, #255
 2698 0094 0CFB03F3 		mul	r3, ip, r3
 2699 0098 05FB0233 		mla	r3, r5, r2, r3
 2700 009c 03EB0321 		add	r1, r3, r3, lsl #8
 2701 00a0 03EBC113 		add	r3, r3, r1, lsl #7
 2702 00a4 C3F3C751 		ubfx	r1, r3, #23, #8
 2703 00a8 0023     		movs	r3, #0
 464:lvgl/src/extra/themes/default/../../../../src/hal/../misc/lv_color.h ****                                         (255 - mix) + LV_COLOR_MIX_ROUND_OFS));
 2704              		.loc 2 464 5 view .LVU810
 2705 00aa 61F31743 		bfi	r3, r1, #16, #8
 2706              	.LVL286:
 466:lvgl/src/extra/themes/default/../../../../src/hal/../misc/lv_color.h ****                                         (255 - mix) + LV_COLOR_MIX_ROUND_OFS));
 2707              		.loc 2 466 5 is_stmt 1 view .LVU811
 2708 00ae C0F30722 		ubfx	r2, r0, #8, #8
 2709 00b2 C4F30721 		ubfx	r1, r4, #8, #8
 2710 00b6 01FB0CF1 		mul	r1, r1, ip
 2711 00ba 02FB0511 		mla	r1, r2, r5, r1
 2712 00be 01EB0122 		add	r2, r1, r1, lsl #8
 2713 00c2 01EBC211 		add	r1, r1, r2, lsl #7
 2714 00c6 C1F3C751 		ubfx	r1, r1, #23, #8
ARM GAS  /var/folders/k2/cd9bl_j17z77g23y6ffqb_400000gn/T//ccRoPncs.s 			page 88


 2715 00ca 61F30F23 		bfi	r3, r1, #8, #8
 468:lvgl/src/extra/themes/default/../../../../src/hal/../misc/lv_color.h ****                                         (255 - mix) + LV_COLOR_MIX_ROUND_OFS));
 2716              		.loc 2 468 5 view .LVU812
 2717 00ce C2B2     		uxtb	r2, r0
 2718 00d0 E4B2     		uxtb	r4, r4
 2719              	.LVL287:
 468:lvgl/src/extra/themes/default/../../../../src/hal/../misc/lv_color.h ****                                         (255 - mix) + LV_COLOR_MIX_ROUND_OFS));
 2720              		.loc 2 468 5 is_stmt 0 view .LVU813
 2721 00d2 04FB0CFC 		mul	ip, r4, ip
 2722 00d6 02FB05C2 		mla	r2, r2, r5, ip
 2723 00da 02EB0224 		add	r4, r2, r2, lsl #8
 2724 00de 02EBC412 		add	r2, r2, r4, lsl #7
 2725 00e2 C2F3C752 		ubfx	r2, r2, #23, #8
 2726 00e6 62F30703 		bfi	r3, r2, #0, #8
 470:lvgl/src/extra/themes/default/../../../../src/hal/../misc/lv_color.h **** #else
 2727              		.loc 2 470 5 is_stmt 1 view .LVU814
 2728              		.loc 2 476 5 view .LVU815
 2729 00ea 43F07F40 		orr	r0, r3, #-16777216
 2730              	.LVL288:
 2731              		.loc 2 476 5 is_stmt 0 view .LVU816
 2732              	.LBE62:
 2733              	.LBE61:
 196:lvgl/src/extra/themes/default/lv_theme_default.c **** }
 2734              		.loc 1 196 17 view .LVU817
 2735 00ee C6E7     		b	.L73
 2736              	.L76:
 2737              		.align	2
 2738              	.L75:
 2739 00f0 00000000 		.word	.LANCHOR3
 2740              		.cfi_endproc
 2741              	.LFE185:
 2743              		.section	.rodata.style_init.str1.4,"aMS",%progbits,1
 2744              		.align	2
 2745              	.LC0:
 2746 0000 EF808C00 		.ascii	"\357\200\214\000"
 2747              		.section	.text.style_init,"ax",%progbits
 2748              		.align	1
 2749              		.syntax unified
 2750              		.thumb
 2751              		.thumb_func
 2752              		.fpu fpv4-sp-d16
 2754              	style_init:
 2755              	.LFB186:
 200:lvgl/src/extra/themes/default/lv_theme_default.c ****     static const lv_style_prop_t trans_props[] = {
 2756              		.loc 1 200 1 is_stmt 1 view -0
 2757              		.cfi_startproc
 2758              		@ args = 0, pretend = 0, frame = 0
 2759              		@ frame_needed = 0, uses_anonymous_args = 0
 2760 0000 2DE9F041 		push	{r4, r5, r6, r7, r8, lr}
 2761              	.LCFI4:
 2762              		.cfi_def_cfa_offset 24
 2763              		.cfi_offset 4, -24
 2764              		.cfi_offset 5, -20
 2765              		.cfi_offset 6, -16
 2766              		.cfi_offset 7, -12
 2767              		.cfi_offset 8, -8
 2768              		.cfi_offset 14, -4
ARM GAS  /var/folders/k2/cd9bl_j17z77g23y6ffqb_400000gn/T//ccRoPncs.s 			page 89


 2769 0004 82B0     		sub	sp, sp, #8
 2770              	.LCFI5:
 2771              		.cfi_def_cfa_offset 32
 201:lvgl/src/extra/themes/default/lv_theme_default.c ****             LV_STYLE_BG_OPA, LV_STYLE_BG_COLOR,
 2772              		.loc 1 201 5 view .LVU819
 210:lvgl/src/extra/themes/default/lv_theme_default.c ****     color_text = theme.flags & MODE_DARK ? DARK_COLOR_TEXT : LIGHT_COLOR_TEXT;
 2773              		.loc 1 210 5 view .LVU820
 210:lvgl/src/extra/themes/default/lv_theme_default.c ****     color_text = theme.flags & MODE_DARK ? DARK_COLOR_TEXT : LIGHT_COLOR_TEXT;
 2774              		.loc 1 210 22 is_stmt 0 view .LVU821
 2775 0006 C24B     		ldr	r3, .L570
 2776 0008 5B6A     		ldr	r3, [r3, #36]
 210:lvgl/src/extra/themes/default/lv_theme_default.c ****     color_text = theme.flags & MODE_DARK ? DARK_COLOR_TEXT : LIGHT_COLOR_TEXT;
 2777              		.loc 1 210 15 view .LVU822
 2778 000a 13F0010F 		tst	r3, #1
 2779 000e 01F07582 		beq	.L78
 2780              	.LVL289:
 2781              	.LBB381:
 2782              	.LBI381:
 477:lvgl/src/extra/themes/default/../../../../src/hal/../misc/lv_color.h **** }
 478:lvgl/src/extra/themes/default/../../../../src/hal/../misc/lv_color.h **** 
 479:lvgl/src/extra/themes/default/../../../../src/hal/../misc/lv_color.h **** LV_ATTRIBUTE_FAST_MEM static inline void lv_color_premult(lv_color_t c, uint8_t mix, uint16_t * out
 480:lvgl/src/extra/themes/default/../../../../src/hal/../misc/lv_color.h **** {
 481:lvgl/src/extra/themes/default/../../../../src/hal/../misc/lv_color.h **** #if LV_COLOR_DEPTH != 1
 482:lvgl/src/extra/themes/default/../../../../src/hal/../misc/lv_color.h ****     out[0] = (uint16_t) LV_COLOR_GET_R(c) * mix;
 483:lvgl/src/extra/themes/default/../../../../src/hal/../misc/lv_color.h ****     out[1] = (uint16_t) LV_COLOR_GET_G(c) * mix;
 484:lvgl/src/extra/themes/default/../../../../src/hal/../misc/lv_color.h ****     out[2] = (uint16_t) LV_COLOR_GET_B(c) * mix;
 485:lvgl/src/extra/themes/default/../../../../src/hal/../misc/lv_color.h **** #else
 486:lvgl/src/extra/themes/default/../../../../src/hal/../misc/lv_color.h ****     (void) mix;
 487:lvgl/src/extra/themes/default/../../../../src/hal/../misc/lv_color.h ****     /*Pre-multiplication can't be used with 1 bpp*/
 488:lvgl/src/extra/themes/default/../../../../src/hal/../misc/lv_color.h ****     out[0] = LV_COLOR_GET_R(c);
 489:lvgl/src/extra/themes/default/../../../../src/hal/../misc/lv_color.h ****     out[1] = LV_COLOR_GET_G(c);
 490:lvgl/src/extra/themes/default/../../../../src/hal/../misc/lv_color.h ****     out[2] = LV_COLOR_GET_B(c);
 491:lvgl/src/extra/themes/default/../../../../src/hal/../misc/lv_color.h **** #endif
 492:lvgl/src/extra/themes/default/../../../../src/hal/../misc/lv_color.h **** 
 493:lvgl/src/extra/themes/default/../../../../src/hal/../misc/lv_color.h **** }
 494:lvgl/src/extra/themes/default/../../../../src/hal/../misc/lv_color.h **** 
 495:lvgl/src/extra/themes/default/../../../../src/hal/../misc/lv_color.h **** /**
 496:lvgl/src/extra/themes/default/../../../../src/hal/../misc/lv_color.h ****  * Mix two colors with a given ratio. It runs faster then `lv_color_mix` but requires some pre comp
 497:lvgl/src/extra/themes/default/../../../../src/hal/../misc/lv_color.h ****  * @param premult_c1 The first color. Should be preprocessed with `lv_color_premult(c1)`
 498:lvgl/src/extra/themes/default/../../../../src/hal/../misc/lv_color.h ****  * @param c2 The second color. As it is no pre computation required on it
 499:lvgl/src/extra/themes/default/../../../../src/hal/../misc/lv_color.h ****  * @param mix The ratio of the colors. 0: full `c1`, 255: full `c2`, 127: half `c1` and half `c2`.
 500:lvgl/src/extra/themes/default/../../../../src/hal/../misc/lv_color.h ****  *            Should be modified like mix = `255 - mix`
 501:lvgl/src/extra/themes/default/../../../../src/hal/../misc/lv_color.h ****  * @return the mixed color
 502:lvgl/src/extra/themes/default/../../../../src/hal/../misc/lv_color.h ****  * @note 255 won't give clearly `c1`.
 503:lvgl/src/extra/themes/default/../../../../src/hal/../misc/lv_color.h ****  */
 504:lvgl/src/extra/themes/default/../../../../src/hal/../misc/lv_color.h **** LV_ATTRIBUTE_FAST_MEM static inline lv_color_t lv_color_mix_premult(uint16_t * premult_c1, lv_color
 505:lvgl/src/extra/themes/default/../../../../src/hal/../misc/lv_color.h **** {
 506:lvgl/src/extra/themes/default/../../../../src/hal/../misc/lv_color.h ****     lv_color_t ret;
 507:lvgl/src/extra/themes/default/../../../../src/hal/../misc/lv_color.h **** #if LV_COLOR_DEPTH != 1
 508:lvgl/src/extra/themes/default/../../../../src/hal/../misc/lv_color.h ****     /*LV_COLOR_DEPTH == 8, 16 or 32*/
 509:lvgl/src/extra/themes/default/../../../../src/hal/../misc/lv_color.h ****     LV_COLOR_SET_R(ret, LV_UDIV255(premult_c1[0] + LV_COLOR_GET_R(c2) * mix + LV_COLOR_MIX_ROUND_OF
 510:lvgl/src/extra/themes/default/../../../../src/hal/../misc/lv_color.h ****     LV_COLOR_SET_G(ret, LV_UDIV255(premult_c1[1] + LV_COLOR_GET_G(c2) * mix + LV_COLOR_MIX_ROUND_OF
 511:lvgl/src/extra/themes/default/../../../../src/hal/../misc/lv_color.h ****     LV_COLOR_SET_B(ret, LV_UDIV255(premult_c1[2] + LV_COLOR_GET_B(c2) * mix + LV_COLOR_MIX_ROUND_OF
 512:lvgl/src/extra/themes/default/../../../../src/hal/../misc/lv_color.h ****     LV_COLOR_SET_A(ret, 0xFF);
 513:lvgl/src/extra/themes/default/../../../../src/hal/../misc/lv_color.h **** #else
 514:lvgl/src/extra/themes/default/../../../../src/hal/../misc/lv_color.h ****     /*LV_COLOR_DEPTH == 1*/
 515:lvgl/src/extra/themes/default/../../../../src/hal/../misc/lv_color.h ****     /*Restore color1*/
ARM GAS  /var/folders/k2/cd9bl_j17z77g23y6ffqb_400000gn/T//ccRoPncs.s 			page 90


 516:lvgl/src/extra/themes/default/../../../../src/hal/../misc/lv_color.h ****     lv_color_t c1;
 517:lvgl/src/extra/themes/default/../../../../src/hal/../misc/lv_color.h ****     LV_COLOR_SET_R(c1, premult_c1[0]);
 518:lvgl/src/extra/themes/default/../../../../src/hal/../misc/lv_color.h ****     LV_COLOR_SET_G(c1, premult_c1[1]);
 519:lvgl/src/extra/themes/default/../../../../src/hal/../misc/lv_color.h ****     LV_COLOR_SET_B(c1, premult_c1[2]);
 520:lvgl/src/extra/themes/default/../../../../src/hal/../misc/lv_color.h ****     ret.full = mix > LV_OPA_50 ? c2.full : c1.full;
 521:lvgl/src/extra/themes/default/../../../../src/hal/../misc/lv_color.h **** #endif
 522:lvgl/src/extra/themes/default/../../../../src/hal/../misc/lv_color.h **** 
 523:lvgl/src/extra/themes/default/../../../../src/hal/../misc/lv_color.h ****     return ret;
 524:lvgl/src/extra/themes/default/../../../../src/hal/../misc/lv_color.h **** }
 525:lvgl/src/extra/themes/default/../../../../src/hal/../misc/lv_color.h **** 
 526:lvgl/src/extra/themes/default/../../../../src/hal/../misc/lv_color.h **** /**
 527:lvgl/src/extra/themes/default/../../../../src/hal/../misc/lv_color.h ****  * Mix two colors. Both color can have alpha value.
 528:lvgl/src/extra/themes/default/../../../../src/hal/../misc/lv_color.h ****  * @param bg_color background color
 529:lvgl/src/extra/themes/default/../../../../src/hal/../misc/lv_color.h ****  * @param bg_opa alpha of the background color
 530:lvgl/src/extra/themes/default/../../../../src/hal/../misc/lv_color.h ****  * @param fg_color foreground color
 531:lvgl/src/extra/themes/default/../../../../src/hal/../misc/lv_color.h ****  * @param fg_opa alpha of the foreground color
 532:lvgl/src/extra/themes/default/../../../../src/hal/../misc/lv_color.h ****  * @param res_color the result color
 533:lvgl/src/extra/themes/default/../../../../src/hal/../misc/lv_color.h ****  * @param res_opa the result opacity
 534:lvgl/src/extra/themes/default/../../../../src/hal/../misc/lv_color.h ****  */
 535:lvgl/src/extra/themes/default/../../../../src/hal/../misc/lv_color.h **** LV_ATTRIBUTE_FAST_MEM static inline void lv_color_mix_with_alpha(lv_color_t bg_color, lv_opa_t bg_o
 536:lvgl/src/extra/themes/default/../../../../src/hal/../misc/lv_color.h ****                                                                  lv_color_t fg_color, lv_opa_t fg_o
 537:lvgl/src/extra/themes/default/../../../../src/hal/../misc/lv_color.h ****                                                                  lv_color_t * res_color, lv_opa_t *
 538:lvgl/src/extra/themes/default/../../../../src/hal/../misc/lv_color.h **** {
 539:lvgl/src/extra/themes/default/../../../../src/hal/../misc/lv_color.h ****     /*Pick the foreground if it's fully opaque or the Background is fully transparent*/
 540:lvgl/src/extra/themes/default/../../../../src/hal/../misc/lv_color.h ****     if(fg_opa >= LV_OPA_MAX || bg_opa <= LV_OPA_MIN) {
 541:lvgl/src/extra/themes/default/../../../../src/hal/../misc/lv_color.h ****         res_color->full = fg_color.full;
 542:lvgl/src/extra/themes/default/../../../../src/hal/../misc/lv_color.h ****         *res_opa = fg_opa;
 543:lvgl/src/extra/themes/default/../../../../src/hal/../misc/lv_color.h ****     }
 544:lvgl/src/extra/themes/default/../../../../src/hal/../misc/lv_color.h ****     /*Transparent foreground: use the Background*/
 545:lvgl/src/extra/themes/default/../../../../src/hal/../misc/lv_color.h ****     else if(fg_opa <= LV_OPA_MIN) {
 546:lvgl/src/extra/themes/default/../../../../src/hal/../misc/lv_color.h ****         res_color->full = bg_color.full;
 547:lvgl/src/extra/themes/default/../../../../src/hal/../misc/lv_color.h ****         *res_opa = bg_opa;
 548:lvgl/src/extra/themes/default/../../../../src/hal/../misc/lv_color.h ****     }
 549:lvgl/src/extra/themes/default/../../../../src/hal/../misc/lv_color.h ****     /*Opaque background: use simple mix*/
 550:lvgl/src/extra/themes/default/../../../../src/hal/../misc/lv_color.h ****     else if(bg_opa >= LV_OPA_MAX) {
 551:lvgl/src/extra/themes/default/../../../../src/hal/../misc/lv_color.h ****         *res_color = lv_color_mix(fg_color, bg_color, fg_opa);
 552:lvgl/src/extra/themes/default/../../../../src/hal/../misc/lv_color.h ****         *res_opa = LV_OPA_COVER;
 553:lvgl/src/extra/themes/default/../../../../src/hal/../misc/lv_color.h ****     }
 554:lvgl/src/extra/themes/default/../../../../src/hal/../misc/lv_color.h ****     /*Both colors have alpha. Expensive calculation need to be applied*/
 555:lvgl/src/extra/themes/default/../../../../src/hal/../misc/lv_color.h ****     else {
 556:lvgl/src/extra/themes/default/../../../../src/hal/../misc/lv_color.h ****         /*Save the parameters and the result. If they will be asked again don't compute again*/
 557:lvgl/src/extra/themes/default/../../../../src/hal/../misc/lv_color.h ****         static lv_opa_t fg_opa_save     = 0;
 558:lvgl/src/extra/themes/default/../../../../src/hal/../misc/lv_color.h ****         static lv_opa_t bg_opa_save     = 0;
 559:lvgl/src/extra/themes/default/../../../../src/hal/../misc/lv_color.h ****         static lv_color_t fg_color_save = _LV_COLOR_ZERO_INITIALIZER;
 560:lvgl/src/extra/themes/default/../../../../src/hal/../misc/lv_color.h ****         static lv_color_t bg_color_save = _LV_COLOR_ZERO_INITIALIZER;
 561:lvgl/src/extra/themes/default/../../../../src/hal/../misc/lv_color.h ****         static lv_color_t res_color_saved = _LV_COLOR_ZERO_INITIALIZER;
 562:lvgl/src/extra/themes/default/../../../../src/hal/../misc/lv_color.h ****         static lv_opa_t res_opa_saved = 0;
 563:lvgl/src/extra/themes/default/../../../../src/hal/../misc/lv_color.h **** 
 564:lvgl/src/extra/themes/default/../../../../src/hal/../misc/lv_color.h ****         if(fg_opa != fg_opa_save || bg_opa != bg_opa_save || fg_color.full != fg_color_save.full ||
 565:lvgl/src/extra/themes/default/../../../../src/hal/../misc/lv_color.h ****            bg_color.full != bg_color_save.full) {
 566:lvgl/src/extra/themes/default/../../../../src/hal/../misc/lv_color.h ****             fg_opa_save        = fg_opa;
 567:lvgl/src/extra/themes/default/../../../../src/hal/../misc/lv_color.h ****             bg_opa_save        = bg_opa;
 568:lvgl/src/extra/themes/default/../../../../src/hal/../misc/lv_color.h ****             fg_color_save.full = fg_color.full;
 569:lvgl/src/extra/themes/default/../../../../src/hal/../misc/lv_color.h ****             bg_color_save.full = bg_color.full;
 570:lvgl/src/extra/themes/default/../../../../src/hal/../misc/lv_color.h ****             /*Info:
 571:lvgl/src/extra/themes/default/../../../../src/hal/../misc/lv_color.h ****              * https://en.wikipedia.org/wiki/Alpha_compositing#Analytical_derivation_of_the_over_op
 572:lvgl/src/extra/themes/default/../../../../src/hal/../misc/lv_color.h ****             res_opa_saved = 255 - ((uint16_t)((uint16_t)(255 - fg_opa) * (255 - bg_opa)) >> 8);
ARM GAS  /var/folders/k2/cd9bl_j17z77g23y6ffqb_400000gn/T//ccRoPncs.s 			page 91


 573:lvgl/src/extra/themes/default/../../../../src/hal/../misc/lv_color.h ****             if(res_opa_saved == 0) {
 574:lvgl/src/extra/themes/default/../../../../src/hal/../misc/lv_color.h ****                 while(1)
 575:lvgl/src/extra/themes/default/../../../../src/hal/../misc/lv_color.h ****                     ;
 576:lvgl/src/extra/themes/default/../../../../src/hal/../misc/lv_color.h ****             }
 577:lvgl/src/extra/themes/default/../../../../src/hal/../misc/lv_color.h ****             lv_opa_t ratio = (uint16_t)((uint16_t)fg_opa * 255) / res_opa_saved;
 578:lvgl/src/extra/themes/default/../../../../src/hal/../misc/lv_color.h ****             res_color_saved = lv_color_mix(fg_color, bg_color, ratio);
 579:lvgl/src/extra/themes/default/../../../../src/hal/../misc/lv_color.h **** 
 580:lvgl/src/extra/themes/default/../../../../src/hal/../misc/lv_color.h ****         }
 581:lvgl/src/extra/themes/default/../../../../src/hal/../misc/lv_color.h **** 
 582:lvgl/src/extra/themes/default/../../../../src/hal/../misc/lv_color.h ****         res_color->full = res_color_saved.full;
 583:lvgl/src/extra/themes/default/../../../../src/hal/../misc/lv_color.h ****         *res_opa = res_opa_saved;
 584:lvgl/src/extra/themes/default/../../../../src/hal/../misc/lv_color.h ****     }
 585:lvgl/src/extra/themes/default/../../../../src/hal/../misc/lv_color.h **** }
 586:lvgl/src/extra/themes/default/../../../../src/hal/../misc/lv_color.h **** 
 587:lvgl/src/extra/themes/default/../../../../src/hal/../misc/lv_color.h **** //! @endcond
 588:lvgl/src/extra/themes/default/../../../../src/hal/../misc/lv_color.h **** 
 589:lvgl/src/extra/themes/default/../../../../src/hal/../misc/lv_color.h **** /**
 590:lvgl/src/extra/themes/default/../../../../src/hal/../misc/lv_color.h ****  * Get the brightness of a color
 591:lvgl/src/extra/themes/default/../../../../src/hal/../misc/lv_color.h ****  * @param color a color
 592:lvgl/src/extra/themes/default/../../../../src/hal/../misc/lv_color.h ****  * @return the brightness [0..255]
 593:lvgl/src/extra/themes/default/../../../../src/hal/../misc/lv_color.h ****  */
 594:lvgl/src/extra/themes/default/../../../../src/hal/../misc/lv_color.h **** static inline uint8_t lv_color_brightness(lv_color_t color)
 595:lvgl/src/extra/themes/default/../../../../src/hal/../misc/lv_color.h **** {
 596:lvgl/src/extra/themes/default/../../../../src/hal/../misc/lv_color.h ****     lv_color32_t c32;
 597:lvgl/src/extra/themes/default/../../../../src/hal/../misc/lv_color.h ****     c32.full        = lv_color_to32(color);
 598:lvgl/src/extra/themes/default/../../../../src/hal/../misc/lv_color.h ****     uint16_t bright = (uint16_t)(3u * LV_COLOR_GET_R32(c32) + LV_COLOR_GET_B32(c32) + 4u * LV_COLOR
 599:lvgl/src/extra/themes/default/../../../../src/hal/../misc/lv_color.h ****     return (uint8_t)(bright >> 3);
 600:lvgl/src/extra/themes/default/../../../../src/hal/../misc/lv_color.h **** }
 601:lvgl/src/extra/themes/default/../../../../src/hal/../misc/lv_color.h **** 
 602:lvgl/src/extra/themes/default/../../../../src/hal/../misc/lv_color.h **** static inline lv_color_t lv_color_make(uint8_t r, uint8_t g, uint8_t b)
 603:lvgl/src/extra/themes/default/../../../../src/hal/../misc/lv_color.h **** {
 604:lvgl/src/extra/themes/default/../../../../src/hal/../misc/lv_color.h ****     return _LV_COLOR_MAKE_TYPE_HELPER LV_COLOR_MAKE(r, g, b);
 605:lvgl/src/extra/themes/default/../../../../src/hal/../misc/lv_color.h **** }
 606:lvgl/src/extra/themes/default/../../../../src/hal/../misc/lv_color.h **** 
 607:lvgl/src/extra/themes/default/../../../../src/hal/../misc/lv_color.h **** static inline lv_color_t lv_color_hex(uint32_t c)
 2783              		.loc 2 607 26 is_stmt 1 view .LVU823
 2784              	.LBE381:
 608:lvgl/src/extra/themes/default/../../../../src/hal/../misc/lv_color.h **** {
 609:lvgl/src/extra/themes/default/../../../../src/hal/../misc/lv_color.h ****     return lv_color_make((uint8_t)((c >> 16) & 0xFF), (uint8_t)((c >> 8) & 0xFF), (uint8_t)(c & 0xF
 2785              		.loc 2 609 5 view .LVU824
 2786              	.LBB384:
 2787              	.LBB382:
 2788              	.LBI382:
 602:lvgl/src/extra/themes/default/../../../../src/hal/../misc/lv_color.h **** {
 2789              		.loc 2 602 26 view .LVU825
 2790              	.LBB383:
 604:lvgl/src/extra/themes/default/../../../../src/hal/../misc/lv_color.h **** }
 2791              		.loc 2 604 5 view .LVU826
 604:lvgl/src/extra/themes/default/../../../../src/hal/../misc/lv_color.h **** }
 2792              		.loc 2 604 12 is_stmt 0 view .LVU827
 2793 0012 0023     		movs	r3, #0
 2794 0014 1A22     		movs	r2, #26
 2795 0016 62F30703 		bfi	r3, r2, #0, #8
 2796 001a 1722     		movs	r2, #23
 2797 001c 62F30F23 		bfi	r3, r2, #8, #8
 2798 0020 1522     		movs	r2, #21
 2799 0022 62F31743 		bfi	r3, r2, #16, #8
ARM GAS  /var/folders/k2/cd9bl_j17z77g23y6ffqb_400000gn/T//ccRoPncs.s 			page 92


 2800 0026 43F07F43 		orr	r3, r3, #-16777216
 2801              	.LVL290:
 604:lvgl/src/extra/themes/default/../../../../src/hal/../misc/lv_color.h **** }
 2802              		.loc 2 604 12 view .LVU828
 2803              	.LBE383:
 2804              	.LBE382:
 2805              	.LBE384:
 210:lvgl/src/extra/themes/default/lv_theme_default.c ****     color_text = theme.flags & MODE_DARK ? DARK_COLOR_TEXT : LIGHT_COLOR_TEXT;
 2806              		.loc 1 210 43 view .LVU829
 2807 002a BA4A     		ldr	r2, .L570+4
 2808 002c 1360     		str	r3, [r2]
 2809              	.L79:
 211:lvgl/src/extra/themes/default/lv_theme_default.c ****     color_card = theme.flags & MODE_DARK ? DARK_COLOR_CARD : LIGHT_COLOR_CARD;
 2810              		.loc 1 211 5 is_stmt 1 view .LVU830
 211:lvgl/src/extra/themes/default/lv_theme_default.c ****     color_card = theme.flags & MODE_DARK ? DARK_COLOR_CARD : LIGHT_COLOR_CARD;
 2811              		.loc 1 211 23 is_stmt 0 view .LVU831
 2812 002e B84B     		ldr	r3, .L570
 2813 0030 5B6A     		ldr	r3, [r3, #36]
 211:lvgl/src/extra/themes/default/lv_theme_default.c ****     color_card = theme.flags & MODE_DARK ? DARK_COLOR_CARD : LIGHT_COLOR_CARD;
 2814              		.loc 1 211 16 view .LVU832
 2815 0032 13F0010F 		tst	r3, #1
 2816 0036 01F06982 		beq	.L80
 211:lvgl/src/extra/themes/default/lv_theme_default.c ****     color_card = theme.flags & MODE_DARK ? DARK_COLOR_CARD : LIGHT_COLOR_CARD;
 2817              		.loc 1 211 44 discriminator 1 view .LVU833
 2818 003a 0521     		movs	r1, #5
 2819 003c 1220     		movs	r0, #18
 2820 003e FFF7FEFF 		bl	lv_palette_lighten
 2821              	.LVL291:
 2822 0042 B54B     		ldr	r3, .L570+8
 2823 0044 1860     		str	r0, [r3]
 2824              	.L81:
 212:lvgl/src/extra/themes/default/lv_theme_default.c ****     color_grey = theme.flags & MODE_DARK ? DARK_COLOR_GREY : LIGHT_COLOR_GREY;
 2825              		.loc 1 212 5 is_stmt 1 view .LVU834
 212:lvgl/src/extra/themes/default/lv_theme_default.c ****     color_grey = theme.flags & MODE_DARK ? DARK_COLOR_GREY : LIGHT_COLOR_GREY;
 2826              		.loc 1 212 23 is_stmt 0 view .LVU835
 2827 0046 B24B     		ldr	r3, .L570
 2828 0048 5B6A     		ldr	r3, [r3, #36]
 212:lvgl/src/extra/themes/default/lv_theme_default.c ****     color_grey = theme.flags & MODE_DARK ? DARK_COLOR_GREY : LIGHT_COLOR_GREY;
 2829              		.loc 1 212 16 view .LVU836
 2830 004a 13F00103 		ands	r3, r3, #1
 2831 004e 01F06582 		beq	.L82
 2832              	.LVL292:
 2833              	.LBB385:
 2834              	.LBI385:
 607:lvgl/src/extra/themes/default/../../../../src/hal/../misc/lv_color.h **** {
 2835              		.loc 2 607 26 is_stmt 1 view .LVU837
 2836              	.LBE385:
 2837              		.loc 2 609 5 view .LVU838
 2838              	.LBB388:
 2839              	.LBB386:
 2840              	.LBI386:
 602:lvgl/src/extra/themes/default/../../../../src/hal/../misc/lv_color.h **** {
 2841              		.loc 2 602 26 view .LVU839
 2842              	.LBB387:
 604:lvgl/src/extra/themes/default/../../../../src/hal/../misc/lv_color.h **** }
 2843              		.loc 2 604 5 view .LVU840
 604:lvgl/src/extra/themes/default/../../../../src/hal/../misc/lv_color.h **** }
ARM GAS  /var/folders/k2/cd9bl_j17z77g23y6ffqb_400000gn/T//ccRoPncs.s 			page 93


 2844              		.loc 2 604 12 is_stmt 0 view .LVU841
 2845 0052 0022     		movs	r2, #0
 2846 0054 3021     		movs	r1, #48
 2847 0056 61F30702 		bfi	r2, r1, #0, #8
 2848 005a 2B21     		movs	r1, #43
 2849 005c 61F30F22 		bfi	r2, r1, #8, #8
 2850 0060 2821     		movs	r1, #40
 2851 0062 61F31742 		bfi	r2, r1, #16, #8
 2852 0066 42F07F42 		orr	r2, r2, #-16777216
 2853              	.LVL293:
 604:lvgl/src/extra/themes/default/../../../../src/hal/../misc/lv_color.h **** }
 2854              		.loc 2 604 12 view .LVU842
 2855              	.LBE387:
 2856              	.LBE386:
 2857              	.LBE388:
 212:lvgl/src/extra/themes/default/lv_theme_default.c ****     color_grey = theme.flags & MODE_DARK ? DARK_COLOR_GREY : LIGHT_COLOR_GREY;
 2858              		.loc 1 212 44 view .LVU843
 2859 006a AC49     		ldr	r1, .L570+12
 2860 006c 0A60     		str	r2, [r1]
 2861              	.L83:
 213:lvgl/src/extra/themes/default/lv_theme_default.c **** 
 2862              		.loc 1 213 5 is_stmt 1 view .LVU844
 213:lvgl/src/extra/themes/default/lv_theme_default.c **** 
 2863              		.loc 1 213 16 is_stmt 0 view .LVU845
 2864 006e 002B     		cmp	r3, #0
 2865 0070 01F05A82 		beq	.L84
 2866              	.LVL294:
 2867              	.LBB389:
 2868              	.LBI389:
 607:lvgl/src/extra/themes/default/../../../../src/hal/../misc/lv_color.h **** {
 2869              		.loc 2 607 26 is_stmt 1 view .LVU846
 2870              	.LBE389:
 2871              		.loc 2 609 5 view .LVU847
 2872              	.LBB392:
 2873              	.LBB390:
 2874              	.LBI390:
 602:lvgl/src/extra/themes/default/../../../../src/hal/../misc/lv_color.h **** {
 2875              		.loc 2 602 26 view .LVU848
 2876              	.LBB391:
 604:lvgl/src/extra/themes/default/../../../../src/hal/../misc/lv_color.h **** }
 2877              		.loc 2 604 5 view .LVU849
 604:lvgl/src/extra/themes/default/../../../../src/hal/../misc/lv_color.h **** }
 2878              		.loc 2 604 12 is_stmt 0 view .LVU850
 2879 0074 0023     		movs	r3, #0
 2880 0076 3722     		movs	r2, #55
 2881 0078 62F30703 		bfi	r3, r2, #0, #8
 2882 007c 3222     		movs	r2, #50
 2883 007e 62F30F23 		bfi	r3, r2, #8, #8
 2884 0082 2F22     		movs	r2, #47
 2885 0084 62F31743 		bfi	r3, r2, #16, #8
 2886 0088 43F07F43 		orr	r3, r3, #-16777216
 2887              	.LVL295:
 604:lvgl/src/extra/themes/default/../../../../src/hal/../misc/lv_color.h **** }
 2888              		.loc 2 604 12 view .LVU851
 2889              	.LBE391:
 2890              	.LBE390:
 2891              	.LBE392:
ARM GAS  /var/folders/k2/cd9bl_j17z77g23y6ffqb_400000gn/T//ccRoPncs.s 			page 94


 213:lvgl/src/extra/themes/default/lv_theme_default.c **** 
 2892              		.loc 1 213 44 view .LVU852
 2893 008c A44A     		ldr	r2, .L570+16
 2894 008e 1360     		str	r3, [r2]
 2895              	.L85:
 215:lvgl/src/extra/themes/default/lv_theme_default.c ****     lv_style_transition_dsc_init(&trans_delayed, trans_props, lv_anim_path_linear, TRANSITION_TIME,
 2896              		.loc 1 215 5 is_stmt 1 view .LVU853
 216:lvgl/src/extra/themes/default/lv_theme_default.c **** 
 2897              		.loc 1 216 5 view .LVU854
 2898 0090 DFF8A482 		ldr	r8, .L570+40
 2899 0094 A34F     		ldr	r7, .L570+20
 2900 0096 A44E     		ldr	r6, .L570+24
 2901 0098 0024     		movs	r4, #0
 2902 009a 0194     		str	r4, [sp, #4]
 2903 009c 4623     		movs	r3, #70
 2904 009e 0093     		str	r3, [sp]
 2905 00a0 5023     		movs	r3, #80
 2906 00a2 4246     		mov	r2, r8
 2907 00a4 3946     		mov	r1, r7
 2908 00a6 3046     		mov	r0, r6
 2909 00a8 FFF7FEFF 		bl	lv_style_transition_dsc_init
 2910              	.LVL296:
 218:lvgl/src/extra/themes/default/lv_theme_default.c ****     lv_style_transition_dsc_init(&trans_normal, trans_props, lv_anim_path_linear, TRANSITION_TIME, 
 2911              		.loc 1 218 5 view .LVU855
 219:lvgl/src/extra/themes/default/lv_theme_default.c **** 
 2912              		.loc 1 219 5 view .LVU856
 2913 00ac 9F4D     		ldr	r5, .L570+28
 2914 00ae 0194     		str	r4, [sp, #4]
 2915 00b0 0094     		str	r4, [sp]
 2916 00b2 5023     		movs	r3, #80
 2917 00b4 4246     		mov	r2, r8
 2918 00b6 3946     		mov	r1, r7
 2919 00b8 2846     		mov	r0, r5
 2920 00ba FFF7FEFF 		bl	lv_style_transition_dsc_init
 2921              	.LVL297:
 221:lvgl/src/extra/themes/default/lv_theme_default.c ****     lv_style_set_transition(&styles->transition_delayed, &trans_delayed); /*Go back to default stat
 2922              		.loc 1 221 5 view .LVU857
 221:lvgl/src/extra/themes/default/lv_theme_default.c ****     lv_style_set_transition(&styles->transition_delayed, &trans_delayed); /*Go back to default stat
 2923              		.loc 1 221 29 is_stmt 0 view .LVU858
 2924 00be 9C4C     		ldr	r4, .L570+32
 2925 00c0 2068     		ldr	r0, [r4]
 221:lvgl/src/extra/themes/default/lv_theme_default.c ****     lv_style_set_transition(&styles->transition_delayed, &trans_delayed); /*Go back to default stat
 2926              		.loc 1 221 5 view .LVU859
 2927 00c2 D030     		adds	r0, r0, #208
 2928 00c4 FFF7FEFF 		bl	style_init_reset
 2929              	.LVL298:
 222:lvgl/src/extra/themes/default/lv_theme_default.c **** 
 2930              		.loc 1 222 5 is_stmt 1 view .LVU860
 222:lvgl/src/extra/themes/default/lv_theme_default.c **** 
 2931              		.loc 1 222 36 is_stmt 0 view .LVU861
 2932 00c8 2068     		ldr	r0, [r4]
 222:lvgl/src/extra/themes/default/lv_theme_default.c **** 
 2933              		.loc 1 222 5 view .LVU862
 2934 00ca 3146     		mov	r1, r6
 2935 00cc D030     		adds	r0, r0, #208
 2936 00ce FFF7FEFF 		bl	lv_style_set_transition
 2937              	.LVL299:
ARM GAS  /var/folders/k2/cd9bl_j17z77g23y6ffqb_400000gn/T//ccRoPncs.s 			page 95


 224:lvgl/src/extra/themes/default/lv_theme_default.c ****     lv_style_set_transition(&styles->transition_normal, &trans_normal); /*Go back to default state 
 2938              		.loc 1 224 5 is_stmt 1 view .LVU863
 224:lvgl/src/extra/themes/default/lv_theme_default.c ****     lv_style_set_transition(&styles->transition_normal, &trans_normal); /*Go back to default state 
 2939              		.loc 1 224 29 is_stmt 0 view .LVU864
 2940 00d2 2068     		ldr	r0, [r4]
 224:lvgl/src/extra/themes/default/lv_theme_default.c ****     lv_style_set_transition(&styles->transition_normal, &trans_normal); /*Go back to default state 
 2941              		.loc 1 224 5 view .LVU865
 2942 00d4 D830     		adds	r0, r0, #216
 2943 00d6 FFF7FEFF 		bl	style_init_reset
 2944              	.LVL300:
 225:lvgl/src/extra/themes/default/lv_theme_default.c **** 
 2945              		.loc 1 225 5 is_stmt 1 view .LVU866
 225:lvgl/src/extra/themes/default/lv_theme_default.c **** 
 2946              		.loc 1 225 36 is_stmt 0 view .LVU867
 2947 00da 2068     		ldr	r0, [r4]
 225:lvgl/src/extra/themes/default/lv_theme_default.c **** 
 2948              		.loc 1 225 5 view .LVU868
 2949 00dc 2946     		mov	r1, r5
 2950 00de D830     		adds	r0, r0, #216
 2951 00e0 FFF7FEFF 		bl	lv_style_set_transition
 2952              	.LVL301:
 227:lvgl/src/extra/themes/default/lv_theme_default.c ****     lv_style_set_bg_color(&styles->scrollbar, (theme.flags & MODE_DARK) ? lv_palette_darken(LV_PALE
 2953              		.loc 1 227 5 is_stmt 1 view .LVU869
 227:lvgl/src/extra/themes/default/lv_theme_default.c ****     lv_style_set_bg_color(&styles->scrollbar, (theme.flags & MODE_DARK) ? lv_palette_darken(LV_PALE
 2954              		.loc 1 227 29 is_stmt 0 view .LVU870
 2955 00e4 2068     		ldr	r0, [r4]
 227:lvgl/src/extra/themes/default/lv_theme_default.c ****     lv_style_set_bg_color(&styles->scrollbar, (theme.flags & MODE_DARK) ? lv_palette_darken(LV_PALE
 2956              		.loc 1 227 5 view .LVU871
 2957 00e6 0830     		adds	r0, r0, #8
 2958 00e8 FFF7FEFF 		bl	style_init_reset
 2959              	.LVL302:
 228:lvgl/src/extra/themes/default/lv_theme_default.c ****     lv_style_set_radius(&styles->scrollbar, LV_RADIUS_CIRCLE);
 2960              		.loc 1 228 5 is_stmt 1 view .LVU872
 228:lvgl/src/extra/themes/default/lv_theme_default.c ****     lv_style_set_radius(&styles->scrollbar, LV_RADIUS_CIRCLE);
 2961              		.loc 1 228 34 is_stmt 0 view .LVU873
 2962 00ec 2468     		ldr	r4, [r4]
 228:lvgl/src/extra/themes/default/lv_theme_default.c ****     lv_style_set_radius(&styles->scrollbar, LV_RADIUS_CIRCLE);
 2963              		.loc 1 228 5 view .LVU874
 2964 00ee 0834     		adds	r4, r4, #8
 228:lvgl/src/extra/themes/default/lv_theme_default.c ****     lv_style_set_radius(&styles->scrollbar, LV_RADIUS_CIRCLE);
 2965              		.loc 1 228 53 view .LVU875
 2966 00f0 874B     		ldr	r3, .L570
 2967 00f2 5B6A     		ldr	r3, [r3, #36]
 228:lvgl/src/extra/themes/default/lv_theme_default.c ****     lv_style_set_radius(&styles->scrollbar, LV_RADIUS_CIRCLE);
 2968              		.loc 1 228 5 view .LVU876
 2969 00f4 13F0010F 		tst	r3, #1
 2970 00f8 01F01E82 		beq	.L86
 228:lvgl/src/extra/themes/default/lv_theme_default.c ****     lv_style_set_radius(&styles->scrollbar, LV_RADIUS_CIRCLE);
 2971              		.loc 1 228 75 discriminator 1 view .LVU877
 2972 00fc 0221     		movs	r1, #2
 2973 00fe 1220     		movs	r0, #18
 2974 0100 FFF7FEFF 		bl	lv_palette_darken
 2975              	.LVL303:
 2976 0104 0146     		mov	r1, r0
 2977              	.L87:
 228:lvgl/src/extra/themes/default/lv_theme_default.c ****     lv_style_set_radius(&styles->scrollbar, LV_RADIUS_CIRCLE);
 2978              		.loc 1 228 5 discriminator 4 view .LVU878
ARM GAS  /var/folders/k2/cd9bl_j17z77g23y6ffqb_400000gn/T//ccRoPncs.s 			page 96


 2979 0106 2046     		mov	r0, r4
 2980 0108 FFF7FEFF 		bl	lv_style_set_bg_color
 2981              	.LVL304:
 229:lvgl/src/extra/themes/default/lv_theme_default.c ****     lv_style_set_pad_right(&styles->scrollbar, lv_disp_dpx(theme.disp, 7));
 2982              		.loc 1 229 5 is_stmt 1 discriminator 4 view .LVU879
 229:lvgl/src/extra/themes/default/lv_theme_default.c ****     lv_style_set_pad_right(&styles->scrollbar, lv_disp_dpx(theme.disp, 7));
 2983              		.loc 1 229 32 is_stmt 0 discriminator 4 view .LVU880
 2984 010c 884C     		ldr	r4, .L570+32
 2985 010e 2068     		ldr	r0, [r4]
 229:lvgl/src/extra/themes/default/lv_theme_default.c ****     lv_style_set_pad_right(&styles->scrollbar, lv_disp_dpx(theme.disp, 7));
 2986              		.loc 1 229 5 discriminator 4 view .LVU881
 2987 0110 47F6FF71 		movw	r1, #32767
 2988 0114 0830     		adds	r0, r0, #8
 2989 0116 FFF7FEFF 		bl	lv_style_set_radius
 2990              	.LVL305:
 230:lvgl/src/extra/themes/default/lv_theme_default.c ****     lv_style_set_pad_top(&styles->scrollbar,  lv_disp_dpx(theme.disp, 7));
 2991              		.loc 1 230 5 is_stmt 1 discriminator 4 view .LVU882
 230:lvgl/src/extra/themes/default/lv_theme_default.c ****     lv_style_set_pad_top(&styles->scrollbar,  lv_disp_dpx(theme.disp, 7));
 2992              		.loc 1 230 35 is_stmt 0 discriminator 4 view .LVU883
 2993 011a 2468     		ldr	r4, [r4]
 230:lvgl/src/extra/themes/default/lv_theme_default.c ****     lv_style_set_pad_top(&styles->scrollbar,  lv_disp_dpx(theme.disp, 7));
 2994              		.loc 1 230 5 discriminator 4 view .LVU884
 2995 011c 0834     		adds	r4, r4, #8
 230:lvgl/src/extra/themes/default/lv_theme_default.c ****     lv_style_set_pad_top(&styles->scrollbar,  lv_disp_dpx(theme.disp, 7));
 2996              		.loc 1 230 65 discriminator 4 view .LVU885
 2997 011e 7C4B     		ldr	r3, .L570
 2998 0120 DD68     		ldr	r5, [r3, #12]
 2999              	.LVL306:
 3000              	.LBB393:
 3001              	.LBI393:
 3002              		.file 3 "lvgl/src/extra/themes/default/../../../../src/core/lv_disp.h"
   1:lvgl/src/extra/themes/default/../../../../src/core/lv_disp.h **** /**
   2:lvgl/src/extra/themes/default/../../../../src/core/lv_disp.h ****  * @file lv_disp.h
   3:lvgl/src/extra/themes/default/../../../../src/core/lv_disp.h ****  *
   4:lvgl/src/extra/themes/default/../../../../src/core/lv_disp.h ****  */
   5:lvgl/src/extra/themes/default/../../../../src/core/lv_disp.h **** 
   6:lvgl/src/extra/themes/default/../../../../src/core/lv_disp.h **** #ifndef LV_DISP_H
   7:lvgl/src/extra/themes/default/../../../../src/core/lv_disp.h **** #define LV_DISP_H
   8:lvgl/src/extra/themes/default/../../../../src/core/lv_disp.h **** 
   9:lvgl/src/extra/themes/default/../../../../src/core/lv_disp.h **** #ifdef __cplusplus
  10:lvgl/src/extra/themes/default/../../../../src/core/lv_disp.h **** extern "C" {
  11:lvgl/src/extra/themes/default/../../../../src/core/lv_disp.h **** #endif
  12:lvgl/src/extra/themes/default/../../../../src/core/lv_disp.h **** 
  13:lvgl/src/extra/themes/default/../../../../src/core/lv_disp.h **** /*********************
  14:lvgl/src/extra/themes/default/../../../../src/core/lv_disp.h ****  *      INCLUDES
  15:lvgl/src/extra/themes/default/../../../../src/core/lv_disp.h ****  *********************/
  16:lvgl/src/extra/themes/default/../../../../src/core/lv_disp.h **** #include "../hal/lv_hal.h"
  17:lvgl/src/extra/themes/default/../../../../src/core/lv_disp.h **** #include "lv_obj.h"
  18:lvgl/src/extra/themes/default/../../../../src/core/lv_disp.h **** #include "lv_theme.h"
  19:lvgl/src/extra/themes/default/../../../../src/core/lv_disp.h **** 
  20:lvgl/src/extra/themes/default/../../../../src/core/lv_disp.h **** /*********************
  21:lvgl/src/extra/themes/default/../../../../src/core/lv_disp.h ****  *      DEFINES
  22:lvgl/src/extra/themes/default/../../../../src/core/lv_disp.h ****  *********************/
  23:lvgl/src/extra/themes/default/../../../../src/core/lv_disp.h **** 
  24:lvgl/src/extra/themes/default/../../../../src/core/lv_disp.h **** /**********************
  25:lvgl/src/extra/themes/default/../../../../src/core/lv_disp.h ****  *      TYPEDEFS
  26:lvgl/src/extra/themes/default/../../../../src/core/lv_disp.h ****  **********************/
ARM GAS  /var/folders/k2/cd9bl_j17z77g23y6ffqb_400000gn/T//ccRoPncs.s 			page 97


  27:lvgl/src/extra/themes/default/../../../../src/core/lv_disp.h **** 
  28:lvgl/src/extra/themes/default/../../../../src/core/lv_disp.h **** typedef enum {
  29:lvgl/src/extra/themes/default/../../../../src/core/lv_disp.h ****     LV_SCR_LOAD_ANIM_NONE,
  30:lvgl/src/extra/themes/default/../../../../src/core/lv_disp.h ****     LV_SCR_LOAD_ANIM_OVER_LEFT,
  31:lvgl/src/extra/themes/default/../../../../src/core/lv_disp.h ****     LV_SCR_LOAD_ANIM_OVER_RIGHT,
  32:lvgl/src/extra/themes/default/../../../../src/core/lv_disp.h ****     LV_SCR_LOAD_ANIM_OVER_TOP,
  33:lvgl/src/extra/themes/default/../../../../src/core/lv_disp.h ****     LV_SCR_LOAD_ANIM_OVER_BOTTOM,
  34:lvgl/src/extra/themes/default/../../../../src/core/lv_disp.h ****     LV_SCR_LOAD_ANIM_MOVE_LEFT,
  35:lvgl/src/extra/themes/default/../../../../src/core/lv_disp.h ****     LV_SCR_LOAD_ANIM_MOVE_RIGHT,
  36:lvgl/src/extra/themes/default/../../../../src/core/lv_disp.h ****     LV_SCR_LOAD_ANIM_MOVE_TOP,
  37:lvgl/src/extra/themes/default/../../../../src/core/lv_disp.h ****     LV_SCR_LOAD_ANIM_MOVE_BOTTOM,
  38:lvgl/src/extra/themes/default/../../../../src/core/lv_disp.h ****     LV_SCR_LOAD_ANIM_FADE_ON,
  39:lvgl/src/extra/themes/default/../../../../src/core/lv_disp.h **** } lv_scr_load_anim_t;
  40:lvgl/src/extra/themes/default/../../../../src/core/lv_disp.h **** 
  41:lvgl/src/extra/themes/default/../../../../src/core/lv_disp.h **** /**********************
  42:lvgl/src/extra/themes/default/../../../../src/core/lv_disp.h ****  * GLOBAL PROTOTYPES
  43:lvgl/src/extra/themes/default/../../../../src/core/lv_disp.h ****  **********************/
  44:lvgl/src/extra/themes/default/../../../../src/core/lv_disp.h **** 
  45:lvgl/src/extra/themes/default/../../../../src/core/lv_disp.h **** /**
  46:lvgl/src/extra/themes/default/../../../../src/core/lv_disp.h ****  * Return with a pointer to the active screen
  47:lvgl/src/extra/themes/default/../../../../src/core/lv_disp.h ****  * @param disp pointer to display which active screen should be get. (NULL to use the default
  48:lvgl/src/extra/themes/default/../../../../src/core/lv_disp.h ****  * screen)
  49:lvgl/src/extra/themes/default/../../../../src/core/lv_disp.h ****  * @return pointer to the active screen object (loaded by 'lv_scr_load()')
  50:lvgl/src/extra/themes/default/../../../../src/core/lv_disp.h ****  */
  51:lvgl/src/extra/themes/default/../../../../src/core/lv_disp.h **** lv_obj_t * lv_disp_get_scr_act(lv_disp_t * disp);
  52:lvgl/src/extra/themes/default/../../../../src/core/lv_disp.h **** 
  53:lvgl/src/extra/themes/default/../../../../src/core/lv_disp.h **** /**
  54:lvgl/src/extra/themes/default/../../../../src/core/lv_disp.h ****  * Return with a pointer to the previous screen. Only used during screen transitions.
  55:lvgl/src/extra/themes/default/../../../../src/core/lv_disp.h ****  * @param disp pointer to display which previous screen should be get. (NULL to use the default
  56:lvgl/src/extra/themes/default/../../../../src/core/lv_disp.h ****  * screen)
  57:lvgl/src/extra/themes/default/../../../../src/core/lv_disp.h ****  * @return pointer to the previous screen object or NULL if not used now
  58:lvgl/src/extra/themes/default/../../../../src/core/lv_disp.h ****  */
  59:lvgl/src/extra/themes/default/../../../../src/core/lv_disp.h **** lv_obj_t * lv_disp_get_scr_prev(lv_disp_t * disp);
  60:lvgl/src/extra/themes/default/../../../../src/core/lv_disp.h **** 
  61:lvgl/src/extra/themes/default/../../../../src/core/lv_disp.h **** /**
  62:lvgl/src/extra/themes/default/../../../../src/core/lv_disp.h ****  * Make a screen active
  63:lvgl/src/extra/themes/default/../../../../src/core/lv_disp.h ****  * @param scr pointer to a screen
  64:lvgl/src/extra/themes/default/../../../../src/core/lv_disp.h ****  */
  65:lvgl/src/extra/themes/default/../../../../src/core/lv_disp.h **** void lv_disp_load_scr(lv_obj_t * scr);
  66:lvgl/src/extra/themes/default/../../../../src/core/lv_disp.h **** 
  67:lvgl/src/extra/themes/default/../../../../src/core/lv_disp.h **** /**
  68:lvgl/src/extra/themes/default/../../../../src/core/lv_disp.h ****  * Return with the top layer. (Same on every screen and it is above the normal screen layer)
  69:lvgl/src/extra/themes/default/../../../../src/core/lv_disp.h ****  * @param disp pointer to display which top layer should be get. (NULL to use the default screen)
  70:lvgl/src/extra/themes/default/../../../../src/core/lv_disp.h ****  * @return pointer to the top layer object  (transparent screen sized lv_obj)
  71:lvgl/src/extra/themes/default/../../../../src/core/lv_disp.h ****  */
  72:lvgl/src/extra/themes/default/../../../../src/core/lv_disp.h **** lv_obj_t * lv_disp_get_layer_top(lv_disp_t * disp);
  73:lvgl/src/extra/themes/default/../../../../src/core/lv_disp.h **** 
  74:lvgl/src/extra/themes/default/../../../../src/core/lv_disp.h **** /**
  75:lvgl/src/extra/themes/default/../../../../src/core/lv_disp.h ****  * Return with the sys. layer. (Same on every screen and it is above the normal screen and the top
  76:lvgl/src/extra/themes/default/../../../../src/core/lv_disp.h ****  * layer)
  77:lvgl/src/extra/themes/default/../../../../src/core/lv_disp.h ****  * @param disp pointer to display which sys. layer  should be get. (NULL to use the default screen)
  78:lvgl/src/extra/themes/default/../../../../src/core/lv_disp.h ****  * @return pointer to the sys layer object  (transparent screen sized lv_obj)
  79:lvgl/src/extra/themes/default/../../../../src/core/lv_disp.h ****  */
  80:lvgl/src/extra/themes/default/../../../../src/core/lv_disp.h **** lv_obj_t * lv_disp_get_layer_sys(lv_disp_t * disp);
  81:lvgl/src/extra/themes/default/../../../../src/core/lv_disp.h **** 
  82:lvgl/src/extra/themes/default/../../../../src/core/lv_disp.h **** /**
  83:lvgl/src/extra/themes/default/../../../../src/core/lv_disp.h ****  * Get the theme of a display
ARM GAS  /var/folders/k2/cd9bl_j17z77g23y6ffqb_400000gn/T//ccRoPncs.s 			page 98


  84:lvgl/src/extra/themes/default/../../../../src/core/lv_disp.h ****  * @param disp pointer to a display
  85:lvgl/src/extra/themes/default/../../../../src/core/lv_disp.h ****  * @return the display's theme (can be NULL)
  86:lvgl/src/extra/themes/default/../../../../src/core/lv_disp.h ****  */
  87:lvgl/src/extra/themes/default/../../../../src/core/lv_disp.h **** void lv_disp_set_theme(lv_disp_t * disp, lv_theme_t * th);
  88:lvgl/src/extra/themes/default/../../../../src/core/lv_disp.h **** 
  89:lvgl/src/extra/themes/default/../../../../src/core/lv_disp.h **** /**
  90:lvgl/src/extra/themes/default/../../../../src/core/lv_disp.h ****  * Get the theme of a display
  91:lvgl/src/extra/themes/default/../../../../src/core/lv_disp.h ****  * @param disp pointer to a display
  92:lvgl/src/extra/themes/default/../../../../src/core/lv_disp.h ****  * @return the display's theme (can be NULL)
  93:lvgl/src/extra/themes/default/../../../../src/core/lv_disp.h ****  */
  94:lvgl/src/extra/themes/default/../../../../src/core/lv_disp.h **** lv_theme_t * lv_disp_get_theme(lv_disp_t * disp);
  95:lvgl/src/extra/themes/default/../../../../src/core/lv_disp.h **** 
  96:lvgl/src/extra/themes/default/../../../../src/core/lv_disp.h **** /**
  97:lvgl/src/extra/themes/default/../../../../src/core/lv_disp.h ****  * Set the background color of a display
  98:lvgl/src/extra/themes/default/../../../../src/core/lv_disp.h ****  * @param disp pointer to a display
  99:lvgl/src/extra/themes/default/../../../../src/core/lv_disp.h ****  * @param color color of the background
 100:lvgl/src/extra/themes/default/../../../../src/core/lv_disp.h ****  */
 101:lvgl/src/extra/themes/default/../../../../src/core/lv_disp.h **** void lv_disp_set_bg_color(lv_disp_t * disp, lv_color_t color);
 102:lvgl/src/extra/themes/default/../../../../src/core/lv_disp.h **** 
 103:lvgl/src/extra/themes/default/../../../../src/core/lv_disp.h **** /**
 104:lvgl/src/extra/themes/default/../../../../src/core/lv_disp.h ****  * Set the background image of a display
 105:lvgl/src/extra/themes/default/../../../../src/core/lv_disp.h ****  * @param disp pointer to a display
 106:lvgl/src/extra/themes/default/../../../../src/core/lv_disp.h ****  * @param img_src path to file or pointer to an `lv_img_dsc_t` variable
 107:lvgl/src/extra/themes/default/../../../../src/core/lv_disp.h ****  */
 108:lvgl/src/extra/themes/default/../../../../src/core/lv_disp.h **** void lv_disp_set_bg_image(lv_disp_t * disp, const void  * img_src);
 109:lvgl/src/extra/themes/default/../../../../src/core/lv_disp.h **** 
 110:lvgl/src/extra/themes/default/../../../../src/core/lv_disp.h **** /**
 111:lvgl/src/extra/themes/default/../../../../src/core/lv_disp.h ****  * Opacity of the background
 112:lvgl/src/extra/themes/default/../../../../src/core/lv_disp.h ****  * @param disp pointer to a display
 113:lvgl/src/extra/themes/default/../../../../src/core/lv_disp.h ****  * @param opa opacity (0..255)
 114:lvgl/src/extra/themes/default/../../../../src/core/lv_disp.h ****  */
 115:lvgl/src/extra/themes/default/../../../../src/core/lv_disp.h **** void lv_disp_set_bg_opa(lv_disp_t * disp, lv_opa_t opa);
 116:lvgl/src/extra/themes/default/../../../../src/core/lv_disp.h **** 
 117:lvgl/src/extra/themes/default/../../../../src/core/lv_disp.h **** /**
 118:lvgl/src/extra/themes/default/../../../../src/core/lv_disp.h ****  * Switch screen with animation
 119:lvgl/src/extra/themes/default/../../../../src/core/lv_disp.h ****  * @param scr pointer to the new screen to load
 120:lvgl/src/extra/themes/default/../../../../src/core/lv_disp.h ****  * @param anim_type type of the animation from `lv_scr_load_anim_t`. E.g.  `LV_SCR_LOAD_ANIM_MOVE_L
 121:lvgl/src/extra/themes/default/../../../../src/core/lv_disp.h ****  * @param time time of the animation
 122:lvgl/src/extra/themes/default/../../../../src/core/lv_disp.h ****  * @param delay delay before the transition
 123:lvgl/src/extra/themes/default/../../../../src/core/lv_disp.h ****  * @param auto_del true: automatically delete the old screen
 124:lvgl/src/extra/themes/default/../../../../src/core/lv_disp.h ****  */
 125:lvgl/src/extra/themes/default/../../../../src/core/lv_disp.h **** void lv_scr_load_anim(lv_obj_t * scr, lv_scr_load_anim_t anim_type, uint32_t time, uint32_t delay, 
 126:lvgl/src/extra/themes/default/../../../../src/core/lv_disp.h **** 
 127:lvgl/src/extra/themes/default/../../../../src/core/lv_disp.h **** /**
 128:lvgl/src/extra/themes/default/../../../../src/core/lv_disp.h ****  * Get elapsed time since last user activity on a display (e.g. click)
 129:lvgl/src/extra/themes/default/../../../../src/core/lv_disp.h ****  * @param disp pointer to an display (NULL to get the overall smallest inactivity)
 130:lvgl/src/extra/themes/default/../../../../src/core/lv_disp.h ****  * @return elapsed ticks (milliseconds) since the last activity
 131:lvgl/src/extra/themes/default/../../../../src/core/lv_disp.h ****  */
 132:lvgl/src/extra/themes/default/../../../../src/core/lv_disp.h **** uint32_t lv_disp_get_inactive_time(const lv_disp_t * disp);
 133:lvgl/src/extra/themes/default/../../../../src/core/lv_disp.h **** 
 134:lvgl/src/extra/themes/default/../../../../src/core/lv_disp.h **** /**
 135:lvgl/src/extra/themes/default/../../../../src/core/lv_disp.h ****  * Manually trigger an activity on a display
 136:lvgl/src/extra/themes/default/../../../../src/core/lv_disp.h ****  * @param disp pointer to an display (NULL to use the default display)
 137:lvgl/src/extra/themes/default/../../../../src/core/lv_disp.h ****  */
 138:lvgl/src/extra/themes/default/../../../../src/core/lv_disp.h **** void lv_disp_trig_activity(lv_disp_t * disp);
 139:lvgl/src/extra/themes/default/../../../../src/core/lv_disp.h **** 
 140:lvgl/src/extra/themes/default/../../../../src/core/lv_disp.h **** /**
ARM GAS  /var/folders/k2/cd9bl_j17z77g23y6ffqb_400000gn/T//ccRoPncs.s 			page 99


 141:lvgl/src/extra/themes/default/../../../../src/core/lv_disp.h ****  * Clean any CPU cache that is related to the display.
 142:lvgl/src/extra/themes/default/../../../../src/core/lv_disp.h ****  * @param disp pointer to an display (NULL to use the default display)
 143:lvgl/src/extra/themes/default/../../../../src/core/lv_disp.h ****  */
 144:lvgl/src/extra/themes/default/../../../../src/core/lv_disp.h **** void lv_disp_clean_dcache(lv_disp_t * disp);
 145:lvgl/src/extra/themes/default/../../../../src/core/lv_disp.h **** 
 146:lvgl/src/extra/themes/default/../../../../src/core/lv_disp.h **** /**
 147:lvgl/src/extra/themes/default/../../../../src/core/lv_disp.h ****  * Get a pointer to the screen refresher timer to
 148:lvgl/src/extra/themes/default/../../../../src/core/lv_disp.h ****  * modify its parameters with `lv_timer_...` functions.
 149:lvgl/src/extra/themes/default/../../../../src/core/lv_disp.h ****  * @param disp pointer to a display
 150:lvgl/src/extra/themes/default/../../../../src/core/lv_disp.h ****  * @return pointer to the display refresher timer. (NULL on error)
 151:lvgl/src/extra/themes/default/../../../../src/core/lv_disp.h ****  */
 152:lvgl/src/extra/themes/default/../../../../src/core/lv_disp.h **** lv_timer_t * _lv_disp_get_refr_timer(lv_disp_t * disp);
 153:lvgl/src/extra/themes/default/../../../../src/core/lv_disp.h **** 
 154:lvgl/src/extra/themes/default/../../../../src/core/lv_disp.h **** /*------------------------------------------------
 155:lvgl/src/extra/themes/default/../../../../src/core/lv_disp.h ****  * To improve backward compatibility
 156:lvgl/src/extra/themes/default/../../../../src/core/lv_disp.h ****  * Recommended only if you have one display
 157:lvgl/src/extra/themes/default/../../../../src/core/lv_disp.h ****  *------------------------------------------------*/
 158:lvgl/src/extra/themes/default/../../../../src/core/lv_disp.h **** 
 159:lvgl/src/extra/themes/default/../../../../src/core/lv_disp.h **** /**
 160:lvgl/src/extra/themes/default/../../../../src/core/lv_disp.h ****  * Get the active screen of the default display
 161:lvgl/src/extra/themes/default/../../../../src/core/lv_disp.h ****  * @return pointer to the active screen
 162:lvgl/src/extra/themes/default/../../../../src/core/lv_disp.h ****  */
 163:lvgl/src/extra/themes/default/../../../../src/core/lv_disp.h **** static inline lv_obj_t * lv_scr_act(void)
 164:lvgl/src/extra/themes/default/../../../../src/core/lv_disp.h **** {
 165:lvgl/src/extra/themes/default/../../../../src/core/lv_disp.h ****     return lv_disp_get_scr_act(lv_disp_get_default());
 166:lvgl/src/extra/themes/default/../../../../src/core/lv_disp.h **** }
 167:lvgl/src/extra/themes/default/../../../../src/core/lv_disp.h **** 
 168:lvgl/src/extra/themes/default/../../../../src/core/lv_disp.h **** /**
 169:lvgl/src/extra/themes/default/../../../../src/core/lv_disp.h ****  * Get the top layer  of the default display
 170:lvgl/src/extra/themes/default/../../../../src/core/lv_disp.h ****  * @return pointer to the top layer
 171:lvgl/src/extra/themes/default/../../../../src/core/lv_disp.h ****  */
 172:lvgl/src/extra/themes/default/../../../../src/core/lv_disp.h **** static inline lv_obj_t * lv_layer_top(void)
 173:lvgl/src/extra/themes/default/../../../../src/core/lv_disp.h **** {
 174:lvgl/src/extra/themes/default/../../../../src/core/lv_disp.h ****     return lv_disp_get_layer_top(lv_disp_get_default());
 175:lvgl/src/extra/themes/default/../../../../src/core/lv_disp.h **** }
 176:lvgl/src/extra/themes/default/../../../../src/core/lv_disp.h **** 
 177:lvgl/src/extra/themes/default/../../../../src/core/lv_disp.h **** /**
 178:lvgl/src/extra/themes/default/../../../../src/core/lv_disp.h ****  * Get the active screen of the default display
 179:lvgl/src/extra/themes/default/../../../../src/core/lv_disp.h ****  * @return  pointer to the sys layer
 180:lvgl/src/extra/themes/default/../../../../src/core/lv_disp.h ****  */
 181:lvgl/src/extra/themes/default/../../../../src/core/lv_disp.h **** static inline lv_obj_t * lv_layer_sys(void)
 182:lvgl/src/extra/themes/default/../../../../src/core/lv_disp.h **** {
 183:lvgl/src/extra/themes/default/../../../../src/core/lv_disp.h ****     return lv_disp_get_layer_sys(lv_disp_get_default());
 184:lvgl/src/extra/themes/default/../../../../src/core/lv_disp.h **** }
 185:lvgl/src/extra/themes/default/../../../../src/core/lv_disp.h **** 
 186:lvgl/src/extra/themes/default/../../../../src/core/lv_disp.h **** static inline void lv_scr_load(lv_obj_t * scr)
 187:lvgl/src/extra/themes/default/../../../../src/core/lv_disp.h **** {
 188:lvgl/src/extra/themes/default/../../../../src/core/lv_disp.h ****     lv_disp_load_scr(scr);
 189:lvgl/src/extra/themes/default/../../../../src/core/lv_disp.h **** }
 190:lvgl/src/extra/themes/default/../../../../src/core/lv_disp.h **** 
 191:lvgl/src/extra/themes/default/../../../../src/core/lv_disp.h **** /**********************
 192:lvgl/src/extra/themes/default/../../../../src/core/lv_disp.h ****  *      MACROS
 193:lvgl/src/extra/themes/default/../../../../src/core/lv_disp.h ****  **********************/
 194:lvgl/src/extra/themes/default/../../../../src/core/lv_disp.h **** 
 195:lvgl/src/extra/themes/default/../../../../src/core/lv_disp.h **** /*------------------------------------------------
 196:lvgl/src/extra/themes/default/../../../../src/core/lv_disp.h ****  * To improve backward compatibility
 197:lvgl/src/extra/themes/default/../../../../src/core/lv_disp.h ****  * Recommended only if you have one display
ARM GAS  /var/folders/k2/cd9bl_j17z77g23y6ffqb_400000gn/T//ccRoPncs.s 			page 100


 198:lvgl/src/extra/themes/default/../../../../src/core/lv_disp.h ****  *------------------------------------------------*/
 199:lvgl/src/extra/themes/default/../../../../src/core/lv_disp.h **** 
 200:lvgl/src/extra/themes/default/../../../../src/core/lv_disp.h **** #ifndef LV_HOR_RES
 201:lvgl/src/extra/themes/default/../../../../src/core/lv_disp.h **** /**
 202:lvgl/src/extra/themes/default/../../../../src/core/lv_disp.h ****  * The horizontal resolution of the currently active display.
 203:lvgl/src/extra/themes/default/../../../../src/core/lv_disp.h ****  */
 204:lvgl/src/extra/themes/default/../../../../src/core/lv_disp.h **** #define LV_HOR_RES lv_disp_get_hor_res(lv_disp_get_default())
 205:lvgl/src/extra/themes/default/../../../../src/core/lv_disp.h **** #endif
 206:lvgl/src/extra/themes/default/../../../../src/core/lv_disp.h **** 
 207:lvgl/src/extra/themes/default/../../../../src/core/lv_disp.h **** #ifndef LV_VER_RES
 208:lvgl/src/extra/themes/default/../../../../src/core/lv_disp.h **** /**
 209:lvgl/src/extra/themes/default/../../../../src/core/lv_disp.h ****  * The vertical resolution of the currently active display.
 210:lvgl/src/extra/themes/default/../../../../src/core/lv_disp.h ****  */
 211:lvgl/src/extra/themes/default/../../../../src/core/lv_disp.h **** #define LV_VER_RES lv_disp_get_ver_res(lv_disp_get_default())
 212:lvgl/src/extra/themes/default/../../../../src/core/lv_disp.h **** #endif
 213:lvgl/src/extra/themes/default/../../../../src/core/lv_disp.h **** 
 214:lvgl/src/extra/themes/default/../../../../src/core/lv_disp.h **** /**
 215:lvgl/src/extra/themes/default/../../../../src/core/lv_disp.h ****  * Scale the given number of pixels (a distance or size) relative to a 160 DPI display
 216:lvgl/src/extra/themes/default/../../../../src/core/lv_disp.h ****  * considering the DPI of the default display.
 217:lvgl/src/extra/themes/default/../../../../src/core/lv_disp.h ****  * It ensures that e.g. `lv_dpx(100)` will have the same physical size regardless to the
 218:lvgl/src/extra/themes/default/../../../../src/core/lv_disp.h ****  * DPI of the display.
 219:lvgl/src/extra/themes/default/../../../../src/core/lv_disp.h ****  * @param n     the number of pixels to scale
 220:lvgl/src/extra/themes/default/../../../../src/core/lv_disp.h ****  * @return      `n x current_dpi/160`
 221:lvgl/src/extra/themes/default/../../../../src/core/lv_disp.h ****  */
 222:lvgl/src/extra/themes/default/../../../../src/core/lv_disp.h **** static inline lv_coord_t lv_dpx(lv_coord_t n)
 223:lvgl/src/extra/themes/default/../../../../src/core/lv_disp.h **** {
 224:lvgl/src/extra/themes/default/../../../../src/core/lv_disp.h ****     return LV_DPX(n);
 225:lvgl/src/extra/themes/default/../../../../src/core/lv_disp.h **** }
 226:lvgl/src/extra/themes/default/../../../../src/core/lv_disp.h **** 
 227:lvgl/src/extra/themes/default/../../../../src/core/lv_disp.h **** /**
 228:lvgl/src/extra/themes/default/../../../../src/core/lv_disp.h ****  * Scale the given number of pixels (a distance or size) relative to a 160 DPI display
 229:lvgl/src/extra/themes/default/../../../../src/core/lv_disp.h ****  * considering the DPI of the given display.
 230:lvgl/src/extra/themes/default/../../../../src/core/lv_disp.h ****  * It ensures that e.g. `lv_dpx(100)` will have the same physical size regardless to the
 231:lvgl/src/extra/themes/default/../../../../src/core/lv_disp.h ****  * DPI of the display.
 232:lvgl/src/extra/themes/default/../../../../src/core/lv_disp.h ****  * @param obj   an display whose dpi should be considered
 233:lvgl/src/extra/themes/default/../../../../src/core/lv_disp.h ****  * @param n     the number of pixels to scale
 234:lvgl/src/extra/themes/default/../../../../src/core/lv_disp.h ****  * @return      `n x current_dpi/160`
 235:lvgl/src/extra/themes/default/../../../../src/core/lv_disp.h ****  */
 236:lvgl/src/extra/themes/default/../../../../src/core/lv_disp.h **** static inline lv_coord_t lv_disp_dpx(const lv_disp_t * disp, lv_coord_t n)
 3003              		.loc 3 236 26 is_stmt 1 discriminator 4 view .LVU886
 3004              	.LBB394:
 237:lvgl/src/extra/themes/default/../../../../src/core/lv_disp.h **** {
 238:lvgl/src/extra/themes/default/../../../../src/core/lv_disp.h ****     return _LV_DPX_CALC(lv_disp_get_dpi(disp), n);
 3005              		.loc 3 238 5 discriminator 4 view .LVU887
 3006              		.loc 3 238 12 is_stmt 0 discriminator 4 view .LVU888
 3007 0122 2846     		mov	r0, r5
 3008 0124 FFF7FEFF 		bl	lv_disp_get_dpi
 3009              	.LVL307:
 3010 0128 C0EBC000 		rsb	r0, r0, r0, lsl #3
 3011 012c EF28     		cmp	r0, #239
 3012 012e 01F30982 		bgt	.L402
 3013              		.loc 3 238 12 view .LVU889
 3014 0132 0121     		movs	r1, #1
 3015              	.L88:
 3016              	.LVL308:
 3017              		.loc 3 238 12 view .LVU890
 3018              	.LBE394:
ARM GAS  /var/folders/k2/cd9bl_j17z77g23y6ffqb_400000gn/T//ccRoPncs.s 			page 101


 3019              	.LBE393:
 230:lvgl/src/extra/themes/default/lv_theme_default.c ****     lv_style_set_pad_top(&styles->scrollbar,  lv_disp_dpx(theme.disp, 7));
 3020              		.loc 1 230 5 view .LVU891
 3021 0134 2046     		mov	r0, r4
 3022 0136 FFF7FEFF 		bl	lv_style_set_pad_right
 3023              	.LVL309:
 231:lvgl/src/extra/themes/default/lv_theme_default.c ****     lv_style_set_size(&styles->scrollbar,  lv_disp_dpx(theme.disp, 5));
 3024              		.loc 1 231 5 is_stmt 1 view .LVU892
 231:lvgl/src/extra/themes/default/lv_theme_default.c ****     lv_style_set_size(&styles->scrollbar,  lv_disp_dpx(theme.disp, 5));
 3025              		.loc 1 231 33 is_stmt 0 view .LVU893
 3026 013a 7D4B     		ldr	r3, .L570+32
 3027 013c 1C68     		ldr	r4, [r3]
 231:lvgl/src/extra/themes/default/lv_theme_default.c ****     lv_style_set_size(&styles->scrollbar,  lv_disp_dpx(theme.disp, 5));
 3028              		.loc 1 231 5 view .LVU894
 3029 013e 0834     		adds	r4, r4, #8
 231:lvgl/src/extra/themes/default/lv_theme_default.c ****     lv_style_set_size(&styles->scrollbar,  lv_disp_dpx(theme.disp, 5));
 3030              		.loc 1 231 64 view .LVU895
 3031 0140 734B     		ldr	r3, .L570
 3032 0142 DD68     		ldr	r5, [r3, #12]
 3033              	.LVL310:
 3034              	.LBB396:
 3035              	.LBI396:
 236:lvgl/src/extra/themes/default/../../../../src/core/lv_disp.h **** {
 3036              		.loc 3 236 26 is_stmt 1 view .LVU896
 3037              	.LBB397:
 3038              		.loc 3 238 5 view .LVU897
 3039              		.loc 3 238 12 is_stmt 0 view .LVU898
 3040 0144 2846     		mov	r0, r5
 3041 0146 FFF7FEFF 		bl	lv_disp_get_dpi
 3042              	.LVL311:
 3043 014a C0EBC000 		rsb	r0, r0, r0, lsl #3
 3044 014e EF28     		cmp	r0, #239
 3045 0150 01F30882 		bgt	.L403
 3046 0154 0121     		movs	r1, #1
 3047              	.L89:
 3048              	.LVL312:
 3049              		.loc 3 238 12 view .LVU899
 3050              	.LBE397:
 3051              	.LBE396:
 231:lvgl/src/extra/themes/default/lv_theme_default.c ****     lv_style_set_size(&styles->scrollbar,  lv_disp_dpx(theme.disp, 5));
 3052              		.loc 1 231 5 view .LVU900
 3053 0156 2046     		mov	r0, r4
 3054 0158 FFF7FEFF 		bl	lv_style_set_pad_top
 3055              	.LVL313:
 232:lvgl/src/extra/themes/default/lv_theme_default.c ****     lv_style_set_bg_opa(&styles->scrollbar,  LV_OPA_40);
 3056              		.loc 1 232 5 is_stmt 1 view .LVU901
 232:lvgl/src/extra/themes/default/lv_theme_default.c ****     lv_style_set_bg_opa(&styles->scrollbar,  LV_OPA_40);
 3057              		.loc 1 232 30 is_stmt 0 view .LVU902
 3058 015c 744B     		ldr	r3, .L570+32
 3059 015e 1D68     		ldr	r5, [r3]
 232:lvgl/src/extra/themes/default/lv_theme_default.c ****     lv_style_set_bg_opa(&styles->scrollbar,  LV_OPA_40);
 3060              		.loc 1 232 5 view .LVU903
 3061 0160 0835     		adds	r5, r5, #8
 232:lvgl/src/extra/themes/default/lv_theme_default.c ****     lv_style_set_bg_opa(&styles->scrollbar,  LV_OPA_40);
 3062              		.loc 1 232 61 view .LVU904
 3063 0162 6B4B     		ldr	r3, .L570
 3064 0164 DC68     		ldr	r4, [r3, #12]
ARM GAS  /var/folders/k2/cd9bl_j17z77g23y6ffqb_400000gn/T//ccRoPncs.s 			page 102


 3065              	.LVL314:
 3066              	.LBB399:
 3067              	.LBI399:
 236:lvgl/src/extra/themes/default/../../../../src/core/lv_disp.h **** {
 3068              		.loc 3 236 26 is_stmt 1 view .LVU905
 3069              	.LBB400:
 3070              		.loc 3 238 5 view .LVU906
 3071              		.loc 3 238 12 is_stmt 0 view .LVU907
 3072 0166 2046     		mov	r0, r4
 3073 0168 FFF7FEFF 		bl	lv_disp_get_dpi
 3074              	.LVL315:
 3075 016c 00EB8000 		add	r0, r0, r0, lsl #2
 3076 0170 EF28     		cmp	r0, #239
 3077 0172 01F30782 		bgt	.L404
 3078 0176 0124     		movs	r4, #1
 3079              	.LVL316:
 3080              	.L90:
 3081              		.loc 3 238 12 view .LVU908
 3082              	.LBE400:
 3083              	.LBE399:
 3084              	.LBB402:
 3085              	.LBI402:
 3086              		.file 4 "lvgl/src/extra/themes/default/../../../../src/core/../misc/lv_style.h"
   1:lvgl/src/extra/themes/default/../../../../src/core/../misc/lv_style.h **** /**
   2:lvgl/src/extra/themes/default/../../../../src/core/../misc/lv_style.h ****  * @file lv_style.h
   3:lvgl/src/extra/themes/default/../../../../src/core/../misc/lv_style.h ****  *
   4:lvgl/src/extra/themes/default/../../../../src/core/../misc/lv_style.h ****  */
   5:lvgl/src/extra/themes/default/../../../../src/core/../misc/lv_style.h **** 
   6:lvgl/src/extra/themes/default/../../../../src/core/../misc/lv_style.h **** #ifndef LV_STYLE_H
   7:lvgl/src/extra/themes/default/../../../../src/core/../misc/lv_style.h **** #define LV_STYLE_H
   8:lvgl/src/extra/themes/default/../../../../src/core/../misc/lv_style.h **** 
   9:lvgl/src/extra/themes/default/../../../../src/core/../misc/lv_style.h **** #ifdef __cplusplus
  10:lvgl/src/extra/themes/default/../../../../src/core/../misc/lv_style.h **** extern "C" {
  11:lvgl/src/extra/themes/default/../../../../src/core/../misc/lv_style.h **** #endif
  12:lvgl/src/extra/themes/default/../../../../src/core/../misc/lv_style.h **** 
  13:lvgl/src/extra/themes/default/../../../../src/core/../misc/lv_style.h **** /*********************
  14:lvgl/src/extra/themes/default/../../../../src/core/../misc/lv_style.h ****  *      INCLUDES
  15:lvgl/src/extra/themes/default/../../../../src/core/../misc/lv_style.h ****  *********************/
  16:lvgl/src/extra/themes/default/../../../../src/core/../misc/lv_style.h **** #include <stdbool.h>
  17:lvgl/src/extra/themes/default/../../../../src/core/../misc/lv_style.h **** #include "../font/lv_font.h"
  18:lvgl/src/extra/themes/default/../../../../src/core/../misc/lv_style.h **** #include "lv_color.h"
  19:lvgl/src/extra/themes/default/../../../../src/core/../misc/lv_style.h **** #include "lv_area.h"
  20:lvgl/src/extra/themes/default/../../../../src/core/../misc/lv_style.h **** #include "lv_anim.h"
  21:lvgl/src/extra/themes/default/../../../../src/core/../misc/lv_style.h **** #include "lv_txt.h"
  22:lvgl/src/extra/themes/default/../../../../src/core/../misc/lv_style.h **** #include "lv_types.h"
  23:lvgl/src/extra/themes/default/../../../../src/core/../misc/lv_style.h **** #include "lv_assert.h"
  24:lvgl/src/extra/themes/default/../../../../src/core/../misc/lv_style.h **** #include "lv_bidi.h"
  25:lvgl/src/extra/themes/default/../../../../src/core/../misc/lv_style.h **** 
  26:lvgl/src/extra/themes/default/../../../../src/core/../misc/lv_style.h **** /*********************
  27:lvgl/src/extra/themes/default/../../../../src/core/../misc/lv_style.h ****  *      DEFINES
  28:lvgl/src/extra/themes/default/../../../../src/core/../misc/lv_style.h ****  *********************/
  29:lvgl/src/extra/themes/default/../../../../src/core/../misc/lv_style.h **** 
  30:lvgl/src/extra/themes/default/../../../../src/core/../misc/lv_style.h **** #define LV_STYLE_SENTINEL_VALUE     0xAABBCCDD
  31:lvgl/src/extra/themes/default/../../../../src/core/../misc/lv_style.h **** 
  32:lvgl/src/extra/themes/default/../../../../src/core/../misc/lv_style.h **** /**
  33:lvgl/src/extra/themes/default/../../../../src/core/../misc/lv_style.h ****  * Flags for style properties
  34:lvgl/src/extra/themes/default/../../../../src/core/../misc/lv_style.h ****  */
ARM GAS  /var/folders/k2/cd9bl_j17z77g23y6ffqb_400000gn/T//ccRoPncs.s 			page 103


  35:lvgl/src/extra/themes/default/../../../../src/core/../misc/lv_style.h **** #define LV_STYLE_PROP_INHERIT               (1 << 10)  /*Inherited*/
  36:lvgl/src/extra/themes/default/../../../../src/core/../misc/lv_style.h **** #define LV_STYLE_PROP_EXT_DRAW              (1 << 11)  /*Requires ext. draw size update when change
  37:lvgl/src/extra/themes/default/../../../../src/core/../misc/lv_style.h **** #define LV_STYLE_PROP_LAYOUT_REFR           (1 << 12)  /*Requires layout update when changed*/
  38:lvgl/src/extra/themes/default/../../../../src/core/../misc/lv_style.h **** #define LV_STYLE_PROP_PARENT_LAYOUT_REFR    (1 << 13)  /*Requires layout update on parent when chan
  39:lvgl/src/extra/themes/default/../../../../src/core/../misc/lv_style.h **** #define LV_STYLE_PROP_FILTER                (1 << 14)  /*Apply color filter*/
  40:lvgl/src/extra/themes/default/../../../../src/core/../misc/lv_style.h **** 
  41:lvgl/src/extra/themes/default/../../../../src/core/../misc/lv_style.h **** /**
  42:lvgl/src/extra/themes/default/../../../../src/core/../misc/lv_style.h ****  * Other constants
  43:lvgl/src/extra/themes/default/../../../../src/core/../misc/lv_style.h ****  */
  44:lvgl/src/extra/themes/default/../../../../src/core/../misc/lv_style.h **** #define LV_IMG_ZOOM_NONE            256        /*Value for not zooming the image*/
  45:lvgl/src/extra/themes/default/../../../../src/core/../misc/lv_style.h **** LV_EXPORT_CONST_INT(LV_IMG_ZOOM_NONE);
  46:lvgl/src/extra/themes/default/../../../../src/core/../misc/lv_style.h **** 
  47:lvgl/src/extra/themes/default/../../../../src/core/../misc/lv_style.h **** #if LV_USE_ASSERT_STYLE
  48:lvgl/src/extra/themes/default/../../../../src/core/../misc/lv_style.h **** #define LV_STYLE_CONST_INIT(var_name, prop_array) const lv_style_t var_name = { .sentinel = LV_STYL
  49:lvgl/src/extra/themes/default/../../../../src/core/../misc/lv_style.h **** #else
  50:lvgl/src/extra/themes/default/../../../../src/core/../misc/lv_style.h **** #define LV_STYLE_CONST_INIT(var_name, prop_array) const lv_style_t var_name = { .v_p = { .const_pro
  51:lvgl/src/extra/themes/default/../../../../src/core/../misc/lv_style.h **** #endif
  52:lvgl/src/extra/themes/default/../../../../src/core/../misc/lv_style.h **** 
  53:lvgl/src/extra/themes/default/../../../../src/core/../misc/lv_style.h **** /**********************
  54:lvgl/src/extra/themes/default/../../../../src/core/../misc/lv_style.h ****  *      TYPEDEFS
  55:lvgl/src/extra/themes/default/../../../../src/core/../misc/lv_style.h ****  **********************/
  56:lvgl/src/extra/themes/default/../../../../src/core/../misc/lv_style.h **** 
  57:lvgl/src/extra/themes/default/../../../../src/core/../misc/lv_style.h **** /**
  58:lvgl/src/extra/themes/default/../../../../src/core/../misc/lv_style.h ****  * Possible options how to blend opaque drawings
  59:lvgl/src/extra/themes/default/../../../../src/core/../misc/lv_style.h ****  */
  60:lvgl/src/extra/themes/default/../../../../src/core/../misc/lv_style.h **** enum {
  61:lvgl/src/extra/themes/default/../../../../src/core/../misc/lv_style.h ****     LV_BLEND_MODE_NORMAL,     /**< Simply mix according to the opacity value*/
  62:lvgl/src/extra/themes/default/../../../../src/core/../misc/lv_style.h ****     LV_BLEND_MODE_ADDITIVE,   /**< Add the respective color channels*/
  63:lvgl/src/extra/themes/default/../../../../src/core/../misc/lv_style.h ****     LV_BLEND_MODE_SUBTRACTIVE,/**< Subtract the foreground from the background*/
  64:lvgl/src/extra/themes/default/../../../../src/core/../misc/lv_style.h **** };
  65:lvgl/src/extra/themes/default/../../../../src/core/../misc/lv_style.h **** 
  66:lvgl/src/extra/themes/default/../../../../src/core/../misc/lv_style.h **** typedef uint8_t lv_blend_mode_t;
  67:lvgl/src/extra/themes/default/../../../../src/core/../misc/lv_style.h **** 
  68:lvgl/src/extra/themes/default/../../../../src/core/../misc/lv_style.h **** /**
  69:lvgl/src/extra/themes/default/../../../../src/core/../misc/lv_style.h ****  * Some options to apply decorations on texts.
  70:lvgl/src/extra/themes/default/../../../../src/core/../misc/lv_style.h ****  * 'OR'ed values can be used.
  71:lvgl/src/extra/themes/default/../../../../src/core/../misc/lv_style.h ****  */
  72:lvgl/src/extra/themes/default/../../../../src/core/../misc/lv_style.h **** enum {
  73:lvgl/src/extra/themes/default/../../../../src/core/../misc/lv_style.h ****     LV_TEXT_DECOR_NONE          = 0x00,
  74:lvgl/src/extra/themes/default/../../../../src/core/../misc/lv_style.h ****     LV_TEXT_DECOR_UNDERLINE     = 0x01,
  75:lvgl/src/extra/themes/default/../../../../src/core/../misc/lv_style.h ****     LV_TEXT_DECOR_STRIKETHROUGH = 0x02,
  76:lvgl/src/extra/themes/default/../../../../src/core/../misc/lv_style.h **** };
  77:lvgl/src/extra/themes/default/../../../../src/core/../misc/lv_style.h **** 
  78:lvgl/src/extra/themes/default/../../../../src/core/../misc/lv_style.h **** typedef uint8_t lv_text_decor_t;
  79:lvgl/src/extra/themes/default/../../../../src/core/../misc/lv_style.h **** 
  80:lvgl/src/extra/themes/default/../../../../src/core/../misc/lv_style.h **** /**
  81:lvgl/src/extra/themes/default/../../../../src/core/../misc/lv_style.h ****  * Selects on which sides border should be drawn
  82:lvgl/src/extra/themes/default/../../../../src/core/../misc/lv_style.h ****  * 'OR'ed values can be used.
  83:lvgl/src/extra/themes/default/../../../../src/core/../misc/lv_style.h ****  */
  84:lvgl/src/extra/themes/default/../../../../src/core/../misc/lv_style.h **** enum {
  85:lvgl/src/extra/themes/default/../../../../src/core/../misc/lv_style.h ****     LV_BORDER_SIDE_NONE     = 0x00,
  86:lvgl/src/extra/themes/default/../../../../src/core/../misc/lv_style.h ****     LV_BORDER_SIDE_BOTTOM   = 0x01,
  87:lvgl/src/extra/themes/default/../../../../src/core/../misc/lv_style.h ****     LV_BORDER_SIDE_TOP      = 0x02,
  88:lvgl/src/extra/themes/default/../../../../src/core/../misc/lv_style.h ****     LV_BORDER_SIDE_LEFT     = 0x04,
  89:lvgl/src/extra/themes/default/../../../../src/core/../misc/lv_style.h ****     LV_BORDER_SIDE_RIGHT    = 0x08,
  90:lvgl/src/extra/themes/default/../../../../src/core/../misc/lv_style.h ****     LV_BORDER_SIDE_FULL     = 0x0F,
  91:lvgl/src/extra/themes/default/../../../../src/core/../misc/lv_style.h ****     LV_BORDER_SIDE_INTERNAL = 0x10, /**< FOR matrix-like objects (e.g. Button matrix)*/
ARM GAS  /var/folders/k2/cd9bl_j17z77g23y6ffqb_400000gn/T//ccRoPncs.s 			page 104


  92:lvgl/src/extra/themes/default/../../../../src/core/../misc/lv_style.h **** };
  93:lvgl/src/extra/themes/default/../../../../src/core/../misc/lv_style.h **** typedef uint8_t lv_border_side_t;
  94:lvgl/src/extra/themes/default/../../../../src/core/../misc/lv_style.h **** 
  95:lvgl/src/extra/themes/default/../../../../src/core/../misc/lv_style.h **** /**
  96:lvgl/src/extra/themes/default/../../../../src/core/../misc/lv_style.h ****  * The direction of the gradient.
  97:lvgl/src/extra/themes/default/../../../../src/core/../misc/lv_style.h ****  */
  98:lvgl/src/extra/themes/default/../../../../src/core/../misc/lv_style.h **** enum {
  99:lvgl/src/extra/themes/default/../../../../src/core/../misc/lv_style.h ****     LV_GRAD_DIR_NONE, /**< No gradient (the `grad_color` property is ignored)*/
 100:lvgl/src/extra/themes/default/../../../../src/core/../misc/lv_style.h ****     LV_GRAD_DIR_VER,  /**< Vertical (top to bottom) gradient*/
 101:lvgl/src/extra/themes/default/../../../../src/core/../misc/lv_style.h ****     LV_GRAD_DIR_HOR,  /**< Horizontal (left to right) gradient*/
 102:lvgl/src/extra/themes/default/../../../../src/core/../misc/lv_style.h **** };
 103:lvgl/src/extra/themes/default/../../../../src/core/../misc/lv_style.h **** 
 104:lvgl/src/extra/themes/default/../../../../src/core/../misc/lv_style.h **** typedef uint8_t lv_grad_dir_t;
 105:lvgl/src/extra/themes/default/../../../../src/core/../misc/lv_style.h **** 
 106:lvgl/src/extra/themes/default/../../../../src/core/../misc/lv_style.h **** /**
 107:lvgl/src/extra/themes/default/../../../../src/core/../misc/lv_style.h ****  * A common type to handle all the property types in the same way.
 108:lvgl/src/extra/themes/default/../../../../src/core/../misc/lv_style.h ****  */
 109:lvgl/src/extra/themes/default/../../../../src/core/../misc/lv_style.h **** typedef union {
 110:lvgl/src/extra/themes/default/../../../../src/core/../misc/lv_style.h ****     int32_t num;         /**< Number integer number (opacity, enums, booleans or "normal" numbers)*
 111:lvgl/src/extra/themes/default/../../../../src/core/../misc/lv_style.h ****     const void * ptr;    /**< Constant pointers  (font, cone text, etc)*/
 112:lvgl/src/extra/themes/default/../../../../src/core/../misc/lv_style.h ****     lv_color_t color;    /**< Colors*/
 113:lvgl/src/extra/themes/default/../../../../src/core/../misc/lv_style.h **** }lv_style_value_t;
 114:lvgl/src/extra/themes/default/../../../../src/core/../misc/lv_style.h **** 
 115:lvgl/src/extra/themes/default/../../../../src/core/../misc/lv_style.h **** /**
 116:lvgl/src/extra/themes/default/../../../../src/core/../misc/lv_style.h ****  * Enumeration of all built in style properties
 117:lvgl/src/extra/themes/default/../../../../src/core/../misc/lv_style.h ****  */
 118:lvgl/src/extra/themes/default/../../../../src/core/../misc/lv_style.h **** typedef enum {
 119:lvgl/src/extra/themes/default/../../../../src/core/../misc/lv_style.h ****     LV_STYLE_PROP_INV                = 0,
 120:lvgl/src/extra/themes/default/../../../../src/core/../misc/lv_style.h **** 
 121:lvgl/src/extra/themes/default/../../../../src/core/../misc/lv_style.h ****     /*Group 0*/
 122:lvgl/src/extra/themes/default/../../../../src/core/../misc/lv_style.h ****     LV_STYLE_WIDTH                   = 1 | LV_STYLE_PROP_LAYOUT_REFR,
 123:lvgl/src/extra/themes/default/../../../../src/core/../misc/lv_style.h ****     LV_STYLE_MIN_WIDTH               = 2 | LV_STYLE_PROP_LAYOUT_REFR,
 124:lvgl/src/extra/themes/default/../../../../src/core/../misc/lv_style.h ****     LV_STYLE_MAX_WIDTH               = 3 | LV_STYLE_PROP_LAYOUT_REFR,
 125:lvgl/src/extra/themes/default/../../../../src/core/../misc/lv_style.h ****     LV_STYLE_HEIGHT                  = 4 | LV_STYLE_PROP_LAYOUT_REFR,
 126:lvgl/src/extra/themes/default/../../../../src/core/../misc/lv_style.h ****     LV_STYLE_MIN_HEIGHT              = 5 | LV_STYLE_PROP_LAYOUT_REFR,
 127:lvgl/src/extra/themes/default/../../../../src/core/../misc/lv_style.h ****     LV_STYLE_MAX_HEIGHT              = 6 | LV_STYLE_PROP_LAYOUT_REFR,
 128:lvgl/src/extra/themes/default/../../../../src/core/../misc/lv_style.h ****     LV_STYLE_X                       = 7 | LV_STYLE_PROP_LAYOUT_REFR,
 129:lvgl/src/extra/themes/default/../../../../src/core/../misc/lv_style.h ****     LV_STYLE_Y                       = 8 | LV_STYLE_PROP_LAYOUT_REFR,
 130:lvgl/src/extra/themes/default/../../../../src/core/../misc/lv_style.h ****     LV_STYLE_ALIGN                   = 9 | LV_STYLE_PROP_LAYOUT_REFR,
 131:lvgl/src/extra/themes/default/../../../../src/core/../misc/lv_style.h ****     LV_STYLE_TRANSFORM_WIDTH         = 10 | LV_STYLE_PROP_EXT_DRAW,
 132:lvgl/src/extra/themes/default/../../../../src/core/../misc/lv_style.h ****     LV_STYLE_TRANSFORM_HEIGHT        = 11 | LV_STYLE_PROP_EXT_DRAW,
 133:lvgl/src/extra/themes/default/../../../../src/core/../misc/lv_style.h ****     LV_STYLE_TRANSLATE_X             = 12 | LV_STYLE_PROP_LAYOUT_REFR | LV_STYLE_PROP_PARENT_LAYOUT
 134:lvgl/src/extra/themes/default/../../../../src/core/../misc/lv_style.h ****     LV_STYLE_TRANSLATE_Y             = 13 | LV_STYLE_PROP_LAYOUT_REFR | LV_STYLE_PROP_PARENT_LAYOUT
 135:lvgl/src/extra/themes/default/../../../../src/core/../misc/lv_style.h ****     LV_STYLE_TRANSFORM_ZOOM          = 14 | LV_STYLE_PROP_EXT_DRAW,
 136:lvgl/src/extra/themes/default/../../../../src/core/../misc/lv_style.h ****     LV_STYLE_TRANSFORM_ANGLE         = 15 | LV_STYLE_PROP_EXT_DRAW,
 137:lvgl/src/extra/themes/default/../../../../src/core/../misc/lv_style.h **** 
 138:lvgl/src/extra/themes/default/../../../../src/core/../misc/lv_style.h ****     /*Group 1*/
 139:lvgl/src/extra/themes/default/../../../../src/core/../misc/lv_style.h ****     LV_STYLE_PAD_TOP                 = 16 | LV_STYLE_PROP_LAYOUT_REFR,
 140:lvgl/src/extra/themes/default/../../../../src/core/../misc/lv_style.h ****     LV_STYLE_PAD_BOTTOM              = 17 | LV_STYLE_PROP_LAYOUT_REFR,
 141:lvgl/src/extra/themes/default/../../../../src/core/../misc/lv_style.h ****     LV_STYLE_PAD_LEFT                = 18 | LV_STYLE_PROP_LAYOUT_REFR,
 142:lvgl/src/extra/themes/default/../../../../src/core/../misc/lv_style.h ****     LV_STYLE_PAD_RIGHT               = 19 | LV_STYLE_PROP_LAYOUT_REFR,
 143:lvgl/src/extra/themes/default/../../../../src/core/../misc/lv_style.h ****     LV_STYLE_PAD_ROW                 = 20 | LV_STYLE_PROP_LAYOUT_REFR,
 144:lvgl/src/extra/themes/default/../../../../src/core/../misc/lv_style.h ****     LV_STYLE_PAD_COLUMN              = 21 | LV_STYLE_PROP_LAYOUT_REFR,
 145:lvgl/src/extra/themes/default/../../../../src/core/../misc/lv_style.h **** 
 146:lvgl/src/extra/themes/default/../../../../src/core/../misc/lv_style.h ****     /*Group 2*/
 147:lvgl/src/extra/themes/default/../../../../src/core/../misc/lv_style.h ****     LV_STYLE_BG_COLOR                = 32,
 148:lvgl/src/extra/themes/default/../../../../src/core/../misc/lv_style.h ****     LV_STYLE_BG_COLOR_FILTERED       = 32 | LV_STYLE_PROP_FILTER,
ARM GAS  /var/folders/k2/cd9bl_j17z77g23y6ffqb_400000gn/T//ccRoPncs.s 			page 105


 149:lvgl/src/extra/themes/default/../../../../src/core/../misc/lv_style.h ****     LV_STYLE_BG_OPA                  = 33,
 150:lvgl/src/extra/themes/default/../../../../src/core/../misc/lv_style.h ****     LV_STYLE_BG_GRAD_COLOR           = 34,
 151:lvgl/src/extra/themes/default/../../../../src/core/../misc/lv_style.h ****     LV_STYLE_BG_GRAD_COLOR_FILTERED  = 34 | LV_STYLE_PROP_FILTER,
 152:lvgl/src/extra/themes/default/../../../../src/core/../misc/lv_style.h ****     LV_STYLE_BG_GRAD_DIR             = 35,
 153:lvgl/src/extra/themes/default/../../../../src/core/../misc/lv_style.h ****     LV_STYLE_BG_MAIN_STOP            = 36,
 154:lvgl/src/extra/themes/default/../../../../src/core/../misc/lv_style.h ****     LV_STYLE_BG_GRAD_STOP            = 37,
 155:lvgl/src/extra/themes/default/../../../../src/core/../misc/lv_style.h **** 
 156:lvgl/src/extra/themes/default/../../../../src/core/../misc/lv_style.h ****     LV_STYLE_BG_IMG_SRC              = 38,
 157:lvgl/src/extra/themes/default/../../../../src/core/../misc/lv_style.h ****     LV_STYLE_BG_IMG_OPA              = 39,
 158:lvgl/src/extra/themes/default/../../../../src/core/../misc/lv_style.h ****     LV_STYLE_BG_IMG_RECOLOR          = 40,
 159:lvgl/src/extra/themes/default/../../../../src/core/../misc/lv_style.h ****     LV_STYLE_BG_IMG_RECOLOR_FILTERED = 40 | LV_STYLE_PROP_FILTER,
 160:lvgl/src/extra/themes/default/../../../../src/core/../misc/lv_style.h ****     LV_STYLE_BG_IMG_RECOLOR_OPA      = 41,
 161:lvgl/src/extra/themes/default/../../../../src/core/../misc/lv_style.h ****     LV_STYLE_BG_IMG_TILED            = 42,
 162:lvgl/src/extra/themes/default/../../../../src/core/../misc/lv_style.h **** 
 163:lvgl/src/extra/themes/default/../../../../src/core/../misc/lv_style.h ****     /*Group 3*/
 164:lvgl/src/extra/themes/default/../../../../src/core/../misc/lv_style.h ****     LV_STYLE_BORDER_COLOR            = 48,
 165:lvgl/src/extra/themes/default/../../../../src/core/../misc/lv_style.h ****     LV_STYLE_BORDER_COLOR_FILTERED   = 48 | LV_STYLE_PROP_FILTER,
 166:lvgl/src/extra/themes/default/../../../../src/core/../misc/lv_style.h ****     LV_STYLE_BORDER_OPA              = 49,
 167:lvgl/src/extra/themes/default/../../../../src/core/../misc/lv_style.h ****     LV_STYLE_BORDER_WIDTH            = 50 | LV_STYLE_PROP_LAYOUT_REFR,
 168:lvgl/src/extra/themes/default/../../../../src/core/../misc/lv_style.h ****     LV_STYLE_BORDER_SIDE             = 51,
 169:lvgl/src/extra/themes/default/../../../../src/core/../misc/lv_style.h ****     LV_STYLE_BORDER_POST             = 52,
 170:lvgl/src/extra/themes/default/../../../../src/core/../misc/lv_style.h **** 
 171:lvgl/src/extra/themes/default/../../../../src/core/../misc/lv_style.h ****     LV_STYLE_OUTLINE_WIDTH           = 58 | LV_STYLE_PROP_EXT_DRAW,
 172:lvgl/src/extra/themes/default/../../../../src/core/../misc/lv_style.h ****     LV_STYLE_OUTLINE_COLOR           = 59,
 173:lvgl/src/extra/themes/default/../../../../src/core/../misc/lv_style.h ****     LV_STYLE_OUTLINE_COLOR_FILTERED  = 59 | LV_STYLE_PROP_FILTER,
 174:lvgl/src/extra/themes/default/../../../../src/core/../misc/lv_style.h ****     LV_STYLE_OUTLINE_OPA             = 60 | LV_STYLE_PROP_EXT_DRAW,
 175:lvgl/src/extra/themes/default/../../../../src/core/../misc/lv_style.h ****     LV_STYLE_OUTLINE_PAD             = 61 | LV_STYLE_PROP_EXT_DRAW,
 176:lvgl/src/extra/themes/default/../../../../src/core/../misc/lv_style.h **** 
 177:lvgl/src/extra/themes/default/../../../../src/core/../misc/lv_style.h ****     /*Group 4*/
 178:lvgl/src/extra/themes/default/../../../../src/core/../misc/lv_style.h ****     LV_STYLE_SHADOW_WIDTH            = 64 | LV_STYLE_PROP_EXT_DRAW,
 179:lvgl/src/extra/themes/default/../../../../src/core/../misc/lv_style.h ****     LV_STYLE_SHADOW_OFS_X            = 65 | LV_STYLE_PROP_EXT_DRAW,
 180:lvgl/src/extra/themes/default/../../../../src/core/../misc/lv_style.h ****     LV_STYLE_SHADOW_OFS_Y            = 66 | LV_STYLE_PROP_EXT_DRAW,
 181:lvgl/src/extra/themes/default/../../../../src/core/../misc/lv_style.h ****     LV_STYLE_SHADOW_SPREAD           = 67 | LV_STYLE_PROP_EXT_DRAW,
 182:lvgl/src/extra/themes/default/../../../../src/core/../misc/lv_style.h ****     LV_STYLE_SHADOW_COLOR            = 68,
 183:lvgl/src/extra/themes/default/../../../../src/core/../misc/lv_style.h ****     LV_STYLE_SHADOW_COLOR_FILTERED   = 68 | LV_STYLE_PROP_FILTER,
 184:lvgl/src/extra/themes/default/../../../../src/core/../misc/lv_style.h ****     LV_STYLE_SHADOW_OPA              = 69 | LV_STYLE_PROP_EXT_DRAW,
 185:lvgl/src/extra/themes/default/../../../../src/core/../misc/lv_style.h **** 
 186:lvgl/src/extra/themes/default/../../../../src/core/../misc/lv_style.h ****     LV_STYLE_IMG_OPA                 = 70,
 187:lvgl/src/extra/themes/default/../../../../src/core/../misc/lv_style.h ****     LV_STYLE_IMG_RECOLOR             = 71,
 188:lvgl/src/extra/themes/default/../../../../src/core/../misc/lv_style.h ****     LV_STYLE_IMG_RECOLOR_FILTERED    = 71 | LV_STYLE_PROP_FILTER,
 189:lvgl/src/extra/themes/default/../../../../src/core/../misc/lv_style.h ****     LV_STYLE_IMG_RECOLOR_OPA         = 72,
 190:lvgl/src/extra/themes/default/../../../../src/core/../misc/lv_style.h **** 
 191:lvgl/src/extra/themes/default/../../../../src/core/../misc/lv_style.h ****     LV_STYLE_LINE_WIDTH              = 73 | LV_STYLE_PROP_EXT_DRAW,
 192:lvgl/src/extra/themes/default/../../../../src/core/../misc/lv_style.h ****     LV_STYLE_LINE_DASH_WIDTH         = 74,
 193:lvgl/src/extra/themes/default/../../../../src/core/../misc/lv_style.h ****     LV_STYLE_LINE_DASH_GAP           = 75,
 194:lvgl/src/extra/themes/default/../../../../src/core/../misc/lv_style.h ****     LV_STYLE_LINE_ROUNDED            = 76,
 195:lvgl/src/extra/themes/default/../../../../src/core/../misc/lv_style.h ****     LV_STYLE_LINE_COLOR              = 77,
 196:lvgl/src/extra/themes/default/../../../../src/core/../misc/lv_style.h ****     LV_STYLE_LINE_COLOR_FILTERED     = 77 | LV_STYLE_PROP_FILTER,
 197:lvgl/src/extra/themes/default/../../../../src/core/../misc/lv_style.h ****     LV_STYLE_LINE_OPA                = 78,
 198:lvgl/src/extra/themes/default/../../../../src/core/../misc/lv_style.h **** 
 199:lvgl/src/extra/themes/default/../../../../src/core/../misc/lv_style.h ****     /*Group 5*/
 200:lvgl/src/extra/themes/default/../../../../src/core/../misc/lv_style.h ****     LV_STYLE_ARC_WIDTH               = 80 | LV_STYLE_PROP_EXT_DRAW,
 201:lvgl/src/extra/themes/default/../../../../src/core/../misc/lv_style.h ****     LV_STYLE_ARC_ROUNDED             = 81,
 202:lvgl/src/extra/themes/default/../../../../src/core/../misc/lv_style.h ****     LV_STYLE_ARC_COLOR               = 82,
 203:lvgl/src/extra/themes/default/../../../../src/core/../misc/lv_style.h ****     LV_STYLE_ARC_COLOR_FILTERED      = 82 | LV_STYLE_PROP_FILTER,
 204:lvgl/src/extra/themes/default/../../../../src/core/../misc/lv_style.h ****     LV_STYLE_ARC_OPA                 = 83,
 205:lvgl/src/extra/themes/default/../../../../src/core/../misc/lv_style.h ****     LV_STYLE_ARC_IMG_SRC             = 84,
ARM GAS  /var/folders/k2/cd9bl_j17z77g23y6ffqb_400000gn/T//ccRoPncs.s 			page 106


 206:lvgl/src/extra/themes/default/../../../../src/core/../misc/lv_style.h **** 
 207:lvgl/src/extra/themes/default/../../../../src/core/../misc/lv_style.h ****     LV_STYLE_TEXT_COLOR              = 87 | LV_STYLE_PROP_INHERIT,
 208:lvgl/src/extra/themes/default/../../../../src/core/../misc/lv_style.h ****     LV_STYLE_TEXT_COLOR_FILTERED     = 87 | LV_STYLE_PROP_INHERIT | LV_STYLE_PROP_FILTER,
 209:lvgl/src/extra/themes/default/../../../../src/core/../misc/lv_style.h ****     LV_STYLE_TEXT_OPA                = 88 | LV_STYLE_PROP_INHERIT,
 210:lvgl/src/extra/themes/default/../../../../src/core/../misc/lv_style.h ****     LV_STYLE_TEXT_FONT               = 89 | LV_STYLE_PROP_INHERIT | LV_STYLE_PROP_LAYOUT_REFR,
 211:lvgl/src/extra/themes/default/../../../../src/core/../misc/lv_style.h ****     LV_STYLE_TEXT_LETTER_SPACE       = 90 | LV_STYLE_PROP_INHERIT | LV_STYLE_PROP_LAYOUT_REFR,
 212:lvgl/src/extra/themes/default/../../../../src/core/../misc/lv_style.h ****     LV_STYLE_TEXT_LINE_SPACE         = 91 | LV_STYLE_PROP_INHERIT | LV_STYLE_PROP_LAYOUT_REFR,
 213:lvgl/src/extra/themes/default/../../../../src/core/../misc/lv_style.h ****     LV_STYLE_TEXT_DECOR              = 92 | LV_STYLE_PROP_INHERIT,
 214:lvgl/src/extra/themes/default/../../../../src/core/../misc/lv_style.h ****     LV_STYLE_TEXT_ALIGN              = 93 | LV_STYLE_PROP_INHERIT | LV_STYLE_PROP_LAYOUT_REFR,
 215:lvgl/src/extra/themes/default/../../../../src/core/../misc/lv_style.h **** 
 216:lvgl/src/extra/themes/default/../../../../src/core/../misc/lv_style.h ****     /*Group 6*/
 217:lvgl/src/extra/themes/default/../../../../src/core/../misc/lv_style.h ****     LV_STYLE_RADIUS                  = 96,
 218:lvgl/src/extra/themes/default/../../../../src/core/../misc/lv_style.h ****     LV_STYLE_CLIP_CORNER             = 97,
 219:lvgl/src/extra/themes/default/../../../../src/core/../misc/lv_style.h ****     LV_STYLE_OPA                     = 98 | LV_STYLE_PROP_INHERIT,
 220:lvgl/src/extra/themes/default/../../../../src/core/../misc/lv_style.h ****     LV_STYLE_COLOR_FILTER_DSC        = 99,
 221:lvgl/src/extra/themes/default/../../../../src/core/../misc/lv_style.h ****     LV_STYLE_COLOR_FILTER_OPA        = 100,
 222:lvgl/src/extra/themes/default/../../../../src/core/../misc/lv_style.h ****     LV_STYLE_ANIM_TIME               = 101,
 223:lvgl/src/extra/themes/default/../../../../src/core/../misc/lv_style.h ****     LV_STYLE_ANIM_SPEED              = 102,
 224:lvgl/src/extra/themes/default/../../../../src/core/../misc/lv_style.h ****     LV_STYLE_TRANSITION              = 103,
 225:lvgl/src/extra/themes/default/../../../../src/core/../misc/lv_style.h ****     LV_STYLE_BLEND_MODE              = 104,
 226:lvgl/src/extra/themes/default/../../../../src/core/../misc/lv_style.h ****     LV_STYLE_LAYOUT                  = 105 | LV_STYLE_PROP_LAYOUT_REFR,
 227:lvgl/src/extra/themes/default/../../../../src/core/../misc/lv_style.h ****     LV_STYLE_BASE_DIR                = 106 | LV_STYLE_PROP_INHERIT | LV_STYLE_PROP_LAYOUT_REFR,
 228:lvgl/src/extra/themes/default/../../../../src/core/../misc/lv_style.h **** 
 229:lvgl/src/extra/themes/default/../../../../src/core/../misc/lv_style.h ****     _LV_STYLE_LAST_BUILT_IN_PROP     = 111,
 230:lvgl/src/extra/themes/default/../../../../src/core/../misc/lv_style.h **** 
 231:lvgl/src/extra/themes/default/../../../../src/core/../misc/lv_style.h ****     LV_STYLE_PROP_ANY                = 0xFFFF
 232:lvgl/src/extra/themes/default/../../../../src/core/../misc/lv_style.h **** }lv_style_prop_t;
 233:lvgl/src/extra/themes/default/../../../../src/core/../misc/lv_style.h **** 
 234:lvgl/src/extra/themes/default/../../../../src/core/../misc/lv_style.h **** /**
 235:lvgl/src/extra/themes/default/../../../../src/core/../misc/lv_style.h ****  * Descriptor for style transitions
 236:lvgl/src/extra/themes/default/../../../../src/core/../misc/lv_style.h ****  */
 237:lvgl/src/extra/themes/default/../../../../src/core/../misc/lv_style.h **** typedef struct {
 238:lvgl/src/extra/themes/default/../../../../src/core/../misc/lv_style.h ****     const lv_style_prop_t * props; /**< An array with the properties to animate.*/
 239:lvgl/src/extra/themes/default/../../../../src/core/../misc/lv_style.h **** #if LV_USE_USER_DATA
 240:lvgl/src/extra/themes/default/../../../../src/core/../misc/lv_style.h ****     void * user_data;              /**< A custom user data that will be passed to the animation's u
 241:lvgl/src/extra/themes/default/../../../../src/core/../misc/lv_style.h **** #endif
 242:lvgl/src/extra/themes/default/../../../../src/core/../misc/lv_style.h ****     lv_anim_path_cb_t path_xcb;     /**< A path for the animation.*/
 243:lvgl/src/extra/themes/default/../../../../src/core/../misc/lv_style.h ****     uint32_t time;                 /**< Duration of the transition in [ms]*/
 244:lvgl/src/extra/themes/default/../../../../src/core/../misc/lv_style.h ****     uint32_t delay;                /**< Delay before the transition in [ms]*/
 245:lvgl/src/extra/themes/default/../../../../src/core/../misc/lv_style.h **** }lv_style_transition_dsc_t;
 246:lvgl/src/extra/themes/default/../../../../src/core/../misc/lv_style.h **** 
 247:lvgl/src/extra/themes/default/../../../../src/core/../misc/lv_style.h **** /**
 248:lvgl/src/extra/themes/default/../../../../src/core/../misc/lv_style.h ****  * Descriptor of a constant style property.
 249:lvgl/src/extra/themes/default/../../../../src/core/../misc/lv_style.h ****  */
 250:lvgl/src/extra/themes/default/../../../../src/core/../misc/lv_style.h **** typedef struct {
 251:lvgl/src/extra/themes/default/../../../../src/core/../misc/lv_style.h ****     lv_style_prop_t prop;
 252:lvgl/src/extra/themes/default/../../../../src/core/../misc/lv_style.h ****     lv_style_value_t value;
 253:lvgl/src/extra/themes/default/../../../../src/core/../misc/lv_style.h **** } lv_style_const_prop_t;
 254:lvgl/src/extra/themes/default/../../../../src/core/../misc/lv_style.h **** 
 255:lvgl/src/extra/themes/default/../../../../src/core/../misc/lv_style.h **** /**
 256:lvgl/src/extra/themes/default/../../../../src/core/../misc/lv_style.h ****  * Descriptor of a style (a collection of properties and values).
 257:lvgl/src/extra/themes/default/../../../../src/core/../misc/lv_style.h ****  */
 258:lvgl/src/extra/themes/default/../../../../src/core/../misc/lv_style.h **** typedef struct {
 259:lvgl/src/extra/themes/default/../../../../src/core/../misc/lv_style.h **** 
 260:lvgl/src/extra/themes/default/../../../../src/core/../misc/lv_style.h **** #if LV_USE_ASSERT_STYLE
 261:lvgl/src/extra/themes/default/../../../../src/core/../misc/lv_style.h ****     uint32_t sentinel;
 262:lvgl/src/extra/themes/default/../../../../src/core/../misc/lv_style.h **** #endif
ARM GAS  /var/folders/k2/cd9bl_j17z77g23y6ffqb_400000gn/T//ccRoPncs.s 			page 107


 263:lvgl/src/extra/themes/default/../../../../src/core/../misc/lv_style.h **** 
 264:lvgl/src/extra/themes/default/../../../../src/core/../misc/lv_style.h ****     /*If there is only one property store it directly.
 265:lvgl/src/extra/themes/default/../../../../src/core/../misc/lv_style.h ****      *For more properties allocate an array*/
 266:lvgl/src/extra/themes/default/../../../../src/core/../misc/lv_style.h ****     union {
 267:lvgl/src/extra/themes/default/../../../../src/core/../misc/lv_style.h ****         lv_style_value_t value1;
 268:lvgl/src/extra/themes/default/../../../../src/core/../misc/lv_style.h ****         uint8_t * values_and_props;
 269:lvgl/src/extra/themes/default/../../../../src/core/../misc/lv_style.h ****         const lv_style_const_prop_t * const_props;
 270:lvgl/src/extra/themes/default/../../../../src/core/../misc/lv_style.h ****     } v_p;
 271:lvgl/src/extra/themes/default/../../../../src/core/../misc/lv_style.h **** 
 272:lvgl/src/extra/themes/default/../../../../src/core/../misc/lv_style.h ****     uint16_t prop1 :15;
 273:lvgl/src/extra/themes/default/../../../../src/core/../misc/lv_style.h ****     uint16_t is_const :1;
 274:lvgl/src/extra/themes/default/../../../../src/core/../misc/lv_style.h ****     uint8_t has_group;
 275:lvgl/src/extra/themes/default/../../../../src/core/../misc/lv_style.h ****     uint8_t prop_cnt;
 276:lvgl/src/extra/themes/default/../../../../src/core/../misc/lv_style.h **** } lv_style_t;
 277:lvgl/src/extra/themes/default/../../../../src/core/../misc/lv_style.h **** 
 278:lvgl/src/extra/themes/default/../../../../src/core/../misc/lv_style.h **** /**********************
 279:lvgl/src/extra/themes/default/../../../../src/core/../misc/lv_style.h ****  * GLOBAL PROTOTYPES
 280:lvgl/src/extra/themes/default/../../../../src/core/../misc/lv_style.h ****  **********************/
 281:lvgl/src/extra/themes/default/../../../../src/core/../misc/lv_style.h **** 
 282:lvgl/src/extra/themes/default/../../../../src/core/../misc/lv_style.h **** 
 283:lvgl/src/extra/themes/default/../../../../src/core/../misc/lv_style.h **** /**
 284:lvgl/src/extra/themes/default/../../../../src/core/../misc/lv_style.h ****  * Initialize a style
 285:lvgl/src/extra/themes/default/../../../../src/core/../misc/lv_style.h ****  * @param style pointer to a style to initialize
 286:lvgl/src/extra/themes/default/../../../../src/core/../misc/lv_style.h ****  * @note Do not call `lv_style_init` on styles that are already have some properties
 287:lvgl/src/extra/themes/default/../../../../src/core/../misc/lv_style.h ****  *       because this function won't free the used memory just set a default state for the style.
 288:lvgl/src/extra/themes/default/../../../../src/core/../misc/lv_style.h ****  *       In other words be sure to initialize styles only once!
 289:lvgl/src/extra/themes/default/../../../../src/core/../misc/lv_style.h ****  */
 290:lvgl/src/extra/themes/default/../../../../src/core/../misc/lv_style.h **** void lv_style_init(lv_style_t * style);
 291:lvgl/src/extra/themes/default/../../../../src/core/../misc/lv_style.h **** 
 292:lvgl/src/extra/themes/default/../../../../src/core/../misc/lv_style.h **** /**
 293:lvgl/src/extra/themes/default/../../../../src/core/../misc/lv_style.h ****  * Clear all properties from a style and free all allocated memories.
 294:lvgl/src/extra/themes/default/../../../../src/core/../misc/lv_style.h ****  * @param style pointer to a style
 295:lvgl/src/extra/themes/default/../../../../src/core/../misc/lv_style.h ****  */
 296:lvgl/src/extra/themes/default/../../../../src/core/../misc/lv_style.h **** void lv_style_reset(lv_style_t * style);
 297:lvgl/src/extra/themes/default/../../../../src/core/../misc/lv_style.h **** 
 298:lvgl/src/extra/themes/default/../../../../src/core/../misc/lv_style.h **** /**
 299:lvgl/src/extra/themes/default/../../../../src/core/../misc/lv_style.h ****  * Register a new style property for custom usage
 300:lvgl/src/extra/themes/default/../../../../src/core/../misc/lv_style.h ****  * @return a new property ID.
 301:lvgl/src/extra/themes/default/../../../../src/core/../misc/lv_style.h ****  * @example
 302:lvgl/src/extra/themes/default/../../../../src/core/../misc/lv_style.h ****  * lv_style_prop_t MY_PROP;
 303:lvgl/src/extra/themes/default/../../../../src/core/../misc/lv_style.h ****  * static inline void lv_style_set_my_prop(lv_style_t * style, lv_color_t value) {
 304:lvgl/src/extra/themes/default/../../../../src/core/../misc/lv_style.h ****  * lv_style_value_t v = {.color = value}; lv_style_set_prop(style, MY_PROP, v); }
 305:lvgl/src/extra/themes/default/../../../../src/core/../misc/lv_style.h ****  *
 306:lvgl/src/extra/themes/default/../../../../src/core/../misc/lv_style.h ****  * ...
 307:lvgl/src/extra/themes/default/../../../../src/core/../misc/lv_style.h ****  * MY_PROP = lv_style_register_prop();
 308:lvgl/src/extra/themes/default/../../../../src/core/../misc/lv_style.h ****  * ...
 309:lvgl/src/extra/themes/default/../../../../src/core/../misc/lv_style.h ****  * lv_style_set_my_prop(&style1, lv_palette_main(LV_PALETTE_RED));
 310:lvgl/src/extra/themes/default/../../../../src/core/../misc/lv_style.h ****  */
 311:lvgl/src/extra/themes/default/../../../../src/core/../misc/lv_style.h **** lv_style_prop_t lv_style_register_prop(void);
 312:lvgl/src/extra/themes/default/../../../../src/core/../misc/lv_style.h **** 
 313:lvgl/src/extra/themes/default/../../../../src/core/../misc/lv_style.h **** /**
 314:lvgl/src/extra/themes/default/../../../../src/core/../misc/lv_style.h ****  * Remove a property from a style
 315:lvgl/src/extra/themes/default/../../../../src/core/../misc/lv_style.h ****  * @param style pointer to a style
 316:lvgl/src/extra/themes/default/../../../../src/core/../misc/lv_style.h ****  * @param prop  a style property ORed with a state.
 317:lvgl/src/extra/themes/default/../../../../src/core/../misc/lv_style.h ****  * @return true: the property was found and removed; false: the property wasn't found
 318:lvgl/src/extra/themes/default/../../../../src/core/../misc/lv_style.h ****  */
 319:lvgl/src/extra/themes/default/../../../../src/core/../misc/lv_style.h **** bool lv_style_remove_prop(lv_style_t * style, lv_style_prop_t prop);
ARM GAS  /var/folders/k2/cd9bl_j17z77g23y6ffqb_400000gn/T//ccRoPncs.s 			page 108


 320:lvgl/src/extra/themes/default/../../../../src/core/../misc/lv_style.h **** 
 321:lvgl/src/extra/themes/default/../../../../src/core/../misc/lv_style.h **** /**
 322:lvgl/src/extra/themes/default/../../../../src/core/../misc/lv_style.h ****  * Set the value of property in a style.
 323:lvgl/src/extra/themes/default/../../../../src/core/../misc/lv_style.h ****  * This function shouldn't be used directly by the user.
 324:lvgl/src/extra/themes/default/../../../../src/core/../misc/lv_style.h ****  * Instead use `lv_style_set_<prop_name>()`. E.g. `lv_style_set_bg_color()`
 325:lvgl/src/extra/themes/default/../../../../src/core/../misc/lv_style.h ****  * @param style pointer to style
 326:lvgl/src/extra/themes/default/../../../../src/core/../misc/lv_style.h ****  * @param prop the ID of a property (e.g. `LV_STLYE_BG_COLOR`)
 327:lvgl/src/extra/themes/default/../../../../src/core/../misc/lv_style.h ****  * @param value `lv_style_value_t` variable in which a filed is set according to the type of `prop`
 328:lvgl/src/extra/themes/default/../../../../src/core/../misc/lv_style.h ****  */
 329:lvgl/src/extra/themes/default/../../../../src/core/../misc/lv_style.h **** void lv_style_set_prop(lv_style_t * style, lv_style_prop_t prop, lv_style_value_t value);
 330:lvgl/src/extra/themes/default/../../../../src/core/../misc/lv_style.h **** 
 331:lvgl/src/extra/themes/default/../../../../src/core/../misc/lv_style.h **** /**
 332:lvgl/src/extra/themes/default/../../../../src/core/../misc/lv_style.h ****  * Get the value of a property
 333:lvgl/src/extra/themes/default/../../../../src/core/../misc/lv_style.h ****  * @param style pointer to a style
 334:lvgl/src/extra/themes/default/../../../../src/core/../misc/lv_style.h ****  * @param prop  the ID of a property
 335:lvgl/src/extra/themes/default/../../../../src/core/../misc/lv_style.h ****  * @param value pointer to a `lv_style_value_t` variable to store the value
 336:lvgl/src/extra/themes/default/../../../../src/core/../misc/lv_style.h ****  * @return LV_RES_INV: the property wsn't found in the style (`value` is unchanged)
 337:lvgl/src/extra/themes/default/../../../../src/core/../misc/lv_style.h ****  *         LV_RES_OK: the property was fond, and `value` is set accordingly
 338:lvgl/src/extra/themes/default/../../../../src/core/../misc/lv_style.h ****  * @note For performance reasons there are no sanity check on `style`
 339:lvgl/src/extra/themes/default/../../../../src/core/../misc/lv_style.h ****  */
 340:lvgl/src/extra/themes/default/../../../../src/core/../misc/lv_style.h **** lv_res_t lv_style_get_prop(lv_style_t * style, lv_style_prop_t prop, lv_style_value_t * value);
 341:lvgl/src/extra/themes/default/../../../../src/core/../misc/lv_style.h **** 
 342:lvgl/src/extra/themes/default/../../../../src/core/../misc/lv_style.h **** 
 343:lvgl/src/extra/themes/default/../../../../src/core/../misc/lv_style.h **** /**
 344:lvgl/src/extra/themes/default/../../../../src/core/../misc/lv_style.h ****  * Get the value of a property
 345:lvgl/src/extra/themes/default/../../../../src/core/../misc/lv_style.h ****  * @param style pointer to a style
 346:lvgl/src/extra/themes/default/../../../../src/core/../misc/lv_style.h ****  * @param prop  the ID of a property
 347:lvgl/src/extra/themes/default/../../../../src/core/../misc/lv_style.h ****  * @param value pointer to a `lv_style_value_t` variable to store the value
 348:lvgl/src/extra/themes/default/../../../../src/core/../misc/lv_style.h ****  * @return LV_RES_INV: the property wsn't found in the style (`value` is unchanged)
 349:lvgl/src/extra/themes/default/../../../../src/core/../misc/lv_style.h ****  *         LV_RES_OK: the property was fond, and `value` is set accordingly
 350:lvgl/src/extra/themes/default/../../../../src/core/../misc/lv_style.h ****  * @note For performance reasons there are no sanity check on `style`
 351:lvgl/src/extra/themes/default/../../../../src/core/../misc/lv_style.h ****  * @note This function is the same as ::lv_style_get_prop but inlined. Use it only on performance c
 352:lvgl/src/extra/themes/default/../../../../src/core/../misc/lv_style.h ****  */
 353:lvgl/src/extra/themes/default/../../../../src/core/../misc/lv_style.h **** static inline lv_res_t lv_style_get_prop_inlined(lv_style_t * style, lv_style_prop_t prop, lv_style
 354:lvgl/src/extra/themes/default/../../../../src/core/../misc/lv_style.h **** {
 355:lvgl/src/extra/themes/default/../../../../src/core/../misc/lv_style.h ****     if(style->is_const) {
 356:lvgl/src/extra/themes/default/../../../../src/core/../misc/lv_style.h ****         const lv_style_const_prop_t *const_prop;
 357:lvgl/src/extra/themes/default/../../../../src/core/../misc/lv_style.h ****         for(const_prop = style->v_p.const_props; const_prop->prop != LV_STYLE_PROP_INV; const_prop+
 358:lvgl/src/extra/themes/default/../../../../src/core/../misc/lv_style.h ****             if(const_prop->prop == prop) {
 359:lvgl/src/extra/themes/default/../../../../src/core/../misc/lv_style.h ****                 *value = const_prop->value;
 360:lvgl/src/extra/themes/default/../../../../src/core/../misc/lv_style.h ****                 return LV_RES_OK;
 361:lvgl/src/extra/themes/default/../../../../src/core/../misc/lv_style.h ****             }
 362:lvgl/src/extra/themes/default/../../../../src/core/../misc/lv_style.h ****         }
 363:lvgl/src/extra/themes/default/../../../../src/core/../misc/lv_style.h ****         return LV_RES_INV;
 364:lvgl/src/extra/themes/default/../../../../src/core/../misc/lv_style.h ****     }
 365:lvgl/src/extra/themes/default/../../../../src/core/../misc/lv_style.h **** 
 366:lvgl/src/extra/themes/default/../../../../src/core/../misc/lv_style.h ****     if(style->prop_cnt == 0) return LV_RES_INV;
 367:lvgl/src/extra/themes/default/../../../../src/core/../misc/lv_style.h **** 
 368:lvgl/src/extra/themes/default/../../../../src/core/../misc/lv_style.h ****     if(style->prop_cnt > 1) {
 369:lvgl/src/extra/themes/default/../../../../src/core/../misc/lv_style.h ****         uint8_t * tmp = style->v_p.values_and_props + style->prop_cnt * sizeof(lv_style_value_t);
 370:lvgl/src/extra/themes/default/../../../../src/core/../misc/lv_style.h ****         uint16_t * props = (uint16_t *)tmp;
 371:lvgl/src/extra/themes/default/../../../../src/core/../misc/lv_style.h ****         uint32_t i;
 372:lvgl/src/extra/themes/default/../../../../src/core/../misc/lv_style.h ****         for(i = 0; i < style->prop_cnt; i++) {
 373:lvgl/src/extra/themes/default/../../../../src/core/../misc/lv_style.h ****             if(props[i] == prop) {
 374:lvgl/src/extra/themes/default/../../../../src/core/../misc/lv_style.h ****                 lv_style_value_t * values = (lv_style_value_t *)style->v_p.values_and_props;
 375:lvgl/src/extra/themes/default/../../../../src/core/../misc/lv_style.h ****                 *value = values[i];
 376:lvgl/src/extra/themes/default/../../../../src/core/../misc/lv_style.h ****                 return LV_RES_OK;
ARM GAS  /var/folders/k2/cd9bl_j17z77g23y6ffqb_400000gn/T//ccRoPncs.s 			page 109


 377:lvgl/src/extra/themes/default/../../../../src/core/../misc/lv_style.h ****             }
 378:lvgl/src/extra/themes/default/../../../../src/core/../misc/lv_style.h ****         }
 379:lvgl/src/extra/themes/default/../../../../src/core/../misc/lv_style.h ****     } else if(style->prop1 == prop) {
 380:lvgl/src/extra/themes/default/../../../../src/core/../misc/lv_style.h ****         *value = style->v_p.value1;
 381:lvgl/src/extra/themes/default/../../../../src/core/../misc/lv_style.h ****         return LV_RES_OK;
 382:lvgl/src/extra/themes/default/../../../../src/core/../misc/lv_style.h ****     }
 383:lvgl/src/extra/themes/default/../../../../src/core/../misc/lv_style.h ****     return LV_RES_INV;
 384:lvgl/src/extra/themes/default/../../../../src/core/../misc/lv_style.h **** }
 385:lvgl/src/extra/themes/default/../../../../src/core/../misc/lv_style.h **** 
 386:lvgl/src/extra/themes/default/../../../../src/core/../misc/lv_style.h **** /**
 387:lvgl/src/extra/themes/default/../../../../src/core/../misc/lv_style.h ****  * Initialize a transition descriptor.
 388:lvgl/src/extra/themes/default/../../../../src/core/../misc/lv_style.h ****  * @param tr        pointer to a transition descriptor to initialize
 389:lvgl/src/extra/themes/default/../../../../src/core/../misc/lv_style.h ****  * @param props     an array with the properties to transition. The last element must be zero.
 390:lvgl/src/extra/themes/default/../../../../src/core/../misc/lv_style.h ****  * @param path_cb   an animation path (ease) callback. If `NULL` liner path will be used.
 391:lvgl/src/extra/themes/default/../../../../src/core/../misc/lv_style.h ****  * @param time      duration of the transition in [ms]
 392:lvgl/src/extra/themes/default/../../../../src/core/../misc/lv_style.h ****  * @param delay     delay before the transition in [ms]
 393:lvgl/src/extra/themes/default/../../../../src/core/../misc/lv_style.h ****  * @param user_data any custom data that will be saved in the transition animation and will be avai
 394:lvgl/src/extra/themes/default/../../../../src/core/../misc/lv_style.h ****  * @example
 395:lvgl/src/extra/themes/default/../../../../src/core/../misc/lv_style.h ****  * const static lv_style_prop_t trans_props[] = { LV_STYLE_BG_OPA, LV_STYLE_BG_COLOR, 0 };
 396:lvgl/src/extra/themes/default/../../../../src/core/../misc/lv_style.h ****  *  static lv_style_transition_dsc_t trans1;
 397:lvgl/src/extra/themes/default/../../../../src/core/../misc/lv_style.h ****  *  lv_style_transition_dsc_init(&trans1, trans_props, NULL, 300, 0, NULL);
 398:lvgl/src/extra/themes/default/../../../../src/core/../misc/lv_style.h ****  */
 399:lvgl/src/extra/themes/default/../../../../src/core/../misc/lv_style.h **** void lv_style_transition_dsc_init(lv_style_transition_dsc_t * tr, const lv_style_prop_t props[], lv
 400:lvgl/src/extra/themes/default/../../../../src/core/../misc/lv_style.h **** 
 401:lvgl/src/extra/themes/default/../../../../src/core/../misc/lv_style.h **** /**
 402:lvgl/src/extra/themes/default/../../../../src/core/../misc/lv_style.h ****  * Get the default value of a property
 403:lvgl/src/extra/themes/default/../../../../src/core/../misc/lv_style.h ****  * @param prop the ID of a property
 404:lvgl/src/extra/themes/default/../../../../src/core/../misc/lv_style.h ****  * @return the default value
 405:lvgl/src/extra/themes/default/../../../../src/core/../misc/lv_style.h ****  */
 406:lvgl/src/extra/themes/default/../../../../src/core/../misc/lv_style.h **** lv_style_value_t lv_style_prop_get_default(lv_style_prop_t prop);
 407:lvgl/src/extra/themes/default/../../../../src/core/../misc/lv_style.h **** 
 408:lvgl/src/extra/themes/default/../../../../src/core/../misc/lv_style.h **** /**
 409:lvgl/src/extra/themes/default/../../../../src/core/../misc/lv_style.h ****  * Checks if a style is empty (has no properties)
 410:lvgl/src/extra/themes/default/../../../../src/core/../misc/lv_style.h ****  * @param style pointer to a style
 411:lvgl/src/extra/themes/default/../../../../src/core/../misc/lv_style.h ****  * @return
 412:lvgl/src/extra/themes/default/../../../../src/core/../misc/lv_style.h ****  */
 413:lvgl/src/extra/themes/default/../../../../src/core/../misc/lv_style.h **** bool lv_style_is_empty(const lv_style_t * style);
 414:lvgl/src/extra/themes/default/../../../../src/core/../misc/lv_style.h **** 
 415:lvgl/src/extra/themes/default/../../../../src/core/../misc/lv_style.h **** /**
 416:lvgl/src/extra/themes/default/../../../../src/core/../misc/lv_style.h ****  * Tell the group of a property. If the a property from a group is set in a style the (1 << group) 
 417:lvgl/src/extra/themes/default/../../../../src/core/../misc/lv_style.h ****  * It allows early skipping the style if the property is not exists in the style at all.
 418:lvgl/src/extra/themes/default/../../../../src/core/../misc/lv_style.h ****  * @param prop a style property
 419:lvgl/src/extra/themes/default/../../../../src/core/../misc/lv_style.h ****  * @return the group [0..7] 7 means all the custom properties with index > 112
 420:lvgl/src/extra/themes/default/../../../../src/core/../misc/lv_style.h ****  */
 421:lvgl/src/extra/themes/default/../../../../src/core/../misc/lv_style.h **** uint8_t _lv_style_get_prop_group(lv_style_prop_t prop);
 422:lvgl/src/extra/themes/default/../../../../src/core/../misc/lv_style.h **** 
 423:lvgl/src/extra/themes/default/../../../../src/core/../misc/lv_style.h **** #include "lv_style_gen.h"
 424:lvgl/src/extra/themes/default/../../../../src/core/../misc/lv_style.h **** 
 425:lvgl/src/extra/themes/default/../../../../src/core/../misc/lv_style.h **** static inline void lv_style_set_pad_all(lv_style_t * style, lv_coord_t value) {
 426:lvgl/src/extra/themes/default/../../../../src/core/../misc/lv_style.h ****     lv_style_set_pad_left(style, value);
 427:lvgl/src/extra/themes/default/../../../../src/core/../misc/lv_style.h ****     lv_style_set_pad_right(style, value);
 428:lvgl/src/extra/themes/default/../../../../src/core/../misc/lv_style.h ****     lv_style_set_pad_top(style, value);
 429:lvgl/src/extra/themes/default/../../../../src/core/../misc/lv_style.h ****     lv_style_set_pad_bottom(style, value);
 430:lvgl/src/extra/themes/default/../../../../src/core/../misc/lv_style.h **** }
 431:lvgl/src/extra/themes/default/../../../../src/core/../misc/lv_style.h **** 
 432:lvgl/src/extra/themes/default/../../../../src/core/../misc/lv_style.h **** static inline void lv_style_set_pad_hor(lv_style_t * style, lv_coord_t value) {
 433:lvgl/src/extra/themes/default/../../../../src/core/../misc/lv_style.h ****     lv_style_set_pad_left(style, value);
ARM GAS  /var/folders/k2/cd9bl_j17z77g23y6ffqb_400000gn/T//ccRoPncs.s 			page 110


 434:lvgl/src/extra/themes/default/../../../../src/core/../misc/lv_style.h ****     lv_style_set_pad_right(style, value);
 435:lvgl/src/extra/themes/default/../../../../src/core/../misc/lv_style.h **** }
 436:lvgl/src/extra/themes/default/../../../../src/core/../misc/lv_style.h **** 
 437:lvgl/src/extra/themes/default/../../../../src/core/../misc/lv_style.h **** static inline void lv_style_set_pad_ver(lv_style_t * style, lv_coord_t value) {
 438:lvgl/src/extra/themes/default/../../../../src/core/../misc/lv_style.h ****     lv_style_set_pad_top(style, value);
 439:lvgl/src/extra/themes/default/../../../../src/core/../misc/lv_style.h ****     lv_style_set_pad_bottom(style, value);
 440:lvgl/src/extra/themes/default/../../../../src/core/../misc/lv_style.h **** }
 441:lvgl/src/extra/themes/default/../../../../src/core/../misc/lv_style.h **** 
 442:lvgl/src/extra/themes/default/../../../../src/core/../misc/lv_style.h **** static inline void lv_style_set_pad_gap(lv_style_t * style, lv_coord_t value) {
 443:lvgl/src/extra/themes/default/../../../../src/core/../misc/lv_style.h ****     lv_style_set_pad_row(style, value);
 444:lvgl/src/extra/themes/default/../../../../src/core/../misc/lv_style.h ****     lv_style_set_pad_column(style, value);
 445:lvgl/src/extra/themes/default/../../../../src/core/../misc/lv_style.h **** }
 446:lvgl/src/extra/themes/default/../../../../src/core/../misc/lv_style.h **** 
 447:lvgl/src/extra/themes/default/../../../../src/core/../misc/lv_style.h **** static inline void lv_style_set_size(lv_style_t * style, lv_coord_t value) {
 3087              		.loc 4 447 20 is_stmt 1 view .LVU909
 3088              	.LBB403:
 448:lvgl/src/extra/themes/default/../../../../src/core/../misc/lv_style.h ****     lv_style_set_width(style, value);
 3089              		.loc 4 448 5 view .LVU910
 3090 0178 2146     		mov	r1, r4
 3091 017a 2846     		mov	r0, r5
 3092 017c FFF7FEFF 		bl	lv_style_set_width
 3093              	.LVL317:
 449:lvgl/src/extra/themes/default/../../../../src/core/../misc/lv_style.h ****     lv_style_set_height(style, value);
 3094              		.loc 4 449 5 view .LVU911
 3095 0180 2146     		mov	r1, r4
 3096 0182 2846     		mov	r0, r5
 3097 0184 FFF7FEFF 		bl	lv_style_set_height
 3098              	.LVL318:
 3099              		.loc 4 449 5 is_stmt 0 view .LVU912
 3100              	.LBE403:
 3101              	.LBE402:
 233:lvgl/src/extra/themes/default/lv_theme_default.c ****     lv_style_set_transition(&styles->scrollbar, &trans_normal);
 3102              		.loc 1 233 5 is_stmt 1 view .LVU913
 233:lvgl/src/extra/themes/default/lv_theme_default.c ****     lv_style_set_transition(&styles->scrollbar, &trans_normal);
 3103              		.loc 1 233 32 is_stmt 0 view .LVU914
 3104 0188 694C     		ldr	r4, .L570+32
 3105 018a 2068     		ldr	r0, [r4]
 233:lvgl/src/extra/themes/default/lv_theme_default.c ****     lv_style_set_transition(&styles->scrollbar, &trans_normal);
 3106              		.loc 1 233 5 view .LVU915
 3107 018c 6621     		movs	r1, #102
 3108 018e 0830     		adds	r0, r0, #8
 3109 0190 FFF7FEFF 		bl	lv_style_set_bg_opa
 3110              	.LVL319:
 234:lvgl/src/extra/themes/default/lv_theme_default.c **** 
 3111              		.loc 1 234 5 is_stmt 1 view .LVU916
 234:lvgl/src/extra/themes/default/lv_theme_default.c **** 
 3112              		.loc 1 234 36 is_stmt 0 view .LVU917
 3113 0194 2068     		ldr	r0, [r4]
 234:lvgl/src/extra/themes/default/lv_theme_default.c **** 
 3114              		.loc 1 234 5 view .LVU918
 3115 0196 6549     		ldr	r1, .L570+28
 3116 0198 0830     		adds	r0, r0, #8
 3117 019a FFF7FEFF 		bl	lv_style_set_transition
 3118              	.LVL320:
 236:lvgl/src/extra/themes/default/lv_theme_default.c ****     lv_style_set_bg_opa(&styles->scrollbar_scrolled,  LV_OPA_COVER);
 3119              		.loc 1 236 5 is_stmt 1 view .LVU919
 236:lvgl/src/extra/themes/default/lv_theme_default.c ****     lv_style_set_bg_opa(&styles->scrollbar_scrolled,  LV_OPA_COVER);
ARM GAS  /var/folders/k2/cd9bl_j17z77g23y6ffqb_400000gn/T//ccRoPncs.s 			page 111


 3120              		.loc 1 236 29 is_stmt 0 view .LVU920
 3121 019e 2068     		ldr	r0, [r4]
 236:lvgl/src/extra/themes/default/lv_theme_default.c ****     lv_style_set_bg_opa(&styles->scrollbar_scrolled,  LV_OPA_COVER);
 3122              		.loc 1 236 5 view .LVU921
 3123 01a0 1030     		adds	r0, r0, #16
 3124 01a2 FFF7FEFF 		bl	style_init_reset
 3125              	.LVL321:
 237:lvgl/src/extra/themes/default/lv_theme_default.c **** 
 3126              		.loc 1 237 5 is_stmt 1 view .LVU922
 237:lvgl/src/extra/themes/default/lv_theme_default.c **** 
 3127              		.loc 1 237 32 is_stmt 0 view .LVU923
 3128 01a6 2068     		ldr	r0, [r4]
 237:lvgl/src/extra/themes/default/lv_theme_default.c **** 
 3129              		.loc 1 237 5 view .LVU924
 3130 01a8 FF21     		movs	r1, #255
 3131 01aa 1030     		adds	r0, r0, #16
 3132 01ac FFF7FEFF 		bl	lv_style_set_bg_opa
 3133              	.LVL322:
 239:lvgl/src/extra/themes/default/lv_theme_default.c ****     lv_style_set_bg_opa(&styles->scr, LV_OPA_COVER);
 3134              		.loc 1 239 5 is_stmt 1 view .LVU925
 3135 01b0 2068     		ldr	r0, [r4]
 3136 01b2 FFF7FEFF 		bl	style_init_reset
 3137              	.LVL323:
 240:lvgl/src/extra/themes/default/lv_theme_default.c ****     lv_style_set_bg_color(&styles->scr, color_scr);
 3138              		.loc 1 240 5 view .LVU926
 3139 01b6 FF21     		movs	r1, #255
 3140 01b8 2068     		ldr	r0, [r4]
 3141 01ba FFF7FEFF 		bl	lv_style_set_bg_opa
 3142              	.LVL324:
 241:lvgl/src/extra/themes/default/lv_theme_default.c ****     lv_style_set_text_color(&styles->scr, color_text);
 3143              		.loc 1 241 5 view .LVU927
 3144 01be 554B     		ldr	r3, .L570+4
 3145 01c0 1968     		ldr	r1, [r3]
 3146 01c2 2068     		ldr	r0, [r4]
 3147 01c4 FFF7FEFF 		bl	lv_style_set_bg_color
 3148              	.LVL325:
 242:lvgl/src/extra/themes/default/lv_theme_default.c ****     lv_style_set_pad_row(&styles->scr, PAD_SMALL);
 3149              		.loc 1 242 5 view .LVU928
 3150 01c8 534B     		ldr	r3, .L570+8
 3151 01ca 1968     		ldr	r1, [r3]
 3152 01cc 2068     		ldr	r0, [r4]
 3153 01ce FFF7FEFF 		bl	lv_style_set_text_color
 3154              	.LVL326:
 243:lvgl/src/extra/themes/default/lv_theme_default.c ****     lv_style_set_pad_column(&styles->scr, PAD_SMALL);
 3155              		.loc 1 243 5 view .LVU929
 243:lvgl/src/extra/themes/default/lv_theme_default.c ****     lv_style_set_pad_column(&styles->scr, PAD_SMALL);
 3156              		.loc 1 243 33 is_stmt 0 view .LVU930
 3157 01d2 2468     		ldr	r4, [r4]
 243:lvgl/src/extra/themes/default/lv_theme_default.c ****     lv_style_set_pad_column(&styles->scr, PAD_SMALL);
 3158              		.loc 1 243 40 view .LVU931
 3159 01d4 574B     		ldr	r3, .L570+36
 3160 01d6 1B78     		ldrb	r3, [r3]	@ zero_extendqisi2
 243:lvgl/src/extra/themes/default/lv_theme_default.c ****     lv_style_set_pad_column(&styles->scr, PAD_SMALL);
 3161              		.loc 1 243 5 view .LVU932
 3162 01d8 012B     		cmp	r3, #1
 3163 01da 01F0E381 		beq	.L405
 243:lvgl/src/extra/themes/default/lv_theme_default.c ****     lv_style_set_pad_column(&styles->scr, PAD_SMALL);
ARM GAS  /var/folders/k2/cd9bl_j17z77g23y6ffqb_400000gn/T//ccRoPncs.s 			page 112


 3164              		.loc 1 243 5 discriminator 2 view .LVU933
 3165 01de 022B     		cmp	r3, #2
 3166 01e0 01F0FD81 		beq	.L406
 243:lvgl/src/extra/themes/default/lv_theme_default.c ****     lv_style_set_pad_column(&styles->scr, PAD_SMALL);
 3167              		.loc 1 243 40 discriminator 5 view .LVU934
 3168 01e4 4A4B     		ldr	r3, .L570
 3169 01e6 DD68     		ldr	r5, [r3, #12]
 3170              	.LVL327:
 3171              	.LBB404:
 3172              	.LBI404:
 236:lvgl/src/extra/themes/default/../../../../src/core/lv_disp.h **** {
 3173              		.loc 3 236 26 is_stmt 1 discriminator 5 view .LVU935
 3174              	.LBB405:
 3175              		.loc 3 238 5 discriminator 5 view .LVU936
 3176              		.loc 3 238 12 is_stmt 0 discriminator 5 view .LVU937
 3177 01e8 2846     		mov	r0, r5
 3178 01ea FFF7FEFF 		bl	lv_disp_get_dpi
 3179              	.LVL328:
 3180 01ee 00EB8000 		add	r0, r0, r0, lsl #2
 3181 01f2 4000     		lsls	r0, r0, #1
 3182 01f4 EF28     		cmp	r0, #239
 3183 01f6 01F30F82 		bgt	.L407
 3184              		.loc 3 238 12 view .LVU938
 3185 01fa 0121     		movs	r1, #1
 3186              	.LVL329:
 3187              	.L93:
 3188              		.loc 3 238 12 view .LVU939
 3189              	.LBE405:
 3190              	.LBE404:
 243:lvgl/src/extra/themes/default/lv_theme_default.c ****     lv_style_set_pad_column(&styles->scr, PAD_SMALL);
 3191              		.loc 1 243 5 discriminator 8 view .LVU940
 3192 01fc 2046     		mov	r0, r4
 3193 01fe FFF7FEFF 		bl	lv_style_set_pad_row
 3194              	.LVL330:
 244:lvgl/src/extra/themes/default/lv_theme_default.c **** 
 3195              		.loc 1 244 5 is_stmt 1 discriminator 8 view .LVU941
 244:lvgl/src/extra/themes/default/lv_theme_default.c **** 
 3196              		.loc 1 244 36 is_stmt 0 discriminator 8 view .LVU942
 3197 0202 4B4B     		ldr	r3, .L570+32
 3198 0204 1C68     		ldr	r4, [r3]
 244:lvgl/src/extra/themes/default/lv_theme_default.c **** 
 3199              		.loc 1 244 43 discriminator 8 view .LVU943
 3200 0206 4B4B     		ldr	r3, .L570+36
 3201 0208 1B78     		ldrb	r3, [r3]	@ zero_extendqisi2
 244:lvgl/src/extra/themes/default/lv_theme_default.c **** 
 3202              		.loc 1 244 5 discriminator 8 view .LVU944
 3203 020a 012B     		cmp	r3, #1
 3204 020c 01F01482 		beq	.L408
 244:lvgl/src/extra/themes/default/lv_theme_default.c **** 
 3205              		.loc 1 244 5 discriminator 2 view .LVU945
 3206 0210 022B     		cmp	r3, #2
 3207 0212 01F02E82 		beq	.L409
 244:lvgl/src/extra/themes/default/lv_theme_default.c **** 
 3208              		.loc 1 244 43 discriminator 5 view .LVU946
 3209 0216 3E4B     		ldr	r3, .L570
 3210 0218 DD68     		ldr	r5, [r3, #12]
 3211              	.LVL331:
ARM GAS  /var/folders/k2/cd9bl_j17z77g23y6ffqb_400000gn/T//ccRoPncs.s 			page 113


 3212              	.LBB407:
 3213              	.LBI407:
 236:lvgl/src/extra/themes/default/../../../../src/core/lv_disp.h **** {
 3214              		.loc 3 236 26 is_stmt 1 discriminator 5 view .LVU947
 3215              	.LBB408:
 3216              		.loc 3 238 5 discriminator 5 view .LVU948
 3217              		.loc 3 238 12 is_stmt 0 discriminator 5 view .LVU949
 3218 021a 2846     		mov	r0, r5
 3219 021c FFF7FEFF 		bl	lv_disp_get_dpi
 3220              	.LVL332:
 3221 0220 00EB8000 		add	r0, r0, r0, lsl #2
 3222 0224 4000     		lsls	r0, r0, #1
 3223 0226 EF28     		cmp	r0, #239
 3224 0228 01F35082 		bgt	.L410
 3225              		.loc 3 238 12 view .LVU950
 3226 022c 0121     		movs	r1, #1
 3227              	.LVL333:
 3228              	.L99:
 3229              		.loc 3 238 12 view .LVU951
 3230              	.LBE408:
 3231              	.LBE407:
 244:lvgl/src/extra/themes/default/lv_theme_default.c **** 
 3232              		.loc 1 244 5 discriminator 8 view .LVU952
 3233 022e 2046     		mov	r0, r4
 3234 0230 FFF7FEFF 		bl	lv_style_set_pad_column
 3235              	.LVL334:
 246:lvgl/src/extra/themes/default/lv_theme_default.c ****     lv_style_set_radius(&styles->card, RADIUS_DEFAULT);
 3236              		.loc 1 246 5 is_stmt 1 discriminator 8 view .LVU953
 246:lvgl/src/extra/themes/default/lv_theme_default.c ****     lv_style_set_radius(&styles->card, RADIUS_DEFAULT);
 3237              		.loc 1 246 29 is_stmt 0 discriminator 8 view .LVU954
 3238 0234 3E4C     		ldr	r4, .L570+32
 3239 0236 2068     		ldr	r0, [r4]
 246:lvgl/src/extra/themes/default/lv_theme_default.c ****     lv_style_set_radius(&styles->card, RADIUS_DEFAULT);
 3240              		.loc 1 246 5 discriminator 8 view .LVU955
 3241 0238 1830     		adds	r0, r0, #24
 3242 023a FFF7FEFF 		bl	style_init_reset
 3243              	.LVL335:
 247:lvgl/src/extra/themes/default/lv_theme_default.c ****     lv_style_set_bg_opa(&styles->card, LV_OPA_COVER);
 3244              		.loc 1 247 5 is_stmt 1 discriminator 8 view .LVU956
 247:lvgl/src/extra/themes/default/lv_theme_default.c ****     lv_style_set_bg_opa(&styles->card, LV_OPA_COVER);
 3245              		.loc 1 247 32 is_stmt 0 discriminator 8 view .LVU957
 3246 023e 2468     		ldr	r4, [r4]
 247:lvgl/src/extra/themes/default/lv_theme_default.c ****     lv_style_set_bg_opa(&styles->card, LV_OPA_COVER);
 3247              		.loc 1 247 5 discriminator 8 view .LVU958
 3248 0240 1834     		adds	r4, r4, #24
 247:lvgl/src/extra/themes/default/lv_theme_default.c ****     lv_style_set_bg_opa(&styles->card, LV_OPA_COVER);
 3249              		.loc 1 247 40 discriminator 8 view .LVU959
 3250 0242 3C4B     		ldr	r3, .L570+36
 3251 0244 1B78     		ldrb	r3, [r3]	@ zero_extendqisi2
 247:lvgl/src/extra/themes/default/lv_theme_default.c ****     lv_style_set_bg_opa(&styles->card, LV_OPA_COVER);
 3252              		.loc 1 247 5 discriminator 8 view .LVU960
 3253 0246 012B     		cmp	r3, #1
 3254 0248 01F05082 		beq	.L411
 247:lvgl/src/extra/themes/default/lv_theme_default.c ****     lv_style_set_bg_opa(&styles->card, LV_OPA_COVER);
 3255              		.loc 1 247 40 discriminator 2 view .LVU961
 3256 024c 304B     		ldr	r3, .L570
 3257 024e DD68     		ldr	r5, [r3, #12]
ARM GAS  /var/folders/k2/cd9bl_j17z77g23y6ffqb_400000gn/T//ccRoPncs.s 			page 114


 3258              	.LVL336:
 3259              	.LBB410:
 3260              	.LBI410:
 236:lvgl/src/extra/themes/default/../../../../src/core/lv_disp.h **** {
 3261              		.loc 3 236 26 is_stmt 1 discriminator 2 view .LVU962
 3262              	.LBB411:
 3263              		.loc 3 238 5 discriminator 2 view .LVU963
 3264              		.loc 3 238 12 is_stmt 0 discriminator 2 view .LVU964
 3265 0250 2846     		mov	r0, r5
 3266 0252 FFF7FEFF 		bl	lv_disp_get_dpi
 3267              	.LVL337:
 3268 0256 C000     		lsls	r0, r0, #3
 3269 0258 EF28     		cmp	r0, #239
 3270 025a 01F36482 		bgt	.L412
 3271              		.loc 3 238 12 view .LVU965
 3272 025e 0121     		movs	r1, #1
 3273              	.LVL338:
 3274              	.L105:
 3275              		.loc 3 238 12 view .LVU966
 3276              	.LBE411:
 3277              	.LBE410:
 247:lvgl/src/extra/themes/default/lv_theme_default.c ****     lv_style_set_bg_opa(&styles->card, LV_OPA_COVER);
 3278              		.loc 1 247 5 discriminator 4 view .LVU967
 3279 0260 2046     		mov	r0, r4
 3280 0262 FFF7FEFF 		bl	lv_style_set_radius
 3281              	.LVL339:
 248:lvgl/src/extra/themes/default/lv_theme_default.c ****     lv_style_set_bg_color(&styles->card, color_card);
 3282              		.loc 1 248 5 is_stmt 1 discriminator 4 view .LVU968
 248:lvgl/src/extra/themes/default/lv_theme_default.c ****     lv_style_set_bg_color(&styles->card, color_card);
 3283              		.loc 1 248 32 is_stmt 0 discriminator 4 view .LVU969
 3284 0266 324C     		ldr	r4, .L570+32
 3285 0268 2068     		ldr	r0, [r4]
 248:lvgl/src/extra/themes/default/lv_theme_default.c ****     lv_style_set_bg_color(&styles->card, color_card);
 3286              		.loc 1 248 5 discriminator 4 view .LVU970
 3287 026a FF21     		movs	r1, #255
 3288 026c 1830     		adds	r0, r0, #24
 3289 026e FFF7FEFF 		bl	lv_style_set_bg_opa
 3290              	.LVL340:
 249:lvgl/src/extra/themes/default/lv_theme_default.c ****     lv_style_set_border_color(&styles->card, color_grey);
 3291              		.loc 1 249 5 is_stmt 1 discriminator 4 view .LVU971
 249:lvgl/src/extra/themes/default/lv_theme_default.c ****     lv_style_set_border_color(&styles->card, color_grey);
 3292              		.loc 1 249 34 is_stmt 0 discriminator 4 view .LVU972
 3293 0272 2068     		ldr	r0, [r4]
 249:lvgl/src/extra/themes/default/lv_theme_default.c ****     lv_style_set_border_color(&styles->card, color_grey);
 3294              		.loc 1 249 5 discriminator 4 view .LVU973
 3295 0274 294B     		ldr	r3, .L570+12
 3296 0276 1968     		ldr	r1, [r3]
 3297 0278 1830     		adds	r0, r0, #24
 3298 027a FFF7FEFF 		bl	lv_style_set_bg_color
 3299              	.LVL341:
 250:lvgl/src/extra/themes/default/lv_theme_default.c ****     lv_style_set_border_width(&styles->card, BORDER_WIDTH);
 3300              		.loc 1 250 5 is_stmt 1 discriminator 4 view .LVU974
 250:lvgl/src/extra/themes/default/lv_theme_default.c ****     lv_style_set_border_width(&styles->card, BORDER_WIDTH);
 3301              		.loc 1 250 38 is_stmt 0 discriminator 4 view .LVU975
 3302 027e 2068     		ldr	r0, [r4]
 250:lvgl/src/extra/themes/default/lv_theme_default.c ****     lv_style_set_border_width(&styles->card, BORDER_WIDTH);
 3303              		.loc 1 250 5 discriminator 4 view .LVU976
ARM GAS  /var/folders/k2/cd9bl_j17z77g23y6ffqb_400000gn/T//ccRoPncs.s 			page 115


 3304 0280 274B     		ldr	r3, .L570+16
 3305 0282 1968     		ldr	r1, [r3]
 3306 0284 1830     		adds	r0, r0, #24
 3307 0286 FFF7FEFF 		bl	lv_style_set_border_color
 3308              	.LVL342:
 251:lvgl/src/extra/themes/default/lv_theme_default.c ****     lv_style_set_border_post(&styles->card, true);
 3309              		.loc 1 251 5 is_stmt 1 discriminator 4 view .LVU977
 251:lvgl/src/extra/themes/default/lv_theme_default.c ****     lv_style_set_border_post(&styles->card, true);
 3310              		.loc 1 251 38 is_stmt 0 discriminator 4 view .LVU978
 3311 028a 2468     		ldr	r4, [r4]
 251:lvgl/src/extra/themes/default/lv_theme_default.c ****     lv_style_set_border_post(&styles->card, true);
 3312              		.loc 1 251 5 discriminator 4 view .LVU979
 3313 028c 1834     		adds	r4, r4, #24
 251:lvgl/src/extra/themes/default/lv_theme_default.c ****     lv_style_set_border_post(&styles->card, true);
 3314              		.loc 1 251 46 discriminator 4 view .LVU980
 3315 028e 204B     		ldr	r3, .L570
 3316 0290 DD68     		ldr	r5, [r3, #12]
 3317              	.LVL343:
 3318              	.LBB413:
 3319              	.LBI413:
 236:lvgl/src/extra/themes/default/../../../../src/core/lv_disp.h **** {
 3320              		.loc 3 236 26 is_stmt 1 discriminator 4 view .LVU981
 3321              	.LBB414:
 3322              		.loc 3 238 5 discriminator 4 view .LVU982
 3323              		.loc 3 238 12 is_stmt 0 discriminator 4 view .LVU983
 3324 0292 2846     		mov	r0, r5
 3325 0294 FFF7FEFF 		bl	lv_disp_get_dpi
 3326              	.LVL344:
 3327 0298 4000     		lsls	r0, r0, #1
 3328 029a EF28     		cmp	r0, #239
 3329 029c 01F35182 		bgt	.L413
 3330              		.loc 3 238 12 view .LVU984
 3331 02a0 0121     		movs	r1, #1
 3332              	.L107:
 3333              	.LVL345:
 3334              		.loc 3 238 12 view .LVU985
 3335              	.LBE414:
 3336              	.LBE413:
 251:lvgl/src/extra/themes/default/lv_theme_default.c ****     lv_style_set_border_post(&styles->card, true);
 3337              		.loc 1 251 5 view .LVU986
 3338 02a2 2046     		mov	r0, r4
 3339 02a4 FFF7FEFF 		bl	lv_style_set_border_width
 3340              	.LVL346:
 252:lvgl/src/extra/themes/default/lv_theme_default.c ****     lv_style_set_text_color(&styles->card, color_text);
 3341              		.loc 1 252 5 is_stmt 1 view .LVU987
 252:lvgl/src/extra/themes/default/lv_theme_default.c ****     lv_style_set_text_color(&styles->card, color_text);
 3342              		.loc 1 252 37 is_stmt 0 view .LVU988
 3343 02a8 214C     		ldr	r4, .L570+32
 3344 02aa 2068     		ldr	r0, [r4]
 252:lvgl/src/extra/themes/default/lv_theme_default.c ****     lv_style_set_text_color(&styles->card, color_text);
 3345              		.loc 1 252 5 view .LVU989
 3346 02ac 0121     		movs	r1, #1
 3347 02ae 1830     		adds	r0, r0, #24
 3348 02b0 FFF7FEFF 		bl	lv_style_set_border_post
 3349              	.LVL347:
 253:lvgl/src/extra/themes/default/lv_theme_default.c ****     lv_style_set_pad_all(&styles->card, PAD_DEF);
 3350              		.loc 1 253 5 is_stmt 1 view .LVU990
ARM GAS  /var/folders/k2/cd9bl_j17z77g23y6ffqb_400000gn/T//ccRoPncs.s 			page 116


 253:lvgl/src/extra/themes/default/lv_theme_default.c ****     lv_style_set_pad_all(&styles->card, PAD_DEF);
 3351              		.loc 1 253 36 is_stmt 0 view .LVU991
 3352 02b4 2068     		ldr	r0, [r4]
 253:lvgl/src/extra/themes/default/lv_theme_default.c ****     lv_style_set_pad_all(&styles->card, PAD_DEF);
 3353              		.loc 1 253 5 view .LVU992
 3354 02b6 184B     		ldr	r3, .L570+8
 3355 02b8 1968     		ldr	r1, [r3]
 3356 02ba 1830     		adds	r0, r0, #24
 3357 02bc FFF7FEFF 		bl	lv_style_set_text_color
 3358              	.LVL348:
 254:lvgl/src/extra/themes/default/lv_theme_default.c ****     lv_style_set_pad_row(&styles->card, PAD_SMALL);
 3359              		.loc 1 254 5 is_stmt 1 view .LVU993
 254:lvgl/src/extra/themes/default/lv_theme_default.c ****     lv_style_set_pad_row(&styles->card, PAD_SMALL);
 3360              		.loc 1 254 33 is_stmt 0 view .LVU994
 3361 02c0 2568     		ldr	r5, [r4]
 254:lvgl/src/extra/themes/default/lv_theme_default.c ****     lv_style_set_pad_row(&styles->card, PAD_SMALL);
 3362              		.loc 1 254 5 view .LVU995
 3363 02c2 1835     		adds	r5, r5, #24
 254:lvgl/src/extra/themes/default/lv_theme_default.c ****     lv_style_set_pad_row(&styles->card, PAD_SMALL);
 3364              		.loc 1 254 41 view .LVU996
 3365 02c4 1B4B     		ldr	r3, .L570+36
 3366 02c6 1B78     		ldrb	r3, [r3]	@ zero_extendqisi2
 254:lvgl/src/extra/themes/default/lv_theme_default.c ****     lv_style_set_pad_row(&styles->card, PAD_SMALL);
 3367              		.loc 1 254 5 view .LVU997
 3368 02c8 012B     		cmp	r3, #1
 3369 02ca 01F04882 		beq	.L414
 254:lvgl/src/extra/themes/default/lv_theme_default.c ****     lv_style_set_pad_row(&styles->card, PAD_SMALL);
 3370              		.loc 1 254 5 discriminator 2 view .LVU998
 3371 02ce 022B     		cmp	r3, #2
 3372 02d0 01F06282 		beq	.L415
 254:lvgl/src/extra/themes/default/lv_theme_default.c ****     lv_style_set_pad_row(&styles->card, PAD_SMALL);
 3373              		.loc 1 254 41 discriminator 5 view .LVU999
 3374 02d4 0E4B     		ldr	r3, .L570
 3375 02d6 DC68     		ldr	r4, [r3, #12]
 3376              	.LVL349:
 3377              	.LBB416:
 3378              	.LBI416:
 236:lvgl/src/extra/themes/default/../../../../src/core/lv_disp.h **** {
 3379              		.loc 3 236 26 is_stmt 1 discriminator 5 view .LVU1000
 3380              	.LBB417:
 3381              		.loc 3 238 5 discriminator 5 view .LVU1001
 3382              		.loc 3 238 12 is_stmt 0 discriminator 5 view .LVU1002
 3383 02d8 2046     		mov	r0, r4
 3384 02da FFF7FEFF 		bl	lv_disp_get_dpi
 3385              	.LVL350:
 3386 02de 0001     		lsls	r0, r0, #4
 3387 02e0 EF28     		cmp	r0, #239
 3388 02e2 01F37682 		bgt	.L416
 3389              		.loc 3 238 12 view .LVU1003
 3390 02e6 0124     		movs	r4, #1
 3391              	.LVL351:
 3392              	.L110:
 3393              		.loc 3 238 12 view .LVU1004
 3394              	.LBE417:
 3395              	.LBE416:
 3396              	.LBB419:
 3397              	.LBI419:
ARM GAS  /var/folders/k2/cd9bl_j17z77g23y6ffqb_400000gn/T//ccRoPncs.s 			page 117


 425:lvgl/src/extra/themes/default/../../../../src/core/../misc/lv_style.h ****     lv_style_set_pad_left(style, value);
 3398              		.loc 4 425 20 is_stmt 1 discriminator 8 view .LVU1005
 3399              	.LBB420:
 426:lvgl/src/extra/themes/default/../../../../src/core/../misc/lv_style.h ****     lv_style_set_pad_right(style, value);
 3400              		.loc 4 426 5 discriminator 8 view .LVU1006
 3401 02e8 2146     		mov	r1, r4
 3402 02ea 2846     		mov	r0, r5
 3403 02ec FFF7FEFF 		bl	lv_style_set_pad_left
 3404              	.LVL352:
 427:lvgl/src/extra/themes/default/../../../../src/core/../misc/lv_style.h ****     lv_style_set_pad_top(style, value);
 3405              		.loc 4 427 5 discriminator 8 view .LVU1007
 3406 02f0 2146     		mov	r1, r4
 3407 02f2 2846     		mov	r0, r5
 3408 02f4 FFF7FEFF 		bl	lv_style_set_pad_right
 3409              	.LVL353:
 428:lvgl/src/extra/themes/default/../../../../src/core/../misc/lv_style.h ****     lv_style_set_pad_bottom(style, value);
 3410              		.loc 4 428 5 discriminator 8 view .LVU1008
 3411 02f8 2146     		mov	r1, r4
 3412 02fa 2846     		mov	r0, r5
 3413 02fc FFF7FEFF 		bl	lv_style_set_pad_top
 3414              	.LVL354:
 429:lvgl/src/extra/themes/default/../../../../src/core/../misc/lv_style.h **** }
 3415              		.loc 4 429 5 discriminator 8 view .LVU1009
 3416 0300 2146     		mov	r1, r4
 3417 0302 2846     		mov	r0, r5
 3418 0304 FFF7FEFF 		bl	lv_style_set_pad_bottom
 3419              	.LVL355:
 429:lvgl/src/extra/themes/default/../../../../src/core/../misc/lv_style.h **** }
 3420              		.loc 4 429 5 is_stmt 0 discriminator 8 view .LVU1010
 3421              	.LBE420:
 3422              	.LBE419:
 255:lvgl/src/extra/themes/default/lv_theme_default.c ****     lv_style_set_pad_column(&styles->card, PAD_SMALL);
 3423              		.loc 1 255 5 is_stmt 1 discriminator 8 view .LVU1011
 255:lvgl/src/extra/themes/default/lv_theme_default.c ****     lv_style_set_pad_column(&styles->card, PAD_SMALL);
 3424              		.loc 1 255 33 is_stmt 0 discriminator 8 view .LVU1012
 3425 0308 094B     		ldr	r3, .L570+32
 3426 030a 1C68     		ldr	r4, [r3]
 255:lvgl/src/extra/themes/default/lv_theme_default.c ****     lv_style_set_pad_column(&styles->card, PAD_SMALL);
 3427              		.loc 1 255 5 discriminator 8 view .LVU1013
 3428 030c 1834     		adds	r4, r4, #24
 3429 030e 15E0     		b	.L571
 3430              	.L572:
 3431              		.align	2
 3432              	.L570:
 3433 0310 00000000 		.word	.LANCHOR3
 3434 0314 00000000 		.word	.LANCHOR4
 3435 0318 00000000 		.word	.LANCHOR5
 3436 031c 00000000 		.word	.LANCHOR6
 3437 0320 00000000 		.word	.LANCHOR7
 3438 0324 00000000 		.word	.LANCHOR8
 3439 0328 00000000 		.word	.LANCHOR9
 3440 032c 00000000 		.word	.LANCHOR10
 3441 0330 00000000 		.word	.LANCHOR0
 3442 0334 00000000 		.word	.LANCHOR1
 3443 0338 00000000 		.word	lv_anim_path_linear
 3444              	.L571:
 255:lvgl/src/extra/themes/default/lv_theme_default.c ****     lv_style_set_pad_column(&styles->card, PAD_SMALL);
ARM GAS  /var/folders/k2/cd9bl_j17z77g23y6ffqb_400000gn/T//ccRoPncs.s 			page 118


 3445              		.loc 1 255 41 discriminator 8 view .LVU1014
 3446 033c C04B     		ldr	r3, .L573
 3447 033e 1B78     		ldrb	r3, [r3]	@ zero_extendqisi2
 255:lvgl/src/extra/themes/default/lv_theme_default.c ****     lv_style_set_pad_column(&styles->card, PAD_SMALL);
 3448              		.loc 1 255 5 discriminator 8 view .LVU1015
 3449 0340 012B     		cmp	r3, #1
 3450 0342 01F05482 		beq	.L417
 255:lvgl/src/extra/themes/default/lv_theme_default.c ****     lv_style_set_pad_column(&styles->card, PAD_SMALL);
 3451              		.loc 1 255 5 discriminator 2 view .LVU1016
 3452 0346 022B     		cmp	r3, #2
 3453 0348 01F06E82 		beq	.L418
 255:lvgl/src/extra/themes/default/lv_theme_default.c ****     lv_style_set_pad_column(&styles->card, PAD_SMALL);
 3454              		.loc 1 255 41 discriminator 5 view .LVU1017
 3455 034c BD4B     		ldr	r3, .L573+4
 3456 034e DD68     		ldr	r5, [r3, #12]
 3457              	.LVL356:
 3458              	.LBB421:
 3459              	.LBI421:
 236:lvgl/src/extra/themes/default/../../../../src/core/lv_disp.h **** {
 3460              		.loc 3 236 26 is_stmt 1 discriminator 5 view .LVU1018
 3461              	.LBB422:
 3462              		.loc 3 238 5 discriminator 5 view .LVU1019
 3463              		.loc 3 238 12 is_stmt 0 discriminator 5 view .LVU1020
 3464 0350 2846     		mov	r0, r5
 3465 0352 FFF7FEFF 		bl	lv_disp_get_dpi
 3466              	.LVL357:
 3467 0356 00EB8000 		add	r0, r0, r0, lsl #2
 3468 035a 4000     		lsls	r0, r0, #1
 3469 035c EF28     		cmp	r0, #239
 3470 035e 01F38082 		bgt	.L419
 3471              		.loc 3 238 12 view .LVU1021
 3472 0362 0121     		movs	r1, #1
 3473              	.LVL358:
 3474              	.L116:
 3475              		.loc 3 238 12 view .LVU1022
 3476              	.LBE422:
 3477              	.LBE421:
 255:lvgl/src/extra/themes/default/lv_theme_default.c ****     lv_style_set_pad_column(&styles->card, PAD_SMALL);
 3478              		.loc 1 255 5 discriminator 8 view .LVU1023
 3479 0364 2046     		mov	r0, r4
 3480 0366 FFF7FEFF 		bl	lv_style_set_pad_row
 3481              	.LVL359:
 256:lvgl/src/extra/themes/default/lv_theme_default.c ****     lv_style_set_line_color(&styles->card, lv_palette_main(LV_PALETTE_GREY));
 3482              		.loc 1 256 5 is_stmt 1 discriminator 8 view .LVU1024
 256:lvgl/src/extra/themes/default/lv_theme_default.c ****     lv_style_set_line_color(&styles->card, lv_palette_main(LV_PALETTE_GREY));
 3483              		.loc 1 256 36 is_stmt 0 discriminator 8 view .LVU1025
 3484 036a B74B     		ldr	r3, .L573+8
 3485 036c 1C68     		ldr	r4, [r3]
 256:lvgl/src/extra/themes/default/lv_theme_default.c ****     lv_style_set_line_color(&styles->card, lv_palette_main(LV_PALETTE_GREY));
 3486              		.loc 1 256 5 discriminator 8 view .LVU1026
 3487 036e 1834     		adds	r4, r4, #24
 256:lvgl/src/extra/themes/default/lv_theme_default.c ****     lv_style_set_line_color(&styles->card, lv_palette_main(LV_PALETTE_GREY));
 3488              		.loc 1 256 44 discriminator 8 view .LVU1027
 3489 0370 B34B     		ldr	r3, .L573
 3490 0372 1B78     		ldrb	r3, [r3]	@ zero_extendqisi2
 256:lvgl/src/extra/themes/default/lv_theme_default.c ****     lv_style_set_line_color(&styles->card, lv_palette_main(LV_PALETTE_GREY));
 3491              		.loc 1 256 5 discriminator 8 view .LVU1028
ARM GAS  /var/folders/k2/cd9bl_j17z77g23y6ffqb_400000gn/T//ccRoPncs.s 			page 119


 3492 0374 012B     		cmp	r3, #1
 3493 0376 01F08482 		beq	.L420
 256:lvgl/src/extra/themes/default/lv_theme_default.c ****     lv_style_set_line_color(&styles->card, lv_palette_main(LV_PALETTE_GREY));
 3494              		.loc 1 256 5 discriminator 2 view .LVU1029
 3495 037a 022B     		cmp	r3, #2
 3496 037c 01F09E82 		beq	.L421
 256:lvgl/src/extra/themes/default/lv_theme_default.c ****     lv_style_set_line_color(&styles->card, lv_palette_main(LV_PALETTE_GREY));
 3497              		.loc 1 256 44 discriminator 5 view .LVU1030
 3498 0380 B04B     		ldr	r3, .L573+4
 3499 0382 DD68     		ldr	r5, [r3, #12]
 3500              	.LVL360:
 3501              	.LBB424:
 3502              	.LBI424:
 236:lvgl/src/extra/themes/default/../../../../src/core/lv_disp.h **** {
 3503              		.loc 3 236 26 is_stmt 1 discriminator 5 view .LVU1031
 3504              	.LBB425:
 3505              		.loc 3 238 5 discriminator 5 view .LVU1032
 3506              		.loc 3 238 12 is_stmt 0 discriminator 5 view .LVU1033
 3507 0384 2846     		mov	r0, r5
 3508 0386 FFF7FEFF 		bl	lv_disp_get_dpi
 3509              	.LVL361:
 3510 038a 00EB8000 		add	r0, r0, r0, lsl #2
 3511 038e 4000     		lsls	r0, r0, #1
 3512 0390 EF28     		cmp	r0, #239
 3513 0392 01F3B082 		bgt	.L422
 3514              		.loc 3 238 12 view .LVU1034
 3515 0396 0121     		movs	r1, #1
 3516              	.LVL362:
 3517              	.L122:
 3518              		.loc 3 238 12 view .LVU1035
 3519              	.LBE425:
 3520              	.LBE424:
 256:lvgl/src/extra/themes/default/lv_theme_default.c ****     lv_style_set_line_color(&styles->card, lv_palette_main(LV_PALETTE_GREY));
 3521              		.loc 1 256 5 discriminator 8 view .LVU1036
 3522 0398 2046     		mov	r0, r4
 3523 039a FFF7FEFF 		bl	lv_style_set_pad_column
 3524              	.LVL363:
 257:lvgl/src/extra/themes/default/lv_theme_default.c ****     lv_style_set_line_width(&styles->card, lv_disp_dpx(theme.disp, 1));
 3525              		.loc 1 257 5 is_stmt 1 discriminator 8 view .LVU1037
 257:lvgl/src/extra/themes/default/lv_theme_default.c ****     lv_style_set_line_width(&styles->card, lv_disp_dpx(theme.disp, 1));
 3526              		.loc 1 257 36 is_stmt 0 discriminator 8 view .LVU1038
 3527 039e AA4C     		ldr	r4, .L573+8
 3528 03a0 2568     		ldr	r5, [r4]
 257:lvgl/src/extra/themes/default/lv_theme_default.c ****     lv_style_set_line_width(&styles->card, lv_disp_dpx(theme.disp, 1));
 3529              		.loc 1 257 5 discriminator 8 view .LVU1039
 3530 03a2 1220     		movs	r0, #18
 3531 03a4 FFF7FEFF 		bl	lv_palette_main
 3532              	.LVL364:
 3533 03a8 0146     		mov	r1, r0
 3534 03aa 05F11800 		add	r0, r5, #24
 3535 03ae FFF7FEFF 		bl	lv_style_set_line_color
 3536              	.LVL365:
 258:lvgl/src/extra/themes/default/lv_theme_default.c **** 
 3537              		.loc 1 258 5 is_stmt 1 discriminator 8 view .LVU1040
 258:lvgl/src/extra/themes/default/lv_theme_default.c **** 
 3538              		.loc 1 258 36 is_stmt 0 discriminator 8 view .LVU1041
 3539 03b2 2468     		ldr	r4, [r4]
ARM GAS  /var/folders/k2/cd9bl_j17z77g23y6ffqb_400000gn/T//ccRoPncs.s 			page 120


 258:lvgl/src/extra/themes/default/lv_theme_default.c **** 
 3540              		.loc 1 258 5 discriminator 8 view .LVU1042
 3541 03b4 1834     		adds	r4, r4, #24
 258:lvgl/src/extra/themes/default/lv_theme_default.c **** 
 3542              		.loc 1 258 61 discriminator 8 view .LVU1043
 3543 03b6 A34B     		ldr	r3, .L573+4
 3544 03b8 DD68     		ldr	r5, [r3, #12]
 3545              	.LVL366:
 3546              	.LBB427:
 3547              	.LBI427:
 236:lvgl/src/extra/themes/default/../../../../src/core/lv_disp.h **** {
 3548              		.loc 3 236 26 is_stmt 1 discriminator 8 view .LVU1044
 3549              	.LBB428:
 3550              		.loc 3 238 5 discriminator 8 view .LVU1045
 3551              		.loc 3 238 12 is_stmt 0 discriminator 8 view .LVU1046
 3552 03ba 2846     		mov	r0, r5
 3553 03bc FFF7FEFF 		bl	lv_disp_get_dpi
 3554              	.LVL367:
 3555 03c0 EF28     		cmp	r0, #239
 3556 03c2 01F3A882 		bgt	.L423
 3557              		.loc 3 238 12 view .LVU1047
 3558 03c6 0121     		movs	r1, #1
 3559              	.L126:
 3560              	.LVL368:
 3561              		.loc 3 238 12 view .LVU1048
 3562              	.LBE428:
 3563              	.LBE427:
 258:lvgl/src/extra/themes/default/lv_theme_default.c **** 
 3564              		.loc 1 258 5 view .LVU1049
 3565 03c8 2046     		mov	r0, r4
 3566 03ca FFF7FEFF 		bl	lv_style_set_line_width
 3567              	.LVL369:
 260:lvgl/src/extra/themes/default/lv_theme_default.c ****     lv_style_set_outline_color(&styles->outline_primary, theme.color_primary);
 3568              		.loc 1 260 5 is_stmt 1 view .LVU1050
 260:lvgl/src/extra/themes/default/lv_theme_default.c ****     lv_style_set_outline_color(&styles->outline_primary, theme.color_primary);
 3569              		.loc 1 260 29 is_stmt 0 view .LVU1051
 3570 03ce 9E4C     		ldr	r4, .L573+8
 3571 03d0 2068     		ldr	r0, [r4]
 260:lvgl/src/extra/themes/default/lv_theme_default.c ****     lv_style_set_outline_color(&styles->outline_primary, theme.color_primary);
 3572              		.loc 1 260 5 view .LVU1052
 3573 03d2 A030     		adds	r0, r0, #160
 3574 03d4 FFF7FEFF 		bl	style_init_reset
 3575              	.LVL370:
 261:lvgl/src/extra/themes/default/lv_theme_default.c ****     lv_style_set_outline_width(&styles->outline_primary, OUTLINE_WIDTH);
 3576              		.loc 1 261 5 is_stmt 1 view .LVU1053
 261:lvgl/src/extra/themes/default/lv_theme_default.c ****     lv_style_set_outline_width(&styles->outline_primary, OUTLINE_WIDTH);
 3577              		.loc 1 261 39 is_stmt 0 view .LVU1054
 3578 03d8 2068     		ldr	r0, [r4]
 261:lvgl/src/extra/themes/default/lv_theme_default.c ****     lv_style_set_outline_width(&styles->outline_primary, OUTLINE_WIDTH);
 3579              		.loc 1 261 5 view .LVU1055
 3580 03da 9A4D     		ldr	r5, .L573+4
 3581 03dc 2969     		ldr	r1, [r5, #16]
 3582 03de A030     		adds	r0, r0, #160
 3583 03e0 FFF7FEFF 		bl	lv_style_set_outline_color
 3584              	.LVL371:
 262:lvgl/src/extra/themes/default/lv_theme_default.c ****     lv_style_set_outline_pad(&styles->outline_primary, OUTLINE_WIDTH);
 3585              		.loc 1 262 5 is_stmt 1 view .LVU1056
ARM GAS  /var/folders/k2/cd9bl_j17z77g23y6ffqb_400000gn/T//ccRoPncs.s 			page 121


 262:lvgl/src/extra/themes/default/lv_theme_default.c ****     lv_style_set_outline_pad(&styles->outline_primary, OUTLINE_WIDTH);
 3586              		.loc 1 262 39 is_stmt 0 view .LVU1057
 3587 03e4 2468     		ldr	r4, [r4]
 262:lvgl/src/extra/themes/default/lv_theme_default.c ****     lv_style_set_outline_pad(&styles->outline_primary, OUTLINE_WIDTH);
 3588              		.loc 1 262 5 view .LVU1058
 3589 03e6 A034     		adds	r4, r4, #160
 262:lvgl/src/extra/themes/default/lv_theme_default.c ****     lv_style_set_outline_pad(&styles->outline_primary, OUTLINE_WIDTH);
 3590              		.loc 1 262 58 view .LVU1059
 3591 03e8 ED68     		ldr	r5, [r5, #12]
 3592              	.LVL372:
 3593              	.LBB430:
 3594              	.LBI430:
 236:lvgl/src/extra/themes/default/../../../../src/core/lv_disp.h **** {
 3595              		.loc 3 236 26 is_stmt 1 view .LVU1060
 3596              	.LBB431:
 3597              		.loc 3 238 5 view .LVU1061
 3598              		.loc 3 238 12 is_stmt 0 view .LVU1062
 3599 03ea 2846     		mov	r0, r5
 3600 03ec FFF7FEFF 		bl	lv_disp_get_dpi
 3601              	.LVL373:
 3602 03f0 00EB4000 		add	r0, r0, r0, lsl #1
 3603 03f4 EF28     		cmp	r0, #239
 3604 03f6 01F39B82 		bgt	.L424
 3605 03fa 0121     		movs	r1, #1
 3606              	.L127:
 3607              	.LVL374:
 3608              		.loc 3 238 12 view .LVU1063
 3609              	.LBE431:
 3610              	.LBE430:
 262:lvgl/src/extra/themes/default/lv_theme_default.c ****     lv_style_set_outline_pad(&styles->outline_primary, OUTLINE_WIDTH);
 3611              		.loc 1 262 5 view .LVU1064
 3612 03fc 2046     		mov	r0, r4
 3613 03fe FFF7FEFF 		bl	lv_style_set_outline_width
 3614              	.LVL375:
 263:lvgl/src/extra/themes/default/lv_theme_default.c ****     lv_style_set_outline_opa(&styles->outline_primary, LV_OPA_50);
 3615              		.loc 1 263 5 is_stmt 1 view .LVU1065
 263:lvgl/src/extra/themes/default/lv_theme_default.c ****     lv_style_set_outline_opa(&styles->outline_primary, LV_OPA_50);
 3616              		.loc 1 263 37 is_stmt 0 view .LVU1066
 3617 0402 914B     		ldr	r3, .L573+8
 3618 0404 1C68     		ldr	r4, [r3]
 263:lvgl/src/extra/themes/default/lv_theme_default.c ****     lv_style_set_outline_opa(&styles->outline_primary, LV_OPA_50);
 3619              		.loc 1 263 5 view .LVU1067
 3620 0406 A034     		adds	r4, r4, #160
 263:lvgl/src/extra/themes/default/lv_theme_default.c ****     lv_style_set_outline_opa(&styles->outline_primary, LV_OPA_50);
 3621              		.loc 1 263 56 view .LVU1068
 3622 0408 8E4B     		ldr	r3, .L573+4
 3623 040a DD68     		ldr	r5, [r3, #12]
 3624              	.LVL376:
 3625              	.LBB433:
 3626              	.LBI433:
 236:lvgl/src/extra/themes/default/../../../../src/core/lv_disp.h **** {
 3627              		.loc 3 236 26 is_stmt 1 view .LVU1069
 3628              	.LBB434:
 3629              		.loc 3 238 5 view .LVU1070
 3630              		.loc 3 238 12 is_stmt 0 view .LVU1071
 3631 040c 2846     		mov	r0, r5
 3632 040e FFF7FEFF 		bl	lv_disp_get_dpi
ARM GAS  /var/folders/k2/cd9bl_j17z77g23y6ffqb_400000gn/T//ccRoPncs.s 			page 122


 3633              	.LVL377:
 3634 0412 00EB4000 		add	r0, r0, r0, lsl #1
 3635 0416 EF28     		cmp	r0, #239
 3636 0418 01F39A82 		bgt	.L425
 3637 041c 0121     		movs	r1, #1
 3638              	.L128:
 3639              	.LVL378:
 3640              		.loc 3 238 12 view .LVU1072
 3641              	.LBE434:
 3642              	.LBE433:
 263:lvgl/src/extra/themes/default/lv_theme_default.c ****     lv_style_set_outline_opa(&styles->outline_primary, LV_OPA_50);
 3643              		.loc 1 263 5 view .LVU1073
 3644 041e 2046     		mov	r0, r4
 3645 0420 FFF7FEFF 		bl	lv_style_set_outline_pad
 3646              	.LVL379:
 264:lvgl/src/extra/themes/default/lv_theme_default.c **** 
 3647              		.loc 1 264 5 is_stmt 1 view .LVU1074
 264:lvgl/src/extra/themes/default/lv_theme_default.c **** 
 3648              		.loc 1 264 37 is_stmt 0 view .LVU1075
 3649 0424 884C     		ldr	r4, .L573+8
 3650 0426 2068     		ldr	r0, [r4]
 264:lvgl/src/extra/themes/default/lv_theme_default.c **** 
 3651              		.loc 1 264 5 view .LVU1076
 3652 0428 7F21     		movs	r1, #127
 3653 042a A030     		adds	r0, r0, #160
 3654 042c FFF7FEFF 		bl	lv_style_set_outline_opa
 3655              	.LVL380:
 266:lvgl/src/extra/themes/default/lv_theme_default.c ****     lv_style_set_outline_color(&styles->outline_secondary, theme.color_secondary);
 3656              		.loc 1 266 5 is_stmt 1 view .LVU1077
 266:lvgl/src/extra/themes/default/lv_theme_default.c ****     lv_style_set_outline_color(&styles->outline_secondary, theme.color_secondary);
 3657              		.loc 1 266 29 is_stmt 0 view .LVU1078
 3658 0430 2068     		ldr	r0, [r4]
 266:lvgl/src/extra/themes/default/lv_theme_default.c ****     lv_style_set_outline_color(&styles->outline_secondary, theme.color_secondary);
 3659              		.loc 1 266 5 view .LVU1079
 3660 0432 A830     		adds	r0, r0, #168
 3661 0434 FFF7FEFF 		bl	style_init_reset
 3662              	.LVL381:
 267:lvgl/src/extra/themes/default/lv_theme_default.c ****     lv_style_set_outline_width(&styles->outline_secondary, OUTLINE_WIDTH);
 3663              		.loc 1 267 5 is_stmt 1 view .LVU1080
 267:lvgl/src/extra/themes/default/lv_theme_default.c ****     lv_style_set_outline_width(&styles->outline_secondary, OUTLINE_WIDTH);
 3664              		.loc 1 267 39 is_stmt 0 view .LVU1081
 3665 0438 2068     		ldr	r0, [r4]
 267:lvgl/src/extra/themes/default/lv_theme_default.c ****     lv_style_set_outline_width(&styles->outline_secondary, OUTLINE_WIDTH);
 3666              		.loc 1 267 5 view .LVU1082
 3667 043a 824D     		ldr	r5, .L573+4
 3668 043c 6969     		ldr	r1, [r5, #20]
 3669 043e A830     		adds	r0, r0, #168
 3670 0440 FFF7FEFF 		bl	lv_style_set_outline_color
 3671              	.LVL382:
 268:lvgl/src/extra/themes/default/lv_theme_default.c ****     lv_style_set_outline_opa(&styles->outline_secondary, LV_OPA_50);
 3672              		.loc 1 268 5 is_stmt 1 view .LVU1083
 268:lvgl/src/extra/themes/default/lv_theme_default.c ****     lv_style_set_outline_opa(&styles->outline_secondary, LV_OPA_50);
 3673              		.loc 1 268 39 is_stmt 0 view .LVU1084
 3674 0444 2468     		ldr	r4, [r4]
 268:lvgl/src/extra/themes/default/lv_theme_default.c ****     lv_style_set_outline_opa(&styles->outline_secondary, LV_OPA_50);
 3675              		.loc 1 268 5 view .LVU1085
 3676 0446 A834     		adds	r4, r4, #168
ARM GAS  /var/folders/k2/cd9bl_j17z77g23y6ffqb_400000gn/T//ccRoPncs.s 			page 123


 268:lvgl/src/extra/themes/default/lv_theme_default.c ****     lv_style_set_outline_opa(&styles->outline_secondary, LV_OPA_50);
 3677              		.loc 1 268 60 view .LVU1086
 3678 0448 ED68     		ldr	r5, [r5, #12]
 3679              	.LVL383:
 3680              	.LBB436:
 3681              	.LBI436:
 236:lvgl/src/extra/themes/default/../../../../src/core/lv_disp.h **** {
 3682              		.loc 3 236 26 is_stmt 1 view .LVU1087
 3683              	.LBB437:
 3684              		.loc 3 238 5 view .LVU1088
 3685              		.loc 3 238 12 is_stmt 0 view .LVU1089
 3686 044a 2846     		mov	r0, r5
 3687 044c FFF7FEFF 		bl	lv_disp_get_dpi
 3688              	.LVL384:
 3689 0450 00EB4000 		add	r0, r0, r0, lsl #1
 3690 0454 EF28     		cmp	r0, #239
 3691 0456 01F38B82 		bgt	.L426
 3692 045a 0121     		movs	r1, #1
 3693              	.L129:
 3694              	.LVL385:
 3695              		.loc 3 238 12 view .LVU1090
 3696              	.LBE437:
 3697              	.LBE436:
 268:lvgl/src/extra/themes/default/lv_theme_default.c ****     lv_style_set_outline_opa(&styles->outline_secondary, LV_OPA_50);
 3698              		.loc 1 268 5 view .LVU1091
 3699 045c 2046     		mov	r0, r4
 3700 045e FFF7FEFF 		bl	lv_style_set_outline_width
 3701              	.LVL386:
 269:lvgl/src/extra/themes/default/lv_theme_default.c **** 
 3702              		.loc 1 269 5 is_stmt 1 view .LVU1092
 269:lvgl/src/extra/themes/default/lv_theme_default.c **** 
 3703              		.loc 1 269 37 is_stmt 0 view .LVU1093
 3704 0462 794C     		ldr	r4, .L573+8
 3705 0464 2068     		ldr	r0, [r4]
 269:lvgl/src/extra/themes/default/lv_theme_default.c **** 
 3706              		.loc 1 269 5 view .LVU1094
 3707 0466 7F21     		movs	r1, #127
 3708 0468 A830     		adds	r0, r0, #168
 3709 046a FFF7FEFF 		bl	lv_style_set_outline_opa
 3710              	.LVL387:
 271:lvgl/src/extra/themes/default/lv_theme_default.c ****     lv_style_set_radius(&styles->btn, (disp_size == DISP_LARGE ? lv_disp_dpx(theme.disp, 16) : disp
 3711              		.loc 1 271 5 is_stmt 1 view .LVU1095
 271:lvgl/src/extra/themes/default/lv_theme_default.c ****     lv_style_set_radius(&styles->btn, (disp_size == DISP_LARGE ? lv_disp_dpx(theme.disp, 16) : disp
 3712              		.loc 1 271 29 is_stmt 0 view .LVU1096
 3713 046e 2068     		ldr	r0, [r4]
 271:lvgl/src/extra/themes/default/lv_theme_default.c ****     lv_style_set_radius(&styles->btn, (disp_size == DISP_LARGE ? lv_disp_dpx(theme.disp, 16) : disp
 3714              		.loc 1 271 5 view .LVU1097
 3715 0470 2030     		adds	r0, r0, #32
 3716 0472 FFF7FEFF 		bl	style_init_reset
 3717              	.LVL388:
 272:lvgl/src/extra/themes/default/lv_theme_default.c ****     lv_style_set_bg_opa(&styles->btn, LV_OPA_COVER);
 3718              		.loc 1 272 5 is_stmt 1 view .LVU1098
 272:lvgl/src/extra/themes/default/lv_theme_default.c ****     lv_style_set_bg_opa(&styles->btn, LV_OPA_COVER);
 3719              		.loc 1 272 32 is_stmt 0 view .LVU1099
 3720 0476 2468     		ldr	r4, [r4]
 272:lvgl/src/extra/themes/default/lv_theme_default.c ****     lv_style_set_bg_opa(&styles->btn, LV_OPA_COVER);
 3721              		.loc 1 272 5 view .LVU1100
ARM GAS  /var/folders/k2/cd9bl_j17z77g23y6ffqb_400000gn/T//ccRoPncs.s 			page 124


 3722 0478 2034     		adds	r4, r4, #32
 272:lvgl/src/extra/themes/default/lv_theme_default.c ****     lv_style_set_bg_opa(&styles->btn, LV_OPA_COVER);
 3723              		.loc 1 272 50 view .LVU1101
 3724 047a 714B     		ldr	r3, .L573
 3725 047c 1B78     		ldrb	r3, [r3]	@ zero_extendqisi2
 272:lvgl/src/extra/themes/default/lv_theme_default.c ****     lv_style_set_bg_opa(&styles->btn, LV_OPA_COVER);
 3726              		.loc 1 272 5 view .LVU1102
 3727 047e 012B     		cmp	r3, #1
 3728 0480 01F08682 		beq	.L427
 272:lvgl/src/extra/themes/default/lv_theme_default.c ****     lv_style_set_bg_opa(&styles->btn, LV_OPA_COVER);
 3729              		.loc 1 272 5 discriminator 2 view .LVU1103
 3730 0484 022B     		cmp	r3, #2
 3731 0486 01F09C82 		beq	.L428
 272:lvgl/src/extra/themes/default/lv_theme_default.c ****     lv_style_set_bg_opa(&styles->btn, LV_OPA_COVER);
 3732              		.loc 1 272 170 discriminator 5 view .LVU1104
 3733 048a 6E4B     		ldr	r3, .L573+4
 3734 048c DD68     		ldr	r5, [r3, #12]
 3735              	.LVL389:
 3736              	.LBB439:
 3737              	.LBI439:
 236:lvgl/src/extra/themes/default/../../../../src/core/lv_disp.h **** {
 3738              		.loc 3 236 26 is_stmt 1 discriminator 5 view .LVU1105
 3739              	.LBB440:
 3740              		.loc 3 238 5 discriminator 5 view .LVU1106
 3741              		.loc 3 238 12 is_stmt 0 discriminator 5 view .LVU1107
 3742 048e 2846     		mov	r0, r5
 3743 0490 FFF7FEFF 		bl	lv_disp_get_dpi
 3744              	.LVL390:
 3745 0494 C000     		lsls	r0, r0, #3
 3746 0496 EF28     		cmp	r0, #239
 3747 0498 01F3B482 		bgt	.L429
 3748              		.loc 3 238 12 view .LVU1108
 3749 049c 0121     		movs	r1, #1
 3750              	.LVL391:
 3751              	.L132:
 3752              		.loc 3 238 12 view .LVU1109
 3753              	.LBE440:
 3754              	.LBE439:
 272:lvgl/src/extra/themes/default/lv_theme_default.c ****     lv_style_set_bg_opa(&styles->btn, LV_OPA_COVER);
 3755              		.loc 1 272 5 discriminator 8 view .LVU1110
 3756 049e 2046     		mov	r0, r4
 3757 04a0 FFF7FEFF 		bl	lv_style_set_radius
 3758              	.LVL392:
 273:lvgl/src/extra/themes/default/lv_theme_default.c ****     lv_style_set_bg_color(&styles->btn, color_grey);
 3759              		.loc 1 273 5 is_stmt 1 discriminator 8 view .LVU1111
 273:lvgl/src/extra/themes/default/lv_theme_default.c ****     lv_style_set_bg_color(&styles->btn, color_grey);
 3760              		.loc 1 273 32 is_stmt 0 discriminator 8 view .LVU1112
 3761 04a4 684C     		ldr	r4, .L573+8
 3762 04a6 2068     		ldr	r0, [r4]
 273:lvgl/src/extra/themes/default/lv_theme_default.c ****     lv_style_set_bg_color(&styles->btn, color_grey);
 3763              		.loc 1 273 5 discriminator 8 view .LVU1113
 3764 04a8 FF21     		movs	r1, #255
 3765 04aa 2030     		adds	r0, r0, #32
 3766 04ac FFF7FEFF 		bl	lv_style_set_bg_opa
 3767              	.LVL393:
 274:lvgl/src/extra/themes/default/lv_theme_default.c ****     if(!(theme.flags & MODE_DARK)) {
 3768              		.loc 1 274 5 is_stmt 1 discriminator 8 view .LVU1114
ARM GAS  /var/folders/k2/cd9bl_j17z77g23y6ffqb_400000gn/T//ccRoPncs.s 			page 125


 274:lvgl/src/extra/themes/default/lv_theme_default.c ****     if(!(theme.flags & MODE_DARK)) {
 3769              		.loc 1 274 34 is_stmt 0 discriminator 8 view .LVU1115
 3770 04b0 2068     		ldr	r0, [r4]
 274:lvgl/src/extra/themes/default/lv_theme_default.c ****     if(!(theme.flags & MODE_DARK)) {
 3771              		.loc 1 274 5 discriminator 8 view .LVU1116
 3772 04b2 664B     		ldr	r3, .L573+12
 3773 04b4 1968     		ldr	r1, [r3]
 3774 04b6 2030     		adds	r0, r0, #32
 3775 04b8 FFF7FEFF 		bl	lv_style_set_bg_color
 3776              	.LVL394:
 275:lvgl/src/extra/themes/default/lv_theme_default.c ****         lv_style_set_shadow_color(&styles->btn, lv_palette_lighten(LV_PALETTE_GREY, 3));
 3777              		.loc 1 275 5 is_stmt 1 discriminator 8 view .LVU1117
 275:lvgl/src/extra/themes/default/lv_theme_default.c ****         lv_style_set_shadow_color(&styles->btn, lv_palette_lighten(LV_PALETTE_GREY, 3));
 3778              		.loc 1 275 15 is_stmt 0 discriminator 8 view .LVU1118
 3779 04bc 614B     		ldr	r3, .L573+4
 3780 04be 5B6A     		ldr	r3, [r3, #36]
 275:lvgl/src/extra/themes/default/lv_theme_default.c ****         lv_style_set_shadow_color(&styles->btn, lv_palette_lighten(LV_PALETTE_GREY, 3));
 3781              		.loc 1 275 7 discriminator 8 view .LVU1119
 3782 04c0 13F0010F 		tst	r3, #1
 3783 04c4 01F0AC82 		beq	.L430
 3784              	.L136:
 280:lvgl/src/extra/themes/default/lv_theme_default.c ****     lv_style_set_pad_hor(&styles->btn, PAD_DEF);
 3785              		.loc 1 280 5 is_stmt 1 view .LVU1120
 280:lvgl/src/extra/themes/default/lv_theme_default.c ****     lv_style_set_pad_hor(&styles->btn, PAD_DEF);
 3786              		.loc 1 280 36 is_stmt 0 view .LVU1121
 3787 04c8 5F4C     		ldr	r4, .L573+8
 3788 04ca 2068     		ldr	r0, [r4]
 280:lvgl/src/extra/themes/default/lv_theme_default.c ****     lv_style_set_pad_hor(&styles->btn, PAD_DEF);
 3789              		.loc 1 280 5 view .LVU1122
 3790 04cc 604B     		ldr	r3, .L573+16
 3791 04ce 1968     		ldr	r1, [r3]
 3792 04d0 2030     		adds	r0, r0, #32
 3793 04d2 FFF7FEFF 		bl	lv_style_set_text_color
 3794              	.LVL395:
 281:lvgl/src/extra/themes/default/lv_theme_default.c ****     lv_style_set_pad_ver(&styles->btn, PAD_SMALL);
 3795              		.loc 1 281 5 is_stmt 1 view .LVU1123
 281:lvgl/src/extra/themes/default/lv_theme_default.c ****     lv_style_set_pad_ver(&styles->btn, PAD_SMALL);
 3796              		.loc 1 281 33 is_stmt 0 view .LVU1124
 3797 04d6 2568     		ldr	r5, [r4]
 281:lvgl/src/extra/themes/default/lv_theme_default.c ****     lv_style_set_pad_ver(&styles->btn, PAD_SMALL);
 3798              		.loc 1 281 5 view .LVU1125
 3799 04d8 2035     		adds	r5, r5, #32
 281:lvgl/src/extra/themes/default/lv_theme_default.c ****     lv_style_set_pad_ver(&styles->btn, PAD_SMALL);
 3800              		.loc 1 281 40 view .LVU1126
 3801 04da 594B     		ldr	r3, .L573
 3802 04dc 1B78     		ldrb	r3, [r3]	@ zero_extendqisi2
 281:lvgl/src/extra/themes/default/lv_theme_default.c ****     lv_style_set_pad_ver(&styles->btn, PAD_SMALL);
 3803              		.loc 1 281 5 view .LVU1127
 3804 04de 012B     		cmp	r3, #1
 3805 04e0 01F0CA82 		beq	.L431
 281:lvgl/src/extra/themes/default/lv_theme_default.c ****     lv_style_set_pad_ver(&styles->btn, PAD_SMALL);
 3806              		.loc 1 281 5 discriminator 2 view .LVU1128
 3807 04e4 022B     		cmp	r3, #2
 3808 04e6 01F0E482 		beq	.L432
 281:lvgl/src/extra/themes/default/lv_theme_default.c ****     lv_style_set_pad_ver(&styles->btn, PAD_SMALL);
 3809              		.loc 1 281 40 discriminator 5 view .LVU1129
 3810 04ea 564B     		ldr	r3, .L573+4
ARM GAS  /var/folders/k2/cd9bl_j17z77g23y6ffqb_400000gn/T//ccRoPncs.s 			page 126


 3811 04ec DC68     		ldr	r4, [r3, #12]
 3812              	.LVL396:
 3813              	.LBB442:
 3814              	.LBI442:
 236:lvgl/src/extra/themes/default/../../../../src/core/lv_disp.h **** {
 3815              		.loc 3 236 26 is_stmt 1 discriminator 5 view .LVU1130
 3816              	.LBB443:
 3817              		.loc 3 238 5 discriminator 5 view .LVU1131
 3818              		.loc 3 238 12 is_stmt 0 discriminator 5 view .LVU1132
 3819 04ee 2046     		mov	r0, r4
 3820 04f0 FFF7FEFF 		bl	lv_disp_get_dpi
 3821              	.LVL397:
 3822 04f4 0001     		lsls	r0, r0, #4
 3823 04f6 EF28     		cmp	r0, #239
 3824 04f8 01F3F882 		bgt	.L433
 3825              		.loc 3 238 12 view .LVU1133
 3826 04fc 0124     		movs	r4, #1
 3827              	.LVL398:
 3828              	.L140:
 3829              		.loc 3 238 12 view .LVU1134
 3830              	.LBE443:
 3831              	.LBE442:
 3832              	.LBB445:
 3833              	.LBI445:
 432:lvgl/src/extra/themes/default/../../../../src/core/../misc/lv_style.h ****     lv_style_set_pad_left(style, value);
 3834              		.loc 4 432 20 is_stmt 1 discriminator 8 view .LVU1135
 3835              	.LBB446:
 433:lvgl/src/extra/themes/default/../../../../src/core/../misc/lv_style.h ****     lv_style_set_pad_right(style, value);
 3836              		.loc 4 433 5 discriminator 8 view .LVU1136
 3837 04fe 2146     		mov	r1, r4
 3838 0500 2846     		mov	r0, r5
 3839 0502 FFF7FEFF 		bl	lv_style_set_pad_left
 3840              	.LVL399:
 434:lvgl/src/extra/themes/default/../../../../src/core/../misc/lv_style.h **** }
 3841              		.loc 4 434 5 discriminator 8 view .LVU1137
 3842 0506 2146     		mov	r1, r4
 3843 0508 2846     		mov	r0, r5
 3844 050a FFF7FEFF 		bl	lv_style_set_pad_right
 3845              	.LVL400:
 434:lvgl/src/extra/themes/default/../../../../src/core/../misc/lv_style.h **** }
 3846              		.loc 4 434 5 is_stmt 0 discriminator 8 view .LVU1138
 3847              	.LBE446:
 3848              	.LBE445:
 282:lvgl/src/extra/themes/default/lv_theme_default.c ****     lv_style_set_pad_column(&styles->btn, lv_disp_dpx(theme.disp, 5));
 3849              		.loc 1 282 5 is_stmt 1 discriminator 8 view .LVU1139
 282:lvgl/src/extra/themes/default/lv_theme_default.c ****     lv_style_set_pad_column(&styles->btn, lv_disp_dpx(theme.disp, 5));
 3850              		.loc 1 282 33 is_stmt 0 discriminator 8 view .LVU1140
 3851 050e 4E4B     		ldr	r3, .L573+8
 3852 0510 1D68     		ldr	r5, [r3]
 282:lvgl/src/extra/themes/default/lv_theme_default.c ****     lv_style_set_pad_column(&styles->btn, lv_disp_dpx(theme.disp, 5));
 3853              		.loc 1 282 5 discriminator 8 view .LVU1141
 3854 0512 2035     		adds	r5, r5, #32
 282:lvgl/src/extra/themes/default/lv_theme_default.c ****     lv_style_set_pad_column(&styles->btn, lv_disp_dpx(theme.disp, 5));
 3855              		.loc 1 282 40 discriminator 8 view .LVU1142
 3856 0514 4A4B     		ldr	r3, .L573
 3857 0516 1B78     		ldrb	r3, [r3]	@ zero_extendqisi2
 282:lvgl/src/extra/themes/default/lv_theme_default.c ****     lv_style_set_pad_column(&styles->btn, lv_disp_dpx(theme.disp, 5));
ARM GAS  /var/folders/k2/cd9bl_j17z77g23y6ffqb_400000gn/T//ccRoPncs.s 			page 127


 3858              		.loc 1 282 5 discriminator 8 view .LVU1143
 3859 0518 012B     		cmp	r3, #1
 3860 051a 01F0F582 		beq	.L434
 282:lvgl/src/extra/themes/default/lv_theme_default.c ****     lv_style_set_pad_column(&styles->btn, lv_disp_dpx(theme.disp, 5));
 3861              		.loc 1 282 5 discriminator 2 view .LVU1144
 3862 051e 022B     		cmp	r3, #2
 3863 0520 01F00F83 		beq	.L435
 282:lvgl/src/extra/themes/default/lv_theme_default.c ****     lv_style_set_pad_column(&styles->btn, lv_disp_dpx(theme.disp, 5));
 3864              		.loc 1 282 40 discriminator 5 view .LVU1145
 3865 0524 474B     		ldr	r3, .L573+4
 3866 0526 DC68     		ldr	r4, [r3, #12]
 3867              	.LVL401:
 3868              	.LBB447:
 3869              	.LBI447:
 236:lvgl/src/extra/themes/default/../../../../src/core/lv_disp.h **** {
 3870              		.loc 3 236 26 is_stmt 1 discriminator 5 view .LVU1146
 3871              	.LBB448:
 3872              		.loc 3 238 5 discriminator 5 view .LVU1147
 3873              		.loc 3 238 12 is_stmt 0 discriminator 5 view .LVU1148
 3874 0528 2046     		mov	r0, r4
 3875 052a FFF7FEFF 		bl	lv_disp_get_dpi
 3876              	.LVL402:
 3877 052e 00EB8000 		add	r0, r0, r0, lsl #2
 3878 0532 4000     		lsls	r0, r0, #1
 3879 0534 EF28     		cmp	r0, #239
 3880 0536 01F32183 		bgt	.L436
 3881              		.loc 3 238 12 view .LVU1149
 3882 053a 0124     		movs	r4, #1
 3883              	.LVL403:
 3884              	.L146:
 3885              		.loc 3 238 12 view .LVU1150
 3886              	.LBE448:
 3887              	.LBE447:
 3888              	.LBB450:
 3889              	.LBI450:
 437:lvgl/src/extra/themes/default/../../../../src/core/../misc/lv_style.h ****     lv_style_set_pad_top(style, value);
 3890              		.loc 4 437 20 is_stmt 1 discriminator 8 view .LVU1151
 3891              	.LBB451:
 438:lvgl/src/extra/themes/default/../../../../src/core/../misc/lv_style.h ****     lv_style_set_pad_bottom(style, value);
 3892              		.loc 4 438 5 discriminator 8 view .LVU1152
 3893 053c 2146     		mov	r1, r4
 3894 053e 2846     		mov	r0, r5
 3895 0540 FFF7FEFF 		bl	lv_style_set_pad_top
 3896              	.LVL404:
 439:lvgl/src/extra/themes/default/../../../../src/core/../misc/lv_style.h **** }
 3897              		.loc 4 439 5 discriminator 8 view .LVU1153
 3898 0544 2146     		mov	r1, r4
 3899 0546 2846     		mov	r0, r5
 3900 0548 FFF7FEFF 		bl	lv_style_set_pad_bottom
 3901              	.LVL405:
 439:lvgl/src/extra/themes/default/../../../../src/core/../misc/lv_style.h **** }
 3902              		.loc 4 439 5 is_stmt 0 discriminator 8 view .LVU1154
 3903              	.LBE451:
 3904              	.LBE450:
 283:lvgl/src/extra/themes/default/lv_theme_default.c ****     lv_style_set_pad_row(&styles->btn, lv_disp_dpx(theme.disp, 5));
 3905              		.loc 1 283 5 is_stmt 1 discriminator 8 view .LVU1155
 283:lvgl/src/extra/themes/default/lv_theme_default.c ****     lv_style_set_pad_row(&styles->btn, lv_disp_dpx(theme.disp, 5));
ARM GAS  /var/folders/k2/cd9bl_j17z77g23y6ffqb_400000gn/T//ccRoPncs.s 			page 128


 3906              		.loc 1 283 36 is_stmt 0 discriminator 8 view .LVU1156
 3907 054c 3E4B     		ldr	r3, .L573+8
 3908 054e 1C68     		ldr	r4, [r3]
 283:lvgl/src/extra/themes/default/lv_theme_default.c ****     lv_style_set_pad_row(&styles->btn, lv_disp_dpx(theme.disp, 5));
 3909              		.loc 1 283 5 discriminator 8 view .LVU1157
 3910 0550 2034     		adds	r4, r4, #32
 283:lvgl/src/extra/themes/default/lv_theme_default.c ****     lv_style_set_pad_row(&styles->btn, lv_disp_dpx(theme.disp, 5));
 3911              		.loc 1 283 60 discriminator 8 view .LVU1158
 3912 0552 3C4B     		ldr	r3, .L573+4
 3913 0554 DD68     		ldr	r5, [r3, #12]
 3914              	.LVL406:
 3915              	.LBB452:
 3916              	.LBI452:
 236:lvgl/src/extra/themes/default/../../../../src/core/lv_disp.h **** {
 3917              		.loc 3 236 26 is_stmt 1 discriminator 8 view .LVU1159
 3918              	.LBB453:
 3919              		.loc 3 238 5 discriminator 8 view .LVU1160
 3920              		.loc 3 238 12 is_stmt 0 discriminator 8 view .LVU1161
 3921 0556 2846     		mov	r0, r5
 3922 0558 FFF7FEFF 		bl	lv_disp_get_dpi
 3923              	.LVL407:
 3924 055c 00EB8000 		add	r0, r0, r0, lsl #2
 3925 0560 EF28     		cmp	r0, #239
 3926 0562 01F31B83 		bgt	.L437
 3927              		.loc 3 238 12 view .LVU1162
 3928 0566 0121     		movs	r1, #1
 3929              	.L150:
 3930              	.LVL408:
 3931              		.loc 3 238 12 view .LVU1163
 3932              	.LBE453:
 3933              	.LBE452:
 283:lvgl/src/extra/themes/default/lv_theme_default.c ****     lv_style_set_pad_row(&styles->btn, lv_disp_dpx(theme.disp, 5));
 3934              		.loc 1 283 5 view .LVU1164
 3935 0568 2046     		mov	r0, r4
 3936 056a FFF7FEFF 		bl	lv_style_set_pad_column
 3937              	.LVL409:
 284:lvgl/src/extra/themes/default/lv_theme_default.c **** 
 3938              		.loc 1 284 5 is_stmt 1 view .LVU1165
 284:lvgl/src/extra/themes/default/lv_theme_default.c **** 
 3939              		.loc 1 284 33 is_stmt 0 view .LVU1166
 3940 056e 364B     		ldr	r3, .L573+8
 3941 0570 1C68     		ldr	r4, [r3]
 284:lvgl/src/extra/themes/default/lv_theme_default.c **** 
 3942              		.loc 1 284 5 view .LVU1167
 3943 0572 2034     		adds	r4, r4, #32
 284:lvgl/src/extra/themes/default/lv_theme_default.c **** 
 3944              		.loc 1 284 57 view .LVU1168
 3945 0574 334B     		ldr	r3, .L573+4
 3946 0576 DD68     		ldr	r5, [r3, #12]
 3947              	.LVL410:
 3948              	.LBB455:
 3949              	.LBI455:
 236:lvgl/src/extra/themes/default/../../../../src/core/lv_disp.h **** {
 3950              		.loc 3 236 26 is_stmt 1 view .LVU1169
 3951              	.LBB456:
 3952              		.loc 3 238 5 view .LVU1170
 3953              		.loc 3 238 12 is_stmt 0 view .LVU1171
ARM GAS  /var/folders/k2/cd9bl_j17z77g23y6ffqb_400000gn/T//ccRoPncs.s 			page 129


 3954 0578 2846     		mov	r0, r5
 3955 057a FFF7FEFF 		bl	lv_disp_get_dpi
 3956              	.LVL411:
 3957 057e 00EB8000 		add	r0, r0, r0, lsl #2
 3958 0582 EF28     		cmp	r0, #239
 3959 0584 01F31A83 		bgt	.L438
 3960 0588 0121     		movs	r1, #1
 3961              	.L151:
 3962              	.LVL412:
 3963              		.loc 3 238 12 view .LVU1172
 3964              	.LBE456:
 3965              	.LBE455:
 284:lvgl/src/extra/themes/default/lv_theme_default.c **** 
 3966              		.loc 1 284 5 view .LVU1173
 3967 058a 2046     		mov	r0, r4
 3968 058c FFF7FEFF 		bl	lv_style_set_pad_row
 3969              	.LVL413:
 286:lvgl/src/extra/themes/default/lv_theme_default.c ****     lv_color_filter_dsc_init(&dark_filter, dark_color_filter_cb);
 3970              		.loc 1 286 5 is_stmt 1 view .LVU1174
 287:lvgl/src/extra/themes/default/lv_theme_default.c **** 
 3971              		.loc 1 287 5 view .LVU1175
 3972              	.LBB458:
 3973              	.LBI458:
 610:lvgl/src/extra/themes/default/../../../../src/hal/../misc/lv_color.h **** }
 611:lvgl/src/extra/themes/default/../../../../src/hal/../misc/lv_color.h **** 
 612:lvgl/src/extra/themes/default/../../../../src/hal/../misc/lv_color.h **** static inline lv_color_t lv_color_hex3(uint32_t c)
 613:lvgl/src/extra/themes/default/../../../../src/hal/../misc/lv_color.h **** {
 614:lvgl/src/extra/themes/default/../../../../src/hal/../misc/lv_color.h ****     return lv_color_make((uint8_t)(((c >> 4) & 0xF0) | ((c >> 8) & 0xF)), (uint8_t)((c & 0xF0) | ((
 615:lvgl/src/extra/themes/default/../../../../src/hal/../misc/lv_color.h ****                          (uint8_t)((c & 0xF) | ((c & 0xF) << 4)));
 616:lvgl/src/extra/themes/default/../../../../src/hal/../misc/lv_color.h **** }
 617:lvgl/src/extra/themes/default/../../../../src/hal/../misc/lv_color.h **** 
 618:lvgl/src/extra/themes/default/../../../../src/hal/../misc/lv_color.h **** static inline void lv_color_filter_dsc_init(lv_color_filter_dsc_t * dsc, lv_color_filter_cb_t cb)
 3974              		.loc 2 618 20 view .LVU1176
 3975              	.LBB459:
 619:lvgl/src/extra/themes/default/../../../../src/hal/../misc/lv_color.h **** {
 620:lvgl/src/extra/themes/default/../../../../src/hal/../misc/lv_color.h ****     dsc->filter_cb = cb;
 3976              		.loc 2 620 5 view .LVU1177
 3977              		.loc 2 620 20 is_stmt 0 view .LVU1178
 3978 0590 304E     		ldr	r6, .L573+20
 3979 0592 314B     		ldr	r3, .L573+24
 3980 0594 3360     		str	r3, [r6]
 3981              	.LVL414:
 3982              		.loc 2 620 20 view .LVU1179
 3983              	.LBE459:
 3984              	.LBE458:
 289:lvgl/src/extra/themes/default/lv_theme_default.c ****     lv_color_filter_dsc_init(&grey_filter, grey_filter_cb);
 3985              		.loc 1 289 5 is_stmt 1 view .LVU1180
 290:lvgl/src/extra/themes/default/lv_theme_default.c **** 
 3986              		.loc 1 290 5 view .LVU1181
 3987              	.LBB460:
 3988              	.LBI460:
 618:lvgl/src/extra/themes/default/../../../../src/hal/../misc/lv_color.h **** {
 3989              		.loc 2 618 20 view .LVU1182
 3990              	.LBB461:
 3991              		.loc 2 620 5 view .LVU1183
 3992              		.loc 2 620 20 is_stmt 0 view .LVU1184
 3993 0596 314D     		ldr	r5, .L573+28
ARM GAS  /var/folders/k2/cd9bl_j17z77g23y6ffqb_400000gn/T//ccRoPncs.s 			page 130


 3994 0598 314B     		ldr	r3, .L573+32
 3995 059a 2B60     		str	r3, [r5]
 3996              	.LVL415:
 3997              		.loc 2 620 20 view .LVU1185
 3998              	.LBE461:
 3999              	.LBE460:
 292:lvgl/src/extra/themes/default/lv_theme_default.c ****     lv_style_set_color_filter_dsc(&styles->pressed, &dark_filter);
 4000              		.loc 1 292 5 is_stmt 1 view .LVU1186
 292:lvgl/src/extra/themes/default/lv_theme_default.c ****     lv_style_set_color_filter_dsc(&styles->pressed, &dark_filter);
 4001              		.loc 1 292 29 is_stmt 0 view .LVU1187
 4002 059c 2A4C     		ldr	r4, .L573+8
 4003 059e 2068     		ldr	r0, [r4]
 292:lvgl/src/extra/themes/default/lv_theme_default.c ****     lv_style_set_color_filter_dsc(&styles->pressed, &dark_filter);
 4004              		.loc 1 292 5 view .LVU1188
 4005 05a0 5830     		adds	r0, r0, #88
 4006 05a2 FFF7FEFF 		bl	style_init_reset
 4007              	.LVL416:
 293:lvgl/src/extra/themes/default/lv_theme_default.c ****     lv_style_set_color_filter_opa(&styles->pressed, 35);
 4008              		.loc 1 293 5 is_stmt 1 view .LVU1189
 293:lvgl/src/extra/themes/default/lv_theme_default.c ****     lv_style_set_color_filter_opa(&styles->pressed, 35);
 4009              		.loc 1 293 42 is_stmt 0 view .LVU1190
 4010 05a6 2068     		ldr	r0, [r4]
 293:lvgl/src/extra/themes/default/lv_theme_default.c ****     lv_style_set_color_filter_opa(&styles->pressed, 35);
 4011              		.loc 1 293 5 view .LVU1191
 4012 05a8 3146     		mov	r1, r6
 4013 05aa 5830     		adds	r0, r0, #88
 4014 05ac FFF7FEFF 		bl	lv_style_set_color_filter_dsc
 4015              	.LVL417:
 294:lvgl/src/extra/themes/default/lv_theme_default.c **** 
 4016              		.loc 1 294 5 is_stmt 1 view .LVU1192
 294:lvgl/src/extra/themes/default/lv_theme_default.c **** 
 4017              		.loc 1 294 42 is_stmt 0 view .LVU1193
 4018 05b0 2068     		ldr	r0, [r4]
 294:lvgl/src/extra/themes/default/lv_theme_default.c **** 
 4019              		.loc 1 294 5 view .LVU1194
 4020 05b2 2321     		movs	r1, #35
 4021 05b4 5830     		adds	r0, r0, #88
 4022 05b6 FFF7FEFF 		bl	lv_style_set_color_filter_opa
 4023              	.LVL418:
 296:lvgl/src/extra/themes/default/lv_theme_default.c ****     lv_style_set_color_filter_dsc(&styles->disabled, &grey_filter);
 4024              		.loc 1 296 5 is_stmt 1 view .LVU1195
 296:lvgl/src/extra/themes/default/lv_theme_default.c ****     lv_style_set_color_filter_dsc(&styles->disabled, &grey_filter);
 4025              		.loc 1 296 29 is_stmt 0 view .LVU1196
 4026 05ba 2068     		ldr	r0, [r4]
 296:lvgl/src/extra/themes/default/lv_theme_default.c ****     lv_style_set_color_filter_dsc(&styles->disabled, &grey_filter);
 4027              		.loc 1 296 5 view .LVU1197
 4028 05bc 6030     		adds	r0, r0, #96
 4029 05be FFF7FEFF 		bl	style_init_reset
 4030              	.LVL419:
 297:lvgl/src/extra/themes/default/lv_theme_default.c ****     lv_style_set_color_filter_opa(&styles->disabled, LV_OPA_50);
 4031              		.loc 1 297 5 is_stmt 1 view .LVU1198
 297:lvgl/src/extra/themes/default/lv_theme_default.c ****     lv_style_set_color_filter_opa(&styles->disabled, LV_OPA_50);
 4032              		.loc 1 297 42 is_stmt 0 view .LVU1199
 4033 05c2 2068     		ldr	r0, [r4]
 297:lvgl/src/extra/themes/default/lv_theme_default.c ****     lv_style_set_color_filter_opa(&styles->disabled, LV_OPA_50);
 4034              		.loc 1 297 5 view .LVU1200
 4035 05c4 2946     		mov	r1, r5
ARM GAS  /var/folders/k2/cd9bl_j17z77g23y6ffqb_400000gn/T//ccRoPncs.s 			page 131


 4036 05c6 6030     		adds	r0, r0, #96
 4037 05c8 FFF7FEFF 		bl	lv_style_set_color_filter_dsc
 4038              	.LVL420:
 298:lvgl/src/extra/themes/default/lv_theme_default.c **** 
 4039              		.loc 1 298 5 is_stmt 1 view .LVU1201
 298:lvgl/src/extra/themes/default/lv_theme_default.c **** 
 4040              		.loc 1 298 42 is_stmt 0 view .LVU1202
 4041 05cc 2068     		ldr	r0, [r4]
 298:lvgl/src/extra/themes/default/lv_theme_default.c **** 
 4042              		.loc 1 298 5 view .LVU1203
 4043 05ce 7F21     		movs	r1, #127
 4044 05d0 6030     		adds	r0, r0, #96
 4045 05d2 FFF7FEFF 		bl	lv_style_set_color_filter_opa
 4046              	.LVL421:
 300:lvgl/src/extra/themes/default/lv_theme_default.c ****     lv_style_set_clip_corner(&styles->clip_corner, true);
 4047              		.loc 1 300 5 is_stmt 1 view .LVU1204
 300:lvgl/src/extra/themes/default/lv_theme_default.c ****     lv_style_set_clip_corner(&styles->clip_corner, true);
 4048              		.loc 1 300 29 is_stmt 0 view .LVU1205
 4049 05d6 2068     		ldr	r0, [r4]
 300:lvgl/src/extra/themes/default/lv_theme_default.c ****     lv_style_set_clip_corner(&styles->clip_corner, true);
 4050              		.loc 1 300 5 view .LVU1206
 4051 05d8 C030     		adds	r0, r0, #192
 4052 05da FFF7FEFF 		bl	style_init_reset
 4053              	.LVL422:
 301:lvgl/src/extra/themes/default/lv_theme_default.c **** 
 4054              		.loc 1 301 5 is_stmt 1 view .LVU1207
 301:lvgl/src/extra/themes/default/lv_theme_default.c **** 
 4055              		.loc 1 301 37 is_stmt 0 view .LVU1208
 4056 05de 2068     		ldr	r0, [r4]
 301:lvgl/src/extra/themes/default/lv_theme_default.c **** 
 4057              		.loc 1 301 5 view .LVU1209
 4058 05e0 0121     		movs	r1, #1
 4059 05e2 C030     		adds	r0, r0, #192
 4060 05e4 FFF7FEFF 		bl	lv_style_set_clip_corner
 4061              	.LVL423:
 303:lvgl/src/extra/themes/default/lv_theme_default.c ****     lv_style_set_pad_all(&styles->pad_normal, PAD_DEF);
 4062              		.loc 1 303 5 is_stmt 1 view .LVU1210
 303:lvgl/src/extra/themes/default/lv_theme_default.c ****     lv_style_set_pad_all(&styles->pad_normal, PAD_DEF);
 4063              		.loc 1 303 29 is_stmt 0 view .LVU1211
 4064 05e8 2068     		ldr	r0, [r4]
 303:lvgl/src/extra/themes/default/lv_theme_default.c ****     lv_style_set_pad_all(&styles->pad_normal, PAD_DEF);
 4065              		.loc 1 303 5 view .LVU1212
 4066 05ea 8030     		adds	r0, r0, #128
 4067 05ec FFF7FEFF 		bl	style_init_reset
 4068              	.LVL424:
 304:lvgl/src/extra/themes/default/lv_theme_default.c ****     lv_style_set_pad_row(&styles->pad_normal, PAD_DEF);
 4069              		.loc 1 304 5 is_stmt 1 view .LVU1213
 304:lvgl/src/extra/themes/default/lv_theme_default.c ****     lv_style_set_pad_row(&styles->pad_normal, PAD_DEF);
 4070              		.loc 1 304 33 is_stmt 0 view .LVU1214
 4071 05f0 2568     		ldr	r5, [r4]
 304:lvgl/src/extra/themes/default/lv_theme_default.c ****     lv_style_set_pad_row(&styles->pad_normal, PAD_DEF);
 4072              		.loc 1 304 5 view .LVU1215
 4073 05f2 8035     		adds	r5, r5, #128
 304:lvgl/src/extra/themes/default/lv_theme_default.c ****     lv_style_set_pad_row(&styles->pad_normal, PAD_DEF);
 4074              		.loc 1 304 47 view .LVU1216
 4075 05f4 124B     		ldr	r3, .L573
 4076 05f6 1B78     		ldrb	r3, [r3]	@ zero_extendqisi2
ARM GAS  /var/folders/k2/cd9bl_j17z77g23y6ffqb_400000gn/T//ccRoPncs.s 			page 132


 304:lvgl/src/extra/themes/default/lv_theme_default.c ****     lv_style_set_pad_row(&styles->pad_normal, PAD_DEF);
 4077              		.loc 1 304 5 view .LVU1217
 4078 05f8 012B     		cmp	r3, #1
 4079 05fa 01F0EF82 		beq	.L439
 304:lvgl/src/extra/themes/default/lv_theme_default.c ****     lv_style_set_pad_row(&styles->pad_normal, PAD_DEF);
 4080              		.loc 1 304 5 discriminator 2 view .LVU1218
 4081 05fe 022B     		cmp	r3, #2
 4082 0600 01F00983 		beq	.L440
 304:lvgl/src/extra/themes/default/lv_theme_default.c ****     lv_style_set_pad_row(&styles->pad_normal, PAD_DEF);
 4083              		.loc 1 304 47 discriminator 5 view .LVU1219
 4084 0604 0F4B     		ldr	r3, .L573+4
 4085 0606 DC68     		ldr	r4, [r3, #12]
 4086              	.LVL425:
 4087              	.LBB462:
 4088              	.LBI462:
 236:lvgl/src/extra/themes/default/../../../../src/core/lv_disp.h **** {
 4089              		.loc 3 236 26 is_stmt 1 discriminator 5 view .LVU1220
 4090              	.LBB463:
 4091              		.loc 3 238 5 discriminator 5 view .LVU1221
 4092              		.loc 3 238 12 is_stmt 0 discriminator 5 view .LVU1222
 4093 0608 2046     		mov	r0, r4
 4094 060a FFF7FEFF 		bl	lv_disp_get_dpi
 4095              	.LVL426:
 4096 060e 0001     		lsls	r0, r0, #4
 4097 0610 EF28     		cmp	r0, #239
 4098 0612 01F31D83 		bgt	.L441
 4099              		.loc 3 238 12 view .LVU1223
 4100 0616 0124     		movs	r4, #1
 4101              	.LVL427:
 4102              	.L154:
 4103              		.loc 3 238 12 view .LVU1224
 4104              	.LBE463:
 4105              	.LBE462:
 4106              	.LBB465:
 4107              	.LBI465:
 425:lvgl/src/extra/themes/default/../../../../src/core/../misc/lv_style.h ****     lv_style_set_pad_left(style, value);
 4108              		.loc 4 425 20 is_stmt 1 discriminator 8 view .LVU1225
 4109              	.LBB466:
 426:lvgl/src/extra/themes/default/../../../../src/core/../misc/lv_style.h ****     lv_style_set_pad_right(style, value);
 4110              		.loc 4 426 5 discriminator 8 view .LVU1226
 4111 0618 2146     		mov	r1, r4
 4112 061a 2846     		mov	r0, r5
 4113 061c FFF7FEFF 		bl	lv_style_set_pad_left
 4114              	.LVL428:
 427:lvgl/src/extra/themes/default/../../../../src/core/../misc/lv_style.h ****     lv_style_set_pad_top(style, value);
 4115              		.loc 4 427 5 discriminator 8 view .LVU1227
 4116 0620 2146     		mov	r1, r4
 4117 0622 2846     		mov	r0, r5
 4118 0624 FFF7FEFF 		bl	lv_style_set_pad_right
 4119              	.LVL429:
 428:lvgl/src/extra/themes/default/../../../../src/core/../misc/lv_style.h ****     lv_style_set_pad_bottom(style, value);
 4120              		.loc 4 428 5 discriminator 8 view .LVU1228
 4121 0628 2146     		mov	r1, r4
 4122 062a 2846     		mov	r0, r5
 4123 062c FFF7FEFF 		bl	lv_style_set_pad_top
 4124              	.LVL430:
 429:lvgl/src/extra/themes/default/../../../../src/core/../misc/lv_style.h **** }
ARM GAS  /var/folders/k2/cd9bl_j17z77g23y6ffqb_400000gn/T//ccRoPncs.s 			page 133


 4125              		.loc 4 429 5 discriminator 8 view .LVU1229
 4126 0630 2146     		mov	r1, r4
 4127 0632 2846     		mov	r0, r5
 4128 0634 FFF7FEFF 		bl	lv_style_set_pad_bottom
 4129              	.LVL431:
 429:lvgl/src/extra/themes/default/../../../../src/core/../misc/lv_style.h **** }
 4130              		.loc 4 429 5 is_stmt 0 discriminator 8 view .LVU1230
 4131              	.LBE466:
 4132              	.LBE465:
 305:lvgl/src/extra/themes/default/lv_theme_default.c ****     lv_style_set_pad_column(&styles->pad_normal, PAD_DEF);
 4133              		.loc 1 305 5 is_stmt 1 discriminator 8 view .LVU1231
 305:lvgl/src/extra/themes/default/lv_theme_default.c ****     lv_style_set_pad_column(&styles->pad_normal, PAD_DEF);
 4134              		.loc 1 305 33 is_stmt 0 discriminator 8 view .LVU1232
 4135 0638 034B     		ldr	r3, .L573+8
 4136 063a 1C68     		ldr	r4, [r3]
 305:lvgl/src/extra/themes/default/lv_theme_default.c ****     lv_style_set_pad_column(&styles->pad_normal, PAD_DEF);
 4137              		.loc 1 305 5 discriminator 8 view .LVU1233
 4138 063c 8034     		adds	r4, r4, #128
 4139 063e 11E0     		b	.L574
 4140              	.L575:
 4141              		.align	2
 4142              	.L573:
 4143 0640 00000000 		.word	.LANCHOR1
 4144 0644 00000000 		.word	.LANCHOR3
 4145 0648 00000000 		.word	.LANCHOR0
 4146 064c 00000000 		.word	.LANCHOR7
 4147 0650 00000000 		.word	.LANCHOR5
 4148 0654 00000000 		.word	.LANCHOR11
 4149 0658 00000000 		.word	dark_color_filter_cb
 4150 065c 00000000 		.word	.LANCHOR12
 4151 0660 00000000 		.word	grey_filter_cb
 4152              	.L574:
 305:lvgl/src/extra/themes/default/lv_theme_default.c ****     lv_style_set_pad_column(&styles->pad_normal, PAD_DEF);
 4153              		.loc 1 305 47 discriminator 8 view .LVU1234
 4154 0664 C64B     		ldr	r3, .L576
 4155 0666 1B78     		ldrb	r3, [r3]	@ zero_extendqisi2
 305:lvgl/src/extra/themes/default/lv_theme_default.c ****     lv_style_set_pad_column(&styles->pad_normal, PAD_DEF);
 4156              		.loc 1 305 5 discriminator 8 view .LVU1235
 4157 0668 012B     		cmp	r3, #1
 4158 066a 01F0FF82 		beq	.L442
 305:lvgl/src/extra/themes/default/lv_theme_default.c ****     lv_style_set_pad_column(&styles->pad_normal, PAD_DEF);
 4159              		.loc 1 305 5 discriminator 2 view .LVU1236
 4160 066e 022B     		cmp	r3, #2
 4161 0670 01F01983 		beq	.L443
 305:lvgl/src/extra/themes/default/lv_theme_default.c ****     lv_style_set_pad_column(&styles->pad_normal, PAD_DEF);
 4162              		.loc 1 305 47 discriminator 5 view .LVU1237
 4163 0674 C34B     		ldr	r3, .L576+4
 4164 0676 DD68     		ldr	r5, [r3, #12]
 4165              	.LVL432:
 4166              	.LBB467:
 4167              	.LBI467:
 236:lvgl/src/extra/themes/default/../../../../src/core/lv_disp.h **** {
 4168              		.loc 3 236 26 is_stmt 1 discriminator 5 view .LVU1238
 4169              	.LBB468:
 4170              		.loc 3 238 5 discriminator 5 view .LVU1239
 4171              		.loc 3 238 12 is_stmt 0 discriminator 5 view .LVU1240
 4172 0678 2846     		mov	r0, r5
ARM GAS  /var/folders/k2/cd9bl_j17z77g23y6ffqb_400000gn/T//ccRoPncs.s 			page 134


 4173 067a FFF7FEFF 		bl	lv_disp_get_dpi
 4174              	.LVL433:
 4175 067e 0001     		lsls	r0, r0, #4
 4176 0680 EF28     		cmp	r0, #239
 4177 0682 01F32D83 		bgt	.L444
 4178              		.loc 3 238 12 view .LVU1241
 4179 0686 0121     		movs	r1, #1
 4180              	.LVL434:
 4181              	.L160:
 4182              		.loc 3 238 12 view .LVU1242
 4183              	.LBE468:
 4184              	.LBE467:
 305:lvgl/src/extra/themes/default/lv_theme_default.c ****     lv_style_set_pad_column(&styles->pad_normal, PAD_DEF);
 4185              		.loc 1 305 5 discriminator 8 view .LVU1243
 4186 0688 2046     		mov	r0, r4
 4187 068a FFF7FEFF 		bl	lv_style_set_pad_row
 4188              	.LVL435:
 306:lvgl/src/extra/themes/default/lv_theme_default.c **** 
 4189              		.loc 1 306 5 is_stmt 1 discriminator 8 view .LVU1244
 306:lvgl/src/extra/themes/default/lv_theme_default.c **** 
 4190              		.loc 1 306 36 is_stmt 0 discriminator 8 view .LVU1245
 4191 068e BE4B     		ldr	r3, .L576+8
 4192 0690 1C68     		ldr	r4, [r3]
 306:lvgl/src/extra/themes/default/lv_theme_default.c **** 
 4193              		.loc 1 306 5 discriminator 8 view .LVU1246
 4194 0692 8034     		adds	r4, r4, #128
 306:lvgl/src/extra/themes/default/lv_theme_default.c **** 
 4195              		.loc 1 306 50 discriminator 8 view .LVU1247
 4196 0694 BA4B     		ldr	r3, .L576
 4197 0696 1B78     		ldrb	r3, [r3]	@ zero_extendqisi2
 306:lvgl/src/extra/themes/default/lv_theme_default.c **** 
 4198              		.loc 1 306 5 discriminator 8 view .LVU1248
 4199 0698 012B     		cmp	r3, #1
 4200 069a 01F02F83 		beq	.L445
 306:lvgl/src/extra/themes/default/lv_theme_default.c **** 
 4201              		.loc 1 306 5 discriminator 2 view .LVU1249
 4202 069e 022B     		cmp	r3, #2
 4203 06a0 01F04983 		beq	.L446
 306:lvgl/src/extra/themes/default/lv_theme_default.c **** 
 4204              		.loc 1 306 50 discriminator 5 view .LVU1250
 4205 06a4 B74B     		ldr	r3, .L576+4
 4206 06a6 DD68     		ldr	r5, [r3, #12]
 4207              	.LVL436:
 4208              	.LBB470:
 4209              	.LBI470:
 236:lvgl/src/extra/themes/default/../../../../src/core/lv_disp.h **** {
 4210              		.loc 3 236 26 is_stmt 1 discriminator 5 view .LVU1251
 4211              	.LBB471:
 4212              		.loc 3 238 5 discriminator 5 view .LVU1252
 4213              		.loc 3 238 12 is_stmt 0 discriminator 5 view .LVU1253
 4214 06a8 2846     		mov	r0, r5
 4215 06aa FFF7FEFF 		bl	lv_disp_get_dpi
 4216              	.LVL437:
 4217 06ae 0001     		lsls	r0, r0, #4
 4218 06b0 EF28     		cmp	r0, #239
 4219 06b2 01F36183 		bgt	.L447
 4220              		.loc 3 238 12 view .LVU1254
ARM GAS  /var/folders/k2/cd9bl_j17z77g23y6ffqb_400000gn/T//ccRoPncs.s 			page 135


 4221 06b6 0121     		movs	r1, #1
 4222              	.LVL438:
 4223              	.L166:
 4224              		.loc 3 238 12 view .LVU1255
 4225              	.LBE471:
 4226              	.LBE470:
 306:lvgl/src/extra/themes/default/lv_theme_default.c **** 
 4227              		.loc 1 306 5 discriminator 8 view .LVU1256
 4228 06b8 2046     		mov	r0, r4
 4229 06ba FFF7FEFF 		bl	lv_style_set_pad_column
 4230              	.LVL439:
 308:lvgl/src/extra/themes/default/lv_theme_default.c ****     lv_style_set_pad_all(&styles->pad_small, PAD_SMALL);
 4231              		.loc 1 308 5 is_stmt 1 discriminator 8 view .LVU1257
 308:lvgl/src/extra/themes/default/lv_theme_default.c ****     lv_style_set_pad_all(&styles->pad_small, PAD_SMALL);
 4232              		.loc 1 308 29 is_stmt 0 discriminator 8 view .LVU1258
 4233 06be B24C     		ldr	r4, .L576+8
 4234 06c0 2068     		ldr	r0, [r4]
 308:lvgl/src/extra/themes/default/lv_theme_default.c ****     lv_style_set_pad_all(&styles->pad_small, PAD_SMALL);
 4235              		.loc 1 308 5 discriminator 8 view .LVU1259
 4236 06c2 7830     		adds	r0, r0, #120
 4237 06c4 FFF7FEFF 		bl	style_init_reset
 4238              	.LVL440:
 309:lvgl/src/extra/themes/default/lv_theme_default.c ****     lv_style_set_pad_gap(&styles->pad_small, PAD_SMALL);
 4239              		.loc 1 309 5 is_stmt 1 discriminator 8 view .LVU1260
 309:lvgl/src/extra/themes/default/lv_theme_default.c ****     lv_style_set_pad_gap(&styles->pad_small, PAD_SMALL);
 4240              		.loc 1 309 33 is_stmt 0 discriminator 8 view .LVU1261
 4241 06c8 2568     		ldr	r5, [r4]
 309:lvgl/src/extra/themes/default/lv_theme_default.c ****     lv_style_set_pad_gap(&styles->pad_small, PAD_SMALL);
 4242              		.loc 1 309 5 discriminator 8 view .LVU1262
 4243 06ca 7835     		adds	r5, r5, #120
 309:lvgl/src/extra/themes/default/lv_theme_default.c ****     lv_style_set_pad_gap(&styles->pad_small, PAD_SMALL);
 4244              		.loc 1 309 46 discriminator 8 view .LVU1263
 4245 06cc AC4B     		ldr	r3, .L576
 4246 06ce 1B78     		ldrb	r3, [r3]	@ zero_extendqisi2
 309:lvgl/src/extra/themes/default/lv_theme_default.c ****     lv_style_set_pad_gap(&styles->pad_small, PAD_SMALL);
 4247              		.loc 1 309 5 discriminator 8 view .LVU1264
 4248 06d0 012B     		cmp	r3, #1
 4249 06d2 01F05F83 		beq	.L448
 309:lvgl/src/extra/themes/default/lv_theme_default.c ****     lv_style_set_pad_gap(&styles->pad_small, PAD_SMALL);
 4250              		.loc 1 309 5 discriminator 2 view .LVU1265
 4251 06d6 022B     		cmp	r3, #2
 4252 06d8 01F07983 		beq	.L449
 309:lvgl/src/extra/themes/default/lv_theme_default.c ****     lv_style_set_pad_gap(&styles->pad_small, PAD_SMALL);
 4253              		.loc 1 309 46 discriminator 5 view .LVU1266
 4254 06dc A94B     		ldr	r3, .L576+4
 4255 06de DC68     		ldr	r4, [r3, #12]
 4256              	.LVL441:
 4257              	.LBB473:
 4258              	.LBI473:
 236:lvgl/src/extra/themes/default/../../../../src/core/lv_disp.h **** {
 4259              		.loc 3 236 26 is_stmt 1 discriminator 5 view .LVU1267
 4260              	.LBB474:
 4261              		.loc 3 238 5 discriminator 5 view .LVU1268
 4262              		.loc 3 238 12 is_stmt 0 discriminator 5 view .LVU1269
 4263 06e0 2046     		mov	r0, r4
 4264 06e2 FFF7FEFF 		bl	lv_disp_get_dpi
 4265              	.LVL442:
ARM GAS  /var/folders/k2/cd9bl_j17z77g23y6ffqb_400000gn/T//ccRoPncs.s 			page 136


 4266 06e6 00EB8000 		add	r0, r0, r0, lsl #2
 4267 06ea 4000     		lsls	r0, r0, #1
 4268 06ec EF28     		cmp	r0, #239
 4269 06ee 01F38B83 		bgt	.L450
 4270              		.loc 3 238 12 view .LVU1270
 4271 06f2 0124     		movs	r4, #1
 4272              	.LVL443:
 4273              	.L172:
 4274              		.loc 3 238 12 view .LVU1271
 4275              	.LBE474:
 4276              	.LBE473:
 4277              	.LBB476:
 4278              	.LBI476:
 425:lvgl/src/extra/themes/default/../../../../src/core/../misc/lv_style.h ****     lv_style_set_pad_left(style, value);
 4279              		.loc 4 425 20 is_stmt 1 discriminator 8 view .LVU1272
 4280              	.LBB477:
 426:lvgl/src/extra/themes/default/../../../../src/core/../misc/lv_style.h ****     lv_style_set_pad_right(style, value);
 4281              		.loc 4 426 5 discriminator 8 view .LVU1273
 4282 06f4 2146     		mov	r1, r4
 4283 06f6 2846     		mov	r0, r5
 4284 06f8 FFF7FEFF 		bl	lv_style_set_pad_left
 4285              	.LVL444:
 427:lvgl/src/extra/themes/default/../../../../src/core/../misc/lv_style.h ****     lv_style_set_pad_top(style, value);
 4286              		.loc 4 427 5 discriminator 8 view .LVU1274
 4287 06fc 2146     		mov	r1, r4
 4288 06fe 2846     		mov	r0, r5
 4289 0700 FFF7FEFF 		bl	lv_style_set_pad_right
 4290              	.LVL445:
 428:lvgl/src/extra/themes/default/../../../../src/core/../misc/lv_style.h ****     lv_style_set_pad_bottom(style, value);
 4291              		.loc 4 428 5 discriminator 8 view .LVU1275
 4292 0704 2146     		mov	r1, r4
 4293 0706 2846     		mov	r0, r5
 4294 0708 FFF7FEFF 		bl	lv_style_set_pad_top
 4295              	.LVL446:
 429:lvgl/src/extra/themes/default/../../../../src/core/../misc/lv_style.h **** }
 4296              		.loc 4 429 5 discriminator 8 view .LVU1276
 4297 070c 2146     		mov	r1, r4
 4298 070e 2846     		mov	r0, r5
 4299 0710 FFF7FEFF 		bl	lv_style_set_pad_bottom
 4300              	.LVL447:
 429:lvgl/src/extra/themes/default/../../../../src/core/../misc/lv_style.h **** }
 4301              		.loc 4 429 5 is_stmt 0 discriminator 8 view .LVU1277
 4302              	.LBE477:
 4303              	.LBE476:
 310:lvgl/src/extra/themes/default/lv_theme_default.c **** 
 4304              		.loc 1 310 5 is_stmt 1 discriminator 8 view .LVU1278
 310:lvgl/src/extra/themes/default/lv_theme_default.c **** 
 4305              		.loc 1 310 33 is_stmt 0 discriminator 8 view .LVU1279
 4306 0714 9C4B     		ldr	r3, .L576+8
 4307 0716 1D68     		ldr	r5, [r3]
 310:lvgl/src/extra/themes/default/lv_theme_default.c **** 
 4308              		.loc 1 310 5 discriminator 8 view .LVU1280
 4309 0718 7835     		adds	r5, r5, #120
 310:lvgl/src/extra/themes/default/lv_theme_default.c **** 
 4310              		.loc 1 310 46 discriminator 8 view .LVU1281
 4311 071a 994B     		ldr	r3, .L576
 4312 071c 1B78     		ldrb	r3, [r3]	@ zero_extendqisi2
ARM GAS  /var/folders/k2/cd9bl_j17z77g23y6ffqb_400000gn/T//ccRoPncs.s 			page 137


 310:lvgl/src/extra/themes/default/lv_theme_default.c **** 
 4313              		.loc 1 310 5 discriminator 8 view .LVU1282
 4314 071e 012B     		cmp	r3, #1
 4315 0720 01F08283 		beq	.L451
 310:lvgl/src/extra/themes/default/lv_theme_default.c **** 
 4316              		.loc 1 310 5 discriminator 2 view .LVU1283
 4317 0724 022B     		cmp	r3, #2
 4318 0726 01F09C83 		beq	.L452
 310:lvgl/src/extra/themes/default/lv_theme_default.c **** 
 4319              		.loc 1 310 46 discriminator 5 view .LVU1284
 4320 072a 964B     		ldr	r3, .L576+4
 4321 072c DC68     		ldr	r4, [r3, #12]
 4322              	.LVL448:
 4323              	.LBB478:
 4324              	.LBI478:
 236:lvgl/src/extra/themes/default/../../../../src/core/lv_disp.h **** {
 4325              		.loc 3 236 26 is_stmt 1 discriminator 5 view .LVU1285
 4326              	.LBB479:
 4327              		.loc 3 238 5 discriminator 5 view .LVU1286
 4328              		.loc 3 238 12 is_stmt 0 discriminator 5 view .LVU1287
 4329 072e 2046     		mov	r0, r4
 4330 0730 FFF7FEFF 		bl	lv_disp_get_dpi
 4331              	.LVL449:
 4332 0734 00EB8000 		add	r0, r0, r0, lsl #2
 4333 0738 4000     		lsls	r0, r0, #1
 4334 073a EF28     		cmp	r0, #239
 4335 073c 01F3AE83 		bgt	.L453
 4336              		.loc 3 238 12 view .LVU1288
 4337 0740 0124     		movs	r4, #1
 4338              	.LVL450:
 4339              	.L178:
 4340              		.loc 3 238 12 view .LVU1289
 4341              	.LBE479:
 4342              	.LBE478:
 4343              	.LBB481:
 4344              	.LBI481:
 442:lvgl/src/extra/themes/default/../../../../src/core/../misc/lv_style.h ****     lv_style_set_pad_row(style, value);
 4345              		.loc 4 442 20 is_stmt 1 discriminator 8 view .LVU1290
 4346              	.LBB482:
 443:lvgl/src/extra/themes/default/../../../../src/core/../misc/lv_style.h ****     lv_style_set_pad_column(style, value);
 4347              		.loc 4 443 5 discriminator 8 view .LVU1291
 4348 0742 2146     		mov	r1, r4
 4349 0744 2846     		mov	r0, r5
 4350 0746 FFF7FEFF 		bl	lv_style_set_pad_row
 4351              	.LVL451:
 444:lvgl/src/extra/themes/default/../../../../src/core/../misc/lv_style.h **** }
 4352              		.loc 4 444 5 discriminator 8 view .LVU1292
 4353 074a 2146     		mov	r1, r4
 4354 074c 2846     		mov	r0, r5
 4355 074e FFF7FEFF 		bl	lv_style_set_pad_column
 4356              	.LVL452:
 444:lvgl/src/extra/themes/default/../../../../src/core/../misc/lv_style.h **** }
 4357              		.loc 4 444 5 is_stmt 0 discriminator 8 view .LVU1293
 4358              	.LBE482:
 4359              	.LBE481:
 312:lvgl/src/extra/themes/default/lv_theme_default.c ****     lv_style_set_pad_row(&styles->pad_gap, lv_disp_dpx(theme.disp, 10));
 4360              		.loc 1 312 5 is_stmt 1 discriminator 8 view .LVU1294
ARM GAS  /var/folders/k2/cd9bl_j17z77g23y6ffqb_400000gn/T//ccRoPncs.s 			page 138


 312:lvgl/src/extra/themes/default/lv_theme_default.c ****     lv_style_set_pad_row(&styles->pad_gap, lv_disp_dpx(theme.disp, 10));
 4361              		.loc 1 312 29 is_stmt 0 discriminator 8 view .LVU1295
 4362 0752 8D4C     		ldr	r4, .L576+8
 4363 0754 2068     		ldr	r0, [r4]
 312:lvgl/src/extra/themes/default/lv_theme_default.c ****     lv_style_set_pad_row(&styles->pad_gap, lv_disp_dpx(theme.disp, 10));
 4364              		.loc 1 312 5 discriminator 8 view .LVU1296
 4365 0756 8830     		adds	r0, r0, #136
 4366 0758 FFF7FEFF 		bl	style_init_reset
 4367              	.LVL453:
 313:lvgl/src/extra/themes/default/lv_theme_default.c ****     lv_style_set_pad_column(&styles->pad_gap, lv_disp_dpx(theme.disp, 10));
 4368              		.loc 1 313 5 is_stmt 1 discriminator 8 view .LVU1297
 313:lvgl/src/extra/themes/default/lv_theme_default.c ****     lv_style_set_pad_column(&styles->pad_gap, lv_disp_dpx(theme.disp, 10));
 4369              		.loc 1 313 33 is_stmt 0 discriminator 8 view .LVU1298
 4370 075c 2468     		ldr	r4, [r4]
 313:lvgl/src/extra/themes/default/lv_theme_default.c ****     lv_style_set_pad_column(&styles->pad_gap, lv_disp_dpx(theme.disp, 10));
 4371              		.loc 1 313 5 discriminator 8 view .LVU1299
 4372 075e 8834     		adds	r4, r4, #136
 313:lvgl/src/extra/themes/default/lv_theme_default.c ****     lv_style_set_pad_column(&styles->pad_gap, lv_disp_dpx(theme.disp, 10));
 4373              		.loc 1 313 61 discriminator 8 view .LVU1300
 4374 0760 884B     		ldr	r3, .L576+4
 4375 0762 DD68     		ldr	r5, [r3, #12]
 4376              	.LVL454:
 4377              	.LBB483:
 4378              	.LBI483:
 236:lvgl/src/extra/themes/default/../../../../src/core/lv_disp.h **** {
 4379              		.loc 3 236 26 is_stmt 1 discriminator 8 view .LVU1301
 4380              	.LBB484:
 4381              		.loc 3 238 5 discriminator 8 view .LVU1302
 4382              		.loc 3 238 12 is_stmt 0 discriminator 8 view .LVU1303
 4383 0764 2846     		mov	r0, r5
 4384 0766 FFF7FEFF 		bl	lv_disp_get_dpi
 4385              	.LVL455:
 4386 076a 00EB8000 		add	r0, r0, r0, lsl #2
 4387 076e 4000     		lsls	r0, r0, #1
 4388 0770 EF28     		cmp	r0, #239
 4389 0772 01F3A383 		bgt	.L454
 4390              		.loc 3 238 12 view .LVU1304
 4391 0776 0121     		movs	r1, #1
 4392              	.L182:
 4393              	.LVL456:
 4394              		.loc 3 238 12 view .LVU1305
 4395              	.LBE484:
 4396              	.LBE483:
 313:lvgl/src/extra/themes/default/lv_theme_default.c ****     lv_style_set_pad_column(&styles->pad_gap, lv_disp_dpx(theme.disp, 10));
 4397              		.loc 1 313 5 view .LVU1306
 4398 0778 2046     		mov	r0, r4
 4399 077a FFF7FEFF 		bl	lv_style_set_pad_row
 4400              	.LVL457:
 314:lvgl/src/extra/themes/default/lv_theme_default.c **** 
 4401              		.loc 1 314 5 is_stmt 1 view .LVU1307
 314:lvgl/src/extra/themes/default/lv_theme_default.c **** 
 4402              		.loc 1 314 36 is_stmt 0 view .LVU1308
 4403 077e 824B     		ldr	r3, .L576+8
 4404 0780 1C68     		ldr	r4, [r3]
 314:lvgl/src/extra/themes/default/lv_theme_default.c **** 
 4405              		.loc 1 314 5 view .LVU1309
 4406 0782 8834     		adds	r4, r4, #136
ARM GAS  /var/folders/k2/cd9bl_j17z77g23y6ffqb_400000gn/T//ccRoPncs.s 			page 139


 314:lvgl/src/extra/themes/default/lv_theme_default.c **** 
 4407              		.loc 1 314 64 view .LVU1310
 4408 0784 7F4B     		ldr	r3, .L576+4
 4409 0786 DD68     		ldr	r5, [r3, #12]
 4410              	.LVL458:
 4411              	.LBB486:
 4412              	.LBI486:
 236:lvgl/src/extra/themes/default/../../../../src/core/lv_disp.h **** {
 4413              		.loc 3 236 26 is_stmt 1 view .LVU1311
 4414              	.LBB487:
 4415              		.loc 3 238 5 view .LVU1312
 4416              		.loc 3 238 12 is_stmt 0 view .LVU1313
 4417 0788 2846     		mov	r0, r5
 4418 078a FFF7FEFF 		bl	lv_disp_get_dpi
 4419              	.LVL459:
 4420 078e 00EB8000 		add	r0, r0, r0, lsl #2
 4421 0792 4000     		lsls	r0, r0, #1
 4422 0794 EF28     		cmp	r0, #239
 4423 0796 01F3A183 		bgt	.L455
 4424 079a 0121     		movs	r1, #1
 4425              	.L183:
 4426              	.LVL460:
 4427              		.loc 3 238 12 view .LVU1314
 4428              	.LBE487:
 4429              	.LBE486:
 314:lvgl/src/extra/themes/default/lv_theme_default.c **** 
 4430              		.loc 1 314 5 view .LVU1315
 4431 079c 2046     		mov	r0, r4
 4432 079e FFF7FEFF 		bl	lv_style_set_pad_column
 4433              	.LVL461:
 316:lvgl/src/extra/themes/default/lv_theme_default.c ****     lv_style_set_text_line_space(&styles->line_space_large, lv_disp_dpx(theme.disp, 20));
 4434              		.loc 1 316 5 is_stmt 1 view .LVU1316
 316:lvgl/src/extra/themes/default/lv_theme_default.c ****     lv_style_set_text_line_space(&styles->line_space_large, lv_disp_dpx(theme.disp, 20));
 4435              		.loc 1 316 29 is_stmt 0 view .LVU1317
 4436 07a2 794C     		ldr	r4, .L576+8
 4437 07a4 2068     		ldr	r0, [r4]
 316:lvgl/src/extra/themes/default/lv_theme_default.c ****     lv_style_set_text_line_space(&styles->line_space_large, lv_disp_dpx(theme.disp, 20));
 4438              		.loc 1 316 5 view .LVU1318
 4439 07a6 9030     		adds	r0, r0, #144
 4440 07a8 FFF7FEFF 		bl	style_init_reset
 4441              	.LVL462:
 317:lvgl/src/extra/themes/default/lv_theme_default.c **** 
 4442              		.loc 1 317 5 is_stmt 1 view .LVU1319
 317:lvgl/src/extra/themes/default/lv_theme_default.c **** 
 4443              		.loc 1 317 41 is_stmt 0 view .LVU1320
 4444 07ac 2468     		ldr	r4, [r4]
 317:lvgl/src/extra/themes/default/lv_theme_default.c **** 
 4445              		.loc 1 317 5 view .LVU1321
 4446 07ae 9034     		adds	r4, r4, #144
 317:lvgl/src/extra/themes/default/lv_theme_default.c **** 
 4447              		.loc 1 317 78 view .LVU1322
 4448 07b0 744B     		ldr	r3, .L576+4
 4449 07b2 DD68     		ldr	r5, [r3, #12]
 4450              	.LVL463:
 4451              	.LBB489:
 4452              	.LBI489:
 236:lvgl/src/extra/themes/default/../../../../src/core/lv_disp.h **** {
ARM GAS  /var/folders/k2/cd9bl_j17z77g23y6ffqb_400000gn/T//ccRoPncs.s 			page 140


 4453              		.loc 3 236 26 is_stmt 1 view .LVU1323
 4454              	.LBB490:
 4455              		.loc 3 238 5 view .LVU1324
 4456              		.loc 3 238 12 is_stmt 0 view .LVU1325
 4457 07b4 2846     		mov	r0, r5
 4458 07b6 FFF7FEFF 		bl	lv_disp_get_dpi
 4459              	.LVL464:
 4460 07ba 00EB8000 		add	r0, r0, r0, lsl #2
 4461 07be 8000     		lsls	r0, r0, #2
 4462 07c0 EF28     		cmp	r0, #239
 4463 07c2 01F39B83 		bgt	.L456
 4464 07c6 0121     		movs	r1, #1
 4465              	.L184:
 4466              	.LVL465:
 4467              		.loc 3 238 12 view .LVU1326
 4468              	.LBE490:
 4469              	.LBE489:
 317:lvgl/src/extra/themes/default/lv_theme_default.c **** 
 4470              		.loc 1 317 5 view .LVU1327
 4471 07c8 2046     		mov	r0, r4
 4472 07ca FFF7FEFF 		bl	lv_style_set_text_line_space
 4473              	.LVL466:
 319:lvgl/src/extra/themes/default/lv_theme_default.c ****     lv_style_set_text_align(&styles->text_align_center, LV_TEXT_ALIGN_CENTER);
 4474              		.loc 1 319 5 is_stmt 1 view .LVU1328
 319:lvgl/src/extra/themes/default/lv_theme_default.c ****     lv_style_set_text_align(&styles->text_align_center, LV_TEXT_ALIGN_CENTER);
 4475              		.loc 1 319 29 is_stmt 0 view .LVU1329
 4476 07ce 6E4C     		ldr	r4, .L576+8
 4477 07d0 2068     		ldr	r0, [r4]
 319:lvgl/src/extra/themes/default/lv_theme_default.c ****     lv_style_set_text_align(&styles->text_align_center, LV_TEXT_ALIGN_CENTER);
 4478              		.loc 1 319 5 view .LVU1330
 4479 07d2 9830     		adds	r0, r0, #152
 4480 07d4 FFF7FEFF 		bl	style_init_reset
 4481              	.LVL467:
 320:lvgl/src/extra/themes/default/lv_theme_default.c **** 
 4482              		.loc 1 320 5 is_stmt 1 view .LVU1331
 320:lvgl/src/extra/themes/default/lv_theme_default.c **** 
 4483              		.loc 1 320 36 is_stmt 0 view .LVU1332
 4484 07d8 2068     		ldr	r0, [r4]
 320:lvgl/src/extra/themes/default/lv_theme_default.c **** 
 4485              		.loc 1 320 5 view .LVU1333
 4486 07da 0221     		movs	r1, #2
 4487 07dc 9830     		adds	r0, r0, #152
 4488 07de FFF7FEFF 		bl	lv_style_set_text_align
 4489              	.LVL468:
 322:lvgl/src/extra/themes/default/lv_theme_default.c ****     lv_style_set_pad_all(&styles->pad_zero, 0);
 4490              		.loc 1 322 5 is_stmt 1 view .LVU1334
 322:lvgl/src/extra/themes/default/lv_theme_default.c ****     lv_style_set_pad_all(&styles->pad_zero, 0);
 4491              		.loc 1 322 29 is_stmt 0 view .LVU1335
 4492 07e2 2068     		ldr	r0, [r4]
 322:lvgl/src/extra/themes/default/lv_theme_default.c ****     lv_style_set_pad_all(&styles->pad_zero, 0);
 4493              		.loc 1 322 5 view .LVU1336
 4494 07e4 6830     		adds	r0, r0, #104
 4495 07e6 FFF7FEFF 		bl	style_init_reset
 4496              	.LVL469:
 323:lvgl/src/extra/themes/default/lv_theme_default.c ****     lv_style_set_pad_row(&styles->pad_zero, 0);
 4497              		.loc 1 323 5 is_stmt 1 view .LVU1337
 323:lvgl/src/extra/themes/default/lv_theme_default.c ****     lv_style_set_pad_row(&styles->pad_zero, 0);
ARM GAS  /var/folders/k2/cd9bl_j17z77g23y6ffqb_400000gn/T//ccRoPncs.s 			page 141


 4498              		.loc 1 323 33 is_stmt 0 view .LVU1338
 4499 07ea 2568     		ldr	r5, [r4]
 323:lvgl/src/extra/themes/default/lv_theme_default.c ****     lv_style_set_pad_row(&styles->pad_zero, 0);
 4500              		.loc 1 323 5 view .LVU1339
 4501 07ec 6835     		adds	r5, r5, #104
 4502              	.LVL470:
 4503              	.LBB492:
 4504              	.LBI492:
 425:lvgl/src/extra/themes/default/../../../../src/core/../misc/lv_style.h ****     lv_style_set_pad_left(style, value);
 4505              		.loc 4 425 20 is_stmt 1 view .LVU1340
 4506              	.LBB493:
 426:lvgl/src/extra/themes/default/../../../../src/core/../misc/lv_style.h ****     lv_style_set_pad_right(style, value);
 4507              		.loc 4 426 5 view .LVU1341
 4508 07ee 0021     		movs	r1, #0
 4509 07f0 2846     		mov	r0, r5
 4510 07f2 FFF7FEFF 		bl	lv_style_set_pad_left
 4511              	.LVL471:
 427:lvgl/src/extra/themes/default/../../../../src/core/../misc/lv_style.h ****     lv_style_set_pad_top(style, value);
 4512              		.loc 4 427 5 view .LVU1342
 4513 07f6 0021     		movs	r1, #0
 4514 07f8 2846     		mov	r0, r5
 4515 07fa FFF7FEFF 		bl	lv_style_set_pad_right
 4516              	.LVL472:
 428:lvgl/src/extra/themes/default/../../../../src/core/../misc/lv_style.h ****     lv_style_set_pad_bottom(style, value);
 4517              		.loc 4 428 5 view .LVU1343
 4518 07fe 0021     		movs	r1, #0
 4519 0800 2846     		mov	r0, r5
 4520 0802 FFF7FEFF 		bl	lv_style_set_pad_top
 4521              	.LVL473:
 429:lvgl/src/extra/themes/default/../../../../src/core/../misc/lv_style.h **** }
 4522              		.loc 4 429 5 view .LVU1344
 4523 0806 0021     		movs	r1, #0
 4524 0808 2846     		mov	r0, r5
 4525 080a FFF7FEFF 		bl	lv_style_set_pad_bottom
 4526              	.LVL474:
 429:lvgl/src/extra/themes/default/../../../../src/core/../misc/lv_style.h **** }
 4527              		.loc 4 429 5 is_stmt 0 view .LVU1345
 4528              	.LBE493:
 4529              	.LBE492:
 324:lvgl/src/extra/themes/default/lv_theme_default.c ****     lv_style_set_pad_column(&styles->pad_zero, 0);
 4530              		.loc 1 324 5 is_stmt 1 view .LVU1346
 324:lvgl/src/extra/themes/default/lv_theme_default.c ****     lv_style_set_pad_column(&styles->pad_zero, 0);
 4531              		.loc 1 324 33 is_stmt 0 view .LVU1347
 4532 080e 2068     		ldr	r0, [r4]
 324:lvgl/src/extra/themes/default/lv_theme_default.c ****     lv_style_set_pad_column(&styles->pad_zero, 0);
 4533              		.loc 1 324 5 view .LVU1348
 4534 0810 0021     		movs	r1, #0
 4535 0812 6830     		adds	r0, r0, #104
 4536 0814 FFF7FEFF 		bl	lv_style_set_pad_row
 4537              	.LVL475:
 325:lvgl/src/extra/themes/default/lv_theme_default.c **** 
 4538              		.loc 1 325 5 is_stmt 1 view .LVU1349
 325:lvgl/src/extra/themes/default/lv_theme_default.c **** 
 4539              		.loc 1 325 36 is_stmt 0 view .LVU1350
 4540 0818 2068     		ldr	r0, [r4]
 325:lvgl/src/extra/themes/default/lv_theme_default.c **** 
 4541              		.loc 1 325 5 view .LVU1351
ARM GAS  /var/folders/k2/cd9bl_j17z77g23y6ffqb_400000gn/T//ccRoPncs.s 			page 142


 4542 081a 0021     		movs	r1, #0
 4543 081c 6830     		adds	r0, r0, #104
 4544 081e FFF7FEFF 		bl	lv_style_set_pad_column
 4545              	.LVL476:
 327:lvgl/src/extra/themes/default/lv_theme_default.c ****     lv_style_set_pad_all(&styles->pad_tiny, PAD_TINY);
 4546              		.loc 1 327 5 is_stmt 1 view .LVU1352
 327:lvgl/src/extra/themes/default/lv_theme_default.c ****     lv_style_set_pad_all(&styles->pad_tiny, PAD_TINY);
 4547              		.loc 1 327 29 is_stmt 0 view .LVU1353
 4548 0822 2068     		ldr	r0, [r4]
 327:lvgl/src/extra/themes/default/lv_theme_default.c ****     lv_style_set_pad_all(&styles->pad_tiny, PAD_TINY);
 4549              		.loc 1 327 5 view .LVU1354
 4550 0824 7030     		adds	r0, r0, #112
 4551 0826 FFF7FEFF 		bl	style_init_reset
 4552              	.LVL477:
 328:lvgl/src/extra/themes/default/lv_theme_default.c ****     lv_style_set_pad_row(&styles->pad_tiny, PAD_TINY);
 4553              		.loc 1 328 5 is_stmt 1 view .LVU1355
 328:lvgl/src/extra/themes/default/lv_theme_default.c ****     lv_style_set_pad_row(&styles->pad_tiny, PAD_TINY);
 4554              		.loc 1 328 33 is_stmt 0 view .LVU1356
 4555 082a 2568     		ldr	r5, [r4]
 328:lvgl/src/extra/themes/default/lv_theme_default.c ****     lv_style_set_pad_row(&styles->pad_tiny, PAD_TINY);
 4556              		.loc 1 328 5 view .LVU1357
 4557 082c 7035     		adds	r5, r5, #112
 328:lvgl/src/extra/themes/default/lv_theme_default.c ****     lv_style_set_pad_row(&styles->pad_tiny, PAD_TINY);
 4558              		.loc 1 328 45 view .LVU1358
 4559 082e 544B     		ldr	r3, .L576
 4560 0830 1B78     		ldrb	r3, [r3]	@ zero_extendqisi2
 328:lvgl/src/extra/themes/default/lv_theme_default.c ****     lv_style_set_pad_row(&styles->pad_tiny, PAD_TINY);
 4561              		.loc 1 328 5 view .LVU1359
 4562 0832 012B     		cmp	r3, #1
 4563 0834 01F07283 		beq	.L457
 328:lvgl/src/extra/themes/default/lv_theme_default.c ****     lv_style_set_pad_row(&styles->pad_tiny, PAD_TINY);
 4564              		.loc 1 328 5 discriminator 2 view .LVU1360
 4565 0838 022B     		cmp	r3, #2
 4566 083a 01F08883 		beq	.L458
 328:lvgl/src/extra/themes/default/lv_theme_default.c ****     lv_style_set_pad_row(&styles->pad_tiny, PAD_TINY);
 4567              		.loc 1 328 45 discriminator 5 view .LVU1361
 4568 083e 514B     		ldr	r3, .L576+4
 4569 0840 DC68     		ldr	r4, [r3, #12]
 4570              	.LVL478:
 4571              	.LBB494:
 4572              	.LBI494:
 236:lvgl/src/extra/themes/default/../../../../src/core/lv_disp.h **** {
 4573              		.loc 3 236 26 is_stmt 1 discriminator 5 view .LVU1362
 4574              	.LBB495:
 4575              		.loc 3 238 5 discriminator 5 view .LVU1363
 4576              		.loc 3 238 12 is_stmt 0 discriminator 5 view .LVU1364
 4577 0842 2046     		mov	r0, r4
 4578 0844 FFF7FEFF 		bl	lv_disp_get_dpi
 4579              	.LVL479:
 4580 0848 4000     		lsls	r0, r0, #1
 4581 084a EF28     		cmp	r0, #239
 4582 084c 01F39C83 		bgt	.L459
 4583              		.loc 3 238 12 view .LVU1365
 4584 0850 0124     		movs	r4, #1
 4585              	.LVL480:
 4586              	.L187:
 4587              		.loc 3 238 12 view .LVU1366
ARM GAS  /var/folders/k2/cd9bl_j17z77g23y6ffqb_400000gn/T//ccRoPncs.s 			page 143


 4588              	.LBE495:
 4589              	.LBE494:
 4590              	.LBB497:
 4591              	.LBI497:
 425:lvgl/src/extra/themes/default/../../../../src/core/../misc/lv_style.h ****     lv_style_set_pad_left(style, value);
 4592              		.loc 4 425 20 is_stmt 1 discriminator 8 view .LVU1367
 4593              	.LBB498:
 426:lvgl/src/extra/themes/default/../../../../src/core/../misc/lv_style.h ****     lv_style_set_pad_right(style, value);
 4594              		.loc 4 426 5 discriminator 8 view .LVU1368
 4595 0852 2146     		mov	r1, r4
 4596 0854 2846     		mov	r0, r5
 4597 0856 FFF7FEFF 		bl	lv_style_set_pad_left
 4598              	.LVL481:
 427:lvgl/src/extra/themes/default/../../../../src/core/../misc/lv_style.h ****     lv_style_set_pad_top(style, value);
 4599              		.loc 4 427 5 discriminator 8 view .LVU1369
 4600 085a 2146     		mov	r1, r4
 4601 085c 2846     		mov	r0, r5
 4602 085e FFF7FEFF 		bl	lv_style_set_pad_right
 4603              	.LVL482:
 428:lvgl/src/extra/themes/default/../../../../src/core/../misc/lv_style.h ****     lv_style_set_pad_bottom(style, value);
 4604              		.loc 4 428 5 discriminator 8 view .LVU1370
 4605 0862 2146     		mov	r1, r4
 4606 0864 2846     		mov	r0, r5
 4607 0866 FFF7FEFF 		bl	lv_style_set_pad_top
 4608              	.LVL483:
 429:lvgl/src/extra/themes/default/../../../../src/core/../misc/lv_style.h **** }
 4609              		.loc 4 429 5 discriminator 8 view .LVU1371
 4610 086a 2146     		mov	r1, r4
 4611 086c 2846     		mov	r0, r5
 4612 086e FFF7FEFF 		bl	lv_style_set_pad_bottom
 4613              	.LVL484:
 429:lvgl/src/extra/themes/default/../../../../src/core/../misc/lv_style.h **** }
 4614              		.loc 4 429 5 is_stmt 0 discriminator 8 view .LVU1372
 4615              	.LBE498:
 4616              	.LBE497:
 329:lvgl/src/extra/themes/default/lv_theme_default.c ****     lv_style_set_pad_column(&styles->pad_tiny, PAD_TINY);
 4617              		.loc 1 329 5 is_stmt 1 discriminator 8 view .LVU1373
 329:lvgl/src/extra/themes/default/lv_theme_default.c ****     lv_style_set_pad_column(&styles->pad_tiny, PAD_TINY);
 4618              		.loc 1 329 33 is_stmt 0 discriminator 8 view .LVU1374
 4619 0872 454B     		ldr	r3, .L576+8
 4620 0874 1C68     		ldr	r4, [r3]
 329:lvgl/src/extra/themes/default/lv_theme_default.c ****     lv_style_set_pad_column(&styles->pad_tiny, PAD_TINY);
 4621              		.loc 1 329 5 discriminator 8 view .LVU1375
 4622 0876 7034     		adds	r4, r4, #112
 329:lvgl/src/extra/themes/default/lv_theme_default.c ****     lv_style_set_pad_column(&styles->pad_tiny, PAD_TINY);
 4623              		.loc 1 329 45 discriminator 8 view .LVU1376
 4624 0878 414B     		ldr	r3, .L576
 4625 087a 1B78     		ldrb	r3, [r3]	@ zero_extendqisi2
 329:lvgl/src/extra/themes/default/lv_theme_default.c ****     lv_style_set_pad_column(&styles->pad_tiny, PAD_TINY);
 4626              		.loc 1 329 5 discriminator 8 view .LVU1377
 4627 087c 012B     		cmp	r3, #1
 4628 087e 01F09183 		beq	.L460
 329:lvgl/src/extra/themes/default/lv_theme_default.c ****     lv_style_set_pad_column(&styles->pad_tiny, PAD_TINY);
 4629              		.loc 1 329 5 discriminator 2 view .LVU1378
 4630 0882 022B     		cmp	r3, #2
 4631 0884 01F0A783 		beq	.L461
 329:lvgl/src/extra/themes/default/lv_theme_default.c ****     lv_style_set_pad_column(&styles->pad_tiny, PAD_TINY);
ARM GAS  /var/folders/k2/cd9bl_j17z77g23y6ffqb_400000gn/T//ccRoPncs.s 			page 144


 4632              		.loc 1 329 45 discriminator 5 view .LVU1379
 4633 0888 3E4B     		ldr	r3, .L576+4
 4634 088a DD68     		ldr	r5, [r3, #12]
 4635              	.LVL485:
 4636              	.LBB499:
 4637              	.LBI499:
 236:lvgl/src/extra/themes/default/../../../../src/core/lv_disp.h **** {
 4638              		.loc 3 236 26 is_stmt 1 discriminator 5 view .LVU1380
 4639              	.LBB500:
 4640              		.loc 3 238 5 discriminator 5 view .LVU1381
 4641              		.loc 3 238 12 is_stmt 0 discriminator 5 view .LVU1382
 4642 088c 2846     		mov	r0, r5
 4643 088e FFF7FEFF 		bl	lv_disp_get_dpi
 4644              	.LVL486:
 4645 0892 4000     		lsls	r0, r0, #1
 4646 0894 EF28     		cmp	r0, #239
 4647 0896 01F3BB83 		bgt	.L462
 4648              		.loc 3 238 12 view .LVU1383
 4649 089a 0121     		movs	r1, #1
 4650              	.LVL487:
 4651              	.L193:
 4652              		.loc 3 238 12 view .LVU1384
 4653              	.LBE500:
 4654              	.LBE499:
 329:lvgl/src/extra/themes/default/lv_theme_default.c ****     lv_style_set_pad_column(&styles->pad_tiny, PAD_TINY);
 4655              		.loc 1 329 5 discriminator 8 view .LVU1385
 4656 089c 2046     		mov	r0, r4
 4657 089e FFF7FEFF 		bl	lv_style_set_pad_row
 4658              	.LVL488:
 330:lvgl/src/extra/themes/default/lv_theme_default.c **** 
 4659              		.loc 1 330 5 is_stmt 1 discriminator 8 view .LVU1386
 330:lvgl/src/extra/themes/default/lv_theme_default.c **** 
 4660              		.loc 1 330 36 is_stmt 0 discriminator 8 view .LVU1387
 4661 08a2 394B     		ldr	r3, .L576+8
 4662 08a4 1C68     		ldr	r4, [r3]
 330:lvgl/src/extra/themes/default/lv_theme_default.c **** 
 4663              		.loc 1 330 5 discriminator 8 view .LVU1388
 4664 08a6 7034     		adds	r4, r4, #112
 330:lvgl/src/extra/themes/default/lv_theme_default.c **** 
 4665              		.loc 1 330 48 discriminator 8 view .LVU1389
 4666 08a8 354B     		ldr	r3, .L576
 4667 08aa 1B78     		ldrb	r3, [r3]	@ zero_extendqisi2
 330:lvgl/src/extra/themes/default/lv_theme_default.c **** 
 4668              		.loc 1 330 5 discriminator 8 view .LVU1390
 4669 08ac 012B     		cmp	r3, #1
 4670 08ae 01F0BD83 		beq	.L463
 330:lvgl/src/extra/themes/default/lv_theme_default.c **** 
 4671              		.loc 1 330 5 discriminator 2 view .LVU1391
 4672 08b2 022B     		cmp	r3, #2
 4673 08b4 01F0D383 		beq	.L464
 330:lvgl/src/extra/themes/default/lv_theme_default.c **** 
 4674              		.loc 1 330 48 discriminator 5 view .LVU1392
 4675 08b8 324B     		ldr	r3, .L576+4
 4676 08ba DD68     		ldr	r5, [r3, #12]
 4677              	.LVL489:
 4678              	.LBB502:
 4679              	.LBI502:
ARM GAS  /var/folders/k2/cd9bl_j17z77g23y6ffqb_400000gn/T//ccRoPncs.s 			page 145


 236:lvgl/src/extra/themes/default/../../../../src/core/lv_disp.h **** {
 4680              		.loc 3 236 26 is_stmt 1 discriminator 5 view .LVU1393
 4681              	.LBB503:
 4682              		.loc 3 238 5 discriminator 5 view .LVU1394
 4683              		.loc 3 238 12 is_stmt 0 discriminator 5 view .LVU1395
 4684 08bc 2846     		mov	r0, r5
 4685 08be FFF7FEFF 		bl	lv_disp_get_dpi
 4686              	.LVL490:
 4687 08c2 4000     		lsls	r0, r0, #1
 4688 08c4 EF28     		cmp	r0, #239
 4689 08c6 01F3E783 		bgt	.L465
 4690              		.loc 3 238 12 view .LVU1396
 4691 08ca 0121     		movs	r1, #1
 4692              	.LVL491:
 4693              	.L199:
 4694              		.loc 3 238 12 view .LVU1397
 4695              	.LBE503:
 4696              	.LBE502:
 330:lvgl/src/extra/themes/default/lv_theme_default.c **** 
 4697              		.loc 1 330 5 discriminator 8 view .LVU1398
 4698 08cc 2046     		mov	r0, r4
 4699 08ce FFF7FEFF 		bl	lv_style_set_pad_column
 4700              	.LVL492:
 332:lvgl/src/extra/themes/default/lv_theme_default.c ****     lv_style_set_bg_color(&styles->bg_color_primary, theme.color_primary);
 4701              		.loc 1 332 5 is_stmt 1 discriminator 8 view .LVU1399
 332:lvgl/src/extra/themes/default/lv_theme_default.c ****     lv_style_set_bg_color(&styles->bg_color_primary, theme.color_primary);
 4702              		.loc 1 332 29 is_stmt 0 discriminator 8 view .LVU1400
 4703 08d2 2D4C     		ldr	r4, .L576+8
 4704 08d4 2068     		ldr	r0, [r4]
 332:lvgl/src/extra/themes/default/lv_theme_default.c ****     lv_style_set_bg_color(&styles->bg_color_primary, theme.color_primary);
 4705              		.loc 1 332 5 discriminator 8 view .LVU1401
 4706 08d6 2830     		adds	r0, r0, #40
 4707 08d8 FFF7FEFF 		bl	style_init_reset
 4708              	.LVL493:
 333:lvgl/src/extra/themes/default/lv_theme_default.c ****     lv_style_set_text_color(&styles->bg_color_primary, lv_color_white());
 4709              		.loc 1 333 5 is_stmt 1 discriminator 8 view .LVU1402
 333:lvgl/src/extra/themes/default/lv_theme_default.c ****     lv_style_set_text_color(&styles->bg_color_primary, lv_color_white());
 4710              		.loc 1 333 34 is_stmt 0 discriminator 8 view .LVU1403
 4711 08dc 2068     		ldr	r0, [r4]
 333:lvgl/src/extra/themes/default/lv_theme_default.c ****     lv_style_set_text_color(&styles->bg_color_primary, lv_color_white());
 4712              		.loc 1 333 5 discriminator 8 view .LVU1404
 4713 08de 294D     		ldr	r5, .L576+4
 4714 08e0 2969     		ldr	r1, [r5, #16]
 4715 08e2 2830     		adds	r0, r0, #40
 4716 08e4 FFF7FEFF 		bl	lv_style_set_bg_color
 4717              	.LVL494:
 334:lvgl/src/extra/themes/default/lv_theme_default.c ****     lv_style_set_bg_opa(&styles->bg_color_primary, LV_OPA_COVER);
 4718              		.loc 1 334 5 is_stmt 1 discriminator 8 view .LVU1405
 334:lvgl/src/extra/themes/default/lv_theme_default.c ****     lv_style_set_bg_opa(&styles->bg_color_primary, LV_OPA_COVER);
 4719              		.loc 1 334 36 is_stmt 0 discriminator 8 view .LVU1406
 4720 08e8 2068     		ldr	r0, [r4]
 4721              	.LBB505:
 4722              	.LBI505:
 621:lvgl/src/extra/themes/default/../../../../src/hal/../misc/lv_color.h **** }
 622:lvgl/src/extra/themes/default/../../../../src/hal/../misc/lv_color.h **** 
 623:lvgl/src/extra/themes/default/../../../../src/hal/../misc/lv_color.h **** //! @cond Doxygen_Suppress
 624:lvgl/src/extra/themes/default/../../../../src/hal/../misc/lv_color.h **** //!
ARM GAS  /var/folders/k2/cd9bl_j17z77g23y6ffqb_400000gn/T//ccRoPncs.s 			page 146


 625:lvgl/src/extra/themes/default/../../../../src/hal/../misc/lv_color.h **** LV_ATTRIBUTE_FAST_MEM void lv_color_fill(lv_color_t * buf, lv_color_t color, uint32_t px_num);
 626:lvgl/src/extra/themes/default/../../../../src/hal/../misc/lv_color.h **** 
 627:lvgl/src/extra/themes/default/../../../../src/hal/../misc/lv_color.h **** //! @endcond
 628:lvgl/src/extra/themes/default/../../../../src/hal/../misc/lv_color.h **** lv_color_t lv_color_lighten(lv_color_t c, lv_opa_t lvl);
 629:lvgl/src/extra/themes/default/../../../../src/hal/../misc/lv_color.h **** 
 630:lvgl/src/extra/themes/default/../../../../src/hal/../misc/lv_color.h **** lv_color_t lv_color_darken(lv_color_t c, lv_opa_t lvl);
 631:lvgl/src/extra/themes/default/../../../../src/hal/../misc/lv_color.h **** 
 632:lvgl/src/extra/themes/default/../../../../src/hal/../misc/lv_color.h **** lv_color_t lv_color_change_lightness(lv_color_t c, lv_opa_t lvl);
 633:lvgl/src/extra/themes/default/../../../../src/hal/../misc/lv_color.h **** 
 634:lvgl/src/extra/themes/default/../../../../src/hal/../misc/lv_color.h **** /**
 635:lvgl/src/extra/themes/default/../../../../src/hal/../misc/lv_color.h ****  * Convert a HSV color to RGB
 636:lvgl/src/extra/themes/default/../../../../src/hal/../misc/lv_color.h ****  * @param h hue [0..359]
 637:lvgl/src/extra/themes/default/../../../../src/hal/../misc/lv_color.h ****  * @param s saturation [0..100]
 638:lvgl/src/extra/themes/default/../../../../src/hal/../misc/lv_color.h ****  * @param v value [0..100]
 639:lvgl/src/extra/themes/default/../../../../src/hal/../misc/lv_color.h ****  * @return the given RGB color in RGB (with LV_COLOR_DEPTH depth)
 640:lvgl/src/extra/themes/default/../../../../src/hal/../misc/lv_color.h ****  */
 641:lvgl/src/extra/themes/default/../../../../src/hal/../misc/lv_color.h **** lv_color_t lv_color_hsv_to_rgb(uint16_t h, uint8_t s, uint8_t v);
 642:lvgl/src/extra/themes/default/../../../../src/hal/../misc/lv_color.h **** 
 643:lvgl/src/extra/themes/default/../../../../src/hal/../misc/lv_color.h **** /**
 644:lvgl/src/extra/themes/default/../../../../src/hal/../misc/lv_color.h ****  * Convert a 32-bit RGB color to HSV
 645:lvgl/src/extra/themes/default/../../../../src/hal/../misc/lv_color.h ****  * @param r8 8-bit red
 646:lvgl/src/extra/themes/default/../../../../src/hal/../misc/lv_color.h ****  * @param g8 8-bit green
 647:lvgl/src/extra/themes/default/../../../../src/hal/../misc/lv_color.h ****  * @param b8 8-bit blue
 648:lvgl/src/extra/themes/default/../../../../src/hal/../misc/lv_color.h ****  * @return the given RGB color in HSV
 649:lvgl/src/extra/themes/default/../../../../src/hal/../misc/lv_color.h ****  */
 650:lvgl/src/extra/themes/default/../../../../src/hal/../misc/lv_color.h **** lv_color_hsv_t lv_color_rgb_to_hsv(uint8_t r8, uint8_t g8, uint8_t b8);
 651:lvgl/src/extra/themes/default/../../../../src/hal/../misc/lv_color.h **** 
 652:lvgl/src/extra/themes/default/../../../../src/hal/../misc/lv_color.h **** /**
 653:lvgl/src/extra/themes/default/../../../../src/hal/../misc/lv_color.h ****  * Convert a color to HSV
 654:lvgl/src/extra/themes/default/../../../../src/hal/../misc/lv_color.h ****  * @param color color
 655:lvgl/src/extra/themes/default/../../../../src/hal/../misc/lv_color.h ****  * @return the given color in HSV
 656:lvgl/src/extra/themes/default/../../../../src/hal/../misc/lv_color.h ****  */
 657:lvgl/src/extra/themes/default/../../../../src/hal/../misc/lv_color.h **** lv_color_hsv_t lv_color_to_hsv(lv_color_t color);
 658:lvgl/src/extra/themes/default/../../../../src/hal/../misc/lv_color.h **** 
 659:lvgl/src/extra/themes/default/../../../../src/hal/../misc/lv_color.h **** /**
 660:lvgl/src/extra/themes/default/../../../../src/hal/../misc/lv_color.h ****  * Just a wrapper around LV_COLOR_CHROMA_KEY because it might be more convenient to use a function 
 661:lvgl/src/extra/themes/default/../../../../src/hal/../misc/lv_color.h ****  * @return LV_COLOR_CHROMA_KEY
 662:lvgl/src/extra/themes/default/../../../../src/hal/../misc/lv_color.h ****  */
 663:lvgl/src/extra/themes/default/../../../../src/hal/../misc/lv_color.h **** static inline lv_color_t lv_color_chroma_key(void)
 664:lvgl/src/extra/themes/default/../../../../src/hal/../misc/lv_color.h **** {
 665:lvgl/src/extra/themes/default/../../../../src/hal/../misc/lv_color.h ****     return LV_COLOR_CHROMA_KEY;
 666:lvgl/src/extra/themes/default/../../../../src/hal/../misc/lv_color.h **** }
 667:lvgl/src/extra/themes/default/../../../../src/hal/../misc/lv_color.h **** 
 668:lvgl/src/extra/themes/default/../../../../src/hal/../misc/lv_color.h **** /**********************
 669:lvgl/src/extra/themes/default/../../../../src/hal/../misc/lv_color.h ****  *  PREDEFINED COLORS
 670:lvgl/src/extra/themes/default/../../../../src/hal/../misc/lv_color.h ****  **********************/
 671:lvgl/src/extra/themes/default/../../../../src/hal/../misc/lv_color.h **** /*Source: https://vuetifyjs.com/en/styles/colors/#material-colors*/
 672:lvgl/src/extra/themes/default/../../../../src/hal/../misc/lv_color.h **** 
 673:lvgl/src/extra/themes/default/../../../../src/hal/../misc/lv_color.h **** lv_color_t lv_palette_main(lv_palette_t p);
 674:lvgl/src/extra/themes/default/../../../../src/hal/../misc/lv_color.h **** static inline lv_color_t lv_color_white(void) { return lv_color_make(0xff, 0xff, 0xff);}
 4723              		.loc 2 674 26 is_stmt 1 discriminator 8 view .LVU1407
 4724              	.LBE505:
 4725              		.loc 2 674 49 discriminator 8 view .LVU1408
 4726              	.LVL495:
 4727              	.LBB508:
 4728              	.LBB506:
 4729              	.LBI506:
ARM GAS  /var/folders/k2/cd9bl_j17z77g23y6ffqb_400000gn/T//ccRoPncs.s 			page 147


 602:lvgl/src/extra/themes/default/../../../../src/hal/../misc/lv_color.h **** {
 4730              		.loc 2 602 26 discriminator 8 view .LVU1409
 4731              	.LBB507:
 604:lvgl/src/extra/themes/default/../../../../src/hal/../misc/lv_color.h **** }
 4732              		.loc 2 604 5 discriminator 8 view .LVU1410
 604:lvgl/src/extra/themes/default/../../../../src/hal/../misc/lv_color.h **** }
 4733              		.loc 2 604 5 is_stmt 0 discriminator 8 view .LVU1411
 4734              	.LBE507:
 4735              	.LBE506:
 4736              	.LBE508:
 334:lvgl/src/extra/themes/default/lv_theme_default.c ****     lv_style_set_bg_opa(&styles->bg_color_primary, LV_OPA_COVER);
 4737              		.loc 1 334 5 discriminator 8 view .LVU1412
 4738 08ea 4FF0FF31 		mov	r1, #-1
 4739 08ee 2830     		adds	r0, r0, #40
 4740 08f0 FFF7FEFF 		bl	lv_style_set_text_color
 4741              	.LVL496:
 335:lvgl/src/extra/themes/default/lv_theme_default.c **** 
 4742              		.loc 1 335 5 is_stmt 1 discriminator 8 view .LVU1413
 335:lvgl/src/extra/themes/default/lv_theme_default.c **** 
 4743              		.loc 1 335 32 is_stmt 0 discriminator 8 view .LVU1414
 4744 08f4 2068     		ldr	r0, [r4]
 335:lvgl/src/extra/themes/default/lv_theme_default.c **** 
 4745              		.loc 1 335 5 discriminator 8 view .LVU1415
 4746 08f6 FF21     		movs	r1, #255
 4747 08f8 2830     		adds	r0, r0, #40
 4748 08fa FFF7FEFF 		bl	lv_style_set_bg_opa
 4749              	.LVL497:
 337:lvgl/src/extra/themes/default/lv_theme_default.c ****     lv_style_set_bg_color(&styles->bg_color_primary_muted, theme.color_primary);
 4750              		.loc 1 337 5 is_stmt 1 discriminator 8 view .LVU1416
 337:lvgl/src/extra/themes/default/lv_theme_default.c ****     lv_style_set_bg_color(&styles->bg_color_primary_muted, theme.color_primary);
 4751              		.loc 1 337 29 is_stmt 0 discriminator 8 view .LVU1417
 4752 08fe 2068     		ldr	r0, [r4]
 337:lvgl/src/extra/themes/default/lv_theme_default.c ****     lv_style_set_bg_color(&styles->bg_color_primary_muted, theme.color_primary);
 4753              		.loc 1 337 5 discriminator 8 view .LVU1418
 4754 0900 3030     		adds	r0, r0, #48
 4755 0902 FFF7FEFF 		bl	style_init_reset
 4756              	.LVL498:
 338:lvgl/src/extra/themes/default/lv_theme_default.c ****     lv_style_set_text_color(&styles->bg_color_primary_muted, theme.color_primary);
 4757              		.loc 1 338 5 is_stmt 1 discriminator 8 view .LVU1419
 338:lvgl/src/extra/themes/default/lv_theme_default.c ****     lv_style_set_text_color(&styles->bg_color_primary_muted, theme.color_primary);
 4758              		.loc 1 338 34 is_stmt 0 discriminator 8 view .LVU1420
 4759 0906 2068     		ldr	r0, [r4]
 338:lvgl/src/extra/themes/default/lv_theme_default.c ****     lv_style_set_text_color(&styles->bg_color_primary_muted, theme.color_primary);
 4760              		.loc 1 338 5 discriminator 8 view .LVU1421
 4761 0908 2969     		ldr	r1, [r5, #16]
 4762 090a 3030     		adds	r0, r0, #48
 4763 090c FFF7FEFF 		bl	lv_style_set_bg_color
 4764              	.LVL499:
 339:lvgl/src/extra/themes/default/lv_theme_default.c ****     lv_style_set_bg_opa(&styles->bg_color_primary_muted, LV_OPA_20);
 4765              		.loc 1 339 5 is_stmt 1 discriminator 8 view .LVU1422
 339:lvgl/src/extra/themes/default/lv_theme_default.c ****     lv_style_set_bg_opa(&styles->bg_color_primary_muted, LV_OPA_20);
 4766              		.loc 1 339 36 is_stmt 0 discriminator 8 view .LVU1423
 4767 0910 2068     		ldr	r0, [r4]
 339:lvgl/src/extra/themes/default/lv_theme_default.c ****     lv_style_set_bg_opa(&styles->bg_color_primary_muted, LV_OPA_20);
 4768              		.loc 1 339 5 discriminator 8 view .LVU1424
 4769 0912 2969     		ldr	r1, [r5, #16]
 4770 0914 3030     		adds	r0, r0, #48
ARM GAS  /var/folders/k2/cd9bl_j17z77g23y6ffqb_400000gn/T//ccRoPncs.s 			page 148


 4771 0916 FFF7FEFF 		bl	lv_style_set_text_color
 4772              	.LVL500:
 340:lvgl/src/extra/themes/default/lv_theme_default.c **** 
 4773              		.loc 1 340 5 is_stmt 1 discriminator 8 view .LVU1425
 340:lvgl/src/extra/themes/default/lv_theme_default.c **** 
 4774              		.loc 1 340 32 is_stmt 0 discriminator 8 view .LVU1426
 4775 091a 2068     		ldr	r0, [r4]
 340:lvgl/src/extra/themes/default/lv_theme_default.c **** 
 4776              		.loc 1 340 5 discriminator 8 view .LVU1427
 4777 091c 3321     		movs	r1, #51
 4778 091e 3030     		adds	r0, r0, #48
 4779 0920 FFF7FEFF 		bl	lv_style_set_bg_opa
 4780              	.LVL501:
 342:lvgl/src/extra/themes/default/lv_theme_default.c ****     lv_style_set_bg_color(&styles->bg_color_secondary, theme.color_secondary);
 4781              		.loc 1 342 5 is_stmt 1 discriminator 8 view .LVU1428
 342:lvgl/src/extra/themes/default/lv_theme_default.c ****     lv_style_set_bg_color(&styles->bg_color_secondary, theme.color_secondary);
 4782              		.loc 1 342 29 is_stmt 0 discriminator 8 view .LVU1429
 4783 0924 2068     		ldr	r0, [r4]
 342:lvgl/src/extra/themes/default/lv_theme_default.c ****     lv_style_set_bg_color(&styles->bg_color_secondary, theme.color_secondary);
 4784              		.loc 1 342 5 discriminator 8 view .LVU1430
 4785 0926 3830     		adds	r0, r0, #56
 4786 0928 FFF7FEFF 		bl	style_init_reset
 4787              	.LVL502:
 343:lvgl/src/extra/themes/default/lv_theme_default.c ****     lv_style_set_text_color(&styles->bg_color_secondary, lv_color_white());
 4788              		.loc 1 343 5 is_stmt 1 discriminator 8 view .LVU1431
 343:lvgl/src/extra/themes/default/lv_theme_default.c ****     lv_style_set_text_color(&styles->bg_color_secondary, lv_color_white());
 4789              		.loc 1 343 34 is_stmt 0 discriminator 8 view .LVU1432
 4790 092c 2068     		ldr	r0, [r4]
 343:lvgl/src/extra/themes/default/lv_theme_default.c ****     lv_style_set_text_color(&styles->bg_color_secondary, lv_color_white());
 4791              		.loc 1 343 5 discriminator 8 view .LVU1433
 4792 092e 6969     		ldr	r1, [r5, #20]
 4793 0930 3830     		adds	r0, r0, #56
 4794 0932 FFF7FEFF 		bl	lv_style_set_bg_color
 4795              	.LVL503:
 344:lvgl/src/extra/themes/default/lv_theme_default.c ****     lv_style_set_bg_opa(&styles->bg_color_secondary, LV_OPA_COVER);
 4796              		.loc 1 344 5 is_stmt 1 discriminator 8 view .LVU1434
 344:lvgl/src/extra/themes/default/lv_theme_default.c ****     lv_style_set_bg_opa(&styles->bg_color_secondary, LV_OPA_COVER);
 4797              		.loc 1 344 36 is_stmt 0 discriminator 8 view .LVU1435
 4798 0936 2068     		ldr	r0, [r4]
 4799              	.LBB509:
 4800              	.LBI509:
 4801              		.loc 2 674 26 is_stmt 1 discriminator 8 view .LVU1436
 4802              	.LBE509:
 4803              		.loc 2 674 49 discriminator 8 view .LVU1437
 4804              	.LVL504:
 4805              	.LBB512:
 4806              	.LBB510:
 4807              	.LBI510:
 602:lvgl/src/extra/themes/default/../../../../src/hal/../misc/lv_color.h **** {
 4808              		.loc 2 602 26 discriminator 8 view .LVU1438
 4809              	.LBB511:
 604:lvgl/src/extra/themes/default/../../../../src/hal/../misc/lv_color.h **** }
 4810              		.loc 2 604 5 discriminator 8 view .LVU1439
 604:lvgl/src/extra/themes/default/../../../../src/hal/../misc/lv_color.h **** }
 4811              		.loc 2 604 5 is_stmt 0 discriminator 8 view .LVU1440
 4812              	.LBE511:
 4813              	.LBE510:
ARM GAS  /var/folders/k2/cd9bl_j17z77g23y6ffqb_400000gn/T//ccRoPncs.s 			page 149


 4814              	.LBE512:
 344:lvgl/src/extra/themes/default/lv_theme_default.c ****     lv_style_set_bg_opa(&styles->bg_color_secondary, LV_OPA_COVER);
 4815              		.loc 1 344 5 discriminator 8 view .LVU1441
 4816 0938 4FF0FF31 		mov	r1, #-1
 4817 093c 3830     		adds	r0, r0, #56
 4818 093e FFF7FEFF 		bl	lv_style_set_text_color
 4819              	.LVL505:
 345:lvgl/src/extra/themes/default/lv_theme_default.c **** 
 4820              		.loc 1 345 5 is_stmt 1 discriminator 8 view .LVU1442
 345:lvgl/src/extra/themes/default/lv_theme_default.c **** 
 4821              		.loc 1 345 32 is_stmt 0 discriminator 8 view .LVU1443
 4822 0942 2068     		ldr	r0, [r4]
 345:lvgl/src/extra/themes/default/lv_theme_default.c **** 
 4823              		.loc 1 345 5 discriminator 8 view .LVU1444
 4824 0944 FF21     		movs	r1, #255
 4825 0946 3830     		adds	r0, r0, #56
 4826 0948 FFF7FEFF 		bl	lv_style_set_bg_opa
 4827              	.LVL506:
 347:lvgl/src/extra/themes/default/lv_theme_default.c ****     lv_style_set_bg_color(&styles->bg_color_secondary_muted, theme.color_secondary);
 4828              		.loc 1 347 5 is_stmt 1 discriminator 8 view .LVU1445
 347:lvgl/src/extra/themes/default/lv_theme_default.c ****     lv_style_set_bg_color(&styles->bg_color_secondary_muted, theme.color_secondary);
 4829              		.loc 1 347 29 is_stmt 0 discriminator 8 view .LVU1446
 4830 094c 2068     		ldr	r0, [r4]
 347:lvgl/src/extra/themes/default/lv_theme_default.c ****     lv_style_set_bg_color(&styles->bg_color_secondary_muted, theme.color_secondary);
 4831              		.loc 1 347 5 discriminator 8 view .LVU1447
 4832 094e 4030     		adds	r0, r0, #64
 4833 0950 FFF7FEFF 		bl	style_init_reset
 4834              	.LVL507:
 348:lvgl/src/extra/themes/default/lv_theme_default.c ****     lv_style_set_text_color(&styles->bg_color_secondary_muted, theme.color_secondary);
 4835              		.loc 1 348 5 is_stmt 1 discriminator 8 view .LVU1448
 348:lvgl/src/extra/themes/default/lv_theme_default.c ****     lv_style_set_text_color(&styles->bg_color_secondary_muted, theme.color_secondary);
 4836              		.loc 1 348 34 is_stmt 0 discriminator 8 view .LVU1449
 4837 0954 2068     		ldr	r0, [r4]
 348:lvgl/src/extra/themes/default/lv_theme_default.c ****     lv_style_set_text_color(&styles->bg_color_secondary_muted, theme.color_secondary);
 4838              		.loc 1 348 5 discriminator 8 view .LVU1450
 4839 0956 6969     		ldr	r1, [r5, #20]
 4840 0958 4030     		adds	r0, r0, #64
 4841 095a FFF7FEFF 		bl	lv_style_set_bg_color
 4842              	.LVL508:
 349:lvgl/src/extra/themes/default/lv_theme_default.c ****     lv_style_set_bg_opa(&styles->bg_color_secondary_muted, LV_OPA_20);
 4843              		.loc 1 349 5 is_stmt 1 discriminator 8 view .LVU1451
 349:lvgl/src/extra/themes/default/lv_theme_default.c ****     lv_style_set_bg_opa(&styles->bg_color_secondary_muted, LV_OPA_20);
 4844              		.loc 1 349 36 is_stmt 0 discriminator 8 view .LVU1452
 4845 095e 2068     		ldr	r0, [r4]
 349:lvgl/src/extra/themes/default/lv_theme_default.c ****     lv_style_set_bg_opa(&styles->bg_color_secondary_muted, LV_OPA_20);
 4846              		.loc 1 349 5 discriminator 8 view .LVU1453
 4847 0960 6969     		ldr	r1, [r5, #20]
 4848 0962 4030     		adds	r0, r0, #64
 4849 0964 FFF7FEFF 		bl	lv_style_set_text_color
 4850              	.LVL509:
 350:lvgl/src/extra/themes/default/lv_theme_default.c **** 
 4851              		.loc 1 350 5 is_stmt 1 discriminator 8 view .LVU1454
 350:lvgl/src/extra/themes/default/lv_theme_default.c **** 
 4852              		.loc 1 350 32 is_stmt 0 discriminator 8 view .LVU1455
 4853 0968 2068     		ldr	r0, [r4]
 350:lvgl/src/extra/themes/default/lv_theme_default.c **** 
 4854              		.loc 1 350 5 discriminator 8 view .LVU1456
ARM GAS  /var/folders/k2/cd9bl_j17z77g23y6ffqb_400000gn/T//ccRoPncs.s 			page 150


 4855 096a 3321     		movs	r1, #51
 4856 096c 4030     		adds	r0, r0, #64
 4857 096e FFF7FEFF 		bl	lv_style_set_bg_opa
 4858              	.LVL510:
 352:lvgl/src/extra/themes/default/lv_theme_default.c ****     lv_style_set_bg_color(&styles->bg_color_grey, color_grey);
 4859              		.loc 1 352 5 is_stmt 1 discriminator 8 view .LVU1457
 352:lvgl/src/extra/themes/default/lv_theme_default.c ****     lv_style_set_bg_color(&styles->bg_color_grey, color_grey);
 4860              		.loc 1 352 29 is_stmt 0 discriminator 8 view .LVU1458
 4861 0972 2068     		ldr	r0, [r4]
 352:lvgl/src/extra/themes/default/lv_theme_default.c ****     lv_style_set_bg_color(&styles->bg_color_grey, color_grey);
 4862              		.loc 1 352 5 discriminator 8 view .LVU1459
 4863 0974 4830     		adds	r0, r0, #72
 4864 0976 FFF7FEFF 		bl	style_init_reset
 4865              	.LVL511:
 353:lvgl/src/extra/themes/default/lv_theme_default.c ****     lv_style_set_bg_opa(&styles->bg_color_grey, LV_OPA_COVER);
 4866              		.loc 1 353 5 is_stmt 1 discriminator 8 view .LVU1460
 353:lvgl/src/extra/themes/default/lv_theme_default.c ****     lv_style_set_bg_opa(&styles->bg_color_grey, LV_OPA_COVER);
 4867              		.loc 1 353 34 is_stmt 0 discriminator 8 view .LVU1461
 4868 097a 2068     		ldr	r0, [r4]
 4869 097c 06E0     		b	.L577
 4870              	.L578:
 4871 097e 00BF     		.align	2
 4872              	.L576:
 4873 0980 00000000 		.word	.LANCHOR1
 4874 0984 00000000 		.word	.LANCHOR3
 4875 0988 00000000 		.word	.LANCHOR0
 4876              	.L577:
 353:lvgl/src/extra/themes/default/lv_theme_default.c ****     lv_style_set_bg_opa(&styles->bg_color_grey, LV_OPA_COVER);
 4877              		.loc 1 353 5 discriminator 8 view .LVU1462
 4878 098c CA4B     		ldr	r3, .L579
 4879 098e 1968     		ldr	r1, [r3]
 4880 0990 4830     		adds	r0, r0, #72
 4881 0992 FFF7FEFF 		bl	lv_style_set_bg_color
 4882              	.LVL512:
 354:lvgl/src/extra/themes/default/lv_theme_default.c ****     lv_style_set_text_color(&styles->bg_color_grey, color_text);
 4883              		.loc 1 354 5 is_stmt 1 discriminator 8 view .LVU1463
 354:lvgl/src/extra/themes/default/lv_theme_default.c ****     lv_style_set_text_color(&styles->bg_color_grey, color_text);
 4884              		.loc 1 354 32 is_stmt 0 discriminator 8 view .LVU1464
 4885 0996 2068     		ldr	r0, [r4]
 354:lvgl/src/extra/themes/default/lv_theme_default.c ****     lv_style_set_text_color(&styles->bg_color_grey, color_text);
 4886              		.loc 1 354 5 discriminator 8 view .LVU1465
 4887 0998 FF21     		movs	r1, #255
 4888 099a 4830     		adds	r0, r0, #72
 4889 099c FFF7FEFF 		bl	lv_style_set_bg_opa
 4890              	.LVL513:
 355:lvgl/src/extra/themes/default/lv_theme_default.c **** 
 4891              		.loc 1 355 5 is_stmt 1 discriminator 8 view .LVU1466
 355:lvgl/src/extra/themes/default/lv_theme_default.c **** 
 4892              		.loc 1 355 36 is_stmt 0 discriminator 8 view .LVU1467
 4893 09a0 2068     		ldr	r0, [r4]
 355:lvgl/src/extra/themes/default/lv_theme_default.c **** 
 4894              		.loc 1 355 5 discriminator 8 view .LVU1468
 4895 09a2 C64E     		ldr	r6, .L579+4
 4896 09a4 3168     		ldr	r1, [r6]
 4897 09a6 4830     		adds	r0, r0, #72
 4898 09a8 FFF7FEFF 		bl	lv_style_set_text_color
 4899              	.LVL514:
ARM GAS  /var/folders/k2/cd9bl_j17z77g23y6ffqb_400000gn/T//ccRoPncs.s 			page 151


 357:lvgl/src/extra/themes/default/lv_theme_default.c ****     lv_style_set_bg_color(&styles->bg_color_white, color_card);
 4900              		.loc 1 357 5 is_stmt 1 discriminator 8 view .LVU1469
 357:lvgl/src/extra/themes/default/lv_theme_default.c ****     lv_style_set_bg_color(&styles->bg_color_white, color_card);
 4901              		.loc 1 357 29 is_stmt 0 discriminator 8 view .LVU1470
 4902 09ac 2068     		ldr	r0, [r4]
 357:lvgl/src/extra/themes/default/lv_theme_default.c ****     lv_style_set_bg_color(&styles->bg_color_white, color_card);
 4903              		.loc 1 357 5 discriminator 8 view .LVU1471
 4904 09ae 5030     		adds	r0, r0, #80
 4905 09b0 FFF7FEFF 		bl	style_init_reset
 4906              	.LVL515:
 358:lvgl/src/extra/themes/default/lv_theme_default.c ****     lv_style_set_bg_opa(&styles->bg_color_white, LV_OPA_COVER);
 4907              		.loc 1 358 5 is_stmt 1 discriminator 8 view .LVU1472
 358:lvgl/src/extra/themes/default/lv_theme_default.c ****     lv_style_set_bg_opa(&styles->bg_color_white, LV_OPA_COVER);
 4908              		.loc 1 358 34 is_stmt 0 discriminator 8 view .LVU1473
 4909 09b4 2068     		ldr	r0, [r4]
 358:lvgl/src/extra/themes/default/lv_theme_default.c ****     lv_style_set_bg_opa(&styles->bg_color_white, LV_OPA_COVER);
 4910              		.loc 1 358 5 discriminator 8 view .LVU1474
 4911 09b6 C24B     		ldr	r3, .L579+8
 4912 09b8 1968     		ldr	r1, [r3]
 4913 09ba 5030     		adds	r0, r0, #80
 4914 09bc FFF7FEFF 		bl	lv_style_set_bg_color
 4915              	.LVL516:
 359:lvgl/src/extra/themes/default/lv_theme_default.c ****     lv_style_set_text_color(&styles->bg_color_white, color_text);
 4916              		.loc 1 359 5 is_stmt 1 discriminator 8 view .LVU1475
 359:lvgl/src/extra/themes/default/lv_theme_default.c ****     lv_style_set_text_color(&styles->bg_color_white, color_text);
 4917              		.loc 1 359 32 is_stmt 0 discriminator 8 view .LVU1476
 4918 09c0 2068     		ldr	r0, [r4]
 359:lvgl/src/extra/themes/default/lv_theme_default.c ****     lv_style_set_text_color(&styles->bg_color_white, color_text);
 4919              		.loc 1 359 5 discriminator 8 view .LVU1477
 4920 09c2 FF21     		movs	r1, #255
 4921 09c4 5030     		adds	r0, r0, #80
 4922 09c6 FFF7FEFF 		bl	lv_style_set_bg_opa
 4923              	.LVL517:
 360:lvgl/src/extra/themes/default/lv_theme_default.c **** 
 4924              		.loc 1 360 5 is_stmt 1 discriminator 8 view .LVU1478
 360:lvgl/src/extra/themes/default/lv_theme_default.c **** 
 4925              		.loc 1 360 36 is_stmt 0 discriminator 8 view .LVU1479
 4926 09ca 2068     		ldr	r0, [r4]
 360:lvgl/src/extra/themes/default/lv_theme_default.c **** 
 4927              		.loc 1 360 5 discriminator 8 view .LVU1480
 4928 09cc 3168     		ldr	r1, [r6]
 4929 09ce 5030     		adds	r0, r0, #80
 4930 09d0 FFF7FEFF 		bl	lv_style_set_text_color
 4931              	.LVL518:
 362:lvgl/src/extra/themes/default/lv_theme_default.c ****     lv_style_set_radius(&styles->circle, LV_RADIUS_CIRCLE);
 4932              		.loc 1 362 5 is_stmt 1 discriminator 8 view .LVU1481
 362:lvgl/src/extra/themes/default/lv_theme_default.c ****     lv_style_set_radius(&styles->circle, LV_RADIUS_CIRCLE);
 4933              		.loc 1 362 29 is_stmt 0 discriminator 8 view .LVU1482
 4934 09d4 2068     		ldr	r0, [r4]
 362:lvgl/src/extra/themes/default/lv_theme_default.c ****     lv_style_set_radius(&styles->circle, LV_RADIUS_CIRCLE);
 4935              		.loc 1 362 5 discriminator 8 view .LVU1483
 4936 09d6 B030     		adds	r0, r0, #176
 4937 09d8 FFF7FEFF 		bl	style_init_reset
 4938              	.LVL519:
 363:lvgl/src/extra/themes/default/lv_theme_default.c **** 
 4939              		.loc 1 363 5 is_stmt 1 discriminator 8 view .LVU1484
 363:lvgl/src/extra/themes/default/lv_theme_default.c **** 
ARM GAS  /var/folders/k2/cd9bl_j17z77g23y6ffqb_400000gn/T//ccRoPncs.s 			page 152


 4940              		.loc 1 363 32 is_stmt 0 discriminator 8 view .LVU1485
 4941 09dc 2068     		ldr	r0, [r4]
 363:lvgl/src/extra/themes/default/lv_theme_default.c **** 
 4942              		.loc 1 363 5 discriminator 8 view .LVU1486
 4943 09de 47F6FF71 		movw	r1, #32767
 4944 09e2 B030     		adds	r0, r0, #176
 4945 09e4 FFF7FEFF 		bl	lv_style_set_radius
 4946              	.LVL520:
 365:lvgl/src/extra/themes/default/lv_theme_default.c ****     lv_style_set_radius(&styles->no_radius, 0);
 4947              		.loc 1 365 5 is_stmt 1 discriminator 8 view .LVU1487
 365:lvgl/src/extra/themes/default/lv_theme_default.c ****     lv_style_set_radius(&styles->no_radius, 0);
 4948              		.loc 1 365 29 is_stmt 0 discriminator 8 view .LVU1488
 4949 09e8 2068     		ldr	r0, [r4]
 365:lvgl/src/extra/themes/default/lv_theme_default.c ****     lv_style_set_radius(&styles->no_radius, 0);
 4950              		.loc 1 365 5 discriminator 8 view .LVU1489
 4951 09ea B830     		adds	r0, r0, #184
 4952 09ec FFF7FEFF 		bl	style_init_reset
 4953              	.LVL521:
 366:lvgl/src/extra/themes/default/lv_theme_default.c **** 
 4954              		.loc 1 366 5 is_stmt 1 discriminator 8 view .LVU1490
 366:lvgl/src/extra/themes/default/lv_theme_default.c **** 
 4955              		.loc 1 366 32 is_stmt 0 discriminator 8 view .LVU1491
 4956 09f0 2068     		ldr	r0, [r4]
 366:lvgl/src/extra/themes/default/lv_theme_default.c **** 
 4957              		.loc 1 366 5 discriminator 8 view .LVU1492
 4958 09f2 0021     		movs	r1, #0
 4959 09f4 B830     		adds	r0, r0, #184
 4960 09f6 FFF7FEFF 		bl	lv_style_set_radius
 4961              	.LVL522:
 369:lvgl/src/extra/themes/default/lv_theme_default.c ****     lv_style_set_transform_width(&styles->grow, lv_disp_dpx(theme.disp, 3));
 4962              		.loc 1 369 5 is_stmt 1 discriminator 8 view .LVU1493
 369:lvgl/src/extra/themes/default/lv_theme_default.c ****     lv_style_set_transform_width(&styles->grow, lv_disp_dpx(theme.disp, 3));
 4963              		.loc 1 369 29 is_stmt 0 discriminator 8 view .LVU1494
 4964 09fa 2068     		ldr	r0, [r4]
 369:lvgl/src/extra/themes/default/lv_theme_default.c ****     lv_style_set_transform_width(&styles->grow, lv_disp_dpx(theme.disp, 3));
 4965              		.loc 1 369 5 discriminator 8 view .LVU1495
 4966 09fc C830     		adds	r0, r0, #200
 4967 09fe FFF7FEFF 		bl	style_init_reset
 4968              	.LVL523:
 370:lvgl/src/extra/themes/default/lv_theme_default.c ****     lv_style_set_transform_height(&styles->grow, lv_disp_dpx(theme.disp, 3));
 4969              		.loc 1 370 5 is_stmt 1 discriminator 8 view .LVU1496
 370:lvgl/src/extra/themes/default/lv_theme_default.c ****     lv_style_set_transform_height(&styles->grow, lv_disp_dpx(theme.disp, 3));
 4970              		.loc 1 370 41 is_stmt 0 discriminator 8 view .LVU1497
 4971 0a02 2468     		ldr	r4, [r4]
 370:lvgl/src/extra/themes/default/lv_theme_default.c ****     lv_style_set_transform_height(&styles->grow, lv_disp_dpx(theme.disp, 3));
 4972              		.loc 1 370 5 discriminator 8 view .LVU1498
 4973 0a04 C834     		adds	r4, r4, #200
 370:lvgl/src/extra/themes/default/lv_theme_default.c ****     lv_style_set_transform_height(&styles->grow, lv_disp_dpx(theme.disp, 3));
 4974              		.loc 1 370 66 discriminator 8 view .LVU1499
 4975 0a06 ED68     		ldr	r5, [r5, #12]
 4976              	.LVL524:
 4977              	.LBB513:
 4978              	.LBI513:
 236:lvgl/src/extra/themes/default/../../../../src/core/lv_disp.h **** {
 4979              		.loc 3 236 26 is_stmt 1 discriminator 8 view .LVU1500
 4980              	.LBB514:
 4981              		.loc 3 238 5 discriminator 8 view .LVU1501
ARM GAS  /var/folders/k2/cd9bl_j17z77g23y6ffqb_400000gn/T//ccRoPncs.s 			page 153


 4982              		.loc 3 238 12 is_stmt 0 discriminator 8 view .LVU1502
 4983 0a08 2846     		mov	r0, r5
 4984 0a0a FFF7FEFF 		bl	lv_disp_get_dpi
 4985              	.LVL525:
 4986 0a0e 00EB4000 		add	r0, r0, r0, lsl #1
 4987 0a12 EF28     		cmp	r0, #239
 4988 0a14 01F35283 		bgt	.L466
 4989              		.loc 3 238 12 view .LVU1503
 4990 0a18 0121     		movs	r1, #1
 4991              	.L203:
 4992              	.LVL526:
 4993              		.loc 3 238 12 view .LVU1504
 4994              	.LBE514:
 4995              	.LBE513:
 370:lvgl/src/extra/themes/default/lv_theme_default.c ****     lv_style_set_transform_height(&styles->grow, lv_disp_dpx(theme.disp, 3));
 4996              		.loc 1 370 5 view .LVU1505
 4997 0a1a 2046     		mov	r0, r4
 4998 0a1c FFF7FEFF 		bl	lv_style_set_transform_width
 4999              	.LVL527:
 371:lvgl/src/extra/themes/default/lv_theme_default.c **** #endif
 5000              		.loc 1 371 5 is_stmt 1 view .LVU1506
 371:lvgl/src/extra/themes/default/lv_theme_default.c **** #endif
 5001              		.loc 1 371 42 is_stmt 0 view .LVU1507
 5002 0a20 A84B     		ldr	r3, .L579+12
 5003 0a22 1C68     		ldr	r4, [r3]
 371:lvgl/src/extra/themes/default/lv_theme_default.c **** #endif
 5004              		.loc 1 371 5 view .LVU1508
 5005 0a24 C834     		adds	r4, r4, #200
 371:lvgl/src/extra/themes/default/lv_theme_default.c **** #endif
 5006              		.loc 1 371 67 view .LVU1509
 5007 0a26 A84B     		ldr	r3, .L579+16
 5008 0a28 DD68     		ldr	r5, [r3, #12]
 5009              	.LVL528:
 5010              	.LBB516:
 5011              	.LBI516:
 236:lvgl/src/extra/themes/default/../../../../src/core/lv_disp.h **** {
 5012              		.loc 3 236 26 is_stmt 1 view .LVU1510
 5013              	.LBB517:
 5014              		.loc 3 238 5 view .LVU1511
 5015              		.loc 3 238 12 is_stmt 0 view .LVU1512
 5016 0a2a 2846     		mov	r0, r5
 5017 0a2c FFF7FEFF 		bl	lv_disp_get_dpi
 5018              	.LVL529:
 5019 0a30 00EB4000 		add	r0, r0, r0, lsl #1
 5020 0a34 EF28     		cmp	r0, #239
 5021 0a36 01F35183 		bgt	.L467
 5022 0a3a 0121     		movs	r1, #1
 5023              	.L204:
 5024              	.LVL530:
 5025              		.loc 3 238 12 view .LVU1513
 5026              	.LBE517:
 5027              	.LBE516:
 371:lvgl/src/extra/themes/default/lv_theme_default.c **** #endif
 5028              		.loc 1 371 5 view .LVU1514
 5029 0a3c 2046     		mov	r0, r4
 5030 0a3e FFF7FEFF 		bl	lv_style_set_transform_height
 5031              	.LVL531:
ARM GAS  /var/folders/k2/cd9bl_j17z77g23y6ffqb_400000gn/T//ccRoPncs.s 			page 154


 374:lvgl/src/extra/themes/default/lv_theme_default.c ****     lv_style_set_bg_color(&styles->knob, theme.color_primary);
 5032              		.loc 1 374 5 is_stmt 1 view .LVU1515
 374:lvgl/src/extra/themes/default/lv_theme_default.c ****     lv_style_set_bg_color(&styles->knob, theme.color_primary);
 5033              		.loc 1 374 29 is_stmt 0 view .LVU1516
 5034 0a42 A04C     		ldr	r4, .L579+12
 5035 0a44 2068     		ldr	r0, [r4]
 374:lvgl/src/extra/themes/default/lv_theme_default.c ****     lv_style_set_bg_color(&styles->knob, theme.color_primary);
 5036              		.loc 1 374 5 view .LVU1517
 5037 0a46 E830     		adds	r0, r0, #232
 5038 0a48 FFF7FEFF 		bl	style_init_reset
 5039              	.LVL532:
 375:lvgl/src/extra/themes/default/lv_theme_default.c ****     lv_style_set_bg_opa(&styles->knob, LV_OPA_COVER);
 5040              		.loc 1 375 5 is_stmt 1 view .LVU1518
 375:lvgl/src/extra/themes/default/lv_theme_default.c ****     lv_style_set_bg_opa(&styles->knob, LV_OPA_COVER);
 5041              		.loc 1 375 34 is_stmt 0 view .LVU1519
 5042 0a4c 2068     		ldr	r0, [r4]
 375:lvgl/src/extra/themes/default/lv_theme_default.c ****     lv_style_set_bg_opa(&styles->knob, LV_OPA_COVER);
 5043              		.loc 1 375 5 view .LVU1520
 5044 0a4e 9E4E     		ldr	r6, .L579+16
 5045 0a50 3169     		ldr	r1, [r6, #16]
 5046 0a52 E830     		adds	r0, r0, #232
 5047 0a54 FFF7FEFF 		bl	lv_style_set_bg_color
 5048              	.LVL533:
 376:lvgl/src/extra/themes/default/lv_theme_default.c ****     lv_style_set_pad_all(&styles->knob, lv_disp_dpx(theme.disp, 6));
 5049              		.loc 1 376 5 is_stmt 1 view .LVU1521
 376:lvgl/src/extra/themes/default/lv_theme_default.c ****     lv_style_set_pad_all(&styles->knob, lv_disp_dpx(theme.disp, 6));
 5050              		.loc 1 376 32 is_stmt 0 view .LVU1522
 5051 0a58 2068     		ldr	r0, [r4]
 376:lvgl/src/extra/themes/default/lv_theme_default.c ****     lv_style_set_pad_all(&styles->knob, lv_disp_dpx(theme.disp, 6));
 5052              		.loc 1 376 5 view .LVU1523
 5053 0a5a FF21     		movs	r1, #255
 5054 0a5c E830     		adds	r0, r0, #232
 5055 0a5e FFF7FEFF 		bl	lv_style_set_bg_opa
 5056              	.LVL534:
 377:lvgl/src/extra/themes/default/lv_theme_default.c ****     lv_style_set_radius(&styles->knob, LV_RADIUS_CIRCLE);
 5057              		.loc 1 377 5 is_stmt 1 view .LVU1524
 377:lvgl/src/extra/themes/default/lv_theme_default.c ****     lv_style_set_radius(&styles->knob, LV_RADIUS_CIRCLE);
 5058              		.loc 1 377 33 is_stmt 0 view .LVU1525
 5059 0a62 2568     		ldr	r5, [r4]
 377:lvgl/src/extra/themes/default/lv_theme_default.c ****     lv_style_set_radius(&styles->knob, LV_RADIUS_CIRCLE);
 5060              		.loc 1 377 5 view .LVU1526
 5061 0a64 E835     		adds	r5, r5, #232
 377:lvgl/src/extra/themes/default/lv_theme_default.c ****     lv_style_set_radius(&styles->knob, LV_RADIUS_CIRCLE);
 5062              		.loc 1 377 58 view .LVU1527
 5063 0a66 F468     		ldr	r4, [r6, #12]
 5064              	.LVL535:
 5065              	.LBB519:
 5066              	.LBI519:
 236:lvgl/src/extra/themes/default/../../../../src/core/lv_disp.h **** {
 5067              		.loc 3 236 26 is_stmt 1 view .LVU1528
 5068              	.LBB520:
 5069              		.loc 3 238 5 view .LVU1529
 5070              		.loc 3 238 12 is_stmt 0 view .LVU1530
 5071 0a68 2046     		mov	r0, r4
 5072 0a6a FFF7FEFF 		bl	lv_disp_get_dpi
 5073              	.LVL536:
 5074 0a6e 00EB4000 		add	r0, r0, r0, lsl #1
ARM GAS  /var/folders/k2/cd9bl_j17z77g23y6ffqb_400000gn/T//ccRoPncs.s 			page 155


 5075 0a72 4000     		lsls	r0, r0, #1
 5076 0a74 EF28     		cmp	r0, #239
 5077 0a76 01F34183 		bgt	.L468
 5078 0a7a 0124     		movs	r4, #1
 5079              	.LVL537:
 5080              	.L205:
 5081              		.loc 3 238 12 view .LVU1531
 5082              	.LBE520:
 5083              	.LBE519:
 5084              	.LBB522:
 5085              	.LBI522:
 425:lvgl/src/extra/themes/default/../../../../src/core/../misc/lv_style.h ****     lv_style_set_pad_left(style, value);
 5086              		.loc 4 425 20 is_stmt 1 view .LVU1532
 5087              	.LBB523:
 426:lvgl/src/extra/themes/default/../../../../src/core/../misc/lv_style.h ****     lv_style_set_pad_right(style, value);
 5088              		.loc 4 426 5 view .LVU1533
 5089 0a7c 2146     		mov	r1, r4
 5090 0a7e 2846     		mov	r0, r5
 5091 0a80 FFF7FEFF 		bl	lv_style_set_pad_left
 5092              	.LVL538:
 427:lvgl/src/extra/themes/default/../../../../src/core/../misc/lv_style.h ****     lv_style_set_pad_top(style, value);
 5093              		.loc 4 427 5 view .LVU1534
 5094 0a84 2146     		mov	r1, r4
 5095 0a86 2846     		mov	r0, r5
 5096 0a88 FFF7FEFF 		bl	lv_style_set_pad_right
 5097              	.LVL539:
 428:lvgl/src/extra/themes/default/../../../../src/core/../misc/lv_style.h ****     lv_style_set_pad_bottom(style, value);
 5098              		.loc 4 428 5 view .LVU1535
 5099 0a8c 2146     		mov	r1, r4
 5100 0a8e 2846     		mov	r0, r5
 5101 0a90 FFF7FEFF 		bl	lv_style_set_pad_top
 5102              	.LVL540:
 429:lvgl/src/extra/themes/default/../../../../src/core/../misc/lv_style.h **** }
 5103              		.loc 4 429 5 view .LVU1536
 5104 0a94 2146     		mov	r1, r4
 5105 0a96 2846     		mov	r0, r5
 5106 0a98 FFF7FEFF 		bl	lv_style_set_pad_bottom
 5107              	.LVL541:
 429:lvgl/src/extra/themes/default/../../../../src/core/../misc/lv_style.h **** }
 5108              		.loc 4 429 5 is_stmt 0 view .LVU1537
 5109              	.LBE523:
 5110              	.LBE522:
 378:lvgl/src/extra/themes/default/lv_theme_default.c **** 
 5111              		.loc 1 378 5 is_stmt 1 view .LVU1538
 378:lvgl/src/extra/themes/default/lv_theme_default.c **** 
 5112              		.loc 1 378 32 is_stmt 0 view .LVU1539
 5113 0a9c 894C     		ldr	r4, .L579+12
 5114 0a9e 2068     		ldr	r0, [r4]
 378:lvgl/src/extra/themes/default/lv_theme_default.c **** 
 5115              		.loc 1 378 5 view .LVU1540
 5116 0aa0 47F6FF71 		movw	r1, #32767
 5117 0aa4 E830     		adds	r0, r0, #232
 5118 0aa6 FFF7FEFF 		bl	lv_style_set_radius
 5119              	.LVL542:
 380:lvgl/src/extra/themes/default/lv_theme_default.c ****     lv_style_set_anim_time(&styles->anim, 200);
 5120              		.loc 1 380 5 is_stmt 1 view .LVU1541
 380:lvgl/src/extra/themes/default/lv_theme_default.c ****     lv_style_set_anim_time(&styles->anim, 200);
ARM GAS  /var/folders/k2/cd9bl_j17z77g23y6ffqb_400000gn/T//ccRoPncs.s 			page 156


 5121              		.loc 1 380 29 is_stmt 0 view .LVU1542
 5122 0aaa 2068     		ldr	r0, [r4]
 380:lvgl/src/extra/themes/default/lv_theme_default.c ****     lv_style_set_anim_time(&styles->anim, 200);
 5123              		.loc 1 380 5 view .LVU1543
 5124 0aac E030     		adds	r0, r0, #224
 5125 0aae FFF7FEFF 		bl	style_init_reset
 5126              	.LVL543:
 381:lvgl/src/extra/themes/default/lv_theme_default.c **** 
 5127              		.loc 1 381 5 is_stmt 1 view .LVU1544
 381:lvgl/src/extra/themes/default/lv_theme_default.c **** 
 5128              		.loc 1 381 35 is_stmt 0 view .LVU1545
 5129 0ab2 2068     		ldr	r0, [r4]
 381:lvgl/src/extra/themes/default/lv_theme_default.c **** 
 5130              		.loc 1 381 5 view .LVU1546
 5131 0ab4 C821     		movs	r1, #200
 5132 0ab6 E030     		adds	r0, r0, #224
 5133 0ab8 FFF7FEFF 		bl	lv_style_set_anim_time
 5134              	.LVL544:
 384:lvgl/src/extra/themes/default/lv_theme_default.c ****     lv_style_set_arc_color(&styles->arc_indic, color_grey);
 5135              		.loc 1 384 5 is_stmt 1 view .LVU1547
 384:lvgl/src/extra/themes/default/lv_theme_default.c ****     lv_style_set_arc_color(&styles->arc_indic, color_grey);
 5136              		.loc 1 384 29 is_stmt 0 view .LVU1548
 5137 0abc 2068     		ldr	r0, [r4]
 384:lvgl/src/extra/themes/default/lv_theme_default.c ****     lv_style_set_arc_color(&styles->arc_indic, color_grey);
 5138              		.loc 1 384 5 view .LVU1549
 5139 0abe F830     		adds	r0, r0, #248
 5140 0ac0 FFF7FEFF 		bl	style_init_reset
 5141              	.LVL545:
 385:lvgl/src/extra/themes/default/lv_theme_default.c ****     lv_style_set_arc_width(&styles->arc_indic, lv_disp_dpx(theme.disp, 15));
 5142              		.loc 1 385 5 is_stmt 1 view .LVU1550
 385:lvgl/src/extra/themes/default/lv_theme_default.c ****     lv_style_set_arc_width(&styles->arc_indic, lv_disp_dpx(theme.disp, 15));
 5143              		.loc 1 385 35 is_stmt 0 view .LVU1551
 5144 0ac4 2068     		ldr	r0, [r4]
 385:lvgl/src/extra/themes/default/lv_theme_default.c ****     lv_style_set_arc_width(&styles->arc_indic, lv_disp_dpx(theme.disp, 15));
 5145              		.loc 1 385 5 view .LVU1552
 5146 0ac6 7C4B     		ldr	r3, .L579
 5147 0ac8 1968     		ldr	r1, [r3]
 5148 0aca F830     		adds	r0, r0, #248
 5149 0acc FFF7FEFF 		bl	lv_style_set_arc_color
 5150              	.LVL546:
 386:lvgl/src/extra/themes/default/lv_theme_default.c ****     lv_style_set_arc_rounded(&styles->arc_indic, true);
 5151              		.loc 1 386 5 is_stmt 1 view .LVU1553
 386:lvgl/src/extra/themes/default/lv_theme_default.c ****     lv_style_set_arc_rounded(&styles->arc_indic, true);
 5152              		.loc 1 386 35 is_stmt 0 view .LVU1554
 5153 0ad0 2468     		ldr	r4, [r4]
 386:lvgl/src/extra/themes/default/lv_theme_default.c ****     lv_style_set_arc_rounded(&styles->arc_indic, true);
 5154              		.loc 1 386 5 view .LVU1555
 5155 0ad2 F834     		adds	r4, r4, #248
 386:lvgl/src/extra/themes/default/lv_theme_default.c ****     lv_style_set_arc_rounded(&styles->arc_indic, true);
 5156              		.loc 1 386 65 view .LVU1556
 5157 0ad4 7C4B     		ldr	r3, .L579+16
 5158 0ad6 DD68     		ldr	r5, [r3, #12]
 5159              	.LVL547:
 5160              	.LBB524:
 5161              	.LBI524:
 236:lvgl/src/extra/themes/default/../../../../src/core/lv_disp.h **** {
 5162              		.loc 3 236 26 is_stmt 1 view .LVU1557
ARM GAS  /var/folders/k2/cd9bl_j17z77g23y6ffqb_400000gn/T//ccRoPncs.s 			page 157


 5163              	.LBB525:
 5164              		.loc 3 238 5 view .LVU1558
 5165              		.loc 3 238 12 is_stmt 0 view .LVU1559
 5166 0ad8 2846     		mov	r0, r5
 5167 0ada FFF7FEFF 		bl	lv_disp_get_dpi
 5168              	.LVL548:
 5169 0ade C0EB0010 		rsb	r0, r0, r0, lsl #4
 5170 0ae2 EF28     		cmp	r0, #239
 5171 0ae4 01F31A83 		bgt	.L469
 5172 0ae8 0121     		movs	r1, #1
 5173              	.L206:
 5174              	.LVL549:
 5175              		.loc 3 238 12 view .LVU1560
 5176              	.LBE525:
 5177              	.LBE524:
 386:lvgl/src/extra/themes/default/lv_theme_default.c ****     lv_style_set_arc_rounded(&styles->arc_indic, true);
 5178              		.loc 1 386 5 view .LVU1561
 5179 0aea 2046     		mov	r0, r4
 5180 0aec FFF7FEFF 		bl	lv_style_set_arc_width
 5181              	.LVL550:
 387:lvgl/src/extra/themes/default/lv_theme_default.c **** 
 5182              		.loc 1 387 5 is_stmt 1 view .LVU1562
 387:lvgl/src/extra/themes/default/lv_theme_default.c **** 
 5183              		.loc 1 387 37 is_stmt 0 view .LVU1563
 5184 0af0 744C     		ldr	r4, .L579+12
 5185 0af2 2068     		ldr	r0, [r4]
 387:lvgl/src/extra/themes/default/lv_theme_default.c **** 
 5186              		.loc 1 387 5 view .LVU1564
 5187 0af4 0121     		movs	r1, #1
 5188 0af6 F830     		adds	r0, r0, #248
 5189 0af8 FFF7FEFF 		bl	lv_style_set_arc_rounded
 5190              	.LVL551:
 389:lvgl/src/extra/themes/default/lv_theme_default.c ****     lv_style_set_arc_color(&styles->arc_indic_primary, theme.color_primary);
 5191              		.loc 1 389 5 is_stmt 1 view .LVU1565
 389:lvgl/src/extra/themes/default/lv_theme_default.c ****     lv_style_set_arc_color(&styles->arc_indic_primary, theme.color_primary);
 5192              		.loc 1 389 29 is_stmt 0 view .LVU1566
 5193 0afc 2068     		ldr	r0, [r4]
 389:lvgl/src/extra/themes/default/lv_theme_default.c ****     lv_style_set_arc_color(&styles->arc_indic_primary, theme.color_primary);
 5194              		.loc 1 389 5 view .LVU1567
 5195 0afe 00F58070 		add	r0, r0, #256
 5196 0b02 FFF7FEFF 		bl	style_init_reset
 5197              	.LVL552:
 390:lvgl/src/extra/themes/default/lv_theme_default.c **** #endif
 5198              		.loc 1 390 5 is_stmt 1 view .LVU1568
 390:lvgl/src/extra/themes/default/lv_theme_default.c **** #endif
 5199              		.loc 1 390 35 is_stmt 0 view .LVU1569
 5200 0b06 2068     		ldr	r0, [r4]
 390:lvgl/src/extra/themes/default/lv_theme_default.c **** #endif
 5201              		.loc 1 390 5 view .LVU1570
 5202 0b08 6F4E     		ldr	r6, .L579+16
 5203 0b0a 3169     		ldr	r1, [r6, #16]
 5204 0b0c 00F58070 		add	r0, r0, #256
 5205 0b10 FFF7FEFF 		bl	lv_style_set_arc_color
 5206              	.LVL553:
 394:lvgl/src/extra/themes/default/lv_theme_default.c ****     lv_style_set_max_height(&styles->dropdown_list, LV_DPI_DEF * 2);
 5207              		.loc 1 394 5 is_stmt 1 view .LVU1571
 394:lvgl/src/extra/themes/default/lv_theme_default.c ****     lv_style_set_max_height(&styles->dropdown_list, LV_DPI_DEF * 2);
ARM GAS  /var/folders/k2/cd9bl_j17z77g23y6ffqb_400000gn/T//ccRoPncs.s 			page 158


 5208              		.loc 1 394 29 is_stmt 0 view .LVU1572
 5209 0b14 2068     		ldr	r0, [r4]
 394:lvgl/src/extra/themes/default/lv_theme_default.c ****     lv_style_set_max_height(&styles->dropdown_list, LV_DPI_DEF * 2);
 5210              		.loc 1 394 5 view .LVU1573
 5211 0b16 00F59470 		add	r0, r0, #296
 5212 0b1a FFF7FEFF 		bl	style_init_reset
 5213              	.LVL554:
 395:lvgl/src/extra/themes/default/lv_theme_default.c **** #endif
 5214              		.loc 1 395 5 is_stmt 1 view .LVU1574
 395:lvgl/src/extra/themes/default/lv_theme_default.c **** #endif
 5215              		.loc 1 395 36 is_stmt 0 view .LVU1575
 5216 0b1e 2068     		ldr	r0, [r4]
 395:lvgl/src/extra/themes/default/lv_theme_default.c **** #endif
 5217              		.loc 1 395 5 view .LVU1576
 5218 0b20 4FF48271 		mov	r1, #260
 5219 0b24 00F59470 		add	r0, r0, #296
 5220 0b28 FFF7FEFF 		bl	lv_style_set_max_height
 5221              	.LVL555:
 398:lvgl/src/extra/themes/default/lv_theme_default.c ****     lv_style_set_pad_all(&styles->cb_marker, lv_disp_dpx(theme.disp, 3));
 5222              		.loc 1 398 5 is_stmt 1 view .LVU1577
 398:lvgl/src/extra/themes/default/lv_theme_default.c ****     lv_style_set_pad_all(&styles->cb_marker, lv_disp_dpx(theme.disp, 3));
 5223              		.loc 1 398 29 is_stmt 0 view .LVU1578
 5224 0b2c 2068     		ldr	r0, [r4]
 398:lvgl/src/extra/themes/default/lv_theme_default.c ****     lv_style_set_pad_all(&styles->cb_marker, lv_disp_dpx(theme.disp, 3));
 5225              		.loc 1 398 5 view .LVU1579
 5226 0b2e 00F59870 		add	r0, r0, #304
 5227 0b32 FFF7FEFF 		bl	style_init_reset
 5228              	.LVL556:
 399:lvgl/src/extra/themes/default/lv_theme_default.c ****     lv_style_set_border_width(&styles->cb_marker, BORDER_WIDTH);
 5229              		.loc 1 399 5 is_stmt 1 view .LVU1580
 399:lvgl/src/extra/themes/default/lv_theme_default.c ****     lv_style_set_border_width(&styles->cb_marker, BORDER_WIDTH);
 5230              		.loc 1 399 33 is_stmt 0 view .LVU1581
 5231 0b36 2568     		ldr	r5, [r4]
 399:lvgl/src/extra/themes/default/lv_theme_default.c ****     lv_style_set_border_width(&styles->cb_marker, BORDER_WIDTH);
 5232              		.loc 1 399 5 view .LVU1582
 5233 0b38 05F59875 		add	r5, r5, #304
 399:lvgl/src/extra/themes/default/lv_theme_default.c ****     lv_style_set_border_width(&styles->cb_marker, BORDER_WIDTH);
 5234              		.loc 1 399 63 view .LVU1583
 5235 0b3c F468     		ldr	r4, [r6, #12]
 5236              	.LVL557:
 5237              	.LBB527:
 5238              	.LBI527:
 236:lvgl/src/extra/themes/default/../../../../src/core/lv_disp.h **** {
 5239              		.loc 3 236 26 is_stmt 1 view .LVU1584
 5240              	.LBB528:
 5241              		.loc 3 238 5 view .LVU1585
 5242              		.loc 3 238 12 is_stmt 0 view .LVU1586
 5243 0b3e 2046     		mov	r0, r4
 5244 0b40 FFF7FEFF 		bl	lv_disp_get_dpi
 5245              	.LVL558:
 5246 0b44 00EB4000 		add	r0, r0, r0, lsl #1
 5247 0b48 EF28     		cmp	r0, #239
 5248 0b4a 01F3F782 		bgt	.L470
 5249 0b4e 0124     		movs	r4, #1
 5250              	.LVL559:
 5251              	.L207:
 5252              		.loc 3 238 12 view .LVU1587
ARM GAS  /var/folders/k2/cd9bl_j17z77g23y6ffqb_400000gn/T//ccRoPncs.s 			page 159


 5253              	.LBE528:
 5254              	.LBE527:
 5255              	.LBB530:
 5256              	.LBI530:
 425:lvgl/src/extra/themes/default/../../../../src/core/../misc/lv_style.h ****     lv_style_set_pad_left(style, value);
 5257              		.loc 4 425 20 is_stmt 1 view .LVU1588
 5258              	.LBB531:
 426:lvgl/src/extra/themes/default/../../../../src/core/../misc/lv_style.h ****     lv_style_set_pad_right(style, value);
 5259              		.loc 4 426 5 view .LVU1589
 5260 0b50 2146     		mov	r1, r4
 5261 0b52 2846     		mov	r0, r5
 5262 0b54 FFF7FEFF 		bl	lv_style_set_pad_left
 5263              	.LVL560:
 427:lvgl/src/extra/themes/default/../../../../src/core/../misc/lv_style.h ****     lv_style_set_pad_top(style, value);
 5264              		.loc 4 427 5 view .LVU1590
 5265 0b58 2146     		mov	r1, r4
 5266 0b5a 2846     		mov	r0, r5
 5267 0b5c FFF7FEFF 		bl	lv_style_set_pad_right
 5268              	.LVL561:
 428:lvgl/src/extra/themes/default/../../../../src/core/../misc/lv_style.h ****     lv_style_set_pad_bottom(style, value);
 5269              		.loc 4 428 5 view .LVU1591
 5270 0b60 2146     		mov	r1, r4
 5271 0b62 2846     		mov	r0, r5
 5272 0b64 FFF7FEFF 		bl	lv_style_set_pad_top
 5273              	.LVL562:
 429:lvgl/src/extra/themes/default/../../../../src/core/../misc/lv_style.h **** }
 5274              		.loc 4 429 5 view .LVU1592
 5275 0b68 2146     		mov	r1, r4
 5276 0b6a 2846     		mov	r0, r5
 5277 0b6c FFF7FEFF 		bl	lv_style_set_pad_bottom
 5278              	.LVL563:
 429:lvgl/src/extra/themes/default/../../../../src/core/../misc/lv_style.h **** }
 5279              		.loc 4 429 5 is_stmt 0 view .LVU1593
 5280              	.LBE531:
 5281              	.LBE530:
 400:lvgl/src/extra/themes/default/lv_theme_default.c ****     lv_style_set_border_color(&styles->cb_marker, theme.color_primary);
 5282              		.loc 1 400 5 is_stmt 1 view .LVU1594
 400:lvgl/src/extra/themes/default/lv_theme_default.c ****     lv_style_set_border_color(&styles->cb_marker, theme.color_primary);
 5283              		.loc 1 400 38 is_stmt 0 view .LVU1595
 5284 0b70 544B     		ldr	r3, .L579+12
 5285 0b72 1C68     		ldr	r4, [r3]
 400:lvgl/src/extra/themes/default/lv_theme_default.c ****     lv_style_set_border_color(&styles->cb_marker, theme.color_primary);
 5286              		.loc 1 400 5 view .LVU1596
 5287 0b74 04F59874 		add	r4, r4, #304
 400:lvgl/src/extra/themes/default/lv_theme_default.c ****     lv_style_set_border_color(&styles->cb_marker, theme.color_primary);
 5288              		.loc 1 400 51 view .LVU1597
 5289 0b78 534B     		ldr	r3, .L579+16
 5290 0b7a DD68     		ldr	r5, [r3, #12]
 5291              	.LVL564:
 5292              	.LBB532:
 5293              	.LBI532:
 236:lvgl/src/extra/themes/default/../../../../src/core/lv_disp.h **** {
 5294              		.loc 3 236 26 is_stmt 1 view .LVU1598
 5295              	.LBB533:
 5296              		.loc 3 238 5 view .LVU1599
 5297              		.loc 3 238 12 is_stmt 0 view .LVU1600
 5298 0b7c 2846     		mov	r0, r5
ARM GAS  /var/folders/k2/cd9bl_j17z77g23y6ffqb_400000gn/T//ccRoPncs.s 			page 160


 5299 0b7e FFF7FEFF 		bl	lv_disp_get_dpi
 5300              	.LVL565:
 5301 0b82 4000     		lsls	r0, r0, #1
 5302 0b84 EF28     		cmp	r0, #239
 5303 0b86 01F3E982 		bgt	.L471
 5304 0b8a 0121     		movs	r1, #1
 5305              	.L208:
 5306              	.LVL566:
 5307              		.loc 3 238 12 view .LVU1601
 5308              	.LBE533:
 5309              	.LBE532:
 400:lvgl/src/extra/themes/default/lv_theme_default.c ****     lv_style_set_border_color(&styles->cb_marker, theme.color_primary);
 5310              		.loc 1 400 5 view .LVU1602
 5311 0b8c 2046     		mov	r0, r4
 5312 0b8e FFF7FEFF 		bl	lv_style_set_border_width
 5313              	.LVL567:
 401:lvgl/src/extra/themes/default/lv_theme_default.c ****     lv_style_set_bg_color(&styles->cb_marker, color_card);
 5314              		.loc 1 401 5 is_stmt 1 view .LVU1603
 401:lvgl/src/extra/themes/default/lv_theme_default.c ****     lv_style_set_bg_color(&styles->cb_marker, color_card);
 5315              		.loc 1 401 38 is_stmt 0 view .LVU1604
 5316 0b92 4C4C     		ldr	r4, .L579+12
 5317 0b94 2068     		ldr	r0, [r4]
 401:lvgl/src/extra/themes/default/lv_theme_default.c ****     lv_style_set_bg_color(&styles->cb_marker, color_card);
 5318              		.loc 1 401 5 view .LVU1605
 5319 0b96 4C4B     		ldr	r3, .L579+16
 5320 0b98 1969     		ldr	r1, [r3, #16]
 5321 0b9a 00F59870 		add	r0, r0, #304
 5322 0b9e FFF7FEFF 		bl	lv_style_set_border_color
 5323              	.LVL568:
 402:lvgl/src/extra/themes/default/lv_theme_default.c ****     lv_style_set_bg_opa(&styles->cb_marker, LV_OPA_COVER);
 5324              		.loc 1 402 5 is_stmt 1 view .LVU1606
 402:lvgl/src/extra/themes/default/lv_theme_default.c ****     lv_style_set_bg_opa(&styles->cb_marker, LV_OPA_COVER);
 5325              		.loc 1 402 34 is_stmt 0 view .LVU1607
 5326 0ba2 2068     		ldr	r0, [r4]
 402:lvgl/src/extra/themes/default/lv_theme_default.c ****     lv_style_set_bg_opa(&styles->cb_marker, LV_OPA_COVER);
 5327              		.loc 1 402 5 view .LVU1608
 5328 0ba4 464B     		ldr	r3, .L579+8
 5329 0ba6 1968     		ldr	r1, [r3]
 5330 0ba8 00F59870 		add	r0, r0, #304
 5331 0bac FFF7FEFF 		bl	lv_style_set_bg_color
 5332              	.LVL569:
 403:lvgl/src/extra/themes/default/lv_theme_default.c ****     lv_style_set_radius(&styles->cb_marker, RADIUS_DEFAULT / 2);
 5333              		.loc 1 403 5 is_stmt 1 view .LVU1609
 403:lvgl/src/extra/themes/default/lv_theme_default.c ****     lv_style_set_radius(&styles->cb_marker, RADIUS_DEFAULT / 2);
 5334              		.loc 1 403 32 is_stmt 0 view .LVU1610
 5335 0bb0 2068     		ldr	r0, [r4]
 403:lvgl/src/extra/themes/default/lv_theme_default.c ****     lv_style_set_radius(&styles->cb_marker, RADIUS_DEFAULT / 2);
 5336              		.loc 1 403 5 view .LVU1611
 5337 0bb2 FF21     		movs	r1, #255
 5338 0bb4 00F59870 		add	r0, r0, #304
 5339 0bb8 FFF7FEFF 		bl	lv_style_set_bg_opa
 5340              	.LVL570:
 404:lvgl/src/extra/themes/default/lv_theme_default.c **** 
 5341              		.loc 1 404 5 is_stmt 1 view .LVU1612
 404:lvgl/src/extra/themes/default/lv_theme_default.c **** 
 5342              		.loc 1 404 32 is_stmt 0 view .LVU1613
 5343 0bbc 2468     		ldr	r4, [r4]
ARM GAS  /var/folders/k2/cd9bl_j17z77g23y6ffqb_400000gn/T//ccRoPncs.s 			page 161


 404:lvgl/src/extra/themes/default/lv_theme_default.c **** 
 5344              		.loc 1 404 5 view .LVU1614
 5345 0bbe 04F59874 		add	r4, r4, #304
 404:lvgl/src/extra/themes/default/lv_theme_default.c **** 
 5346              		.loc 1 404 45 view .LVU1615
 5347 0bc2 424B     		ldr	r3, .L579+20
 5348 0bc4 1B78     		ldrb	r3, [r3]	@ zero_extendqisi2
 404:lvgl/src/extra/themes/default/lv_theme_default.c **** 
 5349              		.loc 1 404 5 view .LVU1616
 5350 0bc6 012B     		cmp	r3, #1
 5351 0bc8 01F0D682 		beq	.L472
 404:lvgl/src/extra/themes/default/lv_theme_default.c **** 
 5352              		.loc 1 404 45 discriminator 2 view .LVU1617
 5353 0bcc 3E4B     		ldr	r3, .L579+16
 5354 0bce DD68     		ldr	r5, [r3, #12]
 5355              	.LVL571:
 5356              	.LBB535:
 5357              	.LBI535:
 236:lvgl/src/extra/themes/default/../../../../src/core/lv_disp.h **** {
 5358              		.loc 3 236 26 is_stmt 1 discriminator 2 view .LVU1618
 5359              	.LBB536:
 5360              		.loc 3 238 5 discriminator 2 view .LVU1619
 5361              		.loc 3 238 12 is_stmt 0 discriminator 2 view .LVU1620
 5362 0bd0 2846     		mov	r0, r5
 5363 0bd2 FFF7FEFF 		bl	lv_disp_get_dpi
 5364              	.LVL572:
 5365 0bd6 C000     		lsls	r0, r0, #3
 5366 0bd8 EF28     		cmp	r0, #239
 5367 0bda 01F3EC82 		bgt	.L473
 5368              		.loc 3 238 12 view .LVU1621
 5369 0bde 0121     		movs	r1, #1
 5370              	.L212:
 5371              	.LVL573:
 5372              		.loc 3 238 12 view .LVU1622
 5373              	.LBE536:
 5374              	.LBE535:
 404:lvgl/src/extra/themes/default/lv_theme_default.c **** 
 5375              		.loc 1 404 5 view .LVU1623
 5376 0be0 01EBD171 		add	r1, r1, r1, lsr #31
 5377 0be4 4910     		asrs	r1, r1, #1
 5378              	.L211:
 404:lvgl/src/extra/themes/default/lv_theme_default.c **** 
 5379              		.loc 1 404 5 discriminator 4 view .LVU1624
 5380 0be6 2046     		mov	r0, r4
 5381 0be8 FFF7FEFF 		bl	lv_style_set_radius
 5382              	.LVL574:
 406:lvgl/src/extra/themes/default/lv_theme_default.c ****     lv_style_set_bg_img_src(&styles->cb_marker_checked, LV_SYMBOL_OK);
 5383              		.loc 1 406 5 is_stmt 1 discriminator 4 view .LVU1625
 406:lvgl/src/extra/themes/default/lv_theme_default.c ****     lv_style_set_bg_img_src(&styles->cb_marker_checked, LV_SYMBOL_OK);
 5384              		.loc 1 406 29 is_stmt 0 discriminator 4 view .LVU1626
 5385 0bec 354C     		ldr	r4, .L579+12
 5386 0bee 2068     		ldr	r0, [r4]
 406:lvgl/src/extra/themes/default/lv_theme_default.c ****     lv_style_set_bg_img_src(&styles->cb_marker_checked, LV_SYMBOL_OK);
 5387              		.loc 1 406 5 discriminator 4 view .LVU1627
 5388 0bf0 00F59C70 		add	r0, r0, #312
 5389 0bf4 FFF7FEFF 		bl	style_init_reset
 5390              	.LVL575:
ARM GAS  /var/folders/k2/cd9bl_j17z77g23y6ffqb_400000gn/T//ccRoPncs.s 			page 162


 407:lvgl/src/extra/themes/default/lv_theme_default.c ****     lv_style_set_text_color(&styles->cb_marker_checked, lv_color_white());
 5391              		.loc 1 407 5 is_stmt 1 discriminator 4 view .LVU1628
 407:lvgl/src/extra/themes/default/lv_theme_default.c ****     lv_style_set_text_color(&styles->cb_marker_checked, lv_color_white());
 5392              		.loc 1 407 36 is_stmt 0 discriminator 4 view .LVU1629
 5393 0bf8 2068     		ldr	r0, [r4]
 407:lvgl/src/extra/themes/default/lv_theme_default.c ****     lv_style_set_text_color(&styles->cb_marker_checked, lv_color_white());
 5394              		.loc 1 407 5 discriminator 4 view .LVU1630
 5395 0bfa 3549     		ldr	r1, .L579+24
 5396 0bfc 00F59C70 		add	r0, r0, #312
 5397 0c00 FFF7FEFF 		bl	lv_style_set_bg_img_src
 5398              	.LVL576:
 408:lvgl/src/extra/themes/default/lv_theme_default.c ****     lv_style_set_text_font(&styles->cb_marker_checked, theme.font_small);
 5399              		.loc 1 408 5 is_stmt 1 discriminator 4 view .LVU1631
 408:lvgl/src/extra/themes/default/lv_theme_default.c ****     lv_style_set_text_font(&styles->cb_marker_checked, theme.font_small);
 5400              		.loc 1 408 36 is_stmt 0 discriminator 4 view .LVU1632
 5401 0c04 2068     		ldr	r0, [r4]
 5402              	.LBB538:
 5403              	.LBI538:
 5404              		.loc 2 674 26 is_stmt 1 discriminator 4 view .LVU1633
 5405              	.LBE538:
 5406              		.loc 2 674 49 discriminator 4 view .LVU1634
 5407              	.LVL577:
 5408              	.LBB541:
 5409              	.LBB539:
 5410              	.LBI539:
 602:lvgl/src/extra/themes/default/../../../../src/hal/../misc/lv_color.h **** {
 5411              		.loc 2 602 26 discriminator 4 view .LVU1635
 5412              	.LBB540:
 604:lvgl/src/extra/themes/default/../../../../src/hal/../misc/lv_color.h **** }
 5413              		.loc 2 604 5 discriminator 4 view .LVU1636
 604:lvgl/src/extra/themes/default/../../../../src/hal/../misc/lv_color.h **** }
 5414              		.loc 2 604 5 is_stmt 0 discriminator 4 view .LVU1637
 5415              	.LBE540:
 5416              	.LBE539:
 5417              	.LBE541:
 408:lvgl/src/extra/themes/default/lv_theme_default.c ****     lv_style_set_text_font(&styles->cb_marker_checked, theme.font_small);
 5418              		.loc 1 408 5 discriminator 4 view .LVU1638
 5419 0c06 4FF0FF31 		mov	r1, #-1
 5420 0c0a 00F59C70 		add	r0, r0, #312
 5421 0c0e FFF7FEFF 		bl	lv_style_set_text_color
 5422              	.LVL578:
 409:lvgl/src/extra/themes/default/lv_theme_default.c **** #endif
 5423              		.loc 1 409 5 is_stmt 1 discriminator 4 view .LVU1639
 409:lvgl/src/extra/themes/default/lv_theme_default.c **** #endif
 5424              		.loc 1 409 35 is_stmt 0 discriminator 4 view .LVU1640
 5425 0c12 2068     		ldr	r0, [r4]
 409:lvgl/src/extra/themes/default/lv_theme_default.c **** #endif
 5426              		.loc 1 409 5 discriminator 4 view .LVU1641
 5427 0c14 2C4E     		ldr	r6, .L579+16
 5428 0c16 B169     		ldr	r1, [r6, #24]
 5429 0c18 00F59C70 		add	r0, r0, #312
 5430 0c1c FFF7FEFF 		bl	lv_style_set_text_font
 5431              	.LVL579:
 413:lvgl/src/extra/themes/default/lv_theme_default.c ****     lv_style_set_pad_all(&styles->switch_knob, - lv_disp_dpx(theme.disp, 4));
 5432              		.loc 1 413 5 is_stmt 1 discriminator 4 view .LVU1642
 413:lvgl/src/extra/themes/default/lv_theme_default.c ****     lv_style_set_pad_all(&styles->switch_knob, - lv_disp_dpx(theme.disp, 4));
 5433              		.loc 1 413 29 is_stmt 0 discriminator 4 view .LVU1643
ARM GAS  /var/folders/k2/cd9bl_j17z77g23y6ffqb_400000gn/T//ccRoPncs.s 			page 163


 5434 0c20 2068     		ldr	r0, [r4]
 413:lvgl/src/extra/themes/default/lv_theme_default.c ****     lv_style_set_pad_all(&styles->switch_knob, - lv_disp_dpx(theme.disp, 4));
 5435              		.loc 1 413 5 discriminator 4 view .LVU1644
 5436 0c22 00F5A070 		add	r0, r0, #320
 5437 0c26 FFF7FEFF 		bl	style_init_reset
 5438              	.LVL580:
 414:lvgl/src/extra/themes/default/lv_theme_default.c ****     lv_style_set_bg_color(&styles->switch_knob, lv_color_white());
 5439              		.loc 1 414 5 is_stmt 1 discriminator 4 view .LVU1645
 414:lvgl/src/extra/themes/default/lv_theme_default.c ****     lv_style_set_bg_color(&styles->switch_knob, lv_color_white());
 5440              		.loc 1 414 33 is_stmt 0 discriminator 4 view .LVU1646
 5441 0c2a 2568     		ldr	r5, [r4]
 414:lvgl/src/extra/themes/default/lv_theme_default.c ****     lv_style_set_bg_color(&styles->switch_knob, lv_color_white());
 5442              		.loc 1 414 5 discriminator 4 view .LVU1647
 5443 0c2c 05F5A075 		add	r5, r5, #320
 414:lvgl/src/extra/themes/default/lv_theme_default.c ****     lv_style_set_bg_color(&styles->switch_knob, lv_color_white());
 5444              		.loc 1 414 67 discriminator 4 view .LVU1648
 5445 0c30 F468     		ldr	r4, [r6, #12]
 5446              	.LVL581:
 5447              	.LBB542:
 5448              	.LBI542:
 236:lvgl/src/extra/themes/default/../../../../src/core/lv_disp.h **** {
 5449              		.loc 3 236 26 is_stmt 1 discriminator 4 view .LVU1649
 5450              	.LBB543:
 5451              		.loc 3 238 5 discriminator 4 view .LVU1650
 5452              		.loc 3 238 12 is_stmt 0 discriminator 4 view .LVU1651
 5453 0c32 2046     		mov	r0, r4
 5454 0c34 FFF7FEFF 		bl	lv_disp_get_dpi
 5455              	.LVL582:
 5456 0c38 8000     		lsls	r0, r0, #2
 5457 0c3a EF28     		cmp	r0, #239
 5458 0c3c 01F3C982 		bgt	.L474
 5459              		.loc 3 238 12 view .LVU1652
 5460 0c40 0124     		movs	r4, #1
 5461              	.LVL583:
 5462              	.L213:
 5463              		.loc 3 238 12 view .LVU1653
 5464              	.LBE543:
 5465              	.LBE542:
 414:lvgl/src/extra/themes/default/lv_theme_default.c ****     lv_style_set_bg_color(&styles->switch_knob, lv_color_white());
 5466              		.loc 1 414 50 view .LVU1654
 5467 0c42 A4B2     		uxth	r4, r4
 414:lvgl/src/extra/themes/default/lv_theme_default.c ****     lv_style_set_bg_color(&styles->switch_knob, lv_color_white());
 5468              		.loc 1 414 5 view .LVU1655
 5469 0c44 6442     		rsbs	r4, r4, #0
 5470 0c46 24B2     		sxth	r4, r4
 5471              	.LVL584:
 5472              	.LBB545:
 5473              	.LBI545:
 425:lvgl/src/extra/themes/default/../../../../src/core/../misc/lv_style.h ****     lv_style_set_pad_left(style, value);
 5474              		.loc 4 425 20 is_stmt 1 view .LVU1656
 5475              	.LBB546:
 426:lvgl/src/extra/themes/default/../../../../src/core/../misc/lv_style.h ****     lv_style_set_pad_right(style, value);
 5476              		.loc 4 426 5 view .LVU1657
 5477 0c48 2146     		mov	r1, r4
 5478 0c4a 2846     		mov	r0, r5
 5479 0c4c FFF7FEFF 		bl	lv_style_set_pad_left
 5480              	.LVL585:
ARM GAS  /var/folders/k2/cd9bl_j17z77g23y6ffqb_400000gn/T//ccRoPncs.s 			page 164


 427:lvgl/src/extra/themes/default/../../../../src/core/../misc/lv_style.h ****     lv_style_set_pad_top(style, value);
 5481              		.loc 4 427 5 view .LVU1658
 5482 0c50 2146     		mov	r1, r4
 5483 0c52 2846     		mov	r0, r5
 5484 0c54 FFF7FEFF 		bl	lv_style_set_pad_right
 5485              	.LVL586:
 428:lvgl/src/extra/themes/default/../../../../src/core/../misc/lv_style.h ****     lv_style_set_pad_bottom(style, value);
 5486              		.loc 4 428 5 view .LVU1659
 5487 0c58 2146     		mov	r1, r4
 5488 0c5a 2846     		mov	r0, r5
 5489 0c5c FFF7FEFF 		bl	lv_style_set_pad_top
 5490              	.LVL587:
 429:lvgl/src/extra/themes/default/../../../../src/core/../misc/lv_style.h **** }
 5491              		.loc 4 429 5 view .LVU1660
 5492 0c60 2146     		mov	r1, r4
 5493 0c62 2846     		mov	r0, r5
 5494 0c64 FFF7FEFF 		bl	lv_style_set_pad_bottom
 5495              	.LVL588:
 429:lvgl/src/extra/themes/default/../../../../src/core/../misc/lv_style.h **** }
 5496              		.loc 4 429 5 is_stmt 0 view .LVU1661
 5497              	.LBE546:
 5498              	.LBE545:
 415:lvgl/src/extra/themes/default/lv_theme_default.c **** #endif
 5499              		.loc 1 415 5 is_stmt 1 view .LVU1662
 415:lvgl/src/extra/themes/default/lv_theme_default.c **** #endif
 5500              		.loc 1 415 34 is_stmt 0 view .LVU1663
 5501 0c68 164C     		ldr	r4, .L579+12
 5502 0c6a 2068     		ldr	r0, [r4]
 5503              	.LBB547:
 5504              	.LBI547:
 5505              		.loc 2 674 26 is_stmt 1 view .LVU1664
 5506              	.LBE547:
 5507              		.loc 2 674 49 view .LVU1665
 5508              	.LVL589:
 5509              	.LBB550:
 5510              	.LBB548:
 5511              	.LBI548:
 602:lvgl/src/extra/themes/default/../../../../src/hal/../misc/lv_color.h **** {
 5512              		.loc 2 602 26 view .LVU1666
 5513              	.LBB549:
 604:lvgl/src/extra/themes/default/../../../../src/hal/../misc/lv_color.h **** }
 5514              		.loc 2 604 5 view .LVU1667
 604:lvgl/src/extra/themes/default/../../../../src/hal/../misc/lv_color.h **** }
 5515              		.loc 2 604 5 is_stmt 0 view .LVU1668
 5516              	.LBE549:
 5517              	.LBE548:
 5518              	.LBE550:
 415:lvgl/src/extra/themes/default/lv_theme_default.c **** #endif
 5519              		.loc 1 415 5 view .LVU1669
 5520 0c6c 4FF0FF31 		mov	r1, #-1
 5521 0c70 00F5A070 		add	r0, r0, #320
 5522 0c74 FFF7FEFF 		bl	lv_style_set_bg_color
 5523              	.LVL590:
 419:lvgl/src/extra/themes/default/lv_theme_default.c ****     lv_style_set_line_width(&styles->line, 1);
 5524              		.loc 1 419 5 is_stmt 1 view .LVU1670
 419:lvgl/src/extra/themes/default/lv_theme_default.c ****     lv_style_set_line_width(&styles->line, 1);
 5525              		.loc 1 419 29 is_stmt 0 view .LVU1671
ARM GAS  /var/folders/k2/cd9bl_j17z77g23y6ffqb_400000gn/T//ccRoPncs.s 			page 165


 5526 0c78 2068     		ldr	r0, [r4]
 419:lvgl/src/extra/themes/default/lv_theme_default.c ****     lv_style_set_line_width(&styles->line, 1);
 5527              		.loc 1 419 5 view .LVU1672
 5528 0c7a 00F5A470 		add	r0, r0, #328
 5529 0c7e FFF7FEFF 		bl	style_init_reset
 5530              	.LVL591:
 420:lvgl/src/extra/themes/default/lv_theme_default.c ****     lv_style_set_line_color(&styles->line, color_text);
 5531              		.loc 1 420 5 is_stmt 1 view .LVU1673
 420:lvgl/src/extra/themes/default/lv_theme_default.c ****     lv_style_set_line_color(&styles->line, color_text);
 5532              		.loc 1 420 36 is_stmt 0 view .LVU1674
 5533 0c82 2068     		ldr	r0, [r4]
 420:lvgl/src/extra/themes/default/lv_theme_default.c ****     lv_style_set_line_color(&styles->line, color_text);
 5534              		.loc 1 420 5 view .LVU1675
 5535 0c84 0121     		movs	r1, #1
 5536 0c86 00F5A470 		add	r0, r0, #328
 5537 0c8a FFF7FEFF 		bl	lv_style_set_line_width
 5538              	.LVL592:
 421:lvgl/src/extra/themes/default/lv_theme_default.c **** #endif
 5539              		.loc 1 421 5 is_stmt 1 view .LVU1676
 421:lvgl/src/extra/themes/default/lv_theme_default.c **** #endif
 5540              		.loc 1 421 36 is_stmt 0 view .LVU1677
 5541 0c8e 2068     		ldr	r0, [r4]
 421:lvgl/src/extra/themes/default/lv_theme_default.c **** #endif
 5542              		.loc 1 421 5 view .LVU1678
 5543 0c90 0A4B     		ldr	r3, .L579+4
 5544 0c92 1968     		ldr	r1, [r3]
 5545 0c94 00F5A470 		add	r0, r0, #328
 5546 0c98 FFF7FEFF 		bl	lv_style_set_line_color
 5547              	.LVL593:
 425:lvgl/src/extra/themes/default/lv_theme_default.c ****     lv_style_set_border_post(&styles->chart_bg, false);
 5548              		.loc 1 425 5 is_stmt 1 view .LVU1679
 425:lvgl/src/extra/themes/default/lv_theme_default.c ****     lv_style_set_border_post(&styles->chart_bg, false);
 5549              		.loc 1 425 29 is_stmt 0 view .LVU1680
 5550 0c9c 2068     		ldr	r0, [r4]
 425:lvgl/src/extra/themes/default/lv_theme_default.c ****     lv_style_set_border_post(&styles->chart_bg, false);
 5551              		.loc 1 425 5 view .LVU1681
 5552 0c9e 00F59070 		add	r0, r0, #288
 5553 0ca2 FFF7FEFF 		bl	style_init_reset
 5554              	.LVL594:
 426:lvgl/src/extra/themes/default/lv_theme_default.c ****     lv_style_set_pad_column(&styles->chart_bg, lv_disp_dpx(theme.disp, 10));
 5555              		.loc 1 426 5 is_stmt 1 view .LVU1682
 426:lvgl/src/extra/themes/default/lv_theme_default.c ****     lv_style_set_pad_column(&styles->chart_bg, lv_disp_dpx(theme.disp, 10));
 5556              		.loc 1 426 37 is_stmt 0 view .LVU1683
 5557 0ca6 2068     		ldr	r0, [r4]
 426:lvgl/src/extra/themes/default/lv_theme_default.c ****     lv_style_set_pad_column(&styles->chart_bg, lv_disp_dpx(theme.disp, 10));
 5558              		.loc 1 426 5 view .LVU1684
 5559 0ca8 0021     		movs	r1, #0
 5560 0caa 00F59070 		add	r0, r0, #288
 5561 0cae FFF7FEFF 		bl	lv_style_set_border_post
 5562              	.LVL595:
 427:lvgl/src/extra/themes/default/lv_theme_default.c ****     lv_style_set_line_color(&styles->chart_bg, color_grey);
 5563              		.loc 1 427 5 is_stmt 1 view .LVU1685
 427:lvgl/src/extra/themes/default/lv_theme_default.c ****     lv_style_set_line_color(&styles->chart_bg, color_grey);
 5564              		.loc 1 427 36 is_stmt 0 view .LVU1686
 5565 0cb2 2468     		ldr	r4, [r4]
 5566 0cb4 0EE0     		b	.L580
 5567              	.L581:
ARM GAS  /var/folders/k2/cd9bl_j17z77g23y6ffqb_400000gn/T//ccRoPncs.s 			page 166


 5568 0cb6 00BF     		.align	2
 5569              	.L579:
 5570 0cb8 00000000 		.word	.LANCHOR7
 5571 0cbc 00000000 		.word	.LANCHOR5
 5572 0cc0 00000000 		.word	.LANCHOR6
 5573 0cc4 00000000 		.word	.LANCHOR0
 5574 0cc8 00000000 		.word	.LANCHOR3
 5575 0ccc 00000000 		.word	.LANCHOR1
 5576 0cd0 00000000 		.word	.LC0
 5577              	.L580:
 427:lvgl/src/extra/themes/default/lv_theme_default.c ****     lv_style_set_line_color(&styles->chart_bg, color_grey);
 5578              		.loc 1 427 5 view .LVU1687
 5579 0cd4 04F59074 		add	r4, r4, #288
 427:lvgl/src/extra/themes/default/lv_theme_default.c ****     lv_style_set_line_color(&styles->chart_bg, color_grey);
 5580              		.loc 1 427 65 view .LVU1688
 5581 0cd8 C94B     		ldr	r3, .L582
 5582 0cda DD68     		ldr	r5, [r3, #12]
 5583              	.LVL596:
 5584              	.LBB551:
 5585              	.LBI551:
 236:lvgl/src/extra/themes/default/../../../../src/core/lv_disp.h **** {
 5586              		.loc 3 236 26 is_stmt 1 view .LVU1689
 5587              	.LBB552:
 5588              		.loc 3 238 5 view .LVU1690
 5589              		.loc 3 238 12 is_stmt 0 view .LVU1691
 5590 0cdc 2846     		mov	r0, r5
 5591 0cde FFF7FEFF 		bl	lv_disp_get_dpi
 5592              	.LVL597:
 5593 0ce2 00EB8000 		add	r0, r0, r0, lsl #2
 5594 0ce6 4000     		lsls	r0, r0, #1
 5595 0ce8 EF28     		cmp	r0, #239
 5596 0cea 01F38082 		bgt	.L475
 5597 0cee 0121     		movs	r1, #1
 5598              	.L214:
 5599              	.LVL598:
 5600              		.loc 3 238 12 view .LVU1692
 5601              	.LBE552:
 5602              	.LBE551:
 427:lvgl/src/extra/themes/default/lv_theme_default.c ****     lv_style_set_line_color(&styles->chart_bg, color_grey);
 5603              		.loc 1 427 5 view .LVU1693
 5604 0cf0 2046     		mov	r0, r4
 5605 0cf2 FFF7FEFF 		bl	lv_style_set_pad_column
 5606              	.LVL599:
 428:lvgl/src/extra/themes/default/lv_theme_default.c **** 
 5607              		.loc 1 428 5 is_stmt 1 view .LVU1694
 428:lvgl/src/extra/themes/default/lv_theme_default.c **** 
 5608              		.loc 1 428 36 is_stmt 0 view .LVU1695
 5609 0cf6 C34C     		ldr	r4, .L582+4
 5610 0cf8 2068     		ldr	r0, [r4]
 428:lvgl/src/extra/themes/default/lv_theme_default.c **** 
 5611              		.loc 1 428 5 view .LVU1696
 5612 0cfa C34B     		ldr	r3, .L582+8
 5613 0cfc 1968     		ldr	r1, [r3]
 5614 0cfe 00F59070 		add	r0, r0, #288
 5615 0d02 FFF7FEFF 		bl	lv_style_set_line_color
 5616              	.LVL600:
 430:lvgl/src/extra/themes/default/lv_theme_default.c ****     lv_style_set_line_width(&styles->chart_series, lv_disp_dpx(theme.disp, 3));
ARM GAS  /var/folders/k2/cd9bl_j17z77g23y6ffqb_400000gn/T//ccRoPncs.s 			page 167


 5617              		.loc 1 430 5 is_stmt 1 view .LVU1697
 430:lvgl/src/extra/themes/default/lv_theme_default.c ****     lv_style_set_line_width(&styles->chart_series, lv_disp_dpx(theme.disp, 3));
 5618              		.loc 1 430 29 is_stmt 0 view .LVU1698
 5619 0d06 2068     		ldr	r0, [r4]
 430:lvgl/src/extra/themes/default/lv_theme_default.c ****     lv_style_set_line_width(&styles->chart_series, lv_disp_dpx(theme.disp, 3));
 5620              		.loc 1 430 5 view .LVU1699
 5621 0d08 00F58470 		add	r0, r0, #264
 5622 0d0c FFF7FEFF 		bl	style_init_reset
 5623              	.LVL601:
 431:lvgl/src/extra/themes/default/lv_theme_default.c ****     lv_style_set_radius(&styles->chart_series, lv_disp_dpx(theme.disp, 3));
 5624              		.loc 1 431 5 is_stmt 1 view .LVU1700
 431:lvgl/src/extra/themes/default/lv_theme_default.c ****     lv_style_set_radius(&styles->chart_series, lv_disp_dpx(theme.disp, 3));
 5625              		.loc 1 431 36 is_stmt 0 view .LVU1701
 5626 0d10 2468     		ldr	r4, [r4]
 431:lvgl/src/extra/themes/default/lv_theme_default.c ****     lv_style_set_radius(&styles->chart_series, lv_disp_dpx(theme.disp, 3));
 5627              		.loc 1 431 5 view .LVU1702
 5628 0d12 04F58474 		add	r4, r4, #264
 431:lvgl/src/extra/themes/default/lv_theme_default.c ****     lv_style_set_radius(&styles->chart_series, lv_disp_dpx(theme.disp, 3));
 5629              		.loc 1 431 69 view .LVU1703
 5630 0d16 BA4B     		ldr	r3, .L582
 5631 0d18 DD68     		ldr	r5, [r3, #12]
 5632              	.LVL602:
 5633              	.LBB554:
 5634              	.LBI554:
 236:lvgl/src/extra/themes/default/../../../../src/core/lv_disp.h **** {
 5635              		.loc 3 236 26 is_stmt 1 view .LVU1704
 5636              	.LBB555:
 5637              		.loc 3 238 5 view .LVU1705
 5638              		.loc 3 238 12 is_stmt 0 view .LVU1706
 5639 0d1a 2846     		mov	r0, r5
 5640 0d1c FFF7FEFF 		bl	lv_disp_get_dpi
 5641              	.LVL603:
 5642 0d20 00EB4000 		add	r0, r0, r0, lsl #1
 5643 0d24 EF28     		cmp	r0, #239
 5644 0d26 01F37282 		bgt	.L476
 5645 0d2a 0121     		movs	r1, #1
 5646              	.L215:
 5647              	.LVL604:
 5648              		.loc 3 238 12 view .LVU1707
 5649              	.LBE555:
 5650              	.LBE554:
 431:lvgl/src/extra/themes/default/lv_theme_default.c ****     lv_style_set_radius(&styles->chart_series, lv_disp_dpx(theme.disp, 3));
 5651              		.loc 1 431 5 view .LVU1708
 5652 0d2c 2046     		mov	r0, r4
 5653 0d2e FFF7FEFF 		bl	lv_style_set_line_width
 5654              	.LVL605:
 432:lvgl/src/extra/themes/default/lv_theme_default.c ****     lv_style_set_size(&styles->chart_series, lv_disp_dpx(theme.disp, 8));
 5655              		.loc 1 432 5 is_stmt 1 view .LVU1709
 432:lvgl/src/extra/themes/default/lv_theme_default.c ****     lv_style_set_size(&styles->chart_series, lv_disp_dpx(theme.disp, 8));
 5656              		.loc 1 432 32 is_stmt 0 view .LVU1710
 5657 0d32 B44B     		ldr	r3, .L582+4
 5658 0d34 1C68     		ldr	r4, [r3]
 432:lvgl/src/extra/themes/default/lv_theme_default.c ****     lv_style_set_size(&styles->chart_series, lv_disp_dpx(theme.disp, 8));
 5659              		.loc 1 432 5 view .LVU1711
 5660 0d36 04F58474 		add	r4, r4, #264
 432:lvgl/src/extra/themes/default/lv_theme_default.c ****     lv_style_set_size(&styles->chart_series, lv_disp_dpx(theme.disp, 8));
 5661              		.loc 1 432 65 view .LVU1712
ARM GAS  /var/folders/k2/cd9bl_j17z77g23y6ffqb_400000gn/T//ccRoPncs.s 			page 168


 5662 0d3a B14B     		ldr	r3, .L582
 5663 0d3c DD68     		ldr	r5, [r3, #12]
 5664              	.LVL606:
 5665              	.LBB557:
 5666              	.LBI557:
 236:lvgl/src/extra/themes/default/../../../../src/core/lv_disp.h **** {
 5667              		.loc 3 236 26 is_stmt 1 view .LVU1713
 5668              	.LBB558:
 5669              		.loc 3 238 5 view .LVU1714
 5670              		.loc 3 238 12 is_stmt 0 view .LVU1715
 5671 0d3e 2846     		mov	r0, r5
 5672 0d40 FFF7FEFF 		bl	lv_disp_get_dpi
 5673              	.LVL607:
 5674 0d44 00EB4000 		add	r0, r0, r0, lsl #1
 5675 0d48 EF28     		cmp	r0, #239
 5676 0d4a 01F37082 		bgt	.L477
 5677 0d4e 0121     		movs	r1, #1
 5678              	.L216:
 5679              	.LVL608:
 5680              		.loc 3 238 12 view .LVU1716
 5681              	.LBE558:
 5682              	.LBE557:
 432:lvgl/src/extra/themes/default/lv_theme_default.c ****     lv_style_set_size(&styles->chart_series, lv_disp_dpx(theme.disp, 8));
 5683              		.loc 1 432 5 view .LVU1717
 5684 0d50 2046     		mov	r0, r4
 5685 0d52 FFF7FEFF 		bl	lv_style_set_radius
 5686              	.LVL609:
 433:lvgl/src/extra/themes/default/lv_theme_default.c ****     lv_style_set_pad_column(&styles->chart_series, lv_disp_dpx(theme.disp, 2));
 5687              		.loc 1 433 5 is_stmt 1 view .LVU1718
 433:lvgl/src/extra/themes/default/lv_theme_default.c ****     lv_style_set_pad_column(&styles->chart_series, lv_disp_dpx(theme.disp, 2));
 5688              		.loc 1 433 30 is_stmt 0 view .LVU1719
 5689 0d56 AB4B     		ldr	r3, .L582+4
 5690 0d58 1D68     		ldr	r5, [r3]
 433:lvgl/src/extra/themes/default/lv_theme_default.c ****     lv_style_set_pad_column(&styles->chart_series, lv_disp_dpx(theme.disp, 2));
 5691              		.loc 1 433 5 view .LVU1720
 5692 0d5a 05F58475 		add	r5, r5, #264
 433:lvgl/src/extra/themes/default/lv_theme_default.c ****     lv_style_set_pad_column(&styles->chart_series, lv_disp_dpx(theme.disp, 2));
 5693              		.loc 1 433 63 view .LVU1721
 5694 0d5e A84B     		ldr	r3, .L582
 5695 0d60 DC68     		ldr	r4, [r3, #12]
 5696              	.LVL610:
 5697              	.LBB560:
 5698              	.LBI560:
 236:lvgl/src/extra/themes/default/../../../../src/core/lv_disp.h **** {
 5699              		.loc 3 236 26 is_stmt 1 view .LVU1722
 5700              	.LBB561:
 5701              		.loc 3 238 5 view .LVU1723
 5702              		.loc 3 238 12 is_stmt 0 view .LVU1724
 5703 0d62 2046     		mov	r0, r4
 5704 0d64 FFF7FEFF 		bl	lv_disp_get_dpi
 5705              	.LVL611:
 5706 0d68 C000     		lsls	r0, r0, #3
 5707 0d6a EF28     		cmp	r0, #239
 5708 0d6c 01F36F82 		bgt	.L478
 5709 0d70 0124     		movs	r4, #1
 5710              	.LVL612:
 5711              	.L217:
ARM GAS  /var/folders/k2/cd9bl_j17z77g23y6ffqb_400000gn/T//ccRoPncs.s 			page 169


 5712              		.loc 3 238 12 view .LVU1725
 5713              	.LBE561:
 5714              	.LBE560:
 5715              	.LBB563:
 5716              	.LBI563:
 447:lvgl/src/extra/themes/default/../../../../src/core/../misc/lv_style.h ****     lv_style_set_width(style, value);
 5717              		.loc 4 447 20 is_stmt 1 view .LVU1726
 5718              	.LBB564:
 448:lvgl/src/extra/themes/default/../../../../src/core/../misc/lv_style.h ****     lv_style_set_height(style, value);
 5719              		.loc 4 448 5 view .LVU1727
 5720 0d72 2146     		mov	r1, r4
 5721 0d74 2846     		mov	r0, r5
 5722 0d76 FFF7FEFF 		bl	lv_style_set_width
 5723              	.LVL613:
 5724              		.loc 4 449 5 view .LVU1728
 5725 0d7a 2146     		mov	r1, r4
 5726 0d7c 2846     		mov	r0, r5
 5727 0d7e FFF7FEFF 		bl	lv_style_set_height
 5728              	.LVL614:
 5729              		.loc 4 449 5 is_stmt 0 view .LVU1729
 5730              	.LBE564:
 5731              	.LBE563:
 434:lvgl/src/extra/themes/default/lv_theme_default.c **** 
 5732              		.loc 1 434 5 is_stmt 1 view .LVU1730
 434:lvgl/src/extra/themes/default/lv_theme_default.c **** 
 5733              		.loc 1 434 36 is_stmt 0 view .LVU1731
 5734 0d82 A04B     		ldr	r3, .L582+4
 5735 0d84 1C68     		ldr	r4, [r3]
 434:lvgl/src/extra/themes/default/lv_theme_default.c **** 
 5736              		.loc 1 434 5 view .LVU1732
 5737 0d86 04F58474 		add	r4, r4, #264
 434:lvgl/src/extra/themes/default/lv_theme_default.c **** 
 5738              		.loc 1 434 69 view .LVU1733
 5739 0d8a 9D4B     		ldr	r3, .L582
 5740 0d8c DD68     		ldr	r5, [r3, #12]
 5741              	.LVL615:
 5742              	.LBB565:
 5743              	.LBI565:
 236:lvgl/src/extra/themes/default/../../../../src/core/lv_disp.h **** {
 5744              		.loc 3 236 26 is_stmt 1 view .LVU1734
 5745              	.LBB566:
 5746              		.loc 3 238 5 view .LVU1735
 5747              		.loc 3 238 12 is_stmt 0 view .LVU1736
 5748 0d8e 2846     		mov	r0, r5
 5749 0d90 FFF7FEFF 		bl	lv_disp_get_dpi
 5750              	.LVL616:
 5751 0d94 4000     		lsls	r0, r0, #1
 5752 0d96 EF28     		cmp	r0, #239
 5753 0d98 01F36782 		bgt	.L479
 5754 0d9c 0121     		movs	r1, #1
 5755              	.L218:
 5756              	.LVL617:
 5757              		.loc 3 238 12 view .LVU1737
 5758              	.LBE566:
 5759              	.LBE565:
 434:lvgl/src/extra/themes/default/lv_theme_default.c **** 
 5760              		.loc 1 434 5 view .LVU1738
ARM GAS  /var/folders/k2/cd9bl_j17z77g23y6ffqb_400000gn/T//ccRoPncs.s 			page 170


 5761 0d9e 2046     		mov	r0, r4
 5762 0da0 FFF7FEFF 		bl	lv_style_set_pad_column
 5763              	.LVL618:
 436:lvgl/src/extra/themes/default/lv_theme_default.c ****     lv_style_set_radius(&styles->chart_indic,LV_RADIUS_CIRCLE);
 5764              		.loc 1 436 5 is_stmt 1 view .LVU1739
 436:lvgl/src/extra/themes/default/lv_theme_default.c ****     lv_style_set_radius(&styles->chart_indic,LV_RADIUS_CIRCLE);
 5765              		.loc 1 436 29 is_stmt 0 view .LVU1740
 5766 0da4 974C     		ldr	r4, .L582+4
 5767 0da6 2068     		ldr	r0, [r4]
 436:lvgl/src/extra/themes/default/lv_theme_default.c ****     lv_style_set_radius(&styles->chart_indic,LV_RADIUS_CIRCLE);
 5768              		.loc 1 436 5 view .LVU1741
 5769 0da8 00F58870 		add	r0, r0, #272
 5770 0dac FFF7FEFF 		bl	style_init_reset
 5771              	.LVL619:
 437:lvgl/src/extra/themes/default/lv_theme_default.c ****     lv_style_set_size(&styles->chart_indic, lv_disp_dpx(theme.disp, 8));
 5772              		.loc 1 437 5 is_stmt 1 view .LVU1742
 437:lvgl/src/extra/themes/default/lv_theme_default.c ****     lv_style_set_size(&styles->chart_indic, lv_disp_dpx(theme.disp, 8));
 5773              		.loc 1 437 32 is_stmt 0 view .LVU1743
 5774 0db0 2068     		ldr	r0, [r4]
 437:lvgl/src/extra/themes/default/lv_theme_default.c ****     lv_style_set_size(&styles->chart_indic, lv_disp_dpx(theme.disp, 8));
 5775              		.loc 1 437 5 view .LVU1744
 5776 0db2 47F6FF71 		movw	r1, #32767
 5777 0db6 00F58870 		add	r0, r0, #272
 5778 0dba FFF7FEFF 		bl	lv_style_set_radius
 5779              	.LVL620:
 438:lvgl/src/extra/themes/default/lv_theme_default.c ****     lv_style_set_bg_color(&styles->chart_indic, theme.color_primary);
 5780              		.loc 1 438 5 is_stmt 1 view .LVU1745
 438:lvgl/src/extra/themes/default/lv_theme_default.c ****     lv_style_set_bg_color(&styles->chart_indic, theme.color_primary);
 5781              		.loc 1 438 30 is_stmt 0 view .LVU1746
 5782 0dbe 2568     		ldr	r5, [r4]
 438:lvgl/src/extra/themes/default/lv_theme_default.c ****     lv_style_set_bg_color(&styles->chart_indic, theme.color_primary);
 5783              		.loc 1 438 5 view .LVU1747
 5784 0dc0 05F58875 		add	r5, r5, #272
 438:lvgl/src/extra/themes/default/lv_theme_default.c ****     lv_style_set_bg_color(&styles->chart_indic, theme.color_primary);
 5785              		.loc 1 438 62 view .LVU1748
 5786 0dc4 8E4B     		ldr	r3, .L582
 5787 0dc6 DC68     		ldr	r4, [r3, #12]
 5788              	.LVL621:
 5789              	.LBB568:
 5790              	.LBI568:
 236:lvgl/src/extra/themes/default/../../../../src/core/lv_disp.h **** {
 5791              		.loc 3 236 26 is_stmt 1 view .LVU1749
 5792              	.LBB569:
 5793              		.loc 3 238 5 view .LVU1750
 5794              		.loc 3 238 12 is_stmt 0 view .LVU1751
 5795 0dc8 2046     		mov	r0, r4
 5796 0dca FFF7FEFF 		bl	lv_disp_get_dpi
 5797              	.LVL622:
 5798 0dce C000     		lsls	r0, r0, #3
 5799 0dd0 EF28     		cmp	r0, #239
 5800 0dd2 01F35882 		bgt	.L480
 5801 0dd6 0124     		movs	r4, #1
 5802              	.LVL623:
 5803              	.L219:
 5804              		.loc 3 238 12 view .LVU1752
 5805              	.LBE569:
 5806              	.LBE568:
ARM GAS  /var/folders/k2/cd9bl_j17z77g23y6ffqb_400000gn/T//ccRoPncs.s 			page 171


 5807              	.LBB571:
 5808              	.LBI571:
 447:lvgl/src/extra/themes/default/../../../../src/core/../misc/lv_style.h ****     lv_style_set_width(style, value);
 5809              		.loc 4 447 20 is_stmt 1 view .LVU1753
 5810              	.LBB572:
 448:lvgl/src/extra/themes/default/../../../../src/core/../misc/lv_style.h ****     lv_style_set_height(style, value);
 5811              		.loc 4 448 5 view .LVU1754
 5812 0dd8 2146     		mov	r1, r4
 5813 0dda 2846     		mov	r0, r5
 5814 0ddc FFF7FEFF 		bl	lv_style_set_width
 5815              	.LVL624:
 5816              		.loc 4 449 5 view .LVU1755
 5817 0de0 2146     		mov	r1, r4
 5818 0de2 2846     		mov	r0, r5
 5819 0de4 FFF7FEFF 		bl	lv_style_set_height
 5820              	.LVL625:
 5821              		.loc 4 449 5 is_stmt 0 view .LVU1756
 5822              	.LBE572:
 5823              	.LBE571:
 439:lvgl/src/extra/themes/default/lv_theme_default.c ****     lv_style_set_bg_opa(&styles->chart_indic, LV_OPA_COVER);
 5824              		.loc 1 439 5 is_stmt 1 view .LVU1757
 439:lvgl/src/extra/themes/default/lv_theme_default.c ****     lv_style_set_bg_opa(&styles->chart_indic, LV_OPA_COVER);
 5825              		.loc 1 439 34 is_stmt 0 view .LVU1758
 5826 0de8 864C     		ldr	r4, .L582+4
 5827 0dea 2068     		ldr	r0, [r4]
 439:lvgl/src/extra/themes/default/lv_theme_default.c ****     lv_style_set_bg_opa(&styles->chart_indic, LV_OPA_COVER);
 5828              		.loc 1 439 5 view .LVU1759
 5829 0dec 844D     		ldr	r5, .L582
 5830 0dee 2969     		ldr	r1, [r5, #16]
 5831 0df0 00F58870 		add	r0, r0, #272
 5832 0df4 FFF7FEFF 		bl	lv_style_set_bg_color
 5833              	.LVL626:
 440:lvgl/src/extra/themes/default/lv_theme_default.c **** 
 5834              		.loc 1 440 5 is_stmt 1 view .LVU1760
 440:lvgl/src/extra/themes/default/lv_theme_default.c **** 
 5835              		.loc 1 440 32 is_stmt 0 view .LVU1761
 5836 0df8 2068     		ldr	r0, [r4]
 440:lvgl/src/extra/themes/default/lv_theme_default.c **** 
 5837              		.loc 1 440 5 view .LVU1762
 5838 0dfa FF21     		movs	r1, #255
 5839 0dfc 00F58870 		add	r0, r0, #272
 5840 0e00 FFF7FEFF 		bl	lv_style_set_bg_opa
 5841              	.LVL627:
 442:lvgl/src/extra/themes/default/lv_theme_default.c ****     lv_style_set_line_width(&styles->chart_ticks, lv_disp_dpx(theme.disp, 1));
 5842              		.loc 1 442 5 is_stmt 1 view .LVU1763
 442:lvgl/src/extra/themes/default/lv_theme_default.c ****     lv_style_set_line_width(&styles->chart_ticks, lv_disp_dpx(theme.disp, 1));
 5843              		.loc 1 442 29 is_stmt 0 view .LVU1764
 5844 0e04 2068     		ldr	r0, [r4]
 442:lvgl/src/extra/themes/default/lv_theme_default.c ****     lv_style_set_line_width(&styles->chart_ticks, lv_disp_dpx(theme.disp, 1));
 5845              		.loc 1 442 5 view .LVU1765
 5846 0e06 00F58C70 		add	r0, r0, #280
 5847 0e0a FFF7FEFF 		bl	style_init_reset
 5848              	.LVL628:
 443:lvgl/src/extra/themes/default/lv_theme_default.c ****     lv_style_set_line_color(&styles->chart_ticks, color_text);
 5849              		.loc 1 443 5 is_stmt 1 view .LVU1766
 443:lvgl/src/extra/themes/default/lv_theme_default.c ****     lv_style_set_line_color(&styles->chart_ticks, color_text);
 5850              		.loc 1 443 36 is_stmt 0 view .LVU1767
ARM GAS  /var/folders/k2/cd9bl_j17z77g23y6ffqb_400000gn/T//ccRoPncs.s 			page 172


 5851 0e0e 2468     		ldr	r4, [r4]
 443:lvgl/src/extra/themes/default/lv_theme_default.c ****     lv_style_set_line_color(&styles->chart_ticks, color_text);
 5852              		.loc 1 443 5 view .LVU1768
 5853 0e10 04F58C74 		add	r4, r4, #280
 443:lvgl/src/extra/themes/default/lv_theme_default.c ****     lv_style_set_line_color(&styles->chart_ticks, color_text);
 5854              		.loc 1 443 68 view .LVU1769
 5855 0e14 ED68     		ldr	r5, [r5, #12]
 5856              	.LVL629:
 5857              	.LBB573:
 5858              	.LBI573:
 236:lvgl/src/extra/themes/default/../../../../src/core/lv_disp.h **** {
 5859              		.loc 3 236 26 is_stmt 1 view .LVU1770
 5860              	.LBB574:
 5861              		.loc 3 238 5 view .LVU1771
 5862              		.loc 3 238 12 is_stmt 0 view .LVU1772
 5863 0e16 2846     		mov	r0, r5
 5864 0e18 FFF7FEFF 		bl	lv_disp_get_dpi
 5865              	.LVL630:
 5866 0e1c EF28     		cmp	r0, #239
 5867 0e1e 01F34082 		bgt	.L481
 5868 0e22 0121     		movs	r1, #1
 5869              	.L220:
 5870              	.LVL631:
 5871              		.loc 3 238 12 view .LVU1773
 5872              	.LBE574:
 5873              	.LBE573:
 443:lvgl/src/extra/themes/default/lv_theme_default.c ****     lv_style_set_line_color(&styles->chart_ticks, color_text);
 5874              		.loc 1 443 5 view .LVU1774
 5875 0e24 2046     		mov	r0, r4
 5876 0e26 FFF7FEFF 		bl	lv_style_set_line_width
 5877              	.LVL632:
 444:lvgl/src/extra/themes/default/lv_theme_default.c ****     lv_style_set_pad_all(&styles->chart_ticks, lv_disp_dpx(theme.disp, 2));
 5878              		.loc 1 444 5 is_stmt 1 view .LVU1775
 444:lvgl/src/extra/themes/default/lv_theme_default.c ****     lv_style_set_pad_all(&styles->chart_ticks, lv_disp_dpx(theme.disp, 2));
 5879              		.loc 1 444 36 is_stmt 0 view .LVU1776
 5880 0e2a 764C     		ldr	r4, .L582+4
 5881 0e2c 2068     		ldr	r0, [r4]
 444:lvgl/src/extra/themes/default/lv_theme_default.c ****     lv_style_set_pad_all(&styles->chart_ticks, lv_disp_dpx(theme.disp, 2));
 5882              		.loc 1 444 5 view .LVU1777
 5883 0e2e 774B     		ldr	r3, .L582+12
 5884 0e30 1968     		ldr	r1, [r3]
 5885 0e32 00F58C70 		add	r0, r0, #280
 5886 0e36 FFF7FEFF 		bl	lv_style_set_line_color
 5887              	.LVL633:
 445:lvgl/src/extra/themes/default/lv_theme_default.c ****     lv_style_set_text_color(&styles->chart_ticks, lv_palette_main(LV_PALETTE_GREY));
 5888              		.loc 1 445 5 is_stmt 1 view .LVU1778
 445:lvgl/src/extra/themes/default/lv_theme_default.c ****     lv_style_set_text_color(&styles->chart_ticks, lv_palette_main(LV_PALETTE_GREY));
 5889              		.loc 1 445 33 is_stmt 0 view .LVU1779
 5890 0e3a 2568     		ldr	r5, [r4]
 445:lvgl/src/extra/themes/default/lv_theme_default.c ****     lv_style_set_text_color(&styles->chart_ticks, lv_palette_main(LV_PALETTE_GREY));
 5891              		.loc 1 445 5 view .LVU1780
 5892 0e3c 05F58C75 		add	r5, r5, #280
 445:lvgl/src/extra/themes/default/lv_theme_default.c ****     lv_style_set_text_color(&styles->chart_ticks, lv_palette_main(LV_PALETTE_GREY));
 5893              		.loc 1 445 65 view .LVU1781
 5894 0e40 6F4B     		ldr	r3, .L582
 5895 0e42 DC68     		ldr	r4, [r3, #12]
 5896              	.LVL634:
ARM GAS  /var/folders/k2/cd9bl_j17z77g23y6ffqb_400000gn/T//ccRoPncs.s 			page 173


 5897              	.LBB576:
 5898              	.LBI576:
 236:lvgl/src/extra/themes/default/../../../../src/core/lv_disp.h **** {
 5899              		.loc 3 236 26 is_stmt 1 view .LVU1782
 5900              	.LBB577:
 5901              		.loc 3 238 5 view .LVU1783
 5902              		.loc 3 238 12 is_stmt 0 view .LVU1784
 5903 0e44 2046     		mov	r0, r4
 5904 0e46 FFF7FEFF 		bl	lv_disp_get_dpi
 5905              	.LVL635:
 5906 0e4a 4000     		lsls	r0, r0, #1
 5907 0e4c EF28     		cmp	r0, #239
 5908 0e4e 01F33582 		bgt	.L482
 5909 0e52 0124     		movs	r4, #1
 5910              	.LVL636:
 5911              	.L221:
 5912              		.loc 3 238 12 view .LVU1785
 5913              	.LBE577:
 5914              	.LBE576:
 5915              	.LBB579:
 5916              	.LBI579:
 425:lvgl/src/extra/themes/default/../../../../src/core/../misc/lv_style.h ****     lv_style_set_pad_left(style, value);
 5917              		.loc 4 425 20 is_stmt 1 view .LVU1786
 5918              	.LBB580:
 426:lvgl/src/extra/themes/default/../../../../src/core/../misc/lv_style.h ****     lv_style_set_pad_right(style, value);
 5919              		.loc 4 426 5 view .LVU1787
 5920 0e54 2146     		mov	r1, r4
 5921 0e56 2846     		mov	r0, r5
 5922 0e58 FFF7FEFF 		bl	lv_style_set_pad_left
 5923              	.LVL637:
 427:lvgl/src/extra/themes/default/../../../../src/core/../misc/lv_style.h ****     lv_style_set_pad_top(style, value);
 5924              		.loc 4 427 5 view .LVU1788
 5925 0e5c 2146     		mov	r1, r4
 5926 0e5e 2846     		mov	r0, r5
 5927 0e60 FFF7FEFF 		bl	lv_style_set_pad_right
 5928              	.LVL638:
 428:lvgl/src/extra/themes/default/../../../../src/core/../misc/lv_style.h ****     lv_style_set_pad_bottom(style, value);
 5929              		.loc 4 428 5 view .LVU1789
 5930 0e64 2146     		mov	r1, r4
 5931 0e66 2846     		mov	r0, r5
 5932 0e68 FFF7FEFF 		bl	lv_style_set_pad_top
 5933              	.LVL639:
 429:lvgl/src/extra/themes/default/../../../../src/core/../misc/lv_style.h **** }
 5934              		.loc 4 429 5 view .LVU1790
 5935 0e6c 2146     		mov	r1, r4
 5936 0e6e 2846     		mov	r0, r5
 5937 0e70 FFF7FEFF 		bl	lv_style_set_pad_bottom
 5938              	.LVL640:
 429:lvgl/src/extra/themes/default/../../../../src/core/../misc/lv_style.h **** }
 5939              		.loc 4 429 5 is_stmt 0 view .LVU1791
 5940              	.LBE580:
 5941              	.LBE579:
 446:lvgl/src/extra/themes/default/lv_theme_default.c **** #endif
 5942              		.loc 1 446 5 is_stmt 1 view .LVU1792
 446:lvgl/src/extra/themes/default/lv_theme_default.c **** #endif
 5943              		.loc 1 446 36 is_stmt 0 view .LVU1793
 5944 0e74 634C     		ldr	r4, .L582+4
ARM GAS  /var/folders/k2/cd9bl_j17z77g23y6ffqb_400000gn/T//ccRoPncs.s 			page 174


 5945 0e76 2568     		ldr	r5, [r4]
 446:lvgl/src/extra/themes/default/lv_theme_default.c **** #endif
 5946              		.loc 1 446 5 view .LVU1794
 5947 0e78 1220     		movs	r0, #18
 5948 0e7a FFF7FEFF 		bl	lv_palette_main
 5949              	.LVL641:
 5950 0e7e 0146     		mov	r1, r0
 5951 0e80 05F58C70 		add	r0, r5, #280
 5952 0e84 FFF7FEFF 		bl	lv_style_set_text_color
 5953              	.LVL642:
 450:lvgl/src/extra/themes/default/lv_theme_default.c ****     lv_style_set_line_width(&styles->meter_marker, lv_disp_dpx(theme.disp, 5));
 5954              		.loc 1 450 5 is_stmt 1 view .LVU1795
 450:lvgl/src/extra/themes/default/lv_theme_default.c ****     lv_style_set_line_width(&styles->meter_marker, lv_disp_dpx(theme.disp, 5));
 5955              		.loc 1 450 29 is_stmt 0 view .LVU1796
 5956 0e88 2068     		ldr	r0, [r4]
 450:lvgl/src/extra/themes/default/lv_theme_default.c ****     lv_style_set_line_width(&styles->meter_marker, lv_disp_dpx(theme.disp, 5));
 5957              		.loc 1 450 5 view .LVU1797
 5958 0e8a 00F5AC70 		add	r0, r0, #344
 5959 0e8e FFF7FEFF 		bl	style_init_reset
 5960              	.LVL643:
 451:lvgl/src/extra/themes/default/lv_theme_default.c ****     lv_style_set_line_color(&styles->meter_marker, color_text);
 5961              		.loc 1 451 5 is_stmt 1 view .LVU1798
 451:lvgl/src/extra/themes/default/lv_theme_default.c ****     lv_style_set_line_color(&styles->meter_marker, color_text);
 5962              		.loc 1 451 36 is_stmt 0 view .LVU1799
 5963 0e92 2468     		ldr	r4, [r4]
 451:lvgl/src/extra/themes/default/lv_theme_default.c ****     lv_style_set_line_color(&styles->meter_marker, color_text);
 5964              		.loc 1 451 5 view .LVU1800
 5965 0e94 04F5AC74 		add	r4, r4, #344
 451:lvgl/src/extra/themes/default/lv_theme_default.c ****     lv_style_set_line_color(&styles->meter_marker, color_text);
 5966              		.loc 1 451 69 view .LVU1801
 5967 0e98 594B     		ldr	r3, .L582
 5968 0e9a DD68     		ldr	r5, [r3, #12]
 5969              	.LVL644:
 5970              	.LBB581:
 5971              	.LBI581:
 236:lvgl/src/extra/themes/default/../../../../src/core/lv_disp.h **** {
 5972              		.loc 3 236 26 is_stmt 1 view .LVU1802
 5973              	.LBB582:
 5974              		.loc 3 238 5 view .LVU1803
 5975              		.loc 3 238 12 is_stmt 0 view .LVU1804
 5976 0e9c 2846     		mov	r0, r5
 5977 0e9e FFF7FEFF 		bl	lv_disp_get_dpi
 5978              	.LVL645:
 5979 0ea2 00EB8000 		add	r0, r0, r0, lsl #2
 5980 0ea6 EF28     		cmp	r0, #239
 5981 0ea8 01F31682 		bgt	.L483
 5982 0eac 0121     		movs	r1, #1
 5983              	.L222:
 5984              	.LVL646:
 5985              		.loc 3 238 12 view .LVU1805
 5986              	.LBE582:
 5987              	.LBE581:
 451:lvgl/src/extra/themes/default/lv_theme_default.c ****     lv_style_set_line_color(&styles->meter_marker, color_text);
 5988              		.loc 1 451 5 view .LVU1806
 5989 0eae 2046     		mov	r0, r4
 5990 0eb0 FFF7FEFF 		bl	lv_style_set_line_width
 5991              	.LVL647:
ARM GAS  /var/folders/k2/cd9bl_j17z77g23y6ffqb_400000gn/T//ccRoPncs.s 			page 175


 452:lvgl/src/extra/themes/default/lv_theme_default.c ****     lv_style_set_size(&styles->meter_marker, lv_disp_dpx(theme.disp, 20));
 5992              		.loc 1 452 5 is_stmt 1 view .LVU1807
 452:lvgl/src/extra/themes/default/lv_theme_default.c ****     lv_style_set_size(&styles->meter_marker, lv_disp_dpx(theme.disp, 20));
 5993              		.loc 1 452 36 is_stmt 0 view .LVU1808
 5994 0eb4 534C     		ldr	r4, .L582+4
 5995 0eb6 2068     		ldr	r0, [r4]
 452:lvgl/src/extra/themes/default/lv_theme_default.c ****     lv_style_set_size(&styles->meter_marker, lv_disp_dpx(theme.disp, 20));
 5996              		.loc 1 452 5 view .LVU1809
 5997 0eb8 544B     		ldr	r3, .L582+12
 5998 0eba 1968     		ldr	r1, [r3]
 5999 0ebc 00F5AC70 		add	r0, r0, #344
 6000 0ec0 FFF7FEFF 		bl	lv_style_set_line_color
 6001              	.LVL648:
 453:lvgl/src/extra/themes/default/lv_theme_default.c ****     lv_style_set_pad_left(&styles->meter_marker, lv_disp_dpx(theme.disp, 15));
 6002              		.loc 1 453 5 is_stmt 1 view .LVU1810
 453:lvgl/src/extra/themes/default/lv_theme_default.c ****     lv_style_set_pad_left(&styles->meter_marker, lv_disp_dpx(theme.disp, 15));
 6003              		.loc 1 453 30 is_stmt 0 view .LVU1811
 6004 0ec4 2568     		ldr	r5, [r4]
 453:lvgl/src/extra/themes/default/lv_theme_default.c ****     lv_style_set_pad_left(&styles->meter_marker, lv_disp_dpx(theme.disp, 15));
 6005              		.loc 1 453 5 view .LVU1812
 6006 0ec6 05F5AC75 		add	r5, r5, #344
 453:lvgl/src/extra/themes/default/lv_theme_default.c ****     lv_style_set_pad_left(&styles->meter_marker, lv_disp_dpx(theme.disp, 15));
 6007              		.loc 1 453 63 view .LVU1813
 6008 0eca 4D4B     		ldr	r3, .L582
 6009 0ecc DC68     		ldr	r4, [r3, #12]
 6010              	.LVL649:
 6011              	.LBB584:
 6012              	.LBI584:
 236:lvgl/src/extra/themes/default/../../../../src/core/lv_disp.h **** {
 6013              		.loc 3 236 26 is_stmt 1 view .LVU1814
 6014              	.LBB585:
 6015              		.loc 3 238 5 view .LVU1815
 6016              		.loc 3 238 12 is_stmt 0 view .LVU1816
 6017 0ece 2046     		mov	r0, r4
 6018 0ed0 FFF7FEFF 		bl	lv_disp_get_dpi
 6019              	.LVL650:
 6020 0ed4 00EB8000 		add	r0, r0, r0, lsl #2
 6021 0ed8 8000     		lsls	r0, r0, #2
 6022 0eda EF28     		cmp	r0, #239
 6023 0edc 01F30C82 		bgt	.L484
 6024 0ee0 0124     		movs	r4, #1
 6025              	.LVL651:
 6026              	.L223:
 6027              		.loc 3 238 12 view .LVU1817
 6028              	.LBE585:
 6029              	.LBE584:
 6030              	.LBB587:
 6031              	.LBI587:
 447:lvgl/src/extra/themes/default/../../../../src/core/../misc/lv_style.h ****     lv_style_set_width(style, value);
 6032              		.loc 4 447 20 is_stmt 1 view .LVU1818
 6033              	.LBB588:
 448:lvgl/src/extra/themes/default/../../../../src/core/../misc/lv_style.h ****     lv_style_set_height(style, value);
 6034              		.loc 4 448 5 view .LVU1819
 6035 0ee2 2146     		mov	r1, r4
 6036 0ee4 2846     		mov	r0, r5
 6037 0ee6 FFF7FEFF 		bl	lv_style_set_width
 6038              	.LVL652:
ARM GAS  /var/folders/k2/cd9bl_j17z77g23y6ffqb_400000gn/T//ccRoPncs.s 			page 176


 6039              		.loc 4 449 5 view .LVU1820
 6040 0eea 2146     		mov	r1, r4
 6041 0eec 2846     		mov	r0, r5
 6042 0eee FFF7FEFF 		bl	lv_style_set_height
 6043              	.LVL653:
 6044              		.loc 4 449 5 is_stmt 0 view .LVU1821
 6045              	.LBE588:
 6046              	.LBE587:
 454:lvgl/src/extra/themes/default/lv_theme_default.c **** 
 6047              		.loc 1 454 5 is_stmt 1 view .LVU1822
 454:lvgl/src/extra/themes/default/lv_theme_default.c **** 
 6048              		.loc 1 454 34 is_stmt 0 view .LVU1823
 6049 0ef2 444B     		ldr	r3, .L582+4
 6050 0ef4 1C68     		ldr	r4, [r3]
 454:lvgl/src/extra/themes/default/lv_theme_default.c **** 
 6051              		.loc 1 454 5 view .LVU1824
 6052 0ef6 04F5AC74 		add	r4, r4, #344
 454:lvgl/src/extra/themes/default/lv_theme_default.c **** 
 6053              		.loc 1 454 67 view .LVU1825
 6054 0efa 414B     		ldr	r3, .L582
 6055 0efc DD68     		ldr	r5, [r3, #12]
 6056              	.LVL654:
 6057              	.LBB589:
 6058              	.LBI589:
 236:lvgl/src/extra/themes/default/../../../../src/core/lv_disp.h **** {
 6059              		.loc 3 236 26 is_stmt 1 view .LVU1826
 6060              	.LBB590:
 6061              		.loc 3 238 5 view .LVU1827
 6062              		.loc 3 238 12 is_stmt 0 view .LVU1828
 6063 0efe 2846     		mov	r0, r5
 6064 0f00 FFF7FEFF 		bl	lv_disp_get_dpi
 6065              	.LVL655:
 6066 0f04 C0EB0010 		rsb	r0, r0, r0, lsl #4
 6067 0f08 EF28     		cmp	r0, #239
 6068 0f0a 01F30582 		bgt	.L485
 6069 0f0e 0121     		movs	r1, #1
 6070              	.L224:
 6071              	.LVL656:
 6072              		.loc 3 238 12 view .LVU1829
 6073              	.LBE590:
 6074              	.LBE589:
 454:lvgl/src/extra/themes/default/lv_theme_default.c **** 
 6075              		.loc 1 454 5 view .LVU1830
 6076 0f10 2046     		mov	r0, r4
 6077 0f12 FFF7FEFF 		bl	lv_style_set_pad_left
 6078              	.LVL657:
 456:lvgl/src/extra/themes/default/lv_theme_default.c ****     lv_style_set_radius(&styles->meter_indic, LV_RADIUS_CIRCLE);
 6079              		.loc 1 456 5 is_stmt 1 view .LVU1831
 456:lvgl/src/extra/themes/default/lv_theme_default.c ****     lv_style_set_radius(&styles->meter_indic, LV_RADIUS_CIRCLE);
 6080              		.loc 1 456 29 is_stmt 0 view .LVU1832
 6081 0f16 3B4C     		ldr	r4, .L582+4
 6082 0f18 2068     		ldr	r0, [r4]
 456:lvgl/src/extra/themes/default/lv_theme_default.c ****     lv_style_set_radius(&styles->meter_indic, LV_RADIUS_CIRCLE);
 6083              		.loc 1 456 5 view .LVU1833
 6084 0f1a 00F5B070 		add	r0, r0, #352
 6085 0f1e FFF7FEFF 		bl	style_init_reset
 6086              	.LVL658:
ARM GAS  /var/folders/k2/cd9bl_j17z77g23y6ffqb_400000gn/T//ccRoPncs.s 			page 177


 457:lvgl/src/extra/themes/default/lv_theme_default.c ****     lv_style_set_bg_color(&styles->meter_indic, color_text);
 6087              		.loc 1 457 5 is_stmt 1 view .LVU1834
 457:lvgl/src/extra/themes/default/lv_theme_default.c ****     lv_style_set_bg_color(&styles->meter_indic, color_text);
 6088              		.loc 1 457 32 is_stmt 0 view .LVU1835
 6089 0f22 2068     		ldr	r0, [r4]
 457:lvgl/src/extra/themes/default/lv_theme_default.c ****     lv_style_set_bg_color(&styles->meter_indic, color_text);
 6090              		.loc 1 457 5 view .LVU1836
 6091 0f24 47F6FF71 		movw	r1, #32767
 6092 0f28 00F5B070 		add	r0, r0, #352
 6093 0f2c FFF7FEFF 		bl	lv_style_set_radius
 6094              	.LVL659:
 458:lvgl/src/extra/themes/default/lv_theme_default.c ****     lv_style_set_bg_opa(&styles->meter_indic, LV_OPA_COVER);
 6095              		.loc 1 458 5 is_stmt 1 view .LVU1837
 458:lvgl/src/extra/themes/default/lv_theme_default.c ****     lv_style_set_bg_opa(&styles->meter_indic, LV_OPA_COVER);
 6096              		.loc 1 458 34 is_stmt 0 view .LVU1838
 6097 0f30 2068     		ldr	r0, [r4]
 458:lvgl/src/extra/themes/default/lv_theme_default.c ****     lv_style_set_bg_opa(&styles->meter_indic, LV_OPA_COVER);
 6098              		.loc 1 458 5 view .LVU1839
 6099 0f32 364B     		ldr	r3, .L582+12
 6100 0f34 1968     		ldr	r1, [r3]
 6101 0f36 00F5B070 		add	r0, r0, #352
 6102 0f3a FFF7FEFF 		bl	lv_style_set_bg_color
 6103              	.LVL660:
 459:lvgl/src/extra/themes/default/lv_theme_default.c ****     lv_style_set_size(&styles->meter_indic, lv_disp_dpx(theme.disp, 15));
 6104              		.loc 1 459 5 is_stmt 1 view .LVU1840
 459:lvgl/src/extra/themes/default/lv_theme_default.c ****     lv_style_set_size(&styles->meter_indic, lv_disp_dpx(theme.disp, 15));
 6105              		.loc 1 459 32 is_stmt 0 view .LVU1841
 6106 0f3e 2068     		ldr	r0, [r4]
 459:lvgl/src/extra/themes/default/lv_theme_default.c ****     lv_style_set_size(&styles->meter_indic, lv_disp_dpx(theme.disp, 15));
 6107              		.loc 1 459 5 view .LVU1842
 6108 0f40 FF21     		movs	r1, #255
 6109 0f42 00F5B070 		add	r0, r0, #352
 6110 0f46 FFF7FEFF 		bl	lv_style_set_bg_opa
 6111              	.LVL661:
 460:lvgl/src/extra/themes/default/lv_theme_default.c **** #endif
 6112              		.loc 1 460 5 is_stmt 1 view .LVU1843
 460:lvgl/src/extra/themes/default/lv_theme_default.c **** #endif
 6113              		.loc 1 460 30 is_stmt 0 view .LVU1844
 6114 0f4a 2568     		ldr	r5, [r4]
 460:lvgl/src/extra/themes/default/lv_theme_default.c **** #endif
 6115              		.loc 1 460 5 view .LVU1845
 6116 0f4c 05F5B075 		add	r5, r5, #352
 460:lvgl/src/extra/themes/default/lv_theme_default.c **** #endif
 6117              		.loc 1 460 62 view .LVU1846
 6118 0f50 2B4B     		ldr	r3, .L582
 6119 0f52 DC68     		ldr	r4, [r3, #12]
 6120              	.LVL662:
 6121              	.LBB592:
 6122              	.LBI592:
 236:lvgl/src/extra/themes/default/../../../../src/core/lv_disp.h **** {
 6123              		.loc 3 236 26 is_stmt 1 view .LVU1847
 6124              	.LBB593:
 6125              		.loc 3 238 5 view .LVU1848
 6126              		.loc 3 238 12 is_stmt 0 view .LVU1849
 6127 0f54 2046     		mov	r0, r4
 6128 0f56 FFF7FEFF 		bl	lv_disp_get_dpi
 6129              	.LVL663:
ARM GAS  /var/folders/k2/cd9bl_j17z77g23y6ffqb_400000gn/T//ccRoPncs.s 			page 178


 6130 0f5a C0EB0010 		rsb	r0, r0, r0, lsl #4
 6131 0f5e EF28     		cmp	r0, #239
 6132 0f60 01F3EA81 		bgt	.L486
 6133 0f64 0124     		movs	r4, #1
 6134              	.LVL664:
 6135              	.L225:
 6136              		.loc 3 238 12 view .LVU1850
 6137              	.LBE593:
 6138              	.LBE592:
 6139              	.LBB595:
 6140              	.LBI595:
 447:lvgl/src/extra/themes/default/../../../../src/core/../misc/lv_style.h ****     lv_style_set_width(style, value);
 6141              		.loc 4 447 20 is_stmt 1 view .LVU1851
 6142              	.LBB596:
 448:lvgl/src/extra/themes/default/../../../../src/core/../misc/lv_style.h ****     lv_style_set_height(style, value);
 6143              		.loc 4 448 5 view .LVU1852
 6144 0f66 2146     		mov	r1, r4
 6145 0f68 2846     		mov	r0, r5
 6146 0f6a FFF7FEFF 		bl	lv_style_set_width
 6147              	.LVL665:
 6148              		.loc 4 449 5 view .LVU1853
 6149 0f6e 2146     		mov	r1, r4
 6150 0f70 2846     		mov	r0, r5
 6151 0f72 FFF7FEFF 		bl	lv_style_set_height
 6152              	.LVL666:
 6153              		.loc 4 449 5 is_stmt 0 view .LVU1854
 6154              	.LBE596:
 6155              	.LBE595:
 464:lvgl/src/extra/themes/default/lv_theme_default.c ****     lv_style_set_border_width(&styles->table_cell, lv_disp_dpx(theme.disp, 1));
 6156              		.loc 1 464 5 is_stmt 1 view .LVU1855
 464:lvgl/src/extra/themes/default/lv_theme_default.c ****     lv_style_set_border_width(&styles->table_cell, lv_disp_dpx(theme.disp, 1));
 6157              		.loc 1 464 29 is_stmt 0 view .LVU1856
 6158 0f76 234C     		ldr	r4, .L582+4
 6159 0f78 2068     		ldr	r0, [r4]
 464:lvgl/src/extra/themes/default/lv_theme_default.c ****     lv_style_set_border_width(&styles->table_cell, lv_disp_dpx(theme.disp, 1));
 6160              		.loc 1 464 5 view .LVU1857
 6161 0f7a 00F5A870 		add	r0, r0, #336
 6162 0f7e FFF7FEFF 		bl	style_init_reset
 6163              	.LVL667:
 465:lvgl/src/extra/themes/default/lv_theme_default.c ****     lv_style_set_border_color(&styles->table_cell, color_grey);
 6164              		.loc 1 465 5 is_stmt 1 view .LVU1858
 465:lvgl/src/extra/themes/default/lv_theme_default.c ****     lv_style_set_border_color(&styles->table_cell, color_grey);
 6165              		.loc 1 465 38 is_stmt 0 view .LVU1859
 6166 0f82 2468     		ldr	r4, [r4]
 465:lvgl/src/extra/themes/default/lv_theme_default.c ****     lv_style_set_border_color(&styles->table_cell, color_grey);
 6167              		.loc 1 465 5 view .LVU1860
 6168 0f84 04F5A874 		add	r4, r4, #336
 465:lvgl/src/extra/themes/default/lv_theme_default.c ****     lv_style_set_border_color(&styles->table_cell, color_grey);
 6169              		.loc 1 465 69 view .LVU1861
 6170 0f88 1D4B     		ldr	r3, .L582
 6171 0f8a DD68     		ldr	r5, [r3, #12]
 6172              	.LVL668:
 6173              	.LBB597:
 6174              	.LBI597:
 236:lvgl/src/extra/themes/default/../../../../src/core/lv_disp.h **** {
 6175              		.loc 3 236 26 is_stmt 1 view .LVU1862
 6176              	.LBB598:
ARM GAS  /var/folders/k2/cd9bl_j17z77g23y6ffqb_400000gn/T//ccRoPncs.s 			page 179


 6177              		.loc 3 238 5 view .LVU1863
 6178              		.loc 3 238 12 is_stmt 0 view .LVU1864
 6179 0f8c 2846     		mov	r0, r5
 6180 0f8e FFF7FEFF 		bl	lv_disp_get_dpi
 6181              	.LVL669:
 6182 0f92 EF28     		cmp	r0, #239
 6183 0f94 01F3E081 		bgt	.L487
 6184 0f98 0121     		movs	r1, #1
 6185              	.L226:
 6186              	.LVL670:
 6187              		.loc 3 238 12 view .LVU1865
 6188              	.LBE598:
 6189              	.LBE597:
 465:lvgl/src/extra/themes/default/lv_theme_default.c ****     lv_style_set_border_color(&styles->table_cell, color_grey);
 6190              		.loc 1 465 5 view .LVU1866
 6191 0f9a 2046     		mov	r0, r4
 6192 0f9c FFF7FEFF 		bl	lv_style_set_border_width
 6193              	.LVL671:
 466:lvgl/src/extra/themes/default/lv_theme_default.c ****     lv_style_set_border_side(&styles->table_cell, LV_BORDER_SIDE_TOP | LV_BORDER_SIDE_BOTTOM );
 6194              		.loc 1 466 5 is_stmt 1 view .LVU1867
 466:lvgl/src/extra/themes/default/lv_theme_default.c ****     lv_style_set_border_side(&styles->table_cell, LV_BORDER_SIDE_TOP | LV_BORDER_SIDE_BOTTOM );
 6195              		.loc 1 466 38 is_stmt 0 view .LVU1868
 6196 0fa0 184C     		ldr	r4, .L582+4
 6197 0fa2 2068     		ldr	r0, [r4]
 466:lvgl/src/extra/themes/default/lv_theme_default.c ****     lv_style_set_border_side(&styles->table_cell, LV_BORDER_SIDE_TOP | LV_BORDER_SIDE_BOTTOM );
 6198              		.loc 1 466 5 view .LVU1869
 6199 0fa4 184B     		ldr	r3, .L582+8
 6200 0fa6 1968     		ldr	r1, [r3]
 6201 0fa8 00F5A870 		add	r0, r0, #336
 6202 0fac FFF7FEFF 		bl	lv_style_set_border_color
 6203              	.LVL672:
 467:lvgl/src/extra/themes/default/lv_theme_default.c **** #endif
 6204              		.loc 1 467 5 is_stmt 1 view .LVU1870
 467:lvgl/src/extra/themes/default/lv_theme_default.c **** #endif
 6205              		.loc 1 467 37 is_stmt 0 view .LVU1871
 6206 0fb0 2068     		ldr	r0, [r4]
 467:lvgl/src/extra/themes/default/lv_theme_default.c **** #endif
 6207              		.loc 1 467 5 view .LVU1872
 6208 0fb2 0321     		movs	r1, #3
 6209 0fb4 00F5A870 		add	r0, r0, #336
 6210 0fb8 FFF7FEFF 		bl	lv_style_set_border_side
 6211              	.LVL673:
 471:lvgl/src/extra/themes/default/lv_theme_default.c ****     lv_style_set_border_color(&styles->ta_cursor, color_text);
 6212              		.loc 1 471 5 is_stmt 1 view .LVU1873
 471:lvgl/src/extra/themes/default/lv_theme_default.c ****     lv_style_set_border_color(&styles->ta_cursor, color_text);
 6213              		.loc 1 471 29 is_stmt 0 view .LVU1874
 6214 0fbc 2068     		ldr	r0, [r4]
 471:lvgl/src/extra/themes/default/lv_theme_default.c ****     lv_style_set_border_color(&styles->ta_cursor, color_text);
 6215              		.loc 1 471 5 view .LVU1875
 6216 0fbe 00F5B470 		add	r0, r0, #360
 6217 0fc2 FFF7FEFF 		bl	style_init_reset
 6218              	.LVL674:
 472:lvgl/src/extra/themes/default/lv_theme_default.c ****     lv_style_set_border_width(&styles->ta_cursor, lv_disp_dpx(theme.disp, 2));
 6219              		.loc 1 472 5 is_stmt 1 view .LVU1876
 472:lvgl/src/extra/themes/default/lv_theme_default.c ****     lv_style_set_border_width(&styles->ta_cursor, lv_disp_dpx(theme.disp, 2));
 6220              		.loc 1 472 38 is_stmt 0 view .LVU1877
 6221 0fc6 2068     		ldr	r0, [r4]
ARM GAS  /var/folders/k2/cd9bl_j17z77g23y6ffqb_400000gn/T//ccRoPncs.s 			page 180


 472:lvgl/src/extra/themes/default/lv_theme_default.c ****     lv_style_set_border_width(&styles->ta_cursor, lv_disp_dpx(theme.disp, 2));
 6222              		.loc 1 472 5 view .LVU1878
 6223 0fc8 104B     		ldr	r3, .L582+12
 6224 0fca 1968     		ldr	r1, [r3]
 6225 0fcc 00F5B470 		add	r0, r0, #360
 6226 0fd0 FFF7FEFF 		bl	lv_style_set_border_color
 6227              	.LVL675:
 473:lvgl/src/extra/themes/default/lv_theme_default.c ****     lv_style_set_pad_left(&styles->ta_cursor, lv_disp_dpx(theme.disp, 1));
 6228              		.loc 1 473 5 is_stmt 1 view .LVU1879
 473:lvgl/src/extra/themes/default/lv_theme_default.c ****     lv_style_set_pad_left(&styles->ta_cursor, lv_disp_dpx(theme.disp, 1));
 6229              		.loc 1 473 38 is_stmt 0 view .LVU1880
 6230 0fd4 2468     		ldr	r4, [r4]
 473:lvgl/src/extra/themes/default/lv_theme_default.c ****     lv_style_set_pad_left(&styles->ta_cursor, lv_disp_dpx(theme.disp, 1));
 6231              		.loc 1 473 5 view .LVU1881
 6232 0fd6 04F5B474 		add	r4, r4, #360
 473:lvgl/src/extra/themes/default/lv_theme_default.c ****     lv_style_set_pad_left(&styles->ta_cursor, lv_disp_dpx(theme.disp, 1));
 6233              		.loc 1 473 68 view .LVU1882
 6234 0fda 094B     		ldr	r3, .L582
 6235 0fdc DD68     		ldr	r5, [r3, #12]
 6236              	.LVL676:
 6237              	.LBB600:
 6238              	.LBI600:
 236:lvgl/src/extra/themes/default/../../../../src/core/lv_disp.h **** {
 6239              		.loc 3 236 26 is_stmt 1 view .LVU1883
 6240              	.LBB601:
 6241              		.loc 3 238 5 view .LVU1884
 6242              		.loc 3 238 12 is_stmt 0 view .LVU1885
 6243 0fde 2846     		mov	r0, r5
 6244 0fe0 FFF7FEFF 		bl	lv_disp_get_dpi
 6245              	.LVL677:
 6246 0fe4 4000     		lsls	r0, r0, #1
 6247 0fe6 EF28     		cmp	r0, #239
 6248 0fe8 01F3C381 		bgt	.L488
 6249 0fec 0121     		movs	r1, #1
 6250              	.L227:
 6251              	.LVL678:
 6252              		.loc 3 238 12 view .LVU1886
 6253              	.LBE601:
 6254              	.LBE600:
 473:lvgl/src/extra/themes/default/lv_theme_default.c ****     lv_style_set_pad_left(&styles->ta_cursor, lv_disp_dpx(theme.disp, 1));
 6255              		.loc 1 473 5 view .LVU1887
 6256 0fee 2046     		mov	r0, r4
 6257 0ff0 FFF7FEFF 		bl	lv_style_set_border_width
 6258              	.LVL679:
 474:lvgl/src/extra/themes/default/lv_theme_default.c ****     lv_style_set_border_side(&styles->ta_cursor, LV_BORDER_SIDE_LEFT);
 6259              		.loc 1 474 5 is_stmt 1 view .LVU1888
 474:lvgl/src/extra/themes/default/lv_theme_default.c ****     lv_style_set_border_side(&styles->ta_cursor, LV_BORDER_SIDE_LEFT);
 6260              		.loc 1 474 34 is_stmt 0 view .LVU1889
 6261 0ff4 034B     		ldr	r3, .L582+4
 6262 0ff6 1C68     		ldr	r4, [r3]
 474:lvgl/src/extra/themes/default/lv_theme_default.c ****     lv_style_set_border_side(&styles->ta_cursor, LV_BORDER_SIDE_LEFT);
 6263              		.loc 1 474 5 view .LVU1890
 6264 0ff8 04F5B474 		add	r4, r4, #360
 6265 0ffc 08E0     		b	.L583
 6266              	.L584:
 6267 0ffe 00BF     		.align	2
 6268              	.L582:
ARM GAS  /var/folders/k2/cd9bl_j17z77g23y6ffqb_400000gn/T//ccRoPncs.s 			page 181


 6269 1000 00000000 		.word	.LANCHOR3
 6270 1004 00000000 		.word	.LANCHOR0
 6271 1008 00000000 		.word	.LANCHOR7
 6272 100c 00000000 		.word	.LANCHOR5
 6273              	.L583:
 474:lvgl/src/extra/themes/default/lv_theme_default.c ****     lv_style_set_border_side(&styles->ta_cursor, LV_BORDER_SIDE_LEFT);
 6274              		.loc 1 474 64 view .LVU1891
 6275 1010 CB4B     		ldr	r3, .L585
 6276 1012 DD68     		ldr	r5, [r3, #12]
 6277              	.LVL680:
 6278              	.LBB603:
 6279              	.LBI603:
 236:lvgl/src/extra/themes/default/../../../../src/core/lv_disp.h **** {
 6280              		.loc 3 236 26 is_stmt 1 view .LVU1892
 6281              	.LBB604:
 6282              		.loc 3 238 5 view .LVU1893
 6283              		.loc 3 238 12 is_stmt 0 view .LVU1894
 6284 1014 2846     		mov	r0, r5
 6285 1016 FFF7FEFF 		bl	lv_disp_get_dpi
 6286              	.LVL681:
 6287 101a EF28     		cmp	r0, #239
 6288 101c 01F3B781 		bgt	.L489
 6289 1020 0121     		movs	r1, #1
 6290              	.L228:
 6291              	.LVL682:
 6292              		.loc 3 238 12 view .LVU1895
 6293              	.LBE604:
 6294              	.LBE603:
 474:lvgl/src/extra/themes/default/lv_theme_default.c ****     lv_style_set_border_side(&styles->ta_cursor, LV_BORDER_SIDE_LEFT);
 6295              		.loc 1 474 5 view .LVU1896
 6296 1022 2046     		mov	r0, r4
 6297 1024 FFF7FEFF 		bl	lv_style_set_pad_left
 6298              	.LVL683:
 475:lvgl/src/extra/themes/default/lv_theme_default.c ****     lv_style_set_anim_time(&styles->ta_cursor, 400);
 6299              		.loc 1 475 5 is_stmt 1 view .LVU1897
 475:lvgl/src/extra/themes/default/lv_theme_default.c ****     lv_style_set_anim_time(&styles->ta_cursor, 400);
 6300              		.loc 1 475 37 is_stmt 0 view .LVU1898
 6301 1028 C64C     		ldr	r4, .L585+4
 6302 102a 2068     		ldr	r0, [r4]
 475:lvgl/src/extra/themes/default/lv_theme_default.c ****     lv_style_set_anim_time(&styles->ta_cursor, 400);
 6303              		.loc 1 475 5 view .LVU1899
 6304 102c 0421     		movs	r1, #4
 6305 102e 00F5B470 		add	r0, r0, #360
 6306 1032 FFF7FEFF 		bl	lv_style_set_border_side
 6307              	.LVL684:
 476:lvgl/src/extra/themes/default/lv_theme_default.c **** 
 6308              		.loc 1 476 5 is_stmt 1 view .LVU1900
 476:lvgl/src/extra/themes/default/lv_theme_default.c **** 
 6309              		.loc 1 476 35 is_stmt 0 view .LVU1901
 6310 1036 2068     		ldr	r0, [r4]
 476:lvgl/src/extra/themes/default/lv_theme_default.c **** 
 6311              		.loc 1 476 5 view .LVU1902
 6312 1038 4FF4C871 		mov	r1, #400
 6313 103c 00F5B470 		add	r0, r0, #360
 6314 1040 FFF7FEFF 		bl	lv_style_set_anim_time
 6315              	.LVL685:
 478:lvgl/src/extra/themes/default/lv_theme_default.c ****     lv_style_set_text_color(&styles->ta_placeholder, (theme.flags & MODE_DARK) ? lv_palette_darken(
ARM GAS  /var/folders/k2/cd9bl_j17z77g23y6ffqb_400000gn/T//ccRoPncs.s 			page 182


 6316              		.loc 1 478 5 is_stmt 1 view .LVU1903
 478:lvgl/src/extra/themes/default/lv_theme_default.c ****     lv_style_set_text_color(&styles->ta_placeholder, (theme.flags & MODE_DARK) ? lv_palette_darken(
 6317              		.loc 1 478 29 is_stmt 0 view .LVU1904
 6318 1044 2068     		ldr	r0, [r4]
 478:lvgl/src/extra/themes/default/lv_theme_default.c ****     lv_style_set_text_color(&styles->ta_placeholder, (theme.flags & MODE_DARK) ? lv_palette_darken(
 6319              		.loc 1 478 5 view .LVU1905
 6320 1046 00F5B870 		add	r0, r0, #368
 6321 104a FFF7FEFF 		bl	style_init_reset
 6322              	.LVL686:
 479:lvgl/src/extra/themes/default/lv_theme_default.c **** #endif
 6323              		.loc 1 479 5 is_stmt 1 view .LVU1906
 479:lvgl/src/extra/themes/default/lv_theme_default.c **** #endif
 6324              		.loc 1 479 36 is_stmt 0 view .LVU1907
 6325 104e 2468     		ldr	r4, [r4]
 479:lvgl/src/extra/themes/default/lv_theme_default.c **** #endif
 6326              		.loc 1 479 5 view .LVU1908
 6327 1050 04F5B874 		add	r4, r4, #368
 479:lvgl/src/extra/themes/default/lv_theme_default.c **** #endif
 6328              		.loc 1 479 60 view .LVU1909
 6329 1054 BA4B     		ldr	r3, .L585
 6330 1056 5B6A     		ldr	r3, [r3, #36]
 479:lvgl/src/extra/themes/default/lv_theme_default.c **** #endif
 6331              		.loc 1 479 5 view .LVU1910
 6332 1058 13F0010F 		tst	r3, #1
 6333 105c 01F0A481 		beq	.L229
 479:lvgl/src/extra/themes/default/lv_theme_default.c **** #endif
 6334              		.loc 1 479 82 discriminator 1 view .LVU1911
 6335 1060 0221     		movs	r1, #2
 6336 1062 1220     		movs	r0, #18
 6337 1064 FFF7FEFF 		bl	lv_palette_darken
 6338              	.LVL687:
 6339 1068 0146     		mov	r1, r0
 6340              	.L230:
 479:lvgl/src/extra/themes/default/lv_theme_default.c **** #endif
 6341              		.loc 1 479 5 discriminator 4 view .LVU1912
 6342 106a 2046     		mov	r0, r4
 6343 106c FFF7FEFF 		bl	lv_style_set_text_color
 6344              	.LVL688:
 483:lvgl/src/extra/themes/default/lv_theme_default.c ****     lv_style_set_pad_all(&styles->calendar_bg, PAD_SMALL);
 6345              		.loc 1 483 5 is_stmt 1 discriminator 4 view .LVU1913
 483:lvgl/src/extra/themes/default/lv_theme_default.c ****     lv_style_set_pad_all(&styles->calendar_bg, PAD_SMALL);
 6346              		.loc 1 483 29 is_stmt 0 discriminator 4 view .LVU1914
 6347 1070 B44C     		ldr	r4, .L585+4
 6348 1072 2068     		ldr	r0, [r4]
 483:lvgl/src/extra/themes/default/lv_theme_default.c ****     lv_style_set_pad_all(&styles->calendar_bg, PAD_SMALL);
 6349              		.loc 1 483 5 discriminator 4 view .LVU1915
 6350 1074 00F5BC70 		add	r0, r0, #376
 6351 1078 FFF7FEFF 		bl	style_init_reset
 6352              	.LVL689:
 484:lvgl/src/extra/themes/default/lv_theme_default.c ****     lv_style_set_pad_gap(&styles->calendar_bg, PAD_SMALL / 2);
 6353              		.loc 1 484 5 is_stmt 1 discriminator 4 view .LVU1916
 484:lvgl/src/extra/themes/default/lv_theme_default.c ****     lv_style_set_pad_gap(&styles->calendar_bg, PAD_SMALL / 2);
 6354              		.loc 1 484 33 is_stmt 0 discriminator 4 view .LVU1917
 6355 107c 2568     		ldr	r5, [r4]
 484:lvgl/src/extra/themes/default/lv_theme_default.c ****     lv_style_set_pad_gap(&styles->calendar_bg, PAD_SMALL / 2);
 6356              		.loc 1 484 5 discriminator 4 view .LVU1918
 6357 107e 05F5BC75 		add	r5, r5, #376
ARM GAS  /var/folders/k2/cd9bl_j17z77g23y6ffqb_400000gn/T//ccRoPncs.s 			page 183


 484:lvgl/src/extra/themes/default/lv_theme_default.c ****     lv_style_set_pad_gap(&styles->calendar_bg, PAD_SMALL / 2);
 6358              		.loc 1 484 48 discriminator 4 view .LVU1919
 6359 1082 B14B     		ldr	r3, .L585+8
 6360 1084 1B78     		ldrb	r3, [r3]	@ zero_extendqisi2
 484:lvgl/src/extra/themes/default/lv_theme_default.c ****     lv_style_set_pad_gap(&styles->calendar_bg, PAD_SMALL / 2);
 6361              		.loc 1 484 5 discriminator 4 view .LVU1920
 6362 1086 012B     		cmp	r3, #1
 6363 1088 01F09581 		beq	.L490
 484:lvgl/src/extra/themes/default/lv_theme_default.c ****     lv_style_set_pad_gap(&styles->calendar_bg, PAD_SMALL / 2);
 6364              		.loc 1 484 5 discriminator 2 view .LVU1921
 6365 108c 022B     		cmp	r3, #2
 6366 108e 01F0AF81 		beq	.L491
 484:lvgl/src/extra/themes/default/lv_theme_default.c ****     lv_style_set_pad_gap(&styles->calendar_bg, PAD_SMALL / 2);
 6367              		.loc 1 484 48 discriminator 5 view .LVU1922
 6368 1092 AB4B     		ldr	r3, .L585
 6369 1094 DC68     		ldr	r4, [r3, #12]
 6370              	.LVL690:
 6371              	.LBB606:
 6372              	.LBI606:
 236:lvgl/src/extra/themes/default/../../../../src/core/lv_disp.h **** {
 6373              		.loc 3 236 26 is_stmt 1 discriminator 5 view .LVU1923
 6374              	.LBB607:
 6375              		.loc 3 238 5 discriminator 5 view .LVU1924
 6376              		.loc 3 238 12 is_stmt 0 discriminator 5 view .LVU1925
 6377 1096 2046     		mov	r0, r4
 6378 1098 FFF7FEFF 		bl	lv_disp_get_dpi
 6379              	.LVL691:
 6380 109c 00EB8000 		add	r0, r0, r0, lsl #2
 6381 10a0 4000     		lsls	r0, r0, #1
 6382 10a2 EF28     		cmp	r0, #239
 6383 10a4 01F3C681 		bgt	.L492
 6384              		.loc 3 238 12 view .LVU1926
 6385 10a8 0124     		movs	r4, #1
 6386              	.LVL692:
 6387              	.L233:
 6388              		.loc 3 238 12 view .LVU1927
 6389              	.LBE607:
 6390              	.LBE606:
 6391              	.LBB609:
 6392              	.LBI609:
 425:lvgl/src/extra/themes/default/../../../../src/core/../misc/lv_style.h ****     lv_style_set_pad_left(style, value);
 6393              		.loc 4 425 20 is_stmt 1 discriminator 8 view .LVU1928
 6394              	.LBB610:
 426:lvgl/src/extra/themes/default/../../../../src/core/../misc/lv_style.h ****     lv_style_set_pad_right(style, value);
 6395              		.loc 4 426 5 discriminator 8 view .LVU1929
 6396 10aa 2146     		mov	r1, r4
 6397 10ac 2846     		mov	r0, r5
 6398 10ae FFF7FEFF 		bl	lv_style_set_pad_left
 6399              	.LVL693:
 427:lvgl/src/extra/themes/default/../../../../src/core/../misc/lv_style.h ****     lv_style_set_pad_top(style, value);
 6400              		.loc 4 427 5 discriminator 8 view .LVU1930
 6401 10b2 2146     		mov	r1, r4
 6402 10b4 2846     		mov	r0, r5
 6403 10b6 FFF7FEFF 		bl	lv_style_set_pad_right
 6404              	.LVL694:
 428:lvgl/src/extra/themes/default/../../../../src/core/../misc/lv_style.h ****     lv_style_set_pad_bottom(style, value);
 6405              		.loc 4 428 5 discriminator 8 view .LVU1931
ARM GAS  /var/folders/k2/cd9bl_j17z77g23y6ffqb_400000gn/T//ccRoPncs.s 			page 184


 6406 10ba 2146     		mov	r1, r4
 6407 10bc 2846     		mov	r0, r5
 6408 10be FFF7FEFF 		bl	lv_style_set_pad_top
 6409              	.LVL695:
 429:lvgl/src/extra/themes/default/../../../../src/core/../misc/lv_style.h **** }
 6410              		.loc 4 429 5 discriminator 8 view .LVU1932
 6411 10c2 2146     		mov	r1, r4
 6412 10c4 2846     		mov	r0, r5
 6413 10c6 FFF7FEFF 		bl	lv_style_set_pad_bottom
 6414              	.LVL696:
 429:lvgl/src/extra/themes/default/../../../../src/core/../misc/lv_style.h **** }
 6415              		.loc 4 429 5 is_stmt 0 discriminator 8 view .LVU1933
 6416              	.LBE610:
 6417              	.LBE609:
 485:lvgl/src/extra/themes/default/lv_theme_default.c ****     lv_style_set_radius(&styles->calendar_bg, 0);
 6418              		.loc 1 485 5 is_stmt 1 discriminator 8 view .LVU1934
 485:lvgl/src/extra/themes/default/lv_theme_default.c ****     lv_style_set_radius(&styles->calendar_bg, 0);
 6419              		.loc 1 485 33 is_stmt 0 discriminator 8 view .LVU1935
 6420 10ca 9E4B     		ldr	r3, .L585+4
 6421 10cc 1D68     		ldr	r5, [r3]
 485:lvgl/src/extra/themes/default/lv_theme_default.c ****     lv_style_set_radius(&styles->calendar_bg, 0);
 6422              		.loc 1 485 5 discriminator 8 view .LVU1936
 6423 10ce 05F5BC75 		add	r5, r5, #376
 485:lvgl/src/extra/themes/default/lv_theme_default.c ****     lv_style_set_radius(&styles->calendar_bg, 0);
 6424              		.loc 1 485 48 discriminator 8 view .LVU1937
 6425 10d2 9D4B     		ldr	r3, .L585+8
 6426 10d4 1B78     		ldrb	r3, [r3]	@ zero_extendqisi2
 485:lvgl/src/extra/themes/default/lv_theme_default.c ****     lv_style_set_radius(&styles->calendar_bg, 0);
 6427              		.loc 1 485 5 discriminator 8 view .LVU1938
 6428 10d6 012B     		cmp	r3, #1
 6429 10d8 01F0BC81 		beq	.L493
 485:lvgl/src/extra/themes/default/lv_theme_default.c ****     lv_style_set_radius(&styles->calendar_bg, 0);
 6430              		.loc 1 485 5 discriminator 2 view .LVU1939
 6431 10dc 022B     		cmp	r3, #2
 6432 10de 01F0D881 		beq	.L494
 485:lvgl/src/extra/themes/default/lv_theme_default.c ****     lv_style_set_radius(&styles->calendar_bg, 0);
 6433              		.loc 1 485 48 discriminator 5 view .LVU1940
 6434 10e2 974B     		ldr	r3, .L585
 6435 10e4 DC68     		ldr	r4, [r3, #12]
 6436              	.LVL697:
 6437              	.LBB611:
 6438              	.LBI611:
 236:lvgl/src/extra/themes/default/../../../../src/core/lv_disp.h **** {
 6439              		.loc 3 236 26 is_stmt 1 discriminator 5 view .LVU1941
 6440              	.LBB612:
 6441              		.loc 3 238 5 discriminator 5 view .LVU1942
 6442              		.loc 3 238 12 is_stmt 0 discriminator 5 view .LVU1943
 6443 10e6 2046     		mov	r0, r4
 6444 10e8 FFF7FEFF 		bl	lv_disp_get_dpi
 6445              	.LVL698:
 6446 10ec 00EB8000 		add	r0, r0, r0, lsl #2
 6447 10f0 4000     		lsls	r0, r0, #1
 6448 10f2 EF28     		cmp	r0, #239
 6449 10f4 01F3EC81 		bgt	.L495
 6450              		.loc 3 238 12 view .LVU1944
 6451 10f8 0124     		movs	r4, #1
 6452              	.LVL699:
ARM GAS  /var/folders/k2/cd9bl_j17z77g23y6ffqb_400000gn/T//ccRoPncs.s 			page 185


 6453              	.L242:
 6454              		.loc 3 238 12 view .LVU1945
 6455              	.LBE612:
 6456              	.LBE611:
 485:lvgl/src/extra/themes/default/lv_theme_default.c ****     lv_style_set_radius(&styles->calendar_bg, 0);
 6457              		.loc 1 485 5 view .LVU1946
 6458 10fa 04EBD474 		add	r4, r4, r4, lsr #31
 6459 10fe 6410     		asrs	r4, r4, #1
 6460              	.L239:
 6461              	.LVL700:
 6462              	.LBB614:
 6463              	.LBI614:
 442:lvgl/src/extra/themes/default/../../../../src/core/../misc/lv_style.h ****     lv_style_set_pad_row(style, value);
 6464              		.loc 4 442 20 is_stmt 1 discriminator 8 view .LVU1947
 6465              	.LBB615:
 443:lvgl/src/extra/themes/default/../../../../src/core/../misc/lv_style.h ****     lv_style_set_pad_column(style, value);
 6466              		.loc 4 443 5 discriminator 8 view .LVU1948
 6467 1100 2146     		mov	r1, r4
 6468 1102 2846     		mov	r0, r5
 6469 1104 FFF7FEFF 		bl	lv_style_set_pad_row
 6470              	.LVL701:
 444:lvgl/src/extra/themes/default/../../../../src/core/../misc/lv_style.h **** }
 6471              		.loc 4 444 5 discriminator 8 view .LVU1949
 6472 1108 2146     		mov	r1, r4
 6473 110a 2846     		mov	r0, r5
 6474 110c FFF7FEFF 		bl	lv_style_set_pad_column
 6475              	.LVL702:
 444:lvgl/src/extra/themes/default/../../../../src/core/../misc/lv_style.h **** }
 6476              		.loc 4 444 5 is_stmt 0 discriminator 8 view .LVU1950
 6477              	.LBE615:
 6478              	.LBE614:
 486:lvgl/src/extra/themes/default/lv_theme_default.c **** 
 6479              		.loc 1 486 5 is_stmt 1 discriminator 8 view .LVU1951
 486:lvgl/src/extra/themes/default/lv_theme_default.c **** 
 6480              		.loc 1 486 32 is_stmt 0 discriminator 8 view .LVU1952
 6481 1110 8C4C     		ldr	r4, .L585+4
 6482 1112 2068     		ldr	r0, [r4]
 486:lvgl/src/extra/themes/default/lv_theme_default.c **** 
 6483              		.loc 1 486 5 discriminator 8 view .LVU1953
 6484 1114 0021     		movs	r1, #0
 6485 1116 00F5BC70 		add	r0, r0, #376
 6486 111a FFF7FEFF 		bl	lv_style_set_radius
 6487              	.LVL703:
 488:lvgl/src/extra/themes/default/lv_theme_default.c ****     lv_style_set_border_width(&styles->calendar_day, lv_disp_dpx(theme.disp, 1));
 6488              		.loc 1 488 5 is_stmt 1 discriminator 8 view .LVU1954
 488:lvgl/src/extra/themes/default/lv_theme_default.c ****     lv_style_set_border_width(&styles->calendar_day, lv_disp_dpx(theme.disp, 1));
 6489              		.loc 1 488 29 is_stmt 0 discriminator 8 view .LVU1955
 6490 111e 2068     		ldr	r0, [r4]
 488:lvgl/src/extra/themes/default/lv_theme_default.c ****     lv_style_set_border_width(&styles->calendar_day, lv_disp_dpx(theme.disp, 1));
 6491              		.loc 1 488 5 discriminator 8 view .LVU1956
 6492 1120 00F5C070 		add	r0, r0, #384
 6493 1124 FFF7FEFF 		bl	style_init_reset
 6494              	.LVL704:
 489:lvgl/src/extra/themes/default/lv_theme_default.c ****     lv_style_set_border_color(&styles->calendar_day, color_grey);
 6495              		.loc 1 489 5 is_stmt 1 discriminator 8 view .LVU1957
 489:lvgl/src/extra/themes/default/lv_theme_default.c ****     lv_style_set_border_color(&styles->calendar_day, color_grey);
 6496              		.loc 1 489 38 is_stmt 0 discriminator 8 view .LVU1958
ARM GAS  /var/folders/k2/cd9bl_j17z77g23y6ffqb_400000gn/T//ccRoPncs.s 			page 186


 6497 1128 2468     		ldr	r4, [r4]
 489:lvgl/src/extra/themes/default/lv_theme_default.c ****     lv_style_set_border_color(&styles->calendar_day, color_grey);
 6498              		.loc 1 489 5 discriminator 8 view .LVU1959
 6499 112a 04F5C074 		add	r4, r4, #384
 489:lvgl/src/extra/themes/default/lv_theme_default.c ****     lv_style_set_border_color(&styles->calendar_day, color_grey);
 6500              		.loc 1 489 71 discriminator 8 view .LVU1960
 6501 112e 844B     		ldr	r3, .L585
 6502 1130 DD68     		ldr	r5, [r3, #12]
 6503              	.LVL705:
 6504              	.LBB616:
 6505              	.LBI616:
 236:lvgl/src/extra/themes/default/../../../../src/core/lv_disp.h **** {
 6506              		.loc 3 236 26 is_stmt 1 discriminator 8 view .LVU1961
 6507              	.LBB617:
 6508              		.loc 3 238 5 discriminator 8 view .LVU1962
 6509              		.loc 3 238 12 is_stmt 0 discriminator 8 view .LVU1963
 6510 1132 2846     		mov	r0, r5
 6511 1134 FFF7FEFF 		bl	lv_disp_get_dpi
 6512              	.LVL706:
 6513 1138 EF28     		cmp	r0, #239
 6514 113a 01F3D981 		bgt	.L496
 6515              		.loc 3 238 12 view .LVU1964
 6516 113e 0121     		movs	r1, #1
 6517              	.L243:
 6518              	.LVL707:
 6519              		.loc 3 238 12 view .LVU1965
 6520              	.LBE617:
 6521              	.LBE616:
 489:lvgl/src/extra/themes/default/lv_theme_default.c ****     lv_style_set_border_color(&styles->calendar_day, color_grey);
 6522              		.loc 1 489 5 view .LVU1966
 6523 1140 2046     		mov	r0, r4
 6524 1142 FFF7FEFF 		bl	lv_style_set_border_width
 6525              	.LVL708:
 490:lvgl/src/extra/themes/default/lv_theme_default.c ****     lv_style_set_bg_color(&styles->calendar_day, color_card);
 6526              		.loc 1 490 5 is_stmt 1 view .LVU1967
 490:lvgl/src/extra/themes/default/lv_theme_default.c ****     lv_style_set_bg_color(&styles->calendar_day, color_card);
 6527              		.loc 1 490 38 is_stmt 0 view .LVU1968
 6528 1146 7F4C     		ldr	r4, .L585+4
 6529 1148 2068     		ldr	r0, [r4]
 490:lvgl/src/extra/themes/default/lv_theme_default.c ****     lv_style_set_bg_color(&styles->calendar_day, color_card);
 6530              		.loc 1 490 5 view .LVU1969
 6531 114a 804B     		ldr	r3, .L585+12
 6532 114c 1968     		ldr	r1, [r3]
 6533 114e 00F5C070 		add	r0, r0, #384
 6534 1152 FFF7FEFF 		bl	lv_style_set_border_color
 6535              	.LVL709:
 491:lvgl/src/extra/themes/default/lv_theme_default.c ****     lv_style_set_bg_opa(&styles->calendar_day, LV_OPA_20);
 6536              		.loc 1 491 5 is_stmt 1 view .LVU1970
 491:lvgl/src/extra/themes/default/lv_theme_default.c ****     lv_style_set_bg_opa(&styles->calendar_day, LV_OPA_20);
 6537              		.loc 1 491 34 is_stmt 0 view .LVU1971
 6538 1156 2068     		ldr	r0, [r4]
 491:lvgl/src/extra/themes/default/lv_theme_default.c ****     lv_style_set_bg_opa(&styles->calendar_day, LV_OPA_20);
 6539              		.loc 1 491 5 view .LVU1972
 6540 1158 7D4B     		ldr	r3, .L585+16
 6541 115a 1968     		ldr	r1, [r3]
 6542 115c 00F5C070 		add	r0, r0, #384
 6543 1160 FFF7FEFF 		bl	lv_style_set_bg_color
ARM GAS  /var/folders/k2/cd9bl_j17z77g23y6ffqb_400000gn/T//ccRoPncs.s 			page 187


 6544              	.LVL710:
 492:lvgl/src/extra/themes/default/lv_theme_default.c **** #endif
 6545              		.loc 1 492 5 is_stmt 1 view .LVU1973
 492:lvgl/src/extra/themes/default/lv_theme_default.c **** #endif
 6546              		.loc 1 492 32 is_stmt 0 view .LVU1974
 6547 1164 2068     		ldr	r0, [r4]
 492:lvgl/src/extra/themes/default/lv_theme_default.c **** #endif
 6548              		.loc 1 492 5 view .LVU1975
 6549 1166 3321     		movs	r1, #51
 6550 1168 00F5C070 		add	r0, r0, #384
 6551 116c FFF7FEFF 		bl	lv_style_set_bg_opa
 6552              	.LVL711:
 496:lvgl/src/extra/themes/default/lv_theme_default.c ****     lv_style_set_arc_width(&styles->colorwheel_main, lv_disp_dpx(theme.disp, 10));
 6553              		.loc 1 496 5 is_stmt 1 view .LVU1976
 496:lvgl/src/extra/themes/default/lv_theme_default.c ****     lv_style_set_arc_width(&styles->colorwheel_main, lv_disp_dpx(theme.disp, 10));
 6554              		.loc 1 496 29 is_stmt 0 view .LVU1977
 6555 1170 2068     		ldr	r0, [r4]
 496:lvgl/src/extra/themes/default/lv_theme_default.c ****     lv_style_set_arc_width(&styles->colorwheel_main, lv_disp_dpx(theme.disp, 10));
 6556              		.loc 1 496 5 view .LVU1978
 6557 1172 00F5C470 		add	r0, r0, #392
 6558 1176 FFF7FEFF 		bl	style_init_reset
 6559              	.LVL712:
 497:lvgl/src/extra/themes/default/lv_theme_default.c **** #endif
 6560              		.loc 1 497 5 is_stmt 1 view .LVU1979
 497:lvgl/src/extra/themes/default/lv_theme_default.c **** #endif
 6561              		.loc 1 497 35 is_stmt 0 view .LVU1980
 6562 117a 2468     		ldr	r4, [r4]
 497:lvgl/src/extra/themes/default/lv_theme_default.c **** #endif
 6563              		.loc 1 497 5 view .LVU1981
 6564 117c 04F5C474 		add	r4, r4, #392
 497:lvgl/src/extra/themes/default/lv_theme_default.c **** #endif
 6565              		.loc 1 497 71 view .LVU1982
 6566 1180 6F4B     		ldr	r3, .L585
 6567 1182 DD68     		ldr	r5, [r3, #12]
 6568              	.LVL713:
 6569              	.LBB619:
 6570              	.LBI619:
 236:lvgl/src/extra/themes/default/../../../../src/core/lv_disp.h **** {
 6571              		.loc 3 236 26 is_stmt 1 view .LVU1983
 6572              	.LBB620:
 6573              		.loc 3 238 5 view .LVU1984
 6574              		.loc 3 238 12 is_stmt 0 view .LVU1985
 6575 1184 2846     		mov	r0, r5
 6576 1186 FFF7FEFF 		bl	lv_disp_get_dpi
 6577              	.LVL714:
 6578 118a 00EB8000 		add	r0, r0, r0, lsl #2
 6579 118e 4000     		lsls	r0, r0, #1
 6580 1190 EF28     		cmp	r0, #239
 6581 1192 01F3BA81 		bgt	.L497
 6582 1196 0121     		movs	r1, #1
 6583              	.L244:
 6584              	.LVL715:
 6585              		.loc 3 238 12 view .LVU1986
 6586              	.LBE620:
 6587              	.LBE619:
 497:lvgl/src/extra/themes/default/lv_theme_default.c **** #endif
 6588              		.loc 1 497 5 view .LVU1987
ARM GAS  /var/folders/k2/cd9bl_j17z77g23y6ffqb_400000gn/T//ccRoPncs.s 			page 188


 6589 1198 2046     		mov	r0, r4
 6590 119a FFF7FEFF 		bl	lv_style_set_arc_width
 6591              	.LVL716:
 502:lvgl/src/extra/themes/default/lv_theme_default.c ****     lv_style_set_pad_all(&styles->msgbox_btn_bg, lv_disp_dpx(theme.disp, 4));
 6592              		.loc 1 502 5 is_stmt 1 view .LVU1988
 502:lvgl/src/extra/themes/default/lv_theme_default.c ****     lv_style_set_pad_all(&styles->msgbox_btn_bg, lv_disp_dpx(theme.disp, 4));
 6593              		.loc 1 502 29 is_stmt 0 view .LVU1989
 6594 119e 694C     		ldr	r4, .L585+4
 6595 11a0 2068     		ldr	r0, [r4]
 502:lvgl/src/extra/themes/default/lv_theme_default.c ****     lv_style_set_pad_all(&styles->msgbox_btn_bg, lv_disp_dpx(theme.disp, 4));
 6596              		.loc 1 502 5 view .LVU1990
 6597 11a2 00F5CC70 		add	r0, r0, #408
 6598 11a6 FFF7FEFF 		bl	style_init_reset
 6599              	.LVL717:
 503:lvgl/src/extra/themes/default/lv_theme_default.c **** 
 6600              		.loc 1 503 5 is_stmt 1 view .LVU1991
 503:lvgl/src/extra/themes/default/lv_theme_default.c **** 
 6601              		.loc 1 503 33 is_stmt 0 view .LVU1992
 6602 11aa 2568     		ldr	r5, [r4]
 503:lvgl/src/extra/themes/default/lv_theme_default.c **** 
 6603              		.loc 1 503 5 view .LVU1993
 6604 11ac 05F5CC75 		add	r5, r5, #408
 503:lvgl/src/extra/themes/default/lv_theme_default.c **** 
 6605              		.loc 1 503 67 view .LVU1994
 6606 11b0 634B     		ldr	r3, .L585
 6607 11b2 DC68     		ldr	r4, [r3, #12]
 6608              	.LVL718:
 6609              	.LBB622:
 6610              	.LBI622:
 236:lvgl/src/extra/themes/default/../../../../src/core/lv_disp.h **** {
 6611              		.loc 3 236 26 is_stmt 1 view .LVU1995
 6612              	.LBB623:
 6613              		.loc 3 238 5 view .LVU1996
 6614              		.loc 3 238 12 is_stmt 0 view .LVU1997
 6615 11b4 2046     		mov	r0, r4
 6616 11b6 FFF7FEFF 		bl	lv_disp_get_dpi
 6617              	.LVL719:
 6618 11ba 8000     		lsls	r0, r0, #2
 6619 11bc EF28     		cmp	r0, #239
 6620 11be 01F3B481 		bgt	.L498
 6621 11c2 0124     		movs	r4, #1
 6622              	.LVL720:
 6623              	.L245:
 6624              		.loc 3 238 12 view .LVU1998
 6625              	.LBE623:
 6626              	.LBE622:
 6627              	.LBB625:
 6628              	.LBI625:
 425:lvgl/src/extra/themes/default/../../../../src/core/../misc/lv_style.h ****     lv_style_set_pad_left(style, value);
 6629              		.loc 4 425 20 is_stmt 1 view .LVU1999
 6630              	.LBB626:
 426:lvgl/src/extra/themes/default/../../../../src/core/../misc/lv_style.h ****     lv_style_set_pad_right(style, value);
 6631              		.loc 4 426 5 view .LVU2000
 6632 11c4 2146     		mov	r1, r4
 6633 11c6 2846     		mov	r0, r5
 6634 11c8 FFF7FEFF 		bl	lv_style_set_pad_left
 6635              	.LVL721:
ARM GAS  /var/folders/k2/cd9bl_j17z77g23y6ffqb_400000gn/T//ccRoPncs.s 			page 189


 427:lvgl/src/extra/themes/default/../../../../src/core/../misc/lv_style.h ****     lv_style_set_pad_top(style, value);
 6636              		.loc 4 427 5 view .LVU2001
 6637 11cc 2146     		mov	r1, r4
 6638 11ce 2846     		mov	r0, r5
 6639 11d0 FFF7FEFF 		bl	lv_style_set_pad_right
 6640              	.LVL722:
 428:lvgl/src/extra/themes/default/../../../../src/core/../misc/lv_style.h ****     lv_style_set_pad_bottom(style, value);
 6641              		.loc 4 428 5 view .LVU2002
 6642 11d4 2146     		mov	r1, r4
 6643 11d6 2846     		mov	r0, r5
 6644 11d8 FFF7FEFF 		bl	lv_style_set_pad_top
 6645              	.LVL723:
 429:lvgl/src/extra/themes/default/../../../../src/core/../misc/lv_style.h **** }
 6646              		.loc 4 429 5 view .LVU2003
 6647 11dc 2146     		mov	r1, r4
 6648 11de 2846     		mov	r0, r5
 6649 11e0 FFF7FEFF 		bl	lv_style_set_pad_bottom
 6650              	.LVL724:
 429:lvgl/src/extra/themes/default/../../../../src/core/../misc/lv_style.h **** }
 6651              		.loc 4 429 5 is_stmt 0 view .LVU2004
 6652              	.LBE626:
 6653              	.LBE625:
 505:lvgl/src/extra/themes/default/lv_theme_default.c ****     lv_style_set_max_width(&styles->msgbox_bg, lv_pct(100));
 6654              		.loc 1 505 5 is_stmt 1 view .LVU2005
 505:lvgl/src/extra/themes/default/lv_theme_default.c ****     lv_style_set_max_width(&styles->msgbox_bg, lv_pct(100));
 6655              		.loc 1 505 29 is_stmt 0 view .LVU2006
 6656 11e4 574C     		ldr	r4, .L585+4
 6657 11e6 2068     		ldr	r0, [r4]
 505:lvgl/src/extra/themes/default/lv_theme_default.c ****     lv_style_set_max_width(&styles->msgbox_bg, lv_pct(100));
 6658              		.loc 1 505 5 view .LVU2007
 6659 11e8 00F5C870 		add	r0, r0, #400
 6660 11ec FFF7FEFF 		bl	style_init_reset
 6661              	.LVL725:
 506:lvgl/src/extra/themes/default/lv_theme_default.c **** #endif
 6662              		.loc 1 506 5 is_stmt 1 view .LVU2008
 506:lvgl/src/extra/themes/default/lv_theme_default.c **** #endif
 6663              		.loc 1 506 35 is_stmt 0 view .LVU2009
 6664 11f0 2068     		ldr	r0, [r4]
 6665              	.LVL726:
 6666              		.file 5 "lvgl/src/extra/themes/default/../../../../src/hal/../misc/lv_area.h"
   1:lvgl/src/extra/themes/default/../../../../src/hal/../misc/lv_area.h **** /**
   2:lvgl/src/extra/themes/default/../../../../src/hal/../misc/lv_area.h ****  * @file lv_area.h
   3:lvgl/src/extra/themes/default/../../../../src/hal/../misc/lv_area.h ****  *
   4:lvgl/src/extra/themes/default/../../../../src/hal/../misc/lv_area.h ****  */
   5:lvgl/src/extra/themes/default/../../../../src/hal/../misc/lv_area.h **** 
   6:lvgl/src/extra/themes/default/../../../../src/hal/../misc/lv_area.h **** #ifndef LV_AREA_H
   7:lvgl/src/extra/themes/default/../../../../src/hal/../misc/lv_area.h **** #define LV_AREA_H
   8:lvgl/src/extra/themes/default/../../../../src/hal/../misc/lv_area.h **** 
   9:lvgl/src/extra/themes/default/../../../../src/hal/../misc/lv_area.h **** #ifdef __cplusplus
  10:lvgl/src/extra/themes/default/../../../../src/hal/../misc/lv_area.h **** extern "C" {
  11:lvgl/src/extra/themes/default/../../../../src/hal/../misc/lv_area.h **** #endif
  12:lvgl/src/extra/themes/default/../../../../src/hal/../misc/lv_area.h **** 
  13:lvgl/src/extra/themes/default/../../../../src/hal/../misc/lv_area.h **** /*********************
  14:lvgl/src/extra/themes/default/../../../../src/hal/../misc/lv_area.h ****  *      INCLUDES
  15:lvgl/src/extra/themes/default/../../../../src/hal/../misc/lv_area.h ****  *********************/
  16:lvgl/src/extra/themes/default/../../../../src/hal/../misc/lv_area.h **** #include "../lv_conf_internal.h"
  17:lvgl/src/extra/themes/default/../../../../src/hal/../misc/lv_area.h **** #include <string.h>
ARM GAS  /var/folders/k2/cd9bl_j17z77g23y6ffqb_400000gn/T//ccRoPncs.s 			page 190


  18:lvgl/src/extra/themes/default/../../../../src/hal/../misc/lv_area.h **** #include <stdbool.h>
  19:lvgl/src/extra/themes/default/../../../../src/hal/../misc/lv_area.h **** #include <stdint.h>
  20:lvgl/src/extra/themes/default/../../../../src/hal/../misc/lv_area.h **** 
  21:lvgl/src/extra/themes/default/../../../../src/hal/../misc/lv_area.h **** /*********************
  22:lvgl/src/extra/themes/default/../../../../src/hal/../misc/lv_area.h ****  *      DEFINES
  23:lvgl/src/extra/themes/default/../../../../src/hal/../misc/lv_area.h ****  *********************/
  24:lvgl/src/extra/themes/default/../../../../src/hal/../misc/lv_area.h **** 
  25:lvgl/src/extra/themes/default/../../../../src/hal/../misc/lv_area.h **** #define _LV_COORD_MAX_REDUCE    8192
  26:lvgl/src/extra/themes/default/../../../../src/hal/../misc/lv_area.h **** 
  27:lvgl/src/extra/themes/default/../../../../src/hal/../misc/lv_area.h **** #if LV_USE_LARGE_COORD
  28:lvgl/src/extra/themes/default/../../../../src/hal/../misc/lv_area.h **** typedef int32_t lv_coord_t;
  29:lvgl/src/extra/themes/default/../../../../src/hal/../misc/lv_area.h **** #else
  30:lvgl/src/extra/themes/default/../../../../src/hal/../misc/lv_area.h **** typedef int16_t lv_coord_t;
  31:lvgl/src/extra/themes/default/../../../../src/hal/../misc/lv_area.h **** #endif
  32:lvgl/src/extra/themes/default/../../../../src/hal/../misc/lv_area.h **** 
  33:lvgl/src/extra/themes/default/../../../../src/hal/../misc/lv_area.h **** /*To allow some special values in the end reduce the max value*/
  34:lvgl/src/extra/themes/default/../../../../src/hal/../misc/lv_area.h **** #define LV_COORD_MAX ((lv_coord_t)((uint32_t)((uint32_t)1 << (8 * sizeof(lv_coord_t) - 1)) - _LV_CO
  35:lvgl/src/extra/themes/default/../../../../src/hal/../misc/lv_area.h **** #define LV_COORD_MIN (-LV_COORD_MAX)
  36:lvgl/src/extra/themes/default/../../../../src/hal/../misc/lv_area.h **** 
  37:lvgl/src/extra/themes/default/../../../../src/hal/../misc/lv_area.h **** LV_EXPORT_CONST_INT(LV_COORD_MAX);
  38:lvgl/src/extra/themes/default/../../../../src/hal/../misc/lv_area.h **** LV_EXPORT_CONST_INT(LV_COORD_MIN);
  39:lvgl/src/extra/themes/default/../../../../src/hal/../misc/lv_area.h **** 
  40:lvgl/src/extra/themes/default/../../../../src/hal/../misc/lv_area.h **** /**********************
  41:lvgl/src/extra/themes/default/../../../../src/hal/../misc/lv_area.h ****  *      TYPEDEFS
  42:lvgl/src/extra/themes/default/../../../../src/hal/../misc/lv_area.h ****  **********************/
  43:lvgl/src/extra/themes/default/../../../../src/hal/../misc/lv_area.h **** 
  44:lvgl/src/extra/themes/default/../../../../src/hal/../misc/lv_area.h **** /**
  45:lvgl/src/extra/themes/default/../../../../src/hal/../misc/lv_area.h ****  * Represents a point on the screen.
  46:lvgl/src/extra/themes/default/../../../../src/hal/../misc/lv_area.h ****  */
  47:lvgl/src/extra/themes/default/../../../../src/hal/../misc/lv_area.h **** typedef struct {
  48:lvgl/src/extra/themes/default/../../../../src/hal/../misc/lv_area.h ****     lv_coord_t x;
  49:lvgl/src/extra/themes/default/../../../../src/hal/../misc/lv_area.h ****     lv_coord_t y;
  50:lvgl/src/extra/themes/default/../../../../src/hal/../misc/lv_area.h **** } lv_point_t;
  51:lvgl/src/extra/themes/default/../../../../src/hal/../misc/lv_area.h **** 
  52:lvgl/src/extra/themes/default/../../../../src/hal/../misc/lv_area.h **** /** Represents an area of the screen.*/
  53:lvgl/src/extra/themes/default/../../../../src/hal/../misc/lv_area.h **** typedef struct {
  54:lvgl/src/extra/themes/default/../../../../src/hal/../misc/lv_area.h ****     lv_coord_t x1;
  55:lvgl/src/extra/themes/default/../../../../src/hal/../misc/lv_area.h ****     lv_coord_t y1;
  56:lvgl/src/extra/themes/default/../../../../src/hal/../misc/lv_area.h ****     lv_coord_t x2;
  57:lvgl/src/extra/themes/default/../../../../src/hal/../misc/lv_area.h ****     lv_coord_t y2;
  58:lvgl/src/extra/themes/default/../../../../src/hal/../misc/lv_area.h **** } lv_area_t;
  59:lvgl/src/extra/themes/default/../../../../src/hal/../misc/lv_area.h **** 
  60:lvgl/src/extra/themes/default/../../../../src/hal/../misc/lv_area.h **** /** Alignments*/
  61:lvgl/src/extra/themes/default/../../../../src/hal/../misc/lv_area.h **** enum {
  62:lvgl/src/extra/themes/default/../../../../src/hal/../misc/lv_area.h ****     LV_ALIGN_DEFAULT = 0,
  63:lvgl/src/extra/themes/default/../../../../src/hal/../misc/lv_area.h ****     LV_ALIGN_TOP_LEFT,
  64:lvgl/src/extra/themes/default/../../../../src/hal/../misc/lv_area.h ****     LV_ALIGN_TOP_MID,
  65:lvgl/src/extra/themes/default/../../../../src/hal/../misc/lv_area.h ****     LV_ALIGN_TOP_RIGHT,
  66:lvgl/src/extra/themes/default/../../../../src/hal/../misc/lv_area.h ****     LV_ALIGN_BOTTOM_LEFT,
  67:lvgl/src/extra/themes/default/../../../../src/hal/../misc/lv_area.h ****     LV_ALIGN_BOTTOM_MID,
  68:lvgl/src/extra/themes/default/../../../../src/hal/../misc/lv_area.h ****     LV_ALIGN_BOTTOM_RIGHT,
  69:lvgl/src/extra/themes/default/../../../../src/hal/../misc/lv_area.h ****     LV_ALIGN_LEFT_MID,
  70:lvgl/src/extra/themes/default/../../../../src/hal/../misc/lv_area.h ****     LV_ALIGN_RIGHT_MID,
  71:lvgl/src/extra/themes/default/../../../../src/hal/../misc/lv_area.h ****     LV_ALIGN_CENTER,
  72:lvgl/src/extra/themes/default/../../../../src/hal/../misc/lv_area.h **** 
  73:lvgl/src/extra/themes/default/../../../../src/hal/../misc/lv_area.h ****     LV_ALIGN_OUT_TOP_LEFT,
  74:lvgl/src/extra/themes/default/../../../../src/hal/../misc/lv_area.h ****     LV_ALIGN_OUT_TOP_MID,
ARM GAS  /var/folders/k2/cd9bl_j17z77g23y6ffqb_400000gn/T//ccRoPncs.s 			page 191


  75:lvgl/src/extra/themes/default/../../../../src/hal/../misc/lv_area.h ****     LV_ALIGN_OUT_TOP_RIGHT,
  76:lvgl/src/extra/themes/default/../../../../src/hal/../misc/lv_area.h ****     LV_ALIGN_OUT_BOTTOM_LEFT,
  77:lvgl/src/extra/themes/default/../../../../src/hal/../misc/lv_area.h ****     LV_ALIGN_OUT_BOTTOM_MID,
  78:lvgl/src/extra/themes/default/../../../../src/hal/../misc/lv_area.h ****     LV_ALIGN_OUT_BOTTOM_RIGHT,
  79:lvgl/src/extra/themes/default/../../../../src/hal/../misc/lv_area.h ****     LV_ALIGN_OUT_LEFT_TOP,
  80:lvgl/src/extra/themes/default/../../../../src/hal/../misc/lv_area.h ****     LV_ALIGN_OUT_LEFT_MID,
  81:lvgl/src/extra/themes/default/../../../../src/hal/../misc/lv_area.h ****     LV_ALIGN_OUT_LEFT_BOTTOM,
  82:lvgl/src/extra/themes/default/../../../../src/hal/../misc/lv_area.h ****     LV_ALIGN_OUT_RIGHT_TOP,
  83:lvgl/src/extra/themes/default/../../../../src/hal/../misc/lv_area.h ****     LV_ALIGN_OUT_RIGHT_MID,
  84:lvgl/src/extra/themes/default/../../../../src/hal/../misc/lv_area.h ****     LV_ALIGN_OUT_RIGHT_BOTTOM,
  85:lvgl/src/extra/themes/default/../../../../src/hal/../misc/lv_area.h **** };
  86:lvgl/src/extra/themes/default/../../../../src/hal/../misc/lv_area.h **** typedef uint8_t lv_align_t;
  87:lvgl/src/extra/themes/default/../../../../src/hal/../misc/lv_area.h **** 
  88:lvgl/src/extra/themes/default/../../../../src/hal/../misc/lv_area.h **** enum {
  89:lvgl/src/extra/themes/default/../../../../src/hal/../misc/lv_area.h ****     LV_DIR_NONE     = 0x00,
  90:lvgl/src/extra/themes/default/../../../../src/hal/../misc/lv_area.h ****     LV_DIR_LEFT     = (1 << 0),
  91:lvgl/src/extra/themes/default/../../../../src/hal/../misc/lv_area.h ****     LV_DIR_RIGHT    = (1 << 1),
  92:lvgl/src/extra/themes/default/../../../../src/hal/../misc/lv_area.h ****     LV_DIR_TOP      = (1 << 2),
  93:lvgl/src/extra/themes/default/../../../../src/hal/../misc/lv_area.h ****     LV_DIR_BOTTOM   = (1 << 3),
  94:lvgl/src/extra/themes/default/../../../../src/hal/../misc/lv_area.h ****     LV_DIR_HOR      = LV_DIR_LEFT | LV_DIR_RIGHT,
  95:lvgl/src/extra/themes/default/../../../../src/hal/../misc/lv_area.h ****     LV_DIR_VER      = LV_DIR_TOP | LV_DIR_BOTTOM,
  96:lvgl/src/extra/themes/default/../../../../src/hal/../misc/lv_area.h ****     LV_DIR_ALL      = LV_DIR_HOR | LV_DIR_VER,
  97:lvgl/src/extra/themes/default/../../../../src/hal/../misc/lv_area.h **** };
  98:lvgl/src/extra/themes/default/../../../../src/hal/../misc/lv_area.h **** 
  99:lvgl/src/extra/themes/default/../../../../src/hal/../misc/lv_area.h **** typedef uint8_t lv_dir_t;
 100:lvgl/src/extra/themes/default/../../../../src/hal/../misc/lv_area.h **** 
 101:lvgl/src/extra/themes/default/../../../../src/hal/../misc/lv_area.h **** /**********************
 102:lvgl/src/extra/themes/default/../../../../src/hal/../misc/lv_area.h ****  * GLOBAL PROTOTYPES
 103:lvgl/src/extra/themes/default/../../../../src/hal/../misc/lv_area.h ****  **********************/
 104:lvgl/src/extra/themes/default/../../../../src/hal/../misc/lv_area.h **** 
 105:lvgl/src/extra/themes/default/../../../../src/hal/../misc/lv_area.h **** /**
 106:lvgl/src/extra/themes/default/../../../../src/hal/../misc/lv_area.h ****  * Initialize an area
 107:lvgl/src/extra/themes/default/../../../../src/hal/../misc/lv_area.h ****  * @param area_p pointer to an area
 108:lvgl/src/extra/themes/default/../../../../src/hal/../misc/lv_area.h ****  * @param x1 left coordinate of the area
 109:lvgl/src/extra/themes/default/../../../../src/hal/../misc/lv_area.h ****  * @param y1 top coordinate of the area
 110:lvgl/src/extra/themes/default/../../../../src/hal/../misc/lv_area.h ****  * @param x2 right coordinate of the area
 111:lvgl/src/extra/themes/default/../../../../src/hal/../misc/lv_area.h ****  * @param y2 bottom coordinate of the area
 112:lvgl/src/extra/themes/default/../../../../src/hal/../misc/lv_area.h ****  */
 113:lvgl/src/extra/themes/default/../../../../src/hal/../misc/lv_area.h **** void lv_area_set(lv_area_t * area_p, lv_coord_t x1, lv_coord_t y1, lv_coord_t x2, lv_coord_t y2);
 114:lvgl/src/extra/themes/default/../../../../src/hal/../misc/lv_area.h **** 
 115:lvgl/src/extra/themes/default/../../../../src/hal/../misc/lv_area.h **** /**
 116:lvgl/src/extra/themes/default/../../../../src/hal/../misc/lv_area.h ****  * Copy an area
 117:lvgl/src/extra/themes/default/../../../../src/hal/../misc/lv_area.h ****  * @param dest pointer to the destination area
 118:lvgl/src/extra/themes/default/../../../../src/hal/../misc/lv_area.h ****  * @param src pointer to the source area
 119:lvgl/src/extra/themes/default/../../../../src/hal/../misc/lv_area.h ****  */
 120:lvgl/src/extra/themes/default/../../../../src/hal/../misc/lv_area.h **** inline static void lv_area_copy(lv_area_t * dest, const lv_area_t * src)
 121:lvgl/src/extra/themes/default/../../../../src/hal/../misc/lv_area.h **** {
 122:lvgl/src/extra/themes/default/../../../../src/hal/../misc/lv_area.h ****     dest->x1 = src->x1;
 123:lvgl/src/extra/themes/default/../../../../src/hal/../misc/lv_area.h ****     dest->y1 = src->y1;
 124:lvgl/src/extra/themes/default/../../../../src/hal/../misc/lv_area.h ****     dest->x2 = src->x2;
 125:lvgl/src/extra/themes/default/../../../../src/hal/../misc/lv_area.h ****     dest->y2 = src->y2;
 126:lvgl/src/extra/themes/default/../../../../src/hal/../misc/lv_area.h **** }
 127:lvgl/src/extra/themes/default/../../../../src/hal/../misc/lv_area.h **** 
 128:lvgl/src/extra/themes/default/../../../../src/hal/../misc/lv_area.h **** /**
 129:lvgl/src/extra/themes/default/../../../../src/hal/../misc/lv_area.h ****  * Get the width of an area
 130:lvgl/src/extra/themes/default/../../../../src/hal/../misc/lv_area.h ****  * @param area_p pointer to an area
 131:lvgl/src/extra/themes/default/../../../../src/hal/../misc/lv_area.h ****  * @return the width of the area (if x1 == x2 -> width = 1)
ARM GAS  /var/folders/k2/cd9bl_j17z77g23y6ffqb_400000gn/T//ccRoPncs.s 			page 192


 132:lvgl/src/extra/themes/default/../../../../src/hal/../misc/lv_area.h ****  */
 133:lvgl/src/extra/themes/default/../../../../src/hal/../misc/lv_area.h **** static inline lv_coord_t lv_area_get_width(const lv_area_t * area_p)
 134:lvgl/src/extra/themes/default/../../../../src/hal/../misc/lv_area.h **** {
 135:lvgl/src/extra/themes/default/../../../../src/hal/../misc/lv_area.h ****     return (lv_coord_t)(area_p->x2 - area_p->x1 + 1);
 136:lvgl/src/extra/themes/default/../../../../src/hal/../misc/lv_area.h **** }
 137:lvgl/src/extra/themes/default/../../../../src/hal/../misc/lv_area.h **** 
 138:lvgl/src/extra/themes/default/../../../../src/hal/../misc/lv_area.h **** /**
 139:lvgl/src/extra/themes/default/../../../../src/hal/../misc/lv_area.h ****  * Get the height of an area
 140:lvgl/src/extra/themes/default/../../../../src/hal/../misc/lv_area.h ****  * @param area_p pointer to an area
 141:lvgl/src/extra/themes/default/../../../../src/hal/../misc/lv_area.h ****  * @return the height of the area (if y1 == y2 -> height = 1)
 142:lvgl/src/extra/themes/default/../../../../src/hal/../misc/lv_area.h ****  */
 143:lvgl/src/extra/themes/default/../../../../src/hal/../misc/lv_area.h **** static inline lv_coord_t lv_area_get_height(const lv_area_t * area_p)
 144:lvgl/src/extra/themes/default/../../../../src/hal/../misc/lv_area.h **** {
 145:lvgl/src/extra/themes/default/../../../../src/hal/../misc/lv_area.h ****     return (lv_coord_t)(area_p->y2 - area_p->y1 + 1);
 146:lvgl/src/extra/themes/default/../../../../src/hal/../misc/lv_area.h **** }
 147:lvgl/src/extra/themes/default/../../../../src/hal/../misc/lv_area.h **** 
 148:lvgl/src/extra/themes/default/../../../../src/hal/../misc/lv_area.h **** /**
 149:lvgl/src/extra/themes/default/../../../../src/hal/../misc/lv_area.h ****  * Set the width of an area
 150:lvgl/src/extra/themes/default/../../../../src/hal/../misc/lv_area.h ****  * @param area_p pointer to an area
 151:lvgl/src/extra/themes/default/../../../../src/hal/../misc/lv_area.h ****  * @param w the new width of the area (w == 1 makes x1 == x2)
 152:lvgl/src/extra/themes/default/../../../../src/hal/../misc/lv_area.h ****  */
 153:lvgl/src/extra/themes/default/../../../../src/hal/../misc/lv_area.h **** void lv_area_set_width(lv_area_t * area_p, lv_coord_t w);
 154:lvgl/src/extra/themes/default/../../../../src/hal/../misc/lv_area.h **** 
 155:lvgl/src/extra/themes/default/../../../../src/hal/../misc/lv_area.h **** /**
 156:lvgl/src/extra/themes/default/../../../../src/hal/../misc/lv_area.h ****  * Set the height of an area
 157:lvgl/src/extra/themes/default/../../../../src/hal/../misc/lv_area.h ****  * @param area_p pointer to an area
 158:lvgl/src/extra/themes/default/../../../../src/hal/../misc/lv_area.h ****  * @param h the new height of the area (h == 1 makes y1 == y2)
 159:lvgl/src/extra/themes/default/../../../../src/hal/../misc/lv_area.h ****  */
 160:lvgl/src/extra/themes/default/../../../../src/hal/../misc/lv_area.h **** void lv_area_set_height(lv_area_t * area_p, lv_coord_t h);
 161:lvgl/src/extra/themes/default/../../../../src/hal/../misc/lv_area.h **** 
 162:lvgl/src/extra/themes/default/../../../../src/hal/../misc/lv_area.h **** /**
 163:lvgl/src/extra/themes/default/../../../../src/hal/../misc/lv_area.h ****  * Set the position of an area (width and height will be kept)
 164:lvgl/src/extra/themes/default/../../../../src/hal/../misc/lv_area.h ****  * @param area_p pointer to an area
 165:lvgl/src/extra/themes/default/../../../../src/hal/../misc/lv_area.h ****  * @param x the new x coordinate of the area
 166:lvgl/src/extra/themes/default/../../../../src/hal/../misc/lv_area.h ****  * @param y the new y coordinate of the area
 167:lvgl/src/extra/themes/default/../../../../src/hal/../misc/lv_area.h ****  */
 168:lvgl/src/extra/themes/default/../../../../src/hal/../misc/lv_area.h **** void _lv_area_set_pos(lv_area_t * area_p, lv_coord_t x, lv_coord_t y);
 169:lvgl/src/extra/themes/default/../../../../src/hal/../misc/lv_area.h **** 
 170:lvgl/src/extra/themes/default/../../../../src/hal/../misc/lv_area.h **** /**
 171:lvgl/src/extra/themes/default/../../../../src/hal/../misc/lv_area.h ****  * Return with area of an area (x * y)
 172:lvgl/src/extra/themes/default/../../../../src/hal/../misc/lv_area.h ****  * @param area_p pointer to an area
 173:lvgl/src/extra/themes/default/../../../../src/hal/../misc/lv_area.h ****  * @return size of area
 174:lvgl/src/extra/themes/default/../../../../src/hal/../misc/lv_area.h ****  */
 175:lvgl/src/extra/themes/default/../../../../src/hal/../misc/lv_area.h **** uint32_t lv_area_get_size(const lv_area_t * area_p);
 176:lvgl/src/extra/themes/default/../../../../src/hal/../misc/lv_area.h **** 
 177:lvgl/src/extra/themes/default/../../../../src/hal/../misc/lv_area.h **** void lv_area_increase(lv_area_t * area, lv_coord_t w_extra, lv_coord_t h_extra);
 178:lvgl/src/extra/themes/default/../../../../src/hal/../misc/lv_area.h **** 
 179:lvgl/src/extra/themes/default/../../../../src/hal/../misc/lv_area.h **** void lv_area_move(lv_area_t * area, lv_coord_t x_ofs, lv_coord_t y_ofs);
 180:lvgl/src/extra/themes/default/../../../../src/hal/../misc/lv_area.h **** 
 181:lvgl/src/extra/themes/default/../../../../src/hal/../misc/lv_area.h **** /**
 182:lvgl/src/extra/themes/default/../../../../src/hal/../misc/lv_area.h ****  * Get the common parts of two areas
 183:lvgl/src/extra/themes/default/../../../../src/hal/../misc/lv_area.h ****  * @param res_p pointer to an area, the result will be stored her
 184:lvgl/src/extra/themes/default/../../../../src/hal/../misc/lv_area.h ****  * @param a1_p pointer to the first area
 185:lvgl/src/extra/themes/default/../../../../src/hal/../misc/lv_area.h ****  * @param a2_p pointer to the second area
 186:lvgl/src/extra/themes/default/../../../../src/hal/../misc/lv_area.h ****  * @return false: the two area has NO common parts, res_p is invalid
 187:lvgl/src/extra/themes/default/../../../../src/hal/../misc/lv_area.h ****  */
 188:lvgl/src/extra/themes/default/../../../../src/hal/../misc/lv_area.h **** bool _lv_area_intersect(lv_area_t * res_p, const lv_area_t * a1_p, const lv_area_t * a2_p);
ARM GAS  /var/folders/k2/cd9bl_j17z77g23y6ffqb_400000gn/T//ccRoPncs.s 			page 193


 189:lvgl/src/extra/themes/default/../../../../src/hal/../misc/lv_area.h **** 
 190:lvgl/src/extra/themes/default/../../../../src/hal/../misc/lv_area.h **** /**
 191:lvgl/src/extra/themes/default/../../../../src/hal/../misc/lv_area.h ****  * Join two areas into a third which involves the other two
 192:lvgl/src/extra/themes/default/../../../../src/hal/../misc/lv_area.h ****  * @param res_p pointer to an area, the result will be stored here
 193:lvgl/src/extra/themes/default/../../../../src/hal/../misc/lv_area.h ****  * @param a1_p pointer to the first area
 194:lvgl/src/extra/themes/default/../../../../src/hal/../misc/lv_area.h ****  * @param a2_p pointer to the second area
 195:lvgl/src/extra/themes/default/../../../../src/hal/../misc/lv_area.h ****  */
 196:lvgl/src/extra/themes/default/../../../../src/hal/../misc/lv_area.h **** void _lv_area_join(lv_area_t * a_res_p, const lv_area_t * a1_p, const lv_area_t * a2_p);
 197:lvgl/src/extra/themes/default/../../../../src/hal/../misc/lv_area.h **** 
 198:lvgl/src/extra/themes/default/../../../../src/hal/../misc/lv_area.h **** /**
 199:lvgl/src/extra/themes/default/../../../../src/hal/../misc/lv_area.h ****  * Check if a point is on an area
 200:lvgl/src/extra/themes/default/../../../../src/hal/../misc/lv_area.h ****  * @param a_p pointer to an area
 201:lvgl/src/extra/themes/default/../../../../src/hal/../misc/lv_area.h ****  * @param p_p pointer to a point
 202:lvgl/src/extra/themes/default/../../../../src/hal/../misc/lv_area.h ****  * @param radius radius of area (e.g. for rounded rectangle)
 203:lvgl/src/extra/themes/default/../../../../src/hal/../misc/lv_area.h ****  * @return false:the point is out of the area
 204:lvgl/src/extra/themes/default/../../../../src/hal/../misc/lv_area.h ****  */
 205:lvgl/src/extra/themes/default/../../../../src/hal/../misc/lv_area.h **** bool _lv_area_is_point_on(const lv_area_t * a_p, const lv_point_t * p_p, lv_coord_t radius);
 206:lvgl/src/extra/themes/default/../../../../src/hal/../misc/lv_area.h **** 
 207:lvgl/src/extra/themes/default/../../../../src/hal/../misc/lv_area.h **** /**
 208:lvgl/src/extra/themes/default/../../../../src/hal/../misc/lv_area.h ****  * Check if two area has common parts
 209:lvgl/src/extra/themes/default/../../../../src/hal/../misc/lv_area.h ****  * @param a1_p pointer to an area.
 210:lvgl/src/extra/themes/default/../../../../src/hal/../misc/lv_area.h ****  * @param a2_p pointer to an other area
 211:lvgl/src/extra/themes/default/../../../../src/hal/../misc/lv_area.h ****  * @return false: a1_p and a2_p has no common parts
 212:lvgl/src/extra/themes/default/../../../../src/hal/../misc/lv_area.h ****  */
 213:lvgl/src/extra/themes/default/../../../../src/hal/../misc/lv_area.h **** bool _lv_area_is_on(const lv_area_t * a1_p, const lv_area_t * a2_p);
 214:lvgl/src/extra/themes/default/../../../../src/hal/../misc/lv_area.h **** 
 215:lvgl/src/extra/themes/default/../../../../src/hal/../misc/lv_area.h **** /**
 216:lvgl/src/extra/themes/default/../../../../src/hal/../misc/lv_area.h ****  * Check if an area is fully on an other
 217:lvgl/src/extra/themes/default/../../../../src/hal/../misc/lv_area.h ****  * @param ain_p pointer to an area which could be in 'aholder_p'
 218:lvgl/src/extra/themes/default/../../../../src/hal/../misc/lv_area.h ****  * @param aholder_p pointer to an area which could involve 'ain_p'
 219:lvgl/src/extra/themes/default/../../../../src/hal/../misc/lv_area.h ****  * @param radius radius of `aholder_p` (e.g. for rounded rectangle)
 220:lvgl/src/extra/themes/default/../../../../src/hal/../misc/lv_area.h ****  * @return true: `ain_p` is fully inside `aholder_p`
 221:lvgl/src/extra/themes/default/../../../../src/hal/../misc/lv_area.h ****  */
 222:lvgl/src/extra/themes/default/../../../../src/hal/../misc/lv_area.h **** bool _lv_area_is_in(const lv_area_t * ain_p, const lv_area_t * aholder_p, lv_coord_t radius);
 223:lvgl/src/extra/themes/default/../../../../src/hal/../misc/lv_area.h **** 
 224:lvgl/src/extra/themes/default/../../../../src/hal/../misc/lv_area.h **** /**
 225:lvgl/src/extra/themes/default/../../../../src/hal/../misc/lv_area.h ****  * Align an area to an other
 226:lvgl/src/extra/themes/default/../../../../src/hal/../misc/lv_area.h ****  * @param base an are where the other will be aligned
 227:lvgl/src/extra/themes/default/../../../../src/hal/../misc/lv_area.h ****  * @param to_align the area to align
 228:lvgl/src/extra/themes/default/../../../../src/hal/../misc/lv_area.h ****  * @param align `LV_ALIGN_...`
 229:lvgl/src/extra/themes/default/../../../../src/hal/../misc/lv_area.h ****  */
 230:lvgl/src/extra/themes/default/../../../../src/hal/../misc/lv_area.h **** void lv_area_align(const lv_area_t * base, lv_area_t * to_align, lv_align_t align, lv_coord_t ofs_x
 231:lvgl/src/extra/themes/default/../../../../src/hal/../misc/lv_area.h **** 
 232:lvgl/src/extra/themes/default/../../../../src/hal/../misc/lv_area.h **** /**********************
 233:lvgl/src/extra/themes/default/../../../../src/hal/../misc/lv_area.h ****  *      MACROS
 234:lvgl/src/extra/themes/default/../../../../src/hal/../misc/lv_area.h ****  **********************/
 235:lvgl/src/extra/themes/default/../../../../src/hal/../misc/lv_area.h **** 
 236:lvgl/src/extra/themes/default/../../../../src/hal/../misc/lv_area.h **** #if LV_USE_LARGE_COORD
 237:lvgl/src/extra/themes/default/../../../../src/hal/../misc/lv_area.h **** #define _LV_COORD_TYPE_SHIFT    (29)
 238:lvgl/src/extra/themes/default/../../../../src/hal/../misc/lv_area.h **** #else
 239:lvgl/src/extra/themes/default/../../../../src/hal/../misc/lv_area.h **** #define _LV_COORD_TYPE_SHIFT    (13)
 240:lvgl/src/extra/themes/default/../../../../src/hal/../misc/lv_area.h **** #endif
 241:lvgl/src/extra/themes/default/../../../../src/hal/../misc/lv_area.h **** 
 242:lvgl/src/extra/themes/default/../../../../src/hal/../misc/lv_area.h **** #define _LV_COORD_TYPE_MASK     (3 << _LV_COORD_TYPE_SHIFT)
 243:lvgl/src/extra/themes/default/../../../../src/hal/../misc/lv_area.h **** #define _LV_COORD_PLAIN(x)      ((x) & (~_LV_COORD_TYPE_MASK))  /*Remove type specifiers*/
 244:lvgl/src/extra/themes/default/../../../../src/hal/../misc/lv_area.h **** 
 245:lvgl/src/extra/themes/default/../../../../src/hal/../misc/lv_area.h **** #define _LV_COORD_TYPE_PX       (0 << _LV_COORD_TYPE_SHIFT)
ARM GAS  /var/folders/k2/cd9bl_j17z77g23y6ffqb_400000gn/T//ccRoPncs.s 			page 194


 246:lvgl/src/extra/themes/default/../../../../src/hal/../misc/lv_area.h **** #define _LV_COORD_TYPE_SPEC     (1 << _LV_COORD_TYPE_SHIFT)
 247:lvgl/src/extra/themes/default/../../../../src/hal/../misc/lv_area.h **** #define _LV_COORD_TYPE_RESERVED (3 << _LV_COORD_TYPE_SHIFT)
 248:lvgl/src/extra/themes/default/../../../../src/hal/../misc/lv_area.h **** 
 249:lvgl/src/extra/themes/default/../../../../src/hal/../misc/lv_area.h **** #define LV_COORD_IS_PX(x)     ((((x) & _LV_COORD_TYPE_MASK) == _LV_COORD_TYPE_PX) ? true : false)
 250:lvgl/src/extra/themes/default/../../../../src/hal/../misc/lv_area.h **** #define LV_COORD_IS_SPEC(x)   ((((x) & _LV_COORD_TYPE_MASK) == _LV_COORD_TYPE_SPEC) ? true : false)
 251:lvgl/src/extra/themes/default/../../../../src/hal/../misc/lv_area.h **** 
 252:lvgl/src/extra/themes/default/../../../../src/hal/../misc/lv_area.h **** #define LV_COORD_SET_SPEC(x)   ((x) | _LV_COORD_TYPE_SPEC)
 253:lvgl/src/extra/themes/default/../../../../src/hal/../misc/lv_area.h **** 
 254:lvgl/src/extra/themes/default/../../../../src/hal/../misc/lv_area.h **** /*Special coordinates*/
 255:lvgl/src/extra/themes/default/../../../../src/hal/../misc/lv_area.h **** #define LV_PCT(x)               (x < 0 ? LV_COORD_SET_SPEC(1000 - (x)) : LV_COORD_SET_SPEC(x))
 256:lvgl/src/extra/themes/default/../../../../src/hal/../misc/lv_area.h **** #define LV_COORD_IS_PCT(x)      ((LV_COORD_IS_SPEC(x) && _LV_COORD_PLAIN(x) <= 2000) ? true : false
 257:lvgl/src/extra/themes/default/../../../../src/hal/../misc/lv_area.h **** #define LV_COORD_GET_PCT(x)     (_LV_COORD_PLAIN(x) > 1000 ? 1000 - _LV_COORD_PLAIN(x) : _LV_COORD_
 258:lvgl/src/extra/themes/default/../../../../src/hal/../misc/lv_area.h **** #define LV_SIZE_CONTENT         LV_COORD_SET_SPEC(2001)
 259:lvgl/src/extra/themes/default/../../../../src/hal/../misc/lv_area.h **** 
 260:lvgl/src/extra/themes/default/../../../../src/hal/../misc/lv_area.h **** LV_EXPORT_CONST_INT(LV_SIZE_CONTENT);
 261:lvgl/src/extra/themes/default/../../../../src/hal/../misc/lv_area.h **** 
 262:lvgl/src/extra/themes/default/../../../../src/hal/../misc/lv_area.h **** /**
 263:lvgl/src/extra/themes/default/../../../../src/hal/../misc/lv_area.h ****  * Convert a percentage value to `lv_coord_t`.
 264:lvgl/src/extra/themes/default/../../../../src/hal/../misc/lv_area.h ****  * Percentage values are stored in special range
 265:lvgl/src/extra/themes/default/../../../../src/hal/../misc/lv_area.h ****  * @param x the percentage (0..1000)
 266:lvgl/src/extra/themes/default/../../../../src/hal/../misc/lv_area.h ****  * @return a coordinate that stores the percentage
 267:lvgl/src/extra/themes/default/../../../../src/hal/../misc/lv_area.h ****  */
 268:lvgl/src/extra/themes/default/../../../../src/hal/../misc/lv_area.h **** static inline lv_coord_t lv_pct(lv_coord_t x)
 269:lvgl/src/extra/themes/default/../../../../src/hal/../misc/lv_area.h **** {
 270:lvgl/src/extra/themes/default/../../../../src/hal/../misc/lv_area.h ****     return LV_PCT(x);
 6667              		.loc 5 270 5 is_stmt 1 view .LVU2010
 506:lvgl/src/extra/themes/default/lv_theme_default.c **** #endif
 6668              		.loc 1 506 5 is_stmt 0 view .LVU2011
 6669 11f2 42F26401 		movw	r1, #8292
 6670 11f6 00F5C870 		add	r0, r0, #400
 6671 11fa FFF7FEFF 		bl	lv_style_set_max_width
 6672              	.LVL727:
 509:lvgl/src/extra/themes/default/lv_theme_default.c ****     lv_style_set_shadow_width(&styles->keyboard_btn_bg, 0);
 6673              		.loc 1 509 5 is_stmt 1 view .LVU2012
 509:lvgl/src/extra/themes/default/lv_theme_default.c ****     lv_style_set_shadow_width(&styles->keyboard_btn_bg, 0);
 6674              		.loc 1 509 29 is_stmt 0 view .LVU2013
 6675 11fe 2068     		ldr	r0, [r4]
 509:lvgl/src/extra/themes/default/lv_theme_default.c ****     lv_style_set_shadow_width(&styles->keyboard_btn_bg, 0);
 6676              		.loc 1 509 5 view .LVU2014
 6677 1200 00F5D070 		add	r0, r0, #416
 6678 1204 FFF7FEFF 		bl	style_init_reset
 6679              	.LVL728:
 510:lvgl/src/extra/themes/default/lv_theme_default.c ****     lv_style_set_radius(&styles->keyboard_btn_bg, disp_size == DISP_SMALL ? RADIUS_DEFAULT / 2 : RA
 6680              		.loc 1 510 5 is_stmt 1 view .LVU2015
 510:lvgl/src/extra/themes/default/lv_theme_default.c ****     lv_style_set_radius(&styles->keyboard_btn_bg, disp_size == DISP_SMALL ? RADIUS_DEFAULT / 2 : RA
 6681              		.loc 1 510 38 is_stmt 0 view .LVU2016
 6682 1208 2068     		ldr	r0, [r4]
 510:lvgl/src/extra/themes/default/lv_theme_default.c ****     lv_style_set_radius(&styles->keyboard_btn_bg, disp_size == DISP_SMALL ? RADIUS_DEFAULT / 2 : RA
 6683              		.loc 1 510 5 view .LVU2017
 6684 120a 0021     		movs	r1, #0
 6685 120c 00F5D070 		add	r0, r0, #416
 6686 1210 FFF7FEFF 		bl	lv_style_set_shadow_width
 6687              	.LVL729:
 511:lvgl/src/extra/themes/default/lv_theme_default.c **** #endif
 6688              		.loc 1 511 5 is_stmt 1 view .LVU2018
 511:lvgl/src/extra/themes/default/lv_theme_default.c **** #endif
 6689              		.loc 1 511 32 is_stmt 0 view .LVU2019
ARM GAS  /var/folders/k2/cd9bl_j17z77g23y6ffqb_400000gn/T//ccRoPncs.s 			page 195


 6690 1214 2468     		ldr	r4, [r4]
 511:lvgl/src/extra/themes/default/lv_theme_default.c **** #endif
 6691              		.loc 1 511 5 view .LVU2020
 6692 1216 04F5D074 		add	r4, r4, #416
 511:lvgl/src/extra/themes/default/lv_theme_default.c **** #endif
 6693              		.loc 1 511 61 view .LVU2021
 6694 121a 4B4B     		ldr	r3, .L585+8
 6695 121c 1B78     		ldrb	r3, [r3]	@ zero_extendqisi2
 511:lvgl/src/extra/themes/default/lv_theme_default.c **** #endif
 6696              		.loc 1 511 5 view .LVU2022
 6697 121e 032B     		cmp	r3, #3
 6698 1220 01F09181 		beq	.L499
 511:lvgl/src/extra/themes/default/lv_theme_default.c **** #endif
 6699              		.loc 1 511 5 discriminator 2 view .LVU2023
 6700 1224 012B     		cmp	r3, #1
 6701 1226 01F0CA81 		beq	.L500
 511:lvgl/src/extra/themes/default/lv_theme_default.c **** #endif
 6702              		.loc 1 511 98 discriminator 9 view .LVU2024
 6703 122a 454B     		ldr	r3, .L585
 6704 122c DD68     		ldr	r5, [r3, #12]
 6705              	.LVL730:
 6706              	.LBB627:
 6707              	.LBI627:
 236:lvgl/src/extra/themes/default/../../../../src/core/lv_disp.h **** {
 6708              		.loc 3 236 26 is_stmt 1 discriminator 9 view .LVU2025
 6709              	.LBB628:
 6710              		.loc 3 238 5 discriminator 9 view .LVU2026
 6711              		.loc 3 238 12 is_stmt 0 discriminator 9 view .LVU2027
 6712 122e 2846     		mov	r0, r5
 6713 1230 FFF7FEFF 		bl	lv_disp_get_dpi
 6714              	.LVL731:
 6715 1234 C000     		lsls	r0, r0, #3
 6716 1236 EF28     		cmp	r0, #239
 6717 1238 01F3DE81 		bgt	.L501
 6718              		.loc 3 238 12 view .LVU2028
 6719 123c 0121     		movs	r1, #1
 6720              	.LVL732:
 6721              	.L249:
 6722              		.loc 3 238 12 view .LVU2029
 6723              	.LBE628:
 6724              	.LBE627:
 511:lvgl/src/extra/themes/default/lv_theme_default.c **** #endif
 6725              		.loc 1 511 5 discriminator 12 view .LVU2030
 6726 123e 2046     		mov	r0, r4
 6727 1240 FFF7FEFF 		bl	lv_style_set_radius
 6728              	.LVL733:
 515:lvgl/src/extra/themes/default/lv_theme_default.c ****     lv_style_set_border_color(&styles->tab_btn, theme.color_primary);
 6729              		.loc 1 515 5 is_stmt 1 discriminator 12 view .LVU2031
 515:lvgl/src/extra/themes/default/lv_theme_default.c ****     lv_style_set_border_color(&styles->tab_btn, theme.color_primary);
 6730              		.loc 1 515 29 is_stmt 0 discriminator 12 view .LVU2032
 6731 1244 3F4C     		ldr	r4, .L585+4
 6732 1246 2068     		ldr	r0, [r4]
 515:lvgl/src/extra/themes/default/lv_theme_default.c ****     lv_style_set_border_color(&styles->tab_btn, theme.color_primary);
 6733              		.loc 1 515 5 discriminator 12 view .LVU2033
 6734 1248 00F5E870 		add	r0, r0, #464
 6735 124c FFF7FEFF 		bl	style_init_reset
 6736              	.LVL734:
ARM GAS  /var/folders/k2/cd9bl_j17z77g23y6ffqb_400000gn/T//ccRoPncs.s 			page 196


 516:lvgl/src/extra/themes/default/lv_theme_default.c ****     lv_style_set_border_width(&styles->tab_btn, BORDER_WIDTH * 2);
 6737              		.loc 1 516 5 is_stmt 1 discriminator 12 view .LVU2034
 516:lvgl/src/extra/themes/default/lv_theme_default.c ****     lv_style_set_border_width(&styles->tab_btn, BORDER_WIDTH * 2);
 6738              		.loc 1 516 38 is_stmt 0 discriminator 12 view .LVU2035
 6739 1250 2068     		ldr	r0, [r4]
 516:lvgl/src/extra/themes/default/lv_theme_default.c ****     lv_style_set_border_width(&styles->tab_btn, BORDER_WIDTH * 2);
 6740              		.loc 1 516 5 discriminator 12 view .LVU2036
 6741 1252 3B4D     		ldr	r5, .L585
 6742 1254 2969     		ldr	r1, [r5, #16]
 6743 1256 00F5E870 		add	r0, r0, #464
 6744 125a FFF7FEFF 		bl	lv_style_set_border_color
 6745              	.LVL735:
 517:lvgl/src/extra/themes/default/lv_theme_default.c ****     lv_style_set_border_side(&styles->tab_btn, LV_BORDER_SIDE_BOTTOM);
 6746              		.loc 1 517 5 is_stmt 1 discriminator 12 view .LVU2037
 517:lvgl/src/extra/themes/default/lv_theme_default.c ****     lv_style_set_border_side(&styles->tab_btn, LV_BORDER_SIDE_BOTTOM);
 6747              		.loc 1 517 38 is_stmt 0 discriminator 12 view .LVU2038
 6748 125e 2468     		ldr	r4, [r4]
 517:lvgl/src/extra/themes/default/lv_theme_default.c ****     lv_style_set_border_side(&styles->tab_btn, LV_BORDER_SIDE_BOTTOM);
 6749              		.loc 1 517 5 discriminator 12 view .LVU2039
 6750 1260 04F5E874 		add	r4, r4, #464
 517:lvgl/src/extra/themes/default/lv_theme_default.c ****     lv_style_set_border_side(&styles->tab_btn, LV_BORDER_SIDE_BOTTOM);
 6751              		.loc 1 517 49 discriminator 12 view .LVU2040
 6752 1264 ED68     		ldr	r5, [r5, #12]
 6753              	.LVL736:
 6754              	.LBB630:
 6755              	.LBI630:
 236:lvgl/src/extra/themes/default/../../../../src/core/lv_disp.h **** {
 6756              		.loc 3 236 26 is_stmt 1 discriminator 12 view .LVU2041
 6757              	.LBB631:
 6758              		.loc 3 238 5 discriminator 12 view .LVU2042
 6759              		.loc 3 238 12 is_stmt 0 discriminator 12 view .LVU2043
 6760 1266 2846     		mov	r0, r5
 6761 1268 FFF7FEFF 		bl	lv_disp_get_dpi
 6762              	.LVL737:
 6763 126c 4000     		lsls	r0, r0, #1
 6764 126e EF28     		cmp	r0, #239
 6765 1270 01F3D081 		bgt	.L502
 6766              		.loc 3 238 12 view .LVU2044
 6767 1274 0121     		movs	r1, #1
 6768              	.L254:
 6769              	.LVL738:
 6770              		.loc 3 238 12 view .LVU2045
 6771              	.LBE631:
 6772              	.LBE630:
 517:lvgl/src/extra/themes/default/lv_theme_default.c ****     lv_style_set_border_side(&styles->tab_btn, LV_BORDER_SIDE_BOTTOM);
 6773              		.loc 1 517 49 view .LVU2046
 6774 1276 89B2     		uxth	r1, r1
 517:lvgl/src/extra/themes/default/lv_theme_default.c ****     lv_style_set_border_side(&styles->tab_btn, LV_BORDER_SIDE_BOTTOM);
 6775              		.loc 1 517 62 view .LVU2047
 6776 1278 4900     		lsls	r1, r1, #1
 517:lvgl/src/extra/themes/default/lv_theme_default.c ****     lv_style_set_border_side(&styles->tab_btn, LV_BORDER_SIDE_BOTTOM);
 6777              		.loc 1 517 5 view .LVU2048
 6778 127a 09B2     		sxth	r1, r1
 6779 127c 2046     		mov	r0, r4
 6780 127e FFF7FEFF 		bl	lv_style_set_border_width
 6781              	.LVL739:
 518:lvgl/src/extra/themes/default/lv_theme_default.c **** 
ARM GAS  /var/folders/k2/cd9bl_j17z77g23y6ffqb_400000gn/T//ccRoPncs.s 			page 197


 6782              		.loc 1 518 5 is_stmt 1 view .LVU2049
 518:lvgl/src/extra/themes/default/lv_theme_default.c **** 
 6783              		.loc 1 518 37 is_stmt 0 view .LVU2050
 6784 1282 304C     		ldr	r4, .L585+4
 6785 1284 2068     		ldr	r0, [r4]
 518:lvgl/src/extra/themes/default/lv_theme_default.c **** 
 6786              		.loc 1 518 5 view .LVU2051
 6787 1286 0121     		movs	r1, #1
 6788 1288 00F5E870 		add	r0, r0, #464
 6789 128c FFF7FEFF 		bl	lv_style_set_border_side
 6790              	.LVL740:
 520:lvgl/src/extra/themes/default/lv_theme_default.c ****     lv_style_set_outline_pad(&styles->tab_bg_focus, -BORDER_WIDTH);
 6791              		.loc 1 520 5 is_stmt 1 view .LVU2052
 520:lvgl/src/extra/themes/default/lv_theme_default.c ****     lv_style_set_outline_pad(&styles->tab_bg_focus, -BORDER_WIDTH);
 6792              		.loc 1 520 29 is_stmt 0 view .LVU2053
 6793 1290 2068     		ldr	r0, [r4]
 520:lvgl/src/extra/themes/default/lv_theme_default.c ****     lv_style_set_outline_pad(&styles->tab_bg_focus, -BORDER_WIDTH);
 6794              		.loc 1 520 5 view .LVU2054
 6795 1292 00F5E470 		add	r0, r0, #456
 6796 1296 FFF7FEFF 		bl	style_init_reset
 6797              	.LVL741:
 521:lvgl/src/extra/themes/default/lv_theme_default.c **** #endif
 6798              		.loc 1 521 5 is_stmt 1 view .LVU2055
 521:lvgl/src/extra/themes/default/lv_theme_default.c **** #endif
 6799              		.loc 1 521 37 is_stmt 0 view .LVU2056
 6800 129a 2468     		ldr	r4, [r4]
 521:lvgl/src/extra/themes/default/lv_theme_default.c **** #endif
 6801              		.loc 1 521 5 view .LVU2057
 6802 129c 04F5E474 		add	r4, r4, #456
 521:lvgl/src/extra/themes/default/lv_theme_default.c **** #endif
 6803              		.loc 1 521 54 view .LVU2058
 6804 12a0 274B     		ldr	r3, .L585
 6805 12a2 DD68     		ldr	r5, [r3, #12]
 6806              	.LVL742:
 6807              	.LBB633:
 6808              	.LBI633:
 236:lvgl/src/extra/themes/default/../../../../src/core/lv_disp.h **** {
 6809              		.loc 3 236 26 is_stmt 1 view .LVU2059
 6810              	.LBB634:
 6811              		.loc 3 238 5 view .LVU2060
 6812              		.loc 3 238 12 is_stmt 0 view .LVU2061
 6813 12a4 2846     		mov	r0, r5
 6814 12a6 FFF7FEFF 		bl	lv_disp_get_dpi
 6815              	.LVL743:
 6816 12aa 4000     		lsls	r0, r0, #1
 6817 12ac EF28     		cmp	r0, #239
 6818 12ae 01F3BF81 		bgt	.L503
 6819 12b2 0121     		movs	r1, #1
 6820              	.L255:
 6821              	.LVL744:
 6822              		.loc 3 238 12 view .LVU2062
 6823              	.LBE634:
 6824              	.LBE633:
 521:lvgl/src/extra/themes/default/lv_theme_default.c **** #endif
 6825              		.loc 1 521 54 view .LVU2063
 6826 12b4 89B2     		uxth	r1, r1
 521:lvgl/src/extra/themes/default/lv_theme_default.c **** #endif
ARM GAS  /var/folders/k2/cd9bl_j17z77g23y6ffqb_400000gn/T//ccRoPncs.s 			page 198


 6827              		.loc 1 521 5 view .LVU2064
 6828 12b6 4942     		rsbs	r1, r1, #0
 6829 12b8 09B2     		sxth	r1, r1
 6830 12ba 2046     		mov	r0, r4
 6831 12bc FFF7FEFF 		bl	lv_style_set_outline_pad
 6832              	.LVL745:
 525:lvgl/src/extra/themes/default/lv_theme_default.c ****     lv_style_set_pad_hor(&styles->list_bg, PAD_DEF);
 6833              		.loc 1 525 5 is_stmt 1 view .LVU2065
 525:lvgl/src/extra/themes/default/lv_theme_default.c ****     lv_style_set_pad_hor(&styles->list_bg, PAD_DEF);
 6834              		.loc 1 525 29 is_stmt 0 view .LVU2066
 6835 12c0 204C     		ldr	r4, .L585+4
 6836 12c2 2068     		ldr	r0, [r4]
 525:lvgl/src/extra/themes/default/lv_theme_default.c ****     lv_style_set_pad_hor(&styles->list_bg, PAD_DEF);
 6837              		.loc 1 525 5 view .LVU2067
 6838 12c4 00F5D470 		add	r0, r0, #424
 6839 12c8 FFF7FEFF 		bl	style_init_reset
 6840              	.LVL746:
 526:lvgl/src/extra/themes/default/lv_theme_default.c ****     lv_style_set_pad_ver(&styles->list_bg, 0);
 6841              		.loc 1 526 5 is_stmt 1 view .LVU2068
 526:lvgl/src/extra/themes/default/lv_theme_default.c ****     lv_style_set_pad_ver(&styles->list_bg, 0);
 6842              		.loc 1 526 33 is_stmt 0 view .LVU2069
 6843 12cc 2568     		ldr	r5, [r4]
 526:lvgl/src/extra/themes/default/lv_theme_default.c ****     lv_style_set_pad_ver(&styles->list_bg, 0);
 6844              		.loc 1 526 5 view .LVU2070
 6845 12ce 05F5D475 		add	r5, r5, #424
 526:lvgl/src/extra/themes/default/lv_theme_default.c ****     lv_style_set_pad_ver(&styles->list_bg, 0);
 6846              		.loc 1 526 44 view .LVU2071
 6847 12d2 1D4B     		ldr	r3, .L585+8
 6848 12d4 1B78     		ldrb	r3, [r3]	@ zero_extendqisi2
 526:lvgl/src/extra/themes/default/lv_theme_default.c ****     lv_style_set_pad_ver(&styles->list_bg, 0);
 6849              		.loc 1 526 5 view .LVU2072
 6850 12d6 012B     		cmp	r3, #1
 6851 12d8 01F0B881 		beq	.L504
 526:lvgl/src/extra/themes/default/lv_theme_default.c ****     lv_style_set_pad_ver(&styles->list_bg, 0);
 6852              		.loc 1 526 5 discriminator 2 view .LVU2073
 6853 12dc 022B     		cmp	r3, #2
 6854 12de 01F0D281 		beq	.L505
 526:lvgl/src/extra/themes/default/lv_theme_default.c ****     lv_style_set_pad_ver(&styles->list_bg, 0);
 6855              		.loc 1 526 44 discriminator 5 view .LVU2074
 6856 12e2 174B     		ldr	r3, .L585
 6857 12e4 DC68     		ldr	r4, [r3, #12]
 6858              	.LVL747:
 6859              	.LBB636:
 6860              	.LBI636:
 236:lvgl/src/extra/themes/default/../../../../src/core/lv_disp.h **** {
 6861              		.loc 3 236 26 is_stmt 1 discriminator 5 view .LVU2075
 6862              	.LBB637:
 6863              		.loc 3 238 5 discriminator 5 view .LVU2076
 6864              		.loc 3 238 12 is_stmt 0 discriminator 5 view .LVU2077
 6865 12e6 2046     		mov	r0, r4
 6866 12e8 FFF7FEFF 		bl	lv_disp_get_dpi
 6867              	.LVL748:
 6868 12ec 0001     		lsls	r0, r0, #4
 6869 12ee EF28     		cmp	r0, #239
 6870 12f0 01F3E681 		bgt	.L506
 6871              		.loc 3 238 12 view .LVU2078
 6872 12f4 0124     		movs	r4, #1
ARM GAS  /var/folders/k2/cd9bl_j17z77g23y6ffqb_400000gn/T//ccRoPncs.s 			page 199


 6873              	.LVL749:
 6874              	.L258:
 6875              		.loc 3 238 12 view .LVU2079
 6876              	.LBE637:
 6877              	.LBE636:
 6878              	.LBB639:
 6879              	.LBI639:
 432:lvgl/src/extra/themes/default/../../../../src/core/../misc/lv_style.h ****     lv_style_set_pad_left(style, value);
 6880              		.loc 4 432 20 is_stmt 1 discriminator 8 view .LVU2080
 6881              	.LBB640:
 433:lvgl/src/extra/themes/default/../../../../src/core/../misc/lv_style.h ****     lv_style_set_pad_right(style, value);
 6882              		.loc 4 433 5 discriminator 8 view .LVU2081
 6883 12f6 2146     		mov	r1, r4
 6884 12f8 2846     		mov	r0, r5
 6885 12fa FFF7FEFF 		bl	lv_style_set_pad_left
 6886              	.LVL750:
 434:lvgl/src/extra/themes/default/../../../../src/core/../misc/lv_style.h **** }
 6887              		.loc 4 434 5 discriminator 8 view .LVU2082
 6888 12fe 2146     		mov	r1, r4
 6889 1300 2846     		mov	r0, r5
 6890 1302 FFF7FEFF 		bl	lv_style_set_pad_right
 6891              	.LVL751:
 434:lvgl/src/extra/themes/default/../../../../src/core/../misc/lv_style.h **** }
 6892              		.loc 4 434 5 is_stmt 0 discriminator 8 view .LVU2083
 6893              	.LBE640:
 6894              	.LBE639:
 527:lvgl/src/extra/themes/default/lv_theme_default.c ****     lv_style_set_pad_gap(&styles->list_bg, 0);
 6895              		.loc 1 527 5 is_stmt 1 discriminator 8 view .LVU2084
 527:lvgl/src/extra/themes/default/lv_theme_default.c ****     lv_style_set_pad_gap(&styles->list_bg, 0);
 6896              		.loc 1 527 33 is_stmt 0 discriminator 8 view .LVU2085
 6897 1306 0F4C     		ldr	r4, .L585+4
 6898 1308 2568     		ldr	r5, [r4]
 527:lvgl/src/extra/themes/default/lv_theme_default.c ****     lv_style_set_pad_gap(&styles->list_bg, 0);
 6899              		.loc 1 527 5 discriminator 8 view .LVU2086
 6900 130a 05F5D475 		add	r5, r5, #424
 6901              	.LVL752:
 6902              	.LBB641:
 6903              	.LBI641:
 437:lvgl/src/extra/themes/default/../../../../src/core/../misc/lv_style.h ****     lv_style_set_pad_top(style, value);
 6904              		.loc 4 437 20 is_stmt 1 discriminator 8 view .LVU2087
 6905              	.LBB642:
 438:lvgl/src/extra/themes/default/../../../../src/core/../misc/lv_style.h ****     lv_style_set_pad_bottom(style, value);
 6906              		.loc 4 438 5 discriminator 8 view .LVU2088
 6907 130e 0021     		movs	r1, #0
 6908 1310 2846     		mov	r0, r5
 6909 1312 FFF7FEFF 		bl	lv_style_set_pad_top
 6910              	.LVL753:
 439:lvgl/src/extra/themes/default/../../../../src/core/../misc/lv_style.h **** }
 6911              		.loc 4 439 5 discriminator 8 view .LVU2089
 6912 1316 0021     		movs	r1, #0
 6913 1318 2846     		mov	r0, r5
 6914 131a FFF7FEFF 		bl	lv_style_set_pad_bottom
 6915              	.LVL754:
 439:lvgl/src/extra/themes/default/../../../../src/core/../misc/lv_style.h **** }
 6916              		.loc 4 439 5 is_stmt 0 discriminator 8 view .LVU2090
 6917              	.LBE642:
 6918              	.LBE641:
ARM GAS  /var/folders/k2/cd9bl_j17z77g23y6ffqb_400000gn/T//ccRoPncs.s 			page 200


 528:lvgl/src/extra/themes/default/lv_theme_default.c ****     lv_style_set_clip_corner(&styles->list_bg, true);
 6919              		.loc 1 528 5 is_stmt 1 discriminator 8 view .LVU2091
 528:lvgl/src/extra/themes/default/lv_theme_default.c ****     lv_style_set_clip_corner(&styles->list_bg, true);
 6920              		.loc 1 528 33 is_stmt 0 discriminator 8 view .LVU2092
 6921 131e 2568     		ldr	r5, [r4]
 528:lvgl/src/extra/themes/default/lv_theme_default.c ****     lv_style_set_clip_corner(&styles->list_bg, true);
 6922              		.loc 1 528 5 discriminator 8 view .LVU2093
 6923 1320 05F5D475 		add	r5, r5, #424
 6924              	.LVL755:
 6925              	.LBB643:
 6926              	.LBI643:
 442:lvgl/src/extra/themes/default/../../../../src/core/../misc/lv_style.h ****     lv_style_set_pad_row(style, value);
 6927              		.loc 4 442 20 is_stmt 1 discriminator 8 view .LVU2094
 6928              	.LBB644:
 443:lvgl/src/extra/themes/default/../../../../src/core/../misc/lv_style.h ****     lv_style_set_pad_column(style, value);
 6929              		.loc 4 443 5 discriminator 8 view .LVU2095
 6930 1324 0021     		movs	r1, #0
 6931 1326 2846     		mov	r0, r5
 6932 1328 FFF7FEFF 		bl	lv_style_set_pad_row
 6933              	.LVL756:
 444:lvgl/src/extra/themes/default/../../../../src/core/../misc/lv_style.h **** }
 6934              		.loc 4 444 5 discriminator 8 view .LVU2096
 6935 132c 0021     		movs	r1, #0
 6936 132e 2846     		mov	r0, r5
 6937 1330 FFF7FEFF 		bl	lv_style_set_pad_column
 6938              	.LVL757:
 444:lvgl/src/extra/themes/default/../../../../src/core/../misc/lv_style.h **** }
 6939              		.loc 4 444 5 is_stmt 0 discriminator 8 view .LVU2097
 6940              	.LBE644:
 6941              	.LBE643:
 529:lvgl/src/extra/themes/default/lv_theme_default.c **** 
 6942              		.loc 1 529 5 is_stmt 1 discriminator 8 view .LVU2098
 529:lvgl/src/extra/themes/default/lv_theme_default.c **** 
 6943              		.loc 1 529 37 is_stmt 0 discriminator 8 view .LVU2099
 6944 1334 2068     		ldr	r0, [r4]
 529:lvgl/src/extra/themes/default/lv_theme_default.c **** 
 6945              		.loc 1 529 5 discriminator 8 view .LVU2100
 6946 1336 0121     		movs	r1, #1
 6947 1338 00F5D470 		add	r0, r0, #424
 6948 133c 0AE0     		b	.L586
 6949              	.L587:
 6950 133e 00BF     		.align	2
 6951              	.L585:
 6952 1340 00000000 		.word	.LANCHOR3
 6953 1344 00000000 		.word	.LANCHOR0
 6954 1348 00000000 		.word	.LANCHOR1
 6955 134c 00000000 		.word	.LANCHOR7
 6956 1350 00000000 		.word	.LANCHOR6
 6957              	.L586:
 6958 1354 FFF7FEFF 		bl	lv_style_set_clip_corner
 6959              	.LVL758:
 531:lvgl/src/extra/themes/default/lv_theme_default.c ****     lv_style_set_border_width(&styles->list_btn, lv_disp_dpx(theme.disp, 1));
 6960              		.loc 1 531 5 is_stmt 1 discriminator 8 view .LVU2101
 531:lvgl/src/extra/themes/default/lv_theme_default.c ****     lv_style_set_border_width(&styles->list_btn, lv_disp_dpx(theme.disp, 1));
 6961              		.loc 1 531 29 is_stmt 0 discriminator 8 view .LVU2102
 6962 1358 2068     		ldr	r0, [r4]
 531:lvgl/src/extra/themes/default/lv_theme_default.c ****     lv_style_set_border_width(&styles->list_btn, lv_disp_dpx(theme.disp, 1));
ARM GAS  /var/folders/k2/cd9bl_j17z77g23y6ffqb_400000gn/T//ccRoPncs.s 			page 201


 6963              		.loc 1 531 5 discriminator 8 view .LVU2103
 6964 135a 00F5D870 		add	r0, r0, #432
 6965 135e FFF7FEFF 		bl	style_init_reset
 6966              	.LVL759:
 532:lvgl/src/extra/themes/default/lv_theme_default.c ****     lv_style_set_border_color(&styles->list_btn, color_grey);
 6967              		.loc 1 532 5 is_stmt 1 discriminator 8 view .LVU2104
 532:lvgl/src/extra/themes/default/lv_theme_default.c ****     lv_style_set_border_color(&styles->list_btn, color_grey);
 6968              		.loc 1 532 38 is_stmt 0 discriminator 8 view .LVU2105
 6969 1362 2468     		ldr	r4, [r4]
 532:lvgl/src/extra/themes/default/lv_theme_default.c ****     lv_style_set_border_color(&styles->list_btn, color_grey);
 6970              		.loc 1 532 5 discriminator 8 view .LVU2106
 6971 1364 04F5D874 		add	r4, r4, #432
 532:lvgl/src/extra/themes/default/lv_theme_default.c ****     lv_style_set_border_color(&styles->list_btn, color_grey);
 6972              		.loc 1 532 67 discriminator 8 view .LVU2107
 6973 1368 C84B     		ldr	r3, .L588
 6974 136a DD68     		ldr	r5, [r3, #12]
 6975              	.LVL760:
 6976              	.LBB645:
 6977              	.LBI645:
 236:lvgl/src/extra/themes/default/../../../../src/core/lv_disp.h **** {
 6978              		.loc 3 236 26 is_stmt 1 discriminator 8 view .LVU2108
 6979              	.LBB646:
 6980              		.loc 3 238 5 discriminator 8 view .LVU2109
 6981              		.loc 3 238 12 is_stmt 0 discriminator 8 view .LVU2110
 6982 136c 2846     		mov	r0, r5
 6983 136e FFF7FEFF 		bl	lv_disp_get_dpi
 6984              	.LVL761:
 6985 1372 EF28     		cmp	r0, #239
 6986 1374 01F3B281 		bgt	.L507
 6987              		.loc 3 238 12 view .LVU2111
 6988 1378 0121     		movs	r1, #1
 6989              	.L262:
 6990              	.LVL762:
 6991              		.loc 3 238 12 view .LVU2112
 6992              	.LBE646:
 6993              	.LBE645:
 532:lvgl/src/extra/themes/default/lv_theme_default.c ****     lv_style_set_border_color(&styles->list_btn, color_grey);
 6994              		.loc 1 532 5 view .LVU2113
 6995 137a 2046     		mov	r0, r4
 6996 137c FFF7FEFF 		bl	lv_style_set_border_width
 6997              	.LVL763:
 533:lvgl/src/extra/themes/default/lv_theme_default.c ****     lv_style_set_border_side(&styles->list_btn, LV_BORDER_SIDE_BOTTOM);
 6998              		.loc 1 533 5 is_stmt 1 view .LVU2114
 533:lvgl/src/extra/themes/default/lv_theme_default.c ****     lv_style_set_border_side(&styles->list_btn, LV_BORDER_SIDE_BOTTOM);
 6999              		.loc 1 533 38 is_stmt 0 view .LVU2115
 7000 1380 C34C     		ldr	r4, .L588+4
 7001 1382 2068     		ldr	r0, [r4]
 533:lvgl/src/extra/themes/default/lv_theme_default.c ****     lv_style_set_border_side(&styles->list_btn, LV_BORDER_SIDE_BOTTOM);
 7002              		.loc 1 533 5 view .LVU2116
 7003 1384 C34B     		ldr	r3, .L588+8
 7004 1386 1968     		ldr	r1, [r3]
 7005 1388 00F5D870 		add	r0, r0, #432
 7006 138c FFF7FEFF 		bl	lv_style_set_border_color
 7007              	.LVL764:
 534:lvgl/src/extra/themes/default/lv_theme_default.c ****     lv_style_set_pad_all(&styles->list_btn, PAD_SMALL);
 7008              		.loc 1 534 5 is_stmt 1 view .LVU2117
 534:lvgl/src/extra/themes/default/lv_theme_default.c ****     lv_style_set_pad_all(&styles->list_btn, PAD_SMALL);
ARM GAS  /var/folders/k2/cd9bl_j17z77g23y6ffqb_400000gn/T//ccRoPncs.s 			page 202


 7009              		.loc 1 534 37 is_stmt 0 view .LVU2118
 7010 1390 2068     		ldr	r0, [r4]
 534:lvgl/src/extra/themes/default/lv_theme_default.c ****     lv_style_set_pad_all(&styles->list_btn, PAD_SMALL);
 7011              		.loc 1 534 5 view .LVU2119
 7012 1392 0121     		movs	r1, #1
 7013 1394 00F5D870 		add	r0, r0, #432
 7014 1398 FFF7FEFF 		bl	lv_style_set_border_side
 7015              	.LVL765:
 535:lvgl/src/extra/themes/default/lv_theme_default.c ****     lv_style_set_pad_column(&styles->list_btn, PAD_SMALL);
 7016              		.loc 1 535 5 is_stmt 1 view .LVU2120
 535:lvgl/src/extra/themes/default/lv_theme_default.c ****     lv_style_set_pad_column(&styles->list_btn, PAD_SMALL);
 7017              		.loc 1 535 33 is_stmt 0 view .LVU2121
 7018 139c 2568     		ldr	r5, [r4]
 535:lvgl/src/extra/themes/default/lv_theme_default.c ****     lv_style_set_pad_column(&styles->list_btn, PAD_SMALL);
 7019              		.loc 1 535 5 view .LVU2122
 7020 139e 05F5D875 		add	r5, r5, #432
 535:lvgl/src/extra/themes/default/lv_theme_default.c ****     lv_style_set_pad_column(&styles->list_btn, PAD_SMALL);
 7021              		.loc 1 535 45 view .LVU2123
 7022 13a2 BD4B     		ldr	r3, .L588+12
 7023 13a4 1B78     		ldrb	r3, [r3]	@ zero_extendqisi2
 535:lvgl/src/extra/themes/default/lv_theme_default.c ****     lv_style_set_pad_column(&styles->list_btn, PAD_SMALL);
 7024              		.loc 1 535 5 view .LVU2124
 7025 13a6 012B     		cmp	r3, #1
 7026 13a8 01F0A581 		beq	.L508
 535:lvgl/src/extra/themes/default/lv_theme_default.c ****     lv_style_set_pad_column(&styles->list_btn, PAD_SMALL);
 7027              		.loc 1 535 5 discriminator 2 view .LVU2125
 7028 13ac 022B     		cmp	r3, #2
 7029 13ae 01F0BF81 		beq	.L509
 535:lvgl/src/extra/themes/default/lv_theme_default.c ****     lv_style_set_pad_column(&styles->list_btn, PAD_SMALL);
 7030              		.loc 1 535 45 discriminator 5 view .LVU2126
 7031 13b2 B64B     		ldr	r3, .L588
 7032 13b4 DC68     		ldr	r4, [r3, #12]
 7033              	.LVL766:
 7034              	.LBB648:
 7035              	.LBI648:
 236:lvgl/src/extra/themes/default/../../../../src/core/lv_disp.h **** {
 7036              		.loc 3 236 26 is_stmt 1 discriminator 5 view .LVU2127
 7037              	.LBB649:
 7038              		.loc 3 238 5 discriminator 5 view .LVU2128
 7039              		.loc 3 238 12 is_stmt 0 discriminator 5 view .LVU2129
 7040 13b6 2046     		mov	r0, r4
 7041 13b8 FFF7FEFF 		bl	lv_disp_get_dpi
 7042              	.LVL767:
 7043 13bc 00EB8000 		add	r0, r0, r0, lsl #2
 7044 13c0 4000     		lsls	r0, r0, #1
 7045 13c2 EF28     		cmp	r0, #239
 7046 13c4 01F3D181 		bgt	.L510
 7047              		.loc 3 238 12 view .LVU2130
 7048 13c8 0124     		movs	r4, #1
 7049              	.LVL768:
 7050              	.L265:
 7051              		.loc 3 238 12 view .LVU2131
 7052              	.LBE649:
 7053              	.LBE648:
 7054              	.LBB651:
 7055              	.LBI651:
 425:lvgl/src/extra/themes/default/../../../../src/core/../misc/lv_style.h ****     lv_style_set_pad_left(style, value);
ARM GAS  /var/folders/k2/cd9bl_j17z77g23y6ffqb_400000gn/T//ccRoPncs.s 			page 203


 7056              		.loc 4 425 20 is_stmt 1 discriminator 8 view .LVU2132
 7057              	.LBB652:
 426:lvgl/src/extra/themes/default/../../../../src/core/../misc/lv_style.h ****     lv_style_set_pad_right(style, value);
 7058              		.loc 4 426 5 discriminator 8 view .LVU2133
 7059 13ca 2146     		mov	r1, r4
 7060 13cc 2846     		mov	r0, r5
 7061 13ce FFF7FEFF 		bl	lv_style_set_pad_left
 7062              	.LVL769:
 427:lvgl/src/extra/themes/default/../../../../src/core/../misc/lv_style.h ****     lv_style_set_pad_top(style, value);
 7063              		.loc 4 427 5 discriminator 8 view .LVU2134
 7064 13d2 2146     		mov	r1, r4
 7065 13d4 2846     		mov	r0, r5
 7066 13d6 FFF7FEFF 		bl	lv_style_set_pad_right
 7067              	.LVL770:
 428:lvgl/src/extra/themes/default/../../../../src/core/../misc/lv_style.h ****     lv_style_set_pad_bottom(style, value);
 7068              		.loc 4 428 5 discriminator 8 view .LVU2135
 7069 13da 2146     		mov	r1, r4
 7070 13dc 2846     		mov	r0, r5
 7071 13de FFF7FEFF 		bl	lv_style_set_pad_top
 7072              	.LVL771:
 429:lvgl/src/extra/themes/default/../../../../src/core/../misc/lv_style.h **** }
 7073              		.loc 4 429 5 discriminator 8 view .LVU2136
 7074 13e2 2146     		mov	r1, r4
 7075 13e4 2846     		mov	r0, r5
 7076 13e6 FFF7FEFF 		bl	lv_style_set_pad_bottom
 7077              	.LVL772:
 429:lvgl/src/extra/themes/default/../../../../src/core/../misc/lv_style.h **** }
 7078              		.loc 4 429 5 is_stmt 0 discriminator 8 view .LVU2137
 7079              	.LBE652:
 7080              	.LBE651:
 536:lvgl/src/extra/themes/default/lv_theme_default.c **** 
 7081              		.loc 1 536 5 is_stmt 1 discriminator 8 view .LVU2138
 536:lvgl/src/extra/themes/default/lv_theme_default.c **** 
 7082              		.loc 1 536 36 is_stmt 0 discriminator 8 view .LVU2139
 7083 13ea A94B     		ldr	r3, .L588+4
 7084 13ec 1C68     		ldr	r4, [r3]
 536:lvgl/src/extra/themes/default/lv_theme_default.c **** 
 7085              		.loc 1 536 5 discriminator 8 view .LVU2140
 7086 13ee 04F5D874 		add	r4, r4, #432
 536:lvgl/src/extra/themes/default/lv_theme_default.c **** 
 7087              		.loc 1 536 48 discriminator 8 view .LVU2141
 7088 13f2 A94B     		ldr	r3, .L588+12
 7089 13f4 1B78     		ldrb	r3, [r3]	@ zero_extendqisi2
 536:lvgl/src/extra/themes/default/lv_theme_default.c **** 
 7090              		.loc 1 536 5 discriminator 8 view .LVU2142
 7091 13f6 012B     		cmp	r3, #1
 7092 13f8 01F0CC81 		beq	.L511
 536:lvgl/src/extra/themes/default/lv_theme_default.c **** 
 7093              		.loc 1 536 5 discriminator 2 view .LVU2143
 7094 13fc 022B     		cmp	r3, #2
 7095 13fe 01F0E681 		beq	.L512
 536:lvgl/src/extra/themes/default/lv_theme_default.c **** 
 7096              		.loc 1 536 48 discriminator 5 view .LVU2144
 7097 1402 A24B     		ldr	r3, .L588
 7098 1404 DD68     		ldr	r5, [r3, #12]
 7099              	.LVL773:
 7100              	.LBB653:
ARM GAS  /var/folders/k2/cd9bl_j17z77g23y6ffqb_400000gn/T//ccRoPncs.s 			page 204


 7101              	.LBI653:
 236:lvgl/src/extra/themes/default/../../../../src/core/lv_disp.h **** {
 7102              		.loc 3 236 26 is_stmt 1 discriminator 5 view .LVU2145
 7103              	.LBB654:
 7104              		.loc 3 238 5 discriminator 5 view .LVU2146
 7105              		.loc 3 238 12 is_stmt 0 discriminator 5 view .LVU2147
 7106 1406 2846     		mov	r0, r5
 7107 1408 FFF7FEFF 		bl	lv_disp_get_dpi
 7108              	.LVL774:
 7109 140c 00EB8000 		add	r0, r0, r0, lsl #2
 7110 1410 4000     		lsls	r0, r0, #1
 7111 1412 EF28     		cmp	r0, #239
 7112 1414 01F3F881 		bgt	.L513
 7113              		.loc 3 238 12 view .LVU2148
 7114 1418 0121     		movs	r1, #1
 7115              	.LVL775:
 7116              	.L271:
 7117              		.loc 3 238 12 view .LVU2149
 7118              	.LBE654:
 7119              	.LBE653:
 536:lvgl/src/extra/themes/default/lv_theme_default.c **** 
 7120              		.loc 1 536 5 discriminator 8 view .LVU2150
 7121 141a 2046     		mov	r0, r4
 7122 141c FFF7FEFF 		bl	lv_style_set_pad_column
 7123              	.LVL776:
 538:lvgl/src/extra/themes/default/lv_theme_default.c ****     lv_style_set_transform_width(&styles->list_item_grow, PAD_DEF);
 7124              		.loc 1 538 5 is_stmt 1 discriminator 8 view .LVU2151
 538:lvgl/src/extra/themes/default/lv_theme_default.c ****     lv_style_set_transform_width(&styles->list_item_grow, PAD_DEF);
 7125              		.loc 1 538 29 is_stmt 0 discriminator 8 view .LVU2152
 7126 1420 9B4C     		ldr	r4, .L588+4
 7127 1422 2068     		ldr	r0, [r4]
 538:lvgl/src/extra/themes/default/lv_theme_default.c ****     lv_style_set_transform_width(&styles->list_item_grow, PAD_DEF);
 7128              		.loc 1 538 5 discriminator 8 view .LVU2153
 7129 1424 00F5DC70 		add	r0, r0, #440
 7130 1428 FFF7FEFF 		bl	style_init_reset
 7131              	.LVL777:
 539:lvgl/src/extra/themes/default/lv_theme_default.c **** #endif
 7132              		.loc 1 539 5 is_stmt 1 discriminator 8 view .LVU2154
 539:lvgl/src/extra/themes/default/lv_theme_default.c **** #endif
 7133              		.loc 1 539 41 is_stmt 0 discriminator 8 view .LVU2155
 7134 142c 2468     		ldr	r4, [r4]
 539:lvgl/src/extra/themes/default/lv_theme_default.c **** #endif
 7135              		.loc 1 539 5 discriminator 8 view .LVU2156
 7136 142e 04F5DC74 		add	r4, r4, #440
 539:lvgl/src/extra/themes/default/lv_theme_default.c **** #endif
 7137              		.loc 1 539 59 discriminator 8 view .LVU2157
 7138 1432 994B     		ldr	r3, .L588+12
 7139 1434 1B78     		ldrb	r3, [r3]	@ zero_extendqisi2
 539:lvgl/src/extra/themes/default/lv_theme_default.c **** #endif
 7140              		.loc 1 539 5 discriminator 8 view .LVU2158
 7141 1436 012B     		cmp	r3, #1
 7142 1438 01F0F681 		beq	.L514
 539:lvgl/src/extra/themes/default/lv_theme_default.c **** #endif
 7143              		.loc 1 539 5 discriminator 2 view .LVU2159
 7144 143c 022B     		cmp	r3, #2
 7145 143e 01F01082 		beq	.L515
 539:lvgl/src/extra/themes/default/lv_theme_default.c **** #endif
ARM GAS  /var/folders/k2/cd9bl_j17z77g23y6ffqb_400000gn/T//ccRoPncs.s 			page 205


 7146              		.loc 1 539 59 discriminator 5 view .LVU2160
 7147 1442 924B     		ldr	r3, .L588
 7148 1444 DD68     		ldr	r5, [r3, #12]
 7149              	.LVL778:
 7150              	.LBB656:
 7151              	.LBI656:
 236:lvgl/src/extra/themes/default/../../../../src/core/lv_disp.h **** {
 7152              		.loc 3 236 26 is_stmt 1 discriminator 5 view .LVU2161
 7153              	.LBB657:
 7154              		.loc 3 238 5 discriminator 5 view .LVU2162
 7155              		.loc 3 238 12 is_stmt 0 discriminator 5 view .LVU2163
 7156 1446 2846     		mov	r0, r5
 7157 1448 FFF7FEFF 		bl	lv_disp_get_dpi
 7158              	.LVL779:
 7159 144c 0001     		lsls	r0, r0, #4
 7160 144e EF28     		cmp	r0, #239
 7161 1450 01F32482 		bgt	.L516
 7162              		.loc 3 238 12 view .LVU2164
 7163 1454 0121     		movs	r1, #1
 7164              	.LVL780:
 7165              	.L277:
 7166              		.loc 3 238 12 view .LVU2165
 7167              	.LBE657:
 7168              	.LBE656:
 539:lvgl/src/extra/themes/default/lv_theme_default.c **** #endif
 7169              		.loc 1 539 5 discriminator 8 view .LVU2166
 7170 1456 2046     		mov	r0, r4
 7171 1458 FFF7FEFF 		bl	lv_style_set_transform_width
 7172              	.LVL781:
 544:lvgl/src/extra/themes/default/lv_theme_default.c ****     lv_style_set_bg_opa(&styles->led, LV_OPA_COVER);
 7173              		.loc 1 544 5 is_stmt 1 discriminator 8 view .LVU2167
 544:lvgl/src/extra/themes/default/lv_theme_default.c ****     lv_style_set_bg_opa(&styles->led, LV_OPA_COVER);
 7174              		.loc 1 544 29 is_stmt 0 discriminator 8 view .LVU2168
 7175 145c 8C4C     		ldr	r4, .L588+4
 7176 145e 2068     		ldr	r0, [r4]
 544:lvgl/src/extra/themes/default/lv_theme_default.c ****     lv_style_set_bg_opa(&styles->led, LV_OPA_COVER);
 7177              		.loc 1 544 5 discriminator 8 view .LVU2169
 7178 1460 00F5EC70 		add	r0, r0, #472
 7179 1464 FFF7FEFF 		bl	style_init_reset
 7180              	.LVL782:
 545:lvgl/src/extra/themes/default/lv_theme_default.c ****     lv_style_set_bg_color(&styles->led, lv_color_white());
 7181              		.loc 1 545 5 is_stmt 1 discriminator 8 view .LVU2170
 545:lvgl/src/extra/themes/default/lv_theme_default.c ****     lv_style_set_bg_color(&styles->led, lv_color_white());
 7182              		.loc 1 545 32 is_stmt 0 discriminator 8 view .LVU2171
 7183 1468 2068     		ldr	r0, [r4]
 545:lvgl/src/extra/themes/default/lv_theme_default.c ****     lv_style_set_bg_color(&styles->led, lv_color_white());
 7184              		.loc 1 545 5 discriminator 8 view .LVU2172
 7185 146a FF21     		movs	r1, #255
 7186 146c 00F5EC70 		add	r0, r0, #472
 7187 1470 FFF7FEFF 		bl	lv_style_set_bg_opa
 7188              	.LVL783:
 546:lvgl/src/extra/themes/default/lv_theme_default.c ****     lv_style_set_bg_grad_color(&styles->led, lv_palette_main(LV_PALETTE_GREY));
 7189              		.loc 1 546 5 is_stmt 1 discriminator 8 view .LVU2173
 546:lvgl/src/extra/themes/default/lv_theme_default.c ****     lv_style_set_bg_grad_color(&styles->led, lv_palette_main(LV_PALETTE_GREY));
 7190              		.loc 1 546 34 is_stmt 0 discriminator 8 view .LVU2174
 7191 1474 2068     		ldr	r0, [r4]
 7192              	.LBB659:
ARM GAS  /var/folders/k2/cd9bl_j17z77g23y6ffqb_400000gn/T//ccRoPncs.s 			page 206


 7193              	.LBI659:
 7194              		.loc 2 674 26 is_stmt 1 discriminator 8 view .LVU2175
 7195              	.LBE659:
 7196              		.loc 2 674 49 discriminator 8 view .LVU2176
 7197              	.LVL784:
 7198              	.LBB662:
 7199              	.LBB660:
 7200              	.LBI660:
 602:lvgl/src/extra/themes/default/../../../../src/hal/../misc/lv_color.h **** {
 7201              		.loc 2 602 26 discriminator 8 view .LVU2177
 7202              	.LBB661:
 604:lvgl/src/extra/themes/default/../../../../src/hal/../misc/lv_color.h **** }
 7203              		.loc 2 604 5 discriminator 8 view .LVU2178
 604:lvgl/src/extra/themes/default/../../../../src/hal/../misc/lv_color.h **** }
 7204              		.loc 2 604 5 is_stmt 0 discriminator 8 view .LVU2179
 7205              	.LBE661:
 7206              	.LBE660:
 7207              	.LBE662:
 546:lvgl/src/extra/themes/default/lv_theme_default.c ****     lv_style_set_bg_grad_color(&styles->led, lv_palette_main(LV_PALETTE_GREY));
 7208              		.loc 1 546 5 discriminator 8 view .LVU2180
 7209 1476 4FF0FF31 		mov	r1, #-1
 7210 147a 00F5EC70 		add	r0, r0, #472
 7211 147e FFF7FEFF 		bl	lv_style_set_bg_color
 7212              	.LVL785:
 547:lvgl/src/extra/themes/default/lv_theme_default.c ****     lv_style_set_radius(&styles->led, LV_RADIUS_CIRCLE);
 7213              		.loc 1 547 5 is_stmt 1 discriminator 8 view .LVU2181
 547:lvgl/src/extra/themes/default/lv_theme_default.c ****     lv_style_set_radius(&styles->led, LV_RADIUS_CIRCLE);
 7214              		.loc 1 547 39 is_stmt 0 discriminator 8 view .LVU2182
 7215 1482 2568     		ldr	r5, [r4]
 547:lvgl/src/extra/themes/default/lv_theme_default.c ****     lv_style_set_radius(&styles->led, LV_RADIUS_CIRCLE);
 7216              		.loc 1 547 5 discriminator 8 view .LVU2183
 7217 1484 1220     		movs	r0, #18
 7218 1486 FFF7FEFF 		bl	lv_palette_main
 7219              	.LVL786:
 7220 148a 0146     		mov	r1, r0
 7221 148c 05F5EC70 		add	r0, r5, #472
 7222 1490 FFF7FEFF 		bl	lv_style_set_bg_grad_color
 7223              	.LVL787:
 548:lvgl/src/extra/themes/default/lv_theme_default.c ****     lv_style_set_shadow_width(&styles->led, lv_disp_dpx(theme.disp, 15));
 7224              		.loc 1 548 5 is_stmt 1 discriminator 8 view .LVU2184
 548:lvgl/src/extra/themes/default/lv_theme_default.c ****     lv_style_set_shadow_width(&styles->led, lv_disp_dpx(theme.disp, 15));
 7225              		.loc 1 548 32 is_stmt 0 discriminator 8 view .LVU2185
 7226 1494 2068     		ldr	r0, [r4]
 548:lvgl/src/extra/themes/default/lv_theme_default.c ****     lv_style_set_shadow_width(&styles->led, lv_disp_dpx(theme.disp, 15));
 7227              		.loc 1 548 5 discriminator 8 view .LVU2186
 7228 1496 47F6FF71 		movw	r1, #32767
 7229 149a 00F5EC70 		add	r0, r0, #472
 7230 149e FFF7FEFF 		bl	lv_style_set_radius
 7231              	.LVL788:
 549:lvgl/src/extra/themes/default/lv_theme_default.c ****     lv_style_set_shadow_color(&styles->led, lv_color_white());
 7232              		.loc 1 549 5 is_stmt 1 discriminator 8 view .LVU2187
 549:lvgl/src/extra/themes/default/lv_theme_default.c ****     lv_style_set_shadow_color(&styles->led, lv_color_white());
 7233              		.loc 1 549 38 is_stmt 0 discriminator 8 view .LVU2188
 7234 14a2 2468     		ldr	r4, [r4]
 549:lvgl/src/extra/themes/default/lv_theme_default.c ****     lv_style_set_shadow_color(&styles->led, lv_color_white());
 7235              		.loc 1 549 5 discriminator 8 view .LVU2189
 7236 14a4 04F5EC74 		add	r4, r4, #472
ARM GAS  /var/folders/k2/cd9bl_j17z77g23y6ffqb_400000gn/T//ccRoPncs.s 			page 207


 549:lvgl/src/extra/themes/default/lv_theme_default.c ****     lv_style_set_shadow_color(&styles->led, lv_color_white());
 7237              		.loc 1 549 62 discriminator 8 view .LVU2190
 7238 14a8 784B     		ldr	r3, .L588
 7239 14aa DD68     		ldr	r5, [r3, #12]
 7240              	.LVL789:
 7241              	.LBB663:
 7242              	.LBI663:
 236:lvgl/src/extra/themes/default/../../../../src/core/lv_disp.h **** {
 7243              		.loc 3 236 26 is_stmt 1 discriminator 8 view .LVU2191
 7244              	.LBB664:
 7245              		.loc 3 238 5 discriminator 8 view .LVU2192
 7246              		.loc 3 238 12 is_stmt 0 discriminator 8 view .LVU2193
 7247 14ac 2846     		mov	r0, r5
 7248 14ae FFF7FEFF 		bl	lv_disp_get_dpi
 7249              	.LVL790:
 7250 14b2 C0EB0010 		rsb	r0, r0, r0, lsl #4
 7251 14b6 EF28     		cmp	r0, #239
 7252 14b8 01F3FE81 		bgt	.L517
 7253              		.loc 3 238 12 view .LVU2194
 7254 14bc 0121     		movs	r1, #1
 7255              	.L281:
 7256              	.LVL791:
 7257              		.loc 3 238 12 view .LVU2195
 7258              	.LBE664:
 7259              	.LBE663:
 549:lvgl/src/extra/themes/default/lv_theme_default.c ****     lv_style_set_shadow_color(&styles->led, lv_color_white());
 7260              		.loc 1 549 5 view .LVU2196
 7261 14be 2046     		mov	r0, r4
 7262 14c0 FFF7FEFF 		bl	lv_style_set_shadow_width
 7263              	.LVL792:
 550:lvgl/src/extra/themes/default/lv_theme_default.c ****     lv_style_set_shadow_spread(&styles->led, lv_disp_dpx(theme.disp, 5));
 7264              		.loc 1 550 5 is_stmt 1 view .LVU2197
 550:lvgl/src/extra/themes/default/lv_theme_default.c ****     lv_style_set_shadow_spread(&styles->led, lv_disp_dpx(theme.disp, 5));
 7265              		.loc 1 550 38 is_stmt 0 view .LVU2198
 7266 14c4 724C     		ldr	r4, .L588+4
 7267 14c6 2068     		ldr	r0, [r4]
 7268              	.LBB666:
 7269              	.LBI666:
 7270              		.loc 2 674 26 is_stmt 1 view .LVU2199
 7271              	.LBE666:
 7272              		.loc 2 674 49 view .LVU2200
 7273              	.LVL793:
 7274              	.LBB669:
 7275              	.LBB667:
 7276              	.LBI667:
 602:lvgl/src/extra/themes/default/../../../../src/hal/../misc/lv_color.h **** {
 7277              		.loc 2 602 26 view .LVU2201
 7278              	.LBB668:
 604:lvgl/src/extra/themes/default/../../../../src/hal/../misc/lv_color.h **** }
 7279              		.loc 2 604 5 view .LVU2202
 604:lvgl/src/extra/themes/default/../../../../src/hal/../misc/lv_color.h **** }
 7280              		.loc 2 604 5 is_stmt 0 view .LVU2203
 7281              	.LBE668:
 7282              	.LBE667:
 7283              	.LBE669:
 550:lvgl/src/extra/themes/default/lv_theme_default.c ****     lv_style_set_shadow_spread(&styles->led, lv_disp_dpx(theme.disp, 5));
 7284              		.loc 1 550 5 view .LVU2204
ARM GAS  /var/folders/k2/cd9bl_j17z77g23y6ffqb_400000gn/T//ccRoPncs.s 			page 208


 7285 14c8 4FF0FF31 		mov	r1, #-1
 7286 14cc 00F5EC70 		add	r0, r0, #472
 7287 14d0 FFF7FEFF 		bl	lv_style_set_shadow_color
 7288              	.LVL794:
 551:lvgl/src/extra/themes/default/lv_theme_default.c **** #endif
 7289              		.loc 1 551 5 is_stmt 1 view .LVU2205
 551:lvgl/src/extra/themes/default/lv_theme_default.c **** #endif
 7290              		.loc 1 551 39 is_stmt 0 view .LVU2206
 7291 14d4 2468     		ldr	r4, [r4]
 551:lvgl/src/extra/themes/default/lv_theme_default.c **** #endif
 7292              		.loc 1 551 5 view .LVU2207
 7293 14d6 04F5EC74 		add	r4, r4, #472
 551:lvgl/src/extra/themes/default/lv_theme_default.c **** #endif
 7294              		.loc 1 551 63 view .LVU2208
 7295 14da 6C4B     		ldr	r3, .L588
 7296 14dc DD68     		ldr	r5, [r3, #12]
 7297              	.LVL795:
 7298              	.LBB670:
 7299              	.LBI670:
 236:lvgl/src/extra/themes/default/../../../../src/core/lv_disp.h **** {
 7300              		.loc 3 236 26 is_stmt 1 view .LVU2209
 7301              	.LBB671:
 7302              		.loc 3 238 5 view .LVU2210
 7303              		.loc 3 238 12 is_stmt 0 view .LVU2211
 7304 14de 2846     		mov	r0, r5
 7305 14e0 FFF7FEFF 		bl	lv_disp_get_dpi
 7306              	.LVL796:
 7307 14e4 00EB8000 		add	r0, r0, r0, lsl #2
 7308 14e8 EF28     		cmp	r0, #239
 7309 14ea 01F3F581 		bgt	.L518
 7310 14ee 0121     		movs	r1, #1
 7311              	.L282:
 7312              	.LVL797:
 7313              		.loc 3 238 12 view .LVU2212
 7314              	.LBE671:
 7315              	.LBE670:
 551:lvgl/src/extra/themes/default/lv_theme_default.c **** #endif
 7316              		.loc 1 551 5 view .LVU2213
 7317 14f0 2046     		mov	r0, r4
 7318 14f2 FFF7FEFF 		bl	lv_style_set_shadow_spread
 7319              	.LVL798:
 553:lvgl/src/extra/themes/default/lv_theme_default.c **** 
 7320              		.loc 1 553 1 view .LVU2214
 7321 14f6 02B0     		add	sp, sp, #8
 7322              	.LCFI6:
 7323              		.cfi_remember_state
 7324              		.cfi_def_cfa_offset 24
 7325              		@ sp needed
 7326 14f8 BDE8F081 		pop	{r4, r5, r6, r7, r8, pc}
 7327              	.L78:
 7328              	.LCFI7:
 7329              		.cfi_restore_state
 210:lvgl/src/extra/themes/default/lv_theme_default.c ****     color_text = theme.flags & MODE_DARK ? DARK_COLOR_TEXT : LIGHT_COLOR_TEXT;
 7330              		.loc 1 210 60 discriminator 2 view .LVU2215
 7331 14fc 0421     		movs	r1, #4
 7332 14fe 1220     		movs	r0, #18
 7333 1500 FFF7FEFF 		bl	lv_palette_lighten
ARM GAS  /var/folders/k2/cd9bl_j17z77g23y6ffqb_400000gn/T//ccRoPncs.s 			page 209


 7334              	.LVL799:
 7335 1504 654B     		ldr	r3, .L588+16
 7336 1506 1860     		str	r0, [r3]
 7337 1508 FEF791BD 		b	.L79
 7338              	.L80:
 211:lvgl/src/extra/themes/default/lv_theme_default.c ****     color_card = theme.flags & MODE_DARK ? DARK_COLOR_CARD : LIGHT_COLOR_CARD;
 7339              		.loc 1 211 62 discriminator 2 view .LVU2216
 7340 150c 0421     		movs	r1, #4
 7341 150e 1220     		movs	r0, #18
 7342 1510 FFF7FEFF 		bl	lv_palette_darken
 7343              	.LVL800:
 7344 1514 624B     		ldr	r3, .L588+20
 7345 1516 1860     		str	r0, [r3]
 7346 1518 FEF795BD 		b	.L81
 7347              	.L82:
 7348              	.LBB673:
 7349              	.LBI673:
 7350              		.loc 2 674 26 is_stmt 1 view .LVU2217
 7351              	.LBE673:
 7352              		.loc 2 674 49 view .LVU2218
 7353              	.LVL801:
 7354              	.LBB676:
 7355              	.LBB674:
 7356              	.LBI674:
 602:lvgl/src/extra/themes/default/../../../../src/hal/../misc/lv_color.h **** {
 7357              		.loc 2 602 26 view .LVU2219
 7358              	.LBB675:
 604:lvgl/src/extra/themes/default/../../../../src/hal/../misc/lv_color.h **** }
 7359              		.loc 2 604 5 view .LVU2220
 604:lvgl/src/extra/themes/default/../../../../src/hal/../misc/lv_color.h **** }
 7360              		.loc 2 604 5 is_stmt 0 view .LVU2221
 7361              	.LBE675:
 7362              	.LBE674:
 7363              	.LBE676:
 212:lvgl/src/extra/themes/default/lv_theme_default.c ****     color_grey = theme.flags & MODE_DARK ? DARK_COLOR_GREY : LIGHT_COLOR_GREY;
 7364              		.loc 1 212 62 view .LVU2222
 7365 151c 4FF0FF31 		mov	r1, #-1
 7366 1520 604A     		ldr	r2, .L588+24
 7367 1522 1160     		str	r1, [r2]
 7368 1524 FEF7A3BD 		b	.L83
 7369              	.L84:
 213:lvgl/src/extra/themes/default/lv_theme_default.c **** 
 7370              		.loc 1 213 62 discriminator 2 view .LVU2223
 7371 1528 0221     		movs	r1, #2
 7372 152a 1220     		movs	r0, #18
 7373 152c FFF7FEFF 		bl	lv_palette_lighten
 7374              	.LVL802:
 7375 1530 584B     		ldr	r3, .L588+8
 7376 1532 1860     		str	r0, [r3]
 7377 1534 FEF7ACBD 		b	.L85
 7378              	.L86:
 228:lvgl/src/extra/themes/default/lv_theme_default.c ****     lv_style_set_radius(&styles->scrollbar, LV_RADIUS_CIRCLE);
 7379              		.loc 1 228 115 discriminator 2 view .LVU2224
 7380 1538 1220     		movs	r0, #18
 7381 153a FFF7FEFF 		bl	lv_palette_main
 7382              	.LVL803:
 7383 153e 0146     		mov	r1, r0
ARM GAS  /var/folders/k2/cd9bl_j17z77g23y6ffqb_400000gn/T//ccRoPncs.s 			page 210


 7384 1540 FEF7E1BD 		b	.L87
 7385              	.LVL804:
 7386              	.L402:
 7387              	.LBB677:
 7388              	.LBB395:
 7389              		.loc 3 238 12 view .LVU2225
 7390 1544 2846     		mov	r0, r5
 7391 1546 FFF7FEFF 		bl	lv_disp_get_dpi
 7392              	.LVL805:
 7393 154a C0EBC000 		rsb	r0, r0, r0, lsl #3
 7394 154e 00F15003 		add	r3, r0, #80
 7395 1552 554A     		ldr	r2, .L588+28
 7396 1554 82FB0312 		smull	r1, r2, r2, r3
 7397 1558 D917     		asrs	r1, r3, #31
 7398 155a C1EBA211 		rsb	r1, r1, r2, asr #6
 7399 155e 09B2     		sxth	r1, r1
 7400 1560 FEF7E8BD 		b	.L88
 7401              	.LVL806:
 7402              	.L403:
 7403              		.loc 3 238 12 view .LVU2226
 7404              	.LBE395:
 7405              	.LBE677:
 7406              	.LBB678:
 7407              	.LBB398:
 7408 1564 2846     		mov	r0, r5
 7409 1566 FFF7FEFF 		bl	lv_disp_get_dpi
 7410              	.LVL807:
 7411 156a C0EBC000 		rsb	r0, r0, r0, lsl #3
 7412 156e 00F15003 		add	r3, r0, #80
 7413 1572 4D4A     		ldr	r2, .L588+28
 7414 1574 82FB0312 		smull	r1, r2, r2, r3
 7415 1578 D917     		asrs	r1, r3, #31
 7416 157a C1EBA211 		rsb	r1, r1, r2, asr #6
 7417 157e 09B2     		sxth	r1, r1
 7418 1580 FEF7E9BD 		b	.L89
 7419              	.LVL808:
 7420              	.L404:
 7421              		.loc 3 238 12 view .LVU2227
 7422              	.LBE398:
 7423              	.LBE678:
 7424              	.LBB679:
 7425              	.LBB401:
 7426 1584 2046     		mov	r0, r4
 7427 1586 FFF7FEFF 		bl	lv_disp_get_dpi
 7428              	.LVL809:
 7429 158a 00EB8000 		add	r0, r0, r0, lsl #2
 7430 158e 00F15003 		add	r3, r0, #80
 7431 1592 454A     		ldr	r2, .L588+28
 7432 1594 82FB0312 		smull	r1, r2, r2, r3
 7433 1598 DC17     		asrs	r4, r3, #31
 7434              	.LVL810:
 7435              		.loc 3 238 12 view .LVU2228
 7436 159a C4EBA214 		rsb	r4, r4, r2, asr #6
 7437 159e 24B2     		sxth	r4, r4
 7438 15a0 FEF7EABD 		b	.L90
 7439              	.LVL811:
 7440              	.L405:
ARM GAS  /var/folders/k2/cd9bl_j17z77g23y6ffqb_400000gn/T//ccRoPncs.s 			page 211


 7441              		.loc 3 238 12 view .LVU2229
 7442              	.LBE401:
 7443              	.LBE679:
 243:lvgl/src/extra/themes/default/lv_theme_default.c ****     lv_style_set_pad_column(&styles->scr, PAD_SMALL);
 7444              		.loc 1 243 40 discriminator 1 view .LVU2230
 7445 15a4 394B     		ldr	r3, .L588
 7446 15a6 DD68     		ldr	r5, [r3, #12]
 7447              	.LVL812:
 7448              	.LBB680:
 7449              	.LBI680:
 236:lvgl/src/extra/themes/default/../../../../src/core/lv_disp.h **** {
 7450              		.loc 3 236 26 is_stmt 1 discriminator 1 view .LVU2231
 7451              	.LBB681:
 7452              		.loc 3 238 5 discriminator 1 view .LVU2232
 7453              		.loc 3 238 12 is_stmt 0 discriminator 1 view .LVU2233
 7454 15a8 2846     		mov	r0, r5
 7455 15aa FFF7FEFF 		bl	lv_disp_get_dpi
 7456              	.LVL813:
 7457 15ae C0EBC000 		rsb	r0, r0, r0, lsl #3
 7458 15b2 4000     		lsls	r0, r0, #1
 7459 15b4 EF28     		cmp	r0, #239
 7460 15b6 02DC     		bgt	.L519
 7461              		.loc 3 238 12 view .LVU2234
 7462 15b8 0121     		movs	r1, #1
 7463              	.LVL814:
 7464              		.loc 3 238 12 view .LVU2235
 7465 15ba FEF71FBE 		b	.L93
 7466              	.LVL815:
 7467              	.L519:
 7468              		.loc 3 238 12 view .LVU2236
 7469 15be 2846     		mov	r0, r5
 7470 15c0 FFF7FEFF 		bl	lv_disp_get_dpi
 7471              	.LVL816:
 7472 15c4 C0EBC000 		rsb	r0, r0, r0, lsl #3
 7473 15c8 4300     		lsls	r3, r0, #1
 7474 15ca 5033     		adds	r3, r3, #80
 7475 15cc 364A     		ldr	r2, .L588+28
 7476 15ce 82FB0312 		smull	r1, r2, r2, r3
 7477 15d2 D917     		asrs	r1, r3, #31
 7478 15d4 C1EBA211 		rsb	r1, r1, r2, asr #6
 7479 15d8 09B2     		sxth	r1, r1
 7480 15da FEF70FBE 		b	.L93
 7481              	.LVL817:
 7482              	.L406:
 7483              		.loc 3 238 12 view .LVU2237
 7484              	.LBE681:
 7485              	.LBE680:
 243:lvgl/src/extra/themes/default/lv_theme_default.c ****     lv_style_set_pad_column(&styles->scr, PAD_SMALL);
 7486              		.loc 1 243 40 discriminator 4 view .LVU2238
 7487 15de 2B4B     		ldr	r3, .L588
 7488 15e0 DD68     		ldr	r5, [r3, #12]
 7489              	.LVL818:
 7490              	.LBB682:
 7491              	.LBI682:
 236:lvgl/src/extra/themes/default/../../../../src/core/lv_disp.h **** {
 7492              		.loc 3 236 26 is_stmt 1 discriminator 4 view .LVU2239
 7493              	.LBB683:
ARM GAS  /var/folders/k2/cd9bl_j17z77g23y6ffqb_400000gn/T//ccRoPncs.s 			page 212


 7494              		.loc 3 238 5 discriminator 4 view .LVU2240
 7495              		.loc 3 238 12 is_stmt 0 discriminator 4 view .LVU2241
 7496 15e2 2846     		mov	r0, r5
 7497 15e4 FFF7FEFF 		bl	lv_disp_get_dpi
 7498              	.LVL819:
 7499 15e8 00EB4000 		add	r0, r0, r0, lsl #1
 7500 15ec 8000     		lsls	r0, r0, #2
 7501 15ee EF28     		cmp	r0, #239
 7502 15f0 02DC     		bgt	.L520
 7503              		.loc 3 238 12 view .LVU2242
 7504 15f2 0121     		movs	r1, #1
 7505              	.LVL820:
 7506              		.loc 3 238 12 view .LVU2243
 7507 15f4 FEF702BE 		b	.L93
 7508              	.LVL821:
 7509              	.L520:
 7510              		.loc 3 238 12 view .LVU2244
 7511 15f8 2846     		mov	r0, r5
 7512 15fa FFF7FEFF 		bl	lv_disp_get_dpi
 7513              	.LVL822:
 7514 15fe 00EB4000 		add	r0, r0, r0, lsl #1
 7515 1602 8300     		lsls	r3, r0, #2
 7516 1604 5033     		adds	r3, r3, #80
 7517 1606 284A     		ldr	r2, .L588+28
 7518 1608 82FB0312 		smull	r1, r2, r2, r3
 7519 160c D917     		asrs	r1, r3, #31
 7520 160e C1EBA211 		rsb	r1, r1, r2, asr #6
 7521 1612 09B2     		sxth	r1, r1
 7522 1614 FEF7F2BD 		b	.L93
 7523              	.LVL823:
 7524              	.L407:
 7525              		.loc 3 238 12 view .LVU2245
 7526              	.LBE683:
 7527              	.LBE682:
 7528              	.LBB684:
 7529              	.LBB406:
 7530 1618 2846     		mov	r0, r5
 7531 161a FFF7FEFF 		bl	lv_disp_get_dpi
 7532              	.LVL824:
 7533 161e 00EB8000 		add	r0, r0, r0, lsl #2
 7534 1622 4300     		lsls	r3, r0, #1
 7535 1624 5033     		adds	r3, r3, #80
 7536 1626 204A     		ldr	r2, .L588+28
 7537 1628 82FB0312 		smull	r1, r2, r2, r3
 7538 162c D917     		asrs	r1, r3, #31
 7539 162e C1EBA211 		rsb	r1, r1, r2, asr #6
 7540 1632 09B2     		sxth	r1, r1
 7541 1634 FEF7E2BD 		b	.L93
 7542              	.LVL825:
 7543              	.L408:
 7544              		.loc 3 238 12 view .LVU2246
 7545              	.LBE406:
 7546              	.LBE684:
 244:lvgl/src/extra/themes/default/lv_theme_default.c **** 
 7547              		.loc 1 244 43 discriminator 1 view .LVU2247
 7548 1638 144B     		ldr	r3, .L588
 7549 163a DD68     		ldr	r5, [r3, #12]
ARM GAS  /var/folders/k2/cd9bl_j17z77g23y6ffqb_400000gn/T//ccRoPncs.s 			page 213


 7550              	.LVL826:
 7551              	.LBB685:
 7552              	.LBI685:
 236:lvgl/src/extra/themes/default/../../../../src/core/lv_disp.h **** {
 7553              		.loc 3 236 26 is_stmt 1 discriminator 1 view .LVU2248
 7554              	.LBB686:
 7555              		.loc 3 238 5 discriminator 1 view .LVU2249
 7556              		.loc 3 238 12 is_stmt 0 discriminator 1 view .LVU2250
 7557 163c 2846     		mov	r0, r5
 7558 163e FFF7FEFF 		bl	lv_disp_get_dpi
 7559              	.LVL827:
 7560 1642 C0EBC000 		rsb	r0, r0, r0, lsl #3
 7561 1646 4000     		lsls	r0, r0, #1
 7562 1648 EF28     		cmp	r0, #239
 7563 164a 02DC     		bgt	.L521
 7564              		.loc 3 238 12 view .LVU2251
 7565 164c 0121     		movs	r1, #1
 7566              	.LVL828:
 7567              		.loc 3 238 12 view .LVU2252
 7568 164e FEF7EEBD 		b	.L99
 7569              	.LVL829:
 7570              	.L521:
 7571              		.loc 3 238 12 view .LVU2253
 7572 1652 2846     		mov	r0, r5
 7573 1654 FFF7FEFF 		bl	lv_disp_get_dpi
 7574              	.LVL830:
 7575 1658 C0EBC000 		rsb	r0, r0, r0, lsl #3
 7576 165c 4300     		lsls	r3, r0, #1
 7577 165e 5033     		adds	r3, r3, #80
 7578 1660 114A     		ldr	r2, .L588+28
 7579 1662 82FB0312 		smull	r1, r2, r2, r3
 7580 1666 D917     		asrs	r1, r3, #31
 7581 1668 C1EBA211 		rsb	r1, r1, r2, asr #6
 7582 166c 09B2     		sxth	r1, r1
 7583 166e FEF7DEBD 		b	.L99
 7584              	.LVL831:
 7585              	.L409:
 7586              		.loc 3 238 12 view .LVU2254
 7587              	.LBE686:
 7588              	.LBE685:
 244:lvgl/src/extra/themes/default/lv_theme_default.c **** 
 7589              		.loc 1 244 43 discriminator 4 view .LVU2255
 7590 1672 064B     		ldr	r3, .L588
 7591 1674 DD68     		ldr	r5, [r3, #12]
 7592              	.LVL832:
 7593              	.LBB687:
 7594              	.LBI687:
 236:lvgl/src/extra/themes/default/../../../../src/core/lv_disp.h **** {
 7595              		.loc 3 236 26 is_stmt 1 discriminator 4 view .LVU2256
 7596              	.LBB688:
 7597              		.loc 3 238 5 discriminator 4 view .LVU2257
 7598              		.loc 3 238 12 is_stmt 0 discriminator 4 view .LVU2258
 7599 1676 2846     		mov	r0, r5
 7600 1678 FFF7FEFF 		bl	lv_disp_get_dpi
 7601              	.LVL833:
 7602 167c 00EB4000 		add	r0, r0, r0, lsl #1
 7603 1680 8000     		lsls	r0, r0, #2
ARM GAS  /var/folders/k2/cd9bl_j17z77g23y6ffqb_400000gn/T//ccRoPncs.s 			page 214


 7604 1682 EF28     		cmp	r0, #239
 7605 1684 12DC     		bgt	.L522
 7606              		.loc 3 238 12 view .LVU2259
 7607 1686 0121     		movs	r1, #1
 7608              	.LVL834:
 7609              		.loc 3 238 12 view .LVU2260
 7610 1688 FEF7D1BD 		b	.L99
 7611              	.L589:
 7612              		.align	2
 7613              	.L588:
 7614 168c 00000000 		.word	.LANCHOR3
 7615 1690 00000000 		.word	.LANCHOR0
 7616 1694 00000000 		.word	.LANCHOR7
 7617 1698 00000000 		.word	.LANCHOR1
 7618 169c 00000000 		.word	.LANCHOR4
 7619 16a0 00000000 		.word	.LANCHOR5
 7620 16a4 00000000 		.word	.LANCHOR6
 7621 16a8 67666666 		.word	1717986919
 7622              	.LVL835:
 7623              	.L522:
 7624              		.loc 3 238 12 view .LVU2261
 7625 16ac 2846     		mov	r0, r5
 7626 16ae FFF7FEFF 		bl	lv_disp_get_dpi
 7627              	.LVL836:
 7628 16b2 00EB4000 		add	r0, r0, r0, lsl #1
 7629 16b6 8300     		lsls	r3, r0, #2
 7630 16b8 5033     		adds	r3, r3, #80
 7631 16ba D04A     		ldr	r2, .L590
 7632 16bc 82FB0312 		smull	r1, r2, r2, r3
 7633 16c0 D917     		asrs	r1, r3, #31
 7634 16c2 C1EBA211 		rsb	r1, r1, r2, asr #6
 7635 16c6 09B2     		sxth	r1, r1
 7636 16c8 FEF7B1BD 		b	.L99
 7637              	.LVL837:
 7638              	.L410:
 7639              		.loc 3 238 12 view .LVU2262
 7640              	.LBE688:
 7641              	.LBE687:
 7642              	.LBB689:
 7643              	.LBB409:
 7644 16cc 2846     		mov	r0, r5
 7645 16ce FFF7FEFF 		bl	lv_disp_get_dpi
 7646              	.LVL838:
 7647 16d2 00EB8000 		add	r0, r0, r0, lsl #2
 7648 16d6 4300     		lsls	r3, r0, #1
 7649 16d8 5033     		adds	r3, r3, #80
 7650 16da C84A     		ldr	r2, .L590
 7651 16dc 82FB0312 		smull	r1, r2, r2, r3
 7652 16e0 D917     		asrs	r1, r3, #31
 7653 16e2 C1EBA211 		rsb	r1, r1, r2, asr #6
 7654 16e6 09B2     		sxth	r1, r1
 7655 16e8 FEF7A1BD 		b	.L99
 7656              	.LVL839:
 7657              	.L411:
 7658              		.loc 3 238 12 view .LVU2263
 7659              	.LBE409:
 7660              	.LBE689:
ARM GAS  /var/folders/k2/cd9bl_j17z77g23y6ffqb_400000gn/T//ccRoPncs.s 			page 215


 247:lvgl/src/extra/themes/default/lv_theme_default.c ****     lv_style_set_bg_opa(&styles->card, LV_OPA_COVER);
 7661              		.loc 1 247 40 discriminator 1 view .LVU2264
 7662 16ec C44B     		ldr	r3, .L590+4
 7663 16ee DD68     		ldr	r5, [r3, #12]
 7664              	.LVL840:
 7665              	.LBB690:
 7666              	.LBI690:
 236:lvgl/src/extra/themes/default/../../../../src/core/lv_disp.h **** {
 7667              		.loc 3 236 26 is_stmt 1 discriminator 1 view .LVU2265
 7668              	.LBB691:
 7669              		.loc 3 238 5 discriminator 1 view .LVU2266
 7670              		.loc 3 238 12 is_stmt 0 discriminator 1 view .LVU2267
 7671 16f0 2846     		mov	r0, r5
 7672 16f2 FFF7FEFF 		bl	lv_disp_get_dpi
 7673              	.LVL841:
 7674 16f6 00EB4000 		add	r0, r0, r0, lsl #1
 7675 16fa 8000     		lsls	r0, r0, #2
 7676 16fc EF28     		cmp	r0, #239
 7677 16fe 02DC     		bgt	.L523
 7678              		.loc 3 238 12 view .LVU2268
 7679 1700 0121     		movs	r1, #1
 7680              	.LVL842:
 7681              		.loc 3 238 12 view .LVU2269
 7682 1702 FEF7ADBD 		b	.L105
 7683              	.LVL843:
 7684              	.L523:
 7685              		.loc 3 238 12 view .LVU2270
 7686 1706 2846     		mov	r0, r5
 7687 1708 FFF7FEFF 		bl	lv_disp_get_dpi
 7688              	.LVL844:
 7689 170c 00EB4000 		add	r0, r0, r0, lsl #1
 7690 1710 8300     		lsls	r3, r0, #2
 7691 1712 5033     		adds	r3, r3, #80
 7692 1714 B94A     		ldr	r2, .L590
 7693 1716 82FB0312 		smull	r1, r2, r2, r3
 7694 171a D917     		asrs	r1, r3, #31
 7695 171c C1EBA211 		rsb	r1, r1, r2, asr #6
 7696 1720 09B2     		sxth	r1, r1
 7697 1722 FEF79DBD 		b	.L105
 7698              	.LVL845:
 7699              	.L412:
 7700              		.loc 3 238 12 view .LVU2271
 7701              	.LBE691:
 7702              	.LBE690:
 7703              	.LBB692:
 7704              	.LBB412:
 7705 1726 2846     		mov	r0, r5
 7706 1728 FFF7FEFF 		bl	lv_disp_get_dpi
 7707              	.LVL846:
 7708 172c C300     		lsls	r3, r0, #3
 7709 172e 5033     		adds	r3, r3, #80
 7710 1730 B24A     		ldr	r2, .L590
 7711 1732 82FB0312 		smull	r1, r2, r2, r3
 7712 1736 D917     		asrs	r1, r3, #31
 7713 1738 C1EBA211 		rsb	r1, r1, r2, asr #6
 7714 173c 09B2     		sxth	r1, r1
 7715 173e FEF78FBD 		b	.L105
ARM GAS  /var/folders/k2/cd9bl_j17z77g23y6ffqb_400000gn/T//ccRoPncs.s 			page 216


 7716              	.LVL847:
 7717              	.L413:
 7718              		.loc 3 238 12 view .LVU2272
 7719              	.LBE412:
 7720              	.LBE692:
 7721              	.LBB693:
 7722              	.LBB415:
 7723 1742 2846     		mov	r0, r5
 7724 1744 FFF7FEFF 		bl	lv_disp_get_dpi
 7725              	.LVL848:
 7726 1748 4300     		lsls	r3, r0, #1
 7727 174a 5033     		adds	r3, r3, #80
 7728 174c AB4A     		ldr	r2, .L590
 7729 174e 82FB0312 		smull	r1, r2, r2, r3
 7730 1752 D917     		asrs	r1, r3, #31
 7731 1754 C1EBA211 		rsb	r1, r1, r2, asr #6
 7732 1758 09B2     		sxth	r1, r1
 7733 175a FEF7A2BD 		b	.L107
 7734              	.LVL849:
 7735              	.L414:
 7736              		.loc 3 238 12 view .LVU2273
 7737              	.LBE415:
 7738              	.LBE693:
 254:lvgl/src/extra/themes/default/lv_theme_default.c ****     lv_style_set_pad_row(&styles->card, PAD_SMALL);
 7739              		.loc 1 254 41 discriminator 1 view .LVU2274
 7740 175e A84B     		ldr	r3, .L590+4
 7741 1760 DC68     		ldr	r4, [r3, #12]
 7742              	.LVL850:
 7743              	.LBB694:
 7744              	.LBI694:
 236:lvgl/src/extra/themes/default/../../../../src/core/lv_disp.h **** {
 7745              		.loc 3 236 26 is_stmt 1 discriminator 1 view .LVU2275
 7746              	.LBB695:
 7747              		.loc 3 238 5 discriminator 1 view .LVU2276
 7748              		.loc 3 238 12 is_stmt 0 discriminator 1 view .LVU2277
 7749 1762 2046     		mov	r0, r4
 7750 1764 FFF7FEFF 		bl	lv_disp_get_dpi
 7751              	.LVL851:
 7752 1768 00EB4000 		add	r0, r0, r0, lsl #1
 7753 176c C000     		lsls	r0, r0, #3
 7754 176e EF28     		cmp	r0, #239
 7755 1770 02DC     		bgt	.L524
 7756              		.loc 3 238 12 view .LVU2278
 7757 1772 0124     		movs	r4, #1
 7758              	.LVL852:
 7759              		.loc 3 238 12 view .LVU2279
 7760 1774 FEF7B8BD 		b	.L110
 7761              	.LVL853:
 7762              	.L524:
 7763              		.loc 3 238 12 view .LVU2280
 7764 1778 2046     		mov	r0, r4
 7765 177a FFF7FEFF 		bl	lv_disp_get_dpi
 7766              	.LVL854:
 7767 177e 00EB4000 		add	r0, r0, r0, lsl #1
 7768 1782 C300     		lsls	r3, r0, #3
 7769 1784 5033     		adds	r3, r3, #80
 7770 1786 9D4A     		ldr	r2, .L590
ARM GAS  /var/folders/k2/cd9bl_j17z77g23y6ffqb_400000gn/T//ccRoPncs.s 			page 217


 7771 1788 82FB0312 		smull	r1, r2, r2, r3
 7772 178c DC17     		asrs	r4, r3, #31
 7773              	.LVL855:
 7774              		.loc 3 238 12 view .LVU2281
 7775 178e C4EBA214 		rsb	r4, r4, r2, asr #6
 7776 1792 24B2     		sxth	r4, r4
 7777 1794 FEF7A8BD 		b	.L110
 7778              	.LVL856:
 7779              	.L415:
 7780              		.loc 3 238 12 view .LVU2282
 7781              	.LBE695:
 7782              	.LBE694:
 254:lvgl/src/extra/themes/default/lv_theme_default.c ****     lv_style_set_pad_row(&styles->card, PAD_SMALL);
 7783              		.loc 1 254 41 discriminator 4 view .LVU2283
 7784 1798 994B     		ldr	r3, .L590+4
 7785 179a DC68     		ldr	r4, [r3, #12]
 7786              	.LVL857:
 7787              	.LBB696:
 7788              	.LBI696:
 236:lvgl/src/extra/themes/default/../../../../src/core/lv_disp.h **** {
 7789              		.loc 3 236 26 is_stmt 1 discriminator 4 view .LVU2284
 7790              	.LBB697:
 7791              		.loc 3 238 5 discriminator 4 view .LVU2285
 7792              		.loc 3 238 12 is_stmt 0 discriminator 4 view .LVU2286
 7793 179c 2046     		mov	r0, r4
 7794 179e FFF7FEFF 		bl	lv_disp_get_dpi
 7795              	.LVL858:
 7796 17a2 00EB8000 		add	r0, r0, r0, lsl #2
 7797 17a6 8000     		lsls	r0, r0, #2
 7798 17a8 EF28     		cmp	r0, #239
 7799 17aa 02DC     		bgt	.L525
 7800              		.loc 3 238 12 view .LVU2287
 7801 17ac 0124     		movs	r4, #1
 7802              	.LVL859:
 7803              		.loc 3 238 12 view .LVU2288
 7804 17ae FEF79BBD 		b	.L110
 7805              	.LVL860:
 7806              	.L525:
 7807              		.loc 3 238 12 view .LVU2289
 7808 17b2 2046     		mov	r0, r4
 7809 17b4 FFF7FEFF 		bl	lv_disp_get_dpi
 7810              	.LVL861:
 7811 17b8 00EB8000 		add	r0, r0, r0, lsl #2
 7812 17bc 8300     		lsls	r3, r0, #2
 7813 17be 5033     		adds	r3, r3, #80
 7814 17c0 8E4A     		ldr	r2, .L590
 7815 17c2 82FB0312 		smull	r1, r2, r2, r3
 7816 17c6 DC17     		asrs	r4, r3, #31
 7817              	.LVL862:
 7818              		.loc 3 238 12 view .LVU2290
 7819 17c8 C4EBA214 		rsb	r4, r4, r2, asr #6
 7820 17cc 24B2     		sxth	r4, r4
 7821 17ce FEF78BBD 		b	.L110
 7822              	.LVL863:
 7823              	.L416:
 7824              		.loc 3 238 12 view .LVU2291
 7825              	.LBE697:
ARM GAS  /var/folders/k2/cd9bl_j17z77g23y6ffqb_400000gn/T//ccRoPncs.s 			page 218


 7826              	.LBE696:
 7827              	.LBB698:
 7828              	.LBB418:
 7829 17d2 2046     		mov	r0, r4
 7830 17d4 FFF7FEFF 		bl	lv_disp_get_dpi
 7831              	.LVL864:
 7832 17d8 0301     		lsls	r3, r0, #4
 7833 17da 5033     		adds	r3, r3, #80
 7834 17dc 874A     		ldr	r2, .L590
 7835 17de 82FB0312 		smull	r1, r2, r2, r3
 7836 17e2 DC17     		asrs	r4, r3, #31
 7837              	.LVL865:
 7838              		.loc 3 238 12 view .LVU2292
 7839 17e4 C4EBA214 		rsb	r4, r4, r2, asr #6
 7840 17e8 24B2     		sxth	r4, r4
 7841 17ea FEF77DBD 		b	.L110
 7842              	.LVL866:
 7843              	.L417:
 7844              		.loc 3 238 12 view .LVU2293
 7845              	.LBE418:
 7846              	.LBE698:
 255:lvgl/src/extra/themes/default/lv_theme_default.c ****     lv_style_set_pad_column(&styles->card, PAD_SMALL);
 7847              		.loc 1 255 41 discriminator 1 view .LVU2294
 7848 17ee 844B     		ldr	r3, .L590+4
 7849 17f0 DD68     		ldr	r5, [r3, #12]
 7850              	.LVL867:
 7851              	.LBB699:
 7852              	.LBI699:
 236:lvgl/src/extra/themes/default/../../../../src/core/lv_disp.h **** {
 7853              		.loc 3 236 26 is_stmt 1 discriminator 1 view .LVU2295
 7854              	.LBB700:
 7855              		.loc 3 238 5 discriminator 1 view .LVU2296
 7856              		.loc 3 238 12 is_stmt 0 discriminator 1 view .LVU2297
 7857 17f2 2846     		mov	r0, r5
 7858 17f4 FFF7FEFF 		bl	lv_disp_get_dpi
 7859              	.LVL868:
 7860 17f8 C0EBC000 		rsb	r0, r0, r0, lsl #3
 7861 17fc 4000     		lsls	r0, r0, #1
 7862 17fe EF28     		cmp	r0, #239
 7863 1800 02DC     		bgt	.L526
 7864              		.loc 3 238 12 view .LVU2298
 7865 1802 0121     		movs	r1, #1
 7866              	.LVL869:
 7867              		.loc 3 238 12 view .LVU2299
 7868 1804 FEF7AEBD 		b	.L116
 7869              	.LVL870:
 7870              	.L526:
 7871              		.loc 3 238 12 view .LVU2300
 7872 1808 2846     		mov	r0, r5
 7873 180a FFF7FEFF 		bl	lv_disp_get_dpi
 7874              	.LVL871:
 7875 180e C0EBC000 		rsb	r0, r0, r0, lsl #3
 7876 1812 4300     		lsls	r3, r0, #1
 7877 1814 5033     		adds	r3, r3, #80
 7878 1816 794A     		ldr	r2, .L590
 7879 1818 82FB0312 		smull	r1, r2, r2, r3
 7880 181c D917     		asrs	r1, r3, #31
ARM GAS  /var/folders/k2/cd9bl_j17z77g23y6ffqb_400000gn/T//ccRoPncs.s 			page 219


 7881 181e C1EBA211 		rsb	r1, r1, r2, asr #6
 7882 1822 09B2     		sxth	r1, r1
 7883 1824 FEF79EBD 		b	.L116
 7884              	.LVL872:
 7885              	.L418:
 7886              		.loc 3 238 12 view .LVU2301
 7887              	.LBE700:
 7888              	.LBE699:
 255:lvgl/src/extra/themes/default/lv_theme_default.c ****     lv_style_set_pad_column(&styles->card, PAD_SMALL);
 7889              		.loc 1 255 41 discriminator 4 view .LVU2302
 7890 1828 754B     		ldr	r3, .L590+4
 7891 182a DD68     		ldr	r5, [r3, #12]
 7892              	.LVL873:
 7893              	.LBB701:
 7894              	.LBI701:
 236:lvgl/src/extra/themes/default/../../../../src/core/lv_disp.h **** {
 7895              		.loc 3 236 26 is_stmt 1 discriminator 4 view .LVU2303
 7896              	.LBB702:
 7897              		.loc 3 238 5 discriminator 4 view .LVU2304
 7898              		.loc 3 238 12 is_stmt 0 discriminator 4 view .LVU2305
 7899 182c 2846     		mov	r0, r5
 7900 182e FFF7FEFF 		bl	lv_disp_get_dpi
 7901              	.LVL874:
 7902 1832 00EB4000 		add	r0, r0, r0, lsl #1
 7903 1836 8000     		lsls	r0, r0, #2
 7904 1838 EF28     		cmp	r0, #239
 7905 183a 02DC     		bgt	.L527
 7906              		.loc 3 238 12 view .LVU2306
 7907 183c 0121     		movs	r1, #1
 7908              	.LVL875:
 7909              		.loc 3 238 12 view .LVU2307
 7910 183e FEF791BD 		b	.L116
 7911              	.LVL876:
 7912              	.L527:
 7913              		.loc 3 238 12 view .LVU2308
 7914 1842 2846     		mov	r0, r5
 7915 1844 FFF7FEFF 		bl	lv_disp_get_dpi
 7916              	.LVL877:
 7917 1848 00EB4000 		add	r0, r0, r0, lsl #1
 7918 184c 8300     		lsls	r3, r0, #2
 7919 184e 5033     		adds	r3, r3, #80
 7920 1850 6A4A     		ldr	r2, .L590
 7921 1852 82FB0312 		smull	r1, r2, r2, r3
 7922 1856 D917     		asrs	r1, r3, #31
 7923 1858 C1EBA211 		rsb	r1, r1, r2, asr #6
 7924 185c 09B2     		sxth	r1, r1
 7925 185e FEF781BD 		b	.L116
 7926              	.LVL878:
 7927              	.L419:
 7928              		.loc 3 238 12 view .LVU2309
 7929              	.LBE702:
 7930              	.LBE701:
 7931              	.LBB703:
 7932              	.LBB423:
 7933 1862 2846     		mov	r0, r5
 7934 1864 FFF7FEFF 		bl	lv_disp_get_dpi
 7935              	.LVL879:
ARM GAS  /var/folders/k2/cd9bl_j17z77g23y6ffqb_400000gn/T//ccRoPncs.s 			page 220


 7936 1868 00EB8000 		add	r0, r0, r0, lsl #2
 7937 186c 4300     		lsls	r3, r0, #1
 7938 186e 5033     		adds	r3, r3, #80
 7939 1870 624A     		ldr	r2, .L590
 7940 1872 82FB0312 		smull	r1, r2, r2, r3
 7941 1876 D917     		asrs	r1, r3, #31
 7942 1878 C1EBA211 		rsb	r1, r1, r2, asr #6
 7943 187c 09B2     		sxth	r1, r1
 7944 187e FEF771BD 		b	.L116
 7945              	.LVL880:
 7946              	.L420:
 7947              		.loc 3 238 12 view .LVU2310
 7948              	.LBE423:
 7949              	.LBE703:
 256:lvgl/src/extra/themes/default/lv_theme_default.c ****     lv_style_set_line_color(&styles->card, lv_palette_main(LV_PALETTE_GREY));
 7950              		.loc 1 256 44 discriminator 1 view .LVU2311
 7951 1882 5F4B     		ldr	r3, .L590+4
 7952 1884 DD68     		ldr	r5, [r3, #12]
 7953              	.LVL881:
 7954              	.LBB704:
 7955              	.LBI704:
 236:lvgl/src/extra/themes/default/../../../../src/core/lv_disp.h **** {
 7956              		.loc 3 236 26 is_stmt 1 discriminator 1 view .LVU2312
 7957              	.LBB705:
 7958              		.loc 3 238 5 discriminator 1 view .LVU2313
 7959              		.loc 3 238 12 is_stmt 0 discriminator 1 view .LVU2314
 7960 1886 2846     		mov	r0, r5
 7961 1888 FFF7FEFF 		bl	lv_disp_get_dpi
 7962              	.LVL882:
 7963 188c C0EBC000 		rsb	r0, r0, r0, lsl #3
 7964 1890 4000     		lsls	r0, r0, #1
 7965 1892 EF28     		cmp	r0, #239
 7966 1894 02DC     		bgt	.L528
 7967              		.loc 3 238 12 view .LVU2315
 7968 1896 0121     		movs	r1, #1
 7969              	.LVL883:
 7970              		.loc 3 238 12 view .LVU2316
 7971 1898 FEF77EBD 		b	.L122
 7972              	.LVL884:
 7973              	.L528:
 7974              		.loc 3 238 12 view .LVU2317
 7975 189c 2846     		mov	r0, r5
 7976 189e FFF7FEFF 		bl	lv_disp_get_dpi
 7977              	.LVL885:
 7978 18a2 C0EBC000 		rsb	r0, r0, r0, lsl #3
 7979 18a6 4300     		lsls	r3, r0, #1
 7980 18a8 5033     		adds	r3, r3, #80
 7981 18aa 544A     		ldr	r2, .L590
 7982 18ac 82FB0312 		smull	r1, r2, r2, r3
 7983 18b0 D917     		asrs	r1, r3, #31
 7984 18b2 C1EBA211 		rsb	r1, r1, r2, asr #6
 7985 18b6 09B2     		sxth	r1, r1
 7986 18b8 FEF76EBD 		b	.L122
 7987              	.LVL886:
 7988              	.L421:
 7989              		.loc 3 238 12 view .LVU2318
 7990              	.LBE705:
ARM GAS  /var/folders/k2/cd9bl_j17z77g23y6ffqb_400000gn/T//ccRoPncs.s 			page 221


 7991              	.LBE704:
 256:lvgl/src/extra/themes/default/lv_theme_default.c ****     lv_style_set_line_color(&styles->card, lv_palette_main(LV_PALETTE_GREY));
 7992              		.loc 1 256 44 discriminator 4 view .LVU2319
 7993 18bc 504B     		ldr	r3, .L590+4
 7994 18be DD68     		ldr	r5, [r3, #12]
 7995              	.LVL887:
 7996              	.LBB706:
 7997              	.LBI706:
 236:lvgl/src/extra/themes/default/../../../../src/core/lv_disp.h **** {
 7998              		.loc 3 236 26 is_stmt 1 discriminator 4 view .LVU2320
 7999              	.LBB707:
 8000              		.loc 3 238 5 discriminator 4 view .LVU2321
 8001              		.loc 3 238 12 is_stmt 0 discriminator 4 view .LVU2322
 8002 18c0 2846     		mov	r0, r5
 8003 18c2 FFF7FEFF 		bl	lv_disp_get_dpi
 8004              	.LVL888:
 8005 18c6 00EB4000 		add	r0, r0, r0, lsl #1
 8006 18ca 8000     		lsls	r0, r0, #2
 8007 18cc EF28     		cmp	r0, #239
 8008 18ce 02DC     		bgt	.L529
 8009              		.loc 3 238 12 view .LVU2323
 8010 18d0 0121     		movs	r1, #1
 8011              	.LVL889:
 8012              		.loc 3 238 12 view .LVU2324
 8013 18d2 FEF761BD 		b	.L122
 8014              	.LVL890:
 8015              	.L529:
 8016              		.loc 3 238 12 view .LVU2325
 8017 18d6 2846     		mov	r0, r5
 8018 18d8 FFF7FEFF 		bl	lv_disp_get_dpi
 8019              	.LVL891:
 8020 18dc 00EB4000 		add	r0, r0, r0, lsl #1
 8021 18e0 8300     		lsls	r3, r0, #2
 8022 18e2 5033     		adds	r3, r3, #80
 8023 18e4 454A     		ldr	r2, .L590
 8024 18e6 82FB0312 		smull	r1, r2, r2, r3
 8025 18ea D917     		asrs	r1, r3, #31
 8026 18ec C1EBA211 		rsb	r1, r1, r2, asr #6
 8027 18f0 09B2     		sxth	r1, r1
 8028 18f2 FEF751BD 		b	.L122
 8029              	.LVL892:
 8030              	.L422:
 8031              		.loc 3 238 12 view .LVU2326
 8032              	.LBE707:
 8033              	.LBE706:
 8034              	.LBB708:
 8035              	.LBB426:
 8036 18f6 2846     		mov	r0, r5
 8037 18f8 FFF7FEFF 		bl	lv_disp_get_dpi
 8038              	.LVL893:
 8039 18fc 00EB8000 		add	r0, r0, r0, lsl #2
 8040 1900 4300     		lsls	r3, r0, #1
 8041 1902 5033     		adds	r3, r3, #80
 8042 1904 3D4A     		ldr	r2, .L590
 8043 1906 82FB0312 		smull	r1, r2, r2, r3
 8044 190a D917     		asrs	r1, r3, #31
 8045 190c C1EBA211 		rsb	r1, r1, r2, asr #6
ARM GAS  /var/folders/k2/cd9bl_j17z77g23y6ffqb_400000gn/T//ccRoPncs.s 			page 222


 8046 1910 09B2     		sxth	r1, r1
 8047 1912 FEF741BD 		b	.L122
 8048              	.LVL894:
 8049              	.L423:
 8050              		.loc 3 238 12 view .LVU2327
 8051              	.LBE426:
 8052              	.LBE708:
 8053              	.LBB709:
 8054              	.LBB429:
 8055 1916 2846     		mov	r0, r5
 8056 1918 FFF7FEFF 		bl	lv_disp_get_dpi
 8057              	.LVL895:
 8058 191c 5030     		adds	r0, r0, #80
 8059 191e 374B     		ldr	r3, .L590
 8060 1920 83FB0023 		smull	r2, r3, r3, r0
 8061 1924 C117     		asrs	r1, r0, #31
 8062 1926 C1EBA311 		rsb	r1, r1, r3, asr #6
 8063 192a 09B2     		sxth	r1, r1
 8064 192c FEF74CBD 		b	.L126
 8065              	.LVL896:
 8066              	.L424:
 8067              		.loc 3 238 12 view .LVU2328
 8068              	.LBE429:
 8069              	.LBE709:
 8070              	.LBB710:
 8071              	.LBB432:
 8072 1930 2846     		mov	r0, r5
 8073 1932 FFF7FEFF 		bl	lv_disp_get_dpi
 8074              	.LVL897:
 8075 1936 00EB4000 		add	r0, r0, r0, lsl #1
 8076 193a 00F15003 		add	r3, r0, #80
 8077 193e 2F4A     		ldr	r2, .L590
 8078 1940 82FB0312 		smull	r1, r2, r2, r3
 8079 1944 D917     		asrs	r1, r3, #31
 8080 1946 C1EBA211 		rsb	r1, r1, r2, asr #6
 8081 194a 09B2     		sxth	r1, r1
 8082 194c FEF756BD 		b	.L127
 8083              	.LVL898:
 8084              	.L425:
 8085              		.loc 3 238 12 view .LVU2329
 8086              	.LBE432:
 8087              	.LBE710:
 8088              	.LBB711:
 8089              	.LBB435:
 8090 1950 2846     		mov	r0, r5
 8091 1952 FFF7FEFF 		bl	lv_disp_get_dpi
 8092              	.LVL899:
 8093 1956 00EB4000 		add	r0, r0, r0, lsl #1
 8094 195a 00F15003 		add	r3, r0, #80
 8095 195e 274A     		ldr	r2, .L590
 8096 1960 82FB0312 		smull	r1, r2, r2, r3
 8097 1964 D917     		asrs	r1, r3, #31
 8098 1966 C1EBA211 		rsb	r1, r1, r2, asr #6
 8099 196a 09B2     		sxth	r1, r1
 8100 196c FEF757BD 		b	.L128
 8101              	.LVL900:
 8102              	.L426:
ARM GAS  /var/folders/k2/cd9bl_j17z77g23y6ffqb_400000gn/T//ccRoPncs.s 			page 223


 8103              		.loc 3 238 12 view .LVU2330
 8104              	.LBE435:
 8105              	.LBE711:
 8106              	.LBB712:
 8107              	.LBB438:
 8108 1970 2846     		mov	r0, r5
 8109 1972 FFF7FEFF 		bl	lv_disp_get_dpi
 8110              	.LVL901:
 8111 1976 00EB4000 		add	r0, r0, r0, lsl #1
 8112 197a 00F15003 		add	r3, r0, #80
 8113 197e 1F4A     		ldr	r2, .L590
 8114 1980 82FB0312 		smull	r1, r2, r2, r3
 8115 1984 D917     		asrs	r1, r3, #31
 8116 1986 C1EBA211 		rsb	r1, r1, r2, asr #6
 8117 198a 09B2     		sxth	r1, r1
 8118 198c FEF766BD 		b	.L129
 8119              	.LVL902:
 8120              	.L427:
 8121              		.loc 3 238 12 view .LVU2331
 8122              	.LBE438:
 8123              	.LBE712:
 272:lvgl/src/extra/themes/default/lv_theme_default.c ****     lv_style_set_bg_opa(&styles->btn, LV_OPA_COVER);
 8124              		.loc 1 272 83 discriminator 1 view .LVU2332
 8125 1990 1B4B     		ldr	r3, .L590+4
 8126 1992 DD68     		ldr	r5, [r3, #12]
 8127              	.LVL903:
 8128              	.LBB713:
 8129              	.LBI713:
 236:lvgl/src/extra/themes/default/../../../../src/core/lv_disp.h **** {
 8130              		.loc 3 236 26 is_stmt 1 discriminator 1 view .LVU2333
 8131              	.LBB714:
 8132              		.loc 3 238 5 discriminator 1 view .LVU2334
 8133              		.loc 3 238 12 is_stmt 0 discriminator 1 view .LVU2335
 8134 1994 2846     		mov	r0, r5
 8135 1996 FFF7FEFF 		bl	lv_disp_get_dpi
 8136              	.LVL904:
 8137 199a 0001     		lsls	r0, r0, #4
 8138 199c EF28     		cmp	r0, #239
 8139 199e 02DC     		bgt	.L530
 8140              		.loc 3 238 12 view .LVU2336
 8141 19a0 0121     		movs	r1, #1
 8142              	.LVL905:
 8143              		.loc 3 238 12 view .LVU2337
 8144 19a2 FEF77CBD 		b	.L132
 8145              	.LVL906:
 8146              	.L530:
 8147              		.loc 3 238 12 view .LVU2338
 8148 19a6 2846     		mov	r0, r5
 8149 19a8 FFF7FEFF 		bl	lv_disp_get_dpi
 8150              	.LVL907:
 8151 19ac 0001     		lsls	r0, r0, #4
 8152 19ae 5030     		adds	r0, r0, #80
 8153 19b0 124B     		ldr	r3, .L590
 8154 19b2 83FB0023 		smull	r2, r3, r3, r0
 8155 19b6 C117     		asrs	r1, r0, #31
 8156 19b8 C1EBA311 		rsb	r1, r1, r3, asr #6
 8157 19bc 09B2     		sxth	r1, r1
ARM GAS  /var/folders/k2/cd9bl_j17z77g23y6ffqb_400000gn/T//ccRoPncs.s 			page 224


 8158 19be FEF76EBD 		b	.L132
 8159              	.LVL908:
 8160              	.L428:
 8161              		.loc 3 238 12 view .LVU2339
 8162              	.LBE714:
 8163              	.LBE713:
 272:lvgl/src/extra/themes/default/lv_theme_default.c ****     lv_style_set_bg_opa(&styles->btn, LV_OPA_COVER);
 8164              		.loc 1 272 140 discriminator 4 view .LVU2340
 8165 19c2 0F4B     		ldr	r3, .L590+4
 8166 19c4 DD68     		ldr	r5, [r3, #12]
 8167              	.LVL909:
 8168              	.LBB715:
 8169              	.LBI715:
 236:lvgl/src/extra/themes/default/../../../../src/core/lv_disp.h **** {
 8170              		.loc 3 236 26 is_stmt 1 discriminator 4 view .LVU2341
 8171              	.LBB716:
 8172              		.loc 3 238 5 discriminator 4 view .LVU2342
 8173              		.loc 3 238 12 is_stmt 0 discriminator 4 view .LVU2343
 8174 19c6 2846     		mov	r0, r5
 8175 19c8 FFF7FEFF 		bl	lv_disp_get_dpi
 8176              	.LVL910:
 8177 19cc 00EB4000 		add	r0, r0, r0, lsl #1
 8178 19d0 8000     		lsls	r0, r0, #2
 8179 19d2 EF28     		cmp	r0, #239
 8180 19d4 02DC     		bgt	.L531
 8181              		.loc 3 238 12 view .LVU2344
 8182 19d6 0121     		movs	r1, #1
 8183              	.LVL911:
 8184              		.loc 3 238 12 view .LVU2345
 8185 19d8 FEF761BD 		b	.L132
 8186              	.LVL912:
 8187              	.L531:
 8188              		.loc 3 238 12 view .LVU2346
 8189 19dc 2846     		mov	r0, r5
 8190 19de FFF7FEFF 		bl	lv_disp_get_dpi
 8191              	.LVL913:
 8192 19e2 00EB4000 		add	r0, r0, r0, lsl #1
 8193 19e6 8300     		lsls	r3, r0, #2
 8194 19e8 5033     		adds	r3, r3, #80
 8195 19ea 044A     		ldr	r2, .L590
 8196 19ec 82FB0312 		smull	r1, r2, r2, r3
 8197 19f0 D917     		asrs	r1, r3, #31
 8198 19f2 C1EBA211 		rsb	r1, r1, r2, asr #6
 8199 19f6 09B2     		sxth	r1, r1
 8200 19f8 FEF751BD 		b	.L132
 8201              	.L591:
 8202              		.align	2
 8203              	.L590:
 8204 19fc 67666666 		.word	1717986919
 8205 1a00 00000000 		.word	.LANCHOR3
 8206              	.LVL914:
 8207              	.L429:
 8208              		.loc 3 238 12 view .LVU2347
 8209              	.LBE716:
 8210              	.LBE715:
 8211              	.LBB717:
 8212              	.LBB441:
ARM GAS  /var/folders/k2/cd9bl_j17z77g23y6ffqb_400000gn/T//ccRoPncs.s 			page 225


 8213 1a04 2846     		mov	r0, r5
 8214 1a06 FFF7FEFF 		bl	lv_disp_get_dpi
 8215              	.LVL915:
 8216 1a0a C300     		lsls	r3, r0, #3
 8217 1a0c 5033     		adds	r3, r3, #80
 8218 1a0e D04A     		ldr	r2, .L592
 8219 1a10 82FB0312 		smull	r1, r2, r2, r3
 8220 1a14 D917     		asrs	r1, r3, #31
 8221 1a16 C1EBA211 		rsb	r1, r1, r2, asr #6
 8222 1a1a 09B2     		sxth	r1, r1
 8223 1a1c FEF73FBD 		b	.L132
 8224              	.LVL916:
 8225              	.L430:
 8226              		.loc 3 238 12 view .LVU2348
 8227              	.LBE441:
 8228              	.LBE717:
 276:lvgl/src/extra/themes/default/lv_theme_default.c ****         lv_style_set_shadow_width(&styles->btn, 1);
 8229              		.loc 1 276 9 is_stmt 1 view .LVU2349
 276:lvgl/src/extra/themes/default/lv_theme_default.c ****         lv_style_set_shadow_width(&styles->btn, 1);
 8230              		.loc 1 276 42 is_stmt 0 view .LVU2350
 8231 1a20 2568     		ldr	r5, [r4]
 276:lvgl/src/extra/themes/default/lv_theme_default.c ****         lv_style_set_shadow_width(&styles->btn, 1);
 8232              		.loc 1 276 9 view .LVU2351
 8233 1a22 0321     		movs	r1, #3
 8234 1a24 1220     		movs	r0, #18
 8235 1a26 FFF7FEFF 		bl	lv_palette_lighten
 8236              	.LVL917:
 8237 1a2a 0146     		mov	r1, r0
 8238 1a2c 05F12000 		add	r0, r5, #32
 8239 1a30 FFF7FEFF 		bl	lv_style_set_shadow_color
 8240              	.LVL918:
 277:lvgl/src/extra/themes/default/lv_theme_default.c ****         lv_style_set_shadow_ofs_y(&styles->btn, lv_disp_dpx(theme.disp, 4));
 8241              		.loc 1 277 9 is_stmt 1 view .LVU2352
 277:lvgl/src/extra/themes/default/lv_theme_default.c ****         lv_style_set_shadow_ofs_y(&styles->btn, lv_disp_dpx(theme.disp, 4));
 8242              		.loc 1 277 42 is_stmt 0 view .LVU2353
 8243 1a34 2068     		ldr	r0, [r4]
 277:lvgl/src/extra/themes/default/lv_theme_default.c ****         lv_style_set_shadow_ofs_y(&styles->btn, lv_disp_dpx(theme.disp, 4));
 8244              		.loc 1 277 9 view .LVU2354
 8245 1a36 0121     		movs	r1, #1
 8246 1a38 2030     		adds	r0, r0, #32
 8247 1a3a FFF7FEFF 		bl	lv_style_set_shadow_width
 8248              	.LVL919:
 278:lvgl/src/extra/themes/default/lv_theme_default.c ****     }
 8249              		.loc 1 278 9 is_stmt 1 view .LVU2355
 278:lvgl/src/extra/themes/default/lv_theme_default.c ****     }
 8250              		.loc 1 278 42 is_stmt 0 view .LVU2356
 8251 1a3e 2468     		ldr	r4, [r4]
 278:lvgl/src/extra/themes/default/lv_theme_default.c ****     }
 8252              		.loc 1 278 9 view .LVU2357
 8253 1a40 2034     		adds	r4, r4, #32
 278:lvgl/src/extra/themes/default/lv_theme_default.c ****     }
 8254              		.loc 1 278 66 view .LVU2358
 8255 1a42 C44B     		ldr	r3, .L592+4
 8256 1a44 DD68     		ldr	r5, [r3, #12]
 8257              	.LVL920:
 8258              	.LBB718:
 8259              	.LBI718:
ARM GAS  /var/folders/k2/cd9bl_j17z77g23y6ffqb_400000gn/T//ccRoPncs.s 			page 226


 236:lvgl/src/extra/themes/default/../../../../src/core/lv_disp.h **** {
 8260              		.loc 3 236 26 is_stmt 1 view .LVU2359
 8261              	.LBB719:
 8262              		.loc 3 238 5 view .LVU2360
 8263              		.loc 3 238 12 is_stmt 0 view .LVU2361
 8264 1a46 2846     		mov	r0, r5
 8265 1a48 FFF7FEFF 		bl	lv_disp_get_dpi
 8266              	.LVL921:
 8267 1a4c 8000     		lsls	r0, r0, #2
 8268 1a4e EF28     		cmp	r0, #239
 8269 1a50 05DC     		bgt	.L532
 8270 1a52 0121     		movs	r1, #1
 8271              	.L137:
 8272              	.LVL922:
 8273              		.loc 3 238 12 view .LVU2362
 8274              	.LBE719:
 8275              	.LBE718:
 278:lvgl/src/extra/themes/default/lv_theme_default.c ****     }
 8276              		.loc 1 278 9 view .LVU2363
 8277 1a54 2046     		mov	r0, r4
 8278 1a56 FFF7FEFF 		bl	lv_style_set_shadow_ofs_y
 8279              	.LVL923:
 8280 1a5a FEF735BD 		b	.L136
 8281              	.LVL924:
 8282              	.L532:
 8283              	.LBB721:
 8284              	.LBB720:
 8285              		.loc 3 238 12 view .LVU2364
 8286 1a5e 2846     		mov	r0, r5
 8287 1a60 FFF7FEFF 		bl	lv_disp_get_dpi
 8288              	.LVL925:
 8289 1a64 8300     		lsls	r3, r0, #2
 8290 1a66 5033     		adds	r3, r3, #80
 8291 1a68 B94A     		ldr	r2, .L592
 8292 1a6a 82FB0312 		smull	r1, r2, r2, r3
 8293 1a6e D917     		asrs	r1, r3, #31
 8294 1a70 C1EBA211 		rsb	r1, r1, r2, asr #6
 8295 1a74 09B2     		sxth	r1, r1
 8296 1a76 EDE7     		b	.L137
 8297              	.LVL926:
 8298              	.L431:
 8299              		.loc 3 238 12 view .LVU2365
 8300              	.LBE720:
 8301              	.LBE721:
 281:lvgl/src/extra/themes/default/lv_theme_default.c ****     lv_style_set_pad_ver(&styles->btn, PAD_SMALL);
 8302              		.loc 1 281 40 discriminator 1 view .LVU2366
 8303 1a78 B64B     		ldr	r3, .L592+4
 8304 1a7a DC68     		ldr	r4, [r3, #12]
 8305              	.LVL927:
 8306              	.LBB722:
 8307              	.LBI722:
 236:lvgl/src/extra/themes/default/../../../../src/core/lv_disp.h **** {
 8308              		.loc 3 236 26 is_stmt 1 discriminator 1 view .LVU2367
 8309              	.LBB723:
 8310              		.loc 3 238 5 discriminator 1 view .LVU2368
 8311              		.loc 3 238 12 is_stmt 0 discriminator 1 view .LVU2369
 8312 1a7c 2046     		mov	r0, r4
ARM GAS  /var/folders/k2/cd9bl_j17z77g23y6ffqb_400000gn/T//ccRoPncs.s 			page 227


 8313 1a7e FFF7FEFF 		bl	lv_disp_get_dpi
 8314              	.LVL928:
 8315 1a82 00EB4000 		add	r0, r0, r0, lsl #1
 8316 1a86 C000     		lsls	r0, r0, #3
 8317 1a88 EF28     		cmp	r0, #239
 8318 1a8a 02DC     		bgt	.L533
 8319              		.loc 3 238 12 view .LVU2370
 8320 1a8c 0124     		movs	r4, #1
 8321              	.LVL929:
 8322              		.loc 3 238 12 view .LVU2371
 8323 1a8e FEF736BD 		b	.L140
 8324              	.LVL930:
 8325              	.L533:
 8326              		.loc 3 238 12 view .LVU2372
 8327 1a92 2046     		mov	r0, r4
 8328 1a94 FFF7FEFF 		bl	lv_disp_get_dpi
 8329              	.LVL931:
 8330 1a98 00EB4000 		add	r0, r0, r0, lsl #1
 8331 1a9c C300     		lsls	r3, r0, #3
 8332 1a9e 5033     		adds	r3, r3, #80
 8333 1aa0 AB4A     		ldr	r2, .L592
 8334 1aa2 82FB0312 		smull	r1, r2, r2, r3
 8335 1aa6 DC17     		asrs	r4, r3, #31
 8336              	.LVL932:
 8337              		.loc 3 238 12 view .LVU2373
 8338 1aa8 C4EBA214 		rsb	r4, r4, r2, asr #6
 8339 1aac 24B2     		sxth	r4, r4
 8340 1aae FEF726BD 		b	.L140
 8341              	.LVL933:
 8342              	.L432:
 8343              		.loc 3 238 12 view .LVU2374
 8344              	.LBE723:
 8345              	.LBE722:
 281:lvgl/src/extra/themes/default/lv_theme_default.c ****     lv_style_set_pad_ver(&styles->btn, PAD_SMALL);
 8346              		.loc 1 281 40 discriminator 4 view .LVU2375
 8347 1ab2 A84B     		ldr	r3, .L592+4
 8348 1ab4 DC68     		ldr	r4, [r3, #12]
 8349              	.LVL934:
 8350              	.LBB724:
 8351              	.LBI724:
 236:lvgl/src/extra/themes/default/../../../../src/core/lv_disp.h **** {
 8352              		.loc 3 236 26 is_stmt 1 discriminator 4 view .LVU2376
 8353              	.LBB725:
 8354              		.loc 3 238 5 discriminator 4 view .LVU2377
 8355              		.loc 3 238 12 is_stmt 0 discriminator 4 view .LVU2378
 8356 1ab6 2046     		mov	r0, r4
 8357 1ab8 FFF7FEFF 		bl	lv_disp_get_dpi
 8358              	.LVL935:
 8359 1abc 00EB8000 		add	r0, r0, r0, lsl #2
 8360 1ac0 8000     		lsls	r0, r0, #2
 8361 1ac2 EF28     		cmp	r0, #239
 8362 1ac4 02DC     		bgt	.L534
 8363              		.loc 3 238 12 view .LVU2379
 8364 1ac6 0124     		movs	r4, #1
 8365              	.LVL936:
 8366              		.loc 3 238 12 view .LVU2380
 8367 1ac8 FEF719BD 		b	.L140
ARM GAS  /var/folders/k2/cd9bl_j17z77g23y6ffqb_400000gn/T//ccRoPncs.s 			page 228


 8368              	.LVL937:
 8369              	.L534:
 8370              		.loc 3 238 12 view .LVU2381
 8371 1acc 2046     		mov	r0, r4
 8372 1ace FFF7FEFF 		bl	lv_disp_get_dpi
 8373              	.LVL938:
 8374 1ad2 00EB8000 		add	r0, r0, r0, lsl #2
 8375 1ad6 8300     		lsls	r3, r0, #2
 8376 1ad8 5033     		adds	r3, r3, #80
 8377 1ada 9D4A     		ldr	r2, .L592
 8378 1adc 82FB0312 		smull	r1, r2, r2, r3
 8379 1ae0 DC17     		asrs	r4, r3, #31
 8380              	.LVL939:
 8381              		.loc 3 238 12 view .LVU2382
 8382 1ae2 C4EBA214 		rsb	r4, r4, r2, asr #6
 8383 1ae6 24B2     		sxth	r4, r4
 8384 1ae8 FEF709BD 		b	.L140
 8385              	.LVL940:
 8386              	.L433:
 8387              		.loc 3 238 12 view .LVU2383
 8388              	.LBE725:
 8389              	.LBE724:
 8390              	.LBB726:
 8391              	.LBB444:
 8392 1aec 2046     		mov	r0, r4
 8393 1aee FFF7FEFF 		bl	lv_disp_get_dpi
 8394              	.LVL941:
 8395 1af2 0301     		lsls	r3, r0, #4
 8396 1af4 5033     		adds	r3, r3, #80
 8397 1af6 964A     		ldr	r2, .L592
 8398 1af8 82FB0312 		smull	r1, r2, r2, r3
 8399 1afc DC17     		asrs	r4, r3, #31
 8400              	.LVL942:
 8401              		.loc 3 238 12 view .LVU2384
 8402 1afe C4EBA214 		rsb	r4, r4, r2, asr #6
 8403 1b02 24B2     		sxth	r4, r4
 8404 1b04 FEF7FBBC 		b	.L140
 8405              	.LVL943:
 8406              	.L434:
 8407              		.loc 3 238 12 view .LVU2385
 8408              	.LBE444:
 8409              	.LBE726:
 282:lvgl/src/extra/themes/default/lv_theme_default.c ****     lv_style_set_pad_column(&styles->btn, lv_disp_dpx(theme.disp, 5));
 8410              		.loc 1 282 40 discriminator 1 view .LVU2386
 8411 1b08 924B     		ldr	r3, .L592+4
 8412 1b0a DC68     		ldr	r4, [r3, #12]
 8413              	.LVL944:
 8414              	.LBB727:
 8415              	.LBI727:
 236:lvgl/src/extra/themes/default/../../../../src/core/lv_disp.h **** {
 8416              		.loc 3 236 26 is_stmt 1 discriminator 1 view .LVU2387
 8417              	.LBB728:
 8418              		.loc 3 238 5 discriminator 1 view .LVU2388
 8419              		.loc 3 238 12 is_stmt 0 discriminator 1 view .LVU2389
 8420 1b0c 2046     		mov	r0, r4
 8421 1b0e FFF7FEFF 		bl	lv_disp_get_dpi
 8422              	.LVL945:
ARM GAS  /var/folders/k2/cd9bl_j17z77g23y6ffqb_400000gn/T//ccRoPncs.s 			page 229


 8423 1b12 C0EBC000 		rsb	r0, r0, r0, lsl #3
 8424 1b16 4000     		lsls	r0, r0, #1
 8425 1b18 EF28     		cmp	r0, #239
 8426 1b1a 02DC     		bgt	.L535
 8427              		.loc 3 238 12 view .LVU2390
 8428 1b1c 0124     		movs	r4, #1
 8429              	.LVL946:
 8430              		.loc 3 238 12 view .LVU2391
 8431 1b1e FEF70DBD 		b	.L146
 8432              	.LVL947:
 8433              	.L535:
 8434              		.loc 3 238 12 view .LVU2392
 8435 1b22 2046     		mov	r0, r4
 8436 1b24 FFF7FEFF 		bl	lv_disp_get_dpi
 8437              	.LVL948:
 8438 1b28 C0EBC000 		rsb	r0, r0, r0, lsl #3
 8439 1b2c 4300     		lsls	r3, r0, #1
 8440 1b2e 5033     		adds	r3, r3, #80
 8441 1b30 874A     		ldr	r2, .L592
 8442 1b32 82FB0312 		smull	r1, r2, r2, r3
 8443 1b36 DC17     		asrs	r4, r3, #31
 8444              	.LVL949:
 8445              		.loc 3 238 12 view .LVU2393
 8446 1b38 C4EBA214 		rsb	r4, r4, r2, asr #6
 8447 1b3c 24B2     		sxth	r4, r4
 8448 1b3e FEF7FDBC 		b	.L146
 8449              	.LVL950:
 8450              	.L435:
 8451              		.loc 3 238 12 view .LVU2394
 8452              	.LBE728:
 8453              	.LBE727:
 282:lvgl/src/extra/themes/default/lv_theme_default.c ****     lv_style_set_pad_column(&styles->btn, lv_disp_dpx(theme.disp, 5));
 8454              		.loc 1 282 40 discriminator 4 view .LVU2395
 8455 1b42 844B     		ldr	r3, .L592+4
 8456 1b44 DC68     		ldr	r4, [r3, #12]
 8457              	.LVL951:
 8458              	.LBB729:
 8459              	.LBI729:
 236:lvgl/src/extra/themes/default/../../../../src/core/lv_disp.h **** {
 8460              		.loc 3 236 26 is_stmt 1 discriminator 4 view .LVU2396
 8461              	.LBB730:
 8462              		.loc 3 238 5 discriminator 4 view .LVU2397
 8463              		.loc 3 238 12 is_stmt 0 discriminator 4 view .LVU2398
 8464 1b46 2046     		mov	r0, r4
 8465 1b48 FFF7FEFF 		bl	lv_disp_get_dpi
 8466              	.LVL952:
 8467 1b4c 00EB4000 		add	r0, r0, r0, lsl #1
 8468 1b50 8000     		lsls	r0, r0, #2
 8469 1b52 EF28     		cmp	r0, #239
 8470 1b54 02DC     		bgt	.L536
 8471              		.loc 3 238 12 view .LVU2399
 8472 1b56 0124     		movs	r4, #1
 8473              	.LVL953:
 8474              		.loc 3 238 12 view .LVU2400
 8475 1b58 FEF7F0BC 		b	.L146
 8476              	.LVL954:
 8477              	.L536:
ARM GAS  /var/folders/k2/cd9bl_j17z77g23y6ffqb_400000gn/T//ccRoPncs.s 			page 230


 8478              		.loc 3 238 12 view .LVU2401
 8479 1b5c 2046     		mov	r0, r4
 8480 1b5e FFF7FEFF 		bl	lv_disp_get_dpi
 8481              	.LVL955:
 8482 1b62 00EB4000 		add	r0, r0, r0, lsl #1
 8483 1b66 8300     		lsls	r3, r0, #2
 8484 1b68 5033     		adds	r3, r3, #80
 8485 1b6a 794A     		ldr	r2, .L592
 8486 1b6c 82FB0312 		smull	r1, r2, r2, r3
 8487 1b70 DC17     		asrs	r4, r3, #31
 8488              	.LVL956:
 8489              		.loc 3 238 12 view .LVU2402
 8490 1b72 C4EBA214 		rsb	r4, r4, r2, asr #6
 8491 1b76 24B2     		sxth	r4, r4
 8492 1b78 FEF7E0BC 		b	.L146
 8493              	.LVL957:
 8494              	.L436:
 8495              		.loc 3 238 12 view .LVU2403
 8496              	.LBE730:
 8497              	.LBE729:
 8498              	.LBB731:
 8499              	.LBB449:
 8500 1b7c 2046     		mov	r0, r4
 8501 1b7e FFF7FEFF 		bl	lv_disp_get_dpi
 8502              	.LVL958:
 8503 1b82 00EB8000 		add	r0, r0, r0, lsl #2
 8504 1b86 4300     		lsls	r3, r0, #1
 8505 1b88 5033     		adds	r3, r3, #80
 8506 1b8a 714A     		ldr	r2, .L592
 8507 1b8c 82FB0312 		smull	r1, r2, r2, r3
 8508 1b90 DC17     		asrs	r4, r3, #31
 8509              	.LVL959:
 8510              		.loc 3 238 12 view .LVU2404
 8511 1b92 C4EBA214 		rsb	r4, r4, r2, asr #6
 8512 1b96 24B2     		sxth	r4, r4
 8513 1b98 FEF7D0BC 		b	.L146
 8514              	.LVL960:
 8515              	.L437:
 8516              		.loc 3 238 12 view .LVU2405
 8517              	.LBE449:
 8518              	.LBE731:
 8519              	.LBB732:
 8520              	.LBB454:
 8521 1b9c 2846     		mov	r0, r5
 8522 1b9e FFF7FEFF 		bl	lv_disp_get_dpi
 8523              	.LVL961:
 8524 1ba2 00EB8000 		add	r0, r0, r0, lsl #2
 8525 1ba6 00F15003 		add	r3, r0, #80
 8526 1baa 694A     		ldr	r2, .L592
 8527 1bac 82FB0312 		smull	r1, r2, r2, r3
 8528 1bb0 D917     		asrs	r1, r3, #31
 8529 1bb2 C1EBA211 		rsb	r1, r1, r2, asr #6
 8530 1bb6 09B2     		sxth	r1, r1
 8531 1bb8 FEF7D6BC 		b	.L150
 8532              	.LVL962:
 8533              	.L438:
 8534              		.loc 3 238 12 view .LVU2406
ARM GAS  /var/folders/k2/cd9bl_j17z77g23y6ffqb_400000gn/T//ccRoPncs.s 			page 231


 8535              	.LBE454:
 8536              	.LBE732:
 8537              	.LBB733:
 8538              	.LBB457:
 8539 1bbc 2846     		mov	r0, r5
 8540 1bbe FFF7FEFF 		bl	lv_disp_get_dpi
 8541              	.LVL963:
 8542 1bc2 00EB8000 		add	r0, r0, r0, lsl #2
 8543 1bc6 00F15003 		add	r3, r0, #80
 8544 1bca 614A     		ldr	r2, .L592
 8545 1bcc 82FB0312 		smull	r1, r2, r2, r3
 8546 1bd0 D917     		asrs	r1, r3, #31
 8547 1bd2 C1EBA211 		rsb	r1, r1, r2, asr #6
 8548 1bd6 09B2     		sxth	r1, r1
 8549 1bd8 FEF7D7BC 		b	.L151
 8550              	.LVL964:
 8551              	.L439:
 8552              		.loc 3 238 12 view .LVU2407
 8553              	.LBE457:
 8554              	.LBE733:
 304:lvgl/src/extra/themes/default/lv_theme_default.c ****     lv_style_set_pad_row(&styles->pad_normal, PAD_DEF);
 8555              		.loc 1 304 47 discriminator 1 view .LVU2408
 8556 1bdc 5D4B     		ldr	r3, .L592+4
 8557 1bde DC68     		ldr	r4, [r3, #12]
 8558              	.LVL965:
 8559              	.LBB734:
 8560              	.LBI734:
 236:lvgl/src/extra/themes/default/../../../../src/core/lv_disp.h **** {
 8561              		.loc 3 236 26 is_stmt 1 discriminator 1 view .LVU2409
 8562              	.LBB735:
 8563              		.loc 3 238 5 discriminator 1 view .LVU2410
 8564              		.loc 3 238 12 is_stmt 0 discriminator 1 view .LVU2411
 8565 1be0 2046     		mov	r0, r4
 8566 1be2 FFF7FEFF 		bl	lv_disp_get_dpi
 8567              	.LVL966:
 8568 1be6 00EB4000 		add	r0, r0, r0, lsl #1
 8569 1bea C000     		lsls	r0, r0, #3
 8570 1bec EF28     		cmp	r0, #239
 8571 1bee 02DC     		bgt	.L537
 8572              		.loc 3 238 12 view .LVU2412
 8573 1bf0 0124     		movs	r4, #1
 8574              	.LVL967:
 8575              		.loc 3 238 12 view .LVU2413
 8576 1bf2 FEF711BD 		b	.L154
 8577              	.LVL968:
 8578              	.L537:
 8579              		.loc 3 238 12 view .LVU2414
 8580 1bf6 2046     		mov	r0, r4
 8581 1bf8 FFF7FEFF 		bl	lv_disp_get_dpi
 8582              	.LVL969:
 8583 1bfc 00EB4000 		add	r0, r0, r0, lsl #1
 8584 1c00 C300     		lsls	r3, r0, #3
 8585 1c02 5033     		adds	r3, r3, #80
 8586 1c04 524A     		ldr	r2, .L592
 8587 1c06 82FB0312 		smull	r1, r2, r2, r3
 8588 1c0a DC17     		asrs	r4, r3, #31
 8589              	.LVL970:
ARM GAS  /var/folders/k2/cd9bl_j17z77g23y6ffqb_400000gn/T//ccRoPncs.s 			page 232


 8590              		.loc 3 238 12 view .LVU2415
 8591 1c0c C4EBA214 		rsb	r4, r4, r2, asr #6
 8592 1c10 24B2     		sxth	r4, r4
 8593 1c12 FEF701BD 		b	.L154
 8594              	.LVL971:
 8595              	.L440:
 8596              		.loc 3 238 12 view .LVU2416
 8597              	.LBE735:
 8598              	.LBE734:
 304:lvgl/src/extra/themes/default/lv_theme_default.c ****     lv_style_set_pad_row(&styles->pad_normal, PAD_DEF);
 8599              		.loc 1 304 47 discriminator 4 view .LVU2417
 8600 1c16 4F4B     		ldr	r3, .L592+4
 8601 1c18 DC68     		ldr	r4, [r3, #12]
 8602              	.LVL972:
 8603              	.LBB736:
 8604              	.LBI736:
 236:lvgl/src/extra/themes/default/../../../../src/core/lv_disp.h **** {
 8605              		.loc 3 236 26 is_stmt 1 discriminator 4 view .LVU2418
 8606              	.LBB737:
 8607              		.loc 3 238 5 discriminator 4 view .LVU2419
 8608              		.loc 3 238 12 is_stmt 0 discriminator 4 view .LVU2420
 8609 1c1a 2046     		mov	r0, r4
 8610 1c1c FFF7FEFF 		bl	lv_disp_get_dpi
 8611              	.LVL973:
 8612 1c20 00EB8000 		add	r0, r0, r0, lsl #2
 8613 1c24 8000     		lsls	r0, r0, #2
 8614 1c26 EF28     		cmp	r0, #239
 8615 1c28 02DC     		bgt	.L538
 8616              		.loc 3 238 12 view .LVU2421
 8617 1c2a 0124     		movs	r4, #1
 8618              	.LVL974:
 8619              		.loc 3 238 12 view .LVU2422
 8620 1c2c FEF7F4BC 		b	.L154
 8621              	.LVL975:
 8622              	.L538:
 8623              		.loc 3 238 12 view .LVU2423
 8624 1c30 2046     		mov	r0, r4
 8625 1c32 FFF7FEFF 		bl	lv_disp_get_dpi
 8626              	.LVL976:
 8627 1c36 00EB8000 		add	r0, r0, r0, lsl #2
 8628 1c3a 8300     		lsls	r3, r0, #2
 8629 1c3c 5033     		adds	r3, r3, #80
 8630 1c3e 444A     		ldr	r2, .L592
 8631 1c40 82FB0312 		smull	r1, r2, r2, r3
 8632 1c44 DC17     		asrs	r4, r3, #31
 8633              	.LVL977:
 8634              		.loc 3 238 12 view .LVU2424
 8635 1c46 C4EBA214 		rsb	r4, r4, r2, asr #6
 8636 1c4a 24B2     		sxth	r4, r4
 8637 1c4c FEF7E4BC 		b	.L154
 8638              	.LVL978:
 8639              	.L441:
 8640              		.loc 3 238 12 view .LVU2425
 8641              	.LBE737:
 8642              	.LBE736:
 8643              	.LBB738:
 8644              	.LBB464:
ARM GAS  /var/folders/k2/cd9bl_j17z77g23y6ffqb_400000gn/T//ccRoPncs.s 			page 233


 8645 1c50 2046     		mov	r0, r4
 8646 1c52 FFF7FEFF 		bl	lv_disp_get_dpi
 8647              	.LVL979:
 8648 1c56 0301     		lsls	r3, r0, #4
 8649 1c58 5033     		adds	r3, r3, #80
 8650 1c5a 3D4A     		ldr	r2, .L592
 8651 1c5c 82FB0312 		smull	r1, r2, r2, r3
 8652 1c60 DC17     		asrs	r4, r3, #31
 8653              	.LVL980:
 8654              		.loc 3 238 12 view .LVU2426
 8655 1c62 C4EBA214 		rsb	r4, r4, r2, asr #6
 8656 1c66 24B2     		sxth	r4, r4
 8657 1c68 FEF7D6BC 		b	.L154
 8658              	.LVL981:
 8659              	.L442:
 8660              		.loc 3 238 12 view .LVU2427
 8661              	.LBE464:
 8662              	.LBE738:
 305:lvgl/src/extra/themes/default/lv_theme_default.c ****     lv_style_set_pad_column(&styles->pad_normal, PAD_DEF);
 8663              		.loc 1 305 47 discriminator 1 view .LVU2428
 8664 1c6c 394B     		ldr	r3, .L592+4
 8665 1c6e DD68     		ldr	r5, [r3, #12]
 8666              	.LVL982:
 8667              	.LBB739:
 8668              	.LBI739:
 236:lvgl/src/extra/themes/default/../../../../src/core/lv_disp.h **** {
 8669              		.loc 3 236 26 is_stmt 1 discriminator 1 view .LVU2429
 8670              	.LBB740:
 8671              		.loc 3 238 5 discriminator 1 view .LVU2430
 8672              		.loc 3 238 12 is_stmt 0 discriminator 1 view .LVU2431
 8673 1c70 2846     		mov	r0, r5
 8674 1c72 FFF7FEFF 		bl	lv_disp_get_dpi
 8675              	.LVL983:
 8676 1c76 00EB4000 		add	r0, r0, r0, lsl #1
 8677 1c7a C000     		lsls	r0, r0, #3
 8678 1c7c EF28     		cmp	r0, #239
 8679 1c7e 02DC     		bgt	.L539
 8680              		.loc 3 238 12 view .LVU2432
 8681 1c80 0121     		movs	r1, #1
 8682              	.LVL984:
 8683              		.loc 3 238 12 view .LVU2433
 8684 1c82 FEF701BD 		b	.L160
 8685              	.LVL985:
 8686              	.L539:
 8687              		.loc 3 238 12 view .LVU2434
 8688 1c86 2846     		mov	r0, r5
 8689 1c88 FFF7FEFF 		bl	lv_disp_get_dpi
 8690              	.LVL986:
 8691 1c8c 00EB4000 		add	r0, r0, r0, lsl #1
 8692 1c90 C300     		lsls	r3, r0, #3
 8693 1c92 5033     		adds	r3, r3, #80
 8694 1c94 2E4A     		ldr	r2, .L592
 8695 1c96 82FB0312 		smull	r1, r2, r2, r3
 8696 1c9a D917     		asrs	r1, r3, #31
 8697 1c9c C1EBA211 		rsb	r1, r1, r2, asr #6
 8698 1ca0 09B2     		sxth	r1, r1
 8699 1ca2 FEF7F1BC 		b	.L160
ARM GAS  /var/folders/k2/cd9bl_j17z77g23y6ffqb_400000gn/T//ccRoPncs.s 			page 234


 8700              	.LVL987:
 8701              	.L443:
 8702              		.loc 3 238 12 view .LVU2435
 8703              	.LBE740:
 8704              	.LBE739:
 305:lvgl/src/extra/themes/default/lv_theme_default.c ****     lv_style_set_pad_column(&styles->pad_normal, PAD_DEF);
 8705              		.loc 1 305 47 discriminator 4 view .LVU2436
 8706 1ca6 2B4B     		ldr	r3, .L592+4
 8707 1ca8 DD68     		ldr	r5, [r3, #12]
 8708              	.LVL988:
 8709              	.LBB741:
 8710              	.LBI741:
 236:lvgl/src/extra/themes/default/../../../../src/core/lv_disp.h **** {
 8711              		.loc 3 236 26 is_stmt 1 discriminator 4 view .LVU2437
 8712              	.LBB742:
 8713              		.loc 3 238 5 discriminator 4 view .LVU2438
 8714              		.loc 3 238 12 is_stmt 0 discriminator 4 view .LVU2439
 8715 1caa 2846     		mov	r0, r5
 8716 1cac FFF7FEFF 		bl	lv_disp_get_dpi
 8717              	.LVL989:
 8718 1cb0 00EB8000 		add	r0, r0, r0, lsl #2
 8719 1cb4 8000     		lsls	r0, r0, #2
 8720 1cb6 EF28     		cmp	r0, #239
 8721 1cb8 02DC     		bgt	.L540
 8722              		.loc 3 238 12 view .LVU2440
 8723 1cba 0121     		movs	r1, #1
 8724              	.LVL990:
 8725              		.loc 3 238 12 view .LVU2441
 8726 1cbc FEF7E4BC 		b	.L160
 8727              	.LVL991:
 8728              	.L540:
 8729              		.loc 3 238 12 view .LVU2442
 8730 1cc0 2846     		mov	r0, r5
 8731 1cc2 FFF7FEFF 		bl	lv_disp_get_dpi
 8732              	.LVL992:
 8733 1cc6 00EB8000 		add	r0, r0, r0, lsl #2
 8734 1cca 8300     		lsls	r3, r0, #2
 8735 1ccc 5033     		adds	r3, r3, #80
 8736 1cce 204A     		ldr	r2, .L592
 8737 1cd0 82FB0312 		smull	r1, r2, r2, r3
 8738 1cd4 D917     		asrs	r1, r3, #31
 8739 1cd6 C1EBA211 		rsb	r1, r1, r2, asr #6
 8740 1cda 09B2     		sxth	r1, r1
 8741 1cdc FEF7D4BC 		b	.L160
 8742              	.LVL993:
 8743              	.L444:
 8744              		.loc 3 238 12 view .LVU2443
 8745              	.LBE742:
 8746              	.LBE741:
 8747              	.LBB743:
 8748              	.LBB469:
 8749 1ce0 2846     		mov	r0, r5
 8750 1ce2 FFF7FEFF 		bl	lv_disp_get_dpi
 8751              	.LVL994:
 8752 1ce6 0301     		lsls	r3, r0, #4
 8753 1ce8 5033     		adds	r3, r3, #80
 8754 1cea 194A     		ldr	r2, .L592
ARM GAS  /var/folders/k2/cd9bl_j17z77g23y6ffqb_400000gn/T//ccRoPncs.s 			page 235


 8755 1cec 82FB0312 		smull	r1, r2, r2, r3
 8756 1cf0 D917     		asrs	r1, r3, #31
 8757 1cf2 C1EBA211 		rsb	r1, r1, r2, asr #6
 8758 1cf6 09B2     		sxth	r1, r1
 8759 1cf8 FEF7C6BC 		b	.L160
 8760              	.LVL995:
 8761              	.L445:
 8762              		.loc 3 238 12 view .LVU2444
 8763              	.LBE469:
 8764              	.LBE743:
 306:lvgl/src/extra/themes/default/lv_theme_default.c **** 
 8765              		.loc 1 306 50 discriminator 1 view .LVU2445
 8766 1cfc 154B     		ldr	r3, .L592+4
 8767 1cfe DD68     		ldr	r5, [r3, #12]
 8768              	.LVL996:
 8769              	.LBB744:
 8770              	.LBI744:
 236:lvgl/src/extra/themes/default/../../../../src/core/lv_disp.h **** {
 8771              		.loc 3 236 26 is_stmt 1 discriminator 1 view .LVU2446
 8772              	.LBB745:
 8773              		.loc 3 238 5 discriminator 1 view .LVU2447
 8774              		.loc 3 238 12 is_stmt 0 discriminator 1 view .LVU2448
 8775 1d00 2846     		mov	r0, r5
 8776 1d02 FFF7FEFF 		bl	lv_disp_get_dpi
 8777              	.LVL997:
 8778 1d06 00EB4000 		add	r0, r0, r0, lsl #1
 8779 1d0a C000     		lsls	r0, r0, #3
 8780 1d0c EF28     		cmp	r0, #239
 8781 1d0e 02DC     		bgt	.L541
 8782              		.loc 3 238 12 view .LVU2449
 8783 1d10 0121     		movs	r1, #1
 8784              	.LVL998:
 8785              		.loc 3 238 12 view .LVU2450
 8786 1d12 FEF7D1BC 		b	.L166
 8787              	.LVL999:
 8788              	.L541:
 8789              		.loc 3 238 12 view .LVU2451
 8790 1d16 2846     		mov	r0, r5
 8791 1d18 FFF7FEFF 		bl	lv_disp_get_dpi
 8792              	.LVL1000:
 8793 1d1c 00EB4000 		add	r0, r0, r0, lsl #1
 8794 1d20 C300     		lsls	r3, r0, #3
 8795 1d22 5033     		adds	r3, r3, #80
 8796 1d24 0A4A     		ldr	r2, .L592
 8797 1d26 82FB0312 		smull	r1, r2, r2, r3
 8798 1d2a D917     		asrs	r1, r3, #31
 8799 1d2c C1EBA211 		rsb	r1, r1, r2, asr #6
 8800 1d30 09B2     		sxth	r1, r1
 8801 1d32 FEF7C1BC 		b	.L166
 8802              	.LVL1001:
 8803              	.L446:
 8804              		.loc 3 238 12 view .LVU2452
 8805              	.LBE745:
 8806              	.LBE744:
 306:lvgl/src/extra/themes/default/lv_theme_default.c **** 
 8807              		.loc 1 306 50 discriminator 4 view .LVU2453
 8808 1d36 074B     		ldr	r3, .L592+4
ARM GAS  /var/folders/k2/cd9bl_j17z77g23y6ffqb_400000gn/T//ccRoPncs.s 			page 236


 8809 1d38 DD68     		ldr	r5, [r3, #12]
 8810              	.LVL1002:
 8811              	.LBB746:
 8812              	.LBI746:
 236:lvgl/src/extra/themes/default/../../../../src/core/lv_disp.h **** {
 8813              		.loc 3 236 26 is_stmt 1 discriminator 4 view .LVU2454
 8814              	.LBB747:
 8815              		.loc 3 238 5 discriminator 4 view .LVU2455
 8816              		.loc 3 238 12 is_stmt 0 discriminator 4 view .LVU2456
 8817 1d3a 2846     		mov	r0, r5
 8818 1d3c FFF7FEFF 		bl	lv_disp_get_dpi
 8819              	.LVL1003:
 8820 1d40 00EB8000 		add	r0, r0, r0, lsl #2
 8821 1d44 8000     		lsls	r0, r0, #2
 8822 1d46 EF28     		cmp	r0, #239
 8823 1d48 06DC     		bgt	.L542
 8824              		.loc 3 238 12 view .LVU2457
 8825 1d4a 0121     		movs	r1, #1
 8826              	.LVL1004:
 8827              		.loc 3 238 12 view .LVU2458
 8828 1d4c FEF7B4BC 		b	.L166
 8829              	.L593:
 8830              		.align	2
 8831              	.L592:
 8832 1d50 67666666 		.word	1717986919
 8833 1d54 00000000 		.word	.LANCHOR3
 8834              	.LVL1005:
 8835              	.L542:
 8836              		.loc 3 238 12 view .LVU2459
 8837 1d58 2846     		mov	r0, r5
 8838 1d5a FFF7FEFF 		bl	lv_disp_get_dpi
 8839              	.LVL1006:
 8840 1d5e 00EB8000 		add	r0, r0, r0, lsl #2
 8841 1d62 8300     		lsls	r3, r0, #2
 8842 1d64 5033     		adds	r3, r3, #80
 8843 1d66 D34A     		ldr	r2, .L594
 8844 1d68 82FB0312 		smull	r1, r2, r2, r3
 8845 1d6c D917     		asrs	r1, r3, #31
 8846 1d6e C1EBA211 		rsb	r1, r1, r2, asr #6
 8847 1d72 09B2     		sxth	r1, r1
 8848 1d74 FEF7A0BC 		b	.L166
 8849              	.LVL1007:
 8850              	.L447:
 8851              		.loc 3 238 12 view .LVU2460
 8852              	.LBE747:
 8853              	.LBE746:
 8854              	.LBB748:
 8855              	.LBB472:
 8856 1d78 2846     		mov	r0, r5
 8857 1d7a FFF7FEFF 		bl	lv_disp_get_dpi
 8858              	.LVL1008:
 8859 1d7e 0301     		lsls	r3, r0, #4
 8860 1d80 5033     		adds	r3, r3, #80
 8861 1d82 CC4A     		ldr	r2, .L594
 8862 1d84 82FB0312 		smull	r1, r2, r2, r3
 8863 1d88 D917     		asrs	r1, r3, #31
 8864 1d8a C1EBA211 		rsb	r1, r1, r2, asr #6
ARM GAS  /var/folders/k2/cd9bl_j17z77g23y6ffqb_400000gn/T//ccRoPncs.s 			page 237


 8865 1d8e 09B2     		sxth	r1, r1
 8866 1d90 FEF792BC 		b	.L166
 8867              	.LVL1009:
 8868              	.L448:
 8869              		.loc 3 238 12 view .LVU2461
 8870              	.LBE472:
 8871              	.LBE748:
 309:lvgl/src/extra/themes/default/lv_theme_default.c ****     lv_style_set_pad_gap(&styles->pad_small, PAD_SMALL);
 8872              		.loc 1 309 46 discriminator 1 view .LVU2462
 8873 1d94 C84B     		ldr	r3, .L594+4
 8874 1d96 DC68     		ldr	r4, [r3, #12]
 8875              	.LVL1010:
 8876              	.LBB749:
 8877              	.LBI749:
 236:lvgl/src/extra/themes/default/../../../../src/core/lv_disp.h **** {
 8878              		.loc 3 236 26 is_stmt 1 discriminator 1 view .LVU2463
 8879              	.LBB750:
 8880              		.loc 3 238 5 discriminator 1 view .LVU2464
 8881              		.loc 3 238 12 is_stmt 0 discriminator 1 view .LVU2465
 8882 1d98 2046     		mov	r0, r4
 8883 1d9a FFF7FEFF 		bl	lv_disp_get_dpi
 8884              	.LVL1011:
 8885 1d9e C0EBC000 		rsb	r0, r0, r0, lsl #3
 8886 1da2 4000     		lsls	r0, r0, #1
 8887 1da4 EF28     		cmp	r0, #239
 8888 1da6 02DC     		bgt	.L543
 8889              		.loc 3 238 12 view .LVU2466
 8890 1da8 0124     		movs	r4, #1
 8891              	.LVL1012:
 8892              		.loc 3 238 12 view .LVU2467
 8893 1daa FEF7A3BC 		b	.L172
 8894              	.LVL1013:
 8895              	.L543:
 8896              		.loc 3 238 12 view .LVU2468
 8897 1dae 2046     		mov	r0, r4
 8898 1db0 FFF7FEFF 		bl	lv_disp_get_dpi
 8899              	.LVL1014:
 8900 1db4 C0EBC000 		rsb	r0, r0, r0, lsl #3
 8901 1db8 4300     		lsls	r3, r0, #1
 8902 1dba 5033     		adds	r3, r3, #80
 8903 1dbc BD4A     		ldr	r2, .L594
 8904 1dbe 82FB0312 		smull	r1, r2, r2, r3
 8905 1dc2 DC17     		asrs	r4, r3, #31
 8906              	.LVL1015:
 8907              		.loc 3 238 12 view .LVU2469
 8908 1dc4 C4EBA214 		rsb	r4, r4, r2, asr #6
 8909 1dc8 24B2     		sxth	r4, r4
 8910 1dca FEF793BC 		b	.L172
 8911              	.LVL1016:
 8912              	.L449:
 8913              		.loc 3 238 12 view .LVU2470
 8914              	.LBE750:
 8915              	.LBE749:
 309:lvgl/src/extra/themes/default/lv_theme_default.c ****     lv_style_set_pad_gap(&styles->pad_small, PAD_SMALL);
 8916              		.loc 1 309 46 discriminator 4 view .LVU2471
 8917 1dce BA4B     		ldr	r3, .L594+4
 8918 1dd0 DC68     		ldr	r4, [r3, #12]
ARM GAS  /var/folders/k2/cd9bl_j17z77g23y6ffqb_400000gn/T//ccRoPncs.s 			page 238


 8919              	.LVL1017:
 8920              	.LBB751:
 8921              	.LBI751:
 236:lvgl/src/extra/themes/default/../../../../src/core/lv_disp.h **** {
 8922              		.loc 3 236 26 is_stmt 1 discriminator 4 view .LVU2472
 8923              	.LBB752:
 8924              		.loc 3 238 5 discriminator 4 view .LVU2473
 8925              		.loc 3 238 12 is_stmt 0 discriminator 4 view .LVU2474
 8926 1dd2 2046     		mov	r0, r4
 8927 1dd4 FFF7FEFF 		bl	lv_disp_get_dpi
 8928              	.LVL1018:
 8929 1dd8 00EB4000 		add	r0, r0, r0, lsl #1
 8930 1ddc 8000     		lsls	r0, r0, #2
 8931 1dde EF28     		cmp	r0, #239
 8932 1de0 02DC     		bgt	.L544
 8933              		.loc 3 238 12 view .LVU2475
 8934 1de2 0124     		movs	r4, #1
 8935              	.LVL1019:
 8936              		.loc 3 238 12 view .LVU2476
 8937 1de4 FEF786BC 		b	.L172
 8938              	.LVL1020:
 8939              	.L544:
 8940              		.loc 3 238 12 view .LVU2477
 8941 1de8 2046     		mov	r0, r4
 8942 1dea FFF7FEFF 		bl	lv_disp_get_dpi
 8943              	.LVL1021:
 8944 1dee 00EB4000 		add	r0, r0, r0, lsl #1
 8945 1df2 8300     		lsls	r3, r0, #2
 8946 1df4 5033     		adds	r3, r3, #80
 8947 1df6 AF4A     		ldr	r2, .L594
 8948 1df8 82FB0312 		smull	r1, r2, r2, r3
 8949 1dfc DC17     		asrs	r4, r3, #31
 8950              	.LVL1022:
 8951              		.loc 3 238 12 view .LVU2478
 8952 1dfe C4EBA214 		rsb	r4, r4, r2, asr #6
 8953 1e02 24B2     		sxth	r4, r4
 8954 1e04 FEF776BC 		b	.L172
 8955              	.LVL1023:
 8956              	.L450:
 8957              		.loc 3 238 12 view .LVU2479
 8958              	.LBE752:
 8959              	.LBE751:
 8960              	.LBB753:
 8961              	.LBB475:
 8962 1e08 2046     		mov	r0, r4
 8963 1e0a FFF7FEFF 		bl	lv_disp_get_dpi
 8964              	.LVL1024:
 8965 1e0e 00EB8000 		add	r0, r0, r0, lsl #2
 8966 1e12 4300     		lsls	r3, r0, #1
 8967 1e14 5033     		adds	r3, r3, #80
 8968 1e16 A74A     		ldr	r2, .L594
 8969 1e18 82FB0312 		smull	r1, r2, r2, r3
 8970 1e1c DC17     		asrs	r4, r3, #31
 8971              	.LVL1025:
 8972              		.loc 3 238 12 view .LVU2480
 8973 1e1e C4EBA214 		rsb	r4, r4, r2, asr #6
 8974 1e22 24B2     		sxth	r4, r4
ARM GAS  /var/folders/k2/cd9bl_j17z77g23y6ffqb_400000gn/T//ccRoPncs.s 			page 239


 8975 1e24 FEF766BC 		b	.L172
 8976              	.LVL1026:
 8977              	.L451:
 8978              		.loc 3 238 12 view .LVU2481
 8979              	.LBE475:
 8980              	.LBE753:
 310:lvgl/src/extra/themes/default/lv_theme_default.c **** 
 8981              		.loc 1 310 46 discriminator 1 view .LVU2482
 8982 1e28 A34B     		ldr	r3, .L594+4
 8983 1e2a DC68     		ldr	r4, [r3, #12]
 8984              	.LVL1027:
 8985              	.LBB754:
 8986              	.LBI754:
 236:lvgl/src/extra/themes/default/../../../../src/core/lv_disp.h **** {
 8987              		.loc 3 236 26 is_stmt 1 discriminator 1 view .LVU2483
 8988              	.LBB755:
 8989              		.loc 3 238 5 discriminator 1 view .LVU2484
 8990              		.loc 3 238 12 is_stmt 0 discriminator 1 view .LVU2485
 8991 1e2c 2046     		mov	r0, r4
 8992 1e2e FFF7FEFF 		bl	lv_disp_get_dpi
 8993              	.LVL1028:
 8994 1e32 C0EBC000 		rsb	r0, r0, r0, lsl #3
 8995 1e36 4000     		lsls	r0, r0, #1
 8996 1e38 EF28     		cmp	r0, #239
 8997 1e3a 02DC     		bgt	.L545
 8998              		.loc 3 238 12 view .LVU2486
 8999 1e3c 0124     		movs	r4, #1
 9000              	.LVL1029:
 9001              		.loc 3 238 12 view .LVU2487
 9002 1e3e FEF780BC 		b	.L178
 9003              	.LVL1030:
 9004              	.L545:
 9005              		.loc 3 238 12 view .LVU2488
 9006 1e42 2046     		mov	r0, r4
 9007 1e44 FFF7FEFF 		bl	lv_disp_get_dpi
 9008              	.LVL1031:
 9009 1e48 C0EBC000 		rsb	r0, r0, r0, lsl #3
 9010 1e4c 4300     		lsls	r3, r0, #1
 9011 1e4e 5033     		adds	r3, r3, #80
 9012 1e50 984A     		ldr	r2, .L594
 9013 1e52 82FB0312 		smull	r1, r2, r2, r3
 9014 1e56 DC17     		asrs	r4, r3, #31
 9015              	.LVL1032:
 9016              		.loc 3 238 12 view .LVU2489
 9017 1e58 C4EBA214 		rsb	r4, r4, r2, asr #6
 9018 1e5c 24B2     		sxth	r4, r4
 9019 1e5e FEF770BC 		b	.L178
 9020              	.LVL1033:
 9021              	.L452:
 9022              		.loc 3 238 12 view .LVU2490
 9023              	.LBE755:
 9024              	.LBE754:
 310:lvgl/src/extra/themes/default/lv_theme_default.c **** 
 9025              		.loc 1 310 46 discriminator 4 view .LVU2491
 9026 1e62 954B     		ldr	r3, .L594+4
 9027 1e64 DC68     		ldr	r4, [r3, #12]
 9028              	.LVL1034:
ARM GAS  /var/folders/k2/cd9bl_j17z77g23y6ffqb_400000gn/T//ccRoPncs.s 			page 240


 9029              	.LBB756:
 9030              	.LBI756:
 236:lvgl/src/extra/themes/default/../../../../src/core/lv_disp.h **** {
 9031              		.loc 3 236 26 is_stmt 1 discriminator 4 view .LVU2492
 9032              	.LBB757:
 9033              		.loc 3 238 5 discriminator 4 view .LVU2493
 9034              		.loc 3 238 12 is_stmt 0 discriminator 4 view .LVU2494
 9035 1e66 2046     		mov	r0, r4
 9036 1e68 FFF7FEFF 		bl	lv_disp_get_dpi
 9037              	.LVL1035:
 9038 1e6c 00EB4000 		add	r0, r0, r0, lsl #1
 9039 1e70 8000     		lsls	r0, r0, #2
 9040 1e72 EF28     		cmp	r0, #239
 9041 1e74 02DC     		bgt	.L546
 9042              		.loc 3 238 12 view .LVU2495
 9043 1e76 0124     		movs	r4, #1
 9044              	.LVL1036:
 9045              		.loc 3 238 12 view .LVU2496
 9046 1e78 FEF763BC 		b	.L178
 9047              	.LVL1037:
 9048              	.L546:
 9049              		.loc 3 238 12 view .LVU2497
 9050 1e7c 2046     		mov	r0, r4
 9051 1e7e FFF7FEFF 		bl	lv_disp_get_dpi
 9052              	.LVL1038:
 9053 1e82 00EB4000 		add	r0, r0, r0, lsl #1
 9054 1e86 8300     		lsls	r3, r0, #2
 9055 1e88 5033     		adds	r3, r3, #80
 9056 1e8a 8A4A     		ldr	r2, .L594
 9057 1e8c 82FB0312 		smull	r1, r2, r2, r3
 9058 1e90 DC17     		asrs	r4, r3, #31
 9059              	.LVL1039:
 9060              		.loc 3 238 12 view .LVU2498
 9061 1e92 C4EBA214 		rsb	r4, r4, r2, asr #6
 9062 1e96 24B2     		sxth	r4, r4
 9063 1e98 FEF753BC 		b	.L178
 9064              	.LVL1040:
 9065              	.L453:
 9066              		.loc 3 238 12 view .LVU2499
 9067              	.LBE757:
 9068              	.LBE756:
 9069              	.LBB758:
 9070              	.LBB480:
 9071 1e9c 2046     		mov	r0, r4
 9072 1e9e FFF7FEFF 		bl	lv_disp_get_dpi
 9073              	.LVL1041:
 9074 1ea2 00EB8000 		add	r0, r0, r0, lsl #2
 9075 1ea6 4300     		lsls	r3, r0, #1
 9076 1ea8 5033     		adds	r3, r3, #80
 9077 1eaa 824A     		ldr	r2, .L594
 9078 1eac 82FB0312 		smull	r1, r2, r2, r3
 9079 1eb0 DC17     		asrs	r4, r3, #31
 9080              	.LVL1042:
 9081              		.loc 3 238 12 view .LVU2500
 9082 1eb2 C4EBA214 		rsb	r4, r4, r2, asr #6
 9083 1eb6 24B2     		sxth	r4, r4
 9084 1eb8 FEF743BC 		b	.L178
ARM GAS  /var/folders/k2/cd9bl_j17z77g23y6ffqb_400000gn/T//ccRoPncs.s 			page 241


 9085              	.LVL1043:
 9086              	.L454:
 9087              		.loc 3 238 12 view .LVU2501
 9088              	.LBE480:
 9089              	.LBE758:
 9090              	.LBB759:
 9091              	.LBB485:
 9092 1ebc 2846     		mov	r0, r5
 9093 1ebe FFF7FEFF 		bl	lv_disp_get_dpi
 9094              	.LVL1044:
 9095 1ec2 00EB8000 		add	r0, r0, r0, lsl #2
 9096 1ec6 4300     		lsls	r3, r0, #1
 9097 1ec8 5033     		adds	r3, r3, #80
 9098 1eca 7A4A     		ldr	r2, .L594
 9099 1ecc 82FB0312 		smull	r1, r2, r2, r3
 9100 1ed0 D917     		asrs	r1, r3, #31
 9101 1ed2 C1EBA211 		rsb	r1, r1, r2, asr #6
 9102 1ed6 09B2     		sxth	r1, r1
 9103 1ed8 FEF74EBC 		b	.L182
 9104              	.LVL1045:
 9105              	.L455:
 9106              		.loc 3 238 12 view .LVU2502
 9107              	.LBE485:
 9108              	.LBE759:
 9109              	.LBB760:
 9110              	.LBB488:
 9111 1edc 2846     		mov	r0, r5
 9112 1ede FFF7FEFF 		bl	lv_disp_get_dpi
 9113              	.LVL1046:
 9114 1ee2 00EB8000 		add	r0, r0, r0, lsl #2
 9115 1ee6 4300     		lsls	r3, r0, #1
 9116 1ee8 5033     		adds	r3, r3, #80
 9117 1eea 724A     		ldr	r2, .L594
 9118 1eec 82FB0312 		smull	r1, r2, r2, r3
 9119 1ef0 D917     		asrs	r1, r3, #31
 9120 1ef2 C1EBA211 		rsb	r1, r1, r2, asr #6
 9121 1ef6 09B2     		sxth	r1, r1
 9122 1ef8 FEF750BC 		b	.L183
 9123              	.LVL1047:
 9124              	.L456:
 9125              		.loc 3 238 12 view .LVU2503
 9126              	.LBE488:
 9127              	.LBE760:
 9128              	.LBB761:
 9129              	.LBB491:
 9130 1efc 2846     		mov	r0, r5
 9131 1efe FFF7FEFF 		bl	lv_disp_get_dpi
 9132              	.LVL1048:
 9133 1f02 00EB8000 		add	r0, r0, r0, lsl #2
 9134 1f06 8300     		lsls	r3, r0, #2
 9135 1f08 5033     		adds	r3, r3, #80
 9136 1f0a 6A4A     		ldr	r2, .L594
 9137 1f0c 82FB0312 		smull	r1, r2, r2, r3
 9138 1f10 D917     		asrs	r1, r3, #31
 9139 1f12 C1EBA211 		rsb	r1, r1, r2, asr #6
 9140 1f16 09B2     		sxth	r1, r1
 9141 1f18 FEF756BC 		b	.L184
ARM GAS  /var/folders/k2/cd9bl_j17z77g23y6ffqb_400000gn/T//ccRoPncs.s 			page 242


 9142              	.LVL1049:
 9143              	.L457:
 9144              		.loc 3 238 12 view .LVU2504
 9145              	.LBE491:
 9146              	.LBE761:
 328:lvgl/src/extra/themes/default/lv_theme_default.c ****     lv_style_set_pad_row(&styles->pad_tiny, PAD_TINY);
 9147              		.loc 1 328 45 discriminator 1 view .LVU2505
 9148 1f1c 664B     		ldr	r3, .L594+4
 9149 1f1e DC68     		ldr	r4, [r3, #12]
 9150              	.LVL1050:
 9151              	.LBB762:
 9152              	.LBI762:
 236:lvgl/src/extra/themes/default/../../../../src/core/lv_disp.h **** {
 9153              		.loc 3 236 26 is_stmt 1 discriminator 1 view .LVU2506
 9154              	.LBB763:
 9155              		.loc 3 238 5 discriminator 1 view .LVU2507
 9156              		.loc 3 238 12 is_stmt 0 discriminator 1 view .LVU2508
 9157 1f20 2046     		mov	r0, r4
 9158 1f22 FFF7FEFF 		bl	lv_disp_get_dpi
 9159              	.LVL1051:
 9160 1f26 C000     		lsls	r0, r0, #3
 9161 1f28 EF28     		cmp	r0, #239
 9162 1f2a 02DC     		bgt	.L547
 9163              		.loc 3 238 12 view .LVU2509
 9164 1f2c 0124     		movs	r4, #1
 9165              	.LVL1052:
 9166              		.loc 3 238 12 view .LVU2510
 9167 1f2e FEF790BC 		b	.L187
 9168              	.LVL1053:
 9169              	.L547:
 9170              		.loc 3 238 12 view .LVU2511
 9171 1f32 2046     		mov	r0, r4
 9172 1f34 FFF7FEFF 		bl	lv_disp_get_dpi
 9173              	.LVL1054:
 9174 1f38 C000     		lsls	r0, r0, #3
 9175 1f3a 5030     		adds	r0, r0, #80
 9176 1f3c 5D4B     		ldr	r3, .L594
 9177 1f3e 83FB0023 		smull	r2, r3, r3, r0
 9178 1f42 C417     		asrs	r4, r0, #31
 9179              	.LVL1055:
 9180              		.loc 3 238 12 view .LVU2512
 9181 1f44 C4EBA314 		rsb	r4, r4, r3, asr #6
 9182 1f48 24B2     		sxth	r4, r4
 9183 1f4a FEF782BC 		b	.L187
 9184              	.LVL1056:
 9185              	.L458:
 9186              		.loc 3 238 12 view .LVU2513
 9187              	.LBE763:
 9188              	.LBE762:
 328:lvgl/src/extra/themes/default/lv_theme_default.c ****     lv_style_set_pad_row(&styles->pad_tiny, PAD_TINY);
 9189              		.loc 1 328 45 discriminator 4 view .LVU2514
 9190 1f4e 5A4B     		ldr	r3, .L594+4
 9191 1f50 DC68     		ldr	r4, [r3, #12]
 9192              	.LVL1057:
 9193              	.LBB764:
 9194              	.LBI764:
 236:lvgl/src/extra/themes/default/../../../../src/core/lv_disp.h **** {
ARM GAS  /var/folders/k2/cd9bl_j17z77g23y6ffqb_400000gn/T//ccRoPncs.s 			page 243


 9195              		.loc 3 236 26 is_stmt 1 discriminator 4 view .LVU2515
 9196              	.LBB765:
 9197              		.loc 3 238 5 discriminator 4 view .LVU2516
 9198              		.loc 3 238 12 is_stmt 0 discriminator 4 view .LVU2517
 9199 1f52 2046     		mov	r0, r4
 9200 1f54 FFF7FEFF 		bl	lv_disp_get_dpi
 9201              	.LVL1058:
 9202 1f58 00EB4000 		add	r0, r0, r0, lsl #1
 9203 1f5c 4000     		lsls	r0, r0, #1
 9204 1f5e EF28     		cmp	r0, #239
 9205 1f60 02DC     		bgt	.L548
 9206              		.loc 3 238 12 view .LVU2518
 9207 1f62 0124     		movs	r4, #1
 9208              	.LVL1059:
 9209              		.loc 3 238 12 view .LVU2519
 9210 1f64 FEF775BC 		b	.L187
 9211              	.LVL1060:
 9212              	.L548:
 9213              		.loc 3 238 12 view .LVU2520
 9214 1f68 2046     		mov	r0, r4
 9215 1f6a FFF7FEFF 		bl	lv_disp_get_dpi
 9216              	.LVL1061:
 9217 1f6e 00EB4000 		add	r0, r0, r0, lsl #1
 9218 1f72 4300     		lsls	r3, r0, #1
 9219 1f74 5033     		adds	r3, r3, #80
 9220 1f76 4F4A     		ldr	r2, .L594
 9221 1f78 82FB0312 		smull	r1, r2, r2, r3
 9222 1f7c DC17     		asrs	r4, r3, #31
 9223              	.LVL1062:
 9224              		.loc 3 238 12 view .LVU2521
 9225 1f7e C4EBA214 		rsb	r4, r4, r2, asr #6
 9226 1f82 24B2     		sxth	r4, r4
 9227 1f84 FEF765BC 		b	.L187
 9228              	.LVL1063:
 9229              	.L459:
 9230              		.loc 3 238 12 view .LVU2522
 9231              	.LBE765:
 9232              	.LBE764:
 9233              	.LBB766:
 9234              	.LBB496:
 9235 1f88 2046     		mov	r0, r4
 9236 1f8a FFF7FEFF 		bl	lv_disp_get_dpi
 9237              	.LVL1064:
 9238 1f8e 4300     		lsls	r3, r0, #1
 9239 1f90 5033     		adds	r3, r3, #80
 9240 1f92 484A     		ldr	r2, .L594
 9241 1f94 82FB0312 		smull	r1, r2, r2, r3
 9242 1f98 DC17     		asrs	r4, r3, #31
 9243              	.LVL1065:
 9244              		.loc 3 238 12 view .LVU2523
 9245 1f9a C4EBA214 		rsb	r4, r4, r2, asr #6
 9246 1f9e 24B2     		sxth	r4, r4
 9247 1fa0 FEF757BC 		b	.L187
 9248              	.LVL1066:
 9249              	.L460:
 9250              		.loc 3 238 12 view .LVU2524
 9251              	.LBE496:
ARM GAS  /var/folders/k2/cd9bl_j17z77g23y6ffqb_400000gn/T//ccRoPncs.s 			page 244


 9252              	.LBE766:
 329:lvgl/src/extra/themes/default/lv_theme_default.c ****     lv_style_set_pad_column(&styles->pad_tiny, PAD_TINY);
 9253              		.loc 1 329 45 discriminator 1 view .LVU2525
 9254 1fa4 444B     		ldr	r3, .L594+4
 9255 1fa6 DD68     		ldr	r5, [r3, #12]
 9256              	.LVL1067:
 9257              	.LBB767:
 9258              	.LBI767:
 236:lvgl/src/extra/themes/default/../../../../src/core/lv_disp.h **** {
 9259              		.loc 3 236 26 is_stmt 1 discriminator 1 view .LVU2526
 9260              	.LBB768:
 9261              		.loc 3 238 5 discriminator 1 view .LVU2527
 9262              		.loc 3 238 12 is_stmt 0 discriminator 1 view .LVU2528
 9263 1fa8 2846     		mov	r0, r5
 9264 1faa FFF7FEFF 		bl	lv_disp_get_dpi
 9265              	.LVL1068:
 9266 1fae C000     		lsls	r0, r0, #3
 9267 1fb0 EF28     		cmp	r0, #239
 9268 1fb2 02DC     		bgt	.L549
 9269              		.loc 3 238 12 view .LVU2529
 9270 1fb4 0121     		movs	r1, #1
 9271              	.LVL1069:
 9272              		.loc 3 238 12 view .LVU2530
 9273 1fb6 FEF771BC 		b	.L193
 9274              	.LVL1070:
 9275              	.L549:
 9276              		.loc 3 238 12 view .LVU2531
 9277 1fba 2846     		mov	r0, r5
 9278 1fbc FFF7FEFF 		bl	lv_disp_get_dpi
 9279              	.LVL1071:
 9280 1fc0 C000     		lsls	r0, r0, #3
 9281 1fc2 5030     		adds	r0, r0, #80
 9282 1fc4 3B4B     		ldr	r3, .L594
 9283 1fc6 83FB0023 		smull	r2, r3, r3, r0
 9284 1fca C117     		asrs	r1, r0, #31
 9285 1fcc C1EBA311 		rsb	r1, r1, r3, asr #6
 9286 1fd0 09B2     		sxth	r1, r1
 9287 1fd2 FEF763BC 		b	.L193
 9288              	.LVL1072:
 9289              	.L461:
 9290              		.loc 3 238 12 view .LVU2532
 9291              	.LBE768:
 9292              	.LBE767:
 329:lvgl/src/extra/themes/default/lv_theme_default.c ****     lv_style_set_pad_column(&styles->pad_tiny, PAD_TINY);
 9293              		.loc 1 329 45 discriminator 4 view .LVU2533
 9294 1fd6 384B     		ldr	r3, .L594+4
 9295 1fd8 DD68     		ldr	r5, [r3, #12]
 9296              	.LVL1073:
 9297              	.LBB769:
 9298              	.LBI769:
 236:lvgl/src/extra/themes/default/../../../../src/core/lv_disp.h **** {
 9299              		.loc 3 236 26 is_stmt 1 discriminator 4 view .LVU2534
 9300              	.LBB770:
 9301              		.loc 3 238 5 discriminator 4 view .LVU2535
 9302              		.loc 3 238 12 is_stmt 0 discriminator 4 view .LVU2536
 9303 1fda 2846     		mov	r0, r5
 9304 1fdc FFF7FEFF 		bl	lv_disp_get_dpi
ARM GAS  /var/folders/k2/cd9bl_j17z77g23y6ffqb_400000gn/T//ccRoPncs.s 			page 245


 9305              	.LVL1074:
 9306 1fe0 00EB4000 		add	r0, r0, r0, lsl #1
 9307 1fe4 4000     		lsls	r0, r0, #1
 9308 1fe6 EF28     		cmp	r0, #239
 9309 1fe8 02DC     		bgt	.L550
 9310              		.loc 3 238 12 view .LVU2537
 9311 1fea 0121     		movs	r1, #1
 9312              	.LVL1075:
 9313              		.loc 3 238 12 view .LVU2538
 9314 1fec FEF756BC 		b	.L193
 9315              	.LVL1076:
 9316              	.L550:
 9317              		.loc 3 238 12 view .LVU2539
 9318 1ff0 2846     		mov	r0, r5
 9319 1ff2 FFF7FEFF 		bl	lv_disp_get_dpi
 9320              	.LVL1077:
 9321 1ff6 00EB4000 		add	r0, r0, r0, lsl #1
 9322 1ffa 4300     		lsls	r3, r0, #1
 9323 1ffc 5033     		adds	r3, r3, #80
 9324 1ffe 2D4A     		ldr	r2, .L594
 9325 2000 82FB0312 		smull	r1, r2, r2, r3
 9326 2004 D917     		asrs	r1, r3, #31
 9327 2006 C1EBA211 		rsb	r1, r1, r2, asr #6
 9328 200a 09B2     		sxth	r1, r1
 9329 200c FEF746BC 		b	.L193
 9330              	.LVL1078:
 9331              	.L462:
 9332              		.loc 3 238 12 view .LVU2540
 9333              	.LBE770:
 9334              	.LBE769:
 9335              	.LBB771:
 9336              	.LBB501:
 9337 2010 2846     		mov	r0, r5
 9338 2012 FFF7FEFF 		bl	lv_disp_get_dpi
 9339              	.LVL1079:
 9340 2016 4300     		lsls	r3, r0, #1
 9341 2018 5033     		adds	r3, r3, #80
 9342 201a 264A     		ldr	r2, .L594
 9343 201c 82FB0312 		smull	r1, r2, r2, r3
 9344 2020 D917     		asrs	r1, r3, #31
 9345 2022 C1EBA211 		rsb	r1, r1, r2, asr #6
 9346 2026 09B2     		sxth	r1, r1
 9347 2028 FEF738BC 		b	.L193
 9348              	.LVL1080:
 9349              	.L463:
 9350              		.loc 3 238 12 view .LVU2541
 9351              	.LBE501:
 9352              	.LBE771:
 330:lvgl/src/extra/themes/default/lv_theme_default.c **** 
 9353              		.loc 1 330 48 discriminator 1 view .LVU2542
 9354 202c 224B     		ldr	r3, .L594+4
 9355 202e DD68     		ldr	r5, [r3, #12]
 9356              	.LVL1081:
 9357              	.LBB772:
 9358              	.LBI772:
 236:lvgl/src/extra/themes/default/../../../../src/core/lv_disp.h **** {
 9359              		.loc 3 236 26 is_stmt 1 discriminator 1 view .LVU2543
ARM GAS  /var/folders/k2/cd9bl_j17z77g23y6ffqb_400000gn/T//ccRoPncs.s 			page 246


 9360              	.LBB773:
 9361              		.loc 3 238 5 discriminator 1 view .LVU2544
 9362              		.loc 3 238 12 is_stmt 0 discriminator 1 view .LVU2545
 9363 2030 2846     		mov	r0, r5
 9364 2032 FFF7FEFF 		bl	lv_disp_get_dpi
 9365              	.LVL1082:
 9366 2036 C000     		lsls	r0, r0, #3
 9367 2038 EF28     		cmp	r0, #239
 9368 203a 02DC     		bgt	.L551
 9369              		.loc 3 238 12 view .LVU2546
 9370 203c 0121     		movs	r1, #1
 9371              	.LVL1083:
 9372              		.loc 3 238 12 view .LVU2547
 9373 203e FEF745BC 		b	.L199
 9374              	.LVL1084:
 9375              	.L551:
 9376              		.loc 3 238 12 view .LVU2548
 9377 2042 2846     		mov	r0, r5
 9378 2044 FFF7FEFF 		bl	lv_disp_get_dpi
 9379              	.LVL1085:
 9380 2048 C000     		lsls	r0, r0, #3
 9381 204a 5030     		adds	r0, r0, #80
 9382 204c 194B     		ldr	r3, .L594
 9383 204e 83FB0023 		smull	r2, r3, r3, r0
 9384 2052 C117     		asrs	r1, r0, #31
 9385 2054 C1EBA311 		rsb	r1, r1, r3, asr #6
 9386 2058 09B2     		sxth	r1, r1
 9387 205a FEF737BC 		b	.L199
 9388              	.LVL1086:
 9389              	.L464:
 9390              		.loc 3 238 12 view .LVU2549
 9391              	.LBE773:
 9392              	.LBE772:
 330:lvgl/src/extra/themes/default/lv_theme_default.c **** 
 9393              		.loc 1 330 48 discriminator 4 view .LVU2550
 9394 205e 164B     		ldr	r3, .L594+4
 9395 2060 DD68     		ldr	r5, [r3, #12]
 9396              	.LVL1087:
 9397              	.LBB774:
 9398              	.LBI774:
 236:lvgl/src/extra/themes/default/../../../../src/core/lv_disp.h **** {
 9399              		.loc 3 236 26 is_stmt 1 discriminator 4 view .LVU2551
 9400              	.LBB775:
 9401              		.loc 3 238 5 discriminator 4 view .LVU2552
 9402              		.loc 3 238 12 is_stmt 0 discriminator 4 view .LVU2553
 9403 2062 2846     		mov	r0, r5
 9404 2064 FFF7FEFF 		bl	lv_disp_get_dpi
 9405              	.LVL1088:
 9406 2068 00EB4000 		add	r0, r0, r0, lsl #1
 9407 206c 4000     		lsls	r0, r0, #1
 9408 206e EF28     		cmp	r0, #239
 9409 2070 02DC     		bgt	.L552
 9410              		.loc 3 238 12 view .LVU2554
 9411 2072 0121     		movs	r1, #1
 9412              	.LVL1089:
 9413              		.loc 3 238 12 view .LVU2555
 9414 2074 FEF72ABC 		b	.L199
ARM GAS  /var/folders/k2/cd9bl_j17z77g23y6ffqb_400000gn/T//ccRoPncs.s 			page 247


 9415              	.LVL1090:
 9416              	.L552:
 9417              		.loc 3 238 12 view .LVU2556
 9418 2078 2846     		mov	r0, r5
 9419 207a FFF7FEFF 		bl	lv_disp_get_dpi
 9420              	.LVL1091:
 9421 207e 00EB4000 		add	r0, r0, r0, lsl #1
 9422 2082 4300     		lsls	r3, r0, #1
 9423 2084 5033     		adds	r3, r3, #80
 9424 2086 0B4A     		ldr	r2, .L594
 9425 2088 82FB0312 		smull	r1, r2, r2, r3
 9426 208c D917     		asrs	r1, r3, #31
 9427 208e C1EBA211 		rsb	r1, r1, r2, asr #6
 9428 2092 09B2     		sxth	r1, r1
 9429 2094 FEF71ABC 		b	.L199
 9430              	.LVL1092:
 9431              	.L465:
 9432              		.loc 3 238 12 view .LVU2557
 9433              	.LBE775:
 9434              	.LBE774:
 9435              	.LBB776:
 9436              	.LBB504:
 9437 2098 2846     		mov	r0, r5
 9438 209a FFF7FEFF 		bl	lv_disp_get_dpi
 9439              	.LVL1093:
 9440 209e 4300     		lsls	r3, r0, #1
 9441 20a0 5033     		adds	r3, r3, #80
 9442 20a2 044A     		ldr	r2, .L594
 9443 20a4 82FB0312 		smull	r1, r2, r2, r3
 9444 20a8 D917     		asrs	r1, r3, #31
 9445 20aa C1EBA211 		rsb	r1, r1, r2, asr #6
 9446 20ae 09B2     		sxth	r1, r1
 9447 20b0 FEF70CBC 		b	.L199
 9448              	.L595:
 9449              		.align	2
 9450              	.L594:
 9451 20b4 67666666 		.word	1717986919
 9452 20b8 00000000 		.word	.LANCHOR3
 9453              	.LVL1094:
 9454              	.L466:
 9455              		.loc 3 238 12 view .LVU2558
 9456              	.LBE504:
 9457              	.LBE776:
 9458              	.LBB777:
 9459              	.LBB515:
 9460 20bc 2846     		mov	r0, r5
 9461 20be FFF7FEFF 		bl	lv_disp_get_dpi
 9462              	.LVL1095:
 9463 20c2 00EB4000 		add	r0, r0, r0, lsl #1
 9464 20c6 00F15003 		add	r3, r0, #80
 9465 20ca D84A     		ldr	r2, .L596
 9466 20cc 82FB0312 		smull	r1, r2, r2, r3
 9467 20d0 D917     		asrs	r1, r3, #31
 9468 20d2 C1EBA211 		rsb	r1, r1, r2, asr #6
 9469 20d6 09B2     		sxth	r1, r1
 9470 20d8 FEF79FBC 		b	.L203
 9471              	.LVL1096:
ARM GAS  /var/folders/k2/cd9bl_j17z77g23y6ffqb_400000gn/T//ccRoPncs.s 			page 248


 9472              	.L467:
 9473              		.loc 3 238 12 view .LVU2559
 9474              	.LBE515:
 9475              	.LBE777:
 9476              	.LBB778:
 9477              	.LBB518:
 9478 20dc 2846     		mov	r0, r5
 9479 20de FFF7FEFF 		bl	lv_disp_get_dpi
 9480              	.LVL1097:
 9481 20e2 00EB4000 		add	r0, r0, r0, lsl #1
 9482 20e6 00F15003 		add	r3, r0, #80
 9483 20ea D04A     		ldr	r2, .L596
 9484 20ec 82FB0312 		smull	r1, r2, r2, r3
 9485 20f0 D917     		asrs	r1, r3, #31
 9486 20f2 C1EBA211 		rsb	r1, r1, r2, asr #6
 9487 20f6 09B2     		sxth	r1, r1
 9488 20f8 FEF7A0BC 		b	.L204
 9489              	.LVL1098:
 9490              	.L468:
 9491              		.loc 3 238 12 view .LVU2560
 9492              	.LBE518:
 9493              	.LBE778:
 9494              	.LBB779:
 9495              	.LBB521:
 9496 20fc 2046     		mov	r0, r4
 9497 20fe FFF7FEFF 		bl	lv_disp_get_dpi
 9498              	.LVL1099:
 9499 2102 00EB4000 		add	r0, r0, r0, lsl #1
 9500 2106 4300     		lsls	r3, r0, #1
 9501 2108 5033     		adds	r3, r3, #80
 9502 210a C84A     		ldr	r2, .L596
 9503 210c 82FB0312 		smull	r1, r2, r2, r3
 9504 2110 DC17     		asrs	r4, r3, #31
 9505              	.LVL1100:
 9506              		.loc 3 238 12 view .LVU2561
 9507 2112 C4EBA214 		rsb	r4, r4, r2, asr #6
 9508 2116 24B2     		sxth	r4, r4
 9509 2118 FEF7B0BC 		b	.L205
 9510              	.LVL1101:
 9511              	.L469:
 9512              		.loc 3 238 12 view .LVU2562
 9513              	.LBE521:
 9514              	.LBE779:
 9515              	.LBB780:
 9516              	.LBB526:
 9517 211c 2846     		mov	r0, r5
 9518 211e FFF7FEFF 		bl	lv_disp_get_dpi
 9519              	.LVL1102:
 9520 2122 C0EB0010 		rsb	r0, r0, r0, lsl #4
 9521 2126 00F15003 		add	r3, r0, #80
 9522 212a C04A     		ldr	r2, .L596
 9523 212c 82FB0312 		smull	r1, r2, r2, r3
 9524 2130 D917     		asrs	r1, r3, #31
 9525 2132 C1EBA211 		rsb	r1, r1, r2, asr #6
 9526 2136 09B2     		sxth	r1, r1
 9527 2138 FEF7D7BC 		b	.L206
 9528              	.LVL1103:
ARM GAS  /var/folders/k2/cd9bl_j17z77g23y6ffqb_400000gn/T//ccRoPncs.s 			page 249


 9529              	.L470:
 9530              		.loc 3 238 12 view .LVU2563
 9531              	.LBE526:
 9532              	.LBE780:
 9533              	.LBB781:
 9534              	.LBB529:
 9535 213c 2046     		mov	r0, r4
 9536 213e FFF7FEFF 		bl	lv_disp_get_dpi
 9537              	.LVL1104:
 9538 2142 00EB4000 		add	r0, r0, r0, lsl #1
 9539 2146 00F15003 		add	r3, r0, #80
 9540 214a B84A     		ldr	r2, .L596
 9541 214c 82FB0312 		smull	r1, r2, r2, r3
 9542 2150 DC17     		asrs	r4, r3, #31
 9543              	.LVL1105:
 9544              		.loc 3 238 12 view .LVU2564
 9545 2152 C4EBA214 		rsb	r4, r4, r2, asr #6
 9546 2156 24B2     		sxth	r4, r4
 9547 2158 FEF7FABC 		b	.L207
 9548              	.LVL1106:
 9549              	.L471:
 9550              		.loc 3 238 12 view .LVU2565
 9551              	.LBE529:
 9552              	.LBE781:
 9553              	.LBB782:
 9554              	.LBB534:
 9555 215c 2846     		mov	r0, r5
 9556 215e FFF7FEFF 		bl	lv_disp_get_dpi
 9557              	.LVL1107:
 9558 2162 4300     		lsls	r3, r0, #1
 9559 2164 5033     		adds	r3, r3, #80
 9560 2166 B14A     		ldr	r2, .L596
 9561 2168 82FB0312 		smull	r1, r2, r2, r3
 9562 216c D917     		asrs	r1, r3, #31
 9563 216e C1EBA211 		rsb	r1, r1, r2, asr #6
 9564 2172 09B2     		sxth	r1, r1
 9565 2174 FEF70ABD 		b	.L208
 9566              	.LVL1108:
 9567              	.L472:
 9568              		.loc 3 238 12 view .LVU2566
 9569              	.LBE534:
 9570              	.LBE782:
 404:lvgl/src/extra/themes/default/lv_theme_default.c **** 
 9571              		.loc 1 404 45 discriminator 1 view .LVU2567
 9572 2178 AD4B     		ldr	r3, .L596+4
 9573 217a DD68     		ldr	r5, [r3, #12]
 9574              	.LVL1109:
 9575              	.LBB783:
 9576              	.LBI783:
 236:lvgl/src/extra/themes/default/../../../../src/core/lv_disp.h **** {
 9577              		.loc 3 236 26 is_stmt 1 discriminator 1 view .LVU2568
 9578              	.LBB784:
 9579              		.loc 3 238 5 discriminator 1 view .LVU2569
 9580              		.loc 3 238 12 is_stmt 0 discriminator 1 view .LVU2570
 9581 217c 2846     		mov	r0, r5
 9582 217e FFF7FEFF 		bl	lv_disp_get_dpi
 9583              	.LVL1110:
ARM GAS  /var/folders/k2/cd9bl_j17z77g23y6ffqb_400000gn/T//ccRoPncs.s 			page 250


 9584 2182 00EB4000 		add	r0, r0, r0, lsl #1
 9585 2186 8000     		lsls	r0, r0, #2
 9586 2188 EF28     		cmp	r0, #239
 9587 218a 05DC     		bgt	.L553
 9588              		.loc 3 238 12 view .LVU2571
 9589 218c 0121     		movs	r1, #1
 9590              	.L210:
 9591              	.LVL1111:
 9592              		.loc 3 238 12 view .LVU2572
 9593              	.LBE784:
 9594              	.LBE783:
 404:lvgl/src/extra/themes/default/lv_theme_default.c **** 
 9595              		.loc 1 404 5 view .LVU2573
 9596 218e 01EBD171 		add	r1, r1, r1, lsr #31
 9597 2192 4910     		asrs	r1, r1, #1
 9598 2194 FEF727BD 		b	.L211
 9599              	.LVL1112:
 9600              	.L553:
 9601              	.LBB786:
 9602              	.LBB785:
 9603              		.loc 3 238 12 view .LVU2574
 9604 2198 2846     		mov	r0, r5
 9605 219a FFF7FEFF 		bl	lv_disp_get_dpi
 9606              	.LVL1113:
 9607 219e 00EB4000 		add	r0, r0, r0, lsl #1
 9608 21a2 8300     		lsls	r3, r0, #2
 9609 21a4 5033     		adds	r3, r3, #80
 9610 21a6 A14A     		ldr	r2, .L596
 9611 21a8 82FB0312 		smull	r1, r2, r2, r3
 9612 21ac D917     		asrs	r1, r3, #31
 9613 21ae C1EBA211 		rsb	r1, r1, r2, asr #6
 9614 21b2 09B2     		sxth	r1, r1
 9615 21b4 EBE7     		b	.L210
 9616              	.LVL1114:
 9617              	.L473:
 9618              		.loc 3 238 12 view .LVU2575
 9619              	.LBE785:
 9620              	.LBE786:
 9621              	.LBB787:
 9622              	.LBB537:
 9623 21b6 2846     		mov	r0, r5
 9624 21b8 FFF7FEFF 		bl	lv_disp_get_dpi
 9625              	.LVL1115:
 9626 21bc C300     		lsls	r3, r0, #3
 9627 21be 5033     		adds	r3, r3, #80
 9628 21c0 9A4A     		ldr	r2, .L596
 9629 21c2 82FB0312 		smull	r1, r2, r2, r3
 9630 21c6 D917     		asrs	r1, r3, #31
 9631 21c8 C1EBA211 		rsb	r1, r1, r2, asr #6
 9632 21cc 09B2     		sxth	r1, r1
 9633 21ce FEF707BD 		b	.L212
 9634              	.LVL1116:
 9635              	.L474:
 9636              		.loc 3 238 12 view .LVU2576
 9637              	.LBE537:
 9638              	.LBE787:
 9639              	.LBB788:
ARM GAS  /var/folders/k2/cd9bl_j17z77g23y6ffqb_400000gn/T//ccRoPncs.s 			page 251


 9640              	.LBB544:
 9641 21d2 2046     		mov	r0, r4
 9642 21d4 FFF7FEFF 		bl	lv_disp_get_dpi
 9643              	.LVL1117:
 9644 21d8 8300     		lsls	r3, r0, #2
 9645 21da 5033     		adds	r3, r3, #80
 9646 21dc 934A     		ldr	r2, .L596
 9647 21de 82FB0312 		smull	r1, r2, r2, r3
 9648 21e2 DC17     		asrs	r4, r3, #31
 9649              	.LVL1118:
 9650              		.loc 3 238 12 view .LVU2577
 9651 21e4 C4EBA214 		rsb	r4, r4, r2, asr #6
 9652 21e8 24B2     		sxth	r4, r4
 9653 21ea FEF72ABD 		b	.L213
 9654              	.LVL1119:
 9655              	.L475:
 9656              		.loc 3 238 12 view .LVU2578
 9657              	.LBE544:
 9658              	.LBE788:
 9659              	.LBB789:
 9660              	.LBB553:
 9661 21ee 2846     		mov	r0, r5
 9662 21f0 FFF7FEFF 		bl	lv_disp_get_dpi
 9663              	.LVL1120:
 9664 21f4 00EB8000 		add	r0, r0, r0, lsl #2
 9665 21f8 4300     		lsls	r3, r0, #1
 9666 21fa 5033     		adds	r3, r3, #80
 9667 21fc 8B4A     		ldr	r2, .L596
 9668 21fe 82FB0312 		smull	r1, r2, r2, r3
 9669 2202 D917     		asrs	r1, r3, #31
 9670 2204 C1EBA211 		rsb	r1, r1, r2, asr #6
 9671 2208 09B2     		sxth	r1, r1
 9672 220a FEF771BD 		b	.L214
 9673              	.LVL1121:
 9674              	.L476:
 9675              		.loc 3 238 12 view .LVU2579
 9676              	.LBE553:
 9677              	.LBE789:
 9678              	.LBB790:
 9679              	.LBB556:
 9680 220e 2846     		mov	r0, r5
 9681 2210 FFF7FEFF 		bl	lv_disp_get_dpi
 9682              	.LVL1122:
 9683 2214 00EB4000 		add	r0, r0, r0, lsl #1
 9684 2218 00F15003 		add	r3, r0, #80
 9685 221c 834A     		ldr	r2, .L596
 9686 221e 82FB0312 		smull	r1, r2, r2, r3
 9687 2222 D917     		asrs	r1, r3, #31
 9688 2224 C1EBA211 		rsb	r1, r1, r2, asr #6
 9689 2228 09B2     		sxth	r1, r1
 9690 222a FEF77FBD 		b	.L215
 9691              	.LVL1123:
 9692              	.L477:
 9693              		.loc 3 238 12 view .LVU2580
 9694              	.LBE556:
 9695              	.LBE790:
 9696              	.LBB791:
ARM GAS  /var/folders/k2/cd9bl_j17z77g23y6ffqb_400000gn/T//ccRoPncs.s 			page 252


 9697              	.LBB559:
 9698 222e 2846     		mov	r0, r5
 9699 2230 FFF7FEFF 		bl	lv_disp_get_dpi
 9700              	.LVL1124:
 9701 2234 00EB4000 		add	r0, r0, r0, lsl #1
 9702 2238 00F15003 		add	r3, r0, #80
 9703 223c 7B4A     		ldr	r2, .L596
 9704 223e 82FB0312 		smull	r1, r2, r2, r3
 9705 2242 D917     		asrs	r1, r3, #31
 9706 2244 C1EBA211 		rsb	r1, r1, r2, asr #6
 9707 2248 09B2     		sxth	r1, r1
 9708 224a FEF781BD 		b	.L216
 9709              	.LVL1125:
 9710              	.L478:
 9711              		.loc 3 238 12 view .LVU2581
 9712              	.LBE559:
 9713              	.LBE791:
 9714              	.LBB792:
 9715              	.LBB562:
 9716 224e 2046     		mov	r0, r4
 9717 2250 FFF7FEFF 		bl	lv_disp_get_dpi
 9718              	.LVL1126:
 9719 2254 C300     		lsls	r3, r0, #3
 9720 2256 5033     		adds	r3, r3, #80
 9721 2258 744A     		ldr	r2, .L596
 9722 225a 82FB0312 		smull	r1, r2, r2, r3
 9723 225e DC17     		asrs	r4, r3, #31
 9724              	.LVL1127:
 9725              		.loc 3 238 12 view .LVU2582
 9726 2260 C4EBA214 		rsb	r4, r4, r2, asr #6
 9727 2264 24B2     		sxth	r4, r4
 9728 2266 FEF784BD 		b	.L217
 9729              	.LVL1128:
 9730              	.L479:
 9731              		.loc 3 238 12 view .LVU2583
 9732              	.LBE562:
 9733              	.LBE792:
 9734              	.LBB793:
 9735              	.LBB567:
 9736 226a 2846     		mov	r0, r5
 9737 226c FFF7FEFF 		bl	lv_disp_get_dpi
 9738              	.LVL1129:
 9739 2270 4300     		lsls	r3, r0, #1
 9740 2272 5033     		adds	r3, r3, #80
 9741 2274 6D4A     		ldr	r2, .L596
 9742 2276 82FB0312 		smull	r1, r2, r2, r3
 9743 227a D917     		asrs	r1, r3, #31
 9744 227c C1EBA211 		rsb	r1, r1, r2, asr #6
 9745 2280 09B2     		sxth	r1, r1
 9746 2282 FEF78CBD 		b	.L218
 9747              	.LVL1130:
 9748              	.L480:
 9749              		.loc 3 238 12 view .LVU2584
 9750              	.LBE567:
 9751              	.LBE793:
 9752              	.LBB794:
 9753              	.LBB570:
ARM GAS  /var/folders/k2/cd9bl_j17z77g23y6ffqb_400000gn/T//ccRoPncs.s 			page 253


 9754 2286 2046     		mov	r0, r4
 9755 2288 FFF7FEFF 		bl	lv_disp_get_dpi
 9756              	.LVL1131:
 9757 228c C300     		lsls	r3, r0, #3
 9758 228e 5033     		adds	r3, r3, #80
 9759 2290 664A     		ldr	r2, .L596
 9760 2292 82FB0312 		smull	r1, r2, r2, r3
 9761 2296 DC17     		asrs	r4, r3, #31
 9762              	.LVL1132:
 9763              		.loc 3 238 12 view .LVU2585
 9764 2298 C4EBA214 		rsb	r4, r4, r2, asr #6
 9765 229c 24B2     		sxth	r4, r4
 9766 229e FEF79BBD 		b	.L219
 9767              	.LVL1133:
 9768              	.L481:
 9769              		.loc 3 238 12 view .LVU2586
 9770              	.LBE570:
 9771              	.LBE794:
 9772              	.LBB795:
 9773              	.LBB575:
 9774 22a2 2846     		mov	r0, r5
 9775 22a4 FFF7FEFF 		bl	lv_disp_get_dpi
 9776              	.LVL1134:
 9777 22a8 5030     		adds	r0, r0, #80
 9778 22aa 604B     		ldr	r3, .L596
 9779 22ac 83FB0023 		smull	r2, r3, r3, r0
 9780 22b0 C117     		asrs	r1, r0, #31
 9781 22b2 C1EBA311 		rsb	r1, r1, r3, asr #6
 9782 22b6 09B2     		sxth	r1, r1
 9783 22b8 FEF7B4BD 		b	.L220
 9784              	.LVL1135:
 9785              	.L482:
 9786              		.loc 3 238 12 view .LVU2587
 9787              	.LBE575:
 9788              	.LBE795:
 9789              	.LBB796:
 9790              	.LBB578:
 9791 22bc 2046     		mov	r0, r4
 9792 22be FFF7FEFF 		bl	lv_disp_get_dpi
 9793              	.LVL1136:
 9794 22c2 4300     		lsls	r3, r0, #1
 9795 22c4 5033     		adds	r3, r3, #80
 9796 22c6 594A     		ldr	r2, .L596
 9797 22c8 82FB0312 		smull	r1, r2, r2, r3
 9798 22cc DC17     		asrs	r4, r3, #31
 9799              	.LVL1137:
 9800              		.loc 3 238 12 view .LVU2588
 9801 22ce C4EBA214 		rsb	r4, r4, r2, asr #6
 9802 22d2 24B2     		sxth	r4, r4
 9803 22d4 FEF7BEBD 		b	.L221
 9804              	.LVL1138:
 9805              	.L483:
 9806              		.loc 3 238 12 view .LVU2589
 9807              	.LBE578:
 9808              	.LBE796:
 9809              	.LBB797:
 9810              	.LBB583:
ARM GAS  /var/folders/k2/cd9bl_j17z77g23y6ffqb_400000gn/T//ccRoPncs.s 			page 254


 9811 22d8 2846     		mov	r0, r5
 9812 22da FFF7FEFF 		bl	lv_disp_get_dpi
 9813              	.LVL1139:
 9814 22de 00EB8000 		add	r0, r0, r0, lsl #2
 9815 22e2 00F15003 		add	r3, r0, #80
 9816 22e6 514A     		ldr	r2, .L596
 9817 22e8 82FB0312 		smull	r1, r2, r2, r3
 9818 22ec D917     		asrs	r1, r3, #31
 9819 22ee C1EBA211 		rsb	r1, r1, r2, asr #6
 9820 22f2 09B2     		sxth	r1, r1
 9821 22f4 FEF7DBBD 		b	.L222
 9822              	.LVL1140:
 9823              	.L484:
 9824              		.loc 3 238 12 view .LVU2590
 9825              	.LBE583:
 9826              	.LBE797:
 9827              	.LBB798:
 9828              	.LBB586:
 9829 22f8 2046     		mov	r0, r4
 9830 22fa FFF7FEFF 		bl	lv_disp_get_dpi
 9831              	.LVL1141:
 9832 22fe 00EB8000 		add	r0, r0, r0, lsl #2
 9833 2302 8300     		lsls	r3, r0, #2
 9834 2304 5033     		adds	r3, r3, #80
 9835 2306 494A     		ldr	r2, .L596
 9836 2308 82FB0312 		smull	r1, r2, r2, r3
 9837 230c DC17     		asrs	r4, r3, #31
 9838              	.LVL1142:
 9839              		.loc 3 238 12 view .LVU2591
 9840 230e C4EBA214 		rsb	r4, r4, r2, asr #6
 9841 2312 24B2     		sxth	r4, r4
 9842 2314 FEF7E5BD 		b	.L223
 9843              	.LVL1143:
 9844              	.L485:
 9845              		.loc 3 238 12 view .LVU2592
 9846              	.LBE586:
 9847              	.LBE798:
 9848              	.LBB799:
 9849              	.LBB591:
 9850 2318 2846     		mov	r0, r5
 9851 231a FFF7FEFF 		bl	lv_disp_get_dpi
 9852              	.LVL1144:
 9853 231e C0EB0010 		rsb	r0, r0, r0, lsl #4
 9854 2322 00F15003 		add	r3, r0, #80
 9855 2326 414A     		ldr	r2, .L596
 9856 2328 82FB0312 		smull	r1, r2, r2, r3
 9857 232c D917     		asrs	r1, r3, #31
 9858 232e C1EBA211 		rsb	r1, r1, r2, asr #6
 9859 2332 09B2     		sxth	r1, r1
 9860 2334 FEF7ECBD 		b	.L224
 9861              	.LVL1145:
 9862              	.L486:
 9863              		.loc 3 238 12 view .LVU2593
 9864              	.LBE591:
 9865              	.LBE799:
 9866              	.LBB800:
 9867              	.LBB594:
ARM GAS  /var/folders/k2/cd9bl_j17z77g23y6ffqb_400000gn/T//ccRoPncs.s 			page 255


 9868 2338 2046     		mov	r0, r4
 9869 233a FFF7FEFF 		bl	lv_disp_get_dpi
 9870              	.LVL1146:
 9871 233e C0EB0010 		rsb	r0, r0, r0, lsl #4
 9872 2342 00F15003 		add	r3, r0, #80
 9873 2346 394A     		ldr	r2, .L596
 9874 2348 82FB0312 		smull	r1, r2, r2, r3
 9875 234c DC17     		asrs	r4, r3, #31
 9876              	.LVL1147:
 9877              		.loc 3 238 12 view .LVU2594
 9878 234e C4EBA214 		rsb	r4, r4, r2, asr #6
 9879 2352 24B2     		sxth	r4, r4
 9880 2354 FEF707BE 		b	.L225
 9881              	.LVL1148:
 9882              	.L487:
 9883              		.loc 3 238 12 view .LVU2595
 9884              	.LBE594:
 9885              	.LBE800:
 9886              	.LBB801:
 9887              	.LBB599:
 9888 2358 2846     		mov	r0, r5
 9889 235a FFF7FEFF 		bl	lv_disp_get_dpi
 9890              	.LVL1149:
 9891 235e 5030     		adds	r0, r0, #80
 9892 2360 324B     		ldr	r3, .L596
 9893 2362 83FB0023 		smull	r2, r3, r3, r0
 9894 2366 C117     		asrs	r1, r0, #31
 9895 2368 C1EBA311 		rsb	r1, r1, r3, asr #6
 9896 236c 09B2     		sxth	r1, r1
 9897 236e FEF714BE 		b	.L226
 9898              	.LVL1150:
 9899              	.L488:
 9900              		.loc 3 238 12 view .LVU2596
 9901              	.LBE599:
 9902              	.LBE801:
 9903              	.LBB802:
 9904              	.LBB602:
 9905 2372 2846     		mov	r0, r5
 9906 2374 FFF7FEFF 		bl	lv_disp_get_dpi
 9907              	.LVL1151:
 9908 2378 4300     		lsls	r3, r0, #1
 9909 237a 5033     		adds	r3, r3, #80
 9910 237c 2B4A     		ldr	r2, .L596
 9911 237e 82FB0312 		smull	r1, r2, r2, r3
 9912 2382 D917     		asrs	r1, r3, #31
 9913 2384 C1EBA211 		rsb	r1, r1, r2, asr #6
 9914 2388 09B2     		sxth	r1, r1
 9915 238a FEF730BE 		b	.L227
 9916              	.LVL1152:
 9917              	.L489:
 9918              		.loc 3 238 12 view .LVU2597
 9919              	.LBE602:
 9920              	.LBE802:
 9921              	.LBB803:
 9922              	.LBB605:
 9923 238e 2846     		mov	r0, r5
 9924 2390 FFF7FEFF 		bl	lv_disp_get_dpi
ARM GAS  /var/folders/k2/cd9bl_j17z77g23y6ffqb_400000gn/T//ccRoPncs.s 			page 256


 9925              	.LVL1153:
 9926 2394 5030     		adds	r0, r0, #80
 9927 2396 254B     		ldr	r3, .L596
 9928 2398 83FB0023 		smull	r2, r3, r3, r0
 9929 239c C117     		asrs	r1, r0, #31
 9930 239e C1EBA311 		rsb	r1, r1, r3, asr #6
 9931 23a2 09B2     		sxth	r1, r1
 9932 23a4 FEF73DBE 		b	.L228
 9933              	.LVL1154:
 9934              	.L229:
 9935              		.loc 3 238 12 view .LVU2598
 9936              	.LBE605:
 9937              	.LBE803:
 479:lvgl/src/extra/themes/default/lv_theme_default.c **** #endif
 9938              		.loc 1 479 122 discriminator 2 view .LVU2599
 9939 23a8 0121     		movs	r1, #1
 9940 23aa 1220     		movs	r0, #18
 9941 23ac FFF7FEFF 		bl	lv_palette_lighten
 9942              	.LVL1155:
 9943 23b0 0146     		mov	r1, r0
 9944 23b2 FEF75ABE 		b	.L230
 9945              	.L490:
 484:lvgl/src/extra/themes/default/lv_theme_default.c ****     lv_style_set_pad_gap(&styles->calendar_bg, PAD_SMALL / 2);
 9946              		.loc 1 484 48 discriminator 1 view .LVU2600
 9947 23b6 1E4B     		ldr	r3, .L596+4
 9948 23b8 DC68     		ldr	r4, [r3, #12]
 9949              	.LVL1156:
 9950              	.LBB804:
 9951              	.LBI804:
 236:lvgl/src/extra/themes/default/../../../../src/core/lv_disp.h **** {
 9952              		.loc 3 236 26 is_stmt 1 discriminator 1 view .LVU2601
 9953              	.LBB805:
 9954              		.loc 3 238 5 discriminator 1 view .LVU2602
 9955              		.loc 3 238 12 is_stmt 0 discriminator 1 view .LVU2603
 9956 23ba 2046     		mov	r0, r4
 9957 23bc FFF7FEFF 		bl	lv_disp_get_dpi
 9958              	.LVL1157:
 9959 23c0 C0EBC000 		rsb	r0, r0, r0, lsl #3
 9960 23c4 4000     		lsls	r0, r0, #1
 9961 23c6 EF28     		cmp	r0, #239
 9962 23c8 02DC     		bgt	.L554
 9963              		.loc 3 238 12 view .LVU2604
 9964 23ca 0124     		movs	r4, #1
 9965              	.LVL1158:
 9966              		.loc 3 238 12 view .LVU2605
 9967 23cc FEF76DBE 		b	.L233
 9968              	.LVL1159:
 9969              	.L554:
 9970              		.loc 3 238 12 view .LVU2606
 9971 23d0 2046     		mov	r0, r4
 9972 23d2 FFF7FEFF 		bl	lv_disp_get_dpi
 9973              	.LVL1160:
 9974 23d6 C0EBC000 		rsb	r0, r0, r0, lsl #3
 9975 23da 4300     		lsls	r3, r0, #1
 9976 23dc 5033     		adds	r3, r3, #80
 9977 23de 134A     		ldr	r2, .L596
 9978 23e0 82FB0312 		smull	r1, r2, r2, r3
ARM GAS  /var/folders/k2/cd9bl_j17z77g23y6ffqb_400000gn/T//ccRoPncs.s 			page 257


 9979 23e4 DC17     		asrs	r4, r3, #31
 9980              	.LVL1161:
 9981              		.loc 3 238 12 view .LVU2607
 9982 23e6 C4EBA214 		rsb	r4, r4, r2, asr #6
 9983 23ea 24B2     		sxth	r4, r4
 9984 23ec FEF75DBE 		b	.L233
 9985              	.LVL1162:
 9986              	.L491:
 9987              		.loc 3 238 12 view .LVU2608
 9988              	.LBE805:
 9989              	.LBE804:
 484:lvgl/src/extra/themes/default/lv_theme_default.c ****     lv_style_set_pad_gap(&styles->calendar_bg, PAD_SMALL / 2);
 9990              		.loc 1 484 48 discriminator 4 view .LVU2609
 9991 23f0 0F4B     		ldr	r3, .L596+4
 9992 23f2 DC68     		ldr	r4, [r3, #12]
 9993              	.LVL1163:
 9994              	.LBB806:
 9995              	.LBI806:
 236:lvgl/src/extra/themes/default/../../../../src/core/lv_disp.h **** {
 9996              		.loc 3 236 26 is_stmt 1 discriminator 4 view .LVU2610
 9997              	.LBB807:
 9998              		.loc 3 238 5 discriminator 4 view .LVU2611
 9999              		.loc 3 238 12 is_stmt 0 discriminator 4 view .LVU2612
 10000 23f4 2046     		mov	r0, r4
 10001 23f6 FFF7FEFF 		bl	lv_disp_get_dpi
 10002              	.LVL1164:
 10003 23fa 00EB4000 		add	r0, r0, r0, lsl #1
 10004 23fe 8000     		lsls	r0, r0, #2
 10005 2400 EF28     		cmp	r0, #239
 10006 2402 02DC     		bgt	.L555
 10007              		.loc 3 238 12 view .LVU2613
 10008 2404 0124     		movs	r4, #1
 10009              	.LVL1165:
 10010              		.loc 3 238 12 view .LVU2614
 10011 2406 FEF750BE 		b	.L233
 10012              	.LVL1166:
 10013              	.L555:
 10014              		.loc 3 238 12 view .LVU2615
 10015 240a 2046     		mov	r0, r4
 10016 240c FFF7FEFF 		bl	lv_disp_get_dpi
 10017              	.LVL1167:
 10018 2410 00EB4000 		add	r0, r0, r0, lsl #1
 10019 2414 8300     		lsls	r3, r0, #2
 10020 2416 5033     		adds	r3, r3, #80
 10021 2418 044A     		ldr	r2, .L596
 10022 241a 82FB0312 		smull	r1, r2, r2, r3
 10023 241e DC17     		asrs	r4, r3, #31
 10024              	.LVL1168:
 10025              		.loc 3 238 12 view .LVU2616
 10026 2420 C4EBA214 		rsb	r4, r4, r2, asr #6
 10027 2424 24B2     		sxth	r4, r4
 10028 2426 FEF740BE 		b	.L233
 10029              	.L597:
 10030 242a 00BF     		.align	2
 10031              	.L596:
 10032 242c 67666666 		.word	1717986919
 10033 2430 00000000 		.word	.LANCHOR3
ARM GAS  /var/folders/k2/cd9bl_j17z77g23y6ffqb_400000gn/T//ccRoPncs.s 			page 258


 10034              	.LVL1169:
 10035              	.L492:
 10036              		.loc 3 238 12 view .LVU2617
 10037              	.LBE807:
 10038              	.LBE806:
 10039              	.LBB808:
 10040              	.LBB608:
 10041 2434 2046     		mov	r0, r4
 10042 2436 FFF7FEFF 		bl	lv_disp_get_dpi
 10043              	.LVL1170:
 10044 243a 00EB8000 		add	r0, r0, r0, lsl #2
 10045 243e 4300     		lsls	r3, r0, #1
 10046 2440 5033     		adds	r3, r3, #80
 10047 2442 D24A     		ldr	r2, .L598
 10048 2444 82FB0312 		smull	r1, r2, r2, r3
 10049 2448 DC17     		asrs	r4, r3, #31
 10050              	.LVL1171:
 10051              		.loc 3 238 12 view .LVU2618
 10052 244a C4EBA214 		rsb	r4, r4, r2, asr #6
 10053 244e 24B2     		sxth	r4, r4
 10054 2450 FEF72BBE 		b	.L233
 10055              	.LVL1172:
 10056              	.L493:
 10057              		.loc 3 238 12 view .LVU2619
 10058              	.LBE608:
 10059              	.LBE808:
 485:lvgl/src/extra/themes/default/lv_theme_default.c ****     lv_style_set_radius(&styles->calendar_bg, 0);
 10060              		.loc 1 485 48 discriminator 1 view .LVU2620
 10061 2454 CE4B     		ldr	r3, .L598+4
 10062 2456 DC68     		ldr	r4, [r3, #12]
 10063              	.LVL1173:
 10064              	.LBB809:
 10065              	.LBI809:
 236:lvgl/src/extra/themes/default/../../../../src/core/lv_disp.h **** {
 10066              		.loc 3 236 26 is_stmt 1 discriminator 1 view .LVU2621
 10067              	.LBB810:
 10068              		.loc 3 238 5 discriminator 1 view .LVU2622
 10069              		.loc 3 238 12 is_stmt 0 discriminator 1 view .LVU2623
 10070 2458 2046     		mov	r0, r4
 10071 245a FFF7FEFF 		bl	lv_disp_get_dpi
 10072              	.LVL1174:
 10073 245e C0EBC000 		rsb	r0, r0, r0, lsl #3
 10074 2462 4000     		lsls	r0, r0, #1
 10075 2464 EF28     		cmp	r0, #239
 10076 2466 05DC     		bgt	.L556
 10077              		.loc 3 238 12 view .LVU2624
 10078 2468 0124     		movs	r4, #1
 10079              	.LVL1175:
 10080              	.L238:
 10081              		.loc 3 238 12 view .LVU2625
 10082              	.LBE810:
 10083              	.LBE809:
 485:lvgl/src/extra/themes/default/lv_theme_default.c ****     lv_style_set_radius(&styles->calendar_bg, 0);
 10084              		.loc 1 485 5 view .LVU2626
 10085 246a 04EBD474 		add	r4, r4, r4, lsr #31
 10086 246e 6410     		asrs	r4, r4, #1
 10087 2470 FEF746BE 		b	.L239
ARM GAS  /var/folders/k2/cd9bl_j17z77g23y6ffqb_400000gn/T//ccRoPncs.s 			page 259


 10088              	.LVL1176:
 10089              	.L556:
 10090              	.LBB812:
 10091              	.LBB811:
 10092              		.loc 3 238 12 view .LVU2627
 10093 2474 2046     		mov	r0, r4
 10094 2476 FFF7FEFF 		bl	lv_disp_get_dpi
 10095              	.LVL1177:
 10096 247a C0EBC000 		rsb	r0, r0, r0, lsl #3
 10097 247e 4300     		lsls	r3, r0, #1
 10098 2480 5033     		adds	r3, r3, #80
 10099 2482 C24A     		ldr	r2, .L598
 10100 2484 82FB0312 		smull	r1, r2, r2, r3
 10101 2488 DC17     		asrs	r4, r3, #31
 10102              	.LVL1178:
 10103              		.loc 3 238 12 view .LVU2628
 10104 248a C4EBA214 		rsb	r4, r4, r2, asr #6
 10105 248e 24B2     		sxth	r4, r4
 10106 2490 EBE7     		b	.L238
 10107              	.LVL1179:
 10108              	.L494:
 10109              		.loc 3 238 12 view .LVU2629
 10110              	.LBE811:
 10111              	.LBE812:
 485:lvgl/src/extra/themes/default/lv_theme_default.c ****     lv_style_set_radius(&styles->calendar_bg, 0);
 10112              		.loc 1 485 48 discriminator 4 view .LVU2630
 10113 2492 BF4B     		ldr	r3, .L598+4
 10114 2494 DC68     		ldr	r4, [r3, #12]
 10115              	.LVL1180:
 10116              	.LBB813:
 10117              	.LBI813:
 236:lvgl/src/extra/themes/default/../../../../src/core/lv_disp.h **** {
 10118              		.loc 3 236 26 is_stmt 1 discriminator 4 view .LVU2631
 10119              	.LBB814:
 10120              		.loc 3 238 5 discriminator 4 view .LVU2632
 10121              		.loc 3 238 12 is_stmt 0 discriminator 4 view .LVU2633
 10122 2496 2046     		mov	r0, r4
 10123 2498 FFF7FEFF 		bl	lv_disp_get_dpi
 10124              	.LVL1181:
 10125 249c 00EB4000 		add	r0, r0, r0, lsl #1
 10126 24a0 8000     		lsls	r0, r0, #2
 10127 24a2 EF28     		cmp	r0, #239
 10128 24a4 05DC     		bgt	.L557
 10129              		.loc 3 238 12 view .LVU2634
 10130 24a6 0124     		movs	r4, #1
 10131              	.LVL1182:
 10132              	.L241:
 10133              		.loc 3 238 12 view .LVU2635
 10134              	.LBE814:
 10135              	.LBE813:
 485:lvgl/src/extra/themes/default/lv_theme_default.c ****     lv_style_set_radius(&styles->calendar_bg, 0);
 10136              		.loc 1 485 5 view .LVU2636
 10137 24a8 04EBD474 		add	r4, r4, r4, lsr #31
 10138 24ac 6410     		asrs	r4, r4, #1
 10139 24ae FEF727BE 		b	.L239
 10140              	.LVL1183:
 10141              	.L557:
ARM GAS  /var/folders/k2/cd9bl_j17z77g23y6ffqb_400000gn/T//ccRoPncs.s 			page 260


 10142              	.LBB816:
 10143              	.LBB815:
 10144              		.loc 3 238 12 view .LVU2637
 10145 24b2 2046     		mov	r0, r4
 10146 24b4 FFF7FEFF 		bl	lv_disp_get_dpi
 10147              	.LVL1184:
 10148 24b8 00EB4000 		add	r0, r0, r0, lsl #1
 10149 24bc 8300     		lsls	r3, r0, #2
 10150 24be 5033     		adds	r3, r3, #80
 10151 24c0 B24A     		ldr	r2, .L598
 10152 24c2 82FB0312 		smull	r1, r2, r2, r3
 10153 24c6 DC17     		asrs	r4, r3, #31
 10154              	.LVL1185:
 10155              		.loc 3 238 12 view .LVU2638
 10156 24c8 C4EBA214 		rsb	r4, r4, r2, asr #6
 10157 24cc 24B2     		sxth	r4, r4
 10158 24ce EBE7     		b	.L241
 10159              	.LVL1186:
 10160              	.L495:
 10161              		.loc 3 238 12 view .LVU2639
 10162              	.LBE815:
 10163              	.LBE816:
 10164              	.LBB817:
 10165              	.LBB613:
 10166 24d0 2046     		mov	r0, r4
 10167 24d2 FFF7FEFF 		bl	lv_disp_get_dpi
 10168              	.LVL1187:
 10169 24d6 00EB8000 		add	r0, r0, r0, lsl #2
 10170 24da 4300     		lsls	r3, r0, #1
 10171 24dc 5033     		adds	r3, r3, #80
 10172 24de AB4A     		ldr	r2, .L598
 10173 24e0 82FB0312 		smull	r1, r2, r2, r3
 10174 24e4 DC17     		asrs	r4, r3, #31
 10175              	.LVL1188:
 10176              		.loc 3 238 12 view .LVU2640
 10177 24e6 C4EBA214 		rsb	r4, r4, r2, asr #6
 10178 24ea 24B2     		sxth	r4, r4
 10179 24ec FEF705BE 		b	.L242
 10180              	.LVL1189:
 10181              	.L496:
 10182              		.loc 3 238 12 view .LVU2641
 10183              	.LBE613:
 10184              	.LBE817:
 10185              	.LBB818:
 10186              	.LBB618:
 10187 24f0 2846     		mov	r0, r5
 10188 24f2 FFF7FEFF 		bl	lv_disp_get_dpi
 10189              	.LVL1190:
 10190 24f6 5030     		adds	r0, r0, #80
 10191 24f8 A44B     		ldr	r3, .L598
 10192 24fa 83FB0023 		smull	r2, r3, r3, r0
 10193 24fe C117     		asrs	r1, r0, #31
 10194 2500 C1EBA311 		rsb	r1, r1, r3, asr #6
 10195 2504 09B2     		sxth	r1, r1
 10196 2506 FEF71BBE 		b	.L243
 10197              	.LVL1191:
 10198              	.L497:
ARM GAS  /var/folders/k2/cd9bl_j17z77g23y6ffqb_400000gn/T//ccRoPncs.s 			page 261


 10199              		.loc 3 238 12 view .LVU2642
 10200              	.LBE618:
 10201              	.LBE818:
 10202              	.LBB819:
 10203              	.LBB621:
 10204 250a 2846     		mov	r0, r5
 10205 250c FFF7FEFF 		bl	lv_disp_get_dpi
 10206              	.LVL1192:
 10207 2510 00EB8000 		add	r0, r0, r0, lsl #2
 10208 2514 4300     		lsls	r3, r0, #1
 10209 2516 5033     		adds	r3, r3, #80
 10210 2518 9C4A     		ldr	r2, .L598
 10211 251a 82FB0312 		smull	r1, r2, r2, r3
 10212 251e D917     		asrs	r1, r3, #31
 10213 2520 C1EBA211 		rsb	r1, r1, r2, asr #6
 10214 2524 09B2     		sxth	r1, r1
 10215 2526 FEF737BE 		b	.L244
 10216              	.LVL1193:
 10217              	.L498:
 10218              		.loc 3 238 12 view .LVU2643
 10219              	.LBE621:
 10220              	.LBE819:
 10221              	.LBB820:
 10222              	.LBB624:
 10223 252a 2046     		mov	r0, r4
 10224 252c FFF7FEFF 		bl	lv_disp_get_dpi
 10225              	.LVL1194:
 10226 2530 8300     		lsls	r3, r0, #2
 10227 2532 5033     		adds	r3, r3, #80
 10228 2534 954A     		ldr	r2, .L598
 10229 2536 82FB0312 		smull	r1, r2, r2, r3
 10230 253a DC17     		asrs	r4, r3, #31
 10231              	.LVL1195:
 10232              		.loc 3 238 12 view .LVU2644
 10233 253c C4EBA214 		rsb	r4, r4, r2, asr #6
 10234 2540 24B2     		sxth	r4, r4
 10235 2542 FEF73FBE 		b	.L245
 10236              	.LVL1196:
 10237              	.L499:
 10238              		.loc 3 238 12 view .LVU2645
 10239              	.LBE624:
 10240              	.LBE820:
 511:lvgl/src/extra/themes/default/lv_theme_default.c **** #endif
 10241              		.loc 1 511 5 discriminator 1 view .LVU2646
 10242 2546 012B     		cmp	r3, #1
 10243 2548 0DD0     		beq	.L558
 511:lvgl/src/extra/themes/default/lv_theme_default.c **** #endif
 10244              		.loc 1 511 77 discriminator 4 view .LVU2647
 10245 254a 914B     		ldr	r3, .L598+4
 10246 254c DD68     		ldr	r5, [r3, #12]
 10247              	.LVL1197:
 10248              	.LBB821:
 10249              	.LBI821:
 236:lvgl/src/extra/themes/default/../../../../src/core/lv_disp.h **** {
 10250              		.loc 3 236 26 is_stmt 1 discriminator 4 view .LVU2648
 10251              	.LBB822:
 10252              		.loc 3 238 5 discriminator 4 view .LVU2649
ARM GAS  /var/folders/k2/cd9bl_j17z77g23y6ffqb_400000gn/T//ccRoPncs.s 			page 262


 10253              		.loc 3 238 12 is_stmt 0 discriminator 4 view .LVU2650
 10254 254e 2846     		mov	r0, r5
 10255 2550 FFF7FEFF 		bl	lv_disp_get_dpi
 10256              	.LVL1198:
 10257 2554 C000     		lsls	r0, r0, #3
 10258 2556 EF28     		cmp	r0, #239
 10259 2558 24DC     		bgt	.L559
 10260              		.loc 3 238 12 view .LVU2651
 10261 255a 0121     		movs	r1, #1
 10262              	.L250:
 10263              	.LVL1199:
 10264              		.loc 3 238 12 view .LVU2652
 10265              	.LBE822:
 10266              	.LBE821:
 511:lvgl/src/extra/themes/default/lv_theme_default.c **** #endif
 10267              		.loc 1 511 5 view .LVU2653
 10268 255c 01EBD171 		add	r1, r1, r1, lsr #31
 10269 2560 4910     		asrs	r1, r1, #1
 10270 2562 FEF76CBE 		b	.L249
 10271              	.L558:
 511:lvgl/src/extra/themes/default/lv_theme_default.c **** #endif
 10272              		.loc 1 511 77 discriminator 3 view .LVU2654
 10273 2566 8A4B     		ldr	r3, .L598+4
 10274 2568 DD68     		ldr	r5, [r3, #12]
 10275              	.LVL1200:
 10276              	.LBB824:
 10277              	.LBI824:
 236:lvgl/src/extra/themes/default/../../../../src/core/lv_disp.h **** {
 10278              		.loc 3 236 26 is_stmt 1 discriminator 3 view .LVU2655
 10279              	.LBB825:
 10280              		.loc 3 238 5 discriminator 3 view .LVU2656
 10281              		.loc 3 238 12 is_stmt 0 discriminator 3 view .LVU2657
 10282 256a 2846     		mov	r0, r5
 10283 256c FFF7FEFF 		bl	lv_disp_get_dpi
 10284              	.LVL1201:
 10285 2570 00EB4000 		add	r0, r0, r0, lsl #1
 10286 2574 8000     		lsls	r0, r0, #2
 10287 2576 EF28     		cmp	r0, #239
 10288 2578 05DC     		bgt	.L560
 10289              		.loc 3 238 12 view .LVU2658
 10290 257a 0121     		movs	r1, #1
 10291              	.L248:
 10292              	.LVL1202:
 10293              		.loc 3 238 12 view .LVU2659
 10294              	.LBE825:
 10295              	.LBE824:
 511:lvgl/src/extra/themes/default/lv_theme_default.c **** #endif
 10296              		.loc 1 511 5 view .LVU2660
 10297 257c 01EBD171 		add	r1, r1, r1, lsr #31
 10298 2580 4910     		asrs	r1, r1, #1
 10299 2582 FEF75CBE 		b	.L249
 10300              	.LVL1203:
 10301              	.L560:
 10302              	.LBB827:
 10303              	.LBB826:
 10304              		.loc 3 238 12 view .LVU2661
 10305 2586 2846     		mov	r0, r5
ARM GAS  /var/folders/k2/cd9bl_j17z77g23y6ffqb_400000gn/T//ccRoPncs.s 			page 263


 10306 2588 FFF7FEFF 		bl	lv_disp_get_dpi
 10307              	.LVL1204:
 10308 258c 00EB4000 		add	r0, r0, r0, lsl #1
 10309 2590 8300     		lsls	r3, r0, #2
 10310 2592 5033     		adds	r3, r3, #80
 10311 2594 7D4A     		ldr	r2, .L598
 10312 2596 82FB0312 		smull	r1, r2, r2, r3
 10313 259a D917     		asrs	r1, r3, #31
 10314 259c C1EBA211 		rsb	r1, r1, r2, asr #6
 10315 25a0 09B2     		sxth	r1, r1
 10316 25a2 EBE7     		b	.L248
 10317              	.LVL1205:
 10318              	.L559:
 10319              		.loc 3 238 12 view .LVU2662
 10320              	.LBE826:
 10321              	.LBE827:
 10322              	.LBB828:
 10323              	.LBB823:
 10324 25a4 2846     		mov	r0, r5
 10325 25a6 FFF7FEFF 		bl	lv_disp_get_dpi
 10326              	.LVL1206:
 10327 25aa C000     		lsls	r0, r0, #3
 10328 25ac 5030     		adds	r0, r0, #80
 10329 25ae 774B     		ldr	r3, .L598
 10330 25b0 83FB0023 		smull	r2, r3, r3, r0
 10331 25b4 C117     		asrs	r1, r0, #31
 10332 25b6 C1EBA311 		rsb	r1, r1, r3, asr #6
 10333 25ba 09B2     		sxth	r1, r1
 10334 25bc CEE7     		b	.L250
 10335              	.LVL1207:
 10336              	.L500:
 10337              		.loc 3 238 12 view .LVU2663
 10338              	.LBE823:
 10339              	.LBE828:
 511:lvgl/src/extra/themes/default/lv_theme_default.c **** #endif
 10340              		.loc 1 511 98 discriminator 8 view .LVU2664
 10341 25be 744B     		ldr	r3, .L598+4
 10342 25c0 DD68     		ldr	r5, [r3, #12]
 10343              	.LVL1208:
 10344              	.LBB829:
 10345              	.LBI829:
 236:lvgl/src/extra/themes/default/../../../../src/core/lv_disp.h **** {
 10346              		.loc 3 236 26 is_stmt 1 discriminator 8 view .LVU2665
 10347              	.LBB830:
 10348              		.loc 3 238 5 discriminator 8 view .LVU2666
 10349              		.loc 3 238 12 is_stmt 0 discriminator 8 view .LVU2667
 10350 25c2 2846     		mov	r0, r5
 10351 25c4 FFF7FEFF 		bl	lv_disp_get_dpi
 10352              	.LVL1209:
 10353 25c8 00EB4000 		add	r0, r0, r0, lsl #1
 10354 25cc 8000     		lsls	r0, r0, #2
 10355 25ce EF28     		cmp	r0, #239
 10356 25d0 02DC     		bgt	.L561
 10357              		.loc 3 238 12 view .LVU2668
 10358 25d2 0121     		movs	r1, #1
 10359              	.LVL1210:
 10360              		.loc 3 238 12 view .LVU2669
ARM GAS  /var/folders/k2/cd9bl_j17z77g23y6ffqb_400000gn/T//ccRoPncs.s 			page 264


 10361 25d4 FEF733BE 		b	.L249
 10362              	.LVL1211:
 10363              	.L561:
 10364              		.loc 3 238 12 view .LVU2670
 10365 25d8 2846     		mov	r0, r5
 10366 25da FFF7FEFF 		bl	lv_disp_get_dpi
 10367              	.LVL1212:
 10368 25de 00EB4000 		add	r0, r0, r0, lsl #1
 10369 25e2 8300     		lsls	r3, r0, #2
 10370 25e4 5033     		adds	r3, r3, #80
 10371 25e6 694A     		ldr	r2, .L598
 10372 25e8 82FB0312 		smull	r1, r2, r2, r3
 10373 25ec D917     		asrs	r1, r3, #31
 10374 25ee C1EBA211 		rsb	r1, r1, r2, asr #6
 10375 25f2 09B2     		sxth	r1, r1
 10376 25f4 FEF723BE 		b	.L249
 10377              	.LVL1213:
 10378              	.L501:
 10379              		.loc 3 238 12 view .LVU2671
 10380              	.LBE830:
 10381              	.LBE829:
 10382              	.LBB831:
 10383              	.LBB629:
 10384 25f8 2846     		mov	r0, r5
 10385 25fa FFF7FEFF 		bl	lv_disp_get_dpi
 10386              	.LVL1214:
 10387 25fe C300     		lsls	r3, r0, #3
 10388 2600 5033     		adds	r3, r3, #80
 10389 2602 624A     		ldr	r2, .L598
 10390 2604 82FB0312 		smull	r1, r2, r2, r3
 10391 2608 D917     		asrs	r1, r3, #31
 10392 260a C1EBA211 		rsb	r1, r1, r2, asr #6
 10393 260e 09B2     		sxth	r1, r1
 10394 2610 FEF715BE 		b	.L249
 10395              	.LVL1215:
 10396              	.L502:
 10397              		.loc 3 238 12 view .LVU2672
 10398              	.LBE629:
 10399              	.LBE831:
 10400              	.LBB832:
 10401              	.LBB632:
 10402 2614 2846     		mov	r0, r5
 10403 2616 FFF7FEFF 		bl	lv_disp_get_dpi
 10404              	.LVL1216:
 10405 261a 4300     		lsls	r3, r0, #1
 10406 261c 5033     		adds	r3, r3, #80
 10407 261e 5B4A     		ldr	r2, .L598
 10408 2620 82FB0312 		smull	r1, r2, r2, r3
 10409 2624 D917     		asrs	r1, r3, #31
 10410 2626 C1EBA211 		rsb	r1, r1, r2, asr #6
 10411 262a 09B2     		sxth	r1, r1
 10412 262c FEF723BE 		b	.L254
 10413              	.LVL1217:
 10414              	.L503:
 10415              		.loc 3 238 12 view .LVU2673
 10416              	.LBE632:
 10417              	.LBE832:
ARM GAS  /var/folders/k2/cd9bl_j17z77g23y6ffqb_400000gn/T//ccRoPncs.s 			page 265


 10418              	.LBB833:
 10419              	.LBB635:
 10420 2630 2846     		mov	r0, r5
 10421 2632 FFF7FEFF 		bl	lv_disp_get_dpi
 10422              	.LVL1218:
 10423 2636 4300     		lsls	r3, r0, #1
 10424 2638 5033     		adds	r3, r3, #80
 10425 263a 544A     		ldr	r2, .L598
 10426 263c 82FB0312 		smull	r1, r2, r2, r3
 10427 2640 D917     		asrs	r1, r3, #31
 10428 2642 C1EBA211 		rsb	r1, r1, r2, asr #6
 10429 2646 09B2     		sxth	r1, r1
 10430 2648 FEF734BE 		b	.L255
 10431              	.LVL1219:
 10432              	.L504:
 10433              		.loc 3 238 12 view .LVU2674
 10434              	.LBE635:
 10435              	.LBE833:
 526:lvgl/src/extra/themes/default/lv_theme_default.c ****     lv_style_set_pad_ver(&styles->list_bg, 0);
 10436              		.loc 1 526 44 discriminator 1 view .LVU2675
 10437 264c 504B     		ldr	r3, .L598+4
 10438 264e DC68     		ldr	r4, [r3, #12]
 10439              	.LVL1220:
 10440              	.LBB834:
 10441              	.LBI834:
 236:lvgl/src/extra/themes/default/../../../../src/core/lv_disp.h **** {
 10442              		.loc 3 236 26 is_stmt 1 discriminator 1 view .LVU2676
 10443              	.LBB835:
 10444              		.loc 3 238 5 discriminator 1 view .LVU2677
 10445              		.loc 3 238 12 is_stmt 0 discriminator 1 view .LVU2678
 10446 2650 2046     		mov	r0, r4
 10447 2652 FFF7FEFF 		bl	lv_disp_get_dpi
 10448              	.LVL1221:
 10449 2656 00EB4000 		add	r0, r0, r0, lsl #1
 10450 265a C000     		lsls	r0, r0, #3
 10451 265c EF28     		cmp	r0, #239
 10452 265e 02DC     		bgt	.L562
 10453              		.loc 3 238 12 view .LVU2679
 10454 2660 0124     		movs	r4, #1
 10455              	.LVL1222:
 10456              		.loc 3 238 12 view .LVU2680
 10457 2662 FEF748BE 		b	.L258
 10458              	.LVL1223:
 10459              	.L562:
 10460              		.loc 3 238 12 view .LVU2681
 10461 2666 2046     		mov	r0, r4
 10462 2668 FFF7FEFF 		bl	lv_disp_get_dpi
 10463              	.LVL1224:
 10464 266c 00EB4000 		add	r0, r0, r0, lsl #1
 10465 2670 C300     		lsls	r3, r0, #3
 10466 2672 5033     		adds	r3, r3, #80
 10467 2674 454A     		ldr	r2, .L598
 10468 2676 82FB0312 		smull	r1, r2, r2, r3
 10469 267a DC17     		asrs	r4, r3, #31
 10470              	.LVL1225:
 10471              		.loc 3 238 12 view .LVU2682
 10472 267c C4EBA214 		rsb	r4, r4, r2, asr #6
ARM GAS  /var/folders/k2/cd9bl_j17z77g23y6ffqb_400000gn/T//ccRoPncs.s 			page 266


 10473 2680 24B2     		sxth	r4, r4
 10474 2682 FEF738BE 		b	.L258
 10475              	.LVL1226:
 10476              	.L505:
 10477              		.loc 3 238 12 view .LVU2683
 10478              	.LBE835:
 10479              	.LBE834:
 526:lvgl/src/extra/themes/default/lv_theme_default.c ****     lv_style_set_pad_ver(&styles->list_bg, 0);
 10480              		.loc 1 526 44 discriminator 4 view .LVU2684
 10481 2686 424B     		ldr	r3, .L598+4
 10482 2688 DC68     		ldr	r4, [r3, #12]
 10483              	.LVL1227:
 10484              	.LBB836:
 10485              	.LBI836:
 236:lvgl/src/extra/themes/default/../../../../src/core/lv_disp.h **** {
 10486              		.loc 3 236 26 is_stmt 1 discriminator 4 view .LVU2685
 10487              	.LBB837:
 10488              		.loc 3 238 5 discriminator 4 view .LVU2686
 10489              		.loc 3 238 12 is_stmt 0 discriminator 4 view .LVU2687
 10490 268a 2046     		mov	r0, r4
 10491 268c FFF7FEFF 		bl	lv_disp_get_dpi
 10492              	.LVL1228:
 10493 2690 00EB8000 		add	r0, r0, r0, lsl #2
 10494 2694 8000     		lsls	r0, r0, #2
 10495 2696 EF28     		cmp	r0, #239
 10496 2698 02DC     		bgt	.L563
 10497              		.loc 3 238 12 view .LVU2688
 10498 269a 0124     		movs	r4, #1
 10499              	.LVL1229:
 10500              		.loc 3 238 12 view .LVU2689
 10501 269c FEF72BBE 		b	.L258
 10502              	.LVL1230:
 10503              	.L563:
 10504              		.loc 3 238 12 view .LVU2690
 10505 26a0 2046     		mov	r0, r4
 10506 26a2 FFF7FEFF 		bl	lv_disp_get_dpi
 10507              	.LVL1231:
 10508 26a6 00EB8000 		add	r0, r0, r0, lsl #2
 10509 26aa 8300     		lsls	r3, r0, #2
 10510 26ac 5033     		adds	r3, r3, #80
 10511 26ae 374A     		ldr	r2, .L598
 10512 26b0 82FB0312 		smull	r1, r2, r2, r3
 10513 26b4 DC17     		asrs	r4, r3, #31
 10514              	.LVL1232:
 10515              		.loc 3 238 12 view .LVU2691
 10516 26b6 C4EBA214 		rsb	r4, r4, r2, asr #6
 10517 26ba 24B2     		sxth	r4, r4
 10518 26bc FEF71BBE 		b	.L258
 10519              	.LVL1233:
 10520              	.L506:
 10521              		.loc 3 238 12 view .LVU2692
 10522              	.LBE837:
 10523              	.LBE836:
 10524              	.LBB838:
 10525              	.LBB638:
 10526 26c0 2046     		mov	r0, r4
 10527 26c2 FFF7FEFF 		bl	lv_disp_get_dpi
ARM GAS  /var/folders/k2/cd9bl_j17z77g23y6ffqb_400000gn/T//ccRoPncs.s 			page 267


 10528              	.LVL1234:
 10529 26c6 0301     		lsls	r3, r0, #4
 10530 26c8 5033     		adds	r3, r3, #80
 10531 26ca 304A     		ldr	r2, .L598
 10532 26cc 82FB0312 		smull	r1, r2, r2, r3
 10533 26d0 DC17     		asrs	r4, r3, #31
 10534              	.LVL1235:
 10535              		.loc 3 238 12 view .LVU2693
 10536 26d2 C4EBA214 		rsb	r4, r4, r2, asr #6
 10537 26d6 24B2     		sxth	r4, r4
 10538 26d8 FEF70DBE 		b	.L258
 10539              	.LVL1236:
 10540              	.L507:
 10541              		.loc 3 238 12 view .LVU2694
 10542              	.LBE638:
 10543              	.LBE838:
 10544              	.LBB839:
 10545              	.LBB647:
 10546 26dc 2846     		mov	r0, r5
 10547 26de FFF7FEFF 		bl	lv_disp_get_dpi
 10548              	.LVL1237:
 10549 26e2 5030     		adds	r0, r0, #80
 10550 26e4 294B     		ldr	r3, .L598
 10551 26e6 83FB0023 		smull	r2, r3, r3, r0
 10552 26ea C117     		asrs	r1, r0, #31
 10553 26ec C1EBA311 		rsb	r1, r1, r3, asr #6
 10554 26f0 09B2     		sxth	r1, r1
 10555 26f2 FEF742BE 		b	.L262
 10556              	.LVL1238:
 10557              	.L508:
 10558              		.loc 3 238 12 view .LVU2695
 10559              	.LBE647:
 10560              	.LBE839:
 535:lvgl/src/extra/themes/default/lv_theme_default.c ****     lv_style_set_pad_column(&styles->list_btn, PAD_SMALL);
 10561              		.loc 1 535 45 discriminator 1 view .LVU2696
 10562 26f6 264B     		ldr	r3, .L598+4
 10563 26f8 DC68     		ldr	r4, [r3, #12]
 10564              	.LVL1239:
 10565              	.LBB840:
 10566              	.LBI840:
 236:lvgl/src/extra/themes/default/../../../../src/core/lv_disp.h **** {
 10567              		.loc 3 236 26 is_stmt 1 discriminator 1 view .LVU2697
 10568              	.LBB841:
 10569              		.loc 3 238 5 discriminator 1 view .LVU2698
 10570              		.loc 3 238 12 is_stmt 0 discriminator 1 view .LVU2699
 10571 26fa 2046     		mov	r0, r4
 10572 26fc FFF7FEFF 		bl	lv_disp_get_dpi
 10573              	.LVL1240:
 10574 2700 C0EBC000 		rsb	r0, r0, r0, lsl #3
 10575 2704 4000     		lsls	r0, r0, #1
 10576 2706 EF28     		cmp	r0, #239
 10577 2708 02DC     		bgt	.L564
 10578              		.loc 3 238 12 view .LVU2700
 10579 270a 0124     		movs	r4, #1
 10580              	.LVL1241:
 10581              		.loc 3 238 12 view .LVU2701
 10582 270c FEF75DBE 		b	.L265
ARM GAS  /var/folders/k2/cd9bl_j17z77g23y6ffqb_400000gn/T//ccRoPncs.s 			page 268


 10583              	.LVL1242:
 10584              	.L564:
 10585              		.loc 3 238 12 view .LVU2702
 10586 2710 2046     		mov	r0, r4
 10587 2712 FFF7FEFF 		bl	lv_disp_get_dpi
 10588              	.LVL1243:
 10589 2716 C0EBC000 		rsb	r0, r0, r0, lsl #3
 10590 271a 4300     		lsls	r3, r0, #1
 10591 271c 5033     		adds	r3, r3, #80
 10592 271e 1B4A     		ldr	r2, .L598
 10593 2720 82FB0312 		smull	r1, r2, r2, r3
 10594 2724 DC17     		asrs	r4, r3, #31
 10595              	.LVL1244:
 10596              		.loc 3 238 12 view .LVU2703
 10597 2726 C4EBA214 		rsb	r4, r4, r2, asr #6
 10598 272a 24B2     		sxth	r4, r4
 10599 272c FEF74DBE 		b	.L265
 10600              	.LVL1245:
 10601              	.L509:
 10602              		.loc 3 238 12 view .LVU2704
 10603              	.LBE841:
 10604              	.LBE840:
 535:lvgl/src/extra/themes/default/lv_theme_default.c ****     lv_style_set_pad_column(&styles->list_btn, PAD_SMALL);
 10605              		.loc 1 535 45 discriminator 4 view .LVU2705
 10606 2730 174B     		ldr	r3, .L598+4
 10607 2732 DC68     		ldr	r4, [r3, #12]
 10608              	.LVL1246:
 10609              	.LBB842:
 10610              	.LBI842:
 236:lvgl/src/extra/themes/default/../../../../src/core/lv_disp.h **** {
 10611              		.loc 3 236 26 is_stmt 1 discriminator 4 view .LVU2706
 10612              	.LBB843:
 10613              		.loc 3 238 5 discriminator 4 view .LVU2707
 10614              		.loc 3 238 12 is_stmt 0 discriminator 4 view .LVU2708
 10615 2734 2046     		mov	r0, r4
 10616 2736 FFF7FEFF 		bl	lv_disp_get_dpi
 10617              	.LVL1247:
 10618 273a 00EB4000 		add	r0, r0, r0, lsl #1
 10619 273e 8000     		lsls	r0, r0, #2
 10620 2740 EF28     		cmp	r0, #239
 10621 2742 02DC     		bgt	.L565
 10622              		.loc 3 238 12 view .LVU2709
 10623 2744 0124     		movs	r4, #1
 10624              	.LVL1248:
 10625              		.loc 3 238 12 view .LVU2710
 10626 2746 FEF740BE 		b	.L265
 10627              	.LVL1249:
 10628              	.L565:
 10629              		.loc 3 238 12 view .LVU2711
 10630 274a 2046     		mov	r0, r4
 10631 274c FFF7FEFF 		bl	lv_disp_get_dpi
 10632              	.LVL1250:
 10633 2750 00EB4000 		add	r0, r0, r0, lsl #1
 10634 2754 8300     		lsls	r3, r0, #2
 10635 2756 5033     		adds	r3, r3, #80
 10636 2758 0C4A     		ldr	r2, .L598
 10637 275a 82FB0312 		smull	r1, r2, r2, r3
ARM GAS  /var/folders/k2/cd9bl_j17z77g23y6ffqb_400000gn/T//ccRoPncs.s 			page 269


 10638 275e DC17     		asrs	r4, r3, #31
 10639              	.LVL1251:
 10640              		.loc 3 238 12 view .LVU2712
 10641 2760 C4EBA214 		rsb	r4, r4, r2, asr #6
 10642 2764 24B2     		sxth	r4, r4
 10643 2766 FEF730BE 		b	.L265
 10644              	.LVL1252:
 10645              	.L510:
 10646              		.loc 3 238 12 view .LVU2713
 10647              	.LBE843:
 10648              	.LBE842:
 10649              	.LBB844:
 10650              	.LBB650:
 10651 276a 2046     		mov	r0, r4
 10652 276c FFF7FEFF 		bl	lv_disp_get_dpi
 10653              	.LVL1253:
 10654 2770 00EB8000 		add	r0, r0, r0, lsl #2
 10655 2774 4300     		lsls	r3, r0, #1
 10656 2776 5033     		adds	r3, r3, #80
 10657 2778 044A     		ldr	r2, .L598
 10658 277a 82FB0312 		smull	r1, r2, r2, r3
 10659 277e DC17     		asrs	r4, r3, #31
 10660              	.LVL1254:
 10661              		.loc 3 238 12 view .LVU2714
 10662 2780 C4EBA214 		rsb	r4, r4, r2, asr #6
 10663 2784 24B2     		sxth	r4, r4
 10664 2786 FEF720BE 		b	.L265
 10665              	.L599:
 10666 278a 00BF     		.align	2
 10667              	.L598:
 10668 278c 67666666 		.word	1717986919
 10669 2790 00000000 		.word	.LANCHOR3
 10670              	.LVL1255:
 10671              	.L511:
 10672              		.loc 3 238 12 view .LVU2715
 10673              	.LBE650:
 10674              	.LBE844:
 536:lvgl/src/extra/themes/default/lv_theme_default.c **** 
 10675              		.loc 1 536 48 discriminator 1 view .LVU2716
 10676 2794 584B     		ldr	r3, .L600
 10677 2796 DD68     		ldr	r5, [r3, #12]
 10678              	.LVL1256:
 10679              	.LBB845:
 10680              	.LBI845:
 236:lvgl/src/extra/themes/default/../../../../src/core/lv_disp.h **** {
 10681              		.loc 3 236 26 is_stmt 1 discriminator 1 view .LVU2717
 10682              	.LBB846:
 10683              		.loc 3 238 5 discriminator 1 view .LVU2718
 10684              		.loc 3 238 12 is_stmt 0 discriminator 1 view .LVU2719
 10685 2798 2846     		mov	r0, r5
 10686 279a FFF7FEFF 		bl	lv_disp_get_dpi
 10687              	.LVL1257:
 10688 279e C0EBC000 		rsb	r0, r0, r0, lsl #3
 10689 27a2 4000     		lsls	r0, r0, #1
 10690 27a4 EF28     		cmp	r0, #239
 10691 27a6 02DC     		bgt	.L566
 10692              		.loc 3 238 12 view .LVU2720
ARM GAS  /var/folders/k2/cd9bl_j17z77g23y6ffqb_400000gn/T//ccRoPncs.s 			page 270


 10693 27a8 0121     		movs	r1, #1
 10694              	.LVL1258:
 10695              		.loc 3 238 12 view .LVU2721
 10696 27aa FEF736BE 		b	.L271
 10697              	.LVL1259:
 10698              	.L566:
 10699              		.loc 3 238 12 view .LVU2722
 10700 27ae 2846     		mov	r0, r5
 10701 27b0 FFF7FEFF 		bl	lv_disp_get_dpi
 10702              	.LVL1260:
 10703 27b4 C0EBC000 		rsb	r0, r0, r0, lsl #3
 10704 27b8 4300     		lsls	r3, r0, #1
 10705 27ba 5033     		adds	r3, r3, #80
 10706 27bc 4F4A     		ldr	r2, .L600+4
 10707 27be 82FB0312 		smull	r1, r2, r2, r3
 10708 27c2 D917     		asrs	r1, r3, #31
 10709 27c4 C1EBA211 		rsb	r1, r1, r2, asr #6
 10710 27c8 09B2     		sxth	r1, r1
 10711 27ca FEF726BE 		b	.L271
 10712              	.LVL1261:
 10713              	.L512:
 10714              		.loc 3 238 12 view .LVU2723
 10715              	.LBE846:
 10716              	.LBE845:
 536:lvgl/src/extra/themes/default/lv_theme_default.c **** 
 10717              		.loc 1 536 48 discriminator 4 view .LVU2724
 10718 27ce 4A4B     		ldr	r3, .L600
 10719 27d0 DD68     		ldr	r5, [r3, #12]
 10720              	.LVL1262:
 10721              	.LBB847:
 10722              	.LBI847:
 236:lvgl/src/extra/themes/default/../../../../src/core/lv_disp.h **** {
 10723              		.loc 3 236 26 is_stmt 1 discriminator 4 view .LVU2725
 10724              	.LBB848:
 10725              		.loc 3 238 5 discriminator 4 view .LVU2726
 10726              		.loc 3 238 12 is_stmt 0 discriminator 4 view .LVU2727
 10727 27d2 2846     		mov	r0, r5
 10728 27d4 FFF7FEFF 		bl	lv_disp_get_dpi
 10729              	.LVL1263:
 10730 27d8 00EB4000 		add	r0, r0, r0, lsl #1
 10731 27dc 8000     		lsls	r0, r0, #2
 10732 27de EF28     		cmp	r0, #239
 10733 27e0 02DC     		bgt	.L567
 10734              		.loc 3 238 12 view .LVU2728
 10735 27e2 0121     		movs	r1, #1
 10736              	.LVL1264:
 10737              		.loc 3 238 12 view .LVU2729
 10738 27e4 FEF719BE 		b	.L271
 10739              	.LVL1265:
 10740              	.L567:
 10741              		.loc 3 238 12 view .LVU2730
 10742 27e8 2846     		mov	r0, r5
 10743 27ea FFF7FEFF 		bl	lv_disp_get_dpi
 10744              	.LVL1266:
 10745 27ee 00EB4000 		add	r0, r0, r0, lsl #1
 10746 27f2 8300     		lsls	r3, r0, #2
 10747 27f4 5033     		adds	r3, r3, #80
ARM GAS  /var/folders/k2/cd9bl_j17z77g23y6ffqb_400000gn/T//ccRoPncs.s 			page 271


 10748 27f6 414A     		ldr	r2, .L600+4
 10749 27f8 82FB0312 		smull	r1, r2, r2, r3
 10750 27fc D917     		asrs	r1, r3, #31
 10751 27fe C1EBA211 		rsb	r1, r1, r2, asr #6
 10752 2802 09B2     		sxth	r1, r1
 10753 2804 FEF709BE 		b	.L271
 10754              	.LVL1267:
 10755              	.L513:
 10756              		.loc 3 238 12 view .LVU2731
 10757              	.LBE848:
 10758              	.LBE847:
 10759              	.LBB849:
 10760              	.LBB655:
 10761 2808 2846     		mov	r0, r5
 10762 280a FFF7FEFF 		bl	lv_disp_get_dpi
 10763              	.LVL1268:
 10764 280e 00EB8000 		add	r0, r0, r0, lsl #2
 10765 2812 4300     		lsls	r3, r0, #1
 10766 2814 5033     		adds	r3, r3, #80
 10767 2816 394A     		ldr	r2, .L600+4
 10768 2818 82FB0312 		smull	r1, r2, r2, r3
 10769 281c D917     		asrs	r1, r3, #31
 10770 281e C1EBA211 		rsb	r1, r1, r2, asr #6
 10771 2822 09B2     		sxth	r1, r1
 10772 2824 FEF7F9BD 		b	.L271
 10773              	.LVL1269:
 10774              	.L514:
 10775              		.loc 3 238 12 view .LVU2732
 10776              	.LBE655:
 10777              	.LBE849:
 539:lvgl/src/extra/themes/default/lv_theme_default.c **** #endif
 10778              		.loc 1 539 59 discriminator 1 view .LVU2733
 10779 2828 334B     		ldr	r3, .L600
 10780 282a DD68     		ldr	r5, [r3, #12]
 10781              	.LVL1270:
 10782              	.LBB850:
 10783              	.LBI850:
 236:lvgl/src/extra/themes/default/../../../../src/core/lv_disp.h **** {
 10784              		.loc 3 236 26 is_stmt 1 discriminator 1 view .LVU2734
 10785              	.LBB851:
 10786              		.loc 3 238 5 discriminator 1 view .LVU2735
 10787              		.loc 3 238 12 is_stmt 0 discriminator 1 view .LVU2736
 10788 282c 2846     		mov	r0, r5
 10789 282e FFF7FEFF 		bl	lv_disp_get_dpi
 10790              	.LVL1271:
 10791 2832 00EB4000 		add	r0, r0, r0, lsl #1
 10792 2836 C000     		lsls	r0, r0, #3
 10793 2838 EF28     		cmp	r0, #239
 10794 283a 02DC     		bgt	.L568
 10795              		.loc 3 238 12 view .LVU2737
 10796 283c 0121     		movs	r1, #1
 10797              	.LVL1272:
 10798              		.loc 3 238 12 view .LVU2738
 10799 283e FEF70ABE 		b	.L277
 10800              	.LVL1273:
 10801              	.L568:
 10802              		.loc 3 238 12 view .LVU2739
ARM GAS  /var/folders/k2/cd9bl_j17z77g23y6ffqb_400000gn/T//ccRoPncs.s 			page 272


 10803 2842 2846     		mov	r0, r5
 10804 2844 FFF7FEFF 		bl	lv_disp_get_dpi
 10805              	.LVL1274:
 10806 2848 00EB4000 		add	r0, r0, r0, lsl #1
 10807 284c C300     		lsls	r3, r0, #3
 10808 284e 5033     		adds	r3, r3, #80
 10809 2850 2A4A     		ldr	r2, .L600+4
 10810 2852 82FB0312 		smull	r1, r2, r2, r3
 10811 2856 D917     		asrs	r1, r3, #31
 10812 2858 C1EBA211 		rsb	r1, r1, r2, asr #6
 10813 285c 09B2     		sxth	r1, r1
 10814 285e FEF7FABD 		b	.L277
 10815              	.LVL1275:
 10816              	.L515:
 10817              		.loc 3 238 12 view .LVU2740
 10818              	.LBE851:
 10819              	.LBE850:
 539:lvgl/src/extra/themes/default/lv_theme_default.c **** #endif
 10820              		.loc 1 539 59 discriminator 4 view .LVU2741
 10821 2862 254B     		ldr	r3, .L600
 10822 2864 DD68     		ldr	r5, [r3, #12]
 10823              	.LVL1276:
 10824              	.LBB852:
 10825              	.LBI852:
 236:lvgl/src/extra/themes/default/../../../../src/core/lv_disp.h **** {
 10826              		.loc 3 236 26 is_stmt 1 discriminator 4 view .LVU2742
 10827              	.LBB853:
 10828              		.loc 3 238 5 discriminator 4 view .LVU2743
 10829              		.loc 3 238 12 is_stmt 0 discriminator 4 view .LVU2744
 10830 2866 2846     		mov	r0, r5
 10831 2868 FFF7FEFF 		bl	lv_disp_get_dpi
 10832              	.LVL1277:
 10833 286c 00EB8000 		add	r0, r0, r0, lsl #2
 10834 2870 8000     		lsls	r0, r0, #2
 10835 2872 EF28     		cmp	r0, #239
 10836 2874 02DC     		bgt	.L569
 10837              		.loc 3 238 12 view .LVU2745
 10838 2876 0121     		movs	r1, #1
 10839              	.LVL1278:
 10840              		.loc 3 238 12 view .LVU2746
 10841 2878 FEF7EDBD 		b	.L277
 10842              	.LVL1279:
 10843              	.L569:
 10844              		.loc 3 238 12 view .LVU2747
 10845 287c 2846     		mov	r0, r5
 10846 287e FFF7FEFF 		bl	lv_disp_get_dpi
 10847              	.LVL1280:
 10848 2882 00EB8000 		add	r0, r0, r0, lsl #2
 10849 2886 8300     		lsls	r3, r0, #2
 10850 2888 5033     		adds	r3, r3, #80
 10851 288a 1C4A     		ldr	r2, .L600+4
 10852 288c 82FB0312 		smull	r1, r2, r2, r3
 10853 2890 D917     		asrs	r1, r3, #31
 10854 2892 C1EBA211 		rsb	r1, r1, r2, asr #6
 10855 2896 09B2     		sxth	r1, r1
 10856 2898 FEF7DDBD 		b	.L277
 10857              	.LVL1281:
ARM GAS  /var/folders/k2/cd9bl_j17z77g23y6ffqb_400000gn/T//ccRoPncs.s 			page 273


 10858              	.L516:
 10859              		.loc 3 238 12 view .LVU2748
 10860              	.LBE853:
 10861              	.LBE852:
 10862              	.LBB854:
 10863              	.LBB658:
 10864 289c 2846     		mov	r0, r5
 10865 289e FFF7FEFF 		bl	lv_disp_get_dpi
 10866              	.LVL1282:
 10867 28a2 0301     		lsls	r3, r0, #4
 10868 28a4 5033     		adds	r3, r3, #80
 10869 28a6 154A     		ldr	r2, .L600+4
 10870 28a8 82FB0312 		smull	r1, r2, r2, r3
 10871 28ac D917     		asrs	r1, r3, #31
 10872 28ae C1EBA211 		rsb	r1, r1, r2, asr #6
 10873 28b2 09B2     		sxth	r1, r1
 10874 28b4 FEF7CFBD 		b	.L277
 10875              	.LVL1283:
 10876              	.L517:
 10877              		.loc 3 238 12 view .LVU2749
 10878              	.LBE658:
 10879              	.LBE854:
 10880              	.LBB855:
 10881              	.LBB665:
 10882 28b8 2846     		mov	r0, r5
 10883 28ba FFF7FEFF 		bl	lv_disp_get_dpi
 10884              	.LVL1284:
 10885 28be C0EB0010 		rsb	r0, r0, r0, lsl #4
 10886 28c2 00F15003 		add	r3, r0, #80
 10887 28c6 0D4A     		ldr	r2, .L600+4
 10888 28c8 82FB0312 		smull	r1, r2, r2, r3
 10889 28cc D917     		asrs	r1, r3, #31
 10890 28ce C1EBA211 		rsb	r1, r1, r2, asr #6
 10891 28d2 09B2     		sxth	r1, r1
 10892 28d4 FEF7F3BD 		b	.L281
 10893              	.LVL1285:
 10894              	.L518:
 10895              		.loc 3 238 12 view .LVU2750
 10896              	.LBE665:
 10897              	.LBE855:
 10898              	.LBB856:
 10899              	.LBB672:
 10900 28d8 2846     		mov	r0, r5
 10901 28da FFF7FEFF 		bl	lv_disp_get_dpi
 10902              	.LVL1286:
 10903 28de 00EB8000 		add	r0, r0, r0, lsl #2
 10904 28e2 00F15003 		add	r3, r0, #80
 10905 28e6 054A     		ldr	r2, .L600+4
 10906 28e8 82FB0312 		smull	r1, r2, r2, r3
 10907 28ec D917     		asrs	r1, r3, #31
 10908 28ee C1EBA211 		rsb	r1, r1, r2, asr #6
 10909 28f2 09B2     		sxth	r1, r1
 10910 28f4 FEF7FCBD 		b	.L282
 10911              	.L601:
 10912              		.align	2
 10913              	.L600:
 10914 28f8 00000000 		.word	.LANCHOR3
ARM GAS  /var/folders/k2/cd9bl_j17z77g23y6ffqb_400000gn/T//ccRoPncs.s 			page 274


 10915 28fc 67666666 		.word	1717986919
 10916              	.LBE672:
 10917              	.LBE856:
 10918              		.cfi_endproc
 10919              	.LFE186:
 10921              		.section	.text.lv_theme_default_init,"ax",%progbits
 10922              		.align	1
 10923              		.global	lv_theme_default_init
 10924              		.syntax unified
 10925              		.thumb
 10926              		.thumb_func
 10927              		.fpu fpv4-sp-d16
 10929              	lv_theme_default_init:
 10930              	.LVL1287:
 10931              	.LFB187:
 560:lvgl/src/extra/themes/default/lv_theme_default.c **** 
 10932              		.loc 1 560 1 is_stmt 1 view -0
 10933              		.cfi_startproc
 10934              		@ args = 4, pretend = 0, frame = 0
 10935              		@ frame_needed = 0, uses_anonymous_args = 0
 560:lvgl/src/extra/themes/default/lv_theme_default.c **** 
 10936              		.loc 1 560 1 is_stmt 0 view .LVU2752
 10937 0000 2DE9F843 		push	{r3, r4, r5, r6, r7, r8, r9, lr}
 10938              	.LCFI8:
 10939              		.cfi_def_cfa_offset 32
 10940              		.cfi_offset 3, -32
 10941              		.cfi_offset 4, -28
 10942              		.cfi_offset 5, -24
 10943              		.cfi_offset 6, -20
 10944              		.cfi_offset 7, -16
 10945              		.cfi_offset 8, -12
 10946              		.cfi_offset 9, -8
 10947              		.cfi_offset 14, -4
 10948 0004 0546     		mov	r5, r0
 10949 0006 8946     		mov	r9, r1
 10950              	.LVL1288:
 560:lvgl/src/extra/themes/default/lv_theme_default.c **** 
 10951              		.loc 1 560 1 view .LVU2753
 10952 0008 9046     		mov	r8, r2
 10953              	.LVL1289:
 560:lvgl/src/extra/themes/default/lv_theme_default.c **** 
 10954              		.loc 1 560 1 view .LVU2754
 10955 000a 1E46     		mov	r6, r3
 10956 000c 089F     		ldr	r7, [sp, #32]
 565:lvgl/src/extra/themes/default/lv_theme_default.c ****         LV_GC_ROOT(_lv_theme_default_styles) = lv_mem_alloc(sizeof(my_theme_styles_t));
 10957              		.loc 1 565 5 is_stmt 1 view .LVU2755
 565:lvgl/src/extra/themes/default/lv_theme_default.c ****         LV_GC_ROOT(_lv_theme_default_styles) = lv_mem_alloc(sizeof(my_theme_styles_t));
 10958              		.loc 1 565 8 is_stmt 0 view .LVU2756
 10959 000e 214B     		ldr	r3, .L611
 10960              	.LVL1290:
 565:lvgl/src/extra/themes/default/lv_theme_default.c ****         LV_GC_ROOT(_lv_theme_default_styles) = lv_mem_alloc(sizeof(my_theme_styles_t));
 10961              		.loc 1 565 8 view .LVU2757
 10962 0010 1B78     		ldrb	r3, [r3]	@ zero_extendqisi2
 565:lvgl/src/extra/themes/default/lv_theme_default.c ****         LV_GC_ROOT(_lv_theme_default_styles) = lv_mem_alloc(sizeof(my_theme_styles_t));
 10963              		.loc 1 565 7 view .LVU2758
 10964 0012 33B3     		cbz	r3, .L610
 10965              	.LVL1291:
ARM GAS  /var/folders/k2/cd9bl_j17z77g23y6ffqb_400000gn/T//ccRoPncs.s 			page 275


 10966              	.L603:
 570:lvgl/src/extra/themes/default/lv_theme_default.c ****     else if(LV_HOR_RES < 720) disp_size = DISP_MEDIUM;
 10967              		.loc 1 570 5 is_stmt 1 view .LVU2759
 570:lvgl/src/extra/themes/default/lv_theme_default.c ****     else if(LV_HOR_RES < 720) disp_size = DISP_MEDIUM;
 10968              		.loc 1 570 8 is_stmt 0 view .LVU2760
 10969 0014 FFF7FEFF 		bl	lv_disp_get_default
 10970              	.LVL1292:
 10971 0018 FFF7FEFF 		bl	lv_disp_get_hor_res
 10972              	.LVL1293:
 570:lvgl/src/extra/themes/default/lv_theme_default.c ****     else if(LV_HOR_RES < 720) disp_size = DISP_MEDIUM;
 10973              		.loc 1 570 7 view .LVU2761
 10974 001c B0F5A07F 		cmp	r0, #320
 10975 0020 28DC     		bgt	.L604
 570:lvgl/src/extra/themes/default/lv_theme_default.c ****     else if(LV_HOR_RES < 720) disp_size = DISP_MEDIUM;
 10976              		.loc 1 570 27 is_stmt 1 discriminator 1 view .LVU2762
 570:lvgl/src/extra/themes/default/lv_theme_default.c ****     else if(LV_HOR_RES < 720) disp_size = DISP_MEDIUM;
 10977              		.loc 1 570 37 is_stmt 0 discriminator 1 view .LVU2763
 10978 0022 1D4B     		ldr	r3, .L611+4
 10979 0024 0322     		movs	r2, #3
 10980 0026 1A70     		strb	r2, [r3]
 10981              	.L605:
 574:lvgl/src/extra/themes/default/lv_theme_default.c ****     theme.color_primary = color_primary;
 10982              		.loc 1 574 5 is_stmt 1 view .LVU2764
 574:lvgl/src/extra/themes/default/lv_theme_default.c ****     theme.color_primary = color_primary;
 10983              		.loc 1 574 16 is_stmt 0 view .LVU2765
 10984 0028 1C4C     		ldr	r4, .L611+8
 10985 002a E560     		str	r5, [r4, #12]
 575:lvgl/src/extra/themes/default/lv_theme_default.c ****     theme.color_secondary = color_secondary;
 10986              		.loc 1 575 5 is_stmt 1 view .LVU2766
 10987              	.LVL1294:
 575:lvgl/src/extra/themes/default/lv_theme_default.c ****     theme.color_secondary = color_secondary;
 10988              		.loc 1 575 25 is_stmt 0 view .LVU2767
 10989 002c C4F81090 		str	r9, [r4, #16]
 576:lvgl/src/extra/themes/default/lv_theme_default.c ****     theme.font_small = font;
 10990              		.loc 1 576 5 is_stmt 1 view .LVU2768
 10991              	.LVL1295:
 576:lvgl/src/extra/themes/default/lv_theme_default.c ****     theme.font_small = font;
 10992              		.loc 1 576 27 is_stmt 0 view .LVU2769
 10993 0030 C4F81480 		str	r8, [r4, #20]
 577:lvgl/src/extra/themes/default/lv_theme_default.c ****     theme.font_normal = font;
 10994              		.loc 1 577 5 is_stmt 1 view .LVU2770
 577:lvgl/src/extra/themes/default/lv_theme_default.c ****     theme.font_normal = font;
 10995              		.loc 1 577 22 is_stmt 0 view .LVU2771
 10996 0034 A761     		str	r7, [r4, #24]
 578:lvgl/src/extra/themes/default/lv_theme_default.c ****     theme.font_large = font;
 10997              		.loc 1 578 5 is_stmt 1 view .LVU2772
 578:lvgl/src/extra/themes/default/lv_theme_default.c ****     theme.font_large = font;
 10998              		.loc 1 578 23 is_stmt 0 view .LVU2773
 10999 0036 E761     		str	r7, [r4, #28]
 579:lvgl/src/extra/themes/default/lv_theme_default.c ****     theme.apply_cb = theme_apply;
 11000              		.loc 1 579 5 is_stmt 1 view .LVU2774
 579:lvgl/src/extra/themes/default/lv_theme_default.c ****     theme.apply_cb = theme_apply;
 11001              		.loc 1 579 22 is_stmt 0 view .LVU2775
 11002 0038 2762     		str	r7, [r4, #32]
 580:lvgl/src/extra/themes/default/lv_theme_default.c ****     theme.flags = dark ? MODE_DARK : 0;
 11003              		.loc 1 580 5 is_stmt 1 view .LVU2776
 580:lvgl/src/extra/themes/default/lv_theme_default.c ****     theme.flags = dark ? MODE_DARK : 0;
ARM GAS  /var/folders/k2/cd9bl_j17z77g23y6ffqb_400000gn/T//ccRoPncs.s 			page 276


 11004              		.loc 1 580 20 is_stmt 0 view .LVU2777
 11005 003a 194B     		ldr	r3, .L611+12
 11006 003c 2360     		str	r3, [r4]
 581:lvgl/src/extra/themes/default/lv_theme_default.c **** 
 11007              		.loc 1 581 5 is_stmt 1 view .LVU2778
 581:lvgl/src/extra/themes/default/lv_theme_default.c **** 
 11008              		.loc 1 581 17 is_stmt 0 view .LVU2779
 11009 003e 6662     		str	r6, [r4, #36]
 583:lvgl/src/extra/themes/default/lv_theme_default.c **** 
 11010              		.loc 1 583 5 is_stmt 1 view .LVU2780
 11011 0040 FFF7FEFF 		bl	style_init
 11012              	.LVL1296:
 585:lvgl/src/extra/themes/default/lv_theme_default.c **** 
 11013              		.loc 1 585 5 view .LVU2781
 585:lvgl/src/extra/themes/default/lv_theme_default.c **** 
 11014              		.loc 1 585 12 is_stmt 0 view .LVU2782
 11015 0044 134B     		ldr	r3, .L611
 11016 0046 0122     		movs	r2, #1
 11017 0048 1A70     		strb	r2, [r3]
 587:lvgl/src/extra/themes/default/lv_theme_default.c **** 
 11018              		.loc 1 587 5 is_stmt 1 view .LVU2783
 587:lvgl/src/extra/themes/default/lv_theme_default.c **** 
 11019              		.loc 1 587 7 is_stmt 0 view .LVU2784
 11020 004a 25B1     		cbz	r5, .L607
 587:lvgl/src/extra/themes/default/lv_theme_default.c **** 
 11021              		.loc 1 587 24 discriminator 2 view .LVU2785
 11022 004c 2846     		mov	r0, r5
 11023 004e FFF7FEFF 		bl	lv_disp_get_theme
 11024              	.LVL1297:
 587:lvgl/src/extra/themes/default/lv_theme_default.c **** 
 11025              		.loc 1 587 21 discriminator 2 view .LVU2786
 11026 0052 8442     		cmp	r4, r0
 11027 0054 02D1     		bne	.L608
 11028              	.L607:
 587:lvgl/src/extra/themes/default/lv_theme_default.c **** 
 11029              		.loc 1 587 59 is_stmt 1 discriminator 3 view .LVU2787
 11030 0056 0020     		movs	r0, #0
 11031 0058 FFF7FEFF 		bl	lv_obj_report_style_change
 11032              	.LVL1298:
 11033              	.L608:
 589:lvgl/src/extra/themes/default/lv_theme_default.c **** }
 11034              		.loc 1 589 5 view .LVU2788
 590:lvgl/src/extra/themes/default/lv_theme_default.c **** 
 11035              		.loc 1 590 1 is_stmt 0 view .LVU2789
 11036 005c 0F48     		ldr	r0, .L611+8
 11037 005e BDE8F883 		pop	{r3, r4, r5, r6, r7, r8, r9, pc}
 11038              	.LVL1299:
 11039              	.L610:
 566:lvgl/src/extra/themes/default/lv_theme_default.c ****         styles = (my_theme_styles_t *)LV_GC_ROOT(_lv_theme_default_styles);
 11040              		.loc 1 566 9 is_stmt 1 view .LVU2790
 566:lvgl/src/extra/themes/default/lv_theme_default.c ****         styles = (my_theme_styles_t *)LV_GC_ROOT(_lv_theme_default_styles);
 11041              		.loc 1 566 48 is_stmt 0 view .LVU2791
 11042 0062 4FF4F070 		mov	r0, #480
 11043              	.LVL1300:
 566:lvgl/src/extra/themes/default/lv_theme_default.c ****         styles = (my_theme_styles_t *)LV_GC_ROOT(_lv_theme_default_styles);
 11044              		.loc 1 566 48 view .LVU2792
 11045 0066 FFF7FEFF 		bl	lv_mem_alloc
ARM GAS  /var/folders/k2/cd9bl_j17z77g23y6ffqb_400000gn/T//ccRoPncs.s 			page 277


 11046              	.LVL1301:
 566:lvgl/src/extra/themes/default/lv_theme_default.c ****         styles = (my_theme_styles_t *)LV_GC_ROOT(_lv_theme_default_styles);
 11047              		.loc 1 566 46 view .LVU2793
 11048 006a 0E4B     		ldr	r3, .L611+16
 11049 006c 1860     		str	r0, [r3]
 567:lvgl/src/extra/themes/default/lv_theme_default.c ****     }
 11050              		.loc 1 567 9 is_stmt 1 view .LVU2794
 567:lvgl/src/extra/themes/default/lv_theme_default.c ****     }
 11051              		.loc 1 567 16 is_stmt 0 view .LVU2795
 11052 006e 0E4B     		ldr	r3, .L611+20
 11053 0070 1860     		str	r0, [r3]
 11054 0072 CFE7     		b	.L603
 11055              	.L604:
 571:lvgl/src/extra/themes/default/lv_theme_default.c ****     else disp_size = DISP_LARGE;
 11056              		.loc 1 571 10 is_stmt 1 view .LVU2796
 571:lvgl/src/extra/themes/default/lv_theme_default.c ****     else disp_size = DISP_LARGE;
 11057              		.loc 1 571 13 is_stmt 0 view .LVU2797
 11058 0074 FFF7FEFF 		bl	lv_disp_get_default
 11059              	.LVL1302:
 11060 0078 FFF7FEFF 		bl	lv_disp_get_hor_res
 11061              	.LVL1303:
 571:lvgl/src/extra/themes/default/lv_theme_default.c ****     else disp_size = DISP_LARGE;
 11062              		.loc 1 571 12 view .LVU2798
 11063 007c B0F5347F 		cmp	r0, #720
 11064 0080 03DA     		bge	.L606
 571:lvgl/src/extra/themes/default/lv_theme_default.c ****     else disp_size = DISP_LARGE;
 11065              		.loc 1 571 31 is_stmt 1 discriminator 1 view .LVU2799
 571:lvgl/src/extra/themes/default/lv_theme_default.c ****     else disp_size = DISP_LARGE;
 11066              		.loc 1 571 41 is_stmt 0 discriminator 1 view .LVU2800
 11067 0082 054B     		ldr	r3, .L611+4
 11068 0084 0222     		movs	r2, #2
 11069 0086 1A70     		strb	r2, [r3]
 11070 0088 CEE7     		b	.L605
 11071              	.L606:
 572:lvgl/src/extra/themes/default/lv_theme_default.c **** 
 11072              		.loc 1 572 10 is_stmt 1 view .LVU2801
 572:lvgl/src/extra/themes/default/lv_theme_default.c **** 
 11073              		.loc 1 572 20 is_stmt 0 view .LVU2802
 11074 008a 034B     		ldr	r3, .L611+4
 11075 008c 0122     		movs	r2, #1
 11076 008e 1A70     		strb	r2, [r3]
 11077 0090 CAE7     		b	.L605
 11078              	.L612:
 11079 0092 00BF     		.align	2
 11080              	.L611:
 11081 0094 00000000 		.word	.LANCHOR2
 11082 0098 00000000 		.word	.LANCHOR1
 11083 009c 00000000 		.word	.LANCHOR3
 11084 00a0 00000000 		.word	theme_apply
 11085 00a4 00000000 		.word	_lv_theme_default_styles
 11086 00a8 00000000 		.word	.LANCHOR0
 11087              		.cfi_endproc
 11088              	.LFE187:
 11090              		.section	.text.lv_theme_default_is_inited,"ax",%progbits
 11091              		.align	1
 11092              		.global	lv_theme_default_is_inited
 11093              		.syntax unified
ARM GAS  /var/folders/k2/cd9bl_j17z77g23y6ffqb_400000gn/T//ccRoPncs.s 			page 278


 11094              		.thumb
 11095              		.thumb_func
 11096              		.fpu fpv4-sp-d16
 11098              	lv_theme_default_is_inited:
 11099              	.LFB188:
 593:lvgl/src/extra/themes/default/lv_theme_default.c ****     return inited;
 11100              		.loc 1 593 1 is_stmt 1 view -0
 11101              		.cfi_startproc
 11102              		@ args = 0, pretend = 0, frame = 0
 11103              		@ frame_needed = 0, uses_anonymous_args = 0
 11104              		@ link register save eliminated.
 594:lvgl/src/extra/themes/default/lv_theme_default.c **** }
 11105              		.loc 1 594 5 view .LVU2804
 595:lvgl/src/extra/themes/default/lv_theme_default.c **** 
 11106              		.loc 1 595 1 is_stmt 0 view .LVU2805
 11107 0000 014B     		ldr	r3, .L614
 11108 0002 1878     		ldrb	r0, [r3]	@ zero_extendqisi2
 11109 0004 7047     		bx	lr
 11110              	.L615:
 11111 0006 00BF     		.align	2
 11112              	.L614:
 11113 0008 00000000 		.word	.LANCHOR2
 11114              		.cfi_endproc
 11115              	.LFE188:
 11117              		.section	.bss.color_card,"aw",%nobits
 11118              		.align	2
 11119              		.set	.LANCHOR6,. + 0
 11122              	color_card:
 11123 0000 00000000 		.space	4
 11124              		.section	.bss.color_grey,"aw",%nobits
 11125              		.align	2
 11126              		.set	.LANCHOR7,. + 0
 11129              	color_grey:
 11130 0000 00000000 		.space	4
 11131              		.section	.bss.color_scr,"aw",%nobits
 11132              		.align	2
 11133              		.set	.LANCHOR4,. + 0
 11136              	color_scr:
 11137 0000 00000000 		.space	4
 11138              		.section	.bss.color_text,"aw",%nobits
 11139              		.align	2
 11140              		.set	.LANCHOR5,. + 0
 11143              	color_text:
 11144 0000 00000000 		.space	4
 11145              		.section	.bss.dark_filter.1,"aw",%nobits
 11146              		.align	2
 11147              		.set	.LANCHOR11,. + 0
 11150              	dark_filter.1:
 11151 0000 00000000 		.space	8
 11151      00000000 
 11152              		.section	.bss.disp_size,"aw",%nobits
 11153              		.set	.LANCHOR1,. + 0
 11156              	disp_size:
 11157 0000 00       		.space	1
 11158              		.section	.bss.grey_filter.0,"aw",%nobits
 11159              		.align	2
 11160              		.set	.LANCHOR12,. + 0
ARM GAS  /var/folders/k2/cd9bl_j17z77g23y6ffqb_400000gn/T//ccRoPncs.s 			page 279


 11163              	grey_filter.0:
 11164 0000 00000000 		.space	8
 11164      00000000 
 11165              		.section	.bss.inited,"aw",%nobits
 11166              		.set	.LANCHOR2,. + 0
 11169              	inited:
 11170 0000 00       		.space	1
 11171              		.section	.bss.styles,"aw",%nobits
 11172              		.align	2
 11173              		.set	.LANCHOR0,. + 0
 11176              	styles:
 11177 0000 00000000 		.space	4
 11178              		.section	.bss.theme,"aw",%nobits
 11179              		.align	2
 11180              		.set	.LANCHOR3,. + 0
 11183              	theme:
 11184 0000 00000000 		.space	40
 11184      00000000 
 11184      00000000 
 11184      00000000 
 11184      00000000 
 11185              		.section	.bss.trans_delayed.4,"aw",%nobits
 11186              		.align	2
 11187              		.set	.LANCHOR9,. + 0
 11190              	trans_delayed.4:
 11191 0000 00000000 		.space	20
 11191      00000000 
 11191      00000000 
 11191      00000000 
 11191      00000000 
 11192              		.section	.bss.trans_normal.2,"aw",%nobits
 11193              		.align	2
 11194              		.set	.LANCHOR10,. + 0
 11197              	trans_normal.2:
 11198 0000 00000000 		.space	20
 11198      00000000 
 11198      00000000 
 11198      00000000 
 11198      00000000 
 11199              		.section	.rodata.trans_props.3,"a"
 11200              		.align	2
 11201              		.set	.LANCHOR8,. + 0
 11204              	trans_props.3:
 11205 0000 2100     		.short	33
 11206 0002 2000     		.short	32
 11207 0004 0A08     		.short	2058
 11208 0006 0B08     		.short	2059
 11209 0008 0D30     		.short	12301
 11210 000a 0C30     		.short	12300
 11211 000c 0E08     		.short	2062
 11212 000e 0F08     		.short	2063
 11213 0010 6400     		.short	100
 11214 0012 6300     		.short	99
 11215 0014 0000     		.short	0
 11216              		.text
 11217              	.Letext0:
 11218              		.file 6 "/Users/nhantt/tools/stm32/gcc-arm-none-eabi-10-2020-q4-major/arm-none-eabi/include/machin
ARM GAS  /var/folders/k2/cd9bl_j17z77g23y6ffqb_400000gn/T//ccRoPncs.s 			page 280


 11219              		.file 7 "/Users/nhantt/tools/stm32/gcc-arm-none-eabi-10-2020-q4-major/arm-none-eabi/include/sys/_s
 11220              		.file 8 "lvgl/src/extra/themes/default/../../../../src/misc/lv_ll.h"
 11221              		.file 9 "lvgl/src/extra/themes/default/../../../../src/misc/lv_timer.h"
 11222              		.file 10 "lvgl/src/extra/themes/default/../../../../src/hal/lv_hal_disp.h"
 11223              		.file 11 "lvgl/src/extra/themes/default/../../../../src/core/lv_theme.h"
 11224              		.file 12 "lvgl/src/extra/themes/default/../../../../src/core/lv_obj.h"
 11225              		.file 13 "lvgl/src/extra/themes/default/../../../../src/core/lv_group.h"
 11226              		.file 14 "lvgl/src/extra/themes/default/../../../../src/core/../misc/../font/lv_font.h"
 11227              		.file 15 "lvgl/src/extra/themes/default/../../../../src/core/../misc/lv_anim.h"
 11228              		.file 16 "lvgl/src/extra/themes/default/../../../../src/core/../misc/lv_txt.h"
 11229              		.file 17 "lvgl/src/extra/themes/default/../../../../src/core/lv_obj_scroll.h"
 11230              		.file 18 "lvgl/src/extra/themes/default/../../../../src/core/lv_obj_style.h"
 11231              		.file 19 "lvgl/src/extra/themes/default/../../../../src/core/lv_obj_class.h"
 11232              		.file 20 "lvgl/src/extra/themes/default/../../../../src/core/lv_event.h"
 11233              		.file 21 "lvgl/src/extra/themes/default/../../../../src/widgets/lv_arc.h"
 11234              		.file 22 "lvgl/src/extra/themes/default/../../../../src/widgets/lv_btn.h"
 11235              		.file 23 "lvgl/src/extra/themes/default/../../../../src/widgets/lv_line.h"
 11236              		.file 24 "lvgl/src/extra/themes/default/../../../../src/widgets/lv_table.h"
 11237              		.file 25 "lvgl/src/extra/themes/default/../../../../src/widgets/lv_checkbox.h"
 11238              		.file 26 "lvgl/src/extra/themes/default/../../../../src/widgets/lv_bar.h"
 11239              		.file 27 "lvgl/src/extra/themes/default/../../../../src/widgets/lv_slider.h"
 11240              		.file 28 "lvgl/src/extra/themes/default/../../../../src/widgets/lv_btnmatrix.h"
 11241              		.file 29 "lvgl/src/extra/themes/default/../../../../src/widgets/lv_dropdown.h"
 11242              		.file 30 "lvgl/src/extra/themes/default/../../../../src/widgets/lv_roller.h"
 11243              		.file 31 "lvgl/src/extra/themes/default/../../../../src/widgets/lv_textarea.h"
 11244              		.file 32 "lvgl/src/extra/themes/default/../../../../src/widgets/lv_switch.h"
 11245              		.file 33 "lvgl/src/extra/themes/default/../../../../src/extra/widgets/calendar/lv_calendar.h"
 11246              		.file 34 "lvgl/src/extra/themes/default/../../../../src/extra/widgets/calendar/lv_calendar_header_
 11247              		.file 35 "lvgl/src/extra/themes/default/../../../../src/extra/widgets/calendar/lv_calendar_header_
 11248              		.file 36 "lvgl/src/extra/themes/default/../../../../src/extra/widgets/chart/lv_chart.h"
 11249              		.file 37 "lvgl/src/extra/themes/default/../../../../src/extra/widgets/keyboard/lv_keyboard.h"
 11250              		.file 38 "lvgl/src/extra/themes/default/../../../../src/extra/widgets/list/lv_list.h"
 11251              		.file 39 "lvgl/src/extra/themes/default/../../../../src/extra/widgets/msgbox/lv_msgbox.h"
 11252              		.file 40 "lvgl/src/extra/themes/default/../../../../src/extra/widgets/meter/lv_meter.h"
 11253              		.file 41 "lvgl/src/extra/themes/default/../../../../src/extra/widgets/spinbox/lv_spinbox.h"
 11254              		.file 42 "lvgl/src/extra/themes/default/../../../../src/extra/widgets/spinner/lv_spinner.h"
 11255              		.file 43 "lvgl/src/extra/themes/default/../../../../src/extra/widgets/tabview/lv_tabview.h"
 11256              		.file 44 "lvgl/src/extra/themes/default/../../../../src/extra/widgets/tileview/lv_tileview.h"
 11257              		.file 45 "lvgl/src/extra/themes/default/../../../../src/extra/widgets/win/lv_win.h"
 11258              		.file 46 "lvgl/src/extra/themes/default/../../../../src/extra/widgets/colorwheel/lv_colorwheel.h"
 11259              		.file 47 "lvgl/src/extra/themes/default/../../../../src/extra/widgets/led/lv_led.h"
 11260              		.file 48 "lvgl/src/extra/themes/default/../../../../src/extra/widgets/imgbtn/lv_imgbtn.h"
 11261              		.file 49 "lvgl/src/extra/themes/default/../../../misc/lv_gc.h"
 11262              		.file 50 "lvgl/src/extra/themes/default/../../../../src/core/lv_obj_tree.h"
 11263              		.file 51 "lvgl/src/extra/themes/default/../../../../src/misc/lv_mem.h"
 11264              		.file 52 "lvgl/src/extra/themes/default/../../../../src/core/../misc/lv_style_gen.h"
ARM GAS  /var/folders/k2/cd9bl_j17z77g23y6ffqb_400000gn/T//ccRoPncs.s 			page 281


DEFINED SYMBOLS
                            *ABS*:0000000000000000 lv_theme_default.c
/var/folders/k2/cd9bl_j17z77g23y6ffqb_400000gn/T//ccRoPncs.s:18     .text.theme_apply:0000000000000000 $t
/var/folders/k2/cd9bl_j17z77g23y6ffqb_400000gn/T//ccRoPncs.s:25     .text.theme_apply:0000000000000000 theme_apply
/var/folders/k2/cd9bl_j17z77g23y6ffqb_400000gn/T//ccRoPncs.s:589    .text.theme_apply:00000000000002c4 $d
/var/folders/k2/cd9bl_j17z77g23y6ffqb_400000gn/T//ccRoPncs.s:607    .text.theme_apply:0000000000000300 $t
/var/folders/k2/cd9bl_j17z77g23y6ffqb_400000gn/T//ccRoPncs.s:1171   .text.theme_apply:0000000000000618 $d
/var/folders/k2/cd9bl_j17z77g23y6ffqb_400000gn/T//ccRoPncs.s:1188   .text.theme_apply:0000000000000650 $t
/var/folders/k2/cd9bl_j17z77g23y6ffqb_400000gn/T//ccRoPncs.s:1727   .text.theme_apply:0000000000000954 $d
/var/folders/k2/cd9bl_j17z77g23y6ffqb_400000gn/T//ccRoPncs.s:1744   .text.theme_apply:000000000000098c $t
/var/folders/k2/cd9bl_j17z77g23y6ffqb_400000gn/T//ccRoPncs.s:2276   .text.theme_apply:0000000000000c84 $d
/var/folders/k2/cd9bl_j17z77g23y6ffqb_400000gn/T//ccRoPncs.s:2297   .text.theme_apply:0000000000000ccc $t
/var/folders/k2/cd9bl_j17z77g23y6ffqb_400000gn/T//ccRoPncs.s:2492   .text.theme_apply:0000000000000de4 $d
/var/folders/k2/cd9bl_j17z77g23y6ffqb_400000gn/T//ccRoPncs.s:2503   .text.dark_color_filter_cb:0000000000000000 $t
/var/folders/k2/cd9bl_j17z77g23y6ffqb_400000gn/T//ccRoPncs.s:2509   .text.dark_color_filter_cb:0000000000000000 dark_color_filter_cb
/var/folders/k2/cd9bl_j17z77g23y6ffqb_400000gn/T//ccRoPncs.s:2538   .text.style_init_reset:0000000000000000 $t
/var/folders/k2/cd9bl_j17z77g23y6ffqb_400000gn/T//ccRoPncs.s:2544   .text.style_init_reset:0000000000000000 style_init_reset
/var/folders/k2/cd9bl_j17z77g23y6ffqb_400000gn/T//ccRoPncs.s:2579   .text.style_init_reset:0000000000000014 $d
/var/folders/k2/cd9bl_j17z77g23y6ffqb_400000gn/T//ccRoPncs.s:2584   .text.grey_filter_cb:0000000000000000 $t
/var/folders/k2/cd9bl_j17z77g23y6ffqb_400000gn/T//ccRoPncs.s:2590   .text.grey_filter_cb:0000000000000000 grey_filter_cb
/var/folders/k2/cd9bl_j17z77g23y6ffqb_400000gn/T//ccRoPncs.s:2739   .text.grey_filter_cb:00000000000000f0 $d
/var/folders/k2/cd9bl_j17z77g23y6ffqb_400000gn/T//ccRoPncs.s:2744   .rodata.style_init.str1.4:0000000000000000 $d
/var/folders/k2/cd9bl_j17z77g23y6ffqb_400000gn/T//ccRoPncs.s:2748   .text.style_init:0000000000000000 $t
/var/folders/k2/cd9bl_j17z77g23y6ffqb_400000gn/T//ccRoPncs.s:2754   .text.style_init:0000000000000000 style_init
/var/folders/k2/cd9bl_j17z77g23y6ffqb_400000gn/T//ccRoPncs.s:3433   .text.style_init:0000000000000310 $d
/var/folders/k2/cd9bl_j17z77g23y6ffqb_400000gn/T//ccRoPncs.s:3446   .text.style_init:000000000000033c $t
/var/folders/k2/cd9bl_j17z77g23y6ffqb_400000gn/T//ccRoPncs.s:4143   .text.style_init:0000000000000640 $d
/var/folders/k2/cd9bl_j17z77g23y6ffqb_400000gn/T//ccRoPncs.s:4154   .text.style_init:0000000000000664 $t
/var/folders/k2/cd9bl_j17z77g23y6ffqb_400000gn/T//ccRoPncs.s:4873   .text.style_init:0000000000000980 $d
/var/folders/k2/cd9bl_j17z77g23y6ffqb_400000gn/T//ccRoPncs.s:4878   .text.style_init:000000000000098c $t
/var/folders/k2/cd9bl_j17z77g23y6ffqb_400000gn/T//ccRoPncs.s:5570   .text.style_init:0000000000000cb8 $d
/var/folders/k2/cd9bl_j17z77g23y6ffqb_400000gn/T//ccRoPncs.s:5579   .text.style_init:0000000000000cd4 $t
/var/folders/k2/cd9bl_j17z77g23y6ffqb_400000gn/T//ccRoPncs.s:6269   .text.style_init:0000000000001000 $d
/var/folders/k2/cd9bl_j17z77g23y6ffqb_400000gn/T//ccRoPncs.s:6275   .text.style_init:0000000000001010 $t
/var/folders/k2/cd9bl_j17z77g23y6ffqb_400000gn/T//ccRoPncs.s:6952   .text.style_init:0000000000001340 $d
/var/folders/k2/cd9bl_j17z77g23y6ffqb_400000gn/T//ccRoPncs.s:6958   .text.style_init:0000000000001354 $t
/var/folders/k2/cd9bl_j17z77g23y6ffqb_400000gn/T//ccRoPncs.s:7614   .text.style_init:000000000000168c $d
/var/folders/k2/cd9bl_j17z77g23y6ffqb_400000gn/T//ccRoPncs.s:7625   .text.style_init:00000000000016ac $t
/var/folders/k2/cd9bl_j17z77g23y6ffqb_400000gn/T//ccRoPncs.s:8204   .text.style_init:00000000000019fc $d
/var/folders/k2/cd9bl_j17z77g23y6ffqb_400000gn/T//ccRoPncs.s:8213   .text.style_init:0000000000001a04 $t
/var/folders/k2/cd9bl_j17z77g23y6ffqb_400000gn/T//ccRoPncs.s:8832   .text.style_init:0000000000001d50 $d
/var/folders/k2/cd9bl_j17z77g23y6ffqb_400000gn/T//ccRoPncs.s:8837   .text.style_init:0000000000001d58 $t
/var/folders/k2/cd9bl_j17z77g23y6ffqb_400000gn/T//ccRoPncs.s:9451   .text.style_init:00000000000020b4 $d
/var/folders/k2/cd9bl_j17z77g23y6ffqb_400000gn/T//ccRoPncs.s:9460   .text.style_init:00000000000020bc $t
/var/folders/k2/cd9bl_j17z77g23y6ffqb_400000gn/T//ccRoPncs.s:10032  .text.style_init:000000000000242c $d
/var/folders/k2/cd9bl_j17z77g23y6ffqb_400000gn/T//ccRoPncs.s:10041  .text.style_init:0000000000002434 $t
/var/folders/k2/cd9bl_j17z77g23y6ffqb_400000gn/T//ccRoPncs.s:10668  .text.style_init:000000000000278c $d
/var/folders/k2/cd9bl_j17z77g23y6ffqb_400000gn/T//ccRoPncs.s:10676  .text.style_init:0000000000002794 $t
/var/folders/k2/cd9bl_j17z77g23y6ffqb_400000gn/T//ccRoPncs.s:10914  .text.style_init:00000000000028f8 $d
/var/folders/k2/cd9bl_j17z77g23y6ffqb_400000gn/T//ccRoPncs.s:10922  .text.lv_theme_default_init:0000000000000000 $t
/var/folders/k2/cd9bl_j17z77g23y6ffqb_400000gn/T//ccRoPncs.s:10929  .text.lv_theme_default_init:0000000000000000 lv_theme_default_init
/var/folders/k2/cd9bl_j17z77g23y6ffqb_400000gn/T//ccRoPncs.s:11081  .text.lv_theme_default_init:0000000000000094 $d
/var/folders/k2/cd9bl_j17z77g23y6ffqb_400000gn/T//ccRoPncs.s:11091  .text.lv_theme_default_is_inited:0000000000000000 $t
/var/folders/k2/cd9bl_j17z77g23y6ffqb_400000gn/T//ccRoPncs.s:11098  .text.lv_theme_default_is_inited:0000000000000000 lv_theme_default_is_inited
/var/folders/k2/cd9bl_j17z77g23y6ffqb_400000gn/T//ccRoPncs.s:11113  .text.lv_theme_default_is_inited:0000000000000008 $d
/var/folders/k2/cd9bl_j17z77g23y6ffqb_400000gn/T//ccRoPncs.s:11118  .bss.color_card:0000000000000000 $d
/var/folders/k2/cd9bl_j17z77g23y6ffqb_400000gn/T//ccRoPncs.s:11122  .bss.color_card:0000000000000000 color_card
ARM GAS  /var/folders/k2/cd9bl_j17z77g23y6ffqb_400000gn/T//ccRoPncs.s 			page 282


/var/folders/k2/cd9bl_j17z77g23y6ffqb_400000gn/T//ccRoPncs.s:11125  .bss.color_grey:0000000000000000 $d
/var/folders/k2/cd9bl_j17z77g23y6ffqb_400000gn/T//ccRoPncs.s:11129  .bss.color_grey:0000000000000000 color_grey
/var/folders/k2/cd9bl_j17z77g23y6ffqb_400000gn/T//ccRoPncs.s:11132  .bss.color_scr:0000000000000000 $d
/var/folders/k2/cd9bl_j17z77g23y6ffqb_400000gn/T//ccRoPncs.s:11136  .bss.color_scr:0000000000000000 color_scr
/var/folders/k2/cd9bl_j17z77g23y6ffqb_400000gn/T//ccRoPncs.s:11139  .bss.color_text:0000000000000000 $d
/var/folders/k2/cd9bl_j17z77g23y6ffqb_400000gn/T//ccRoPncs.s:11143  .bss.color_text:0000000000000000 color_text
/var/folders/k2/cd9bl_j17z77g23y6ffqb_400000gn/T//ccRoPncs.s:11146  .bss.dark_filter.1:0000000000000000 $d
/var/folders/k2/cd9bl_j17z77g23y6ffqb_400000gn/T//ccRoPncs.s:11150  .bss.dark_filter.1:0000000000000000 dark_filter.1
/var/folders/k2/cd9bl_j17z77g23y6ffqb_400000gn/T//ccRoPncs.s:11156  .bss.disp_size:0000000000000000 disp_size
/var/folders/k2/cd9bl_j17z77g23y6ffqb_400000gn/T//ccRoPncs.s:11157  .bss.disp_size:0000000000000000 $d
/var/folders/k2/cd9bl_j17z77g23y6ffqb_400000gn/T//ccRoPncs.s:11159  .bss.grey_filter.0:0000000000000000 $d
/var/folders/k2/cd9bl_j17z77g23y6ffqb_400000gn/T//ccRoPncs.s:11163  .bss.grey_filter.0:0000000000000000 grey_filter.0
/var/folders/k2/cd9bl_j17z77g23y6ffqb_400000gn/T//ccRoPncs.s:11169  .bss.inited:0000000000000000 inited
/var/folders/k2/cd9bl_j17z77g23y6ffqb_400000gn/T//ccRoPncs.s:11170  .bss.inited:0000000000000000 $d
/var/folders/k2/cd9bl_j17z77g23y6ffqb_400000gn/T//ccRoPncs.s:11172  .bss.styles:0000000000000000 $d
/var/folders/k2/cd9bl_j17z77g23y6ffqb_400000gn/T//ccRoPncs.s:11176  .bss.styles:0000000000000000 styles
/var/folders/k2/cd9bl_j17z77g23y6ffqb_400000gn/T//ccRoPncs.s:11179  .bss.theme:0000000000000000 $d
/var/folders/k2/cd9bl_j17z77g23y6ffqb_400000gn/T//ccRoPncs.s:11183  .bss.theme:0000000000000000 theme
/var/folders/k2/cd9bl_j17z77g23y6ffqb_400000gn/T//ccRoPncs.s:11186  .bss.trans_delayed.4:0000000000000000 $d
/var/folders/k2/cd9bl_j17z77g23y6ffqb_400000gn/T//ccRoPncs.s:11190  .bss.trans_delayed.4:0000000000000000 trans_delayed.4
/var/folders/k2/cd9bl_j17z77g23y6ffqb_400000gn/T//ccRoPncs.s:11193  .bss.trans_normal.2:0000000000000000 $d
/var/folders/k2/cd9bl_j17z77g23y6ffqb_400000gn/T//ccRoPncs.s:11197  .bss.trans_normal.2:0000000000000000 trans_normal.2
/var/folders/k2/cd9bl_j17z77g23y6ffqb_400000gn/T//ccRoPncs.s:11200  .rodata.trans_props.3:0000000000000000 $d
/var/folders/k2/cd9bl_j17z77g23y6ffqb_400000gn/T//ccRoPncs.s:11204  .rodata.trans_props.3:0000000000000000 trans_props.3

UNDEFINED SYMBOLS
lv_obj_get_parent
lv_obj_check_type
lv_obj_add_style
lv_obj_get_child_id
lv_obj_class
lv_tabview_class
lv_win_class
lv_btn_class
lv_colorwheel_class
lv_line_class
lv_btnmatrix_class
lv_msgbox_class
lv_bar_class
lv_slider_class
lv_table_class
lv_checkbox_class
lv_switch_class
lv_chart_class
lv_roller_class
lv_dropdown_class
lv_dropdownlist_class
lv_arc_class
lv_spinner_class
lv_meter_class
lv_textarea_class
lv_calendar_class
lv_calendar_header_arrow_class
lv_calendar_header_dropdown_class
lv_keyboard_class
lv_list_class
lv_list_text_class
ARM GAS  /var/folders/k2/cd9bl_j17z77g23y6ffqb_400000gn/T//ccRoPncs.s 			page 283


lv_list_btn_class
lv_spinbox_class
lv_tileview_class
lv_tileview_tile_class
lv_led_class
lv_color_darken
lv_style_reset
lv_style_init
lv_palette_darken
lv_palette_lighten
lv_style_transition_dsc_init
lv_style_set_transition
lv_style_set_bg_color
lv_style_set_radius
lv_disp_get_dpi
lv_style_set_pad_right
lv_style_set_pad_top
lv_style_set_width
lv_style_set_height
lv_style_set_bg_opa
lv_style_set_text_color
lv_style_set_pad_row
lv_style_set_pad_column
lv_style_set_border_color
lv_style_set_border_width
lv_style_set_border_post
lv_style_set_pad_left
lv_style_set_pad_bottom
lv_anim_path_linear
lv_palette_main
lv_style_set_line_color
lv_style_set_line_width
lv_style_set_outline_color
lv_style_set_outline_width
lv_style_set_outline_pad
lv_style_set_outline_opa
lv_style_set_color_filter_dsc
lv_style_set_color_filter_opa
lv_style_set_clip_corner
lv_style_set_text_line_space
lv_style_set_text_align
lv_style_set_transform_width
lv_style_set_transform_height
lv_style_set_anim_time
lv_style_set_arc_color
lv_style_set_arc_width
lv_style_set_arc_rounded
lv_style_set_max_height
lv_style_set_bg_img_src
lv_style_set_text_font
lv_style_set_border_side
lv_style_set_max_width
lv_style_set_shadow_width
lv_style_set_bg_grad_color
lv_style_set_shadow_color
lv_style_set_shadow_spread
lv_style_set_shadow_ofs_y
ARM GAS  /var/folders/k2/cd9bl_j17z77g23y6ffqb_400000gn/T//ccRoPncs.s 			page 284


lv_disp_get_default
lv_disp_get_hor_res
lv_disp_get_theme
lv_obj_report_style_change
lv_mem_alloc
_lv_theme_default_styles
