ARM GAS  /var/folders/k2/cd9bl_j17z77g23y6ffqb_400000gn/T//cc1G1Tgh.s 			page 1


   1              		.cpu cortex-m4
   2              		.eabi_attribute 27, 1
   3              		.eabi_attribute 28, 1
   4              		.eabi_attribute 20, 1
   5              		.eabi_attribute 21, 1
   6              		.eabi_attribute 23, 3
   7              		.eabi_attribute 24, 1
   8              		.eabi_attribute 25, 1
   9              		.eabi_attribute 26, 1
  10              		.eabi_attribute 30, 1
  11              		.eabi_attribute 34, 1
  12              		.eabi_attribute 18, 4
  13              		.file	"lwip.c"
  14              		.text
  15              	.Ltext0:
  16              		.cfi_sections	.debug_frame
  17              		.section	.text.MX_LWIP_Init,"ax",%progbits
  18              		.align	1
  19              		.global	MX_LWIP_Init
  20              		.arch armv7e-m
  21              		.syntax unified
  22              		.thumb
  23              		.thumb_func
  24              		.fpu fpv4-sp-d16
  26              	MX_LWIP_Init:
  27              	.LFB155:
  28              		.file 1 "LWIP/App/lwip.c"
   1:LWIP/App/lwip.c **** /**
   2:LWIP/App/lwip.c ****  ******************************************************************************
   3:LWIP/App/lwip.c ****   * File Name          : LWIP.c
   4:LWIP/App/lwip.c ****   * Description        : This file provides initialization code for LWIP
   5:LWIP/App/lwip.c ****   *                      middleWare.
   6:LWIP/App/lwip.c ****   ******************************************************************************
   7:LWIP/App/lwip.c ****   * @attention
   8:LWIP/App/lwip.c ****   *
   9:LWIP/App/lwip.c ****   * <h2><center>&copy; Copyright (c) 2021 STMicroelectronics.
  10:LWIP/App/lwip.c ****   * All rights reserved.</center></h2>
  11:LWIP/App/lwip.c ****   *
  12:LWIP/App/lwip.c ****   * This software component is licensed by ST under Ultimate Liberty license
  13:LWIP/App/lwip.c ****   * SLA0044, the "License"; You may not use this file except in compliance with
  14:LWIP/App/lwip.c ****   * the License. You may obtain a copy of the License at:
  15:LWIP/App/lwip.c ****   *                             www.st.com/SLA0044
  16:LWIP/App/lwip.c ****   *
  17:LWIP/App/lwip.c ****   ******************************************************************************
  18:LWIP/App/lwip.c ****   */
  19:LWIP/App/lwip.c **** 
  20:LWIP/App/lwip.c **** /* Includes ------------------------------------------------------------------*/
  21:LWIP/App/lwip.c **** #include "lwip.h"
  22:LWIP/App/lwip.c **** #include "lwip/init.h"
  23:LWIP/App/lwip.c **** #include "lwip/netif.h"
  24:LWIP/App/lwip.c **** #if defined ( __CC_ARM )  /* MDK ARM Compiler */
  25:LWIP/App/lwip.c **** #include "lwip/sio.h"
  26:LWIP/App/lwip.c **** #endif /* MDK ARM Compiler */
  27:LWIP/App/lwip.c **** #include "ethernetif.h"
  28:LWIP/App/lwip.c **** 
  29:LWIP/App/lwip.c **** /* USER CODE BEGIN 0 */
  30:LWIP/App/lwip.c **** 
ARM GAS  /var/folders/k2/cd9bl_j17z77g23y6ffqb_400000gn/T//cc1G1Tgh.s 			page 2


  31:LWIP/App/lwip.c **** /* USER CODE END 0 */
  32:LWIP/App/lwip.c **** /* Private function prototypes -----------------------------------------------*/
  33:LWIP/App/lwip.c **** /* ETH Variables initialization ----------------------------------------------*/
  34:LWIP/App/lwip.c **** void Error_Handler(void);
  35:LWIP/App/lwip.c **** 
  36:LWIP/App/lwip.c **** /* DHCP Variables initialization ---------------------------------------------*/
  37:LWIP/App/lwip.c **** uint32_t DHCPfineTimer = 0;
  38:LWIP/App/lwip.c **** uint32_t DHCPcoarseTimer = 0;
  39:LWIP/App/lwip.c **** /* USER CODE BEGIN 1 */
  40:LWIP/App/lwip.c **** 
  41:LWIP/App/lwip.c **** /* USER CODE END 1 */
  42:LWIP/App/lwip.c **** 
  43:LWIP/App/lwip.c **** /* Variables Initialization */
  44:LWIP/App/lwip.c **** struct netif gnetif;
  45:LWIP/App/lwip.c **** ip4_addr_t ipaddr;
  46:LWIP/App/lwip.c **** ip4_addr_t netmask;
  47:LWIP/App/lwip.c **** ip4_addr_t gw;
  48:LWIP/App/lwip.c **** 
  49:LWIP/App/lwip.c **** /* USER CODE BEGIN 2 */
  50:LWIP/App/lwip.c **** 
  51:LWIP/App/lwip.c **** /* USER CODE END 2 */
  52:LWIP/App/lwip.c **** 
  53:LWIP/App/lwip.c **** /**
  54:LWIP/App/lwip.c ****   * LwIP initialization function
  55:LWIP/App/lwip.c ****   */
  56:LWIP/App/lwip.c **** void MX_LWIP_Init(void)
  57:LWIP/App/lwip.c **** {
  29              		.loc 1 57 1 view -0
  30              		.cfi_startproc
  31              		@ args = 0, pretend = 0, frame = 0
  32              		@ frame_needed = 0, uses_anonymous_args = 0
  33 0000 30B5     		push	{r4, r5, lr}
  34              	.LCFI0:
  35              		.cfi_def_cfa_offset 12
  36              		.cfi_offset 4, -12
  37              		.cfi_offset 5, -8
  38              		.cfi_offset 14, -4
  39 0002 85B0     		sub	sp, sp, #20
  40              	.LCFI1:
  41              		.cfi_def_cfa_offset 32
  58:LWIP/App/lwip.c ****   /* Initilialize the LwIP stack without RTOS */
  59:LWIP/App/lwip.c ****   lwip_init();
  42              		.loc 1 59 3 view .LVU1
  43 0004 FFF7FEFF 		bl	lwip_init
  44              	.LVL0:
  60:LWIP/App/lwip.c **** 
  61:LWIP/App/lwip.c ****   /* IP addresses initialization with DHCP (IPv4) */
  62:LWIP/App/lwip.c ****   ipaddr.addr = 0;
  45              		.loc 1 62 3 view .LVU2
  46              		.loc 1 62 15 is_stmt 0 view .LVU3
  47 0008 1449     		ldr	r1, .L5
  48 000a 0020     		movs	r0, #0
  49 000c 0860     		str	r0, [r1]
  63:LWIP/App/lwip.c ****   netmask.addr = 0;
  50              		.loc 1 63 3 is_stmt 1 view .LVU4
  51              		.loc 1 63 16 is_stmt 0 view .LVU5
  52 000e 144A     		ldr	r2, .L5+4
ARM GAS  /var/folders/k2/cd9bl_j17z77g23y6ffqb_400000gn/T//cc1G1Tgh.s 			page 3


  53 0010 1060     		str	r0, [r2]
  64:LWIP/App/lwip.c ****   gw.addr = 0;
  54              		.loc 1 64 3 is_stmt 1 view .LVU6
  55              		.loc 1 64 11 is_stmt 0 view .LVU7
  56 0012 144B     		ldr	r3, .L5+8
  57 0014 1860     		str	r0, [r3]
  65:LWIP/App/lwip.c **** 
  66:LWIP/App/lwip.c ****   /* add the network interface (IPv4/IPv6) without RTOS */
  67:LWIP/App/lwip.c ****   netif_add(&gnetif, &ipaddr, &netmask, &gw, NULL, &ethernetif_init, &ethernet_input);
  58              		.loc 1 67 3 is_stmt 1 view .LVU8
  59 0016 144C     		ldr	r4, .L5+12
  60 0018 144D     		ldr	r5, .L5+16
  61 001a 0295     		str	r5, [sp, #8]
  62 001c 144D     		ldr	r5, .L5+20
  63 001e 0195     		str	r5, [sp, #4]
  64 0020 0090     		str	r0, [sp]
  65 0022 2046     		mov	r0, r4
  66 0024 FFF7FEFF 		bl	netif_add
  67              	.LVL1:
  68:LWIP/App/lwip.c **** 
  69:LWIP/App/lwip.c ****   /* Registers the default network interface */
  70:LWIP/App/lwip.c ****   netif_set_default(&gnetif);
  68              		.loc 1 70 3 view .LVU9
  69 0028 2046     		mov	r0, r4
  70 002a FFF7FEFF 		bl	netif_set_default
  71              	.LVL2:
  71:LWIP/App/lwip.c **** 
  72:LWIP/App/lwip.c ****   if (netif_is_link_up(&gnetif))
  72              		.loc 1 72 3 view .LVU10
  73              		.loc 1 72 7 is_stmt 0 view .LVU11
  74 002e 94F83130 		ldrb	r3, [r4, #49]	@ zero_extendqisi2
  75              		.loc 1 72 6 view .LVU12
  76 0032 13F0040F 		tst	r3, #4
  77 0036 0CD0     		beq	.L2
  73:LWIP/App/lwip.c ****   {
  74:LWIP/App/lwip.c ****     /* When the netif is fully configured this function must be called */
  75:LWIP/App/lwip.c ****     netif_set_up(&gnetif);
  78              		.loc 1 75 5 is_stmt 1 view .LVU13
  79 0038 2046     		mov	r0, r4
  80 003a FFF7FEFF 		bl	netif_set_up
  81              	.LVL3:
  82              	.L3:
  76:LWIP/App/lwip.c ****   }
  77:LWIP/App/lwip.c ****   else
  78:LWIP/App/lwip.c ****   {
  79:LWIP/App/lwip.c ****     /* When the netif link is down this function must be called */
  80:LWIP/App/lwip.c ****     netif_set_down(&gnetif);
  81:LWIP/App/lwip.c ****   }
  82:LWIP/App/lwip.c **** 
  83:LWIP/App/lwip.c ****   /* Set the link callback function, this function is called on change of link status*/
  84:LWIP/App/lwip.c ****   netif_set_link_callback(&gnetif, ethernetif_update_config);
  83              		.loc 1 84 3 view .LVU14
  84 003e 0A4C     		ldr	r4, .L5+12
  85 0040 0C49     		ldr	r1, .L5+24
  86 0042 2046     		mov	r0, r4
  87 0044 FFF7FEFF 		bl	netif_set_link_callback
  88              	.LVL4:
ARM GAS  /var/folders/k2/cd9bl_j17z77g23y6ffqb_400000gn/T//cc1G1Tgh.s 			page 4


  85:LWIP/App/lwip.c **** 
  86:LWIP/App/lwip.c ****   /* Create the Ethernet link handler thread */
  87:LWIP/App/lwip.c **** 
  88:LWIP/App/lwip.c ****   /* Start DHCP negotiation for a network interface (IPv4) */
  89:LWIP/App/lwip.c ****   dhcp_start(&gnetif);
  89              		.loc 1 89 3 view .LVU15
  90 0048 2046     		mov	r0, r4
  91 004a FFF7FEFF 		bl	dhcp_start
  92              	.LVL5:
  90:LWIP/App/lwip.c **** 
  91:LWIP/App/lwip.c **** /* USER CODE BEGIN 3 */
  92:LWIP/App/lwip.c **** 
  93:LWIP/App/lwip.c **** /* USER CODE END 3 */
  94:LWIP/App/lwip.c **** }
  93              		.loc 1 94 1 is_stmt 0 view .LVU16
  94 004e 05B0     		add	sp, sp, #20
  95              	.LCFI2:
  96              		.cfi_remember_state
  97              		.cfi_def_cfa_offset 12
  98              		@ sp needed
  99 0050 30BD     		pop	{r4, r5, pc}
 100              	.L2:
 101              	.LCFI3:
 102              		.cfi_restore_state
  80:LWIP/App/lwip.c ****   }
 103              		.loc 1 80 5 is_stmt 1 view .LVU17
 104 0052 0548     		ldr	r0, .L5+12
 105 0054 FFF7FEFF 		bl	netif_set_down
 106              	.LVL6:
 107 0058 F1E7     		b	.L3
 108              	.L6:
 109 005a 00BF     		.align	2
 110              	.L5:
 111 005c 00000000 		.word	.LANCHOR0
 112 0060 00000000 		.word	.LANCHOR1
 113 0064 00000000 		.word	.LANCHOR2
 114 0068 00000000 		.word	.LANCHOR3
 115 006c 00000000 		.word	ethernet_input
 116 0070 00000000 		.word	ethernetif_init
 117 0074 00000000 		.word	ethernetif_update_config
 118              		.cfi_endproc
 119              	.LFE155:
 121              		.section	.text.MX_LWIP_Process,"ax",%progbits
 122              		.align	1
 123              		.global	MX_LWIP_Process
 124              		.syntax unified
 125              		.thumb
 126              		.thumb_func
 127              		.fpu fpv4-sp-d16
 129              	MX_LWIP_Process:
 130              	.LFB156:
  95:LWIP/App/lwip.c **** 
  96:LWIP/App/lwip.c **** #ifdef USE_OBSOLETE_USER_CODE_SECTION_4
  97:LWIP/App/lwip.c **** /* Kept to help code migration. (See new 4_1, 4_2... sections) */
  98:LWIP/App/lwip.c **** /* Avoid to use this user section which will become obsolete. */
  99:LWIP/App/lwip.c **** /* USER CODE BEGIN 4 */
 100:LWIP/App/lwip.c **** /* USER CODE END 4 */
ARM GAS  /var/folders/k2/cd9bl_j17z77g23y6ffqb_400000gn/T//cc1G1Tgh.s 			page 5


 101:LWIP/App/lwip.c **** #endif
 102:LWIP/App/lwip.c **** 
 103:LWIP/App/lwip.c **** /**
 104:LWIP/App/lwip.c ****  * ----------------------------------------------------------------------
 105:LWIP/App/lwip.c ****  * Function given to help user to continue LwIP Initialization
 106:LWIP/App/lwip.c ****  * Up to user to complete or change this function ...
 107:LWIP/App/lwip.c ****  * Up to user to call this function in main.c in while (1) of main(void)
 108:LWIP/App/lwip.c ****  *-----------------------------------------------------------------------
 109:LWIP/App/lwip.c ****  * Read a received packet from the Ethernet buffers
 110:LWIP/App/lwip.c ****  * Send it to the lwIP stack for handling
 111:LWIP/App/lwip.c ****  * Handle timeouts if LWIP_TIMERS is set and without RTOS
 112:LWIP/App/lwip.c ****  * Handle the llink status if LWIP_NETIF_LINK_CALLBACK is set and without RTOS
 113:LWIP/App/lwip.c ****  */
 114:LWIP/App/lwip.c **** void MX_LWIP_Process(void)
 115:LWIP/App/lwip.c **** {
 131              		.loc 1 115 1 view -0
 132              		.cfi_startproc
 133              		@ args = 0, pretend = 0, frame = 0
 134              		@ frame_needed = 0, uses_anonymous_args = 0
 135 0000 08B5     		push	{r3, lr}
 136              	.LCFI4:
 137              		.cfi_def_cfa_offset 8
 138              		.cfi_offset 3, -8
 139              		.cfi_offset 14, -4
 116:LWIP/App/lwip.c **** /* USER CODE BEGIN 4_1 */
 117:LWIP/App/lwip.c **** /* USER CODE END 4_1 */
 118:LWIP/App/lwip.c ****   ethernetif_input(&gnetif);
 140              		.loc 1 118 3 view .LVU19
 141 0002 0348     		ldr	r0, .L9
 142 0004 FFF7FEFF 		bl	ethernetif_input
 143              	.LVL7:
 119:LWIP/App/lwip.c **** 
 120:LWIP/App/lwip.c **** /* USER CODE BEGIN 4_2 */
 121:LWIP/App/lwip.c **** /* USER CODE END 4_2 */
 122:LWIP/App/lwip.c ****   /* Handle timeouts */
 123:LWIP/App/lwip.c ****   sys_check_timeouts();
 144              		.loc 1 123 3 view .LVU20
 145 0008 FFF7FEFF 		bl	sys_check_timeouts
 146              	.LVL8:
 124:LWIP/App/lwip.c **** 
 125:LWIP/App/lwip.c **** /* USER CODE BEGIN 4_3 */
 126:LWIP/App/lwip.c **** /* USER CODE END 4_3 */
 127:LWIP/App/lwip.c **** }
 147              		.loc 1 127 1 is_stmt 0 view .LVU21
 148 000c 08BD     		pop	{r3, pc}
 149              	.L10:
 150 000e 00BF     		.align	2
 151              	.L9:
 152 0010 00000000 		.word	.LANCHOR3
 153              		.cfi_endproc
 154              	.LFE156:
 156              		.global	gw
 157              		.global	netmask
 158              		.global	ipaddr
 159              		.global	gnetif
 160              		.global	DHCPcoarseTimer
 161              		.global	DHCPfineTimer
ARM GAS  /var/folders/k2/cd9bl_j17z77g23y6ffqb_400000gn/T//cc1G1Tgh.s 			page 6


 162              		.section	.bss.DHCPcoarseTimer,"aw",%nobits
 163              		.align	2
 166              	DHCPcoarseTimer:
 167 0000 00000000 		.space	4
 168              		.section	.bss.DHCPfineTimer,"aw",%nobits
 169              		.align	2
 172              	DHCPfineTimer:
 173 0000 00000000 		.space	4
 174              		.section	.bss.gnetif,"aw",%nobits
 175              		.align	2
 176              		.set	.LANCHOR3,. + 0
 179              	gnetif:
 180 0000 00000000 		.space	56
 180      00000000 
 180      00000000 
 180      00000000 
 180      00000000 
 181              		.section	.bss.gw,"aw",%nobits
 182              		.align	2
 183              		.set	.LANCHOR2,. + 0
 186              	gw:
 187 0000 00000000 		.space	4
 188              		.section	.bss.ipaddr,"aw",%nobits
 189              		.align	2
 190              		.set	.LANCHOR0,. + 0
 193              	ipaddr:
 194 0000 00000000 		.space	4
 195              		.section	.bss.netmask,"aw",%nobits
 196              		.align	2
 197              		.set	.LANCHOR1,. + 0
 200              	netmask:
 201 0000 00000000 		.space	4
 202              		.text
 203              	.Letext0:
 204              		.file 2 "/Users/nhantt/tools/stm32/gcc-arm-none-eabi-10-2020-q4-major/arm-none-eabi/include/machin
 205              		.file 3 "/Users/nhantt/tools/stm32/gcc-arm-none-eabi-10-2020-q4-major/arm-none-eabi/include/sys/_s
 206              		.file 4 "/Users/nhantt/STM32Cube/Repository/STM32Cube_FW_F4_V1.26.0/Middlewares/Third_Party/LwIP/s
 207              		.file 5 "/Users/nhantt/STM32Cube/Repository/STM32Cube_FW_F4_V1.26.0/Middlewares/Third_Party/LwIP/s
 208              		.file 6 "/Users/nhantt/STM32Cube/Repository/STM32Cube_FW_F4_V1.26.0/Middlewares/Third_Party/LwIP/s
 209              		.file 7 "/Users/nhantt/STM32Cube/Repository/STM32Cube_FW_F4_V1.26.0/Middlewares/Third_Party/LwIP/s
 210              		.file 8 "/Users/nhantt/STM32Cube/Repository/STM32Cube_FW_F4_V1.26.0/Middlewares/Third_Party/LwIP/s
 211              		.file 9 "/Users/nhantt/STM32Cube/Repository/STM32Cube_FW_F4_V1.26.0/Middlewares/Third_Party/LwIP/s
 212              		.file 10 "LWIP/Target/ethernetif.h"
 213              		.file 11 "/Users/nhantt/STM32Cube/Repository/STM32Cube_FW_F4_V1.26.0/Middlewares/Third_Party/LwIP/
 214              		.file 12 "/Users/nhantt/STM32Cube/Repository/STM32Cube_FW_F4_V1.26.0/Middlewares/Third_Party/LwIP/
 215              		.file 13 "/Users/nhantt/STM32Cube/Repository/STM32Cube_FW_F4_V1.26.0/Middlewares/Third_Party/LwIP/
 216              		.file 14 "/Users/nhantt/STM32Cube/Repository/STM32Cube_FW_F4_V1.26.0/Middlewares/Third_Party/LwIP/
ARM GAS  /var/folders/k2/cd9bl_j17z77g23y6ffqb_400000gn/T//cc1G1Tgh.s 			page 7

