ARM GAS  C:\Users\BLACK_~1\AppData\Local\Temp\ccGxh1nc.s 			page 1


   1              		.cpu cortex-m4
   2              		.arch armv7e-m
   3              		.fpu fpv4-sp-d16
   4              		.eabi_attribute 27, 1
   5              		.eabi_attribute 28, 1
   6              		.eabi_attribute 20, 1
   7              		.eabi_attribute 21, 1
   8              		.eabi_attribute 23, 3
   9              		.eabi_attribute 24, 1
  10              		.eabi_attribute 25, 1
  11              		.eabi_attribute 26, 1
  12              		.eabi_attribute 30, 1
  13              		.eabi_attribute 34, 1
  14              		.eabi_attribute 18, 4
  15              		.file	"main.c"
  16              		.text
  17              	.Ltext0:
  18              		.cfi_sections	.debug_frame
  19              		.section	.rodata.touch_read.str1.4,"aMS",%progbits,1
  20              		.align	2
  21              	.LC0:
  22 0000 28782C20 		.ascii	"(x, y) = (%d, %d) \012\000"
  22      7929203D 
  22      20282564 
  22      2C202564 
  22      29200A00 
  23              		.section	.text.touch_read,"ax",%progbits
  24              		.align	1
  25              		.global	touch_read
  26              		.syntax unified
  27              		.thumb
  28              		.thumb_func
  30              	touch_read:
  31              	.LVL0:
  32              	.LFB345:
  33              		.file 1 "Src/main.c"
   1:Src/main.c    **** #include "main.h"
   2:Src/main.c    **** #include <stdlib.h>
   3:Src/main.c    **** #include <string.h>
   4:Src/main.c    **** #include <errno.h>
   5:Src/main.c    **** #include <stdio.h>
   6:Src/main.c    **** #include <unistd.h>
   7:Src/main.c    **** #include "can.h"
   8:Src/main.c    **** #include "fatfs.h"
   9:Src/main.c    **** #include "i2c.h"
  10:Src/main.c    **** #include "iwdg.h"
  11:Src/main.c    **** #include "lwip.h"
  12:Src/main.c    **** #include "rtc.h"
  13:Src/main.c    **** #include "spi.h"
  14:Src/main.c    **** #include "usart.h"
  15:Src/main.c    **** #include "usb_device.h"
  16:Src/main.c    **** #include "gpio.h"
  17:Src/main.c    **** #include "fsmc.h"
  18:Src/main.c    **** #include "dma.h"
  19:Src/main.c    **** #include "ssd1963_fsmc.h"
  20:Src/main.c    **** #include "lv_driver.h"
  21:Src/main.c    **** #include "../lvgl/lvgl.h"
ARM GAS  C:\Users\BLACK_~1\AppData\Local\Temp\ccGxh1nc.s 			page 2


  22:Src/main.c    **** #include "../lv_demos/lv_demo.h"
  23:Src/main.c    **** #include "../lv_bio_safety/lv_bio_safety_main.h"
  24:Src/main.c    **** #include "gt911.h"
  25:Src/main.c    **** 
  26:Src/main.c    **** // GUI TFT
  27:Src/main.c    **** #include "../generated/events_init.h"
  28:Src/main.c    **** #include "../generated/gui_guider.h"
  29:Src/main.c    **** #include "../generated/guider_fonts/guider_fonts.h"
  30:Src/main.c    **** #include "../custom/custom.h"
  31:Src/main.c    **** 
  32:Src/main.c    **** /* Declare printf function */
  33:Src/main.c    **** int _write(int file, char *data, int len);
  34:Src/main.c    **** void HAL_GPIO_EXTI_Callback(uint16_t GPIO_Pin);
  35:Src/main.c    **** void touch_read(lv_indev_drv_t *drv, lv_indev_data_t *data);
  36:Src/main.c    **** void lv_example_get_started_1(void);
  37:Src/main.c    **** 
  38:Src/main.c    **** void SystemClock_Config(void);
  39:Src/main.c    **** 
  40:Src/main.c    **** 
  41:Src/main.c    **** GT911_Config_t sampleConfig = {.X_Resolution = 800, .Y_Resolution = 272, .Number_Of_Touch_Support =
  42:Src/main.c    **** TouchCordinate_t cordinate[5];
  43:Src/main.c    **** uint8_t number;
  44:Src/main.c    **** uint8_t touch_int = 0;
  45:Src/main.c    **** 
  46:Src/main.c    **** uint8_t buff[2];
  47:Src/main.c    **** uint32_t id;
  48:Src/main.c    **** 
  49:Src/main.c    **** uint8_t status;
  50:Src/main.c    **** uint32_t tick;
  51:Src/main.c    **** 
  52:Src/main.c    **** lv_ui guider_ui;
  53:Src/main.c    **** 
  54:Src/main.c    **** int main(void)
  55:Src/main.c    **** {
  56:Src/main.c    ****   /* Reset of all peripherals, Initializes the Flash interface and the Systick. */
  57:Src/main.c    ****   HAL_Init();
  58:Src/main.c    **** 
  59:Src/main.c    ****   /* Configure the system clock */
  60:Src/main.c    ****   SystemClock_Config();
  61:Src/main.c    **** 
  62:Src/main.c    ****   /* Initialize all configured peripherals */
  63:Src/main.c    ****   MX_GPIO_Init();
  64:Src/main.c    ****   //MX_CAN1_Init();
  65:Src/main.c    ****   MX_FSMC_Init();
  66:Src/main.c    ****   MX_I2C1_Init();
  67:Src/main.c    ****   MX_USB_DEVICE_Init();
  68:Src/main.c    **** 
  69:Src/main.c    ****   GT911_Init(sampleConfig);
  70:Src/main.c    ****   lv_init(); 
  71:Src/main.c    **** 
  72:Src/main.c    ****   tft_init();
  73:Src/main.c    **** 
  74:Src/main.c    **** 
  75:Src/main.c    ****   static lv_indev_drv_t indev_drv;
  76:Src/main.c    ****   lv_indev_drv_init(&indev_drv);
  77:Src/main.c    ****   indev_drv.read_cb = touch_read;
  78:Src/main.c    ****   indev_drv.type = LV_INDEV_TYPE_POINTER;
ARM GAS  C:\Users\BLACK_~1\AppData\Local\Temp\ccGxh1nc.s 			page 3


  79:Src/main.c    ****   lv_indev_drv_register(&indev_drv);
  80:Src/main.c    **** 
  81:Src/main.c    ****   setup_ui(&guider_ui);
  82:Src/main.c    ****   events_init(&guider_ui);
  83:Src/main.c    ****   custom_init(&guider_ui);
  84:Src/main.c    **** 
  85:Src/main.c    ****   while (1)
  86:Src/main.c    ****   {
  87:Src/main.c    ****     /* USER CODE END WHILE */
  88:Src/main.c    ****     if(HAL_GetTick() - tick >= 100)
  89:Src/main.c    ****     {
  90:Src/main.c    ****       GT911_ReadTouch(cordinate, &number);
  91:Src/main.c    **** 
  92:Src/main.c    ****       lv_task_handler();
  93:Src/main.c    **** 
  94:Src/main.c    ****       tick = HAL_GetTick();
  95:Src/main.c    ****     }
  96:Src/main.c    ****     /* USER CODE BEGIN 3 */
  97:Src/main.c    ****   }
  98:Src/main.c    ****   /* USER CODE END 3 */
  99:Src/main.c    **** }
 100:Src/main.c    **** 
 101:Src/main.c    **** /**
 102:Src/main.c    ****   * @brief System Clock Configuration
 103:Src/main.c    ****   * @retval None
 104:Src/main.c    ****   */
 105:Src/main.c    **** void SystemClock_Config(void)
 106:Src/main.c    **** {
 107:Src/main.c    ****   RCC_OscInitTypeDef RCC_OscInitStruct = {0};
 108:Src/main.c    ****   RCC_ClkInitTypeDef RCC_ClkInitStruct = {0};
 109:Src/main.c    ****   RCC_PeriphCLKInitTypeDef PeriphClkInitStruct = {0};
 110:Src/main.c    **** 
 111:Src/main.c    ****   /** Configure the main internal regulator output voltage
 112:Src/main.c    ****   */
 113:Src/main.c    ****   __HAL_RCC_PWR_CLK_ENABLE();
 114:Src/main.c    ****   __HAL_PWR_VOLTAGESCALING_CONFIG(PWR_REGULATOR_VOLTAGE_SCALE1);
 115:Src/main.c    ****   /** Initializes the RCC Oscillators according to the specified parameters
 116:Src/main.c    ****   * in the RCC_OscInitTypeDef structure.
 117:Src/main.c    ****   */
 118:Src/main.c    ****   RCC_OscInitStruct.OscillatorType = RCC_OSCILLATORTYPE_LSI|RCC_OSCILLATORTYPE_HSE
 119:Src/main.c    ****                               |RCC_OSCILLATORTYPE_LSE;
 120:Src/main.c    ****   RCC_OscInitStruct.HSEState = RCC_HSE_ON;
 121:Src/main.c    ****   RCC_OscInitStruct.LSEState = RCC_LSE_ON;
 122:Src/main.c    ****   RCC_OscInitStruct.LSIState = RCC_LSI_ON;
 123:Src/main.c    ****   RCC_OscInitStruct.PLL.PLLState = RCC_PLL_ON;
 124:Src/main.c    ****   RCC_OscInitStruct.PLL.PLLSource = RCC_PLLSOURCE_HSE;
 125:Src/main.c    ****   RCC_OscInitStruct.PLL.PLLM = 25;
 126:Src/main.c    ****   RCC_OscInitStruct.PLL.PLLN = 336;
 127:Src/main.c    ****   RCC_OscInitStruct.PLL.PLLP = RCC_PLLP_DIV2;
 128:Src/main.c    ****   RCC_OscInitStruct.PLL.PLLQ = 7;
 129:Src/main.c    ****   if (HAL_RCC_OscConfig(&RCC_OscInitStruct) != HAL_OK)
 130:Src/main.c    ****   {
 131:Src/main.c    ****     Error_Handler();
 132:Src/main.c    ****   }
 133:Src/main.c    ****   /** Initializes the CPU, AHB and APB buses clocks
 134:Src/main.c    ****   */
 135:Src/main.c    ****   RCC_ClkInitStruct.ClockType = RCC_CLOCKTYPE_HCLK|RCC_CLOCKTYPE_SYSCLK
ARM GAS  C:\Users\BLACK_~1\AppData\Local\Temp\ccGxh1nc.s 			page 4


 136:Src/main.c    ****                               |RCC_CLOCKTYPE_PCLK1|RCC_CLOCKTYPE_PCLK2;
 137:Src/main.c    ****   RCC_ClkInitStruct.SYSCLKSource = RCC_SYSCLKSOURCE_PLLCLK;
 138:Src/main.c    ****   RCC_ClkInitStruct.AHBCLKDivider = RCC_SYSCLK_DIV1;
 139:Src/main.c    ****   RCC_ClkInitStruct.APB1CLKDivider = RCC_HCLK_DIV4;
 140:Src/main.c    ****   RCC_ClkInitStruct.APB2CLKDivider = RCC_HCLK_DIV2;
 141:Src/main.c    **** 
 142:Src/main.c    ****   if (HAL_RCC_ClockConfig(&RCC_ClkInitStruct, FLASH_LATENCY_5) != HAL_OK)
 143:Src/main.c    ****   {
 144:Src/main.c    ****     Error_Handler();
 145:Src/main.c    ****   }
 146:Src/main.c    ****   PeriphClkInitStruct.PeriphClockSelection = RCC_PERIPHCLK_RTC;
 147:Src/main.c    ****   PeriphClkInitStruct.RTCClockSelection = RCC_RTCCLKSOURCE_LSE;
 148:Src/main.c    ****   if (HAL_RCCEx_PeriphCLKConfig(&PeriphClkInitStruct) != HAL_OK)
 149:Src/main.c    ****   {
 150:Src/main.c    ****     Error_Handler();
 151:Src/main.c    ****   }
 152:Src/main.c    **** }
 153:Src/main.c    **** 
 154:Src/main.c    **** /* USER CODE BEGIN 4 */
 155:Src/main.c    **** int _write(int file, char *data, int len)
 156:Src/main.c    **** {
 157:Src/main.c    ****   if ((file != STDOUT_FILENO) && (file != STDERR_FILENO))
 158:Src/main.c    ****   {
 159:Src/main.c    ****     errno = EBADF;
 160:Src/main.c    ****     return -1;
 161:Src/main.c    ****   }
 162:Src/main.c    ****   uint8_t status = CDC_Transmit_FS((uint8_t *)data, len);
 163:Src/main.c    ****   return status;
 164:Src/main.c    **** }
 165:Src/main.c    **** 
 166:Src/main.c    **** void HAL_GPIO_EXTI_Callback(uint16_t GPIO_Pin)
 167:Src/main.c    **** {
 168:Src/main.c    ****   if(GPIO_Pin == GPIO_PIN_0)
 169:Src/main.c    ****   {
 170:Src/main.c    ****     printf("touch interrupt \n");
 171:Src/main.c    ****     touch_int = 1;
 172:Src/main.c    ****   }
 173:Src/main.c    **** }
 174:Src/main.c    **** 
 175:Src/main.c    **** 
 176:Src/main.c    **** void touch_read(lv_indev_drv_t *drv, lv_indev_data_t *data)
 177:Src/main.c    **** {
  34              		.loc 1 177 1 view -0
  35              		.cfi_startproc
  36              		@ args = 0, pretend = 0, frame = 0
  37              		@ frame_needed = 0, uses_anonymous_args = 0
  38              		.loc 1 177 1 is_stmt 0 view .LVU1
  39 0000 08B5     		push	{r3, lr}
  40              	.LCFI0:
  41              		.cfi_def_cfa_offset 8
  42              		.cfi_offset 3, -8
  43              		.cfi_offset 14, -4
 178:Src/main.c    ****   if(touch_int == 1)
  44              		.loc 1 178 3 is_stmt 1 view .LVU2
  45              		.loc 1 178 16 is_stmt 0 view .LVU3
  46 0002 0C4B     		ldr	r3, .L6
  47 0004 1B78     		ldrb	r3, [r3]	@ zero_extendqisi2
ARM GAS  C:\Users\BLACK_~1\AppData\Local\Temp\ccGxh1nc.s 			page 5


  48              		.loc 1 178 5 view .LVU4
  49 0006 012B     		cmp	r3, #1
  50 0008 02D0     		beq	.L5
 179:Src/main.c    ****   {
 180:Src/main.c    ****     data->point.x = cordinate[0].x;
 181:Src/main.c    ****     data->point.y = cordinate[0].y;
 182:Src/main.c    ****     data->state = LV_INDEV_STATE_PR;
 183:Src/main.c    ****     printf("(x, y) = (%d, %d) \n", data->point.x, data->point.y);
 184:Src/main.c    ****     touch_int = 0;
 185:Src/main.c    ****   }
 186:Src/main.c    ****   else
 187:Src/main.c    ****   {
 188:Src/main.c    ****     data->state = LV_INDEV_STATE_REL;
  51              		.loc 1 188 5 is_stmt 1 view .LVU5
  52              		.loc 1 188 17 is_stmt 0 view .LVU6
  53 000a 0023     		movs	r3, #0
  54 000c 8B73     		strb	r3, [r1, #14]
  55              	.LVL1:
  56              	.L1:
 189:Src/main.c    ****   }
 190:Src/main.c    **** }
  57              		.loc 1 190 1 view .LVU7
  58 000e 08BD     		pop	{r3, pc}
  59              	.LVL2:
  60              	.L5:
 180:Src/main.c    ****     data->point.y = cordinate[0].y;
  61              		.loc 1 180 5 is_stmt 1 view .LVU8
 180:Src/main.c    ****     data->point.y = cordinate[0].y;
  62              		.loc 1 180 33 is_stmt 0 view .LVU9
  63 0010 094A     		ldr	r2, .L6+4
  64 0012 B2F90030 		ldrsh	r3, [r2]
 180:Src/main.c    ****     data->point.y = cordinate[0].y;
  65              		.loc 1 180 19 view .LVU10
  66 0016 0B80     		strh	r3, [r1]	@ movhi
 181:Src/main.c    ****     data->state = LV_INDEV_STATE_PR;
  67              		.loc 1 181 5 is_stmt 1 view .LVU11
 181:Src/main.c    ****     data->state = LV_INDEV_STATE_PR;
  68              		.loc 1 181 33 is_stmt 0 view .LVU12
  69 0018 B2F90220 		ldrsh	r2, [r2, #2]
 181:Src/main.c    ****     data->state = LV_INDEV_STATE_PR;
  70              		.loc 1 181 19 view .LVU13
  71 001c 4A80     		strh	r2, [r1, #2]	@ movhi
 182:Src/main.c    ****     printf("(x, y) = (%d, %d) \n", data->point.x, data->point.y);
  72              		.loc 1 182 5 is_stmt 1 view .LVU14
 182:Src/main.c    ****     printf("(x, y) = (%d, %d) \n", data->point.x, data->point.y);
  73              		.loc 1 182 17 is_stmt 0 view .LVU15
  74 001e 0120     		movs	r0, #1
  75              	.LVL3:
 182:Src/main.c    ****     printf("(x, y) = (%d, %d) \n", data->point.x, data->point.y);
  76              		.loc 1 182 17 view .LVU16
  77 0020 8873     		strb	r0, [r1, #14]
 183:Src/main.c    ****     touch_int = 0;
  78              		.loc 1 183 5 is_stmt 1 view .LVU17
  79 0022 1946     		mov	r1, r3
  80              	.LVL4:
 183:Src/main.c    ****     touch_int = 0;
  81              		.loc 1 183 5 is_stmt 0 view .LVU18
ARM GAS  C:\Users\BLACK_~1\AppData\Local\Temp\ccGxh1nc.s 			page 6


  82 0024 0548     		ldr	r0, .L6+8
  83 0026 FFF7FEFF 		bl	printf
  84              	.LVL5:
 184:Src/main.c    ****   }
  85              		.loc 1 184 5 is_stmt 1 view .LVU19
 184:Src/main.c    ****   }
  86              		.loc 1 184 15 is_stmt 0 view .LVU20
  87 002a 024B     		ldr	r3, .L6
  88 002c 0022     		movs	r2, #0
  89 002e 1A70     		strb	r2, [r3]
  90 0030 EDE7     		b	.L1
  91              	.L7:
  92 0032 00BF     		.align	2
  93              	.L6:
  94 0034 00000000 		.word	.LANCHOR0
  95 0038 00000000 		.word	.LANCHOR1
  96 003c 00000000 		.word	.LC0
  97              		.cfi_endproc
  98              	.LFE345:
 100              		.section	.text._write,"ax",%progbits
 101              		.align	1
 102              		.global	_write
 103              		.syntax unified
 104              		.thumb
 105              		.thumb_func
 107              	_write:
 108              	.LVL6:
 109              	.LFB343:
 156:Src/main.c    ****   if ((file != STDOUT_FILENO) && (file != STDERR_FILENO))
 110              		.loc 1 156 1 is_stmt 1 view -0
 111              		.cfi_startproc
 112              		@ args = 0, pretend = 0, frame = 0
 113              		@ frame_needed = 0, uses_anonymous_args = 0
 156:Src/main.c    ****   if ((file != STDOUT_FILENO) && (file != STDERR_FILENO))
 114              		.loc 1 156 1 is_stmt 0 view .LVU22
 115 0000 08B5     		push	{r3, lr}
 116              	.LCFI1:
 117              		.cfi_def_cfa_offset 8
 118              		.cfi_offset 3, -8
 119              		.cfi_offset 14, -4
 157:Src/main.c    ****   {
 120              		.loc 1 157 3 is_stmt 1 view .LVU23
 157:Src/main.c    ****   {
 121              		.loc 1 157 31 is_stmt 0 view .LVU24
 122 0002 431E     		subs	r3, r0, #1
 157:Src/main.c    ****   {
 123              		.loc 1 157 6 view .LVU25
 124 0004 012B     		cmp	r3, #1
 125 0006 05D8     		bhi	.L12
 126 0008 0846     		mov	r0, r1
 127              	.LVL7:
 157:Src/main.c    ****   {
 128              		.loc 1 157 6 view .LVU26
 129 000a 1146     		mov	r1, r2
 130              	.LVL8:
 162:Src/main.c    ****   return status;
 131              		.loc 1 162 3 is_stmt 1 view .LVU27
ARM GAS  C:\Users\BLACK_~1\AppData\Local\Temp\ccGxh1nc.s 			page 7


 162:Src/main.c    ****   return status;
 132              		.loc 1 162 20 is_stmt 0 view .LVU28
 133 000c FFF7FEFF 		bl	CDC_Transmit_FS
 134              	.LVL9:
 163:Src/main.c    **** }
 135              		.loc 1 163 3 is_stmt 1 view .LVU29
 136 0010 C0B2     		uxtb	r0, r0
 137              	.LVL10:
 138              	.L8:
 164:Src/main.c    **** 
 139              		.loc 1 164 1 is_stmt 0 view .LVU30
 140 0012 08BD     		pop	{r3, pc}
 141              	.LVL11:
 142              	.L12:
 159:Src/main.c    ****     return -1;
 143              		.loc 1 159 5 is_stmt 1 view .LVU31
 159:Src/main.c    ****     return -1;
 144              		.loc 1 159 11 is_stmt 0 view .LVU32
 145 0014 024B     		ldr	r3, .L13
 146 0016 0922     		movs	r2, #9
 147              	.LVL12:
 159:Src/main.c    ****     return -1;
 148              		.loc 1 159 11 view .LVU33
 149 0018 1A60     		str	r2, [r3]
 160:Src/main.c    ****   }
 150              		.loc 1 160 5 is_stmt 1 view .LVU34
 160:Src/main.c    ****   }
 151              		.loc 1 160 12 is_stmt 0 view .LVU35
 152 001a 4FF0FF30 		mov	r0, #-1
 153              	.LVL13:
 160:Src/main.c    ****   }
 154              		.loc 1 160 12 view .LVU36
 155 001e F8E7     		b	.L8
 156              	.L14:
 157              		.align	2
 158              	.L13:
 159 0020 00000000 		.word	errno
 160              		.cfi_endproc
 161              	.LFE343:
 163              		.section	.rodata.HAL_GPIO_EXTI_Callback.str1.4,"aMS",%progbits,1
 164              		.align	2
 165              	.LC1:
 166 0000 746F7563 		.ascii	"touch interrupt \000"
 166      6820696E 
 166      74657272 
 166      75707420 
 166      00
 167              		.section	.text.HAL_GPIO_EXTI_Callback,"ax",%progbits
 168              		.align	1
 169              		.global	HAL_GPIO_EXTI_Callback
 170              		.syntax unified
 171              		.thumb
 172              		.thumb_func
 174              	HAL_GPIO_EXTI_Callback:
 175              	.LVL14:
 176              	.LFB344:
 167:Src/main.c    ****   if(GPIO_Pin == GPIO_PIN_0)
ARM GAS  C:\Users\BLACK_~1\AppData\Local\Temp\ccGxh1nc.s 			page 8


 177              		.loc 1 167 1 is_stmt 1 view -0
 178              		.cfi_startproc
 179              		@ args = 0, pretend = 0, frame = 0
 180              		@ frame_needed = 0, uses_anonymous_args = 0
 168:Src/main.c    ****   {
 181              		.loc 1 168 3 view .LVU38
 168:Src/main.c    ****   {
 182              		.loc 1 168 5 is_stmt 0 view .LVU39
 183 0000 0128     		cmp	r0, #1
 184 0002 00D0     		beq	.L21
 185 0004 7047     		bx	lr
 186              	.L21:
 167:Src/main.c    ****   if(GPIO_Pin == GPIO_PIN_0)
 187              		.loc 1 167 1 view .LVU40
 188 0006 08B5     		push	{r3, lr}
 189              	.LCFI2:
 190              		.cfi_def_cfa_offset 8
 191              		.cfi_offset 3, -8
 192              		.cfi_offset 14, -4
 170:Src/main.c    ****     touch_int = 1;
 193              		.loc 1 170 5 is_stmt 1 view .LVU41
 194 0008 0348     		ldr	r0, .L22
 195              	.LVL15:
 170:Src/main.c    ****     touch_int = 1;
 196              		.loc 1 170 5 is_stmt 0 view .LVU42
 197 000a FFF7FEFF 		bl	puts
 198              	.LVL16:
 171:Src/main.c    ****   }
 199              		.loc 1 171 5 is_stmt 1 view .LVU43
 171:Src/main.c    ****   }
 200              		.loc 1 171 15 is_stmt 0 view .LVU44
 201 000e 034B     		ldr	r3, .L22+4
 202 0010 0122     		movs	r2, #1
 203 0012 1A70     		strb	r2, [r3]
 173:Src/main.c    **** 
 204              		.loc 1 173 1 view .LVU45
 205 0014 08BD     		pop	{r3, pc}
 206              	.L23:
 207 0016 00BF     		.align	2
 208              	.L22:
 209 0018 00000000 		.word	.LC1
 210 001c 00000000 		.word	.LANCHOR0
 211              		.cfi_endproc
 212              	.LFE344:
 214              		.section	.rodata.lv_example_get_started_1.str1.4,"aMS",%progbits,1
 215              		.align	2
 216              	.LC2:
 217 0000 42757474 		.ascii	"Button\000"
 217      6F6E00
 218              		.section	.text.lv_example_get_started_1,"ax",%progbits
 219              		.align	1
 220              		.global	lv_example_get_started_1
 221              		.syntax unified
 222              		.thumb
 223              		.thumb_func
 225              	lv_example_get_started_1:
 226              	.LFB346:
ARM GAS  C:\Users\BLACK_~1\AppData\Local\Temp\ccGxh1nc.s 			page 9


 191:Src/main.c    **** 
 192:Src/main.c    **** void lv_example_get_started_1(void)
 193:Src/main.c    **** {
 227              		.loc 1 193 1 is_stmt 1 view -0
 228              		.cfi_startproc
 229              		@ args = 0, pretend = 0, frame = 0
 230              		@ frame_needed = 0, uses_anonymous_args = 0
 231 0000 10B5     		push	{r4, lr}
 232              	.LCFI3:
 233              		.cfi_def_cfa_offset 8
 234              		.cfi_offset 4, -8
 235              		.cfi_offset 14, -4
 194:Src/main.c    ****     lv_obj_t * btn = lv_btn_create(lv_scr_act());     /*Add a button the current screen*/
 236              		.loc 1 194 5 view .LVU47
 237              	.LBB12:
 238              	.LBI12:
 239              		.file 2 "Inc/../lvgl/src/core/lv_disp.h"
   1:Inc/../lvgl/src/core/lv_disp.h **** /**
   2:Inc/../lvgl/src/core/lv_disp.h ****  * @file lv_disp.h
   3:Inc/../lvgl/src/core/lv_disp.h ****  *
   4:Inc/../lvgl/src/core/lv_disp.h ****  */
   5:Inc/../lvgl/src/core/lv_disp.h **** 
   6:Inc/../lvgl/src/core/lv_disp.h **** #ifndef LV_DISP_H
   7:Inc/../lvgl/src/core/lv_disp.h **** #define LV_DISP_H
   8:Inc/../lvgl/src/core/lv_disp.h **** 
   9:Inc/../lvgl/src/core/lv_disp.h **** #ifdef __cplusplus
  10:Inc/../lvgl/src/core/lv_disp.h **** extern "C" {
  11:Inc/../lvgl/src/core/lv_disp.h **** #endif
  12:Inc/../lvgl/src/core/lv_disp.h **** 
  13:Inc/../lvgl/src/core/lv_disp.h **** /*********************
  14:Inc/../lvgl/src/core/lv_disp.h ****  *      INCLUDES
  15:Inc/../lvgl/src/core/lv_disp.h ****  *********************/
  16:Inc/../lvgl/src/core/lv_disp.h **** #include "../hal/lv_hal.h"
  17:Inc/../lvgl/src/core/lv_disp.h **** #include "lv_obj.h"
  18:Inc/../lvgl/src/core/lv_disp.h **** #include "lv_theme.h"
  19:Inc/../lvgl/src/core/lv_disp.h **** 
  20:Inc/../lvgl/src/core/lv_disp.h **** /*********************
  21:Inc/../lvgl/src/core/lv_disp.h ****  *      DEFINES
  22:Inc/../lvgl/src/core/lv_disp.h ****  *********************/
  23:Inc/../lvgl/src/core/lv_disp.h **** 
  24:Inc/../lvgl/src/core/lv_disp.h **** /**********************
  25:Inc/../lvgl/src/core/lv_disp.h ****  *      TYPEDEFS
  26:Inc/../lvgl/src/core/lv_disp.h ****  **********************/
  27:Inc/../lvgl/src/core/lv_disp.h **** 
  28:Inc/../lvgl/src/core/lv_disp.h **** typedef enum {
  29:Inc/../lvgl/src/core/lv_disp.h ****     LV_SCR_LOAD_ANIM_NONE,
  30:Inc/../lvgl/src/core/lv_disp.h ****     LV_SCR_LOAD_ANIM_OVER_LEFT,
  31:Inc/../lvgl/src/core/lv_disp.h ****     LV_SCR_LOAD_ANIM_OVER_RIGHT,
  32:Inc/../lvgl/src/core/lv_disp.h ****     LV_SCR_LOAD_ANIM_OVER_TOP,
  33:Inc/../lvgl/src/core/lv_disp.h ****     LV_SCR_LOAD_ANIM_OVER_BOTTOM,
  34:Inc/../lvgl/src/core/lv_disp.h ****     LV_SCR_LOAD_ANIM_MOVE_LEFT,
  35:Inc/../lvgl/src/core/lv_disp.h ****     LV_SCR_LOAD_ANIM_MOVE_RIGHT,
  36:Inc/../lvgl/src/core/lv_disp.h ****     LV_SCR_LOAD_ANIM_MOVE_TOP,
  37:Inc/../lvgl/src/core/lv_disp.h ****     LV_SCR_LOAD_ANIM_MOVE_BOTTOM,
  38:Inc/../lvgl/src/core/lv_disp.h ****     LV_SCR_LOAD_ANIM_FADE_ON,
  39:Inc/../lvgl/src/core/lv_disp.h **** } lv_scr_load_anim_t;
  40:Inc/../lvgl/src/core/lv_disp.h **** 
ARM GAS  C:\Users\BLACK_~1\AppData\Local\Temp\ccGxh1nc.s 			page 10


  41:Inc/../lvgl/src/core/lv_disp.h **** /**********************
  42:Inc/../lvgl/src/core/lv_disp.h ****  * GLOBAL PROTOTYPES
  43:Inc/../lvgl/src/core/lv_disp.h ****  **********************/
  44:Inc/../lvgl/src/core/lv_disp.h **** 
  45:Inc/../lvgl/src/core/lv_disp.h **** /**
  46:Inc/../lvgl/src/core/lv_disp.h ****  * Return with a pointer to the active screen
  47:Inc/../lvgl/src/core/lv_disp.h ****  * @param disp pointer to display which active screen should be get. (NULL to use the default
  48:Inc/../lvgl/src/core/lv_disp.h ****  * screen)
  49:Inc/../lvgl/src/core/lv_disp.h ****  * @return pointer to the active screen object (loaded by 'lv_scr_load()')
  50:Inc/../lvgl/src/core/lv_disp.h ****  */
  51:Inc/../lvgl/src/core/lv_disp.h **** lv_obj_t * lv_disp_get_scr_act(lv_disp_t * disp);
  52:Inc/../lvgl/src/core/lv_disp.h **** 
  53:Inc/../lvgl/src/core/lv_disp.h **** /**
  54:Inc/../lvgl/src/core/lv_disp.h ****  * Return with a pointer to the previous screen. Only used during screen transitions.
  55:Inc/../lvgl/src/core/lv_disp.h ****  * @param disp pointer to display which previous screen should be get. (NULL to use the default
  56:Inc/../lvgl/src/core/lv_disp.h ****  * screen)
  57:Inc/../lvgl/src/core/lv_disp.h ****  * @return pointer to the previous screen object or NULL if not used now
  58:Inc/../lvgl/src/core/lv_disp.h ****  */
  59:Inc/../lvgl/src/core/lv_disp.h **** lv_obj_t * lv_disp_get_scr_prev(lv_disp_t * disp);
  60:Inc/../lvgl/src/core/lv_disp.h **** 
  61:Inc/../lvgl/src/core/lv_disp.h **** /**
  62:Inc/../lvgl/src/core/lv_disp.h ****  * Make a screen active
  63:Inc/../lvgl/src/core/lv_disp.h ****  * @param scr pointer to a screen
  64:Inc/../lvgl/src/core/lv_disp.h ****  */
  65:Inc/../lvgl/src/core/lv_disp.h **** void lv_disp_load_scr(lv_obj_t * scr);
  66:Inc/../lvgl/src/core/lv_disp.h **** 
  67:Inc/../lvgl/src/core/lv_disp.h **** /**
  68:Inc/../lvgl/src/core/lv_disp.h ****  * Return with the top layer. (Same on every screen and it is above the normal screen layer)
  69:Inc/../lvgl/src/core/lv_disp.h ****  * @param disp pointer to display which top layer should be get. (NULL to use the default screen)
  70:Inc/../lvgl/src/core/lv_disp.h ****  * @return pointer to the top layer object  (transparent screen sized lv_obj)
  71:Inc/../lvgl/src/core/lv_disp.h ****  */
  72:Inc/../lvgl/src/core/lv_disp.h **** lv_obj_t * lv_disp_get_layer_top(lv_disp_t * disp);
  73:Inc/../lvgl/src/core/lv_disp.h **** 
  74:Inc/../lvgl/src/core/lv_disp.h **** /**
  75:Inc/../lvgl/src/core/lv_disp.h ****  * Return with the sys. layer. (Same on every screen and it is above the normal screen and the top
  76:Inc/../lvgl/src/core/lv_disp.h ****  * layer)
  77:Inc/../lvgl/src/core/lv_disp.h ****  * @param disp pointer to display which sys. layer  should be get. (NULL to use the default screen)
  78:Inc/../lvgl/src/core/lv_disp.h ****  * @return pointer to the sys layer object  (transparent screen sized lv_obj)
  79:Inc/../lvgl/src/core/lv_disp.h ****  */
  80:Inc/../lvgl/src/core/lv_disp.h **** lv_obj_t * lv_disp_get_layer_sys(lv_disp_t * disp);
  81:Inc/../lvgl/src/core/lv_disp.h **** 
  82:Inc/../lvgl/src/core/lv_disp.h **** /**
  83:Inc/../lvgl/src/core/lv_disp.h ****  * Get the theme of a display
  84:Inc/../lvgl/src/core/lv_disp.h ****  * @param disp pointer to a display
  85:Inc/../lvgl/src/core/lv_disp.h ****  * @return the display's theme (can be NULL)
  86:Inc/../lvgl/src/core/lv_disp.h ****  */
  87:Inc/../lvgl/src/core/lv_disp.h **** void lv_disp_set_theme(lv_disp_t * disp, lv_theme_t * th);
  88:Inc/../lvgl/src/core/lv_disp.h **** 
  89:Inc/../lvgl/src/core/lv_disp.h **** /**
  90:Inc/../lvgl/src/core/lv_disp.h ****  * Get the theme of a display
  91:Inc/../lvgl/src/core/lv_disp.h ****  * @param disp pointer to a display
  92:Inc/../lvgl/src/core/lv_disp.h ****  * @return the display's theme (can be NULL)
  93:Inc/../lvgl/src/core/lv_disp.h ****  */
  94:Inc/../lvgl/src/core/lv_disp.h **** lv_theme_t * lv_disp_get_theme(lv_disp_t * disp);
  95:Inc/../lvgl/src/core/lv_disp.h **** 
  96:Inc/../lvgl/src/core/lv_disp.h **** /**
  97:Inc/../lvgl/src/core/lv_disp.h ****  * Set the background color of a display
ARM GAS  C:\Users\BLACK_~1\AppData\Local\Temp\ccGxh1nc.s 			page 11


  98:Inc/../lvgl/src/core/lv_disp.h ****  * @param disp pointer to a display
  99:Inc/../lvgl/src/core/lv_disp.h ****  * @param color color of the background
 100:Inc/../lvgl/src/core/lv_disp.h ****  */
 101:Inc/../lvgl/src/core/lv_disp.h **** void lv_disp_set_bg_color(lv_disp_t * disp, lv_color_t color);
 102:Inc/../lvgl/src/core/lv_disp.h **** 
 103:Inc/../lvgl/src/core/lv_disp.h **** /**
 104:Inc/../lvgl/src/core/lv_disp.h ****  * Set the background image of a display
 105:Inc/../lvgl/src/core/lv_disp.h ****  * @param disp pointer to a display
 106:Inc/../lvgl/src/core/lv_disp.h ****  * @param img_src path to file or pointer to an `lv_img_dsc_t` variable
 107:Inc/../lvgl/src/core/lv_disp.h ****  */
 108:Inc/../lvgl/src/core/lv_disp.h **** void lv_disp_set_bg_image(lv_disp_t * disp, const void  * img_src);
 109:Inc/../lvgl/src/core/lv_disp.h **** 
 110:Inc/../lvgl/src/core/lv_disp.h **** /**
 111:Inc/../lvgl/src/core/lv_disp.h ****  * Opacity of the background
 112:Inc/../lvgl/src/core/lv_disp.h ****  * @param disp pointer to a display
 113:Inc/../lvgl/src/core/lv_disp.h ****  * @param opa opacity (0..255)
 114:Inc/../lvgl/src/core/lv_disp.h ****  */
 115:Inc/../lvgl/src/core/lv_disp.h **** void lv_disp_set_bg_opa(lv_disp_t * disp, lv_opa_t opa);
 116:Inc/../lvgl/src/core/lv_disp.h **** 
 117:Inc/../lvgl/src/core/lv_disp.h **** /**
 118:Inc/../lvgl/src/core/lv_disp.h ****  * Switch screen with animation
 119:Inc/../lvgl/src/core/lv_disp.h ****  * @param scr pointer to the new screen to load
 120:Inc/../lvgl/src/core/lv_disp.h ****  * @param anim_type type of the animation from `lv_scr_load_anim_t`. E.g.  `LV_SCR_LOAD_ANIM_MOVE_L
 121:Inc/../lvgl/src/core/lv_disp.h ****  * @param time time of the animation
 122:Inc/../lvgl/src/core/lv_disp.h ****  * @param delay delay before the transition
 123:Inc/../lvgl/src/core/lv_disp.h ****  * @param auto_del true: automatically delete the old screen
 124:Inc/../lvgl/src/core/lv_disp.h ****  */
 125:Inc/../lvgl/src/core/lv_disp.h **** void lv_scr_load_anim(lv_obj_t * scr, lv_scr_load_anim_t anim_type, uint32_t time, uint32_t delay, 
 126:Inc/../lvgl/src/core/lv_disp.h **** 
 127:Inc/../lvgl/src/core/lv_disp.h **** /**
 128:Inc/../lvgl/src/core/lv_disp.h ****  * Get elapsed time since last user activity on a display (e.g. click)
 129:Inc/../lvgl/src/core/lv_disp.h ****  * @param disp pointer to an display (NULL to get the overall smallest inactivity)
 130:Inc/../lvgl/src/core/lv_disp.h ****  * @return elapsed ticks (milliseconds) since the last activity
 131:Inc/../lvgl/src/core/lv_disp.h ****  */
 132:Inc/../lvgl/src/core/lv_disp.h **** uint32_t lv_disp_get_inactive_time(const lv_disp_t * disp);
 133:Inc/../lvgl/src/core/lv_disp.h **** 
 134:Inc/../lvgl/src/core/lv_disp.h **** /**
 135:Inc/../lvgl/src/core/lv_disp.h ****  * Manually trigger an activity on a display
 136:Inc/../lvgl/src/core/lv_disp.h ****  * @param disp pointer to an display (NULL to use the default display)
 137:Inc/../lvgl/src/core/lv_disp.h ****  */
 138:Inc/../lvgl/src/core/lv_disp.h **** void lv_disp_trig_activity(lv_disp_t * disp);
 139:Inc/../lvgl/src/core/lv_disp.h **** 
 140:Inc/../lvgl/src/core/lv_disp.h **** /**
 141:Inc/../lvgl/src/core/lv_disp.h ****  * Clean any CPU cache that is related to the display.
 142:Inc/../lvgl/src/core/lv_disp.h ****  * @param disp pointer to an display (NULL to use the default display)
 143:Inc/../lvgl/src/core/lv_disp.h ****  */
 144:Inc/../lvgl/src/core/lv_disp.h **** void lv_disp_clean_dcache(lv_disp_t * disp);
 145:Inc/../lvgl/src/core/lv_disp.h **** 
 146:Inc/../lvgl/src/core/lv_disp.h **** /**
 147:Inc/../lvgl/src/core/lv_disp.h ****  * Get a pointer to the screen refresher timer to
 148:Inc/../lvgl/src/core/lv_disp.h ****  * modify its parameters with `lv_timer_...` functions.
 149:Inc/../lvgl/src/core/lv_disp.h ****  * @param disp pointer to a display
 150:Inc/../lvgl/src/core/lv_disp.h ****  * @return pointer to the display refresher timer. (NULL on error)
 151:Inc/../lvgl/src/core/lv_disp.h ****  */
 152:Inc/../lvgl/src/core/lv_disp.h **** lv_timer_t * _lv_disp_get_refr_timer(lv_disp_t * disp);
 153:Inc/../lvgl/src/core/lv_disp.h **** 
 154:Inc/../lvgl/src/core/lv_disp.h **** /*------------------------------------------------
ARM GAS  C:\Users\BLACK_~1\AppData\Local\Temp\ccGxh1nc.s 			page 12


 155:Inc/../lvgl/src/core/lv_disp.h ****  * To improve backward compatibility
 156:Inc/../lvgl/src/core/lv_disp.h ****  * Recommended only if you have one display
 157:Inc/../lvgl/src/core/lv_disp.h ****  *------------------------------------------------*/
 158:Inc/../lvgl/src/core/lv_disp.h **** 
 159:Inc/../lvgl/src/core/lv_disp.h **** /**
 160:Inc/../lvgl/src/core/lv_disp.h ****  * Get the active screen of the default display
 161:Inc/../lvgl/src/core/lv_disp.h ****  * @return pointer to the active screen
 162:Inc/../lvgl/src/core/lv_disp.h ****  */
 163:Inc/../lvgl/src/core/lv_disp.h **** static inline lv_obj_t * lv_scr_act(void)
 240              		.loc 2 163 26 view .LVU48
 241              	.LBB13:
 164:Inc/../lvgl/src/core/lv_disp.h **** {
 165:Inc/../lvgl/src/core/lv_disp.h ****     return lv_disp_get_scr_act(lv_disp_get_default());
 242              		.loc 2 165 5 view .LVU49
 243              		.loc 2 165 12 is_stmt 0 view .LVU50
 244 0002 FFF7FEFF 		bl	lv_disp_get_default
 245              	.LVL17:
 246 0006 FFF7FEFF 		bl	lv_disp_get_scr_act
 247              	.LVL18:
 248              	.LBE13:
 249              	.LBE12:
 250              		.loc 1 194 22 view .LVU51
 251 000a FFF7FEFF 		bl	lv_btn_create
 252              	.LVL19:
 253 000e 0446     		mov	r4, r0
 254              	.LVL20:
 195:Src/main.c    ****     lv_obj_set_pos(btn, 10, 10);                            /*Set its position*/
 255              		.loc 1 195 5 is_stmt 1 view .LVU52
 256 0010 0A22     		movs	r2, #10
 257 0012 1146     		mov	r1, r2
 258 0014 FFF7FEFF 		bl	lv_obj_set_pos
 259              	.LVL21:
 196:Src/main.c    ****     lv_obj_set_size(btn, 120, 50);                          /*Set its size*/
 260              		.loc 1 196 5 view .LVU53
 261 0018 3222     		movs	r2, #50
 262 001a 7821     		movs	r1, #120
 263 001c 2046     		mov	r0, r4
 264 001e FFF7FEFF 		bl	lv_obj_set_size
 265              	.LVL22:
 197:Src/main.c    ****     //lv_obj_add_event_cb(btn, btn_event_cb, LV_EVENT_ALL, NULL);           /*Assign a callback to 
 198:Src/main.c    **** 
 199:Src/main.c    ****     lv_obj_t * label = lv_label_create(btn);          /*Add a label to the button*/
 266              		.loc 1 199 5 view .LVU54
 267              		.loc 1 199 24 is_stmt 0 view .LVU55
 268 0022 2046     		mov	r0, r4
 269 0024 FFF7FEFF 		bl	lv_label_create
 270              	.LVL23:
 271 0028 0446     		mov	r4, r0
 272              	.LVL24:
 200:Src/main.c    ****     lv_label_set_text(label, "Button");                     /*Set the labels text*/
 273              		.loc 1 200 5 is_stmt 1 view .LVU56
 274 002a 0549     		ldr	r1, .L26
 275 002c FFF7FEFF 		bl	lv_label_set_text
 276              	.LVL25:
 201:Src/main.c    ****     lv_obj_center(label);
 277              		.loc 1 201 5 view .LVU57
 278              	.LBB14:
ARM GAS  C:\Users\BLACK_~1\AppData\Local\Temp\ccGxh1nc.s 			page 13


 279              	.LBI14:
 280              		.file 3 "Inc/../lvgl/src/core/lv_obj_pos.h"
   1:Inc/../lvgl/src/core/lv_obj_pos.h **** /**
   2:Inc/../lvgl/src/core/lv_obj_pos.h ****  * @file lv_obj_pos.h
   3:Inc/../lvgl/src/core/lv_obj_pos.h ****  *
   4:Inc/../lvgl/src/core/lv_obj_pos.h ****  */
   5:Inc/../lvgl/src/core/lv_obj_pos.h **** 
   6:Inc/../lvgl/src/core/lv_obj_pos.h **** #ifndef LV_OBJ_POS_H
   7:Inc/../lvgl/src/core/lv_obj_pos.h **** #define LV_OBJ_POS_H
   8:Inc/../lvgl/src/core/lv_obj_pos.h **** 
   9:Inc/../lvgl/src/core/lv_obj_pos.h **** #ifdef __cplusplus
  10:Inc/../lvgl/src/core/lv_obj_pos.h **** extern "C" {
  11:Inc/../lvgl/src/core/lv_obj_pos.h **** #endif
  12:Inc/../lvgl/src/core/lv_obj_pos.h **** 
  13:Inc/../lvgl/src/core/lv_obj_pos.h **** /*********************
  14:Inc/../lvgl/src/core/lv_obj_pos.h ****  *      INCLUDES
  15:Inc/../lvgl/src/core/lv_obj_pos.h ****  *********************/
  16:Inc/../lvgl/src/core/lv_obj_pos.h **** #include "../misc/lv_area.h"
  17:Inc/../lvgl/src/core/lv_obj_pos.h **** 
  18:Inc/../lvgl/src/core/lv_obj_pos.h **** /*********************
  19:Inc/../lvgl/src/core/lv_obj_pos.h ****  *      DEFINES
  20:Inc/../lvgl/src/core/lv_obj_pos.h ****  *********************/
  21:Inc/../lvgl/src/core/lv_obj_pos.h **** 
  22:Inc/../lvgl/src/core/lv_obj_pos.h **** /**********************
  23:Inc/../lvgl/src/core/lv_obj_pos.h ****  *      TYPEDEFS
  24:Inc/../lvgl/src/core/lv_obj_pos.h ****  **********************/
  25:Inc/../lvgl/src/core/lv_obj_pos.h **** struct _lv_obj_t;
  26:Inc/../lvgl/src/core/lv_obj_pos.h **** 
  27:Inc/../lvgl/src/core/lv_obj_pos.h **** typedef void (*lv_layout_update_cb_t)(struct _lv_obj_t *, void * user_data);
  28:Inc/../lvgl/src/core/lv_obj_pos.h **** typedef struct {
  29:Inc/../lvgl/src/core/lv_obj_pos.h ****     lv_layout_update_cb_t cb;
  30:Inc/../lvgl/src/core/lv_obj_pos.h ****     void * user_data;
  31:Inc/../lvgl/src/core/lv_obj_pos.h **** }lv_layout_dsc_t;
  32:Inc/../lvgl/src/core/lv_obj_pos.h **** 
  33:Inc/../lvgl/src/core/lv_obj_pos.h **** /**********************
  34:Inc/../lvgl/src/core/lv_obj_pos.h ****  * GLOBAL PROTOTYPES
  35:Inc/../lvgl/src/core/lv_obj_pos.h ****  **********************/
  36:Inc/../lvgl/src/core/lv_obj_pos.h **** 
  37:Inc/../lvgl/src/core/lv_obj_pos.h **** /**
  38:Inc/../lvgl/src/core/lv_obj_pos.h ****  * Set the relative the position of an object (relative to the parent's top left corner)
  39:Inc/../lvgl/src/core/lv_obj_pos.h ****  * @param obj       pointer to an object
  40:Inc/../lvgl/src/core/lv_obj_pos.h ****  * @param x         new distance from the left side of the parent plus the parent's left padding
  41:Inc/../lvgl/src/core/lv_obj_pos.h ****  * @param y         new distance from the top side of the parent  plus the parent's right padding
  42:Inc/../lvgl/src/core/lv_obj_pos.h ****  */
  43:Inc/../lvgl/src/core/lv_obj_pos.h **** void lv_obj_set_pos(struct _lv_obj_t * obj, lv_coord_t x, lv_coord_t y);
  44:Inc/../lvgl/src/core/lv_obj_pos.h **** 
  45:Inc/../lvgl/src/core/lv_obj_pos.h **** /**
  46:Inc/../lvgl/src/core/lv_obj_pos.h ****  * Set the x coordinate of a object
  47:Inc/../lvgl/src/core/lv_obj_pos.h ****  * @param obj       pointer to an object
  48:Inc/../lvgl/src/core/lv_obj_pos.h ****  * @param x         new distance from the left side from the parent plus the parent's left padding
  49:Inc/../lvgl/src/core/lv_obj_pos.h ****  */
  50:Inc/../lvgl/src/core/lv_obj_pos.h **** void lv_obj_set_x(struct _lv_obj_t * obj, lv_coord_t x);
  51:Inc/../lvgl/src/core/lv_obj_pos.h **** 
  52:Inc/../lvgl/src/core/lv_obj_pos.h **** /**
  53:Inc/../lvgl/src/core/lv_obj_pos.h ****  * Set the y coordinate of a object
  54:Inc/../lvgl/src/core/lv_obj_pos.h ****  * @param obj       pointer to an object
  55:Inc/../lvgl/src/core/lv_obj_pos.h ****  * @param y         new distance from the top of the parent  plus the parent's top padding
ARM GAS  C:\Users\BLACK_~1\AppData\Local\Temp\ccGxh1nc.s 			page 14


  56:Inc/../lvgl/src/core/lv_obj_pos.h ****  */
  57:Inc/../lvgl/src/core/lv_obj_pos.h **** void lv_obj_set_y(struct _lv_obj_t * obj, lv_coord_t y);
  58:Inc/../lvgl/src/core/lv_obj_pos.h **** 
  59:Inc/../lvgl/src/core/lv_obj_pos.h **** /**
  60:Inc/../lvgl/src/core/lv_obj_pos.h ****  * Set the size of an object.
  61:Inc/../lvgl/src/core/lv_obj_pos.h ****  * @param obj       pointer to an object
  62:Inc/../lvgl/src/core/lv_obj_pos.h ****  * @param w         the new width
  63:Inc/../lvgl/src/core/lv_obj_pos.h ****  * @param h         the new height
  64:Inc/../lvgl/src/core/lv_obj_pos.h ****  * @note            possible values are:
  65:Inc/../lvgl/src/core/lv_obj_pos.h ****  *                  pixel               simple set the size accordingly
  66:Inc/../lvgl/src/core/lv_obj_pos.h ****  *                  LV_SIZE_CONTENT     set the size to involve all children in the given direction
  67:Inc/../lvgl/src/core/lv_obj_pos.h ****  *                  LV_SIZE_PCT(x)     to set size in percentage of the parent's content area size 
  68:Inc/../lvgl/src/core/lv_obj_pos.h ****  *                                      x should be in [0..1000]% range
  69:Inc/../lvgl/src/core/lv_obj_pos.h ****  */
  70:Inc/../lvgl/src/core/lv_obj_pos.h **** void lv_obj_set_size(struct _lv_obj_t * obj, lv_coord_t w, lv_coord_t h);
  71:Inc/../lvgl/src/core/lv_obj_pos.h **** 
  72:Inc/../lvgl/src/core/lv_obj_pos.h **** /**
  73:Inc/../lvgl/src/core/lv_obj_pos.h ****  * Recalculate the size of the object
  74:Inc/../lvgl/src/core/lv_obj_pos.h ****  * @param obj       pointer to an object
  75:Inc/../lvgl/src/core/lv_obj_pos.h ****  * @return          true: the size has been changed
  76:Inc/../lvgl/src/core/lv_obj_pos.h ****  */
  77:Inc/../lvgl/src/core/lv_obj_pos.h **** bool lv_obj_refr_size(struct _lv_obj_t * obj);
  78:Inc/../lvgl/src/core/lv_obj_pos.h **** 
  79:Inc/../lvgl/src/core/lv_obj_pos.h **** /**
  80:Inc/../lvgl/src/core/lv_obj_pos.h ****  * Set the width of an object
  81:Inc/../lvgl/src/core/lv_obj_pos.h ****  * @param obj       pointer to an object
  82:Inc/../lvgl/src/core/lv_obj_pos.h ****  * @param w         the new width
  83:Inc/../lvgl/src/core/lv_obj_pos.h ****  * @note            possible values are:
  84:Inc/../lvgl/src/core/lv_obj_pos.h ****  *                  pixel               simple set the size accordingly
  85:Inc/../lvgl/src/core/lv_obj_pos.h ****  *                  LV_SIZE_CONTENT     set the size to involve all children in the given direction
  86:Inc/../lvgl/src/core/lv_obj_pos.h ****  *                  lv_pct(x)           to set size in percentage of the parent's content area size
  87:Inc/../lvgl/src/core/lv_obj_pos.h ****  *                                      x should be in [0..1000]% range
  88:Inc/../lvgl/src/core/lv_obj_pos.h ****  */
  89:Inc/../lvgl/src/core/lv_obj_pos.h **** void lv_obj_set_width(struct _lv_obj_t * obj, lv_coord_t w);
  90:Inc/../lvgl/src/core/lv_obj_pos.h **** 
  91:Inc/../lvgl/src/core/lv_obj_pos.h **** /**
  92:Inc/../lvgl/src/core/lv_obj_pos.h ****  * Set the height of an object
  93:Inc/../lvgl/src/core/lv_obj_pos.h ****  * @param obj       pointer to an object
  94:Inc/../lvgl/src/core/lv_obj_pos.h ****  * @param h         the new height
  95:Inc/../lvgl/src/core/lv_obj_pos.h ****  * @note            possible values are:
  96:Inc/../lvgl/src/core/lv_obj_pos.h ****  *                  pixel               simple set the size accordingly
  97:Inc/../lvgl/src/core/lv_obj_pos.h ****  *                  LV_SIZE_CONTENT     set the size to involve all children in the given direction
  98:Inc/../lvgl/src/core/lv_obj_pos.h ****  *                  lv_pct(x)           to set size in percentage of the parent's content area size
  99:Inc/../lvgl/src/core/lv_obj_pos.h ****  *                                      x should be in [0..1000]% range
 100:Inc/../lvgl/src/core/lv_obj_pos.h ****  */
 101:Inc/../lvgl/src/core/lv_obj_pos.h **** void lv_obj_set_height(struct _lv_obj_t * obj, lv_coord_t h);
 102:Inc/../lvgl/src/core/lv_obj_pos.h **** 
 103:Inc/../lvgl/src/core/lv_obj_pos.h **** /**
 104:Inc/../lvgl/src/core/lv_obj_pos.h ****  * Set the width reduced by the left and right padding and the border width.
 105:Inc/../lvgl/src/core/lv_obj_pos.h ****  * @param obj       pointer to an object
 106:Inc/../lvgl/src/core/lv_obj_pos.h ****  * @param w         the width without paddings in pixels
 107:Inc/../lvgl/src/core/lv_obj_pos.h ****  */
 108:Inc/../lvgl/src/core/lv_obj_pos.h **** void lv_obj_set_content_width(struct _lv_obj_t * obj, lv_coord_t w);
 109:Inc/../lvgl/src/core/lv_obj_pos.h **** 
 110:Inc/../lvgl/src/core/lv_obj_pos.h **** /**
 111:Inc/../lvgl/src/core/lv_obj_pos.h ****  * Set the height reduced by the top and bottom padding and the border width.
 112:Inc/../lvgl/src/core/lv_obj_pos.h ****  * @param obj       pointer to an object
ARM GAS  C:\Users\BLACK_~1\AppData\Local\Temp\ccGxh1nc.s 			page 15


 113:Inc/../lvgl/src/core/lv_obj_pos.h ****  * @param h         the height without paddings in pixels
 114:Inc/../lvgl/src/core/lv_obj_pos.h ****  */
 115:Inc/../lvgl/src/core/lv_obj_pos.h **** void lv_obj_set_content_height(struct _lv_obj_t * obj, lv_coord_t h);
 116:Inc/../lvgl/src/core/lv_obj_pos.h **** 
 117:Inc/../lvgl/src/core/lv_obj_pos.h **** /**
 118:Inc/../lvgl/src/core/lv_obj_pos.h ****  * Set a layout for an object
 119:Inc/../lvgl/src/core/lv_obj_pos.h ****  * @param obj       pointer to an object
 120:Inc/../lvgl/src/core/lv_obj_pos.h ****  * @param layout    pointer to a layout descriptor to set
 121:Inc/../lvgl/src/core/lv_obj_pos.h ****  */
 122:Inc/../lvgl/src/core/lv_obj_pos.h **** void lv_obj_set_layout(struct _lv_obj_t * obj, uint32_t layout);
 123:Inc/../lvgl/src/core/lv_obj_pos.h **** 
 124:Inc/../lvgl/src/core/lv_obj_pos.h **** /**
 125:Inc/../lvgl/src/core/lv_obj_pos.h ****  * Test whether the and object is positioned by a layout or not
 126:Inc/../lvgl/src/core/lv_obj_pos.h ****  * @param obj       pointer to an object to test
 127:Inc/../lvgl/src/core/lv_obj_pos.h ****  * @return true:    positioned by a layout; false: not positioned by a layout
 128:Inc/../lvgl/src/core/lv_obj_pos.h ****  */
 129:Inc/../lvgl/src/core/lv_obj_pos.h **** bool lv_obj_is_layout_positioned(const struct _lv_obj_t * obj);
 130:Inc/../lvgl/src/core/lv_obj_pos.h **** 
 131:Inc/../lvgl/src/core/lv_obj_pos.h **** /**
 132:Inc/../lvgl/src/core/lv_obj_pos.h ****  * Mark the object for layout update.
 133:Inc/../lvgl/src/core/lv_obj_pos.h ****  * @param obj      pointer to an object whose children needs to be updated
 134:Inc/../lvgl/src/core/lv_obj_pos.h ****  */
 135:Inc/../lvgl/src/core/lv_obj_pos.h **** void lv_obj_mark_layout_as_dirty(struct _lv_obj_t * obj);
 136:Inc/../lvgl/src/core/lv_obj_pos.h **** 
 137:Inc/../lvgl/src/core/lv_obj_pos.h **** /**
 138:Inc/../lvgl/src/core/lv_obj_pos.h ****  * Update the layout of an object.
 139:Inc/../lvgl/src/core/lv_obj_pos.h ****  * @param obj      pointer to an object whose children needs to be updated
 140:Inc/../lvgl/src/core/lv_obj_pos.h ****  */
 141:Inc/../lvgl/src/core/lv_obj_pos.h **** void lv_obj_update_layout(const struct _lv_obj_t * obj);
 142:Inc/../lvgl/src/core/lv_obj_pos.h **** 
 143:Inc/../lvgl/src/core/lv_obj_pos.h **** /**
 144:Inc/../lvgl/src/core/lv_obj_pos.h ****  * Regsiter a new layout
 145:Inc/../lvgl/src/core/lv_obj_pos.h ****  * @param cb        the layout update callback
 146:Inc/../lvgl/src/core/lv_obj_pos.h ****  * @param user_data custom data that will be passed to `cb`
 147:Inc/../lvgl/src/core/lv_obj_pos.h ****  * @return          the ID of the new layout
 148:Inc/../lvgl/src/core/lv_obj_pos.h ****  */
 149:Inc/../lvgl/src/core/lv_obj_pos.h **** uint32_t lv_layout_register(lv_layout_update_cb_t cb, void * user_data);
 150:Inc/../lvgl/src/core/lv_obj_pos.h **** 
 151:Inc/../lvgl/src/core/lv_obj_pos.h **** /**
 152:Inc/../lvgl/src/core/lv_obj_pos.h ****  * Change the alignment of an object.
 153:Inc/../lvgl/src/core/lv_obj_pos.h ****  * @param obj       pointer to an object to align
 154:Inc/../lvgl/src/core/lv_obj_pos.h ****  * @param align     type of alignment (see 'lv_align_t' enum) `LV_ALIGN_OUT_...` can't be used.
 155:Inc/../lvgl/src/core/lv_obj_pos.h ****  */
 156:Inc/../lvgl/src/core/lv_obj_pos.h **** void lv_obj_set_align(struct _lv_obj_t * obj, lv_align_t align);
 157:Inc/../lvgl/src/core/lv_obj_pos.h **** 
 158:Inc/../lvgl/src/core/lv_obj_pos.h **** /**
 159:Inc/../lvgl/src/core/lv_obj_pos.h ****  * Change the alignment of an object and set new coordinates.
 160:Inc/../lvgl/src/core/lv_obj_pos.h ****  * Equivalent to:
 161:Inc/../lvgl/src/core/lv_obj_pos.h ****  * lv_obj_set_align(obj, align);
 162:Inc/../lvgl/src/core/lv_obj_pos.h ****  * lv_obj_set_pos(obj, x_ofs, y_ofs);
 163:Inc/../lvgl/src/core/lv_obj_pos.h ****  * @param obj       pointer to an object to align
 164:Inc/../lvgl/src/core/lv_obj_pos.h ****  * @param align     type of alignment (see 'lv_align_t' enum) `LV_ALIGN_OUT_...` can't be used.
 165:Inc/../lvgl/src/core/lv_obj_pos.h ****  * @param x_ofs     x coordinate offset after alignment
 166:Inc/../lvgl/src/core/lv_obj_pos.h ****  * @param y_ofs     y coordinate offset after alignment
 167:Inc/../lvgl/src/core/lv_obj_pos.h ****  */
 168:Inc/../lvgl/src/core/lv_obj_pos.h **** void lv_obj_align(struct _lv_obj_t * obj, lv_align_t align, lv_coord_t x_ofs, lv_coord_t y_ofs);
 169:Inc/../lvgl/src/core/lv_obj_pos.h **** 
ARM GAS  C:\Users\BLACK_~1\AppData\Local\Temp\ccGxh1nc.s 			page 16


 170:Inc/../lvgl/src/core/lv_obj_pos.h **** /**
 171:Inc/../lvgl/src/core/lv_obj_pos.h ****  * Align an object to an other object.
 172:Inc/../lvgl/src/core/lv_obj_pos.h ****  * @param obj       pointer to an object to align
 173:Inc/../lvgl/src/core/lv_obj_pos.h ****  * @param base      pointer to an other object (if NULL `obj`s parent is used). 'obj' will be align
 174:Inc/../lvgl/src/core/lv_obj_pos.h ****  * @param align     type of alignment (see 'lv_align_t' enum)
 175:Inc/../lvgl/src/core/lv_obj_pos.h ****  * @param x_ofs     x coordinate offset after alignment
 176:Inc/../lvgl/src/core/lv_obj_pos.h ****  * @param y_ofs     y coordinate offset after alignment
 177:Inc/../lvgl/src/core/lv_obj_pos.h ****  * @note            if the position or size of `base` changes `obj` needs to be aligned manually ag
 178:Inc/../lvgl/src/core/lv_obj_pos.h ****  */
 179:Inc/../lvgl/src/core/lv_obj_pos.h **** void lv_obj_align_to(struct _lv_obj_t * obj, const struct _lv_obj_t * base, lv_align_t align, lv_co
 180:Inc/../lvgl/src/core/lv_obj_pos.h **** 
 181:Inc/../lvgl/src/core/lv_obj_pos.h **** /**
 182:Inc/../lvgl/src/core/lv_obj_pos.h ****  * Align an object to the center on its parent.
 183:Inc/../lvgl/src/core/lv_obj_pos.h ****  * @param obj       pointer to an object to align
 184:Inc/../lvgl/src/core/lv_obj_pos.h ****  * @note            if the parent size changes `obj` needs to be aligned manually again
 185:Inc/../lvgl/src/core/lv_obj_pos.h ****  */
 186:Inc/../lvgl/src/core/lv_obj_pos.h **** static inline void lv_obj_center(struct _lv_obj_t * obj)
 281              		.loc 3 186 20 view .LVU58
 282              	.LBB15:
 187:Inc/../lvgl/src/core/lv_obj_pos.h **** {
 188:Inc/../lvgl/src/core/lv_obj_pos.h ****     lv_obj_align(obj, LV_ALIGN_CENTER, 0, 0);
 283              		.loc 3 188 5 view .LVU59
 284 0030 0023     		movs	r3, #0
 285 0032 1A46     		mov	r2, r3
 286 0034 0921     		movs	r1, #9
 287 0036 2046     		mov	r0, r4
 288 0038 FFF7FEFF 		bl	lv_obj_align
 289              	.LVL26:
 290              		.loc 3 188 5 is_stmt 0 view .LVU60
 291              	.LBE15:
 292              	.LBE14:
 202:Src/main.c    **** 
 203:Src/main.c    **** }
 293              		.loc 1 203 1 view .LVU61
 294 003c 10BD     		pop	{r4, pc}
 295              	.LVL27:
 296              	.L27:
 297              		.loc 1 203 1 view .LVU62
 298 003e 00BF     		.align	2
 299              	.L26:
 300 0040 00000000 		.word	.LC2
 301              		.cfi_endproc
 302              	.LFE346:
 304              		.section	.text.Error_Handler,"ax",%progbits
 305              		.align	1
 306              		.global	Error_Handler
 307              		.syntax unified
 308              		.thumb
 309              		.thumb_func
 311              	Error_Handler:
 312              	.LFB347:
 204:Src/main.c    **** /* USER CODE END 4 */
 205:Src/main.c    **** 
 206:Src/main.c    **** /**
 207:Src/main.c    ****   * @brief  This function is executed in case of error occurrence.
 208:Src/main.c    ****   * @retval None
 209:Src/main.c    ****   */
ARM GAS  C:\Users\BLACK_~1\AppData\Local\Temp\ccGxh1nc.s 			page 17


 210:Src/main.c    **** void Error_Handler(void)
 211:Src/main.c    **** {
 313              		.loc 1 211 1 is_stmt 1 view -0
 314              		.cfi_startproc
 315              		@ Volatile: function does not return.
 316              		@ args = 0, pretend = 0, frame = 0
 317              		@ frame_needed = 0, uses_anonymous_args = 0
 318              		@ link register save eliminated.
 212:Src/main.c    ****   /* USER CODE BEGIN Error_Handler_Debug */
 213:Src/main.c    ****   /* User can add his own implementation to report the HAL error return state */
 214:Src/main.c    ****   __disable_irq();
 319              		.loc 1 214 3 view .LVU64
 320              	.LBB16:
 321              	.LBI16:
 322              		.file 4 "c:/Users/Black_Life/STM32Cube/Repository/STM32Cube_FW_F4_V1.26.2/Drivers/CMSIS/Include/cm
   1:c:/Users/Black_Life/STM32Cube/Repository/STM32Cube_FW_F4_V1.26.2/Drivers/CMSIS/Include\cmsis_gcc.h **** /**************************************************************************//**
   2:c:/Users/Black_Life/STM32Cube/Repository/STM32Cube_FW_F4_V1.26.2/Drivers/CMSIS/Include\cmsis_gcc.h ****  * @file     cmsis_gcc.h
   3:c:/Users/Black_Life/STM32Cube/Repository/STM32Cube_FW_F4_V1.26.2/Drivers/CMSIS/Include\cmsis_gcc.h ****  * @brief    CMSIS compiler GCC header file
   4:c:/Users/Black_Life/STM32Cube/Repository/STM32Cube_FW_F4_V1.26.2/Drivers/CMSIS/Include\cmsis_gcc.h ****  * @version  V5.0.4
   5:c:/Users/Black_Life/STM32Cube/Repository/STM32Cube_FW_F4_V1.26.2/Drivers/CMSIS/Include\cmsis_gcc.h ****  * @date     09. April 2018
   6:c:/Users/Black_Life/STM32Cube/Repository/STM32Cube_FW_F4_V1.26.2/Drivers/CMSIS/Include\cmsis_gcc.h ****  ******************************************************************************/
   7:c:/Users/Black_Life/STM32Cube/Repository/STM32Cube_FW_F4_V1.26.2/Drivers/CMSIS/Include\cmsis_gcc.h **** /*
   8:c:/Users/Black_Life/STM32Cube/Repository/STM32Cube_FW_F4_V1.26.2/Drivers/CMSIS/Include\cmsis_gcc.h ****  * Copyright (c) 2009-2018 Arm Limited. All rights reserved.
   9:c:/Users/Black_Life/STM32Cube/Repository/STM32Cube_FW_F4_V1.26.2/Drivers/CMSIS/Include\cmsis_gcc.h ****  *
  10:c:/Users/Black_Life/STM32Cube/Repository/STM32Cube_FW_F4_V1.26.2/Drivers/CMSIS/Include\cmsis_gcc.h ****  * SPDX-License-Identifier: Apache-2.0
  11:c:/Users/Black_Life/STM32Cube/Repository/STM32Cube_FW_F4_V1.26.2/Drivers/CMSIS/Include\cmsis_gcc.h ****  *
  12:c:/Users/Black_Life/STM32Cube/Repository/STM32Cube_FW_F4_V1.26.2/Drivers/CMSIS/Include\cmsis_gcc.h ****  * Licensed under the Apache License, Version 2.0 (the License); you may
  13:c:/Users/Black_Life/STM32Cube/Repository/STM32Cube_FW_F4_V1.26.2/Drivers/CMSIS/Include\cmsis_gcc.h ****  * not use this file except in compliance with the License.
  14:c:/Users/Black_Life/STM32Cube/Repository/STM32Cube_FW_F4_V1.26.2/Drivers/CMSIS/Include\cmsis_gcc.h ****  * You may obtain a copy of the License at
  15:c:/Users/Black_Life/STM32Cube/Repository/STM32Cube_FW_F4_V1.26.2/Drivers/CMSIS/Include\cmsis_gcc.h ****  *
  16:c:/Users/Black_Life/STM32Cube/Repository/STM32Cube_FW_F4_V1.26.2/Drivers/CMSIS/Include\cmsis_gcc.h ****  * www.apache.org/licenses/LICENSE-2.0
  17:c:/Users/Black_Life/STM32Cube/Repository/STM32Cube_FW_F4_V1.26.2/Drivers/CMSIS/Include\cmsis_gcc.h ****  *
  18:c:/Users/Black_Life/STM32Cube/Repository/STM32Cube_FW_F4_V1.26.2/Drivers/CMSIS/Include\cmsis_gcc.h ****  * Unless required by applicable law or agreed to in writing, software
  19:c:/Users/Black_Life/STM32Cube/Repository/STM32Cube_FW_F4_V1.26.2/Drivers/CMSIS/Include\cmsis_gcc.h ****  * distributed under the License is distributed on an AS IS BASIS, WITHOUT
  20:c:/Users/Black_Life/STM32Cube/Repository/STM32Cube_FW_F4_V1.26.2/Drivers/CMSIS/Include\cmsis_gcc.h ****  * WARRANTIES OR CONDITIONS OF ANY KIND, either express or implied.
  21:c:/Users/Black_Life/STM32Cube/Repository/STM32Cube_FW_F4_V1.26.2/Drivers/CMSIS/Include\cmsis_gcc.h ****  * See the License for the specific language governing permissions and
  22:c:/Users/Black_Life/STM32Cube/Repository/STM32Cube_FW_F4_V1.26.2/Drivers/CMSIS/Include\cmsis_gcc.h ****  * limitations under the License.
  23:c:/Users/Black_Life/STM32Cube/Repository/STM32Cube_FW_F4_V1.26.2/Drivers/CMSIS/Include\cmsis_gcc.h ****  */
  24:c:/Users/Black_Life/STM32Cube/Repository/STM32Cube_FW_F4_V1.26.2/Drivers/CMSIS/Include\cmsis_gcc.h **** 
  25:c:/Users/Black_Life/STM32Cube/Repository/STM32Cube_FW_F4_V1.26.2/Drivers/CMSIS/Include\cmsis_gcc.h **** #ifndef __CMSIS_GCC_H
  26:c:/Users/Black_Life/STM32Cube/Repository/STM32Cube_FW_F4_V1.26.2/Drivers/CMSIS/Include\cmsis_gcc.h **** #define __CMSIS_GCC_H
  27:c:/Users/Black_Life/STM32Cube/Repository/STM32Cube_FW_F4_V1.26.2/Drivers/CMSIS/Include\cmsis_gcc.h **** 
  28:c:/Users/Black_Life/STM32Cube/Repository/STM32Cube_FW_F4_V1.26.2/Drivers/CMSIS/Include\cmsis_gcc.h **** /* ignore some GCC warnings */
  29:c:/Users/Black_Life/STM32Cube/Repository/STM32Cube_FW_F4_V1.26.2/Drivers/CMSIS/Include\cmsis_gcc.h **** #pragma GCC diagnostic push
  30:c:/Users/Black_Life/STM32Cube/Repository/STM32Cube_FW_F4_V1.26.2/Drivers/CMSIS/Include\cmsis_gcc.h **** #pragma GCC diagnostic ignored "-Wsign-conversion"
  31:c:/Users/Black_Life/STM32Cube/Repository/STM32Cube_FW_F4_V1.26.2/Drivers/CMSIS/Include\cmsis_gcc.h **** #pragma GCC diagnostic ignored "-Wconversion"
  32:c:/Users/Black_Life/STM32Cube/Repository/STM32Cube_FW_F4_V1.26.2/Drivers/CMSIS/Include\cmsis_gcc.h **** #pragma GCC diagnostic ignored "-Wunused-parameter"
  33:c:/Users/Black_Life/STM32Cube/Repository/STM32Cube_FW_F4_V1.26.2/Drivers/CMSIS/Include\cmsis_gcc.h **** 
  34:c:/Users/Black_Life/STM32Cube/Repository/STM32Cube_FW_F4_V1.26.2/Drivers/CMSIS/Include\cmsis_gcc.h **** /* Fallback for __has_builtin */
  35:c:/Users/Black_Life/STM32Cube/Repository/STM32Cube_FW_F4_V1.26.2/Drivers/CMSIS/Include\cmsis_gcc.h **** #ifndef __has_builtin
  36:c:/Users/Black_Life/STM32Cube/Repository/STM32Cube_FW_F4_V1.26.2/Drivers/CMSIS/Include\cmsis_gcc.h ****   #define __has_builtin(x) (0)
  37:c:/Users/Black_Life/STM32Cube/Repository/STM32Cube_FW_F4_V1.26.2/Drivers/CMSIS/Include\cmsis_gcc.h **** #endif
  38:c:/Users/Black_Life/STM32Cube/Repository/STM32Cube_FW_F4_V1.26.2/Drivers/CMSIS/Include\cmsis_gcc.h **** 
  39:c:/Users/Black_Life/STM32Cube/Repository/STM32Cube_FW_F4_V1.26.2/Drivers/CMSIS/Include\cmsis_gcc.h **** /* CMSIS compiler specific defines */
  40:c:/Users/Black_Life/STM32Cube/Repository/STM32Cube_FW_F4_V1.26.2/Drivers/CMSIS/Include\cmsis_gcc.h **** #ifndef   __ASM
  41:c:/Users/Black_Life/STM32Cube/Repository/STM32Cube_FW_F4_V1.26.2/Drivers/CMSIS/Include\cmsis_gcc.h ****   #define __ASM                                  __asm
  42:c:/Users/Black_Life/STM32Cube/Repository/STM32Cube_FW_F4_V1.26.2/Drivers/CMSIS/Include\cmsis_gcc.h **** #endif
ARM GAS  C:\Users\BLACK_~1\AppData\Local\Temp\ccGxh1nc.s 			page 18


  43:c:/Users/Black_Life/STM32Cube/Repository/STM32Cube_FW_F4_V1.26.2/Drivers/CMSIS/Include\cmsis_gcc.h **** #ifndef   __INLINE
  44:c:/Users/Black_Life/STM32Cube/Repository/STM32Cube_FW_F4_V1.26.2/Drivers/CMSIS/Include\cmsis_gcc.h ****   #define __INLINE                               inline
  45:c:/Users/Black_Life/STM32Cube/Repository/STM32Cube_FW_F4_V1.26.2/Drivers/CMSIS/Include\cmsis_gcc.h **** #endif
  46:c:/Users/Black_Life/STM32Cube/Repository/STM32Cube_FW_F4_V1.26.2/Drivers/CMSIS/Include\cmsis_gcc.h **** #ifndef   __STATIC_INLINE
  47:c:/Users/Black_Life/STM32Cube/Repository/STM32Cube_FW_F4_V1.26.2/Drivers/CMSIS/Include\cmsis_gcc.h ****   #define __STATIC_INLINE                        static inline
  48:c:/Users/Black_Life/STM32Cube/Repository/STM32Cube_FW_F4_V1.26.2/Drivers/CMSIS/Include\cmsis_gcc.h **** #endif
  49:c:/Users/Black_Life/STM32Cube/Repository/STM32Cube_FW_F4_V1.26.2/Drivers/CMSIS/Include\cmsis_gcc.h **** #ifndef   __STATIC_FORCEINLINE                 
  50:c:/Users/Black_Life/STM32Cube/Repository/STM32Cube_FW_F4_V1.26.2/Drivers/CMSIS/Include\cmsis_gcc.h ****   #define __STATIC_FORCEINLINE                   __attribute__((always_inline)) static inline
  51:c:/Users/Black_Life/STM32Cube/Repository/STM32Cube_FW_F4_V1.26.2/Drivers/CMSIS/Include\cmsis_gcc.h **** #endif                                           
  52:c:/Users/Black_Life/STM32Cube/Repository/STM32Cube_FW_F4_V1.26.2/Drivers/CMSIS/Include\cmsis_gcc.h **** #ifndef   __NO_RETURN
  53:c:/Users/Black_Life/STM32Cube/Repository/STM32Cube_FW_F4_V1.26.2/Drivers/CMSIS/Include\cmsis_gcc.h ****   #define __NO_RETURN                            __attribute__((__noreturn__))
  54:c:/Users/Black_Life/STM32Cube/Repository/STM32Cube_FW_F4_V1.26.2/Drivers/CMSIS/Include\cmsis_gcc.h **** #endif
  55:c:/Users/Black_Life/STM32Cube/Repository/STM32Cube_FW_F4_V1.26.2/Drivers/CMSIS/Include\cmsis_gcc.h **** #ifndef   __USED
  56:c:/Users/Black_Life/STM32Cube/Repository/STM32Cube_FW_F4_V1.26.2/Drivers/CMSIS/Include\cmsis_gcc.h ****   #define __USED                                 __attribute__((used))
  57:c:/Users/Black_Life/STM32Cube/Repository/STM32Cube_FW_F4_V1.26.2/Drivers/CMSIS/Include\cmsis_gcc.h **** #endif
  58:c:/Users/Black_Life/STM32Cube/Repository/STM32Cube_FW_F4_V1.26.2/Drivers/CMSIS/Include\cmsis_gcc.h **** #ifndef   __WEAK
  59:c:/Users/Black_Life/STM32Cube/Repository/STM32Cube_FW_F4_V1.26.2/Drivers/CMSIS/Include\cmsis_gcc.h ****   #define __WEAK                                 __attribute__((weak))
  60:c:/Users/Black_Life/STM32Cube/Repository/STM32Cube_FW_F4_V1.26.2/Drivers/CMSIS/Include\cmsis_gcc.h **** #endif
  61:c:/Users/Black_Life/STM32Cube/Repository/STM32Cube_FW_F4_V1.26.2/Drivers/CMSIS/Include\cmsis_gcc.h **** #ifndef   __PACKED
  62:c:/Users/Black_Life/STM32Cube/Repository/STM32Cube_FW_F4_V1.26.2/Drivers/CMSIS/Include\cmsis_gcc.h ****   #define __PACKED                               __attribute__((packed, aligned(1)))
  63:c:/Users/Black_Life/STM32Cube/Repository/STM32Cube_FW_F4_V1.26.2/Drivers/CMSIS/Include\cmsis_gcc.h **** #endif
  64:c:/Users/Black_Life/STM32Cube/Repository/STM32Cube_FW_F4_V1.26.2/Drivers/CMSIS/Include\cmsis_gcc.h **** #ifndef   __PACKED_STRUCT
  65:c:/Users/Black_Life/STM32Cube/Repository/STM32Cube_FW_F4_V1.26.2/Drivers/CMSIS/Include\cmsis_gcc.h ****   #define __PACKED_STRUCT                        struct __attribute__((packed, aligned(1)))
  66:c:/Users/Black_Life/STM32Cube/Repository/STM32Cube_FW_F4_V1.26.2/Drivers/CMSIS/Include\cmsis_gcc.h **** #endif
  67:c:/Users/Black_Life/STM32Cube/Repository/STM32Cube_FW_F4_V1.26.2/Drivers/CMSIS/Include\cmsis_gcc.h **** #ifndef   __PACKED_UNION
  68:c:/Users/Black_Life/STM32Cube/Repository/STM32Cube_FW_F4_V1.26.2/Drivers/CMSIS/Include\cmsis_gcc.h ****   #define __PACKED_UNION                         union __attribute__((packed, aligned(1)))
  69:c:/Users/Black_Life/STM32Cube/Repository/STM32Cube_FW_F4_V1.26.2/Drivers/CMSIS/Include\cmsis_gcc.h **** #endif
  70:c:/Users/Black_Life/STM32Cube/Repository/STM32Cube_FW_F4_V1.26.2/Drivers/CMSIS/Include\cmsis_gcc.h **** #ifndef   __UNALIGNED_UINT32        /* deprecated */
  71:c:/Users/Black_Life/STM32Cube/Repository/STM32Cube_FW_F4_V1.26.2/Drivers/CMSIS/Include\cmsis_gcc.h ****   #pragma GCC diagnostic push
  72:c:/Users/Black_Life/STM32Cube/Repository/STM32Cube_FW_F4_V1.26.2/Drivers/CMSIS/Include\cmsis_gcc.h ****   #pragma GCC diagnostic ignored "-Wpacked"
  73:c:/Users/Black_Life/STM32Cube/Repository/STM32Cube_FW_F4_V1.26.2/Drivers/CMSIS/Include\cmsis_gcc.h ****   #pragma GCC diagnostic ignored "-Wattributes"
  74:c:/Users/Black_Life/STM32Cube/Repository/STM32Cube_FW_F4_V1.26.2/Drivers/CMSIS/Include\cmsis_gcc.h ****   struct __attribute__((packed)) T_UINT32 { uint32_t v; };
  75:c:/Users/Black_Life/STM32Cube/Repository/STM32Cube_FW_F4_V1.26.2/Drivers/CMSIS/Include\cmsis_gcc.h ****   #pragma GCC diagnostic pop
  76:c:/Users/Black_Life/STM32Cube/Repository/STM32Cube_FW_F4_V1.26.2/Drivers/CMSIS/Include\cmsis_gcc.h ****   #define __UNALIGNED_UINT32(x)                  (((struct T_UINT32 *)(x))->v)
  77:c:/Users/Black_Life/STM32Cube/Repository/STM32Cube_FW_F4_V1.26.2/Drivers/CMSIS/Include\cmsis_gcc.h **** #endif
  78:c:/Users/Black_Life/STM32Cube/Repository/STM32Cube_FW_F4_V1.26.2/Drivers/CMSIS/Include\cmsis_gcc.h **** #ifndef   __UNALIGNED_UINT16_WRITE
  79:c:/Users/Black_Life/STM32Cube/Repository/STM32Cube_FW_F4_V1.26.2/Drivers/CMSIS/Include\cmsis_gcc.h ****   #pragma GCC diagnostic push
  80:c:/Users/Black_Life/STM32Cube/Repository/STM32Cube_FW_F4_V1.26.2/Drivers/CMSIS/Include\cmsis_gcc.h ****   #pragma GCC diagnostic ignored "-Wpacked"
  81:c:/Users/Black_Life/STM32Cube/Repository/STM32Cube_FW_F4_V1.26.2/Drivers/CMSIS/Include\cmsis_gcc.h ****   #pragma GCC diagnostic ignored "-Wattributes"
  82:c:/Users/Black_Life/STM32Cube/Repository/STM32Cube_FW_F4_V1.26.2/Drivers/CMSIS/Include\cmsis_gcc.h ****   __PACKED_STRUCT T_UINT16_WRITE { uint16_t v; };
  83:c:/Users/Black_Life/STM32Cube/Repository/STM32Cube_FW_F4_V1.26.2/Drivers/CMSIS/Include\cmsis_gcc.h ****   #pragma GCC diagnostic pop
  84:c:/Users/Black_Life/STM32Cube/Repository/STM32Cube_FW_F4_V1.26.2/Drivers/CMSIS/Include\cmsis_gcc.h ****   #define __UNALIGNED_UINT16_WRITE(addr, val)    (void)((((struct T_UINT16_WRITE *)(void *)(addr))-
  85:c:/Users/Black_Life/STM32Cube/Repository/STM32Cube_FW_F4_V1.26.2/Drivers/CMSIS/Include\cmsis_gcc.h **** #endif
  86:c:/Users/Black_Life/STM32Cube/Repository/STM32Cube_FW_F4_V1.26.2/Drivers/CMSIS/Include\cmsis_gcc.h **** #ifndef   __UNALIGNED_UINT16_READ
  87:c:/Users/Black_Life/STM32Cube/Repository/STM32Cube_FW_F4_V1.26.2/Drivers/CMSIS/Include\cmsis_gcc.h ****   #pragma GCC diagnostic push
  88:c:/Users/Black_Life/STM32Cube/Repository/STM32Cube_FW_F4_V1.26.2/Drivers/CMSIS/Include\cmsis_gcc.h ****   #pragma GCC diagnostic ignored "-Wpacked"
  89:c:/Users/Black_Life/STM32Cube/Repository/STM32Cube_FW_F4_V1.26.2/Drivers/CMSIS/Include\cmsis_gcc.h ****   #pragma GCC diagnostic ignored "-Wattributes"
  90:c:/Users/Black_Life/STM32Cube/Repository/STM32Cube_FW_F4_V1.26.2/Drivers/CMSIS/Include\cmsis_gcc.h ****   __PACKED_STRUCT T_UINT16_READ { uint16_t v; };
  91:c:/Users/Black_Life/STM32Cube/Repository/STM32Cube_FW_F4_V1.26.2/Drivers/CMSIS/Include\cmsis_gcc.h ****   #pragma GCC diagnostic pop
  92:c:/Users/Black_Life/STM32Cube/Repository/STM32Cube_FW_F4_V1.26.2/Drivers/CMSIS/Include\cmsis_gcc.h ****   #define __UNALIGNED_UINT16_READ(addr)          (((const struct T_UINT16_READ *)(const void *)(add
  93:c:/Users/Black_Life/STM32Cube/Repository/STM32Cube_FW_F4_V1.26.2/Drivers/CMSIS/Include\cmsis_gcc.h **** #endif
  94:c:/Users/Black_Life/STM32Cube/Repository/STM32Cube_FW_F4_V1.26.2/Drivers/CMSIS/Include\cmsis_gcc.h **** #ifndef   __UNALIGNED_UINT32_WRITE
  95:c:/Users/Black_Life/STM32Cube/Repository/STM32Cube_FW_F4_V1.26.2/Drivers/CMSIS/Include\cmsis_gcc.h ****   #pragma GCC diagnostic push
  96:c:/Users/Black_Life/STM32Cube/Repository/STM32Cube_FW_F4_V1.26.2/Drivers/CMSIS/Include\cmsis_gcc.h ****   #pragma GCC diagnostic ignored "-Wpacked"
  97:c:/Users/Black_Life/STM32Cube/Repository/STM32Cube_FW_F4_V1.26.2/Drivers/CMSIS/Include\cmsis_gcc.h ****   #pragma GCC diagnostic ignored "-Wattributes"
  98:c:/Users/Black_Life/STM32Cube/Repository/STM32Cube_FW_F4_V1.26.2/Drivers/CMSIS/Include\cmsis_gcc.h ****   __PACKED_STRUCT T_UINT32_WRITE { uint32_t v; };
  99:c:/Users/Black_Life/STM32Cube/Repository/STM32Cube_FW_F4_V1.26.2/Drivers/CMSIS/Include\cmsis_gcc.h ****   #pragma GCC diagnostic pop
ARM GAS  C:\Users\BLACK_~1\AppData\Local\Temp\ccGxh1nc.s 			page 19


 100:c:/Users/Black_Life/STM32Cube/Repository/STM32Cube_FW_F4_V1.26.2/Drivers/CMSIS/Include\cmsis_gcc.h ****   #define __UNALIGNED_UINT32_WRITE(addr, val)    (void)((((struct T_UINT32_WRITE *)(void *)(addr))-
 101:c:/Users/Black_Life/STM32Cube/Repository/STM32Cube_FW_F4_V1.26.2/Drivers/CMSIS/Include\cmsis_gcc.h **** #endif
 102:c:/Users/Black_Life/STM32Cube/Repository/STM32Cube_FW_F4_V1.26.2/Drivers/CMSIS/Include\cmsis_gcc.h **** #ifndef   __UNALIGNED_UINT32_READ
 103:c:/Users/Black_Life/STM32Cube/Repository/STM32Cube_FW_F4_V1.26.2/Drivers/CMSIS/Include\cmsis_gcc.h ****   #pragma GCC diagnostic push
 104:c:/Users/Black_Life/STM32Cube/Repository/STM32Cube_FW_F4_V1.26.2/Drivers/CMSIS/Include\cmsis_gcc.h ****   #pragma GCC diagnostic ignored "-Wpacked"
 105:c:/Users/Black_Life/STM32Cube/Repository/STM32Cube_FW_F4_V1.26.2/Drivers/CMSIS/Include\cmsis_gcc.h ****   #pragma GCC diagnostic ignored "-Wattributes"
 106:c:/Users/Black_Life/STM32Cube/Repository/STM32Cube_FW_F4_V1.26.2/Drivers/CMSIS/Include\cmsis_gcc.h ****   __PACKED_STRUCT T_UINT32_READ { uint32_t v; };
 107:c:/Users/Black_Life/STM32Cube/Repository/STM32Cube_FW_F4_V1.26.2/Drivers/CMSIS/Include\cmsis_gcc.h ****   #pragma GCC diagnostic pop
 108:c:/Users/Black_Life/STM32Cube/Repository/STM32Cube_FW_F4_V1.26.2/Drivers/CMSIS/Include\cmsis_gcc.h ****   #define __UNALIGNED_UINT32_READ(addr)          (((const struct T_UINT32_READ *)(const void *)(add
 109:c:/Users/Black_Life/STM32Cube/Repository/STM32Cube_FW_F4_V1.26.2/Drivers/CMSIS/Include\cmsis_gcc.h **** #endif
 110:c:/Users/Black_Life/STM32Cube/Repository/STM32Cube_FW_F4_V1.26.2/Drivers/CMSIS/Include\cmsis_gcc.h **** #ifndef   __ALIGNED
 111:c:/Users/Black_Life/STM32Cube/Repository/STM32Cube_FW_F4_V1.26.2/Drivers/CMSIS/Include\cmsis_gcc.h ****   #define __ALIGNED(x)                           __attribute__((aligned(x)))
 112:c:/Users/Black_Life/STM32Cube/Repository/STM32Cube_FW_F4_V1.26.2/Drivers/CMSIS/Include\cmsis_gcc.h **** #endif
 113:c:/Users/Black_Life/STM32Cube/Repository/STM32Cube_FW_F4_V1.26.2/Drivers/CMSIS/Include\cmsis_gcc.h **** #ifndef   __RESTRICT
 114:c:/Users/Black_Life/STM32Cube/Repository/STM32Cube_FW_F4_V1.26.2/Drivers/CMSIS/Include\cmsis_gcc.h ****   #define __RESTRICT                             __restrict
 115:c:/Users/Black_Life/STM32Cube/Repository/STM32Cube_FW_F4_V1.26.2/Drivers/CMSIS/Include\cmsis_gcc.h **** #endif
 116:c:/Users/Black_Life/STM32Cube/Repository/STM32Cube_FW_F4_V1.26.2/Drivers/CMSIS/Include\cmsis_gcc.h **** 
 117:c:/Users/Black_Life/STM32Cube/Repository/STM32Cube_FW_F4_V1.26.2/Drivers/CMSIS/Include\cmsis_gcc.h **** 
 118:c:/Users/Black_Life/STM32Cube/Repository/STM32Cube_FW_F4_V1.26.2/Drivers/CMSIS/Include\cmsis_gcc.h **** /* ###########################  Core Function Access  ########################### */
 119:c:/Users/Black_Life/STM32Cube/Repository/STM32Cube_FW_F4_V1.26.2/Drivers/CMSIS/Include\cmsis_gcc.h **** /** \ingroup  CMSIS_Core_FunctionInterface
 120:c:/Users/Black_Life/STM32Cube/Repository/STM32Cube_FW_F4_V1.26.2/Drivers/CMSIS/Include\cmsis_gcc.h ****     \defgroup CMSIS_Core_RegAccFunctions CMSIS Core Register Access Functions
 121:c:/Users/Black_Life/STM32Cube/Repository/STM32Cube_FW_F4_V1.26.2/Drivers/CMSIS/Include\cmsis_gcc.h ****   @{
 122:c:/Users/Black_Life/STM32Cube/Repository/STM32Cube_FW_F4_V1.26.2/Drivers/CMSIS/Include\cmsis_gcc.h ****  */
 123:c:/Users/Black_Life/STM32Cube/Repository/STM32Cube_FW_F4_V1.26.2/Drivers/CMSIS/Include\cmsis_gcc.h **** 
 124:c:/Users/Black_Life/STM32Cube/Repository/STM32Cube_FW_F4_V1.26.2/Drivers/CMSIS/Include\cmsis_gcc.h **** /**
 125:c:/Users/Black_Life/STM32Cube/Repository/STM32Cube_FW_F4_V1.26.2/Drivers/CMSIS/Include\cmsis_gcc.h ****   \brief   Enable IRQ Interrupts
 126:c:/Users/Black_Life/STM32Cube/Repository/STM32Cube_FW_F4_V1.26.2/Drivers/CMSIS/Include\cmsis_gcc.h ****   \details Enables IRQ interrupts by clearing the I-bit in the CPSR.
 127:c:/Users/Black_Life/STM32Cube/Repository/STM32Cube_FW_F4_V1.26.2/Drivers/CMSIS/Include\cmsis_gcc.h ****            Can only be executed in Privileged modes.
 128:c:/Users/Black_Life/STM32Cube/Repository/STM32Cube_FW_F4_V1.26.2/Drivers/CMSIS/Include\cmsis_gcc.h ****  */
 129:c:/Users/Black_Life/STM32Cube/Repository/STM32Cube_FW_F4_V1.26.2/Drivers/CMSIS/Include\cmsis_gcc.h **** __STATIC_FORCEINLINE void __enable_irq(void)
 130:c:/Users/Black_Life/STM32Cube/Repository/STM32Cube_FW_F4_V1.26.2/Drivers/CMSIS/Include\cmsis_gcc.h **** {
 131:c:/Users/Black_Life/STM32Cube/Repository/STM32Cube_FW_F4_V1.26.2/Drivers/CMSIS/Include\cmsis_gcc.h ****   __ASM volatile ("cpsie i" : : : "memory");
 132:c:/Users/Black_Life/STM32Cube/Repository/STM32Cube_FW_F4_V1.26.2/Drivers/CMSIS/Include\cmsis_gcc.h **** }
 133:c:/Users/Black_Life/STM32Cube/Repository/STM32Cube_FW_F4_V1.26.2/Drivers/CMSIS/Include\cmsis_gcc.h **** 
 134:c:/Users/Black_Life/STM32Cube/Repository/STM32Cube_FW_F4_V1.26.2/Drivers/CMSIS/Include\cmsis_gcc.h **** 
 135:c:/Users/Black_Life/STM32Cube/Repository/STM32Cube_FW_F4_V1.26.2/Drivers/CMSIS/Include\cmsis_gcc.h **** /**
 136:c:/Users/Black_Life/STM32Cube/Repository/STM32Cube_FW_F4_V1.26.2/Drivers/CMSIS/Include\cmsis_gcc.h ****   \brief   Disable IRQ Interrupts
 137:c:/Users/Black_Life/STM32Cube/Repository/STM32Cube_FW_F4_V1.26.2/Drivers/CMSIS/Include\cmsis_gcc.h ****   \details Disables IRQ interrupts by setting the I-bit in the CPSR.
 138:c:/Users/Black_Life/STM32Cube/Repository/STM32Cube_FW_F4_V1.26.2/Drivers/CMSIS/Include\cmsis_gcc.h ****            Can only be executed in Privileged modes.
 139:c:/Users/Black_Life/STM32Cube/Repository/STM32Cube_FW_F4_V1.26.2/Drivers/CMSIS/Include\cmsis_gcc.h ****  */
 140:c:/Users/Black_Life/STM32Cube/Repository/STM32Cube_FW_F4_V1.26.2/Drivers/CMSIS/Include\cmsis_gcc.h **** __STATIC_FORCEINLINE void __disable_irq(void)
 323              		.loc 4 140 27 view .LVU65
 324              	.LBB17:
 141:c:/Users/Black_Life/STM32Cube/Repository/STM32Cube_FW_F4_V1.26.2/Drivers/CMSIS/Include\cmsis_gcc.h **** {
 142:c:/Users/Black_Life/STM32Cube/Repository/STM32Cube_FW_F4_V1.26.2/Drivers/CMSIS/Include\cmsis_gcc.h ****   __ASM volatile ("cpsid i" : : : "memory");
 325              		.loc 4 142 3 view .LVU66
 326              		.syntax unified
 327              	@ 142 "c:/Users/Black_Life/STM32Cube/Repository/STM32Cube_FW_F4_V1.26.2/Drivers/CMSIS/Include/cmsis
 328 0000 72B6     		cpsid i
 329              	@ 0 "" 2
 330              		.thumb
 331              		.syntax unified
 332              	.L29:
 333              	.LBE17:
 334              	.LBE16:
 215:Src/main.c    ****   while (1)
 335              		.loc 1 215 3 discriminator 1 view .LVU67
ARM GAS  C:\Users\BLACK_~1\AppData\Local\Temp\ccGxh1nc.s 			page 20


 216:Src/main.c    ****   {
 217:Src/main.c    ****   }
 336              		.loc 1 217 3 discriminator 1 view .LVU68
 215:Src/main.c    ****   while (1)
 337              		.loc 1 215 9 discriminator 1 view .LVU69
 338 0002 FEE7     		b	.L29
 339              		.cfi_endproc
 340              	.LFE347:
 342              		.section	.text.SystemClock_Config,"ax",%progbits
 343              		.align	1
 344              		.global	SystemClock_Config
 345              		.syntax unified
 346              		.thumb
 347              		.thumb_func
 349              	SystemClock_Config:
 350              	.LFB342:
 106:Src/main.c    ****   RCC_OscInitTypeDef RCC_OscInitStruct = {0};
 351              		.loc 1 106 1 view -0
 352              		.cfi_startproc
 353              		@ args = 0, pretend = 0, frame = 96
 354              		@ frame_needed = 0, uses_anonymous_args = 0
 355 0000 00B5     		push	{lr}
 356              	.LCFI4:
 357              		.cfi_def_cfa_offset 4
 358              		.cfi_offset 14, -4
 359 0002 99B0     		sub	sp, sp, #100
 360              	.LCFI5:
 361              		.cfi_def_cfa_offset 104
 107:Src/main.c    ****   RCC_ClkInitTypeDef RCC_ClkInitStruct = {0};
 362              		.loc 1 107 3 view .LVU71
 107:Src/main.c    ****   RCC_ClkInitTypeDef RCC_ClkInitStruct = {0};
 363              		.loc 1 107 22 is_stmt 0 view .LVU72
 364 0004 3022     		movs	r2, #48
 365 0006 0021     		movs	r1, #0
 366 0008 0DEB0200 		add	r0, sp, r2
 367 000c FFF7FEFF 		bl	memset
 368              	.LVL28:
 108:Src/main.c    ****   RCC_PeriphCLKInitTypeDef PeriphClkInitStruct = {0};
 369              		.loc 1 108 3 is_stmt 1 view .LVU73
 108:Src/main.c    ****   RCC_PeriphCLKInitTypeDef PeriphClkInitStruct = {0};
 370              		.loc 1 108 22 is_stmt 0 view .LVU74
 371 0010 0023     		movs	r3, #0
 372 0012 0793     		str	r3, [sp, #28]
 373 0014 0893     		str	r3, [sp, #32]
 374 0016 0993     		str	r3, [sp, #36]
 375 0018 0A93     		str	r3, [sp, #40]
 376 001a 0B93     		str	r3, [sp, #44]
 109:Src/main.c    **** 
 377              		.loc 1 109 3 is_stmt 1 view .LVU75
 109:Src/main.c    **** 
 378              		.loc 1 109 28 is_stmt 0 view .LVU76
 379 001c 0393     		str	r3, [sp, #12]
 380 001e 0493     		str	r3, [sp, #16]
 381 0020 0593     		str	r3, [sp, #20]
 382 0022 0693     		str	r3, [sp, #24]
 113:Src/main.c    ****   __HAL_PWR_VOLTAGESCALING_CONFIG(PWR_REGULATOR_VOLTAGE_SCALE1);
 383              		.loc 1 113 3 is_stmt 1 view .LVU77
ARM GAS  C:\Users\BLACK_~1\AppData\Local\Temp\ccGxh1nc.s 			page 21


 384              	.LBB18:
 113:Src/main.c    ****   __HAL_PWR_VOLTAGESCALING_CONFIG(PWR_REGULATOR_VOLTAGE_SCALE1);
 385              		.loc 1 113 3 view .LVU78
 386 0024 0193     		str	r3, [sp, #4]
 113:Src/main.c    ****   __HAL_PWR_VOLTAGESCALING_CONFIG(PWR_REGULATOR_VOLTAGE_SCALE1);
 387              		.loc 1 113 3 view .LVU79
 388 0026 284A     		ldr	r2, .L38
 389 0028 116C     		ldr	r1, [r2, #64]
 390 002a 41F08051 		orr	r1, r1, #268435456
 391 002e 1164     		str	r1, [r2, #64]
 113:Src/main.c    ****   __HAL_PWR_VOLTAGESCALING_CONFIG(PWR_REGULATOR_VOLTAGE_SCALE1);
 392              		.loc 1 113 3 view .LVU80
 393 0030 126C     		ldr	r2, [r2, #64]
 394 0032 02F08052 		and	r2, r2, #268435456
 395 0036 0192     		str	r2, [sp, #4]
 113:Src/main.c    ****   __HAL_PWR_VOLTAGESCALING_CONFIG(PWR_REGULATOR_VOLTAGE_SCALE1);
 396              		.loc 1 113 3 view .LVU81
 397 0038 019A     		ldr	r2, [sp, #4]
 398              	.LBE18:
 113:Src/main.c    ****   __HAL_PWR_VOLTAGESCALING_CONFIG(PWR_REGULATOR_VOLTAGE_SCALE1);
 399              		.loc 1 113 3 view .LVU82
 114:Src/main.c    ****   /** Initializes the RCC Oscillators according to the specified parameters
 400              		.loc 1 114 3 view .LVU83
 401              	.LBB19:
 114:Src/main.c    ****   /** Initializes the RCC Oscillators according to the specified parameters
 402              		.loc 1 114 3 view .LVU84
 403 003a 0293     		str	r3, [sp, #8]
 114:Src/main.c    ****   /** Initializes the RCC Oscillators according to the specified parameters
 404              		.loc 1 114 3 view .LVU85
 405 003c 234B     		ldr	r3, .L38+4
 406 003e 1A68     		ldr	r2, [r3]
 407 0040 42F48042 		orr	r2, r2, #16384
 408 0044 1A60     		str	r2, [r3]
 114:Src/main.c    ****   /** Initializes the RCC Oscillators according to the specified parameters
 409              		.loc 1 114 3 view .LVU86
 410 0046 1B68     		ldr	r3, [r3]
 411 0048 03F48043 		and	r3, r3, #16384
 412 004c 0293     		str	r3, [sp, #8]
 114:Src/main.c    ****   /** Initializes the RCC Oscillators according to the specified parameters
 413              		.loc 1 114 3 view .LVU87
 414 004e 029B     		ldr	r3, [sp, #8]
 415              	.LBE19:
 114:Src/main.c    ****   /** Initializes the RCC Oscillators according to the specified parameters
 416              		.loc 1 114 3 view .LVU88
 118:Src/main.c    ****                               |RCC_OSCILLATORTYPE_LSE;
 417              		.loc 1 118 3 view .LVU89
 118:Src/main.c    ****                               |RCC_OSCILLATORTYPE_LSE;
 418              		.loc 1 118 36 is_stmt 0 view .LVU90
 419 0050 0D23     		movs	r3, #13
 420 0052 0C93     		str	r3, [sp, #48]
 120:Src/main.c    ****   RCC_OscInitStruct.LSEState = RCC_LSE_ON;
 421              		.loc 1 120 3 is_stmt 1 view .LVU91
 120:Src/main.c    ****   RCC_OscInitStruct.LSEState = RCC_LSE_ON;
 422              		.loc 1 120 30 is_stmt 0 view .LVU92
 423 0054 4FF48033 		mov	r3, #65536
 424 0058 0D93     		str	r3, [sp, #52]
 121:Src/main.c    ****   RCC_OscInitStruct.LSIState = RCC_LSI_ON;
ARM GAS  C:\Users\BLACK_~1\AppData\Local\Temp\ccGxh1nc.s 			page 22


 425              		.loc 1 121 3 is_stmt 1 view .LVU93
 121:Src/main.c    ****   RCC_OscInitStruct.LSIState = RCC_LSI_ON;
 426              		.loc 1 121 30 is_stmt 0 view .LVU94
 427 005a 0123     		movs	r3, #1
 428 005c 0E93     		str	r3, [sp, #56]
 122:Src/main.c    ****   RCC_OscInitStruct.PLL.PLLState = RCC_PLL_ON;
 429              		.loc 1 122 3 is_stmt 1 view .LVU95
 122:Src/main.c    ****   RCC_OscInitStruct.PLL.PLLState = RCC_PLL_ON;
 430              		.loc 1 122 30 is_stmt 0 view .LVU96
 431 005e 1193     		str	r3, [sp, #68]
 123:Src/main.c    ****   RCC_OscInitStruct.PLL.PLLSource = RCC_PLLSOURCE_HSE;
 432              		.loc 1 123 3 is_stmt 1 view .LVU97
 123:Src/main.c    ****   RCC_OscInitStruct.PLL.PLLSource = RCC_PLLSOURCE_HSE;
 433              		.loc 1 123 34 is_stmt 0 view .LVU98
 434 0060 0223     		movs	r3, #2
 435 0062 1293     		str	r3, [sp, #72]
 124:Src/main.c    ****   RCC_OscInitStruct.PLL.PLLM = 25;
 436              		.loc 1 124 3 is_stmt 1 view .LVU99
 124:Src/main.c    ****   RCC_OscInitStruct.PLL.PLLM = 25;
 437              		.loc 1 124 35 is_stmt 0 view .LVU100
 438 0064 4FF48002 		mov	r2, #4194304
 439 0068 1392     		str	r2, [sp, #76]
 125:Src/main.c    ****   RCC_OscInitStruct.PLL.PLLN = 336;
 440              		.loc 1 125 3 is_stmt 1 view .LVU101
 125:Src/main.c    ****   RCC_OscInitStruct.PLL.PLLN = 336;
 441              		.loc 1 125 30 is_stmt 0 view .LVU102
 442 006a 1922     		movs	r2, #25
 443 006c 1492     		str	r2, [sp, #80]
 126:Src/main.c    ****   RCC_OscInitStruct.PLL.PLLP = RCC_PLLP_DIV2;
 444              		.loc 1 126 3 is_stmt 1 view .LVU103
 126:Src/main.c    ****   RCC_OscInitStruct.PLL.PLLP = RCC_PLLP_DIV2;
 445              		.loc 1 126 30 is_stmt 0 view .LVU104
 446 006e 4FF4A872 		mov	r2, #336
 447 0072 1592     		str	r2, [sp, #84]
 127:Src/main.c    ****   RCC_OscInitStruct.PLL.PLLQ = 7;
 448              		.loc 1 127 3 is_stmt 1 view .LVU105
 127:Src/main.c    ****   RCC_OscInitStruct.PLL.PLLQ = 7;
 449              		.loc 1 127 30 is_stmt 0 view .LVU106
 450 0074 1693     		str	r3, [sp, #88]
 128:Src/main.c    ****   if (HAL_RCC_OscConfig(&RCC_OscInitStruct) != HAL_OK)
 451              		.loc 1 128 3 is_stmt 1 view .LVU107
 128:Src/main.c    ****   if (HAL_RCC_OscConfig(&RCC_OscInitStruct) != HAL_OK)
 452              		.loc 1 128 30 is_stmt 0 view .LVU108
 453 0076 0723     		movs	r3, #7
 454 0078 1793     		str	r3, [sp, #92]
 129:Src/main.c    ****   {
 455              		.loc 1 129 3 is_stmt 1 view .LVU109
 129:Src/main.c    ****   {
 456              		.loc 1 129 7 is_stmt 0 view .LVU110
 457 007a 0CA8     		add	r0, sp, #48
 458 007c FFF7FEFF 		bl	HAL_RCC_OscConfig
 459              	.LVL29:
 129:Src/main.c    ****   {
 460              		.loc 1 129 6 view .LVU111
 461 0080 E0B9     		cbnz	r0, .L35
 135:Src/main.c    ****                               |RCC_CLOCKTYPE_PCLK1|RCC_CLOCKTYPE_PCLK2;
 462              		.loc 1 135 3 is_stmt 1 view .LVU112
ARM GAS  C:\Users\BLACK_~1\AppData\Local\Temp\ccGxh1nc.s 			page 23


 135:Src/main.c    ****                               |RCC_CLOCKTYPE_PCLK1|RCC_CLOCKTYPE_PCLK2;
 463              		.loc 1 135 31 is_stmt 0 view .LVU113
 464 0082 0F23     		movs	r3, #15
 465 0084 0793     		str	r3, [sp, #28]
 137:Src/main.c    ****   RCC_ClkInitStruct.AHBCLKDivider = RCC_SYSCLK_DIV1;
 466              		.loc 1 137 3 is_stmt 1 view .LVU114
 137:Src/main.c    ****   RCC_ClkInitStruct.AHBCLKDivider = RCC_SYSCLK_DIV1;
 467              		.loc 1 137 34 is_stmt 0 view .LVU115
 468 0086 0223     		movs	r3, #2
 469 0088 0893     		str	r3, [sp, #32]
 138:Src/main.c    ****   RCC_ClkInitStruct.APB1CLKDivider = RCC_HCLK_DIV4;
 470              		.loc 1 138 3 is_stmt 1 view .LVU116
 138:Src/main.c    ****   RCC_ClkInitStruct.APB1CLKDivider = RCC_HCLK_DIV4;
 471              		.loc 1 138 35 is_stmt 0 view .LVU117
 472 008a 0023     		movs	r3, #0
 473 008c 0993     		str	r3, [sp, #36]
 139:Src/main.c    ****   RCC_ClkInitStruct.APB2CLKDivider = RCC_HCLK_DIV2;
 474              		.loc 1 139 3 is_stmt 1 view .LVU118
 139:Src/main.c    ****   RCC_ClkInitStruct.APB2CLKDivider = RCC_HCLK_DIV2;
 475              		.loc 1 139 36 is_stmt 0 view .LVU119
 476 008e 4FF4A053 		mov	r3, #5120
 477 0092 0A93     		str	r3, [sp, #40]
 140:Src/main.c    **** 
 478              		.loc 1 140 3 is_stmt 1 view .LVU120
 140:Src/main.c    **** 
 479              		.loc 1 140 36 is_stmt 0 view .LVU121
 480 0094 4FF48053 		mov	r3, #4096
 481 0098 0B93     		str	r3, [sp, #44]
 142:Src/main.c    ****   {
 482              		.loc 1 142 3 is_stmt 1 view .LVU122
 142:Src/main.c    ****   {
 483              		.loc 1 142 7 is_stmt 0 view .LVU123
 484 009a 0521     		movs	r1, #5
 485 009c 07A8     		add	r0, sp, #28
 486 009e FFF7FEFF 		bl	HAL_RCC_ClockConfig
 487              	.LVL30:
 142:Src/main.c    ****   {
 488              		.loc 1 142 6 view .LVU124
 489 00a2 68B9     		cbnz	r0, .L36
 146:Src/main.c    ****   PeriphClkInitStruct.RTCClockSelection = RCC_RTCCLKSOURCE_LSE;
 490              		.loc 1 146 3 is_stmt 1 view .LVU125
 146:Src/main.c    ****   PeriphClkInitStruct.RTCClockSelection = RCC_RTCCLKSOURCE_LSE;
 491              		.loc 1 146 44 is_stmt 0 view .LVU126
 492 00a4 0223     		movs	r3, #2
 493 00a6 0393     		str	r3, [sp, #12]
 147:Src/main.c    ****   if (HAL_RCCEx_PeriphCLKConfig(&PeriphClkInitStruct) != HAL_OK)
 494              		.loc 1 147 3 is_stmt 1 view .LVU127
 147:Src/main.c    ****   if (HAL_RCCEx_PeriphCLKConfig(&PeriphClkInitStruct) != HAL_OK)
 495              		.loc 1 147 41 is_stmt 0 view .LVU128
 496 00a8 4FF48073 		mov	r3, #256
 497 00ac 0693     		str	r3, [sp, #24]
 148:Src/main.c    ****   {
 498              		.loc 1 148 3 is_stmt 1 view .LVU129
 148:Src/main.c    ****   {
 499              		.loc 1 148 7 is_stmt 0 view .LVU130
 500 00ae 03A8     		add	r0, sp, #12
 501 00b0 FFF7FEFF 		bl	HAL_RCCEx_PeriphCLKConfig
ARM GAS  C:\Users\BLACK_~1\AppData\Local\Temp\ccGxh1nc.s 			page 24


 502              	.LVL31:
 148:Src/main.c    ****   {
 503              		.loc 1 148 6 view .LVU131
 504 00b4 30B9     		cbnz	r0, .L37
 152:Src/main.c    **** 
 505              		.loc 1 152 1 view .LVU132
 506 00b6 19B0     		add	sp, sp, #100
 507              	.LCFI6:
 508              		.cfi_remember_state
 509              		.cfi_def_cfa_offset 4
 510              		@ sp needed
 511 00b8 5DF804FB 		ldr	pc, [sp], #4
 512              	.L35:
 513              	.LCFI7:
 514              		.cfi_restore_state
 131:Src/main.c    ****   }
 515              		.loc 1 131 5 is_stmt 1 view .LVU133
 516 00bc FFF7FEFF 		bl	Error_Handler
 517              	.LVL32:
 518              	.L36:
 144:Src/main.c    ****   }
 519              		.loc 1 144 5 view .LVU134
 520 00c0 FFF7FEFF 		bl	Error_Handler
 521              	.LVL33:
 522              	.L37:
 150:Src/main.c    ****   }
 523              		.loc 1 150 5 view .LVU135
 524 00c4 FFF7FEFF 		bl	Error_Handler
 525              	.LVL34:
 526              	.L39:
 527              		.align	2
 528              	.L38:
 529 00c8 00380240 		.word	1073887232
 530 00cc 00700040 		.word	1073770496
 531              		.cfi_endproc
 532              	.LFE342:
 534              		.section	.text.main,"ax",%progbits
 535              		.align	1
 536              		.global	main
 537              		.syntax unified
 538              		.thumb
 539              		.thumb_func
 541              	main:
 542              	.LFB341:
  55:Src/main.c    ****   /* Reset of all peripherals, Initializes the Flash interface and the Systick. */
 543              		.loc 1 55 1 view -0
 544              		.cfi_startproc
 545              		@ Volatile: function does not return.
 546              		@ args = 0, pretend = 0, frame = 0
 547              		@ frame_needed = 0, uses_anonymous_args = 0
 548 0000 08B5     		push	{r3, lr}
 549              	.LCFI8:
 550              		.cfi_def_cfa_offset 8
 551              		.cfi_offset 3, -8
 552              		.cfi_offset 14, -4
  57:Src/main.c    **** 
 553              		.loc 1 57 3 view .LVU137
ARM GAS  C:\Users\BLACK_~1\AppData\Local\Temp\ccGxh1nc.s 			page 25


 554 0002 FFF7FEFF 		bl	HAL_Init
 555              	.LVL35:
  60:Src/main.c    **** 
 556              		.loc 1 60 3 view .LVU138
 557 0006 FFF7FEFF 		bl	SystemClock_Config
 558              	.LVL36:
  63:Src/main.c    ****   //MX_CAN1_Init();
 559              		.loc 1 63 3 view .LVU139
 560 000a FFF7FEFF 		bl	MX_GPIO_Init
 561              	.LVL37:
  65:Src/main.c    ****   MX_I2C1_Init();
 562              		.loc 1 65 3 view .LVU140
 563 000e FFF7FEFF 		bl	MX_FSMC_Init
 564              	.LVL38:
  66:Src/main.c    ****   MX_USB_DEVICE_Init();
 565              		.loc 1 66 3 view .LVU141
 566 0012 FFF7FEFF 		bl	MX_I2C1_Init
 567              	.LVL39:
  67:Src/main.c    **** 
 568              		.loc 1 67 3 view .LVU142
 569 0016 FFF7FEFF 		bl	MX_USB_DEVICE_Init
 570              	.LVL40:
  69:Src/main.c    ****   lv_init(); 
 571              		.loc 1 69 3 view .LVU143
 572 001a 184B     		ldr	r3, .L44
 573 001c 93E80700 		ldm	r3, {r0, r1, r2}
 574 0020 FFF7FEFF 		bl	GT911_Init
 575              	.LVL41:
  70:Src/main.c    **** 
 576              		.loc 1 70 3 view .LVU144
 577 0024 FFF7FEFF 		bl	lv_init
 578              	.LVL42:
  72:Src/main.c    **** 
 579              		.loc 1 72 3 view .LVU145
 580 0028 FFF7FEFF 		bl	tft_init
 581              	.LVL43:
  75:Src/main.c    ****   lv_indev_drv_init(&indev_drv);
 582              		.loc 1 75 3 view .LVU146
  76:Src/main.c    ****   indev_drv.read_cb = touch_read;
 583              		.loc 1 76 3 view .LVU147
 584 002c 144C     		ldr	r4, .L44+4
 585 002e 2046     		mov	r0, r4
 586 0030 FFF7FEFF 		bl	lv_indev_drv_init
 587              	.LVL44:
  77:Src/main.c    ****   indev_drv.type = LV_INDEV_TYPE_POINTER;
 588              		.loc 1 77 3 view .LVU148
  77:Src/main.c    ****   indev_drv.type = LV_INDEV_TYPE_POINTER;
 589              		.loc 1 77 21 is_stmt 0 view .LVU149
 590 0034 134B     		ldr	r3, .L44+8
 591 0036 6360     		str	r3, [r4, #4]
  78:Src/main.c    ****   lv_indev_drv_register(&indev_drv);
 592              		.loc 1 78 3 is_stmt 1 view .LVU150
  78:Src/main.c    ****   lv_indev_drv_register(&indev_drv);
 593              		.loc 1 78 18 is_stmt 0 view .LVU151
 594 0038 0123     		movs	r3, #1
 595 003a 2370     		strb	r3, [r4]
  79:Src/main.c    **** 
ARM GAS  C:\Users\BLACK_~1\AppData\Local\Temp\ccGxh1nc.s 			page 26


 596              		.loc 1 79 3 is_stmt 1 view .LVU152
 597 003c 2046     		mov	r0, r4
 598 003e FFF7FEFF 		bl	lv_indev_drv_register
 599              	.LVL45:
  81:Src/main.c    ****   events_init(&guider_ui);
 600              		.loc 1 81 3 view .LVU153
 601 0042 114C     		ldr	r4, .L44+12
 602 0044 2046     		mov	r0, r4
 603 0046 FFF7FEFF 		bl	setup_ui
 604              	.LVL46:
  82:Src/main.c    ****   custom_init(&guider_ui);
 605              		.loc 1 82 3 view .LVU154
 606 004a 2046     		mov	r0, r4
 607 004c FFF7FEFF 		bl	events_init
 608              	.LVL47:
  83:Src/main.c    **** 
 609              		.loc 1 83 3 view .LVU155
 610 0050 2046     		mov	r0, r4
 611 0052 FFF7FEFF 		bl	custom_init
 612              	.LVL48:
 613              	.L41:
  85:Src/main.c    ****   {
 614              		.loc 1 85 3 view .LVU156
  88:Src/main.c    ****     {
 615              		.loc 1 88 5 view .LVU157
  88:Src/main.c    ****     {
 616              		.loc 1 88 8 is_stmt 0 view .LVU158
 617 0056 FFF7FEFF 		bl	HAL_GetTick
 618              	.LVL49:
  88:Src/main.c    ****     {
 619              		.loc 1 88 22 view .LVU159
 620 005a 0C4B     		ldr	r3, .L44+16
 621 005c 1B68     		ldr	r3, [r3]
 622 005e C01A     		subs	r0, r0, r3
  88:Src/main.c    ****     {
 623              		.loc 1 88 7 view .LVU160
 624 0060 6328     		cmp	r0, #99
 625 0062 F8D9     		bls	.L41
  90:Src/main.c    **** 
 626              		.loc 1 90 7 is_stmt 1 view .LVU161
 627 0064 0A49     		ldr	r1, .L44+20
 628 0066 0B48     		ldr	r0, .L44+24
 629 0068 FFF7FEFF 		bl	GT911_ReadTouch
 630              	.LVL50:
  92:Src/main.c    **** 
 631              		.loc 1 92 7 view .LVU162
 632              	.LBB20:
 633              	.LBI20:
 634              		.file 5 "Inc/../lvgl/src/lv_api_map.h"
   1:Inc/../lvgl/src/lv_api_map.h **** /**
   2:Inc/../lvgl/src/lv_api_map.h ****  * @file lv_api_map.h
   3:Inc/../lvgl/src/lv_api_map.h ****  *
   4:Inc/../lvgl/src/lv_api_map.h ****  */
   5:Inc/../lvgl/src/lv_api_map.h **** 
   6:Inc/../lvgl/src/lv_api_map.h **** #ifndef LV_API_MAP_H
   7:Inc/../lvgl/src/lv_api_map.h **** #define LV_API_MAP_H
   8:Inc/../lvgl/src/lv_api_map.h **** 
ARM GAS  C:\Users\BLACK_~1\AppData\Local\Temp\ccGxh1nc.s 			page 27


   9:Inc/../lvgl/src/lv_api_map.h **** #ifdef __cplusplus
  10:Inc/../lvgl/src/lv_api_map.h **** extern "C" {
  11:Inc/../lvgl/src/lv_api_map.h **** #endif
  12:Inc/../lvgl/src/lv_api_map.h **** 
  13:Inc/../lvgl/src/lv_api_map.h **** /*********************
  14:Inc/../lvgl/src/lv_api_map.h ****  *      INCLUDES
  15:Inc/../lvgl/src/lv_api_map.h ****  *********************/
  16:Inc/../lvgl/src/lv_api_map.h **** #include "../lvgl.h"
  17:Inc/../lvgl/src/lv_api_map.h **** 
  18:Inc/../lvgl/src/lv_api_map.h **** /*********************
  19:Inc/../lvgl/src/lv_api_map.h ****  *      DEFINES
  20:Inc/../lvgl/src/lv_api_map.h ****  *********************/
  21:Inc/../lvgl/src/lv_api_map.h **** 
  22:Inc/../lvgl/src/lv_api_map.h **** #define LV_NO_TASK_READY LV_NO_TIMER_READY
  23:Inc/../lvgl/src/lv_api_map.h **** #define LV_INDEV_STATE_REL LV_INDEV_STATE_RELEASED
  24:Inc/../lvgl/src/lv_api_map.h **** #define LV_INDEV_STATE_PR LV_INDEV_STATE_PRESSED
  25:Inc/../lvgl/src/lv_api_map.h **** 
  26:Inc/../lvgl/src/lv_api_map.h **** /**********************
  27:Inc/../lvgl/src/lv_api_map.h ****  *      TYPEDEFS
  28:Inc/../lvgl/src/lv_api_map.h ****  **********************/
  29:Inc/../lvgl/src/lv_api_map.h **** 
  30:Inc/../lvgl/src/lv_api_map.h **** /**********************
  31:Inc/../lvgl/src/lv_api_map.h ****  * GLOBAL PROTOTYPES
  32:Inc/../lvgl/src/lv_api_map.h ****  **********************/
  33:Inc/../lvgl/src/lv_api_map.h **** 
  34:Inc/../lvgl/src/lv_api_map.h **** static inline LV_ATTRIBUTE_TIMER_HANDLER uint32_t lv_task_handler(void)
 635              		.loc 5 34 51 view .LVU163
 636              	.LBB21:
  35:Inc/../lvgl/src/lv_api_map.h **** {
  36:Inc/../lvgl/src/lv_api_map.h ****     return lv_timer_handler();
 637              		.loc 5 36 5 view .LVU164
 638              		.loc 5 36 12 is_stmt 0 view .LVU165
 639 006c FFF7FEFF 		bl	lv_timer_handler
 640              	.LVL51:
 641              	.LBE21:
 642              	.LBE20:
  94:Src/main.c    ****     }
 643              		.loc 1 94 7 is_stmt 1 view .LVU166
  94:Src/main.c    ****     }
 644              		.loc 1 94 14 is_stmt 0 view .LVU167
 645 0070 FFF7FEFF 		bl	HAL_GetTick
 646              	.LVL52:
  94:Src/main.c    ****     }
 647              		.loc 1 94 12 view .LVU168
 648 0074 054B     		ldr	r3, .L44+16
 649 0076 1860     		str	r0, [r3]
 650 0078 EDE7     		b	.L41
 651              	.L45:
 652 007a 00BF     		.align	2
 653              	.L44:
 654 007c 00000000 		.word	.LANCHOR2
 655 0080 00000000 		.word	.LANCHOR3
 656 0084 00000000 		.word	touch_read
 657 0088 00000000 		.word	.LANCHOR4
 658 008c 00000000 		.word	.LANCHOR5
 659 0090 00000000 		.word	.LANCHOR6
 660 0094 00000000 		.word	.LANCHOR1
ARM GAS  C:\Users\BLACK_~1\AppData\Local\Temp\ccGxh1nc.s 			page 28


 661              		.cfi_endproc
 662              	.LFE341:
 664              		.global	guider_ui
 665              		.global	tick
 666              		.global	status
 667              		.global	id
 668              		.global	buff
 669              		.global	touch_int
 670              		.global	number
 671              		.global	cordinate
 672              		.global	sampleConfig
 673              		.section	.bss.buff,"aw",%nobits
 674              		.align	2
 677              	buff:
 678 0000 0000     		.space	2
 679              		.section	.bss.cordinate,"aw",%nobits
 680              		.align	2
 681              		.set	.LANCHOR1,. + 0
 684              	cordinate:
 685 0000 00000000 		.space	20
 685      00000000 
 685      00000000 
 685      00000000 
 685      00000000 
 686              		.section	.bss.guider_ui,"aw",%nobits
 687              		.align	2
 688              		.set	.LANCHOR4,. + 0
 691              	guider_ui:
 692 0000 00000000 		.space	56
 692      00000000 
 692      00000000 
 692      00000000 
 692      00000000 
 693              		.section	.bss.id,"aw",%nobits
 694              		.align	2
 697              	id:
 698 0000 00000000 		.space	4
 699              		.section	.bss.indev_drv.0,"aw",%nobits
 700              		.align	2
 701              		.set	.LANCHOR3,. + 0
 704              	indev_drv.0:
 705 0000 00000000 		.space	32
 705      00000000 
 705      00000000 
 705      00000000 
 705      00000000 
 706              		.section	.bss.number,"aw",%nobits
 707              		.set	.LANCHOR6,. + 0
 710              	number:
 711 0000 00       		.space	1
 712              		.section	.bss.status,"aw",%nobits
 715              	status:
 716 0000 00       		.space	1
 717              		.section	.bss.tick,"aw",%nobits
 718              		.align	2
 719              		.set	.LANCHOR5,. + 0
 722              	tick:
ARM GAS  C:\Users\BLACK_~1\AppData\Local\Temp\ccGxh1nc.s 			page 29


 723 0000 00000000 		.space	4
 724              		.section	.bss.touch_int,"aw",%nobits
 725              		.set	.LANCHOR0,. + 0
 728              	touch_int:
 729 0000 00       		.space	1
 730              		.section	.data.sampleConfig,"aw"
 731              		.align	2
 732              		.set	.LANCHOR2,. + 0
 735              	sampleConfig:
 736 0000 2003     		.short	800
 737 0002 1001     		.short	272
 738 0004 0A       		.byte	10
 739 0005 00       		.byte	0
 740 0006 00       		.byte	0
 741 0007 01       		.byte	1
 742 0008 01       		.byte	1
 743 0009 00       		.space	1
 744              		.text
 745              	.Letext0:
 746              		.file 6 "e:\\gnu arm embedded toolchain\\10 2021.10\\arm-none-eabi\\include\\machine\\_default_typ
 747              		.file 7 "e:\\gnu arm embedded toolchain\\10 2021.10\\arm-none-eabi\\include\\sys\\_stdint.h"
 748              		.file 8 "c:/Users/Black_Life/STM32Cube/Repository/STM32Cube_FW_F4_V1.26.2/Drivers/CMSIS/Device/ST/
 749              		.file 9 "c:/Users/Black_Life/STM32Cube/Repository/STM32Cube_FW_F4_V1.26.2/Drivers/STM32F4xx_HAL_Dr
 750              		.file 10 "c:/Users/Black_Life/STM32Cube/Repository/STM32Cube_FW_F4_V1.26.2/Drivers/STM32F4xx_HAL_D
 751              		.file 11 "c:/Users/Black_Life/STM32Cube/Repository/STM32Cube_FW_F4_V1.26.2/Drivers/STM32F4xx_HAL_D
 752              		.file 12 "c:/Users/Black_Life/STM32Cube/Repository/STM32Cube_FW_F4_V1.26.2/Middlewares/Third_Party
 753              		.file 13 "Inc/../lvgl/src/misc/lv_ll.h"
 754              		.file 14 "Inc/../lvgl/src/misc/lv_timer.h"
 755              		.file 15 "Inc/../lvgl/src/hal/../misc/lv_color.h"
 756              		.file 16 "Inc/../lvgl/src/hal/../misc/lv_area.h"
 757              		.file 17 "Inc/../lvgl/src/hal/lv_hal_disp.h"
 758              		.file 18 "Inc/../lvgl/src/core/lv_theme.h"
 759              		.file 19 "Inc/../lvgl/src/core/lv_obj.h"
 760              		.file 20 "Inc/../lvgl/src/hal/lv_hal_indev.h"
 761              		.file 21 "Inc/../lvgl/src/core/lv_group.h"
 762              		.file 22 "Inc/../lvgl/src/core/../misc/../font/lv_font.h"
 763              		.file 23 "Inc/../lvgl/src/core/../misc/lv_style.h"
 764              		.file 24 "Inc/../lvgl/src/core/lv_obj_scroll.h"
 765              		.file 25 "Inc/../lvgl/src/core/lv_obj_style.h"
 766              		.file 26 "Inc/../lvgl/src/core/lv_obj_class.h"
 767              		.file 27 "Inc/../lvgl/src/core/lv_event.h"
 768              		.file 28 "Inc/../lvgl/src/widgets/lv_bar.h"
 769              		.file 29 "Inc/../lvgl/src/extra/widgets/imgbtn/lv_imgbtn.h"
 770              		.file 30 "Inc/gt911.h"
 771              		.file 31 "Src/../generated/gui_guider.h"
 772              		.file 32 "c:/Users/Black_Life/STM32Cube/Repository/STM32Cube_FW_F4_V1.26.2/Middlewares/Third_Party
 773              		.file 33 "Inc/../lvgl/src/widgets/lv_btn.h"
 774              		.file 34 "Inc/../lvgl/src/widgets/lv_label.h"
 775              		.file 35 "e:\\gnu arm embedded toolchain\\10 2021.10\\arm-none-eabi\\include\\stdio.h"
 776              		.file 36 "<built-in>"
 777              		.file 37 "c:/Users/Black_Life/STM32Cube/Repository/STM32Cube_FW_F4_V1.26.2/Drivers/STM32F4xx_HAL_D
 778              		.file 38 "Inc/gpio.h"
 779              		.file 39 "Inc/fsmc.h"
 780              		.file 40 "Inc/i2c.h"
 781              		.file 41 "USB_DEVICE/App/usb_device.h"
 782              		.file 42 "Inc/lv_driver.h"
 783              		.file 43 "Src/../generated/events_init.h"
ARM GAS  C:\Users\BLACK_~1\AppData\Local\Temp\ccGxh1nc.s 			page 30


 784              		.file 44 "Src/../custom/custom.h"
 785              		.file 45 "c:/Users/Black_Life/STM32Cube/Repository/STM32Cube_FW_F4_V1.26.2/Middlewares/Third_Party
ARM GAS  C:\Users\BLACK_~1\AppData\Local\Temp\ccGxh1nc.s 			page 31

