ARM GAS  C:\Users\BLACK_~1\AppData\Local\Temp\ccnOKFK8.s 			page 1


   1              		.cpu cortex-m4
   2              		.arch armv7e-m
   3              		.fpu fpv4-sp-d16
   4              		.eabi_attribute 27, 1
   5              		.eabi_attribute 28, 1
   6              		.eabi_attribute 20, 1
   7              		.eabi_attribute 21, 1
   8              		.eabi_attribute 23, 3
   9              		.eabi_attribute 24, 1
  10              		.eabi_attribute 25, 1
  11              		.eabi_attribute 26, 1
  12              		.eabi_attribute 30, 1
  13              		.eabi_attribute 34, 1
  14              		.eabi_attribute 18, 4
  15              		.file	"mem.c"
  16              		.text
  17              	.Ltext0:
  18              		.cfi_sections	.debug_frame
  19              		.section	.text.ptr_to_mem,"ax",%progbits
  20              		.align	1
  21              		.syntax unified
  22              		.thumb
  23              		.thumb_func
  25              	ptr_to_mem:
  26              	.LVL0:
  27              	.LFB156:
  28              		.file 1 "c:/Users/Black_Life/STM32Cube/Repository/STM32Cube_FW_F4_V1.26.2/Middlewares/Third_Party/
   1:c:/Users/Black_Life/STM32Cube/Repository/STM32Cube_FW_F4_V1.26.2/Middlewares/Third_Party/LwIP/src/core\mem.c **** /**
   2:c:/Users/Black_Life/STM32Cube/Repository/STM32Cube_FW_F4_V1.26.2/Middlewares/Third_Party/LwIP/src/core\mem.c ****  * @file
   3:c:/Users/Black_Life/STM32Cube/Repository/STM32Cube_FW_F4_V1.26.2/Middlewares/Third_Party/LwIP/src/core\mem.c ****  * Dynamic memory manager
   4:c:/Users/Black_Life/STM32Cube/Repository/STM32Cube_FW_F4_V1.26.2/Middlewares/Third_Party/LwIP/src/core\mem.c ****  *
   5:c:/Users/Black_Life/STM32Cube/Repository/STM32Cube_FW_F4_V1.26.2/Middlewares/Third_Party/LwIP/src/core\mem.c ****  * This is a lightweight replacement for the standard C library malloc().
   6:c:/Users/Black_Life/STM32Cube/Repository/STM32Cube_FW_F4_V1.26.2/Middlewares/Third_Party/LwIP/src/core\mem.c ****  *
   7:c:/Users/Black_Life/STM32Cube/Repository/STM32Cube_FW_F4_V1.26.2/Middlewares/Third_Party/LwIP/src/core\mem.c ****  * If you want to use the standard C library malloc() instead, define
   8:c:/Users/Black_Life/STM32Cube/Repository/STM32Cube_FW_F4_V1.26.2/Middlewares/Third_Party/LwIP/src/core\mem.c ****  * MEM_LIBC_MALLOC to 1 in your lwipopts.h
   9:c:/Users/Black_Life/STM32Cube/Repository/STM32Cube_FW_F4_V1.26.2/Middlewares/Third_Party/LwIP/src/core\mem.c ****  *
  10:c:/Users/Black_Life/STM32Cube/Repository/STM32Cube_FW_F4_V1.26.2/Middlewares/Third_Party/LwIP/src/core\mem.c ****  * To let mem_malloc() use pools (prevents fragmentation and is much faster than
  11:c:/Users/Black_Life/STM32Cube/Repository/STM32Cube_FW_F4_V1.26.2/Middlewares/Third_Party/LwIP/src/core\mem.c ****  * a heap but might waste some memory), define MEM_USE_POOLS to 1, define
  12:c:/Users/Black_Life/STM32Cube/Repository/STM32Cube_FW_F4_V1.26.2/Middlewares/Third_Party/LwIP/src/core\mem.c ****  * MEMP_USE_CUSTOM_POOLS to 1 and create a file "lwippools.h" that includes a list
  13:c:/Users/Black_Life/STM32Cube/Repository/STM32Cube_FW_F4_V1.26.2/Middlewares/Third_Party/LwIP/src/core\mem.c ****  * of pools like this (more pools can be added between _START and _END):
  14:c:/Users/Black_Life/STM32Cube/Repository/STM32Cube_FW_F4_V1.26.2/Middlewares/Third_Party/LwIP/src/core\mem.c ****  *
  15:c:/Users/Black_Life/STM32Cube/Repository/STM32Cube_FW_F4_V1.26.2/Middlewares/Third_Party/LwIP/src/core\mem.c ****  * Define three pools with sizes 256, 512, and 1512 bytes
  16:c:/Users/Black_Life/STM32Cube/Repository/STM32Cube_FW_F4_V1.26.2/Middlewares/Third_Party/LwIP/src/core\mem.c ****  * LWIP_MALLOC_MEMPOOL_START
  17:c:/Users/Black_Life/STM32Cube/Repository/STM32Cube_FW_F4_V1.26.2/Middlewares/Third_Party/LwIP/src/core\mem.c ****  * LWIP_MALLOC_MEMPOOL(20, 256)
  18:c:/Users/Black_Life/STM32Cube/Repository/STM32Cube_FW_F4_V1.26.2/Middlewares/Third_Party/LwIP/src/core\mem.c ****  * LWIP_MALLOC_MEMPOOL(10, 512)
  19:c:/Users/Black_Life/STM32Cube/Repository/STM32Cube_FW_F4_V1.26.2/Middlewares/Third_Party/LwIP/src/core\mem.c ****  * LWIP_MALLOC_MEMPOOL(5, 1512)
  20:c:/Users/Black_Life/STM32Cube/Repository/STM32Cube_FW_F4_V1.26.2/Middlewares/Third_Party/LwIP/src/core\mem.c ****  * LWIP_MALLOC_MEMPOOL_END
  21:c:/Users/Black_Life/STM32Cube/Repository/STM32Cube_FW_F4_V1.26.2/Middlewares/Third_Party/LwIP/src/core\mem.c ****  */
  22:c:/Users/Black_Life/STM32Cube/Repository/STM32Cube_FW_F4_V1.26.2/Middlewares/Third_Party/LwIP/src/core\mem.c **** 
  23:c:/Users/Black_Life/STM32Cube/Repository/STM32Cube_FW_F4_V1.26.2/Middlewares/Third_Party/LwIP/src/core\mem.c **** /*
  24:c:/Users/Black_Life/STM32Cube/Repository/STM32Cube_FW_F4_V1.26.2/Middlewares/Third_Party/LwIP/src/core\mem.c ****  * Copyright (c) 2001-2004 Swedish Institute of Computer Science.
  25:c:/Users/Black_Life/STM32Cube/Repository/STM32Cube_FW_F4_V1.26.2/Middlewares/Third_Party/LwIP/src/core\mem.c ****  * All rights reserved.
  26:c:/Users/Black_Life/STM32Cube/Repository/STM32Cube_FW_F4_V1.26.2/Middlewares/Third_Party/LwIP/src/core\mem.c ****  *
  27:c:/Users/Black_Life/STM32Cube/Repository/STM32Cube_FW_F4_V1.26.2/Middlewares/Third_Party/LwIP/src/core\mem.c ****  * Redistribution and use in source and binary forms, with or without modification,
  28:c:/Users/Black_Life/STM32Cube/Repository/STM32Cube_FW_F4_V1.26.2/Middlewares/Third_Party/LwIP/src/core\mem.c ****  * are permitted provided that the following conditions are met:
  29:c:/Users/Black_Life/STM32Cube/Repository/STM32Cube_FW_F4_V1.26.2/Middlewares/Third_Party/LwIP/src/core\mem.c ****  *
  30:c:/Users/Black_Life/STM32Cube/Repository/STM32Cube_FW_F4_V1.26.2/Middlewares/Third_Party/LwIP/src/core\mem.c ****  * 1. Redistributions of source code must retain the above copyright notice,
ARM GAS  C:\Users\BLACK_~1\AppData\Local\Temp\ccnOKFK8.s 			page 2


  31:c:/Users/Black_Life/STM32Cube/Repository/STM32Cube_FW_F4_V1.26.2/Middlewares/Third_Party/LwIP/src/core\mem.c ****  *    this list of conditions and the following disclaimer.
  32:c:/Users/Black_Life/STM32Cube/Repository/STM32Cube_FW_F4_V1.26.2/Middlewares/Third_Party/LwIP/src/core\mem.c ****  * 2. Redistributions in binary form must reproduce the above copyright notice,
  33:c:/Users/Black_Life/STM32Cube/Repository/STM32Cube_FW_F4_V1.26.2/Middlewares/Third_Party/LwIP/src/core\mem.c ****  *    this list of conditions and the following disclaimer in the documentation
  34:c:/Users/Black_Life/STM32Cube/Repository/STM32Cube_FW_F4_V1.26.2/Middlewares/Third_Party/LwIP/src/core\mem.c ****  *    and/or other materials provided with the distribution.
  35:c:/Users/Black_Life/STM32Cube/Repository/STM32Cube_FW_F4_V1.26.2/Middlewares/Third_Party/LwIP/src/core\mem.c ****  * 3. The name of the author may not be used to endorse or promote products
  36:c:/Users/Black_Life/STM32Cube/Repository/STM32Cube_FW_F4_V1.26.2/Middlewares/Third_Party/LwIP/src/core\mem.c ****  *    derived from this software without specific prior written permission.
  37:c:/Users/Black_Life/STM32Cube/Repository/STM32Cube_FW_F4_V1.26.2/Middlewares/Third_Party/LwIP/src/core\mem.c ****  *
  38:c:/Users/Black_Life/STM32Cube/Repository/STM32Cube_FW_F4_V1.26.2/Middlewares/Third_Party/LwIP/src/core\mem.c ****  * THIS SOFTWARE IS PROVIDED BY THE AUTHOR ``AS IS'' AND ANY EXPRESS OR IMPLIED
  39:c:/Users/Black_Life/STM32Cube/Repository/STM32Cube_FW_F4_V1.26.2/Middlewares/Third_Party/LwIP/src/core\mem.c ****  * WARRANTIES, INCLUDING, BUT NOT LIMITED TO, THE IMPLIED WARRANTIES OF
  40:c:/Users/Black_Life/STM32Cube/Repository/STM32Cube_FW_F4_V1.26.2/Middlewares/Third_Party/LwIP/src/core\mem.c ****  * MERCHANTABILITY AND FITNESS FOR A PARTICULAR PURPOSE ARE DISCLAIMED. IN NO EVENT
  41:c:/Users/Black_Life/STM32Cube/Repository/STM32Cube_FW_F4_V1.26.2/Middlewares/Third_Party/LwIP/src/core\mem.c ****  * SHALL THE AUTHOR BE LIABLE FOR ANY DIRECT, INDIRECT, INCIDENTAL, SPECIAL,
  42:c:/Users/Black_Life/STM32Cube/Repository/STM32Cube_FW_F4_V1.26.2/Middlewares/Third_Party/LwIP/src/core\mem.c ****  * EXEMPLARY, OR CONSEQUENTIAL DAMAGES (INCLUDING, BUT NOT LIMITED TO, PROCUREMENT
  43:c:/Users/Black_Life/STM32Cube/Repository/STM32Cube_FW_F4_V1.26.2/Middlewares/Third_Party/LwIP/src/core\mem.c ****  * OF SUBSTITUTE GOODS OR SERVICES; LOSS OF USE, DATA, OR PROFITS; OR BUSINESS
  44:c:/Users/Black_Life/STM32Cube/Repository/STM32Cube_FW_F4_V1.26.2/Middlewares/Third_Party/LwIP/src/core\mem.c ****  * INTERRUPTION) HOWEVER CAUSED AND ON ANY THEORY OF LIABILITY, WHETHER IN
  45:c:/Users/Black_Life/STM32Cube/Repository/STM32Cube_FW_F4_V1.26.2/Middlewares/Third_Party/LwIP/src/core\mem.c ****  * CONTRACT, STRICT LIABILITY, OR TORT (INCLUDING NEGLIGENCE OR OTHERWISE) ARISING
  46:c:/Users/Black_Life/STM32Cube/Repository/STM32Cube_FW_F4_V1.26.2/Middlewares/Third_Party/LwIP/src/core\mem.c ****  * IN ANY WAY OUT OF THE USE OF THIS SOFTWARE, EVEN IF ADVISED OF THE POSSIBILITY
  47:c:/Users/Black_Life/STM32Cube/Repository/STM32Cube_FW_F4_V1.26.2/Middlewares/Third_Party/LwIP/src/core\mem.c ****  * OF SUCH DAMAGE.
  48:c:/Users/Black_Life/STM32Cube/Repository/STM32Cube_FW_F4_V1.26.2/Middlewares/Third_Party/LwIP/src/core\mem.c ****  *
  49:c:/Users/Black_Life/STM32Cube/Repository/STM32Cube_FW_F4_V1.26.2/Middlewares/Third_Party/LwIP/src/core\mem.c ****  * This file is part of the lwIP TCP/IP stack.
  50:c:/Users/Black_Life/STM32Cube/Repository/STM32Cube_FW_F4_V1.26.2/Middlewares/Third_Party/LwIP/src/core\mem.c ****  *
  51:c:/Users/Black_Life/STM32Cube/Repository/STM32Cube_FW_F4_V1.26.2/Middlewares/Third_Party/LwIP/src/core\mem.c ****  * Author: Adam Dunkels <adam@sics.se>
  52:c:/Users/Black_Life/STM32Cube/Repository/STM32Cube_FW_F4_V1.26.2/Middlewares/Third_Party/LwIP/src/core\mem.c ****  *         Simon Goldschmidt
  53:c:/Users/Black_Life/STM32Cube/Repository/STM32Cube_FW_F4_V1.26.2/Middlewares/Third_Party/LwIP/src/core\mem.c ****  *
  54:c:/Users/Black_Life/STM32Cube/Repository/STM32Cube_FW_F4_V1.26.2/Middlewares/Third_Party/LwIP/src/core\mem.c ****  */
  55:c:/Users/Black_Life/STM32Cube/Repository/STM32Cube_FW_F4_V1.26.2/Middlewares/Third_Party/LwIP/src/core\mem.c **** 
  56:c:/Users/Black_Life/STM32Cube/Repository/STM32Cube_FW_F4_V1.26.2/Middlewares/Third_Party/LwIP/src/core\mem.c **** #include "lwip/opt.h"
  57:c:/Users/Black_Life/STM32Cube/Repository/STM32Cube_FW_F4_V1.26.2/Middlewares/Third_Party/LwIP/src/core\mem.c **** #include "lwip/mem.h"
  58:c:/Users/Black_Life/STM32Cube/Repository/STM32Cube_FW_F4_V1.26.2/Middlewares/Third_Party/LwIP/src/core\mem.c **** #include "lwip/def.h"
  59:c:/Users/Black_Life/STM32Cube/Repository/STM32Cube_FW_F4_V1.26.2/Middlewares/Third_Party/LwIP/src/core\mem.c **** #include "lwip/sys.h"
  60:c:/Users/Black_Life/STM32Cube/Repository/STM32Cube_FW_F4_V1.26.2/Middlewares/Third_Party/LwIP/src/core\mem.c **** #include "lwip/stats.h"
  61:c:/Users/Black_Life/STM32Cube/Repository/STM32Cube_FW_F4_V1.26.2/Middlewares/Third_Party/LwIP/src/core\mem.c **** #include "lwip/err.h"
  62:c:/Users/Black_Life/STM32Cube/Repository/STM32Cube_FW_F4_V1.26.2/Middlewares/Third_Party/LwIP/src/core\mem.c **** 
  63:c:/Users/Black_Life/STM32Cube/Repository/STM32Cube_FW_F4_V1.26.2/Middlewares/Third_Party/LwIP/src/core\mem.c **** #include <string.h>
  64:c:/Users/Black_Life/STM32Cube/Repository/STM32Cube_FW_F4_V1.26.2/Middlewares/Third_Party/LwIP/src/core\mem.c **** 
  65:c:/Users/Black_Life/STM32Cube/Repository/STM32Cube_FW_F4_V1.26.2/Middlewares/Third_Party/LwIP/src/core\mem.c **** #if MEM_LIBC_MALLOC
  66:c:/Users/Black_Life/STM32Cube/Repository/STM32Cube_FW_F4_V1.26.2/Middlewares/Third_Party/LwIP/src/core\mem.c **** #include <stdlib.h> /* for malloc()/free() */
  67:c:/Users/Black_Life/STM32Cube/Repository/STM32Cube_FW_F4_V1.26.2/Middlewares/Third_Party/LwIP/src/core\mem.c **** #endif
  68:c:/Users/Black_Life/STM32Cube/Repository/STM32Cube_FW_F4_V1.26.2/Middlewares/Third_Party/LwIP/src/core\mem.c **** 
  69:c:/Users/Black_Life/STM32Cube/Repository/STM32Cube_FW_F4_V1.26.2/Middlewares/Third_Party/LwIP/src/core\mem.c **** /* This is overridable for tests only... */
  70:c:/Users/Black_Life/STM32Cube/Repository/STM32Cube_FW_F4_V1.26.2/Middlewares/Third_Party/LwIP/src/core\mem.c **** #ifndef LWIP_MEM_ILLEGAL_FREE
  71:c:/Users/Black_Life/STM32Cube/Repository/STM32Cube_FW_F4_V1.26.2/Middlewares/Third_Party/LwIP/src/core\mem.c **** #define LWIP_MEM_ILLEGAL_FREE(msg)         LWIP_ASSERT(msg, 0)
  72:c:/Users/Black_Life/STM32Cube/Repository/STM32Cube_FW_F4_V1.26.2/Middlewares/Third_Party/LwIP/src/core\mem.c **** #endif
  73:c:/Users/Black_Life/STM32Cube/Repository/STM32Cube_FW_F4_V1.26.2/Middlewares/Third_Party/LwIP/src/core\mem.c **** 
  74:c:/Users/Black_Life/STM32Cube/Repository/STM32Cube_FW_F4_V1.26.2/Middlewares/Third_Party/LwIP/src/core\mem.c **** #define MEM_STATS_INC_LOCKED(x)         SYS_ARCH_LOCKED(MEM_STATS_INC(x))
  75:c:/Users/Black_Life/STM32Cube/Repository/STM32Cube_FW_F4_V1.26.2/Middlewares/Third_Party/LwIP/src/core\mem.c **** #define MEM_STATS_INC_USED_LOCKED(x, y) SYS_ARCH_LOCKED(MEM_STATS_INC_USED(x, y))
  76:c:/Users/Black_Life/STM32Cube/Repository/STM32Cube_FW_F4_V1.26.2/Middlewares/Third_Party/LwIP/src/core\mem.c **** #define MEM_STATS_DEC_USED_LOCKED(x, y) SYS_ARCH_LOCKED(MEM_STATS_DEC_USED(x, y))
  77:c:/Users/Black_Life/STM32Cube/Repository/STM32Cube_FW_F4_V1.26.2/Middlewares/Third_Party/LwIP/src/core\mem.c **** 
  78:c:/Users/Black_Life/STM32Cube/Repository/STM32Cube_FW_F4_V1.26.2/Middlewares/Third_Party/LwIP/src/core\mem.c **** #if MEM_OVERFLOW_CHECK
  79:c:/Users/Black_Life/STM32Cube/Repository/STM32Cube_FW_F4_V1.26.2/Middlewares/Third_Party/LwIP/src/core\mem.c **** #define MEM_SANITY_OFFSET   MEM_SANITY_REGION_BEFORE_ALIGNED
  80:c:/Users/Black_Life/STM32Cube/Repository/STM32Cube_FW_F4_V1.26.2/Middlewares/Third_Party/LwIP/src/core\mem.c **** #define MEM_SANITY_OVERHEAD (MEM_SANITY_REGION_BEFORE_ALIGNED + MEM_SANITY_REGION_AFTER_ALIGNED)
  81:c:/Users/Black_Life/STM32Cube/Repository/STM32Cube_FW_F4_V1.26.2/Middlewares/Third_Party/LwIP/src/core\mem.c **** #else
  82:c:/Users/Black_Life/STM32Cube/Repository/STM32Cube_FW_F4_V1.26.2/Middlewares/Third_Party/LwIP/src/core\mem.c **** #define MEM_SANITY_OFFSET   0
  83:c:/Users/Black_Life/STM32Cube/Repository/STM32Cube_FW_F4_V1.26.2/Middlewares/Third_Party/LwIP/src/core\mem.c **** #define MEM_SANITY_OVERHEAD 0
  84:c:/Users/Black_Life/STM32Cube/Repository/STM32Cube_FW_F4_V1.26.2/Middlewares/Third_Party/LwIP/src/core\mem.c **** #endif
  85:c:/Users/Black_Life/STM32Cube/Repository/STM32Cube_FW_F4_V1.26.2/Middlewares/Third_Party/LwIP/src/core\mem.c **** 
  86:c:/Users/Black_Life/STM32Cube/Repository/STM32Cube_FW_F4_V1.26.2/Middlewares/Third_Party/LwIP/src/core\mem.c **** #if MEM_OVERFLOW_CHECK || MEMP_OVERFLOW_CHECK
  87:c:/Users/Black_Life/STM32Cube/Repository/STM32Cube_FW_F4_V1.26.2/Middlewares/Third_Party/LwIP/src/core\mem.c **** /**
ARM GAS  C:\Users\BLACK_~1\AppData\Local\Temp\ccnOKFK8.s 			page 3


  88:c:/Users/Black_Life/STM32Cube/Repository/STM32Cube_FW_F4_V1.26.2/Middlewares/Third_Party/LwIP/src/core\mem.c ****  * Check if a mep element was victim of an overflow or underflow
  89:c:/Users/Black_Life/STM32Cube/Repository/STM32Cube_FW_F4_V1.26.2/Middlewares/Third_Party/LwIP/src/core\mem.c ****  * (e.g. the restricted area after/before it has been altered)
  90:c:/Users/Black_Life/STM32Cube/Repository/STM32Cube_FW_F4_V1.26.2/Middlewares/Third_Party/LwIP/src/core\mem.c ****  *
  91:c:/Users/Black_Life/STM32Cube/Repository/STM32Cube_FW_F4_V1.26.2/Middlewares/Third_Party/LwIP/src/core\mem.c ****  * @param p the mem element to check
  92:c:/Users/Black_Life/STM32Cube/Repository/STM32Cube_FW_F4_V1.26.2/Middlewares/Third_Party/LwIP/src/core\mem.c ****  * @param size allocated size of the element
  93:c:/Users/Black_Life/STM32Cube/Repository/STM32Cube_FW_F4_V1.26.2/Middlewares/Third_Party/LwIP/src/core\mem.c ****  * @param descr1 description of the element source shown on error
  94:c:/Users/Black_Life/STM32Cube/Repository/STM32Cube_FW_F4_V1.26.2/Middlewares/Third_Party/LwIP/src/core\mem.c ****  * @param descr2 description of the element source shown on error
  95:c:/Users/Black_Life/STM32Cube/Repository/STM32Cube_FW_F4_V1.26.2/Middlewares/Third_Party/LwIP/src/core\mem.c ****  */
  96:c:/Users/Black_Life/STM32Cube/Repository/STM32Cube_FW_F4_V1.26.2/Middlewares/Third_Party/LwIP/src/core\mem.c **** void
  97:c:/Users/Black_Life/STM32Cube/Repository/STM32Cube_FW_F4_V1.26.2/Middlewares/Third_Party/LwIP/src/core\mem.c **** mem_overflow_check_raw(void *p, size_t size, const char *descr1, const char *descr2)
  98:c:/Users/Black_Life/STM32Cube/Repository/STM32Cube_FW_F4_V1.26.2/Middlewares/Third_Party/LwIP/src/core\mem.c **** {
  99:c:/Users/Black_Life/STM32Cube/Repository/STM32Cube_FW_F4_V1.26.2/Middlewares/Third_Party/LwIP/src/core\mem.c **** #if MEM_SANITY_REGION_AFTER_ALIGNED || MEM_SANITY_REGION_BEFORE_ALIGNED
 100:c:/Users/Black_Life/STM32Cube/Repository/STM32Cube_FW_F4_V1.26.2/Middlewares/Third_Party/LwIP/src/core\mem.c ****   u16_t k;
 101:c:/Users/Black_Life/STM32Cube/Repository/STM32Cube_FW_F4_V1.26.2/Middlewares/Third_Party/LwIP/src/core\mem.c ****   u8_t *m;
 102:c:/Users/Black_Life/STM32Cube/Repository/STM32Cube_FW_F4_V1.26.2/Middlewares/Third_Party/LwIP/src/core\mem.c **** 
 103:c:/Users/Black_Life/STM32Cube/Repository/STM32Cube_FW_F4_V1.26.2/Middlewares/Third_Party/LwIP/src/core\mem.c **** #if MEM_SANITY_REGION_AFTER_ALIGNED > 0
 104:c:/Users/Black_Life/STM32Cube/Repository/STM32Cube_FW_F4_V1.26.2/Middlewares/Third_Party/LwIP/src/core\mem.c ****   m = (u8_t *)p + size;
 105:c:/Users/Black_Life/STM32Cube/Repository/STM32Cube_FW_F4_V1.26.2/Middlewares/Third_Party/LwIP/src/core\mem.c ****   for (k = 0; k < MEM_SANITY_REGION_AFTER_ALIGNED; k++) {
 106:c:/Users/Black_Life/STM32Cube/Repository/STM32Cube_FW_F4_V1.26.2/Middlewares/Third_Party/LwIP/src/core\mem.c ****     if (m[k] != 0xcd) {
 107:c:/Users/Black_Life/STM32Cube/Repository/STM32Cube_FW_F4_V1.26.2/Middlewares/Third_Party/LwIP/src/core\mem.c ****       char errstr[128];
 108:c:/Users/Black_Life/STM32Cube/Repository/STM32Cube_FW_F4_V1.26.2/Middlewares/Third_Party/LwIP/src/core\mem.c ****       snprintf(errstr, sizeof(errstr), "detected mem overflow in %s%s", descr1, descr2);
 109:c:/Users/Black_Life/STM32Cube/Repository/STM32Cube_FW_F4_V1.26.2/Middlewares/Third_Party/LwIP/src/core\mem.c ****       LWIP_ASSERT(errstr, 0);
 110:c:/Users/Black_Life/STM32Cube/Repository/STM32Cube_FW_F4_V1.26.2/Middlewares/Third_Party/LwIP/src/core\mem.c ****     }
 111:c:/Users/Black_Life/STM32Cube/Repository/STM32Cube_FW_F4_V1.26.2/Middlewares/Third_Party/LwIP/src/core\mem.c ****   }
 112:c:/Users/Black_Life/STM32Cube/Repository/STM32Cube_FW_F4_V1.26.2/Middlewares/Third_Party/LwIP/src/core\mem.c **** #endif /* MEM_SANITY_REGION_AFTER_ALIGNED > 0 */
 113:c:/Users/Black_Life/STM32Cube/Repository/STM32Cube_FW_F4_V1.26.2/Middlewares/Third_Party/LwIP/src/core\mem.c **** 
 114:c:/Users/Black_Life/STM32Cube/Repository/STM32Cube_FW_F4_V1.26.2/Middlewares/Third_Party/LwIP/src/core\mem.c **** #if MEM_SANITY_REGION_BEFORE_ALIGNED > 0
 115:c:/Users/Black_Life/STM32Cube/Repository/STM32Cube_FW_F4_V1.26.2/Middlewares/Third_Party/LwIP/src/core\mem.c ****   m = (u8_t *)p - MEM_SANITY_REGION_BEFORE_ALIGNED;
 116:c:/Users/Black_Life/STM32Cube/Repository/STM32Cube_FW_F4_V1.26.2/Middlewares/Third_Party/LwIP/src/core\mem.c ****   for (k = 0; k < MEM_SANITY_REGION_BEFORE_ALIGNED; k++) {
 117:c:/Users/Black_Life/STM32Cube/Repository/STM32Cube_FW_F4_V1.26.2/Middlewares/Third_Party/LwIP/src/core\mem.c ****     if (m[k] != 0xcd) {
 118:c:/Users/Black_Life/STM32Cube/Repository/STM32Cube_FW_F4_V1.26.2/Middlewares/Third_Party/LwIP/src/core\mem.c ****       char errstr[128];
 119:c:/Users/Black_Life/STM32Cube/Repository/STM32Cube_FW_F4_V1.26.2/Middlewares/Third_Party/LwIP/src/core\mem.c ****       snprintf(errstr, sizeof(errstr), "detected mem underflow in %s%s", descr1, descr2);
 120:c:/Users/Black_Life/STM32Cube/Repository/STM32Cube_FW_F4_V1.26.2/Middlewares/Third_Party/LwIP/src/core\mem.c ****       LWIP_ASSERT(errstr, 0);
 121:c:/Users/Black_Life/STM32Cube/Repository/STM32Cube_FW_F4_V1.26.2/Middlewares/Third_Party/LwIP/src/core\mem.c ****     }
 122:c:/Users/Black_Life/STM32Cube/Repository/STM32Cube_FW_F4_V1.26.2/Middlewares/Third_Party/LwIP/src/core\mem.c ****   }
 123:c:/Users/Black_Life/STM32Cube/Repository/STM32Cube_FW_F4_V1.26.2/Middlewares/Third_Party/LwIP/src/core\mem.c **** #endif /* MEM_SANITY_REGION_BEFORE_ALIGNED > 0 */
 124:c:/Users/Black_Life/STM32Cube/Repository/STM32Cube_FW_F4_V1.26.2/Middlewares/Third_Party/LwIP/src/core\mem.c **** #else
 125:c:/Users/Black_Life/STM32Cube/Repository/STM32Cube_FW_F4_V1.26.2/Middlewares/Third_Party/LwIP/src/core\mem.c ****   LWIP_UNUSED_ARG(p);
 126:c:/Users/Black_Life/STM32Cube/Repository/STM32Cube_FW_F4_V1.26.2/Middlewares/Third_Party/LwIP/src/core\mem.c ****   LWIP_UNUSED_ARG(desc);
 127:c:/Users/Black_Life/STM32Cube/Repository/STM32Cube_FW_F4_V1.26.2/Middlewares/Third_Party/LwIP/src/core\mem.c ****   LWIP_UNUSED_ARG(descr);
 128:c:/Users/Black_Life/STM32Cube/Repository/STM32Cube_FW_F4_V1.26.2/Middlewares/Third_Party/LwIP/src/core\mem.c **** #endif
 129:c:/Users/Black_Life/STM32Cube/Repository/STM32Cube_FW_F4_V1.26.2/Middlewares/Third_Party/LwIP/src/core\mem.c **** }
 130:c:/Users/Black_Life/STM32Cube/Repository/STM32Cube_FW_F4_V1.26.2/Middlewares/Third_Party/LwIP/src/core\mem.c **** 
 131:c:/Users/Black_Life/STM32Cube/Repository/STM32Cube_FW_F4_V1.26.2/Middlewares/Third_Party/LwIP/src/core\mem.c **** /**
 132:c:/Users/Black_Life/STM32Cube/Repository/STM32Cube_FW_F4_V1.26.2/Middlewares/Third_Party/LwIP/src/core\mem.c ****  * Initialize the restricted area of a mem element.
 133:c:/Users/Black_Life/STM32Cube/Repository/STM32Cube_FW_F4_V1.26.2/Middlewares/Third_Party/LwIP/src/core\mem.c ****  */
 134:c:/Users/Black_Life/STM32Cube/Repository/STM32Cube_FW_F4_V1.26.2/Middlewares/Third_Party/LwIP/src/core\mem.c **** void
 135:c:/Users/Black_Life/STM32Cube/Repository/STM32Cube_FW_F4_V1.26.2/Middlewares/Third_Party/LwIP/src/core\mem.c **** mem_overflow_init_raw(void *p, size_t size)
 136:c:/Users/Black_Life/STM32Cube/Repository/STM32Cube_FW_F4_V1.26.2/Middlewares/Third_Party/LwIP/src/core\mem.c **** {
 137:c:/Users/Black_Life/STM32Cube/Repository/STM32Cube_FW_F4_V1.26.2/Middlewares/Third_Party/LwIP/src/core\mem.c **** #if MEM_SANITY_REGION_BEFORE_ALIGNED > 0 || MEM_SANITY_REGION_AFTER_ALIGNED > 0
 138:c:/Users/Black_Life/STM32Cube/Repository/STM32Cube_FW_F4_V1.26.2/Middlewares/Third_Party/LwIP/src/core\mem.c ****   u8_t *m;
 139:c:/Users/Black_Life/STM32Cube/Repository/STM32Cube_FW_F4_V1.26.2/Middlewares/Third_Party/LwIP/src/core\mem.c **** #if MEM_SANITY_REGION_BEFORE_ALIGNED > 0
 140:c:/Users/Black_Life/STM32Cube/Repository/STM32Cube_FW_F4_V1.26.2/Middlewares/Third_Party/LwIP/src/core\mem.c ****   m = (u8_t *)p - MEM_SANITY_REGION_BEFORE_ALIGNED;
 141:c:/Users/Black_Life/STM32Cube/Repository/STM32Cube_FW_F4_V1.26.2/Middlewares/Third_Party/LwIP/src/core\mem.c ****   memset(m, 0xcd, MEM_SANITY_REGION_BEFORE_ALIGNED);
 142:c:/Users/Black_Life/STM32Cube/Repository/STM32Cube_FW_F4_V1.26.2/Middlewares/Third_Party/LwIP/src/core\mem.c **** #endif
 143:c:/Users/Black_Life/STM32Cube/Repository/STM32Cube_FW_F4_V1.26.2/Middlewares/Third_Party/LwIP/src/core\mem.c **** #if MEM_SANITY_REGION_AFTER_ALIGNED > 0
 144:c:/Users/Black_Life/STM32Cube/Repository/STM32Cube_FW_F4_V1.26.2/Middlewares/Third_Party/LwIP/src/core\mem.c ****   m = (u8_t *)p + size;
ARM GAS  C:\Users\BLACK_~1\AppData\Local\Temp\ccnOKFK8.s 			page 4


 145:c:/Users/Black_Life/STM32Cube/Repository/STM32Cube_FW_F4_V1.26.2/Middlewares/Third_Party/LwIP/src/core\mem.c ****   memset(m, 0xcd, MEM_SANITY_REGION_AFTER_ALIGNED);
 146:c:/Users/Black_Life/STM32Cube/Repository/STM32Cube_FW_F4_V1.26.2/Middlewares/Third_Party/LwIP/src/core\mem.c **** #endif
 147:c:/Users/Black_Life/STM32Cube/Repository/STM32Cube_FW_F4_V1.26.2/Middlewares/Third_Party/LwIP/src/core\mem.c **** #else /* MEM_SANITY_REGION_BEFORE_ALIGNED > 0 || MEM_SANITY_REGION_AFTER_ALIGNED > 0 */
 148:c:/Users/Black_Life/STM32Cube/Repository/STM32Cube_FW_F4_V1.26.2/Middlewares/Third_Party/LwIP/src/core\mem.c ****   LWIP_UNUSED_ARG(p);
 149:c:/Users/Black_Life/STM32Cube/Repository/STM32Cube_FW_F4_V1.26.2/Middlewares/Third_Party/LwIP/src/core\mem.c ****   LWIP_UNUSED_ARG(desc);
 150:c:/Users/Black_Life/STM32Cube/Repository/STM32Cube_FW_F4_V1.26.2/Middlewares/Third_Party/LwIP/src/core\mem.c **** #endif /* MEM_SANITY_REGION_BEFORE_ALIGNED > 0 || MEM_SANITY_REGION_AFTER_ALIGNED > 0 */
 151:c:/Users/Black_Life/STM32Cube/Repository/STM32Cube_FW_F4_V1.26.2/Middlewares/Third_Party/LwIP/src/core\mem.c **** }
 152:c:/Users/Black_Life/STM32Cube/Repository/STM32Cube_FW_F4_V1.26.2/Middlewares/Third_Party/LwIP/src/core\mem.c **** #endif /* MEM_OVERFLOW_CHECK || MEMP_OVERFLOW_CHECK */
 153:c:/Users/Black_Life/STM32Cube/Repository/STM32Cube_FW_F4_V1.26.2/Middlewares/Third_Party/LwIP/src/core\mem.c **** 
 154:c:/Users/Black_Life/STM32Cube/Repository/STM32Cube_FW_F4_V1.26.2/Middlewares/Third_Party/LwIP/src/core\mem.c **** #if MEM_LIBC_MALLOC || MEM_USE_POOLS
 155:c:/Users/Black_Life/STM32Cube/Repository/STM32Cube_FW_F4_V1.26.2/Middlewares/Third_Party/LwIP/src/core\mem.c **** 
 156:c:/Users/Black_Life/STM32Cube/Repository/STM32Cube_FW_F4_V1.26.2/Middlewares/Third_Party/LwIP/src/core\mem.c **** /** mem_init is not used when using pools instead of a heap or using
 157:c:/Users/Black_Life/STM32Cube/Repository/STM32Cube_FW_F4_V1.26.2/Middlewares/Third_Party/LwIP/src/core\mem.c ****  * C library malloc().
 158:c:/Users/Black_Life/STM32Cube/Repository/STM32Cube_FW_F4_V1.26.2/Middlewares/Third_Party/LwIP/src/core\mem.c ****  */
 159:c:/Users/Black_Life/STM32Cube/Repository/STM32Cube_FW_F4_V1.26.2/Middlewares/Third_Party/LwIP/src/core\mem.c **** void
 160:c:/Users/Black_Life/STM32Cube/Repository/STM32Cube_FW_F4_V1.26.2/Middlewares/Third_Party/LwIP/src/core\mem.c **** mem_init(void)
 161:c:/Users/Black_Life/STM32Cube/Repository/STM32Cube_FW_F4_V1.26.2/Middlewares/Third_Party/LwIP/src/core\mem.c **** {
 162:c:/Users/Black_Life/STM32Cube/Repository/STM32Cube_FW_F4_V1.26.2/Middlewares/Third_Party/LwIP/src/core\mem.c **** }
 163:c:/Users/Black_Life/STM32Cube/Repository/STM32Cube_FW_F4_V1.26.2/Middlewares/Third_Party/LwIP/src/core\mem.c **** 
 164:c:/Users/Black_Life/STM32Cube/Repository/STM32Cube_FW_F4_V1.26.2/Middlewares/Third_Party/LwIP/src/core\mem.c **** /** mem_trim is not used when using pools instead of a heap or using
 165:c:/Users/Black_Life/STM32Cube/Repository/STM32Cube_FW_F4_V1.26.2/Middlewares/Third_Party/LwIP/src/core\mem.c ****  * C library malloc(): we can't free part of a pool element and the stack
 166:c:/Users/Black_Life/STM32Cube/Repository/STM32Cube_FW_F4_V1.26.2/Middlewares/Third_Party/LwIP/src/core\mem.c ****  * support mem_trim() to return a different pointer
 167:c:/Users/Black_Life/STM32Cube/Repository/STM32Cube_FW_F4_V1.26.2/Middlewares/Third_Party/LwIP/src/core\mem.c ****  */
 168:c:/Users/Black_Life/STM32Cube/Repository/STM32Cube_FW_F4_V1.26.2/Middlewares/Third_Party/LwIP/src/core\mem.c **** void *
 169:c:/Users/Black_Life/STM32Cube/Repository/STM32Cube_FW_F4_V1.26.2/Middlewares/Third_Party/LwIP/src/core\mem.c **** mem_trim(void *mem, mem_size_t size)
 170:c:/Users/Black_Life/STM32Cube/Repository/STM32Cube_FW_F4_V1.26.2/Middlewares/Third_Party/LwIP/src/core\mem.c **** {
 171:c:/Users/Black_Life/STM32Cube/Repository/STM32Cube_FW_F4_V1.26.2/Middlewares/Third_Party/LwIP/src/core\mem.c ****   LWIP_UNUSED_ARG(size);
 172:c:/Users/Black_Life/STM32Cube/Repository/STM32Cube_FW_F4_V1.26.2/Middlewares/Third_Party/LwIP/src/core\mem.c ****   return mem;
 173:c:/Users/Black_Life/STM32Cube/Repository/STM32Cube_FW_F4_V1.26.2/Middlewares/Third_Party/LwIP/src/core\mem.c **** }
 174:c:/Users/Black_Life/STM32Cube/Repository/STM32Cube_FW_F4_V1.26.2/Middlewares/Third_Party/LwIP/src/core\mem.c **** #endif /* MEM_LIBC_MALLOC || MEM_USE_POOLS */
 175:c:/Users/Black_Life/STM32Cube/Repository/STM32Cube_FW_F4_V1.26.2/Middlewares/Third_Party/LwIP/src/core\mem.c **** 
 176:c:/Users/Black_Life/STM32Cube/Repository/STM32Cube_FW_F4_V1.26.2/Middlewares/Third_Party/LwIP/src/core\mem.c **** #if MEM_LIBC_MALLOC
 177:c:/Users/Black_Life/STM32Cube/Repository/STM32Cube_FW_F4_V1.26.2/Middlewares/Third_Party/LwIP/src/core\mem.c **** /* lwIP heap implemented using C library malloc() */
 178:c:/Users/Black_Life/STM32Cube/Repository/STM32Cube_FW_F4_V1.26.2/Middlewares/Third_Party/LwIP/src/core\mem.c **** 
 179:c:/Users/Black_Life/STM32Cube/Repository/STM32Cube_FW_F4_V1.26.2/Middlewares/Third_Party/LwIP/src/core\mem.c **** /* in case C library malloc() needs extra protection,
 180:c:/Users/Black_Life/STM32Cube/Repository/STM32Cube_FW_F4_V1.26.2/Middlewares/Third_Party/LwIP/src/core\mem.c ****  * allow these defines to be overridden.
 181:c:/Users/Black_Life/STM32Cube/Repository/STM32Cube_FW_F4_V1.26.2/Middlewares/Third_Party/LwIP/src/core\mem.c ****  */
 182:c:/Users/Black_Life/STM32Cube/Repository/STM32Cube_FW_F4_V1.26.2/Middlewares/Third_Party/LwIP/src/core\mem.c **** #ifndef mem_clib_free
 183:c:/Users/Black_Life/STM32Cube/Repository/STM32Cube_FW_F4_V1.26.2/Middlewares/Third_Party/LwIP/src/core\mem.c **** #define mem_clib_free free
 184:c:/Users/Black_Life/STM32Cube/Repository/STM32Cube_FW_F4_V1.26.2/Middlewares/Third_Party/LwIP/src/core\mem.c **** #endif
 185:c:/Users/Black_Life/STM32Cube/Repository/STM32Cube_FW_F4_V1.26.2/Middlewares/Third_Party/LwIP/src/core\mem.c **** #ifndef mem_clib_malloc
 186:c:/Users/Black_Life/STM32Cube/Repository/STM32Cube_FW_F4_V1.26.2/Middlewares/Third_Party/LwIP/src/core\mem.c **** #define mem_clib_malloc malloc
 187:c:/Users/Black_Life/STM32Cube/Repository/STM32Cube_FW_F4_V1.26.2/Middlewares/Third_Party/LwIP/src/core\mem.c **** #endif
 188:c:/Users/Black_Life/STM32Cube/Repository/STM32Cube_FW_F4_V1.26.2/Middlewares/Third_Party/LwIP/src/core\mem.c **** #ifndef mem_clib_calloc
 189:c:/Users/Black_Life/STM32Cube/Repository/STM32Cube_FW_F4_V1.26.2/Middlewares/Third_Party/LwIP/src/core\mem.c **** #define mem_clib_calloc calloc
 190:c:/Users/Black_Life/STM32Cube/Repository/STM32Cube_FW_F4_V1.26.2/Middlewares/Third_Party/LwIP/src/core\mem.c **** #endif
 191:c:/Users/Black_Life/STM32Cube/Repository/STM32Cube_FW_F4_V1.26.2/Middlewares/Third_Party/LwIP/src/core\mem.c **** 
 192:c:/Users/Black_Life/STM32Cube/Repository/STM32Cube_FW_F4_V1.26.2/Middlewares/Third_Party/LwIP/src/core\mem.c **** #if LWIP_STATS && MEM_STATS
 193:c:/Users/Black_Life/STM32Cube/Repository/STM32Cube_FW_F4_V1.26.2/Middlewares/Third_Party/LwIP/src/core\mem.c **** #define MEM_LIBC_STATSHELPER_SIZE LWIP_MEM_ALIGN_SIZE(sizeof(mem_size_t))
 194:c:/Users/Black_Life/STM32Cube/Repository/STM32Cube_FW_F4_V1.26.2/Middlewares/Third_Party/LwIP/src/core\mem.c **** #else
 195:c:/Users/Black_Life/STM32Cube/Repository/STM32Cube_FW_F4_V1.26.2/Middlewares/Third_Party/LwIP/src/core\mem.c **** #define MEM_LIBC_STATSHELPER_SIZE 0
 196:c:/Users/Black_Life/STM32Cube/Repository/STM32Cube_FW_F4_V1.26.2/Middlewares/Third_Party/LwIP/src/core\mem.c **** #endif
 197:c:/Users/Black_Life/STM32Cube/Repository/STM32Cube_FW_F4_V1.26.2/Middlewares/Third_Party/LwIP/src/core\mem.c **** 
 198:c:/Users/Black_Life/STM32Cube/Repository/STM32Cube_FW_F4_V1.26.2/Middlewares/Third_Party/LwIP/src/core\mem.c **** /**
 199:c:/Users/Black_Life/STM32Cube/Repository/STM32Cube_FW_F4_V1.26.2/Middlewares/Third_Party/LwIP/src/core\mem.c ****  * Allocate a block of memory with a minimum of 'size' bytes.
 200:c:/Users/Black_Life/STM32Cube/Repository/STM32Cube_FW_F4_V1.26.2/Middlewares/Third_Party/LwIP/src/core\mem.c ****  *
 201:c:/Users/Black_Life/STM32Cube/Repository/STM32Cube_FW_F4_V1.26.2/Middlewares/Third_Party/LwIP/src/core\mem.c ****  * @param size is the minimum size of the requested block in bytes.
ARM GAS  C:\Users\BLACK_~1\AppData\Local\Temp\ccnOKFK8.s 			page 5


 202:c:/Users/Black_Life/STM32Cube/Repository/STM32Cube_FW_F4_V1.26.2/Middlewares/Third_Party/LwIP/src/core\mem.c ****  * @return pointer to allocated memory or NULL if no free memory was found.
 203:c:/Users/Black_Life/STM32Cube/Repository/STM32Cube_FW_F4_V1.26.2/Middlewares/Third_Party/LwIP/src/core\mem.c ****  *
 204:c:/Users/Black_Life/STM32Cube/Repository/STM32Cube_FW_F4_V1.26.2/Middlewares/Third_Party/LwIP/src/core\mem.c ****  * Note that the returned value must always be aligned (as defined by MEM_ALIGNMENT).
 205:c:/Users/Black_Life/STM32Cube/Repository/STM32Cube_FW_F4_V1.26.2/Middlewares/Third_Party/LwIP/src/core\mem.c ****  */
 206:c:/Users/Black_Life/STM32Cube/Repository/STM32Cube_FW_F4_V1.26.2/Middlewares/Third_Party/LwIP/src/core\mem.c **** void *
 207:c:/Users/Black_Life/STM32Cube/Repository/STM32Cube_FW_F4_V1.26.2/Middlewares/Third_Party/LwIP/src/core\mem.c **** mem_malloc(mem_size_t size)
 208:c:/Users/Black_Life/STM32Cube/Repository/STM32Cube_FW_F4_V1.26.2/Middlewares/Third_Party/LwIP/src/core\mem.c **** {
 209:c:/Users/Black_Life/STM32Cube/Repository/STM32Cube_FW_F4_V1.26.2/Middlewares/Third_Party/LwIP/src/core\mem.c ****   void *ret = mem_clib_malloc(size + MEM_LIBC_STATSHELPER_SIZE);
 210:c:/Users/Black_Life/STM32Cube/Repository/STM32Cube_FW_F4_V1.26.2/Middlewares/Third_Party/LwIP/src/core\mem.c ****   if (ret == NULL) {
 211:c:/Users/Black_Life/STM32Cube/Repository/STM32Cube_FW_F4_V1.26.2/Middlewares/Third_Party/LwIP/src/core\mem.c ****     MEM_STATS_INC_LOCKED(err);
 212:c:/Users/Black_Life/STM32Cube/Repository/STM32Cube_FW_F4_V1.26.2/Middlewares/Third_Party/LwIP/src/core\mem.c ****   } else {
 213:c:/Users/Black_Life/STM32Cube/Repository/STM32Cube_FW_F4_V1.26.2/Middlewares/Third_Party/LwIP/src/core\mem.c ****     LWIP_ASSERT("malloc() must return aligned memory", LWIP_MEM_ALIGN(ret) == ret);
 214:c:/Users/Black_Life/STM32Cube/Repository/STM32Cube_FW_F4_V1.26.2/Middlewares/Third_Party/LwIP/src/core\mem.c **** #if LWIP_STATS && MEM_STATS
 215:c:/Users/Black_Life/STM32Cube/Repository/STM32Cube_FW_F4_V1.26.2/Middlewares/Third_Party/LwIP/src/core\mem.c ****     *(mem_size_t *)ret = size;
 216:c:/Users/Black_Life/STM32Cube/Repository/STM32Cube_FW_F4_V1.26.2/Middlewares/Third_Party/LwIP/src/core\mem.c ****     ret = (u8_t *)ret + MEM_LIBC_STATSHELPER_SIZE;
 217:c:/Users/Black_Life/STM32Cube/Repository/STM32Cube_FW_F4_V1.26.2/Middlewares/Third_Party/LwIP/src/core\mem.c ****     MEM_STATS_INC_USED_LOCKED(used, size);
 218:c:/Users/Black_Life/STM32Cube/Repository/STM32Cube_FW_F4_V1.26.2/Middlewares/Third_Party/LwIP/src/core\mem.c **** #endif
 219:c:/Users/Black_Life/STM32Cube/Repository/STM32Cube_FW_F4_V1.26.2/Middlewares/Third_Party/LwIP/src/core\mem.c ****   }
 220:c:/Users/Black_Life/STM32Cube/Repository/STM32Cube_FW_F4_V1.26.2/Middlewares/Third_Party/LwIP/src/core\mem.c ****   return ret;
 221:c:/Users/Black_Life/STM32Cube/Repository/STM32Cube_FW_F4_V1.26.2/Middlewares/Third_Party/LwIP/src/core\mem.c **** }
 222:c:/Users/Black_Life/STM32Cube/Repository/STM32Cube_FW_F4_V1.26.2/Middlewares/Third_Party/LwIP/src/core\mem.c **** 
 223:c:/Users/Black_Life/STM32Cube/Repository/STM32Cube_FW_F4_V1.26.2/Middlewares/Third_Party/LwIP/src/core\mem.c **** /** Put memory back on the heap
 224:c:/Users/Black_Life/STM32Cube/Repository/STM32Cube_FW_F4_V1.26.2/Middlewares/Third_Party/LwIP/src/core\mem.c ****  *
 225:c:/Users/Black_Life/STM32Cube/Repository/STM32Cube_FW_F4_V1.26.2/Middlewares/Third_Party/LwIP/src/core\mem.c ****  * @param rmem is the pointer as returned by a previous call to mem_malloc()
 226:c:/Users/Black_Life/STM32Cube/Repository/STM32Cube_FW_F4_V1.26.2/Middlewares/Third_Party/LwIP/src/core\mem.c ****  */
 227:c:/Users/Black_Life/STM32Cube/Repository/STM32Cube_FW_F4_V1.26.2/Middlewares/Third_Party/LwIP/src/core\mem.c **** void
 228:c:/Users/Black_Life/STM32Cube/Repository/STM32Cube_FW_F4_V1.26.2/Middlewares/Third_Party/LwIP/src/core\mem.c **** mem_free(void *rmem)
 229:c:/Users/Black_Life/STM32Cube/Repository/STM32Cube_FW_F4_V1.26.2/Middlewares/Third_Party/LwIP/src/core\mem.c **** {
 230:c:/Users/Black_Life/STM32Cube/Repository/STM32Cube_FW_F4_V1.26.2/Middlewares/Third_Party/LwIP/src/core\mem.c ****   LWIP_ASSERT("rmem != NULL", (rmem != NULL));
 231:c:/Users/Black_Life/STM32Cube/Repository/STM32Cube_FW_F4_V1.26.2/Middlewares/Third_Party/LwIP/src/core\mem.c ****   LWIP_ASSERT("rmem == MEM_ALIGN(rmem)", (rmem == LWIP_MEM_ALIGN(rmem)));
 232:c:/Users/Black_Life/STM32Cube/Repository/STM32Cube_FW_F4_V1.26.2/Middlewares/Third_Party/LwIP/src/core\mem.c **** #if LWIP_STATS && MEM_STATS
 233:c:/Users/Black_Life/STM32Cube/Repository/STM32Cube_FW_F4_V1.26.2/Middlewares/Third_Party/LwIP/src/core\mem.c ****   rmem = (u8_t *)rmem - MEM_LIBC_STATSHELPER_SIZE;
 234:c:/Users/Black_Life/STM32Cube/Repository/STM32Cube_FW_F4_V1.26.2/Middlewares/Third_Party/LwIP/src/core\mem.c ****   MEM_STATS_DEC_USED_LOCKED(used, *(mem_size_t *)rmem);
 235:c:/Users/Black_Life/STM32Cube/Repository/STM32Cube_FW_F4_V1.26.2/Middlewares/Third_Party/LwIP/src/core\mem.c **** #endif
 236:c:/Users/Black_Life/STM32Cube/Repository/STM32Cube_FW_F4_V1.26.2/Middlewares/Third_Party/LwIP/src/core\mem.c ****   mem_clib_free(rmem);
 237:c:/Users/Black_Life/STM32Cube/Repository/STM32Cube_FW_F4_V1.26.2/Middlewares/Third_Party/LwIP/src/core\mem.c **** }
 238:c:/Users/Black_Life/STM32Cube/Repository/STM32Cube_FW_F4_V1.26.2/Middlewares/Third_Party/LwIP/src/core\mem.c **** 
 239:c:/Users/Black_Life/STM32Cube/Repository/STM32Cube_FW_F4_V1.26.2/Middlewares/Third_Party/LwIP/src/core\mem.c **** #elif MEM_USE_POOLS
 240:c:/Users/Black_Life/STM32Cube/Repository/STM32Cube_FW_F4_V1.26.2/Middlewares/Third_Party/LwIP/src/core\mem.c **** 
 241:c:/Users/Black_Life/STM32Cube/Repository/STM32Cube_FW_F4_V1.26.2/Middlewares/Third_Party/LwIP/src/core\mem.c **** /* lwIP heap implemented with different sized pools */
 242:c:/Users/Black_Life/STM32Cube/Repository/STM32Cube_FW_F4_V1.26.2/Middlewares/Third_Party/LwIP/src/core\mem.c **** 
 243:c:/Users/Black_Life/STM32Cube/Repository/STM32Cube_FW_F4_V1.26.2/Middlewares/Third_Party/LwIP/src/core\mem.c **** /**
 244:c:/Users/Black_Life/STM32Cube/Repository/STM32Cube_FW_F4_V1.26.2/Middlewares/Third_Party/LwIP/src/core\mem.c ****  * Allocate memory: determine the smallest pool that is big enough
 245:c:/Users/Black_Life/STM32Cube/Repository/STM32Cube_FW_F4_V1.26.2/Middlewares/Third_Party/LwIP/src/core\mem.c ****  * to contain an element of 'size' and get an element from that pool.
 246:c:/Users/Black_Life/STM32Cube/Repository/STM32Cube_FW_F4_V1.26.2/Middlewares/Third_Party/LwIP/src/core\mem.c ****  *
 247:c:/Users/Black_Life/STM32Cube/Repository/STM32Cube_FW_F4_V1.26.2/Middlewares/Third_Party/LwIP/src/core\mem.c ****  * @param size the size in bytes of the memory needed
 248:c:/Users/Black_Life/STM32Cube/Repository/STM32Cube_FW_F4_V1.26.2/Middlewares/Third_Party/LwIP/src/core\mem.c ****  * @return a pointer to the allocated memory or NULL if the pool is empty
 249:c:/Users/Black_Life/STM32Cube/Repository/STM32Cube_FW_F4_V1.26.2/Middlewares/Third_Party/LwIP/src/core\mem.c ****  */
 250:c:/Users/Black_Life/STM32Cube/Repository/STM32Cube_FW_F4_V1.26.2/Middlewares/Third_Party/LwIP/src/core\mem.c **** void *
 251:c:/Users/Black_Life/STM32Cube/Repository/STM32Cube_FW_F4_V1.26.2/Middlewares/Third_Party/LwIP/src/core\mem.c **** mem_malloc(mem_size_t size)
 252:c:/Users/Black_Life/STM32Cube/Repository/STM32Cube_FW_F4_V1.26.2/Middlewares/Third_Party/LwIP/src/core\mem.c **** {
 253:c:/Users/Black_Life/STM32Cube/Repository/STM32Cube_FW_F4_V1.26.2/Middlewares/Third_Party/LwIP/src/core\mem.c ****   void *ret;
 254:c:/Users/Black_Life/STM32Cube/Repository/STM32Cube_FW_F4_V1.26.2/Middlewares/Third_Party/LwIP/src/core\mem.c ****   struct memp_malloc_helper *element = NULL;
 255:c:/Users/Black_Life/STM32Cube/Repository/STM32Cube_FW_F4_V1.26.2/Middlewares/Third_Party/LwIP/src/core\mem.c ****   memp_t poolnr;
 256:c:/Users/Black_Life/STM32Cube/Repository/STM32Cube_FW_F4_V1.26.2/Middlewares/Third_Party/LwIP/src/core\mem.c ****   mem_size_t required_size = size + LWIP_MEM_ALIGN_SIZE(sizeof(struct memp_malloc_helper));
 257:c:/Users/Black_Life/STM32Cube/Repository/STM32Cube_FW_F4_V1.26.2/Middlewares/Third_Party/LwIP/src/core\mem.c **** 
 258:c:/Users/Black_Life/STM32Cube/Repository/STM32Cube_FW_F4_V1.26.2/Middlewares/Third_Party/LwIP/src/core\mem.c ****   for (poolnr = MEMP_POOL_FIRST; poolnr <= MEMP_POOL_LAST; poolnr = (memp_t)(poolnr + 1)) {
ARM GAS  C:\Users\BLACK_~1\AppData\Local\Temp\ccnOKFK8.s 			page 6


 259:c:/Users/Black_Life/STM32Cube/Repository/STM32Cube_FW_F4_V1.26.2/Middlewares/Third_Party/LwIP/src/core\mem.c ****     /* is this pool big enough to hold an element of the required size
 260:c:/Users/Black_Life/STM32Cube/Repository/STM32Cube_FW_F4_V1.26.2/Middlewares/Third_Party/LwIP/src/core\mem.c ****        plus a struct memp_malloc_helper that saves the pool this element came from? */
 261:c:/Users/Black_Life/STM32Cube/Repository/STM32Cube_FW_F4_V1.26.2/Middlewares/Third_Party/LwIP/src/core\mem.c ****     if (required_size <= memp_pools[poolnr]->size) {
 262:c:/Users/Black_Life/STM32Cube/Repository/STM32Cube_FW_F4_V1.26.2/Middlewares/Third_Party/LwIP/src/core\mem.c ****       element = (struct memp_malloc_helper *)memp_malloc(poolnr);
 263:c:/Users/Black_Life/STM32Cube/Repository/STM32Cube_FW_F4_V1.26.2/Middlewares/Third_Party/LwIP/src/core\mem.c ****       if (element == NULL) {
 264:c:/Users/Black_Life/STM32Cube/Repository/STM32Cube_FW_F4_V1.26.2/Middlewares/Third_Party/LwIP/src/core\mem.c ****         /* No need to DEBUGF or ASSERT: This error is already taken care of in memp.c */
 265:c:/Users/Black_Life/STM32Cube/Repository/STM32Cube_FW_F4_V1.26.2/Middlewares/Third_Party/LwIP/src/core\mem.c **** #if MEM_USE_POOLS_TRY_BIGGER_POOL
 266:c:/Users/Black_Life/STM32Cube/Repository/STM32Cube_FW_F4_V1.26.2/Middlewares/Third_Party/LwIP/src/core\mem.c ****         /** Try a bigger pool if this one is empty! */
 267:c:/Users/Black_Life/STM32Cube/Repository/STM32Cube_FW_F4_V1.26.2/Middlewares/Third_Party/LwIP/src/core\mem.c ****         if (poolnr < MEMP_POOL_LAST) {
 268:c:/Users/Black_Life/STM32Cube/Repository/STM32Cube_FW_F4_V1.26.2/Middlewares/Third_Party/LwIP/src/core\mem.c ****           continue;
 269:c:/Users/Black_Life/STM32Cube/Repository/STM32Cube_FW_F4_V1.26.2/Middlewares/Third_Party/LwIP/src/core\mem.c ****         }
 270:c:/Users/Black_Life/STM32Cube/Repository/STM32Cube_FW_F4_V1.26.2/Middlewares/Third_Party/LwIP/src/core\mem.c **** #endif /* MEM_USE_POOLS_TRY_BIGGER_POOL */
 271:c:/Users/Black_Life/STM32Cube/Repository/STM32Cube_FW_F4_V1.26.2/Middlewares/Third_Party/LwIP/src/core\mem.c ****         MEM_STATS_INC_LOCKED(err);
 272:c:/Users/Black_Life/STM32Cube/Repository/STM32Cube_FW_F4_V1.26.2/Middlewares/Third_Party/LwIP/src/core\mem.c ****         return NULL;
 273:c:/Users/Black_Life/STM32Cube/Repository/STM32Cube_FW_F4_V1.26.2/Middlewares/Third_Party/LwIP/src/core\mem.c ****       }
 274:c:/Users/Black_Life/STM32Cube/Repository/STM32Cube_FW_F4_V1.26.2/Middlewares/Third_Party/LwIP/src/core\mem.c ****       break;
 275:c:/Users/Black_Life/STM32Cube/Repository/STM32Cube_FW_F4_V1.26.2/Middlewares/Third_Party/LwIP/src/core\mem.c ****     }
 276:c:/Users/Black_Life/STM32Cube/Repository/STM32Cube_FW_F4_V1.26.2/Middlewares/Third_Party/LwIP/src/core\mem.c ****   }
 277:c:/Users/Black_Life/STM32Cube/Repository/STM32Cube_FW_F4_V1.26.2/Middlewares/Third_Party/LwIP/src/core\mem.c ****   if (poolnr > MEMP_POOL_LAST) {
 278:c:/Users/Black_Life/STM32Cube/Repository/STM32Cube_FW_F4_V1.26.2/Middlewares/Third_Party/LwIP/src/core\mem.c ****     LWIP_ASSERT("mem_malloc(): no pool is that big!", 0);
 279:c:/Users/Black_Life/STM32Cube/Repository/STM32Cube_FW_F4_V1.26.2/Middlewares/Third_Party/LwIP/src/core\mem.c ****     MEM_STATS_INC_LOCKED(err);
 280:c:/Users/Black_Life/STM32Cube/Repository/STM32Cube_FW_F4_V1.26.2/Middlewares/Third_Party/LwIP/src/core\mem.c ****     return NULL;
 281:c:/Users/Black_Life/STM32Cube/Repository/STM32Cube_FW_F4_V1.26.2/Middlewares/Third_Party/LwIP/src/core\mem.c ****   }
 282:c:/Users/Black_Life/STM32Cube/Repository/STM32Cube_FW_F4_V1.26.2/Middlewares/Third_Party/LwIP/src/core\mem.c **** 
 283:c:/Users/Black_Life/STM32Cube/Repository/STM32Cube_FW_F4_V1.26.2/Middlewares/Third_Party/LwIP/src/core\mem.c ****   /* save the pool number this element came from */
 284:c:/Users/Black_Life/STM32Cube/Repository/STM32Cube_FW_F4_V1.26.2/Middlewares/Third_Party/LwIP/src/core\mem.c ****   element->poolnr = poolnr;
 285:c:/Users/Black_Life/STM32Cube/Repository/STM32Cube_FW_F4_V1.26.2/Middlewares/Third_Party/LwIP/src/core\mem.c ****   /* and return a pointer to the memory directly after the struct memp_malloc_helper */
 286:c:/Users/Black_Life/STM32Cube/Repository/STM32Cube_FW_F4_V1.26.2/Middlewares/Third_Party/LwIP/src/core\mem.c ****   ret = (u8_t *)element + LWIP_MEM_ALIGN_SIZE(sizeof(struct memp_malloc_helper));
 287:c:/Users/Black_Life/STM32Cube/Repository/STM32Cube_FW_F4_V1.26.2/Middlewares/Third_Party/LwIP/src/core\mem.c **** 
 288:c:/Users/Black_Life/STM32Cube/Repository/STM32Cube_FW_F4_V1.26.2/Middlewares/Third_Party/LwIP/src/core\mem.c **** #if MEMP_OVERFLOW_CHECK || (LWIP_STATS && MEM_STATS)
 289:c:/Users/Black_Life/STM32Cube/Repository/STM32Cube_FW_F4_V1.26.2/Middlewares/Third_Party/LwIP/src/core\mem.c ****   /* truncating to u16_t is safe because struct memp_desc::size is u16_t */
 290:c:/Users/Black_Life/STM32Cube/Repository/STM32Cube_FW_F4_V1.26.2/Middlewares/Third_Party/LwIP/src/core\mem.c ****   element->size = (u16_t)size;
 291:c:/Users/Black_Life/STM32Cube/Repository/STM32Cube_FW_F4_V1.26.2/Middlewares/Third_Party/LwIP/src/core\mem.c ****   MEM_STATS_INC_USED_LOCKED(used, element->size);
 292:c:/Users/Black_Life/STM32Cube/Repository/STM32Cube_FW_F4_V1.26.2/Middlewares/Third_Party/LwIP/src/core\mem.c **** #endif /* MEMP_OVERFLOW_CHECK || (LWIP_STATS && MEM_STATS) */
 293:c:/Users/Black_Life/STM32Cube/Repository/STM32Cube_FW_F4_V1.26.2/Middlewares/Third_Party/LwIP/src/core\mem.c **** #if MEMP_OVERFLOW_CHECK
 294:c:/Users/Black_Life/STM32Cube/Repository/STM32Cube_FW_F4_V1.26.2/Middlewares/Third_Party/LwIP/src/core\mem.c ****   /* initialize unused memory (diff between requested size and selected pool's size) */
 295:c:/Users/Black_Life/STM32Cube/Repository/STM32Cube_FW_F4_V1.26.2/Middlewares/Third_Party/LwIP/src/core\mem.c ****   memset((u8_t *)ret + size, 0xcd, memp_pools[poolnr]->size - size);
 296:c:/Users/Black_Life/STM32Cube/Repository/STM32Cube_FW_F4_V1.26.2/Middlewares/Third_Party/LwIP/src/core\mem.c **** #endif /* MEMP_OVERFLOW_CHECK */
 297:c:/Users/Black_Life/STM32Cube/Repository/STM32Cube_FW_F4_V1.26.2/Middlewares/Third_Party/LwIP/src/core\mem.c ****   return ret;
 298:c:/Users/Black_Life/STM32Cube/Repository/STM32Cube_FW_F4_V1.26.2/Middlewares/Third_Party/LwIP/src/core\mem.c **** }
 299:c:/Users/Black_Life/STM32Cube/Repository/STM32Cube_FW_F4_V1.26.2/Middlewares/Third_Party/LwIP/src/core\mem.c **** 
 300:c:/Users/Black_Life/STM32Cube/Repository/STM32Cube_FW_F4_V1.26.2/Middlewares/Third_Party/LwIP/src/core\mem.c **** /**
 301:c:/Users/Black_Life/STM32Cube/Repository/STM32Cube_FW_F4_V1.26.2/Middlewares/Third_Party/LwIP/src/core\mem.c ****  * Free memory previously allocated by mem_malloc. Loads the pool number
 302:c:/Users/Black_Life/STM32Cube/Repository/STM32Cube_FW_F4_V1.26.2/Middlewares/Third_Party/LwIP/src/core\mem.c ****  * and calls memp_free with that pool number to put the element back into
 303:c:/Users/Black_Life/STM32Cube/Repository/STM32Cube_FW_F4_V1.26.2/Middlewares/Third_Party/LwIP/src/core\mem.c ****  * its pool
 304:c:/Users/Black_Life/STM32Cube/Repository/STM32Cube_FW_F4_V1.26.2/Middlewares/Third_Party/LwIP/src/core\mem.c ****  *
 305:c:/Users/Black_Life/STM32Cube/Repository/STM32Cube_FW_F4_V1.26.2/Middlewares/Third_Party/LwIP/src/core\mem.c ****  * @param rmem the memory element to free
 306:c:/Users/Black_Life/STM32Cube/Repository/STM32Cube_FW_F4_V1.26.2/Middlewares/Third_Party/LwIP/src/core\mem.c ****  */
 307:c:/Users/Black_Life/STM32Cube/Repository/STM32Cube_FW_F4_V1.26.2/Middlewares/Third_Party/LwIP/src/core\mem.c **** void
 308:c:/Users/Black_Life/STM32Cube/Repository/STM32Cube_FW_F4_V1.26.2/Middlewares/Third_Party/LwIP/src/core\mem.c **** mem_free(void *rmem)
 309:c:/Users/Black_Life/STM32Cube/Repository/STM32Cube_FW_F4_V1.26.2/Middlewares/Third_Party/LwIP/src/core\mem.c **** {
 310:c:/Users/Black_Life/STM32Cube/Repository/STM32Cube_FW_F4_V1.26.2/Middlewares/Third_Party/LwIP/src/core\mem.c ****   struct memp_malloc_helper *hmem;
 311:c:/Users/Black_Life/STM32Cube/Repository/STM32Cube_FW_F4_V1.26.2/Middlewares/Third_Party/LwIP/src/core\mem.c **** 
 312:c:/Users/Black_Life/STM32Cube/Repository/STM32Cube_FW_F4_V1.26.2/Middlewares/Third_Party/LwIP/src/core\mem.c ****   LWIP_ASSERT("rmem != NULL", (rmem != NULL));
 313:c:/Users/Black_Life/STM32Cube/Repository/STM32Cube_FW_F4_V1.26.2/Middlewares/Third_Party/LwIP/src/core\mem.c ****   LWIP_ASSERT("rmem == MEM_ALIGN(rmem)", (rmem == LWIP_MEM_ALIGN(rmem)));
 314:c:/Users/Black_Life/STM32Cube/Repository/STM32Cube_FW_F4_V1.26.2/Middlewares/Third_Party/LwIP/src/core\mem.c **** 
 315:c:/Users/Black_Life/STM32Cube/Repository/STM32Cube_FW_F4_V1.26.2/Middlewares/Third_Party/LwIP/src/core\mem.c ****   /* get the original struct memp_malloc_helper */
ARM GAS  C:\Users\BLACK_~1\AppData\Local\Temp\ccnOKFK8.s 			page 7


 316:c:/Users/Black_Life/STM32Cube/Repository/STM32Cube_FW_F4_V1.26.2/Middlewares/Third_Party/LwIP/src/core\mem.c ****   /* cast through void* to get rid of alignment warnings */
 317:c:/Users/Black_Life/STM32Cube/Repository/STM32Cube_FW_F4_V1.26.2/Middlewares/Third_Party/LwIP/src/core\mem.c ****   hmem = (struct memp_malloc_helper *)(void *)((u8_t *)rmem - LWIP_MEM_ALIGN_SIZE(sizeof(struct mem
 318:c:/Users/Black_Life/STM32Cube/Repository/STM32Cube_FW_F4_V1.26.2/Middlewares/Third_Party/LwIP/src/core\mem.c **** 
 319:c:/Users/Black_Life/STM32Cube/Repository/STM32Cube_FW_F4_V1.26.2/Middlewares/Third_Party/LwIP/src/core\mem.c ****   LWIP_ASSERT("hmem != NULL", (hmem != NULL));
 320:c:/Users/Black_Life/STM32Cube/Repository/STM32Cube_FW_F4_V1.26.2/Middlewares/Third_Party/LwIP/src/core\mem.c ****   LWIP_ASSERT("hmem == MEM_ALIGN(hmem)", (hmem == LWIP_MEM_ALIGN(hmem)));
 321:c:/Users/Black_Life/STM32Cube/Repository/STM32Cube_FW_F4_V1.26.2/Middlewares/Third_Party/LwIP/src/core\mem.c ****   LWIP_ASSERT("hmem->poolnr < MEMP_MAX", (hmem->poolnr < MEMP_MAX));
 322:c:/Users/Black_Life/STM32Cube/Repository/STM32Cube_FW_F4_V1.26.2/Middlewares/Third_Party/LwIP/src/core\mem.c **** 
 323:c:/Users/Black_Life/STM32Cube/Repository/STM32Cube_FW_F4_V1.26.2/Middlewares/Third_Party/LwIP/src/core\mem.c ****   MEM_STATS_DEC_USED_LOCKED(used, hmem->size);
 324:c:/Users/Black_Life/STM32Cube/Repository/STM32Cube_FW_F4_V1.26.2/Middlewares/Third_Party/LwIP/src/core\mem.c **** #if MEMP_OVERFLOW_CHECK
 325:c:/Users/Black_Life/STM32Cube/Repository/STM32Cube_FW_F4_V1.26.2/Middlewares/Third_Party/LwIP/src/core\mem.c ****   {
 326:c:/Users/Black_Life/STM32Cube/Repository/STM32Cube_FW_F4_V1.26.2/Middlewares/Third_Party/LwIP/src/core\mem.c ****     u16_t i;
 327:c:/Users/Black_Life/STM32Cube/Repository/STM32Cube_FW_F4_V1.26.2/Middlewares/Third_Party/LwIP/src/core\mem.c ****     LWIP_ASSERT("MEM_USE_POOLS: invalid chunk size",
 328:c:/Users/Black_Life/STM32Cube/Repository/STM32Cube_FW_F4_V1.26.2/Middlewares/Third_Party/LwIP/src/core\mem.c ****                 hmem->size <= memp_pools[hmem->poolnr]->size);
 329:c:/Users/Black_Life/STM32Cube/Repository/STM32Cube_FW_F4_V1.26.2/Middlewares/Third_Party/LwIP/src/core\mem.c ****     /* check that unused memory remained untouched (diff between requested size and selected pool's
 330:c:/Users/Black_Life/STM32Cube/Repository/STM32Cube_FW_F4_V1.26.2/Middlewares/Third_Party/LwIP/src/core\mem.c ****     for (i = hmem->size; i < memp_pools[hmem->poolnr]->size; i++) {
 331:c:/Users/Black_Life/STM32Cube/Repository/STM32Cube_FW_F4_V1.26.2/Middlewares/Third_Party/LwIP/src/core\mem.c ****       u8_t data = *((u8_t *)rmem + i);
 332:c:/Users/Black_Life/STM32Cube/Repository/STM32Cube_FW_F4_V1.26.2/Middlewares/Third_Party/LwIP/src/core\mem.c ****       LWIP_ASSERT("MEM_USE_POOLS: mem overflow detected", data == 0xcd);
 333:c:/Users/Black_Life/STM32Cube/Repository/STM32Cube_FW_F4_V1.26.2/Middlewares/Third_Party/LwIP/src/core\mem.c ****     }
 334:c:/Users/Black_Life/STM32Cube/Repository/STM32Cube_FW_F4_V1.26.2/Middlewares/Third_Party/LwIP/src/core\mem.c ****   }
 335:c:/Users/Black_Life/STM32Cube/Repository/STM32Cube_FW_F4_V1.26.2/Middlewares/Third_Party/LwIP/src/core\mem.c **** #endif /* MEMP_OVERFLOW_CHECK */
 336:c:/Users/Black_Life/STM32Cube/Repository/STM32Cube_FW_F4_V1.26.2/Middlewares/Third_Party/LwIP/src/core\mem.c **** 
 337:c:/Users/Black_Life/STM32Cube/Repository/STM32Cube_FW_F4_V1.26.2/Middlewares/Third_Party/LwIP/src/core\mem.c ****   /* and put it in the pool we saved earlier */
 338:c:/Users/Black_Life/STM32Cube/Repository/STM32Cube_FW_F4_V1.26.2/Middlewares/Third_Party/LwIP/src/core\mem.c ****   memp_free(hmem->poolnr, hmem);
 339:c:/Users/Black_Life/STM32Cube/Repository/STM32Cube_FW_F4_V1.26.2/Middlewares/Third_Party/LwIP/src/core\mem.c **** }
 340:c:/Users/Black_Life/STM32Cube/Repository/STM32Cube_FW_F4_V1.26.2/Middlewares/Third_Party/LwIP/src/core\mem.c **** 
 341:c:/Users/Black_Life/STM32Cube/Repository/STM32Cube_FW_F4_V1.26.2/Middlewares/Third_Party/LwIP/src/core\mem.c **** #else /* MEM_USE_POOLS */
 342:c:/Users/Black_Life/STM32Cube/Repository/STM32Cube_FW_F4_V1.26.2/Middlewares/Third_Party/LwIP/src/core\mem.c **** /* lwIP replacement for your libc malloc() */
 343:c:/Users/Black_Life/STM32Cube/Repository/STM32Cube_FW_F4_V1.26.2/Middlewares/Third_Party/LwIP/src/core\mem.c **** 
 344:c:/Users/Black_Life/STM32Cube/Repository/STM32Cube_FW_F4_V1.26.2/Middlewares/Third_Party/LwIP/src/core\mem.c **** /**
 345:c:/Users/Black_Life/STM32Cube/Repository/STM32Cube_FW_F4_V1.26.2/Middlewares/Third_Party/LwIP/src/core\mem.c ****  * The heap is made up as a list of structs of this type.
 346:c:/Users/Black_Life/STM32Cube/Repository/STM32Cube_FW_F4_V1.26.2/Middlewares/Third_Party/LwIP/src/core\mem.c ****  * This does not have to be aligned since for getting its size,
 347:c:/Users/Black_Life/STM32Cube/Repository/STM32Cube_FW_F4_V1.26.2/Middlewares/Third_Party/LwIP/src/core\mem.c ****  * we only use the macro SIZEOF_STRUCT_MEM, which automatically aligns.
 348:c:/Users/Black_Life/STM32Cube/Repository/STM32Cube_FW_F4_V1.26.2/Middlewares/Third_Party/LwIP/src/core\mem.c ****  */
 349:c:/Users/Black_Life/STM32Cube/Repository/STM32Cube_FW_F4_V1.26.2/Middlewares/Third_Party/LwIP/src/core\mem.c **** struct mem {
 350:c:/Users/Black_Life/STM32Cube/Repository/STM32Cube_FW_F4_V1.26.2/Middlewares/Third_Party/LwIP/src/core\mem.c ****   /** index (-> ram[next]) of the next struct */
 351:c:/Users/Black_Life/STM32Cube/Repository/STM32Cube_FW_F4_V1.26.2/Middlewares/Third_Party/LwIP/src/core\mem.c ****   mem_size_t next;
 352:c:/Users/Black_Life/STM32Cube/Repository/STM32Cube_FW_F4_V1.26.2/Middlewares/Third_Party/LwIP/src/core\mem.c ****   /** index (-> ram[prev]) of the previous struct */
 353:c:/Users/Black_Life/STM32Cube/Repository/STM32Cube_FW_F4_V1.26.2/Middlewares/Third_Party/LwIP/src/core\mem.c ****   mem_size_t prev;
 354:c:/Users/Black_Life/STM32Cube/Repository/STM32Cube_FW_F4_V1.26.2/Middlewares/Third_Party/LwIP/src/core\mem.c ****   /** 1: this area is used; 0: this area is unused */
 355:c:/Users/Black_Life/STM32Cube/Repository/STM32Cube_FW_F4_V1.26.2/Middlewares/Third_Party/LwIP/src/core\mem.c ****   u8_t used;
 356:c:/Users/Black_Life/STM32Cube/Repository/STM32Cube_FW_F4_V1.26.2/Middlewares/Third_Party/LwIP/src/core\mem.c **** #if MEM_OVERFLOW_CHECK
 357:c:/Users/Black_Life/STM32Cube/Repository/STM32Cube_FW_F4_V1.26.2/Middlewares/Third_Party/LwIP/src/core\mem.c ****   /** this keeps track of the user allocation size for guard checks */
 358:c:/Users/Black_Life/STM32Cube/Repository/STM32Cube_FW_F4_V1.26.2/Middlewares/Third_Party/LwIP/src/core\mem.c ****   mem_size_t user_size;
 359:c:/Users/Black_Life/STM32Cube/Repository/STM32Cube_FW_F4_V1.26.2/Middlewares/Third_Party/LwIP/src/core\mem.c **** #endif
 360:c:/Users/Black_Life/STM32Cube/Repository/STM32Cube_FW_F4_V1.26.2/Middlewares/Third_Party/LwIP/src/core\mem.c **** };
 361:c:/Users/Black_Life/STM32Cube/Repository/STM32Cube_FW_F4_V1.26.2/Middlewares/Third_Party/LwIP/src/core\mem.c **** 
 362:c:/Users/Black_Life/STM32Cube/Repository/STM32Cube_FW_F4_V1.26.2/Middlewares/Third_Party/LwIP/src/core\mem.c **** /** All allocated blocks will be MIN_SIZE bytes big, at least!
 363:c:/Users/Black_Life/STM32Cube/Repository/STM32Cube_FW_F4_V1.26.2/Middlewares/Third_Party/LwIP/src/core\mem.c ****  * MIN_SIZE can be overridden to suit your needs. Smaller values save space,
 364:c:/Users/Black_Life/STM32Cube/Repository/STM32Cube_FW_F4_V1.26.2/Middlewares/Third_Party/LwIP/src/core\mem.c ****  * larger values could prevent too small blocks to fragment the RAM too much. */
 365:c:/Users/Black_Life/STM32Cube/Repository/STM32Cube_FW_F4_V1.26.2/Middlewares/Third_Party/LwIP/src/core\mem.c **** #ifndef MIN_SIZE
 366:c:/Users/Black_Life/STM32Cube/Repository/STM32Cube_FW_F4_V1.26.2/Middlewares/Third_Party/LwIP/src/core\mem.c **** #define MIN_SIZE             12
 367:c:/Users/Black_Life/STM32Cube/Repository/STM32Cube_FW_F4_V1.26.2/Middlewares/Third_Party/LwIP/src/core\mem.c **** #endif /* MIN_SIZE */
 368:c:/Users/Black_Life/STM32Cube/Repository/STM32Cube_FW_F4_V1.26.2/Middlewares/Third_Party/LwIP/src/core\mem.c **** /* some alignment macros: we define them here for better source code layout */
 369:c:/Users/Black_Life/STM32Cube/Repository/STM32Cube_FW_F4_V1.26.2/Middlewares/Third_Party/LwIP/src/core\mem.c **** #define MIN_SIZE_ALIGNED     LWIP_MEM_ALIGN_SIZE(MIN_SIZE)
 370:c:/Users/Black_Life/STM32Cube/Repository/STM32Cube_FW_F4_V1.26.2/Middlewares/Third_Party/LwIP/src/core\mem.c **** #define SIZEOF_STRUCT_MEM    LWIP_MEM_ALIGN_SIZE(sizeof(struct mem))
 371:c:/Users/Black_Life/STM32Cube/Repository/STM32Cube_FW_F4_V1.26.2/Middlewares/Third_Party/LwIP/src/core\mem.c **** #define MEM_SIZE_ALIGNED     LWIP_MEM_ALIGN_SIZE(MEM_SIZE)
 372:c:/Users/Black_Life/STM32Cube/Repository/STM32Cube_FW_F4_V1.26.2/Middlewares/Third_Party/LwIP/src/core\mem.c **** 
ARM GAS  C:\Users\BLACK_~1\AppData\Local\Temp\ccnOKFK8.s 			page 8


 373:c:/Users/Black_Life/STM32Cube/Repository/STM32Cube_FW_F4_V1.26.2/Middlewares/Third_Party/LwIP/src/core\mem.c **** /** If you want to relocate the heap to external memory, simply define
 374:c:/Users/Black_Life/STM32Cube/Repository/STM32Cube_FW_F4_V1.26.2/Middlewares/Third_Party/LwIP/src/core\mem.c ****  * LWIP_RAM_HEAP_POINTER as a void-pointer to that location.
 375:c:/Users/Black_Life/STM32Cube/Repository/STM32Cube_FW_F4_V1.26.2/Middlewares/Third_Party/LwIP/src/core\mem.c ****  * If so, make sure the memory at that location is big enough (see below on
 376:c:/Users/Black_Life/STM32Cube/Repository/STM32Cube_FW_F4_V1.26.2/Middlewares/Third_Party/LwIP/src/core\mem.c ****  * how that space is calculated). */
 377:c:/Users/Black_Life/STM32Cube/Repository/STM32Cube_FW_F4_V1.26.2/Middlewares/Third_Party/LwIP/src/core\mem.c **** #ifndef LWIP_RAM_HEAP_POINTER
 378:c:/Users/Black_Life/STM32Cube/Repository/STM32Cube_FW_F4_V1.26.2/Middlewares/Third_Party/LwIP/src/core\mem.c **** /** the heap. we need one struct mem at the end and some room for alignment */
 379:c:/Users/Black_Life/STM32Cube/Repository/STM32Cube_FW_F4_V1.26.2/Middlewares/Third_Party/LwIP/src/core\mem.c **** LWIP_DECLARE_MEMORY_ALIGNED(ram_heap, MEM_SIZE_ALIGNED + (2U * SIZEOF_STRUCT_MEM));
 380:c:/Users/Black_Life/STM32Cube/Repository/STM32Cube_FW_F4_V1.26.2/Middlewares/Third_Party/LwIP/src/core\mem.c **** #define LWIP_RAM_HEAP_POINTER ram_heap
 381:c:/Users/Black_Life/STM32Cube/Repository/STM32Cube_FW_F4_V1.26.2/Middlewares/Third_Party/LwIP/src/core\mem.c **** #endif /* LWIP_RAM_HEAP_POINTER */
 382:c:/Users/Black_Life/STM32Cube/Repository/STM32Cube_FW_F4_V1.26.2/Middlewares/Third_Party/LwIP/src/core\mem.c **** 
 383:c:/Users/Black_Life/STM32Cube/Repository/STM32Cube_FW_F4_V1.26.2/Middlewares/Third_Party/LwIP/src/core\mem.c **** /** pointer to the heap (ram_heap): for alignment, ram is now a pointer instead of an array */
 384:c:/Users/Black_Life/STM32Cube/Repository/STM32Cube_FW_F4_V1.26.2/Middlewares/Third_Party/LwIP/src/core\mem.c **** static u8_t *ram;
 385:c:/Users/Black_Life/STM32Cube/Repository/STM32Cube_FW_F4_V1.26.2/Middlewares/Third_Party/LwIP/src/core\mem.c **** /** the last entry, always unused! */
 386:c:/Users/Black_Life/STM32Cube/Repository/STM32Cube_FW_F4_V1.26.2/Middlewares/Third_Party/LwIP/src/core\mem.c **** static struct mem *ram_end;
 387:c:/Users/Black_Life/STM32Cube/Repository/STM32Cube_FW_F4_V1.26.2/Middlewares/Third_Party/LwIP/src/core\mem.c **** 
 388:c:/Users/Black_Life/STM32Cube/Repository/STM32Cube_FW_F4_V1.26.2/Middlewares/Third_Party/LwIP/src/core\mem.c **** /** concurrent access protection */
 389:c:/Users/Black_Life/STM32Cube/Repository/STM32Cube_FW_F4_V1.26.2/Middlewares/Third_Party/LwIP/src/core\mem.c **** #if !NO_SYS
 390:c:/Users/Black_Life/STM32Cube/Repository/STM32Cube_FW_F4_V1.26.2/Middlewares/Third_Party/LwIP/src/core\mem.c **** static sys_mutex_t mem_mutex;
 391:c:/Users/Black_Life/STM32Cube/Repository/STM32Cube_FW_F4_V1.26.2/Middlewares/Third_Party/LwIP/src/core\mem.c **** #endif
 392:c:/Users/Black_Life/STM32Cube/Repository/STM32Cube_FW_F4_V1.26.2/Middlewares/Third_Party/LwIP/src/core\mem.c **** 
 393:c:/Users/Black_Life/STM32Cube/Repository/STM32Cube_FW_F4_V1.26.2/Middlewares/Third_Party/LwIP/src/core\mem.c **** #if LWIP_ALLOW_MEM_FREE_FROM_OTHER_CONTEXT
 394:c:/Users/Black_Life/STM32Cube/Repository/STM32Cube_FW_F4_V1.26.2/Middlewares/Third_Party/LwIP/src/core\mem.c **** 
 395:c:/Users/Black_Life/STM32Cube/Repository/STM32Cube_FW_F4_V1.26.2/Middlewares/Third_Party/LwIP/src/core\mem.c **** static volatile u8_t mem_free_count;
 396:c:/Users/Black_Life/STM32Cube/Repository/STM32Cube_FW_F4_V1.26.2/Middlewares/Third_Party/LwIP/src/core\mem.c **** 
 397:c:/Users/Black_Life/STM32Cube/Repository/STM32Cube_FW_F4_V1.26.2/Middlewares/Third_Party/LwIP/src/core\mem.c **** /* Allow mem_free from other (e.g. interrupt) context */
 398:c:/Users/Black_Life/STM32Cube/Repository/STM32Cube_FW_F4_V1.26.2/Middlewares/Third_Party/LwIP/src/core\mem.c **** #define LWIP_MEM_FREE_DECL_PROTECT()  SYS_ARCH_DECL_PROTECT(lev_free)
 399:c:/Users/Black_Life/STM32Cube/Repository/STM32Cube_FW_F4_V1.26.2/Middlewares/Third_Party/LwIP/src/core\mem.c **** #define LWIP_MEM_FREE_PROTECT()       SYS_ARCH_PROTECT(lev_free)
 400:c:/Users/Black_Life/STM32Cube/Repository/STM32Cube_FW_F4_V1.26.2/Middlewares/Third_Party/LwIP/src/core\mem.c **** #define LWIP_MEM_FREE_UNPROTECT()     SYS_ARCH_UNPROTECT(lev_free)
 401:c:/Users/Black_Life/STM32Cube/Repository/STM32Cube_FW_F4_V1.26.2/Middlewares/Third_Party/LwIP/src/core\mem.c **** #define LWIP_MEM_ALLOC_DECL_PROTECT() SYS_ARCH_DECL_PROTECT(lev_alloc)
 402:c:/Users/Black_Life/STM32Cube/Repository/STM32Cube_FW_F4_V1.26.2/Middlewares/Third_Party/LwIP/src/core\mem.c **** #define LWIP_MEM_ALLOC_PROTECT()      SYS_ARCH_PROTECT(lev_alloc)
 403:c:/Users/Black_Life/STM32Cube/Repository/STM32Cube_FW_F4_V1.26.2/Middlewares/Third_Party/LwIP/src/core\mem.c **** #define LWIP_MEM_ALLOC_UNPROTECT()    SYS_ARCH_UNPROTECT(lev_alloc)
 404:c:/Users/Black_Life/STM32Cube/Repository/STM32Cube_FW_F4_V1.26.2/Middlewares/Third_Party/LwIP/src/core\mem.c **** #define LWIP_MEM_LFREE_VOLATILE       volatile
 405:c:/Users/Black_Life/STM32Cube/Repository/STM32Cube_FW_F4_V1.26.2/Middlewares/Third_Party/LwIP/src/core\mem.c **** 
 406:c:/Users/Black_Life/STM32Cube/Repository/STM32Cube_FW_F4_V1.26.2/Middlewares/Third_Party/LwIP/src/core\mem.c **** #else /* LWIP_ALLOW_MEM_FREE_FROM_OTHER_CONTEXT */
 407:c:/Users/Black_Life/STM32Cube/Repository/STM32Cube_FW_F4_V1.26.2/Middlewares/Third_Party/LwIP/src/core\mem.c **** 
 408:c:/Users/Black_Life/STM32Cube/Repository/STM32Cube_FW_F4_V1.26.2/Middlewares/Third_Party/LwIP/src/core\mem.c **** /* Protect the heap only by using a mutex */
 409:c:/Users/Black_Life/STM32Cube/Repository/STM32Cube_FW_F4_V1.26.2/Middlewares/Third_Party/LwIP/src/core\mem.c **** #define LWIP_MEM_FREE_DECL_PROTECT()
 410:c:/Users/Black_Life/STM32Cube/Repository/STM32Cube_FW_F4_V1.26.2/Middlewares/Third_Party/LwIP/src/core\mem.c **** #define LWIP_MEM_FREE_PROTECT()    sys_mutex_lock(&mem_mutex)
 411:c:/Users/Black_Life/STM32Cube/Repository/STM32Cube_FW_F4_V1.26.2/Middlewares/Third_Party/LwIP/src/core\mem.c **** #define LWIP_MEM_FREE_UNPROTECT()  sys_mutex_unlock(&mem_mutex)
 412:c:/Users/Black_Life/STM32Cube/Repository/STM32Cube_FW_F4_V1.26.2/Middlewares/Third_Party/LwIP/src/core\mem.c **** /* mem_malloc is protected using mutex AND LWIP_MEM_ALLOC_PROTECT */
 413:c:/Users/Black_Life/STM32Cube/Repository/STM32Cube_FW_F4_V1.26.2/Middlewares/Third_Party/LwIP/src/core\mem.c **** #define LWIP_MEM_ALLOC_DECL_PROTECT()
 414:c:/Users/Black_Life/STM32Cube/Repository/STM32Cube_FW_F4_V1.26.2/Middlewares/Third_Party/LwIP/src/core\mem.c **** #define LWIP_MEM_ALLOC_PROTECT()
 415:c:/Users/Black_Life/STM32Cube/Repository/STM32Cube_FW_F4_V1.26.2/Middlewares/Third_Party/LwIP/src/core\mem.c **** #define LWIP_MEM_ALLOC_UNPROTECT()
 416:c:/Users/Black_Life/STM32Cube/Repository/STM32Cube_FW_F4_V1.26.2/Middlewares/Third_Party/LwIP/src/core\mem.c **** #define LWIP_MEM_LFREE_VOLATILE
 417:c:/Users/Black_Life/STM32Cube/Repository/STM32Cube_FW_F4_V1.26.2/Middlewares/Third_Party/LwIP/src/core\mem.c **** 
 418:c:/Users/Black_Life/STM32Cube/Repository/STM32Cube_FW_F4_V1.26.2/Middlewares/Third_Party/LwIP/src/core\mem.c **** #endif /* LWIP_ALLOW_MEM_FREE_FROM_OTHER_CONTEXT */
 419:c:/Users/Black_Life/STM32Cube/Repository/STM32Cube_FW_F4_V1.26.2/Middlewares/Third_Party/LwIP/src/core\mem.c **** 
 420:c:/Users/Black_Life/STM32Cube/Repository/STM32Cube_FW_F4_V1.26.2/Middlewares/Third_Party/LwIP/src/core\mem.c **** /** pointer to the lowest free block, this is used for faster search */
 421:c:/Users/Black_Life/STM32Cube/Repository/STM32Cube_FW_F4_V1.26.2/Middlewares/Third_Party/LwIP/src/core\mem.c **** static struct mem * LWIP_MEM_LFREE_VOLATILE lfree;
 422:c:/Users/Black_Life/STM32Cube/Repository/STM32Cube_FW_F4_V1.26.2/Middlewares/Third_Party/LwIP/src/core\mem.c **** 
 423:c:/Users/Black_Life/STM32Cube/Repository/STM32Cube_FW_F4_V1.26.2/Middlewares/Third_Party/LwIP/src/core\mem.c **** #if MEM_SANITY_CHECK
 424:c:/Users/Black_Life/STM32Cube/Repository/STM32Cube_FW_F4_V1.26.2/Middlewares/Third_Party/LwIP/src/core\mem.c **** static void mem_sanity(void);
 425:c:/Users/Black_Life/STM32Cube/Repository/STM32Cube_FW_F4_V1.26.2/Middlewares/Third_Party/LwIP/src/core\mem.c **** #define MEM_SANITY() mem_sanity()
 426:c:/Users/Black_Life/STM32Cube/Repository/STM32Cube_FW_F4_V1.26.2/Middlewares/Third_Party/LwIP/src/core\mem.c **** #else
 427:c:/Users/Black_Life/STM32Cube/Repository/STM32Cube_FW_F4_V1.26.2/Middlewares/Third_Party/LwIP/src/core\mem.c **** #define MEM_SANITY()
 428:c:/Users/Black_Life/STM32Cube/Repository/STM32Cube_FW_F4_V1.26.2/Middlewares/Third_Party/LwIP/src/core\mem.c **** #endif
 429:c:/Users/Black_Life/STM32Cube/Repository/STM32Cube_FW_F4_V1.26.2/Middlewares/Third_Party/LwIP/src/core\mem.c **** 
ARM GAS  C:\Users\BLACK_~1\AppData\Local\Temp\ccnOKFK8.s 			page 9


 430:c:/Users/Black_Life/STM32Cube/Repository/STM32Cube_FW_F4_V1.26.2/Middlewares/Third_Party/LwIP/src/core\mem.c **** #if MEM_OVERFLOW_CHECK
 431:c:/Users/Black_Life/STM32Cube/Repository/STM32Cube_FW_F4_V1.26.2/Middlewares/Third_Party/LwIP/src/core\mem.c **** static void
 432:c:/Users/Black_Life/STM32Cube/Repository/STM32Cube_FW_F4_V1.26.2/Middlewares/Third_Party/LwIP/src/core\mem.c **** mem_overflow_init_element(struct mem *mem, mem_size_t user_size)
 433:c:/Users/Black_Life/STM32Cube/Repository/STM32Cube_FW_F4_V1.26.2/Middlewares/Third_Party/LwIP/src/core\mem.c **** {
 434:c:/Users/Black_Life/STM32Cube/Repository/STM32Cube_FW_F4_V1.26.2/Middlewares/Third_Party/LwIP/src/core\mem.c ****   void *p = (u8_t *)mem + SIZEOF_STRUCT_MEM + MEM_SANITY_OFFSET;
 435:c:/Users/Black_Life/STM32Cube/Repository/STM32Cube_FW_F4_V1.26.2/Middlewares/Third_Party/LwIP/src/core\mem.c ****   mem->user_size = user_size;
 436:c:/Users/Black_Life/STM32Cube/Repository/STM32Cube_FW_F4_V1.26.2/Middlewares/Third_Party/LwIP/src/core\mem.c ****   mem_overflow_init_raw(p, user_size);
 437:c:/Users/Black_Life/STM32Cube/Repository/STM32Cube_FW_F4_V1.26.2/Middlewares/Third_Party/LwIP/src/core\mem.c **** }
 438:c:/Users/Black_Life/STM32Cube/Repository/STM32Cube_FW_F4_V1.26.2/Middlewares/Third_Party/LwIP/src/core\mem.c **** 
 439:c:/Users/Black_Life/STM32Cube/Repository/STM32Cube_FW_F4_V1.26.2/Middlewares/Third_Party/LwIP/src/core\mem.c **** static void
 440:c:/Users/Black_Life/STM32Cube/Repository/STM32Cube_FW_F4_V1.26.2/Middlewares/Third_Party/LwIP/src/core\mem.c **** mem_overflow_check_element(struct mem *mem)
 441:c:/Users/Black_Life/STM32Cube/Repository/STM32Cube_FW_F4_V1.26.2/Middlewares/Third_Party/LwIP/src/core\mem.c **** {
 442:c:/Users/Black_Life/STM32Cube/Repository/STM32Cube_FW_F4_V1.26.2/Middlewares/Third_Party/LwIP/src/core\mem.c ****   void *p = (u8_t *)mem + SIZEOF_STRUCT_MEM + MEM_SANITY_OFFSET;
 443:c:/Users/Black_Life/STM32Cube/Repository/STM32Cube_FW_F4_V1.26.2/Middlewares/Third_Party/LwIP/src/core\mem.c ****   mem_overflow_check_raw(p, mem->user_size, "heap", "");
 444:c:/Users/Black_Life/STM32Cube/Repository/STM32Cube_FW_F4_V1.26.2/Middlewares/Third_Party/LwIP/src/core\mem.c **** }
 445:c:/Users/Black_Life/STM32Cube/Repository/STM32Cube_FW_F4_V1.26.2/Middlewares/Third_Party/LwIP/src/core\mem.c **** #else /* MEM_OVERFLOW_CHECK */
 446:c:/Users/Black_Life/STM32Cube/Repository/STM32Cube_FW_F4_V1.26.2/Middlewares/Third_Party/LwIP/src/core\mem.c **** #define mem_overflow_init_element(mem, size)
 447:c:/Users/Black_Life/STM32Cube/Repository/STM32Cube_FW_F4_V1.26.2/Middlewares/Third_Party/LwIP/src/core\mem.c **** #define mem_overflow_check_element(mem)
 448:c:/Users/Black_Life/STM32Cube/Repository/STM32Cube_FW_F4_V1.26.2/Middlewares/Third_Party/LwIP/src/core\mem.c **** #endif /* MEM_OVERFLOW_CHECK */
 449:c:/Users/Black_Life/STM32Cube/Repository/STM32Cube_FW_F4_V1.26.2/Middlewares/Third_Party/LwIP/src/core\mem.c **** 
 450:c:/Users/Black_Life/STM32Cube/Repository/STM32Cube_FW_F4_V1.26.2/Middlewares/Third_Party/LwIP/src/core\mem.c **** static struct mem *
 451:c:/Users/Black_Life/STM32Cube/Repository/STM32Cube_FW_F4_V1.26.2/Middlewares/Third_Party/LwIP/src/core\mem.c **** ptr_to_mem(mem_size_t ptr)
 452:c:/Users/Black_Life/STM32Cube/Repository/STM32Cube_FW_F4_V1.26.2/Middlewares/Third_Party/LwIP/src/core\mem.c **** {
  29              		.loc 1 452 1 view -0
  30              		.cfi_startproc
  31              		@ args = 0, pretend = 0, frame = 0
  32              		@ frame_needed = 0, uses_anonymous_args = 0
  33              		@ link register save eliminated.
 453:c:/Users/Black_Life/STM32Cube/Repository/STM32Cube_FW_F4_V1.26.2/Middlewares/Third_Party/LwIP/src/core\mem.c ****   return (struct mem *)(void *)&ram[ptr];
  34              		.loc 1 453 3 view .LVU1
  35              		.loc 1 453 32 is_stmt 0 view .LVU2
  36 0000 014B     		ldr	r3, .L2
  37 0002 1B68     		ldr	r3, [r3]
 454:c:/Users/Black_Life/STM32Cube/Repository/STM32Cube_FW_F4_V1.26.2/Middlewares/Third_Party/LwIP/src/core\mem.c **** }
  38              		.loc 1 454 1 view .LVU3
  39 0004 1844     		add	r0, r0, r3
  40              	.LVL1:
  41              		.loc 1 454 1 view .LVU4
  42 0006 7047     		bx	lr
  43              	.L3:
  44              		.align	2
  45              	.L2:
  46 0008 00000000 		.word	.LANCHOR0
  47              		.cfi_endproc
  48              	.LFE156:
  50              		.section	.text.mem_to_ptr,"ax",%progbits
  51              		.align	1
  52              		.syntax unified
  53              		.thumb
  54              		.thumb_func
  56              	mem_to_ptr:
  57              	.LVL2:
  58              	.LFB157:
 455:c:/Users/Black_Life/STM32Cube/Repository/STM32Cube_FW_F4_V1.26.2/Middlewares/Third_Party/LwIP/src/core\mem.c **** 
 456:c:/Users/Black_Life/STM32Cube/Repository/STM32Cube_FW_F4_V1.26.2/Middlewares/Third_Party/LwIP/src/core\mem.c **** static mem_size_t
 457:c:/Users/Black_Life/STM32Cube/Repository/STM32Cube_FW_F4_V1.26.2/Middlewares/Third_Party/LwIP/src/core\mem.c **** mem_to_ptr(void *mem)
 458:c:/Users/Black_Life/STM32Cube/Repository/STM32Cube_FW_F4_V1.26.2/Middlewares/Third_Party/LwIP/src/core\mem.c **** {
ARM GAS  C:\Users\BLACK_~1\AppData\Local\Temp\ccnOKFK8.s 			page 10


  59              		.loc 1 458 1 is_stmt 1 view -0
  60              		.cfi_startproc
  61              		@ args = 0, pretend = 0, frame = 0
  62              		@ frame_needed = 0, uses_anonymous_args = 0
  63              		@ link register save eliminated.
 459:c:/Users/Black_Life/STM32Cube/Repository/STM32Cube_FW_F4_V1.26.2/Middlewares/Third_Party/LwIP/src/core\mem.c ****   return (mem_size_t)((u8_t *)mem - ram);
  64              		.loc 1 459 3 view .LVU6
  65              		.loc 1 459 35 is_stmt 0 view .LVU7
  66 0000 024B     		ldr	r3, .L5
  67 0002 1B68     		ldr	r3, [r3]
  68 0004 C01A     		subs	r0, r0, r3
  69              	.LVL3:
 460:c:/Users/Black_Life/STM32Cube/Repository/STM32Cube_FW_F4_V1.26.2/Middlewares/Third_Party/LwIP/src/core\mem.c **** }
  70              		.loc 1 460 1 view .LVU8
  71 0006 80B2     		uxth	r0, r0
  72 0008 7047     		bx	lr
  73              	.L6:
  74 000a 00BF     		.align	2
  75              	.L5:
  76 000c 00000000 		.word	.LANCHOR0
  77              		.cfi_endproc
  78              	.LFE157:
  80              		.section	.text.mem_link_valid,"ax",%progbits
  81              		.align	1
  82              		.syntax unified
  83              		.thumb
  84              		.thumb_func
  86              	mem_link_valid:
  87              	.LVL4:
  88              	.LFB160:
 461:c:/Users/Black_Life/STM32Cube/Repository/STM32Cube_FW_F4_V1.26.2/Middlewares/Third_Party/LwIP/src/core\mem.c **** 
 462:c:/Users/Black_Life/STM32Cube/Repository/STM32Cube_FW_F4_V1.26.2/Middlewares/Third_Party/LwIP/src/core\mem.c **** /**
 463:c:/Users/Black_Life/STM32Cube/Repository/STM32Cube_FW_F4_V1.26.2/Middlewares/Third_Party/LwIP/src/core\mem.c ****  * "Plug holes" by combining adjacent empty struct mems.
 464:c:/Users/Black_Life/STM32Cube/Repository/STM32Cube_FW_F4_V1.26.2/Middlewares/Third_Party/LwIP/src/core\mem.c ****  * After this function is through, there should not exist
 465:c:/Users/Black_Life/STM32Cube/Repository/STM32Cube_FW_F4_V1.26.2/Middlewares/Third_Party/LwIP/src/core\mem.c ****  * one empty struct mem pointing to another empty struct mem.
 466:c:/Users/Black_Life/STM32Cube/Repository/STM32Cube_FW_F4_V1.26.2/Middlewares/Third_Party/LwIP/src/core\mem.c ****  *
 467:c:/Users/Black_Life/STM32Cube/Repository/STM32Cube_FW_F4_V1.26.2/Middlewares/Third_Party/LwIP/src/core\mem.c ****  * @param mem this points to a struct mem which just has been freed
 468:c:/Users/Black_Life/STM32Cube/Repository/STM32Cube_FW_F4_V1.26.2/Middlewares/Third_Party/LwIP/src/core\mem.c ****  * @internal this function is only called by mem_free() and mem_trim()
 469:c:/Users/Black_Life/STM32Cube/Repository/STM32Cube_FW_F4_V1.26.2/Middlewares/Third_Party/LwIP/src/core\mem.c ****  *
 470:c:/Users/Black_Life/STM32Cube/Repository/STM32Cube_FW_F4_V1.26.2/Middlewares/Third_Party/LwIP/src/core\mem.c ****  * This assumes access to the heap is protected by the calling function
 471:c:/Users/Black_Life/STM32Cube/Repository/STM32Cube_FW_F4_V1.26.2/Middlewares/Third_Party/LwIP/src/core\mem.c ****  * already.
 472:c:/Users/Black_Life/STM32Cube/Repository/STM32Cube_FW_F4_V1.26.2/Middlewares/Third_Party/LwIP/src/core\mem.c ****  */
 473:c:/Users/Black_Life/STM32Cube/Repository/STM32Cube_FW_F4_V1.26.2/Middlewares/Third_Party/LwIP/src/core\mem.c **** static void
 474:c:/Users/Black_Life/STM32Cube/Repository/STM32Cube_FW_F4_V1.26.2/Middlewares/Third_Party/LwIP/src/core\mem.c **** plug_holes(struct mem *mem)
 475:c:/Users/Black_Life/STM32Cube/Repository/STM32Cube_FW_F4_V1.26.2/Middlewares/Third_Party/LwIP/src/core\mem.c **** {
 476:c:/Users/Black_Life/STM32Cube/Repository/STM32Cube_FW_F4_V1.26.2/Middlewares/Third_Party/LwIP/src/core\mem.c ****   struct mem *nmem;
 477:c:/Users/Black_Life/STM32Cube/Repository/STM32Cube_FW_F4_V1.26.2/Middlewares/Third_Party/LwIP/src/core\mem.c ****   struct mem *pmem;
 478:c:/Users/Black_Life/STM32Cube/Repository/STM32Cube_FW_F4_V1.26.2/Middlewares/Third_Party/LwIP/src/core\mem.c **** 
 479:c:/Users/Black_Life/STM32Cube/Repository/STM32Cube_FW_F4_V1.26.2/Middlewares/Third_Party/LwIP/src/core\mem.c ****   LWIP_ASSERT("plug_holes: mem >= ram", (u8_t *)mem >= ram);
 480:c:/Users/Black_Life/STM32Cube/Repository/STM32Cube_FW_F4_V1.26.2/Middlewares/Third_Party/LwIP/src/core\mem.c ****   LWIP_ASSERT("plug_holes: mem < ram_end", (u8_t *)mem < (u8_t *)ram_end);
 481:c:/Users/Black_Life/STM32Cube/Repository/STM32Cube_FW_F4_V1.26.2/Middlewares/Third_Party/LwIP/src/core\mem.c ****   LWIP_ASSERT("plug_holes: mem->used == 0", mem->used == 0);
 482:c:/Users/Black_Life/STM32Cube/Repository/STM32Cube_FW_F4_V1.26.2/Middlewares/Third_Party/LwIP/src/core\mem.c **** 
 483:c:/Users/Black_Life/STM32Cube/Repository/STM32Cube_FW_F4_V1.26.2/Middlewares/Third_Party/LwIP/src/core\mem.c ****   /* plug hole forward */
 484:c:/Users/Black_Life/STM32Cube/Repository/STM32Cube_FW_F4_V1.26.2/Middlewares/Third_Party/LwIP/src/core\mem.c ****   LWIP_ASSERT("plug_holes: mem->next <= MEM_SIZE_ALIGNED", mem->next <= MEM_SIZE_ALIGNED);
 485:c:/Users/Black_Life/STM32Cube/Repository/STM32Cube_FW_F4_V1.26.2/Middlewares/Third_Party/LwIP/src/core\mem.c **** 
 486:c:/Users/Black_Life/STM32Cube/Repository/STM32Cube_FW_F4_V1.26.2/Middlewares/Third_Party/LwIP/src/core\mem.c ****   nmem = ptr_to_mem(mem->next);
 487:c:/Users/Black_Life/STM32Cube/Repository/STM32Cube_FW_F4_V1.26.2/Middlewares/Third_Party/LwIP/src/core\mem.c ****   if (mem != nmem && nmem->used == 0 && (u8_t *)nmem != (u8_t *)ram_end) {
ARM GAS  C:\Users\BLACK_~1\AppData\Local\Temp\ccnOKFK8.s 			page 11


 488:c:/Users/Black_Life/STM32Cube/Repository/STM32Cube_FW_F4_V1.26.2/Middlewares/Third_Party/LwIP/src/core\mem.c ****     /* if mem->next is unused and not end of ram, combine mem and mem->next */
 489:c:/Users/Black_Life/STM32Cube/Repository/STM32Cube_FW_F4_V1.26.2/Middlewares/Third_Party/LwIP/src/core\mem.c ****     if (lfree == nmem) {
 490:c:/Users/Black_Life/STM32Cube/Repository/STM32Cube_FW_F4_V1.26.2/Middlewares/Third_Party/LwIP/src/core\mem.c ****       lfree = mem;
 491:c:/Users/Black_Life/STM32Cube/Repository/STM32Cube_FW_F4_V1.26.2/Middlewares/Third_Party/LwIP/src/core\mem.c ****     }
 492:c:/Users/Black_Life/STM32Cube/Repository/STM32Cube_FW_F4_V1.26.2/Middlewares/Third_Party/LwIP/src/core\mem.c ****     mem->next = nmem->next;
 493:c:/Users/Black_Life/STM32Cube/Repository/STM32Cube_FW_F4_V1.26.2/Middlewares/Third_Party/LwIP/src/core\mem.c ****     if (nmem->next != MEM_SIZE_ALIGNED) {
 494:c:/Users/Black_Life/STM32Cube/Repository/STM32Cube_FW_F4_V1.26.2/Middlewares/Third_Party/LwIP/src/core\mem.c ****       ptr_to_mem(nmem->next)->prev = mem_to_ptr(mem);
 495:c:/Users/Black_Life/STM32Cube/Repository/STM32Cube_FW_F4_V1.26.2/Middlewares/Third_Party/LwIP/src/core\mem.c ****     }
 496:c:/Users/Black_Life/STM32Cube/Repository/STM32Cube_FW_F4_V1.26.2/Middlewares/Third_Party/LwIP/src/core\mem.c ****   }
 497:c:/Users/Black_Life/STM32Cube/Repository/STM32Cube_FW_F4_V1.26.2/Middlewares/Third_Party/LwIP/src/core\mem.c **** 
 498:c:/Users/Black_Life/STM32Cube/Repository/STM32Cube_FW_F4_V1.26.2/Middlewares/Third_Party/LwIP/src/core\mem.c ****   /* plug hole backward */
 499:c:/Users/Black_Life/STM32Cube/Repository/STM32Cube_FW_F4_V1.26.2/Middlewares/Third_Party/LwIP/src/core\mem.c ****   pmem = ptr_to_mem(mem->prev);
 500:c:/Users/Black_Life/STM32Cube/Repository/STM32Cube_FW_F4_V1.26.2/Middlewares/Third_Party/LwIP/src/core\mem.c ****   if (pmem != mem && pmem->used == 0) {
 501:c:/Users/Black_Life/STM32Cube/Repository/STM32Cube_FW_F4_V1.26.2/Middlewares/Third_Party/LwIP/src/core\mem.c ****     /* if mem->prev is unused, combine mem and mem->prev */
 502:c:/Users/Black_Life/STM32Cube/Repository/STM32Cube_FW_F4_V1.26.2/Middlewares/Third_Party/LwIP/src/core\mem.c ****     if (lfree == mem) {
 503:c:/Users/Black_Life/STM32Cube/Repository/STM32Cube_FW_F4_V1.26.2/Middlewares/Third_Party/LwIP/src/core\mem.c ****       lfree = pmem;
 504:c:/Users/Black_Life/STM32Cube/Repository/STM32Cube_FW_F4_V1.26.2/Middlewares/Third_Party/LwIP/src/core\mem.c ****     }
 505:c:/Users/Black_Life/STM32Cube/Repository/STM32Cube_FW_F4_V1.26.2/Middlewares/Third_Party/LwIP/src/core\mem.c ****     pmem->next = mem->next;
 506:c:/Users/Black_Life/STM32Cube/Repository/STM32Cube_FW_F4_V1.26.2/Middlewares/Third_Party/LwIP/src/core\mem.c ****     if (mem->next != MEM_SIZE_ALIGNED) {
 507:c:/Users/Black_Life/STM32Cube/Repository/STM32Cube_FW_F4_V1.26.2/Middlewares/Third_Party/LwIP/src/core\mem.c ****       ptr_to_mem(mem->next)->prev = mem_to_ptr(pmem);
 508:c:/Users/Black_Life/STM32Cube/Repository/STM32Cube_FW_F4_V1.26.2/Middlewares/Third_Party/LwIP/src/core\mem.c ****     }
 509:c:/Users/Black_Life/STM32Cube/Repository/STM32Cube_FW_F4_V1.26.2/Middlewares/Third_Party/LwIP/src/core\mem.c ****   }
 510:c:/Users/Black_Life/STM32Cube/Repository/STM32Cube_FW_F4_V1.26.2/Middlewares/Third_Party/LwIP/src/core\mem.c **** }
 511:c:/Users/Black_Life/STM32Cube/Repository/STM32Cube_FW_F4_V1.26.2/Middlewares/Third_Party/LwIP/src/core\mem.c **** 
 512:c:/Users/Black_Life/STM32Cube/Repository/STM32Cube_FW_F4_V1.26.2/Middlewares/Third_Party/LwIP/src/core\mem.c **** /**
 513:c:/Users/Black_Life/STM32Cube/Repository/STM32Cube_FW_F4_V1.26.2/Middlewares/Third_Party/LwIP/src/core\mem.c ****  * Zero the heap and initialize start, end and lowest-free
 514:c:/Users/Black_Life/STM32Cube/Repository/STM32Cube_FW_F4_V1.26.2/Middlewares/Third_Party/LwIP/src/core\mem.c ****  */
 515:c:/Users/Black_Life/STM32Cube/Repository/STM32Cube_FW_F4_V1.26.2/Middlewares/Third_Party/LwIP/src/core\mem.c **** void
 516:c:/Users/Black_Life/STM32Cube/Repository/STM32Cube_FW_F4_V1.26.2/Middlewares/Third_Party/LwIP/src/core\mem.c **** mem_init(void)
 517:c:/Users/Black_Life/STM32Cube/Repository/STM32Cube_FW_F4_V1.26.2/Middlewares/Third_Party/LwIP/src/core\mem.c **** {
 518:c:/Users/Black_Life/STM32Cube/Repository/STM32Cube_FW_F4_V1.26.2/Middlewares/Third_Party/LwIP/src/core\mem.c ****   struct mem *mem;
 519:c:/Users/Black_Life/STM32Cube/Repository/STM32Cube_FW_F4_V1.26.2/Middlewares/Third_Party/LwIP/src/core\mem.c **** 
 520:c:/Users/Black_Life/STM32Cube/Repository/STM32Cube_FW_F4_V1.26.2/Middlewares/Third_Party/LwIP/src/core\mem.c ****   LWIP_ASSERT("Sanity check alignment",
 521:c:/Users/Black_Life/STM32Cube/Repository/STM32Cube_FW_F4_V1.26.2/Middlewares/Third_Party/LwIP/src/core\mem.c ****               (SIZEOF_STRUCT_MEM & (MEM_ALIGNMENT - 1)) == 0);
 522:c:/Users/Black_Life/STM32Cube/Repository/STM32Cube_FW_F4_V1.26.2/Middlewares/Third_Party/LwIP/src/core\mem.c **** 
 523:c:/Users/Black_Life/STM32Cube/Repository/STM32Cube_FW_F4_V1.26.2/Middlewares/Third_Party/LwIP/src/core\mem.c ****   /* align the heap */
 524:c:/Users/Black_Life/STM32Cube/Repository/STM32Cube_FW_F4_V1.26.2/Middlewares/Third_Party/LwIP/src/core\mem.c ****   ram = (u8_t *)LWIP_MEM_ALIGN(LWIP_RAM_HEAP_POINTER);
 525:c:/Users/Black_Life/STM32Cube/Repository/STM32Cube_FW_F4_V1.26.2/Middlewares/Third_Party/LwIP/src/core\mem.c ****   /* initialize the start of the heap */
 526:c:/Users/Black_Life/STM32Cube/Repository/STM32Cube_FW_F4_V1.26.2/Middlewares/Third_Party/LwIP/src/core\mem.c ****   mem = (struct mem *)(void *)ram;
 527:c:/Users/Black_Life/STM32Cube/Repository/STM32Cube_FW_F4_V1.26.2/Middlewares/Third_Party/LwIP/src/core\mem.c ****   mem->next = MEM_SIZE_ALIGNED;
 528:c:/Users/Black_Life/STM32Cube/Repository/STM32Cube_FW_F4_V1.26.2/Middlewares/Third_Party/LwIP/src/core\mem.c ****   mem->prev = 0;
 529:c:/Users/Black_Life/STM32Cube/Repository/STM32Cube_FW_F4_V1.26.2/Middlewares/Third_Party/LwIP/src/core\mem.c ****   mem->used = 0;
 530:c:/Users/Black_Life/STM32Cube/Repository/STM32Cube_FW_F4_V1.26.2/Middlewares/Third_Party/LwIP/src/core\mem.c ****   /* initialize the end of the heap */
 531:c:/Users/Black_Life/STM32Cube/Repository/STM32Cube_FW_F4_V1.26.2/Middlewares/Third_Party/LwIP/src/core\mem.c ****   ram_end = ptr_to_mem(MEM_SIZE_ALIGNED);
 532:c:/Users/Black_Life/STM32Cube/Repository/STM32Cube_FW_F4_V1.26.2/Middlewares/Third_Party/LwIP/src/core\mem.c ****   ram_end->used = 1;
 533:c:/Users/Black_Life/STM32Cube/Repository/STM32Cube_FW_F4_V1.26.2/Middlewares/Third_Party/LwIP/src/core\mem.c ****   ram_end->next = MEM_SIZE_ALIGNED;
 534:c:/Users/Black_Life/STM32Cube/Repository/STM32Cube_FW_F4_V1.26.2/Middlewares/Third_Party/LwIP/src/core\mem.c ****   ram_end->prev = MEM_SIZE_ALIGNED;
 535:c:/Users/Black_Life/STM32Cube/Repository/STM32Cube_FW_F4_V1.26.2/Middlewares/Third_Party/LwIP/src/core\mem.c ****   MEM_SANITY();
 536:c:/Users/Black_Life/STM32Cube/Repository/STM32Cube_FW_F4_V1.26.2/Middlewares/Third_Party/LwIP/src/core\mem.c **** 
 537:c:/Users/Black_Life/STM32Cube/Repository/STM32Cube_FW_F4_V1.26.2/Middlewares/Third_Party/LwIP/src/core\mem.c ****   /* initialize the lowest-free pointer to the start of the heap */
 538:c:/Users/Black_Life/STM32Cube/Repository/STM32Cube_FW_F4_V1.26.2/Middlewares/Third_Party/LwIP/src/core\mem.c ****   lfree = (struct mem *)(void *)ram;
 539:c:/Users/Black_Life/STM32Cube/Repository/STM32Cube_FW_F4_V1.26.2/Middlewares/Third_Party/LwIP/src/core\mem.c **** 
 540:c:/Users/Black_Life/STM32Cube/Repository/STM32Cube_FW_F4_V1.26.2/Middlewares/Third_Party/LwIP/src/core\mem.c ****   MEM_STATS_AVAIL(avail, MEM_SIZE_ALIGNED);
 541:c:/Users/Black_Life/STM32Cube/Repository/STM32Cube_FW_F4_V1.26.2/Middlewares/Third_Party/LwIP/src/core\mem.c **** 
 542:c:/Users/Black_Life/STM32Cube/Repository/STM32Cube_FW_F4_V1.26.2/Middlewares/Third_Party/LwIP/src/core\mem.c ****   if (sys_mutex_new(&mem_mutex) != ERR_OK) {
 543:c:/Users/Black_Life/STM32Cube/Repository/STM32Cube_FW_F4_V1.26.2/Middlewares/Third_Party/LwIP/src/core\mem.c ****     LWIP_ASSERT("failed to create mem_mutex", 0);
 544:c:/Users/Black_Life/STM32Cube/Repository/STM32Cube_FW_F4_V1.26.2/Middlewares/Third_Party/LwIP/src/core\mem.c ****   }
ARM GAS  C:\Users\BLACK_~1\AppData\Local\Temp\ccnOKFK8.s 			page 12


 545:c:/Users/Black_Life/STM32Cube/Repository/STM32Cube_FW_F4_V1.26.2/Middlewares/Third_Party/LwIP/src/core\mem.c **** }
 546:c:/Users/Black_Life/STM32Cube/Repository/STM32Cube_FW_F4_V1.26.2/Middlewares/Third_Party/LwIP/src/core\mem.c **** 
 547:c:/Users/Black_Life/STM32Cube/Repository/STM32Cube_FW_F4_V1.26.2/Middlewares/Third_Party/LwIP/src/core\mem.c **** /* Check if a struct mem is correctly linked.
 548:c:/Users/Black_Life/STM32Cube/Repository/STM32Cube_FW_F4_V1.26.2/Middlewares/Third_Party/LwIP/src/core\mem.c ****  * If not, double-free is a possible reason.
 549:c:/Users/Black_Life/STM32Cube/Repository/STM32Cube_FW_F4_V1.26.2/Middlewares/Third_Party/LwIP/src/core\mem.c ****  */
 550:c:/Users/Black_Life/STM32Cube/Repository/STM32Cube_FW_F4_V1.26.2/Middlewares/Third_Party/LwIP/src/core\mem.c **** static int
 551:c:/Users/Black_Life/STM32Cube/Repository/STM32Cube_FW_F4_V1.26.2/Middlewares/Third_Party/LwIP/src/core\mem.c **** mem_link_valid(struct mem *mem)
 552:c:/Users/Black_Life/STM32Cube/Repository/STM32Cube_FW_F4_V1.26.2/Middlewares/Third_Party/LwIP/src/core\mem.c **** {
  89              		.loc 1 552 1 is_stmt 1 view -0
  90              		.cfi_startproc
  91              		@ args = 0, pretend = 0, frame = 0
  92              		@ frame_needed = 0, uses_anonymous_args = 0
  93              		.loc 1 552 1 is_stmt 0 view .LVU10
  94 0000 F8B5     		push	{r3, r4, r5, r6, r7, lr}
  95              	.LCFI0:
  96              		.cfi_def_cfa_offset 24
  97              		.cfi_offset 3, -24
  98              		.cfi_offset 4, -20
  99              		.cfi_offset 5, -16
 100              		.cfi_offset 6, -12
 101              		.cfi_offset 7, -8
 102              		.cfi_offset 14, -4
 103 0002 0446     		mov	r4, r0
 553:c:/Users/Black_Life/STM32Cube/Repository/STM32Cube_FW_F4_V1.26.2/Middlewares/Third_Party/LwIP/src/core\mem.c ****   struct mem *nmem, *pmem;
 104              		.loc 1 553 3 is_stmt 1 view .LVU11
 554:c:/Users/Black_Life/STM32Cube/Repository/STM32Cube_FW_F4_V1.26.2/Middlewares/Third_Party/LwIP/src/core\mem.c ****   mem_size_t rmem_idx;
 105              		.loc 1 554 3 view .LVU12
 555:c:/Users/Black_Life/STM32Cube/Repository/STM32Cube_FW_F4_V1.26.2/Middlewares/Third_Party/LwIP/src/core\mem.c ****   rmem_idx = mem_to_ptr(mem);
 106              		.loc 1 555 3 view .LVU13
 107              		.loc 1 555 14 is_stmt 0 view .LVU14
 108 0004 FFF7FEFF 		bl	mem_to_ptr
 109              	.LVL5:
 110              		.loc 1 555 14 view .LVU15
 111 0008 0746     		mov	r7, r0
 112              	.LVL6:
 556:c:/Users/Black_Life/STM32Cube/Repository/STM32Cube_FW_F4_V1.26.2/Middlewares/Third_Party/LwIP/src/core\mem.c ****   nmem = ptr_to_mem(mem->next);
 113              		.loc 1 556 3 is_stmt 1 view .LVU16
 114              		.loc 1 556 10 is_stmt 0 view .LVU17
 115 000a 2588     		ldrh	r5, [r4]
 116 000c 2846     		mov	r0, r5
 117 000e FFF7FEFF 		bl	ptr_to_mem
 118              	.LVL7:
 119 0012 0646     		mov	r6, r0
 120              	.LVL8:
 557:c:/Users/Black_Life/STM32Cube/Repository/STM32Cube_FW_F4_V1.26.2/Middlewares/Third_Party/LwIP/src/core\mem.c ****   pmem = ptr_to_mem(mem->prev);
 121              		.loc 1 557 3 is_stmt 1 view .LVU18
 122              		.loc 1 557 10 is_stmt 0 view .LVU19
 123 0014 6488     		ldrh	r4, [r4, #2]
 124              	.LVL9:
 125              		.loc 1 557 10 view .LVU20
 126 0016 2046     		mov	r0, r4
 127              	.LVL10:
 128              		.loc 1 557 10 view .LVU21
 129 0018 FFF7FEFF 		bl	ptr_to_mem
 130              	.LVL11:
 558:c:/Users/Black_Life/STM32Cube/Repository/STM32Cube_FW_F4_V1.26.2/Middlewares/Third_Party/LwIP/src/core\mem.c ****   if ((mem->next > MEM_SIZE_ALIGNED) || (mem->prev > MEM_SIZE_ALIGNED) ||
 131              		.loc 1 558 3 is_stmt 1 view .LVU22
ARM GAS  C:\Users\BLACK_~1\AppData\Local\Temp\ccnOKFK8.s 			page 13


 132              		.loc 1 558 6 is_stmt 0 view .LVU23
 133 001c B5F5C86F 		cmp	r5, #1600
 134 0020 10D8     		bhi	.L10
 135              		.loc 1 558 38 discriminator 1 view .LVU24
 136 0022 B4F5C86F 		cmp	r4, #1600
 137 0026 0FD8     		bhi	.L11
 138              		.loc 1 558 72 discriminator 2 view .LVU25
 139 0028 BC42     		cmp	r4, r7
 140 002a 02D0     		beq	.L9
 559:c:/Users/Black_Life/STM32Cube/Repository/STM32Cube_FW_F4_V1.26.2/Middlewares/Third_Party/LwIP/src/core\mem.c ****       ((mem->prev != rmem_idx) && (pmem->next != rmem_idx)) ||
 141              		.loc 1 559 40 view .LVU26
 142 002c 0388     		ldrh	r3, [r0]
 143              		.loc 1 559 32 view .LVU27
 144 002e BB42     		cmp	r3, r7
 145 0030 0CD1     		bne	.L12
 146              	.L9:
 560:c:/Users/Black_Life/STM32Cube/Repository/STM32Cube_FW_F4_V1.26.2/Middlewares/Third_Party/LwIP/src/core\mem.c ****       ((nmem != ram_end) && (nmem->prev != rmem_idx))) {
 147              		.loc 1 560 14 discriminator 1 view .LVU28
 148 0032 094B     		ldr	r3, .L16
 149 0034 1B68     		ldr	r3, [r3]
 559:c:/Users/Black_Life/STM32Cube/Repository/STM32Cube_FW_F4_V1.26.2/Middlewares/Third_Party/LwIP/src/core\mem.c ****       ((mem->prev != rmem_idx) && (pmem->next != rmem_idx)) ||
 150              		.loc 1 559 61 discriminator 1 view .LVU29
 151 0036 B342     		cmp	r3, r6
 152 0038 0AD0     		beq	.L13
 153              		.loc 1 560 34 view .LVU30
 154 003a 7388     		ldrh	r3, [r6, #2]
 155              		.loc 1 560 26 view .LVU31
 156 003c BB42     		cmp	r3, r7
 157 003e 09D1     		bne	.L14
 561:c:/Users/Black_Life/STM32Cube/Repository/STM32Cube_FW_F4_V1.26.2/Middlewares/Third_Party/LwIP/src/core\mem.c ****     return 0;
 562:c:/Users/Black_Life/STM32Cube/Repository/STM32Cube_FW_F4_V1.26.2/Middlewares/Third_Party/LwIP/src/core\mem.c ****   }
 563:c:/Users/Black_Life/STM32Cube/Repository/STM32Cube_FW_F4_V1.26.2/Middlewares/Third_Party/LwIP/src/core\mem.c ****   return 1;
 158              		.loc 1 563 10 view .LVU32
 159 0040 0120     		movs	r0, #1
 160              	.LVL12:
 161              		.loc 1 563 10 view .LVU33
 162 0042 00E0     		b	.L7
 163              	.LVL13:
 164              	.L10:
 561:c:/Users/Black_Life/STM32Cube/Repository/STM32Cube_FW_F4_V1.26.2/Middlewares/Third_Party/LwIP/src/core\mem.c ****     return 0;
 165              		.loc 1 561 12 view .LVU34
 166 0044 0020     		movs	r0, #0
 167              	.LVL14:
 168              	.L7:
 564:c:/Users/Black_Life/STM32Cube/Repository/STM32Cube_FW_F4_V1.26.2/Middlewares/Third_Party/LwIP/src/core\mem.c **** }
 169              		.loc 1 564 1 view .LVU35
 170 0046 F8BD     		pop	{r3, r4, r5, r6, r7, pc}
 171              	.LVL15:
 172              	.L11:
 561:c:/Users/Black_Life/STM32Cube/Repository/STM32Cube_FW_F4_V1.26.2/Middlewares/Third_Party/LwIP/src/core\mem.c ****     return 0;
 173              		.loc 1 561 12 view .LVU36
 174 0048 0020     		movs	r0, #0
 175              	.LVL16:
 561:c:/Users/Black_Life/STM32Cube/Repository/STM32Cube_FW_F4_V1.26.2/Middlewares/Third_Party/LwIP/src/core\mem.c ****     return 0;
 176              		.loc 1 561 12 view .LVU37
 177 004a FCE7     		b	.L7
 178              	.LVL17:
ARM GAS  C:\Users\BLACK_~1\AppData\Local\Temp\ccnOKFK8.s 			page 14


 179              	.L12:
 561:c:/Users/Black_Life/STM32Cube/Repository/STM32Cube_FW_F4_V1.26.2/Middlewares/Third_Party/LwIP/src/core\mem.c ****     return 0;
 180              		.loc 1 561 12 view .LVU38
 181 004c 0020     		movs	r0, #0
 182              	.LVL18:
 561:c:/Users/Black_Life/STM32Cube/Repository/STM32Cube_FW_F4_V1.26.2/Middlewares/Third_Party/LwIP/src/core\mem.c ****     return 0;
 183              		.loc 1 561 12 view .LVU39
 184 004e FAE7     		b	.L7
 185              	.LVL19:
 186              	.L13:
 563:c:/Users/Black_Life/STM32Cube/Repository/STM32Cube_FW_F4_V1.26.2/Middlewares/Third_Party/LwIP/src/core\mem.c **** }
 187              		.loc 1 563 10 view .LVU40
 188 0050 0120     		movs	r0, #1
 189              	.LVL20:
 563:c:/Users/Black_Life/STM32Cube/Repository/STM32Cube_FW_F4_V1.26.2/Middlewares/Third_Party/LwIP/src/core\mem.c **** }
 190              		.loc 1 563 10 view .LVU41
 191 0052 F8E7     		b	.L7
 192              	.LVL21:
 193              	.L14:
 561:c:/Users/Black_Life/STM32Cube/Repository/STM32Cube_FW_F4_V1.26.2/Middlewares/Third_Party/LwIP/src/core\mem.c ****     return 0;
 194              		.loc 1 561 12 view .LVU42
 195 0054 0020     		movs	r0, #0
 196              	.LVL22:
 561:c:/Users/Black_Life/STM32Cube/Repository/STM32Cube_FW_F4_V1.26.2/Middlewares/Third_Party/LwIP/src/core\mem.c ****     return 0;
 197              		.loc 1 561 12 view .LVU43
 198 0056 F6E7     		b	.L7
 199              	.L17:
 200              		.align	2
 201              	.L16:
 202 0058 00000000 		.word	.LANCHOR1
 203              		.cfi_endproc
 204              	.LFE160:
 206              		.section	.rodata.plug_holes.str1.4,"aMS",%progbits,1
 207              		.align	2
 208              	.LC0:
 209 0000 633A2F55 		.ascii	"c:/Users/Black_Life/STM32Cube/Repository/STM32Cube_"
 209      73657273 
 209      2F426C61 
 209      636B5F4C 
 209      6966652F 
 210 0033 46575F46 		.ascii	"FW_F4_V1.26.2/Middlewares/Third_Party/LwIP/src/core"
 210      345F5631 
 210      2E32362E 
 210      322F4D69 
 210      64646C65 
 211 0066 2F6D656D 		.ascii	"/mem.c\000"
 211      2E6300
 212 006d 000000   		.align	2
 213              	.LC1:
 214 0070 706C7567 		.ascii	"plug_holes: mem >= ram\000"
 214      5F686F6C 
 214      65733A20 
 214      6D656D20 
 214      3E3D2072 
 215 0087 00       		.align	2
 216              	.LC2:
 217 0088 41737365 		.ascii	"Assertion \"%s\" failed at line %d in %s\012\000"
ARM GAS  C:\Users\BLACK_~1\AppData\Local\Temp\ccnOKFK8.s 			page 15


 217      7274696F 
 217      6E202225 
 217      73222066 
 217      61696C65 
 218              		.align	2
 219              	.LC3:
 220 00b0 706C7567 		.ascii	"plug_holes: mem < ram_end\000"
 220      5F686F6C 
 220      65733A20 
 220      6D656D20 
 220      3C207261 
 221 00ca 0000     		.align	2
 222              	.LC4:
 223 00cc 706C7567 		.ascii	"plug_holes: mem->used == 0\000"
 223      5F686F6C 
 223      65733A20 
 223      6D656D2D 
 223      3E757365 
 224 00e7 00       		.align	2
 225              	.LC5:
 226 00e8 706C7567 		.ascii	"plug_holes: mem->next <= MEM_SIZE_ALIGNED\000"
 226      5F686F6C 
 226      65733A20 
 226      6D656D2D 
 226      3E6E6578 
 227              		.section	.text.plug_holes,"ax",%progbits
 228              		.align	1
 229              		.syntax unified
 230              		.thumb
 231              		.thumb_func
 233              	plug_holes:
 234              	.LVL23:
 235              	.LFB158:
 475:c:/Users/Black_Life/STM32Cube/Repository/STM32Cube_FW_F4_V1.26.2/Middlewares/Third_Party/LwIP/src/core\mem.c ****   struct mem *nmem;
 236              		.loc 1 475 1 is_stmt 1 view -0
 237              		.cfi_startproc
 238              		@ args = 0, pretend = 0, frame = 0
 239              		@ frame_needed = 0, uses_anonymous_args = 0
 475:c:/Users/Black_Life/STM32Cube/Repository/STM32Cube_FW_F4_V1.26.2/Middlewares/Third_Party/LwIP/src/core\mem.c ****   struct mem *nmem;
 240              		.loc 1 475 1 is_stmt 0 view .LVU45
 241 0000 38B5     		push	{r3, r4, r5, lr}
 242              	.LCFI1:
 243              		.cfi_def_cfa_offset 16
 244              		.cfi_offset 3, -16
 245              		.cfi_offset 4, -12
 246              		.cfi_offset 5, -8
 247              		.cfi_offset 14, -4
 248 0002 0446     		mov	r4, r0
 476:c:/Users/Black_Life/STM32Cube/Repository/STM32Cube_FW_F4_V1.26.2/Middlewares/Third_Party/LwIP/src/core\mem.c ****   struct mem *pmem;
 249              		.loc 1 476 3 is_stmt 1 view .LVU46
 477:c:/Users/Black_Life/STM32Cube/Repository/STM32Cube_FW_F4_V1.26.2/Middlewares/Third_Party/LwIP/src/core\mem.c **** 
 250              		.loc 1 477 3 view .LVU47
 479:c:/Users/Black_Life/STM32Cube/Repository/STM32Cube_FW_F4_V1.26.2/Middlewares/Third_Party/LwIP/src/core\mem.c ****   LWIP_ASSERT("plug_holes: mem < ram_end", (u8_t *)mem < (u8_t *)ram_end);
 251              		.loc 1 479 3 view .LVU48
 479:c:/Users/Black_Life/STM32Cube/Repository/STM32Cube_FW_F4_V1.26.2/Middlewares/Third_Party/LwIP/src/core\mem.c ****   LWIP_ASSERT("plug_holes: mem < ram_end", (u8_t *)mem < (u8_t *)ram_end);
 252              		.loc 1 479 3 view .LVU49
 253 0004 354B     		ldr	r3, .L34
ARM GAS  C:\Users\BLACK_~1\AppData\Local\Temp\ccnOKFK8.s 			page 16


 254 0006 1B68     		ldr	r3, [r3]
 255 0008 8342     		cmp	r3, r0
 256 000a 40D8     		bhi	.L28
 257              	.LVL24:
 258              	.L19:
 479:c:/Users/Black_Life/STM32Cube/Repository/STM32Cube_FW_F4_V1.26.2/Middlewares/Third_Party/LwIP/src/core\mem.c ****   LWIP_ASSERT("plug_holes: mem < ram_end", (u8_t *)mem < (u8_t *)ram_end);
 259              		.loc 1 479 3 discriminator 3 view .LVU50
 479:c:/Users/Black_Life/STM32Cube/Repository/STM32Cube_FW_F4_V1.26.2/Middlewares/Third_Party/LwIP/src/core\mem.c ****   LWIP_ASSERT("plug_holes: mem < ram_end", (u8_t *)mem < (u8_t *)ram_end);
 260              		.loc 1 479 3 discriminator 3 view .LVU51
 480:c:/Users/Black_Life/STM32Cube/Repository/STM32Cube_FW_F4_V1.26.2/Middlewares/Third_Party/LwIP/src/core\mem.c ****   LWIP_ASSERT("plug_holes: mem->used == 0", mem->used == 0);
 261              		.loc 1 480 3 discriminator 3 view .LVU52
 480:c:/Users/Black_Life/STM32Cube/Repository/STM32Cube_FW_F4_V1.26.2/Middlewares/Third_Party/LwIP/src/core\mem.c ****   LWIP_ASSERT("plug_holes: mem->used == 0", mem->used == 0);
 262              		.loc 1 480 3 discriminator 3 view .LVU53
 263 000c 344B     		ldr	r3, .L34+4
 264 000e 1B68     		ldr	r3, [r3]
 265 0010 A342     		cmp	r3, r4
 266 0012 44D9     		bls	.L29
 267              	.L20:
 480:c:/Users/Black_Life/STM32Cube/Repository/STM32Cube_FW_F4_V1.26.2/Middlewares/Third_Party/LwIP/src/core\mem.c ****   LWIP_ASSERT("plug_holes: mem->used == 0", mem->used == 0);
 268              		.loc 1 480 3 discriminator 3 view .LVU54
 480:c:/Users/Black_Life/STM32Cube/Repository/STM32Cube_FW_F4_V1.26.2/Middlewares/Third_Party/LwIP/src/core\mem.c ****   LWIP_ASSERT("plug_holes: mem->used == 0", mem->used == 0);
 269              		.loc 1 480 3 discriminator 3 view .LVU55
 481:c:/Users/Black_Life/STM32Cube/Repository/STM32Cube_FW_F4_V1.26.2/Middlewares/Third_Party/LwIP/src/core\mem.c **** 
 270              		.loc 1 481 3 discriminator 3 view .LVU56
 481:c:/Users/Black_Life/STM32Cube/Repository/STM32Cube_FW_F4_V1.26.2/Middlewares/Third_Party/LwIP/src/core\mem.c **** 
 271              		.loc 1 481 3 discriminator 3 view .LVU57
 272 0014 2379     		ldrb	r3, [r4, #4]	@ zero_extendqisi2
 273 0016 002B     		cmp	r3, #0
 274 0018 49D1     		bne	.L30
 275              	.L21:
 481:c:/Users/Black_Life/STM32Cube/Repository/STM32Cube_FW_F4_V1.26.2/Middlewares/Third_Party/LwIP/src/core\mem.c **** 
 276              		.loc 1 481 3 discriminator 3 view .LVU58
 481:c:/Users/Black_Life/STM32Cube/Repository/STM32Cube_FW_F4_V1.26.2/Middlewares/Third_Party/LwIP/src/core\mem.c **** 
 277              		.loc 1 481 3 discriminator 3 view .LVU59
 484:c:/Users/Black_Life/STM32Cube/Repository/STM32Cube_FW_F4_V1.26.2/Middlewares/Third_Party/LwIP/src/core\mem.c **** 
 278              		.loc 1 484 3 discriminator 3 view .LVU60
 484:c:/Users/Black_Life/STM32Cube/Repository/STM32Cube_FW_F4_V1.26.2/Middlewares/Third_Party/LwIP/src/core\mem.c **** 
 279              		.loc 1 484 3 discriminator 3 view .LVU61
 280 001a 2388     		ldrh	r3, [r4]
 281 001c B3F5C86F 		cmp	r3, #1600
 282 0020 4DD8     		bhi	.L31
 283              	.L22:
 484:c:/Users/Black_Life/STM32Cube/Repository/STM32Cube_FW_F4_V1.26.2/Middlewares/Third_Party/LwIP/src/core\mem.c **** 
 284              		.loc 1 484 3 discriminator 3 view .LVU62
 484:c:/Users/Black_Life/STM32Cube/Repository/STM32Cube_FW_F4_V1.26.2/Middlewares/Third_Party/LwIP/src/core\mem.c **** 
 285              		.loc 1 484 3 discriminator 3 view .LVU63
 486:c:/Users/Black_Life/STM32Cube/Repository/STM32Cube_FW_F4_V1.26.2/Middlewares/Third_Party/LwIP/src/core\mem.c ****   if (mem != nmem && nmem->used == 0 && (u8_t *)nmem != (u8_t *)ram_end) {
 286              		.loc 1 486 3 discriminator 3 view .LVU64
 486:c:/Users/Black_Life/STM32Cube/Repository/STM32Cube_FW_F4_V1.26.2/Middlewares/Third_Party/LwIP/src/core\mem.c ****   if (mem != nmem && nmem->used == 0 && (u8_t *)nmem != (u8_t *)ram_end) {
 287              		.loc 1 486 10 is_stmt 0 discriminator 3 view .LVU65
 288 0022 2088     		ldrh	r0, [r4]
 289 0024 FFF7FEFF 		bl	ptr_to_mem
 290              	.LVL25:
 487:c:/Users/Black_Life/STM32Cube/Repository/STM32Cube_FW_F4_V1.26.2/Middlewares/Third_Party/LwIP/src/core\mem.c ****     /* if mem->next is unused and not end of ram, combine mem and mem->next */
 291              		.loc 1 487 3 is_stmt 1 discriminator 3 view .LVU66
 487:c:/Users/Black_Life/STM32Cube/Repository/STM32Cube_FW_F4_V1.26.2/Middlewares/Third_Party/LwIP/src/core\mem.c ****     /* if mem->next is unused and not end of ram, combine mem and mem->next */
 292              		.loc 1 487 6 is_stmt 0 discriminator 3 view .LVU67
ARM GAS  C:\Users\BLACK_~1\AppData\Local\Temp\ccnOKFK8.s 			page 17


 293 0028 8442     		cmp	r4, r0
 294 002a 16D0     		beq	.L23
 487:c:/Users/Black_Life/STM32Cube/Repository/STM32Cube_FW_F4_V1.26.2/Middlewares/Third_Party/LwIP/src/core\mem.c ****     /* if mem->next is unused and not end of ram, combine mem and mem->next */
 295              		.loc 1 487 26 discriminator 1 view .LVU68
 296 002c 0379     		ldrb	r3, [r0, #4]	@ zero_extendqisi2
 487:c:/Users/Black_Life/STM32Cube/Repository/STM32Cube_FW_F4_V1.26.2/Middlewares/Third_Party/LwIP/src/core\mem.c ****     /* if mem->next is unused and not end of ram, combine mem and mem->next */
 297              		.loc 1 487 19 discriminator 1 view .LVU69
 298 002e A3B9     		cbnz	r3, .L23
 487:c:/Users/Black_Life/STM32Cube/Repository/STM32Cube_FW_F4_V1.26.2/Middlewares/Third_Party/LwIP/src/core\mem.c ****     /* if mem->next is unused and not end of ram, combine mem and mem->next */
 299              		.loc 1 487 57 discriminator 2 view .LVU70
 300 0030 2B4B     		ldr	r3, .L34+4
 301 0032 1B68     		ldr	r3, [r3]
 487:c:/Users/Black_Life/STM32Cube/Repository/STM32Cube_FW_F4_V1.26.2/Middlewares/Third_Party/LwIP/src/core\mem.c ****     /* if mem->next is unused and not end of ram, combine mem and mem->next */
 302              		.loc 1 487 38 discriminator 2 view .LVU71
 303 0034 8342     		cmp	r3, r0
 304 0036 10D0     		beq	.L23
 489:c:/Users/Black_Life/STM32Cube/Repository/STM32Cube_FW_F4_V1.26.2/Middlewares/Third_Party/LwIP/src/core\mem.c ****       lfree = mem;
 305              		.loc 1 489 5 is_stmt 1 view .LVU72
 489:c:/Users/Black_Life/STM32Cube/Repository/STM32Cube_FW_F4_V1.26.2/Middlewares/Third_Party/LwIP/src/core\mem.c ****       lfree = mem;
 306              		.loc 1 489 15 is_stmt 0 view .LVU73
 307 0038 2A4B     		ldr	r3, .L34+8
 308 003a 1B68     		ldr	r3, [r3]
 489:c:/Users/Black_Life/STM32Cube/Repository/STM32Cube_FW_F4_V1.26.2/Middlewares/Third_Party/LwIP/src/core\mem.c ****       lfree = mem;
 309              		.loc 1 489 8 view .LVU74
 310 003c 8342     		cmp	r3, r0
 311 003e 46D0     		beq	.L32
 312              	.L24:
 492:c:/Users/Black_Life/STM32Cube/Repository/STM32Cube_FW_F4_V1.26.2/Middlewares/Third_Party/LwIP/src/core\mem.c ****     if (nmem->next != MEM_SIZE_ALIGNED) {
 313              		.loc 1 492 5 is_stmt 1 view .LVU75
 492:c:/Users/Black_Life/STM32Cube/Repository/STM32Cube_FW_F4_V1.26.2/Middlewares/Third_Party/LwIP/src/core\mem.c ****     if (nmem->next != MEM_SIZE_ALIGNED) {
 314              		.loc 1 492 21 is_stmt 0 view .LVU76
 315 0040 0388     		ldrh	r3, [r0]
 492:c:/Users/Black_Life/STM32Cube/Repository/STM32Cube_FW_F4_V1.26.2/Middlewares/Third_Party/LwIP/src/core\mem.c ****     if (nmem->next != MEM_SIZE_ALIGNED) {
 316              		.loc 1 492 15 view .LVU77
 317 0042 2380     		strh	r3, [r4]	@ movhi
 493:c:/Users/Black_Life/STM32Cube/Repository/STM32Cube_FW_F4_V1.26.2/Middlewares/Third_Party/LwIP/src/core\mem.c ****       ptr_to_mem(nmem->next)->prev = mem_to_ptr(mem);
 318              		.loc 1 493 5 is_stmt 1 view .LVU78
 493:c:/Users/Black_Life/STM32Cube/Repository/STM32Cube_FW_F4_V1.26.2/Middlewares/Third_Party/LwIP/src/core\mem.c ****       ptr_to_mem(nmem->next)->prev = mem_to_ptr(mem);
 319              		.loc 1 493 13 is_stmt 0 view .LVU79
 320 0044 0088     		ldrh	r0, [r0]
 321              	.LVL26:
 493:c:/Users/Black_Life/STM32Cube/Repository/STM32Cube_FW_F4_V1.26.2/Middlewares/Third_Party/LwIP/src/core\mem.c ****       ptr_to_mem(nmem->next)->prev = mem_to_ptr(mem);
 322              		.loc 1 493 8 view .LVU80
 323 0046 B0F5C86F 		cmp	r0, #1600
 324 004a 06D0     		beq	.L23
 494:c:/Users/Black_Life/STM32Cube/Repository/STM32Cube_FW_F4_V1.26.2/Middlewares/Third_Party/LwIP/src/core\mem.c ****     }
 325              		.loc 1 494 7 is_stmt 1 view .LVU81
 326 004c FFF7FEFF 		bl	ptr_to_mem
 327              	.LVL27:
 328 0050 0546     		mov	r5, r0
 494:c:/Users/Black_Life/STM32Cube/Repository/STM32Cube_FW_F4_V1.26.2/Middlewares/Third_Party/LwIP/src/core\mem.c ****     }
 329              		.loc 1 494 38 is_stmt 0 view .LVU82
 330 0052 2046     		mov	r0, r4
 331 0054 FFF7FEFF 		bl	mem_to_ptr
 332              	.LVL28:
 494:c:/Users/Black_Life/STM32Cube/Repository/STM32Cube_FW_F4_V1.26.2/Middlewares/Third_Party/LwIP/src/core\mem.c ****     }
 333              		.loc 1 494 36 view .LVU83
ARM GAS  C:\Users\BLACK_~1\AppData\Local\Temp\ccnOKFK8.s 			page 18


 334 0058 6880     		strh	r0, [r5, #2]	@ movhi
 335              	.L23:
 499:c:/Users/Black_Life/STM32Cube/Repository/STM32Cube_FW_F4_V1.26.2/Middlewares/Third_Party/LwIP/src/core\mem.c ****   if (pmem != mem && pmem->used == 0) {
 336              		.loc 1 499 3 is_stmt 1 view .LVU84
 499:c:/Users/Black_Life/STM32Cube/Repository/STM32Cube_FW_F4_V1.26.2/Middlewares/Third_Party/LwIP/src/core\mem.c ****   if (pmem != mem && pmem->used == 0) {
 337              		.loc 1 499 10 is_stmt 0 view .LVU85
 338 005a 6088     		ldrh	r0, [r4, #2]
 339 005c FFF7FEFF 		bl	ptr_to_mem
 340              	.LVL29:
 341 0060 0546     		mov	r5, r0
 342              	.LVL30:
 500:c:/Users/Black_Life/STM32Cube/Repository/STM32Cube_FW_F4_V1.26.2/Middlewares/Third_Party/LwIP/src/core\mem.c ****     /* if mem->prev is unused, combine mem and mem->prev */
 343              		.loc 1 500 3 is_stmt 1 view .LVU86
 500:c:/Users/Black_Life/STM32Cube/Repository/STM32Cube_FW_F4_V1.26.2/Middlewares/Third_Party/LwIP/src/core\mem.c ****     /* if mem->prev is unused, combine mem and mem->prev */
 344              		.loc 1 500 6 is_stmt 0 view .LVU87
 345 0062 8442     		cmp	r4, r0
 346 0064 12D0     		beq	.L18
 500:c:/Users/Black_Life/STM32Cube/Repository/STM32Cube_FW_F4_V1.26.2/Middlewares/Third_Party/LwIP/src/core\mem.c ****     /* if mem->prev is unused, combine mem and mem->prev */
 347              		.loc 1 500 26 discriminator 1 view .LVU88
 348 0066 0379     		ldrb	r3, [r0, #4]	@ zero_extendqisi2
 500:c:/Users/Black_Life/STM32Cube/Repository/STM32Cube_FW_F4_V1.26.2/Middlewares/Third_Party/LwIP/src/core\mem.c ****     /* if mem->prev is unused, combine mem and mem->prev */
 349              		.loc 1 500 19 discriminator 1 view .LVU89
 350 0068 83B9     		cbnz	r3, .L18
 502:c:/Users/Black_Life/STM32Cube/Repository/STM32Cube_FW_F4_V1.26.2/Middlewares/Third_Party/LwIP/src/core\mem.c ****       lfree = pmem;
 351              		.loc 1 502 5 is_stmt 1 view .LVU90
 502:c:/Users/Black_Life/STM32Cube/Repository/STM32Cube_FW_F4_V1.26.2/Middlewares/Third_Party/LwIP/src/core\mem.c ****       lfree = pmem;
 352              		.loc 1 502 15 is_stmt 0 view .LVU91
 353 006a 1E4B     		ldr	r3, .L34+8
 354 006c 1B68     		ldr	r3, [r3]
 502:c:/Users/Black_Life/STM32Cube/Repository/STM32Cube_FW_F4_V1.26.2/Middlewares/Third_Party/LwIP/src/core\mem.c ****       lfree = pmem;
 355              		.loc 1 502 8 view .LVU92
 356 006e A342     		cmp	r3, r4
 357 0070 30D0     		beq	.L33
 358              	.L26:
 505:c:/Users/Black_Life/STM32Cube/Repository/STM32Cube_FW_F4_V1.26.2/Middlewares/Third_Party/LwIP/src/core\mem.c ****     if (mem->next != MEM_SIZE_ALIGNED) {
 359              		.loc 1 505 5 is_stmt 1 view .LVU93
 505:c:/Users/Black_Life/STM32Cube/Repository/STM32Cube_FW_F4_V1.26.2/Middlewares/Third_Party/LwIP/src/core\mem.c ****     if (mem->next != MEM_SIZE_ALIGNED) {
 360              		.loc 1 505 21 is_stmt 0 view .LVU94
 361 0072 2388     		ldrh	r3, [r4]
 505:c:/Users/Black_Life/STM32Cube/Repository/STM32Cube_FW_F4_V1.26.2/Middlewares/Third_Party/LwIP/src/core\mem.c ****     if (mem->next != MEM_SIZE_ALIGNED) {
 362              		.loc 1 505 16 view .LVU95
 363 0074 2B80     		strh	r3, [r5]	@ movhi
 506:c:/Users/Black_Life/STM32Cube/Repository/STM32Cube_FW_F4_V1.26.2/Middlewares/Third_Party/LwIP/src/core\mem.c ****       ptr_to_mem(mem->next)->prev = mem_to_ptr(pmem);
 364              		.loc 1 506 5 is_stmt 1 view .LVU96
 506:c:/Users/Black_Life/STM32Cube/Repository/STM32Cube_FW_F4_V1.26.2/Middlewares/Third_Party/LwIP/src/core\mem.c ****       ptr_to_mem(mem->next)->prev = mem_to_ptr(pmem);
 365              		.loc 1 506 12 is_stmt 0 view .LVU97
 366 0076 2088     		ldrh	r0, [r4]
 367              	.LVL31:
 506:c:/Users/Black_Life/STM32Cube/Repository/STM32Cube_FW_F4_V1.26.2/Middlewares/Third_Party/LwIP/src/core\mem.c ****       ptr_to_mem(mem->next)->prev = mem_to_ptr(pmem);
 368              		.loc 1 506 8 view .LVU98
 369 0078 B0F5C86F 		cmp	r0, #1600
 370 007c 06D0     		beq	.L18
 507:c:/Users/Black_Life/STM32Cube/Repository/STM32Cube_FW_F4_V1.26.2/Middlewares/Third_Party/LwIP/src/core\mem.c ****     }
 371              		.loc 1 507 7 is_stmt 1 view .LVU99
 372 007e FFF7FEFF 		bl	ptr_to_mem
 373              	.LVL32:
 374 0082 0446     		mov	r4, r0
ARM GAS  C:\Users\BLACK_~1\AppData\Local\Temp\ccnOKFK8.s 			page 19


 375              	.LVL33:
 507:c:/Users/Black_Life/STM32Cube/Repository/STM32Cube_FW_F4_V1.26.2/Middlewares/Third_Party/LwIP/src/core\mem.c ****     }
 376              		.loc 1 507 37 is_stmt 0 view .LVU100
 377 0084 2846     		mov	r0, r5
 378 0086 FFF7FEFF 		bl	mem_to_ptr
 379              	.LVL34:
 507:c:/Users/Black_Life/STM32Cube/Repository/STM32Cube_FW_F4_V1.26.2/Middlewares/Third_Party/LwIP/src/core\mem.c ****     }
 380              		.loc 1 507 35 view .LVU101
 381 008a 6080     		strh	r0, [r4, #2]	@ movhi
 382              	.L18:
 510:c:/Users/Black_Life/STM32Cube/Repository/STM32Cube_FW_F4_V1.26.2/Middlewares/Third_Party/LwIP/src/core\mem.c **** 
 383              		.loc 1 510 1 view .LVU102
 384 008c 38BD     		pop	{r3, r4, r5, pc}
 385              	.LVL35:
 386              	.L28:
 479:c:/Users/Black_Life/STM32Cube/Repository/STM32Cube_FW_F4_V1.26.2/Middlewares/Third_Party/LwIP/src/core\mem.c ****   LWIP_ASSERT("plug_holes: mem < ram_end", (u8_t *)mem < (u8_t *)ram_end);
 387              		.loc 1 479 3 is_stmt 1 discriminator 1 view .LVU103
 479:c:/Users/Black_Life/STM32Cube/Repository/STM32Cube_FW_F4_V1.26.2/Middlewares/Third_Party/LwIP/src/core\mem.c ****   LWIP_ASSERT("plug_holes: mem < ram_end", (u8_t *)mem < (u8_t *)ram_end);
 388              		.loc 1 479 3 discriminator 1 view .LVU104
 389 008e 164B     		ldr	r3, .L34+12
 390 0090 40F2DF12 		movw	r2, #479
 391 0094 1549     		ldr	r1, .L34+16
 392 0096 1648     		ldr	r0, .L34+20
 393              	.LVL36:
 479:c:/Users/Black_Life/STM32Cube/Repository/STM32Cube_FW_F4_V1.26.2/Middlewares/Third_Party/LwIP/src/core\mem.c ****   LWIP_ASSERT("plug_holes: mem < ram_end", (u8_t *)mem < (u8_t *)ram_end);
 394              		.loc 1 479 3 is_stmt 0 discriminator 1 view .LVU105
 395 0098 FFF7FEFF 		bl	printf
 396              	.LVL37:
 397 009c B6E7     		b	.L19
 398              	.L29:
 480:c:/Users/Black_Life/STM32Cube/Repository/STM32Cube_FW_F4_V1.26.2/Middlewares/Third_Party/LwIP/src/core\mem.c ****   LWIP_ASSERT("plug_holes: mem->used == 0", mem->used == 0);
 399              		.loc 1 480 3 is_stmt 1 discriminator 1 view .LVU106
 480:c:/Users/Black_Life/STM32Cube/Repository/STM32Cube_FW_F4_V1.26.2/Middlewares/Third_Party/LwIP/src/core\mem.c ****   LWIP_ASSERT("plug_holes: mem->used == 0", mem->used == 0);
 400              		.loc 1 480 3 discriminator 1 view .LVU107
 401 009e 124B     		ldr	r3, .L34+12
 402 00a0 4FF4F072 		mov	r2, #480
 403 00a4 1349     		ldr	r1, .L34+24
 404 00a6 1248     		ldr	r0, .L34+20
 405 00a8 FFF7FEFF 		bl	printf
 406              	.LVL38:
 407 00ac B2E7     		b	.L20
 408              	.L30:
 481:c:/Users/Black_Life/STM32Cube/Repository/STM32Cube_FW_F4_V1.26.2/Middlewares/Third_Party/LwIP/src/core\mem.c **** 
 409              		.loc 1 481 3 discriminator 1 view .LVU108
 481:c:/Users/Black_Life/STM32Cube/Repository/STM32Cube_FW_F4_V1.26.2/Middlewares/Third_Party/LwIP/src/core\mem.c **** 
 410              		.loc 1 481 3 discriminator 1 view .LVU109
 411 00ae 0E4B     		ldr	r3, .L34+12
 412 00b0 40F2E112 		movw	r2, #481
 413 00b4 1049     		ldr	r1, .L34+28
 414 00b6 0E48     		ldr	r0, .L34+20
 415 00b8 FFF7FEFF 		bl	printf
 416              	.LVL39:
 417 00bc ADE7     		b	.L21
 418              	.L31:
 484:c:/Users/Black_Life/STM32Cube/Repository/STM32Cube_FW_F4_V1.26.2/Middlewares/Third_Party/LwIP/src/core\mem.c **** 
 419              		.loc 1 484 3 discriminator 1 view .LVU110
 484:c:/Users/Black_Life/STM32Cube/Repository/STM32Cube_FW_F4_V1.26.2/Middlewares/Third_Party/LwIP/src/core\mem.c **** 
ARM GAS  C:\Users\BLACK_~1\AppData\Local\Temp\ccnOKFK8.s 			page 20


 420              		.loc 1 484 3 discriminator 1 view .LVU111
 421 00be 0A4B     		ldr	r3, .L34+12
 422 00c0 4FF4F272 		mov	r2, #484
 423 00c4 0D49     		ldr	r1, .L34+32
 424 00c6 0A48     		ldr	r0, .L34+20
 425 00c8 FFF7FEFF 		bl	printf
 426              	.LVL40:
 427 00cc A9E7     		b	.L22
 428              	.LVL41:
 429              	.L32:
 490:c:/Users/Black_Life/STM32Cube/Repository/STM32Cube_FW_F4_V1.26.2/Middlewares/Third_Party/LwIP/src/core\mem.c ****     }
 430              		.loc 1 490 7 view .LVU112
 490:c:/Users/Black_Life/STM32Cube/Repository/STM32Cube_FW_F4_V1.26.2/Middlewares/Third_Party/LwIP/src/core\mem.c ****     }
 431              		.loc 1 490 13 is_stmt 0 view .LVU113
 432 00ce 054B     		ldr	r3, .L34+8
 433 00d0 1C60     		str	r4, [r3]
 434 00d2 B5E7     		b	.L24
 435              	.LVL42:
 436              	.L33:
 503:c:/Users/Black_Life/STM32Cube/Repository/STM32Cube_FW_F4_V1.26.2/Middlewares/Third_Party/LwIP/src/core\mem.c ****     }
 437              		.loc 1 503 7 is_stmt 1 view .LVU114
 503:c:/Users/Black_Life/STM32Cube/Repository/STM32Cube_FW_F4_V1.26.2/Middlewares/Third_Party/LwIP/src/core\mem.c ****     }
 438              		.loc 1 503 13 is_stmt 0 view .LVU115
 439 00d4 034B     		ldr	r3, .L34+8
 440 00d6 1860     		str	r0, [r3]
 441 00d8 CBE7     		b	.L26
 442              	.L35:
 443 00da 00BF     		.align	2
 444              	.L34:
 445 00dc 00000000 		.word	.LANCHOR0
 446 00e0 00000000 		.word	.LANCHOR1
 447 00e4 00000000 		.word	.LANCHOR2
 448 00e8 00000000 		.word	.LC0
 449 00ec 70000000 		.word	.LC1
 450 00f0 88000000 		.word	.LC2
 451 00f4 B0000000 		.word	.LC3
 452 00f8 CC000000 		.word	.LC4
 453 00fc E8000000 		.word	.LC5
 454              		.cfi_endproc
 455              	.LFE158:
 457              		.section	.text.mem_init,"ax",%progbits
 458              		.align	1
 459              		.global	mem_init
 460              		.syntax unified
 461              		.thumb
 462              		.thumb_func
 464              	mem_init:
 465              	.LFB159:
 517:c:/Users/Black_Life/STM32Cube/Repository/STM32Cube_FW_F4_V1.26.2/Middlewares/Third_Party/LwIP/src/core\mem.c ****   struct mem *mem;
 466              		.loc 1 517 1 is_stmt 1 view -0
 467              		.cfi_startproc
 468              		@ args = 0, pretend = 0, frame = 0
 469              		@ frame_needed = 0, uses_anonymous_args = 0
 470 0000 38B5     		push	{r3, r4, r5, lr}
 471              	.LCFI2:
 472              		.cfi_def_cfa_offset 16
 473              		.cfi_offset 3, -16
ARM GAS  C:\Users\BLACK_~1\AppData\Local\Temp\ccnOKFK8.s 			page 21


 474              		.cfi_offset 4, -12
 475              		.cfi_offset 5, -8
 476              		.cfi_offset 14, -4
 518:c:/Users/Black_Life/STM32Cube/Repository/STM32Cube_FW_F4_V1.26.2/Middlewares/Third_Party/LwIP/src/core\mem.c **** 
 477              		.loc 1 518 3 view .LVU117
 520:c:/Users/Black_Life/STM32Cube/Repository/STM32Cube_FW_F4_V1.26.2/Middlewares/Third_Party/LwIP/src/core\mem.c ****               (SIZEOF_STRUCT_MEM & (MEM_ALIGNMENT - 1)) == 0);
 478              		.loc 1 520 3 view .LVU118
 520:c:/Users/Black_Life/STM32Cube/Repository/STM32Cube_FW_F4_V1.26.2/Middlewares/Third_Party/LwIP/src/core\mem.c ****               (SIZEOF_STRUCT_MEM & (MEM_ALIGNMENT - 1)) == 0);
 479              		.loc 1 520 3 view .LVU119
 520:c:/Users/Black_Life/STM32Cube/Repository/STM32Cube_FW_F4_V1.26.2/Middlewares/Third_Party/LwIP/src/core\mem.c ****               (SIZEOF_STRUCT_MEM & (MEM_ALIGNMENT - 1)) == 0);
 480              		.loc 1 520 3 view .LVU120
 520:c:/Users/Black_Life/STM32Cube/Repository/STM32Cube_FW_F4_V1.26.2/Middlewares/Third_Party/LwIP/src/core\mem.c ****               (SIZEOF_STRUCT_MEM & (MEM_ALIGNMENT - 1)) == 0);
 481              		.loc 1 520 3 view .LVU121
 524:c:/Users/Black_Life/STM32Cube/Repository/STM32Cube_FW_F4_V1.26.2/Middlewares/Third_Party/LwIP/src/core\mem.c ****   /* initialize the start of the heap */
 482              		.loc 1 524 3 view .LVU122
 524:c:/Users/Black_Life/STM32Cube/Repository/STM32Cube_FW_F4_V1.26.2/Middlewares/Third_Party/LwIP/src/core\mem.c ****   /* initialize the start of the heap */
 483              		.loc 1 524 17 is_stmt 0 view .LVU123
 484 0002 0B4C     		ldr	r4, .L38
 485 0004 24F00304 		bic	r4, r4, #3
 524:c:/Users/Black_Life/STM32Cube/Repository/STM32Cube_FW_F4_V1.26.2/Middlewares/Third_Party/LwIP/src/core\mem.c ****   /* initialize the start of the heap */
 486              		.loc 1 524 7 view .LVU124
 487 0008 0A4B     		ldr	r3, .L38+4
 488 000a 1C60     		str	r4, [r3]
 526:c:/Users/Black_Life/STM32Cube/Repository/STM32Cube_FW_F4_V1.26.2/Middlewares/Third_Party/LwIP/src/core\mem.c ****   mem->next = MEM_SIZE_ALIGNED;
 489              		.loc 1 526 3 is_stmt 1 view .LVU125
 490              	.LVL43:
 527:c:/Users/Black_Life/STM32Cube/Repository/STM32Cube_FW_F4_V1.26.2/Middlewares/Third_Party/LwIP/src/core\mem.c ****   mem->prev = 0;
 491              		.loc 1 527 3 view .LVU126
 527:c:/Users/Black_Life/STM32Cube/Repository/STM32Cube_FW_F4_V1.26.2/Middlewares/Third_Party/LwIP/src/core\mem.c ****   mem->prev = 0;
 492              		.loc 1 527 13 is_stmt 0 view .LVU127
 493 000c 4FF4C865 		mov	r5, #1600
 494 0010 2580     		strh	r5, [r4]	@ movhi
 528:c:/Users/Black_Life/STM32Cube/Repository/STM32Cube_FW_F4_V1.26.2/Middlewares/Third_Party/LwIP/src/core\mem.c ****   mem->used = 0;
 495              		.loc 1 528 3 is_stmt 1 view .LVU128
 528:c:/Users/Black_Life/STM32Cube/Repository/STM32Cube_FW_F4_V1.26.2/Middlewares/Third_Party/LwIP/src/core\mem.c ****   mem->used = 0;
 496              		.loc 1 528 13 is_stmt 0 view .LVU129
 497 0012 0023     		movs	r3, #0
 498 0014 6380     		strh	r3, [r4, #2]	@ movhi
 529:c:/Users/Black_Life/STM32Cube/Repository/STM32Cube_FW_F4_V1.26.2/Middlewares/Third_Party/LwIP/src/core\mem.c ****   /* initialize the end of the heap */
 499              		.loc 1 529 3 is_stmt 1 view .LVU130
 529:c:/Users/Black_Life/STM32Cube/Repository/STM32Cube_FW_F4_V1.26.2/Middlewares/Third_Party/LwIP/src/core\mem.c ****   /* initialize the end of the heap */
 500              		.loc 1 529 13 is_stmt 0 view .LVU131
 501 0016 2371     		strb	r3, [r4, #4]
 531:c:/Users/Black_Life/STM32Cube/Repository/STM32Cube_FW_F4_V1.26.2/Middlewares/Third_Party/LwIP/src/core\mem.c ****   ram_end->used = 1;
 502              		.loc 1 531 3 is_stmt 1 view .LVU132
 531:c:/Users/Black_Life/STM32Cube/Repository/STM32Cube_FW_F4_V1.26.2/Middlewares/Third_Party/LwIP/src/core\mem.c ****   ram_end->used = 1;
 503              		.loc 1 531 13 is_stmt 0 view .LVU133
 504 0018 2846     		mov	r0, r5
 505 001a FFF7FEFF 		bl	ptr_to_mem
 506              	.LVL44:
 531:c:/Users/Black_Life/STM32Cube/Repository/STM32Cube_FW_F4_V1.26.2/Middlewares/Third_Party/LwIP/src/core\mem.c ****   ram_end->used = 1;
 507              		.loc 1 531 11 view .LVU134
 508 001e 064B     		ldr	r3, .L38+8
 509 0020 1860     		str	r0, [r3]
 532:c:/Users/Black_Life/STM32Cube/Repository/STM32Cube_FW_F4_V1.26.2/Middlewares/Third_Party/LwIP/src/core\mem.c ****   ram_end->next = MEM_SIZE_ALIGNED;
 510              		.loc 1 532 3 is_stmt 1 view .LVU135
 532:c:/Users/Black_Life/STM32Cube/Repository/STM32Cube_FW_F4_V1.26.2/Middlewares/Third_Party/LwIP/src/core\mem.c ****   ram_end->next = MEM_SIZE_ALIGNED;
ARM GAS  C:\Users\BLACK_~1\AppData\Local\Temp\ccnOKFK8.s 			page 22


 511              		.loc 1 532 17 is_stmt 0 view .LVU136
 512 0022 0123     		movs	r3, #1
 513 0024 0371     		strb	r3, [r0, #4]
 533:c:/Users/Black_Life/STM32Cube/Repository/STM32Cube_FW_F4_V1.26.2/Middlewares/Third_Party/LwIP/src/core\mem.c ****   ram_end->prev = MEM_SIZE_ALIGNED;
 514              		.loc 1 533 3 is_stmt 1 view .LVU137
 533:c:/Users/Black_Life/STM32Cube/Repository/STM32Cube_FW_F4_V1.26.2/Middlewares/Third_Party/LwIP/src/core\mem.c ****   ram_end->prev = MEM_SIZE_ALIGNED;
 515              		.loc 1 533 17 is_stmt 0 view .LVU138
 516 0026 0580     		strh	r5, [r0]	@ movhi
 534:c:/Users/Black_Life/STM32Cube/Repository/STM32Cube_FW_F4_V1.26.2/Middlewares/Third_Party/LwIP/src/core\mem.c ****   MEM_SANITY();
 517              		.loc 1 534 3 is_stmt 1 view .LVU139
 534:c:/Users/Black_Life/STM32Cube/Repository/STM32Cube_FW_F4_V1.26.2/Middlewares/Third_Party/LwIP/src/core\mem.c ****   MEM_SANITY();
 518              		.loc 1 534 17 is_stmt 0 view .LVU140
 519 0028 4580     		strh	r5, [r0, #2]	@ movhi
 535:c:/Users/Black_Life/STM32Cube/Repository/STM32Cube_FW_F4_V1.26.2/Middlewares/Third_Party/LwIP/src/core\mem.c **** 
 520              		.loc 1 535 15 is_stmt 1 view .LVU141
 538:c:/Users/Black_Life/STM32Cube/Repository/STM32Cube_FW_F4_V1.26.2/Middlewares/Third_Party/LwIP/src/core\mem.c **** 
 521              		.loc 1 538 3 view .LVU142
 538:c:/Users/Black_Life/STM32Cube/Repository/STM32Cube_FW_F4_V1.26.2/Middlewares/Third_Party/LwIP/src/core\mem.c **** 
 522              		.loc 1 538 9 is_stmt 0 view .LVU143
 523 002a 044B     		ldr	r3, .L38+12
 524 002c 1C60     		str	r4, [r3]
 540:c:/Users/Black_Life/STM32Cube/Repository/STM32Cube_FW_F4_V1.26.2/Middlewares/Third_Party/LwIP/src/core\mem.c **** 
 525              		.loc 1 540 43 is_stmt 1 view .LVU144
 542:c:/Users/Black_Life/STM32Cube/Repository/STM32Cube_FW_F4_V1.26.2/Middlewares/Third_Party/LwIP/src/core\mem.c ****     LWIP_ASSERT("failed to create mem_mutex", 0);
 526              		.loc 1 542 3 view .LVU145
 543:c:/Users/Black_Life/STM32Cube/Repository/STM32Cube_FW_F4_V1.26.2/Middlewares/Third_Party/LwIP/src/core\mem.c ****   }
 527              		.loc 1 543 5 view .LVU146
 543:c:/Users/Black_Life/STM32Cube/Repository/STM32Cube_FW_F4_V1.26.2/Middlewares/Third_Party/LwIP/src/core\mem.c ****   }
 528              		.loc 1 543 5 view .LVU147
 545:c:/Users/Black_Life/STM32Cube/Repository/STM32Cube_FW_F4_V1.26.2/Middlewares/Third_Party/LwIP/src/core\mem.c **** 
 529              		.loc 1 545 1 is_stmt 0 view .LVU148
 530 002e 38BD     		pop	{r3, r4, r5, pc}
 531              	.LVL45:
 532              	.L39:
 545:c:/Users/Black_Life/STM32Cube/Repository/STM32Cube_FW_F4_V1.26.2/Middlewares/Third_Party/LwIP/src/core\mem.c **** 
 533              		.loc 1 545 1 view .LVU149
 534              		.align	2
 535              	.L38:
 536 0030 03000000 		.word	.LANCHOR3+3
 537 0034 00000000 		.word	.LANCHOR0
 538 0038 00000000 		.word	.LANCHOR1
 539 003c 00000000 		.word	.LANCHOR2
 540              		.cfi_endproc
 541              	.LFE159:
 543              		.section	.rodata.mem_free.str1.4,"aMS",%progbits,1
 544              		.align	2
 545              	.LC6:
 546 0000 6D656D5F 		.ascii	"mem_free: sanity check alignment\000"
 546      66726565 
 546      3A207361 
 546      6E697479 
 546      20636865 
 547 0021 000000   		.align	2
 548              	.LC7:
 549 0024 6D656D5F 		.ascii	"mem_free: illegal memory\000"
 549      66726565 
 549      3A20696C 
ARM GAS  C:\Users\BLACK_~1\AppData\Local\Temp\ccnOKFK8.s 			page 23


 549      6C656761 
 549      6C206D65 
 550 003d 000000   		.align	2
 551              	.LC8:
 552 0040 6D656D5F 		.ascii	"mem_free: illegal memory: double free\000"
 552      66726565 
 552      3A20696C 
 552      6C656761 
 552      6C206D65 
 553 0066 0000     		.align	2
 554              	.LC9:
 555 0068 6D656D5F 		.ascii	"mem_free: illegal memory: non-linked: double free\000"
 555      66726565 
 555      3A20696C 
 555      6C656761 
 555      6C206D65 
 556              		.section	.text.mem_free,"ax",%progbits
 557              		.align	1
 558              		.global	mem_free
 559              		.syntax unified
 560              		.thumb
 561              		.thumb_func
 563              	mem_free:
 564              	.LVL46:
 565              	.LFB161:
 565:c:/Users/Black_Life/STM32Cube/Repository/STM32Cube_FW_F4_V1.26.2/Middlewares/Third_Party/LwIP/src/core\mem.c **** 
 566:c:/Users/Black_Life/STM32Cube/Repository/STM32Cube_FW_F4_V1.26.2/Middlewares/Third_Party/LwIP/src/core\mem.c **** #if MEM_SANITY_CHECK
 567:c:/Users/Black_Life/STM32Cube/Repository/STM32Cube_FW_F4_V1.26.2/Middlewares/Third_Party/LwIP/src/core\mem.c **** static void
 568:c:/Users/Black_Life/STM32Cube/Repository/STM32Cube_FW_F4_V1.26.2/Middlewares/Third_Party/LwIP/src/core\mem.c **** mem_sanity(void)
 569:c:/Users/Black_Life/STM32Cube/Repository/STM32Cube_FW_F4_V1.26.2/Middlewares/Third_Party/LwIP/src/core\mem.c **** {
 570:c:/Users/Black_Life/STM32Cube/Repository/STM32Cube_FW_F4_V1.26.2/Middlewares/Third_Party/LwIP/src/core\mem.c ****   struct mem *mem;
 571:c:/Users/Black_Life/STM32Cube/Repository/STM32Cube_FW_F4_V1.26.2/Middlewares/Third_Party/LwIP/src/core\mem.c ****   u8_t last_used;
 572:c:/Users/Black_Life/STM32Cube/Repository/STM32Cube_FW_F4_V1.26.2/Middlewares/Third_Party/LwIP/src/core\mem.c **** 
 573:c:/Users/Black_Life/STM32Cube/Repository/STM32Cube_FW_F4_V1.26.2/Middlewares/Third_Party/LwIP/src/core\mem.c ****   /* begin with first element here */
 574:c:/Users/Black_Life/STM32Cube/Repository/STM32Cube_FW_F4_V1.26.2/Middlewares/Third_Party/LwIP/src/core\mem.c ****   mem = (struct mem *)ram;
 575:c:/Users/Black_Life/STM32Cube/Repository/STM32Cube_FW_F4_V1.26.2/Middlewares/Third_Party/LwIP/src/core\mem.c ****   LWIP_ASSERT("heap element used valid", (mem->used == 0) || (mem->used == 1));
 576:c:/Users/Black_Life/STM32Cube/Repository/STM32Cube_FW_F4_V1.26.2/Middlewares/Third_Party/LwIP/src/core\mem.c ****   last_used = mem->used;
 577:c:/Users/Black_Life/STM32Cube/Repository/STM32Cube_FW_F4_V1.26.2/Middlewares/Third_Party/LwIP/src/core\mem.c ****   LWIP_ASSERT("heap element prev ptr valid", mem->prev == 0);
 578:c:/Users/Black_Life/STM32Cube/Repository/STM32Cube_FW_F4_V1.26.2/Middlewares/Third_Party/LwIP/src/core\mem.c ****   LWIP_ASSERT("heap element next ptr valid", mem->next <= MEM_SIZE_ALIGNED);
 579:c:/Users/Black_Life/STM32Cube/Repository/STM32Cube_FW_F4_V1.26.2/Middlewares/Third_Party/LwIP/src/core\mem.c ****   LWIP_ASSERT("heap element next ptr aligned", LWIP_MEM_ALIGN(ptr_to_mem(mem->next) == ptr_to_mem(m
 580:c:/Users/Black_Life/STM32Cube/Repository/STM32Cube_FW_F4_V1.26.2/Middlewares/Third_Party/LwIP/src/core\mem.c **** 
 581:c:/Users/Black_Life/STM32Cube/Repository/STM32Cube_FW_F4_V1.26.2/Middlewares/Third_Party/LwIP/src/core\mem.c ****   /* check all elements before the end of the heap */
 582:c:/Users/Black_Life/STM32Cube/Repository/STM32Cube_FW_F4_V1.26.2/Middlewares/Third_Party/LwIP/src/core\mem.c ****   for (mem = ptr_to_mem(mem->next);
 583:c:/Users/Black_Life/STM32Cube/Repository/STM32Cube_FW_F4_V1.26.2/Middlewares/Third_Party/LwIP/src/core\mem.c ****        ((u8_t *)mem > ram) && (mem < ram_end);
 584:c:/Users/Black_Life/STM32Cube/Repository/STM32Cube_FW_F4_V1.26.2/Middlewares/Third_Party/LwIP/src/core\mem.c ****        mem = ptr_to_mem(mem->next)) {
 585:c:/Users/Black_Life/STM32Cube/Repository/STM32Cube_FW_F4_V1.26.2/Middlewares/Third_Party/LwIP/src/core\mem.c ****     LWIP_ASSERT("heap element aligned", LWIP_MEM_ALIGN(mem) == mem);
 586:c:/Users/Black_Life/STM32Cube/Repository/STM32Cube_FW_F4_V1.26.2/Middlewares/Third_Party/LwIP/src/core\mem.c ****     LWIP_ASSERT("heap element prev ptr valid", mem->prev <= MEM_SIZE_ALIGNED);
 587:c:/Users/Black_Life/STM32Cube/Repository/STM32Cube_FW_F4_V1.26.2/Middlewares/Third_Party/LwIP/src/core\mem.c ****     LWIP_ASSERT("heap element next ptr valid", mem->next <= MEM_SIZE_ALIGNED);
 588:c:/Users/Black_Life/STM32Cube/Repository/STM32Cube_FW_F4_V1.26.2/Middlewares/Third_Party/LwIP/src/core\mem.c ****     LWIP_ASSERT("heap element prev ptr aligned", LWIP_MEM_ALIGN(ptr_to_mem(mem->prev) == ptr_to_mem
 589:c:/Users/Black_Life/STM32Cube/Repository/STM32Cube_FW_F4_V1.26.2/Middlewares/Third_Party/LwIP/src/core\mem.c ****     LWIP_ASSERT("heap element next ptr aligned", LWIP_MEM_ALIGN(ptr_to_mem(mem->next) == ptr_to_mem
 590:c:/Users/Black_Life/STM32Cube/Repository/STM32Cube_FW_F4_V1.26.2/Middlewares/Third_Party/LwIP/src/core\mem.c **** 
 591:c:/Users/Black_Life/STM32Cube/Repository/STM32Cube_FW_F4_V1.26.2/Middlewares/Third_Party/LwIP/src/core\mem.c ****     if (last_used == 0) {
 592:c:/Users/Black_Life/STM32Cube/Repository/STM32Cube_FW_F4_V1.26.2/Middlewares/Third_Party/LwIP/src/core\mem.c ****       /* 2 unused elements in a row? */
 593:c:/Users/Black_Life/STM32Cube/Repository/STM32Cube_FW_F4_V1.26.2/Middlewares/Third_Party/LwIP/src/core\mem.c ****       LWIP_ASSERT("heap element unused?", mem->used == 1);
 594:c:/Users/Black_Life/STM32Cube/Repository/STM32Cube_FW_F4_V1.26.2/Middlewares/Third_Party/LwIP/src/core\mem.c ****     } else {
 595:c:/Users/Black_Life/STM32Cube/Repository/STM32Cube_FW_F4_V1.26.2/Middlewares/Third_Party/LwIP/src/core\mem.c ****       LWIP_ASSERT("heap element unused member", (mem->used == 0) || (mem->used == 1));
 596:c:/Users/Black_Life/STM32Cube/Repository/STM32Cube_FW_F4_V1.26.2/Middlewares/Third_Party/LwIP/src/core\mem.c ****     }
ARM GAS  C:\Users\BLACK_~1\AppData\Local\Temp\ccnOKFK8.s 			page 24


 597:c:/Users/Black_Life/STM32Cube/Repository/STM32Cube_FW_F4_V1.26.2/Middlewares/Third_Party/LwIP/src/core\mem.c **** 
 598:c:/Users/Black_Life/STM32Cube/Repository/STM32Cube_FW_F4_V1.26.2/Middlewares/Third_Party/LwIP/src/core\mem.c ****     LWIP_ASSERT("heap element link valid", mem_link_valid(mem));
 599:c:/Users/Black_Life/STM32Cube/Repository/STM32Cube_FW_F4_V1.26.2/Middlewares/Third_Party/LwIP/src/core\mem.c **** 
 600:c:/Users/Black_Life/STM32Cube/Repository/STM32Cube_FW_F4_V1.26.2/Middlewares/Third_Party/LwIP/src/core\mem.c ****     /* used/unused altering */
 601:c:/Users/Black_Life/STM32Cube/Repository/STM32Cube_FW_F4_V1.26.2/Middlewares/Third_Party/LwIP/src/core\mem.c ****     last_used = mem->used;
 602:c:/Users/Black_Life/STM32Cube/Repository/STM32Cube_FW_F4_V1.26.2/Middlewares/Third_Party/LwIP/src/core\mem.c ****   }
 603:c:/Users/Black_Life/STM32Cube/Repository/STM32Cube_FW_F4_V1.26.2/Middlewares/Third_Party/LwIP/src/core\mem.c ****   LWIP_ASSERT("heap end ptr sanity", mem == ptr_to_mem(MEM_SIZE_ALIGNED));
 604:c:/Users/Black_Life/STM32Cube/Repository/STM32Cube_FW_F4_V1.26.2/Middlewares/Third_Party/LwIP/src/core\mem.c ****   LWIP_ASSERT("heap element used valid", mem->used == 1);
 605:c:/Users/Black_Life/STM32Cube/Repository/STM32Cube_FW_F4_V1.26.2/Middlewares/Third_Party/LwIP/src/core\mem.c ****   LWIP_ASSERT("heap element prev ptr valid", mem->prev == MEM_SIZE_ALIGNED);
 606:c:/Users/Black_Life/STM32Cube/Repository/STM32Cube_FW_F4_V1.26.2/Middlewares/Third_Party/LwIP/src/core\mem.c ****   LWIP_ASSERT("heap element next ptr valid", mem->next == MEM_SIZE_ALIGNED);
 607:c:/Users/Black_Life/STM32Cube/Repository/STM32Cube_FW_F4_V1.26.2/Middlewares/Third_Party/LwIP/src/core\mem.c **** }
 608:c:/Users/Black_Life/STM32Cube/Repository/STM32Cube_FW_F4_V1.26.2/Middlewares/Third_Party/LwIP/src/core\mem.c **** #endif /* MEM_SANITY_CHECK */
 609:c:/Users/Black_Life/STM32Cube/Repository/STM32Cube_FW_F4_V1.26.2/Middlewares/Third_Party/LwIP/src/core\mem.c **** 
 610:c:/Users/Black_Life/STM32Cube/Repository/STM32Cube_FW_F4_V1.26.2/Middlewares/Third_Party/LwIP/src/core\mem.c **** /**
 611:c:/Users/Black_Life/STM32Cube/Repository/STM32Cube_FW_F4_V1.26.2/Middlewares/Third_Party/LwIP/src/core\mem.c ****  * Put a struct mem back on the heap
 612:c:/Users/Black_Life/STM32Cube/Repository/STM32Cube_FW_F4_V1.26.2/Middlewares/Third_Party/LwIP/src/core\mem.c ****  *
 613:c:/Users/Black_Life/STM32Cube/Repository/STM32Cube_FW_F4_V1.26.2/Middlewares/Third_Party/LwIP/src/core\mem.c ****  * @param rmem is the data portion of a struct mem as returned by a previous
 614:c:/Users/Black_Life/STM32Cube/Repository/STM32Cube_FW_F4_V1.26.2/Middlewares/Third_Party/LwIP/src/core\mem.c ****  *             call to mem_malloc()
 615:c:/Users/Black_Life/STM32Cube/Repository/STM32Cube_FW_F4_V1.26.2/Middlewares/Third_Party/LwIP/src/core\mem.c ****  */
 616:c:/Users/Black_Life/STM32Cube/Repository/STM32Cube_FW_F4_V1.26.2/Middlewares/Third_Party/LwIP/src/core\mem.c **** void
 617:c:/Users/Black_Life/STM32Cube/Repository/STM32Cube_FW_F4_V1.26.2/Middlewares/Third_Party/LwIP/src/core\mem.c **** mem_free(void *rmem)
 618:c:/Users/Black_Life/STM32Cube/Repository/STM32Cube_FW_F4_V1.26.2/Middlewares/Third_Party/LwIP/src/core\mem.c **** {
 566              		.loc 1 618 1 is_stmt 1 view -0
 567              		.cfi_startproc
 568              		@ args = 0, pretend = 0, frame = 0
 569              		@ frame_needed = 0, uses_anonymous_args = 0
 619:c:/Users/Black_Life/STM32Cube/Repository/STM32Cube_FW_F4_V1.26.2/Middlewares/Third_Party/LwIP/src/core\mem.c ****   struct mem *mem;
 570              		.loc 1 619 3 view .LVU151
 620:c:/Users/Black_Life/STM32Cube/Repository/STM32Cube_FW_F4_V1.26.2/Middlewares/Third_Party/LwIP/src/core\mem.c ****   LWIP_MEM_FREE_DECL_PROTECT();
 571              		.loc 1 620 31 view .LVU152
 621:c:/Users/Black_Life/STM32Cube/Repository/STM32Cube_FW_F4_V1.26.2/Middlewares/Third_Party/LwIP/src/core\mem.c **** 
 622:c:/Users/Black_Life/STM32Cube/Repository/STM32Cube_FW_F4_V1.26.2/Middlewares/Third_Party/LwIP/src/core\mem.c ****   if (rmem == NULL) {
 572              		.loc 1 622 3 view .LVU153
 573              		.loc 1 622 6 is_stmt 0 view .LVU154
 574 0000 0028     		cmp	r0, #0
 575 0002 44D0     		beq	.L49
 618:c:/Users/Black_Life/STM32Cube/Repository/STM32Cube_FW_F4_V1.26.2/Middlewares/Third_Party/LwIP/src/core\mem.c ****   struct mem *mem;
 576              		.loc 1 618 1 view .LVU155
 577 0004 38B5     		push	{r3, r4, r5, lr}
 578              	.LCFI3:
 579              		.cfi_def_cfa_offset 16
 580              		.cfi_offset 3, -16
 581              		.cfi_offset 4, -12
 582              		.cfi_offset 5, -8
 583              		.cfi_offset 14, -4
 584 0006 0446     		mov	r4, r0
 623:c:/Users/Black_Life/STM32Cube/Repository/STM32Cube_FW_F4_V1.26.2/Middlewares/Third_Party/LwIP/src/core\mem.c ****     LWIP_DEBUGF(MEM_DEBUG | LWIP_DBG_TRACE | LWIP_DBG_LEVEL_SERIOUS, ("mem_free(p == NULL) was call
 624:c:/Users/Black_Life/STM32Cube/Repository/STM32Cube_FW_F4_V1.26.2/Middlewares/Third_Party/LwIP/src/core\mem.c ****     return;
 625:c:/Users/Black_Life/STM32Cube/Repository/STM32Cube_FW_F4_V1.26.2/Middlewares/Third_Party/LwIP/src/core\mem.c ****   }
 626:c:/Users/Black_Life/STM32Cube/Repository/STM32Cube_FW_F4_V1.26.2/Middlewares/Third_Party/LwIP/src/core\mem.c ****   if ((((mem_ptr_t)rmem) & (MEM_ALIGNMENT - 1)) != 0) {
 585              		.loc 1 626 3 is_stmt 1 view .LVU156
 586              		.loc 1 626 6 is_stmt 0 view .LVU157
 587 0008 10F0030F 		tst	r0, #3
 588 000c 1FD1     		bne	.L52
 627:c:/Users/Black_Life/STM32Cube/Repository/STM32Cube_FW_F4_V1.26.2/Middlewares/Third_Party/LwIP/src/core\mem.c ****     LWIP_MEM_ILLEGAL_FREE("mem_free: sanity check alignment");
 628:c:/Users/Black_Life/STM32Cube/Repository/STM32Cube_FW_F4_V1.26.2/Middlewares/Third_Party/LwIP/src/core\mem.c ****     LWIP_DEBUGF(MEM_DEBUG | LWIP_DBG_LEVEL_SEVERE, ("mem_free: sanity check alignment\n"));
 629:c:/Users/Black_Life/STM32Cube/Repository/STM32Cube_FW_F4_V1.26.2/Middlewares/Third_Party/LwIP/src/core\mem.c ****     /* protect mem stats from concurrent access */
ARM GAS  C:\Users\BLACK_~1\AppData\Local\Temp\ccnOKFK8.s 			page 25


 630:c:/Users/Black_Life/STM32Cube/Repository/STM32Cube_FW_F4_V1.26.2/Middlewares/Third_Party/LwIP/src/core\mem.c ****     MEM_STATS_INC_LOCKED(illegal);
 631:c:/Users/Black_Life/STM32Cube/Repository/STM32Cube_FW_F4_V1.26.2/Middlewares/Third_Party/LwIP/src/core\mem.c ****     return;
 632:c:/Users/Black_Life/STM32Cube/Repository/STM32Cube_FW_F4_V1.26.2/Middlewares/Third_Party/LwIP/src/core\mem.c ****   }
 633:c:/Users/Black_Life/STM32Cube/Repository/STM32Cube_FW_F4_V1.26.2/Middlewares/Third_Party/LwIP/src/core\mem.c **** 
 634:c:/Users/Black_Life/STM32Cube/Repository/STM32Cube_FW_F4_V1.26.2/Middlewares/Third_Party/LwIP/src/core\mem.c ****   /* Get the corresponding struct mem: */
 635:c:/Users/Black_Life/STM32Cube/Repository/STM32Cube_FW_F4_V1.26.2/Middlewares/Third_Party/LwIP/src/core\mem.c ****   /* cast through void* to get rid of alignment warnings */
 636:c:/Users/Black_Life/STM32Cube/Repository/STM32Cube_FW_F4_V1.26.2/Middlewares/Third_Party/LwIP/src/core\mem.c ****   mem = (struct mem *)(void *)((u8_t *)rmem - (SIZEOF_STRUCT_MEM + MEM_SANITY_OFFSET));
 589              		.loc 1 636 3 is_stmt 1 view .LVU158
 590              		.loc 1 636 7 is_stmt 0 view .LVU159
 591 000e A0F10805 		sub	r5, r0, #8
 592              	.LVL47:
 637:c:/Users/Black_Life/STM32Cube/Repository/STM32Cube_FW_F4_V1.26.2/Middlewares/Third_Party/LwIP/src/core\mem.c **** 
 638:c:/Users/Black_Life/STM32Cube/Repository/STM32Cube_FW_F4_V1.26.2/Middlewares/Third_Party/LwIP/src/core\mem.c ****   if ((u8_t *)mem < ram || (u8_t *)rmem + MIN_SIZE_ALIGNED > (u8_t *)ram_end) {
 593              		.loc 1 638 3 is_stmt 1 view .LVU160
 594              		.loc 1 638 19 is_stmt 0 view .LVU161
 595 0012 1F4B     		ldr	r3, .L55
 596 0014 1B68     		ldr	r3, [r3]
 597              		.loc 1 638 6 view .LVU162
 598 0016 AB42     		cmp	r3, r5
 599 0018 21D8     		bhi	.L43
 600              		.loc 1 638 41 discriminator 1 view .LVU163
 601 001a 00F10C03 		add	r3, r0, #12
 602              		.loc 1 638 62 discriminator 1 view .LVU164
 603 001e 1D4A     		ldr	r2, .L55+4
 604 0020 1268     		ldr	r2, [r2]
 605              		.loc 1 638 25 discriminator 1 view .LVU165
 606 0022 9342     		cmp	r3, r2
 607 0024 1BD8     		bhi	.L43
 639:c:/Users/Black_Life/STM32Cube/Repository/STM32Cube_FW_F4_V1.26.2/Middlewares/Third_Party/LwIP/src/core\mem.c ****     LWIP_MEM_ILLEGAL_FREE("mem_free: illegal memory");
 640:c:/Users/Black_Life/STM32Cube/Repository/STM32Cube_FW_F4_V1.26.2/Middlewares/Third_Party/LwIP/src/core\mem.c ****     LWIP_DEBUGF(MEM_DEBUG | LWIP_DBG_LEVEL_SEVERE, ("mem_free: illegal memory\n"));
 641:c:/Users/Black_Life/STM32Cube/Repository/STM32Cube_FW_F4_V1.26.2/Middlewares/Third_Party/LwIP/src/core\mem.c ****     /* protect mem stats from concurrent access */
 642:c:/Users/Black_Life/STM32Cube/Repository/STM32Cube_FW_F4_V1.26.2/Middlewares/Third_Party/LwIP/src/core\mem.c ****     MEM_STATS_INC_LOCKED(illegal);
 643:c:/Users/Black_Life/STM32Cube/Repository/STM32Cube_FW_F4_V1.26.2/Middlewares/Third_Party/LwIP/src/core\mem.c ****     return;
 644:c:/Users/Black_Life/STM32Cube/Repository/STM32Cube_FW_F4_V1.26.2/Middlewares/Third_Party/LwIP/src/core\mem.c ****   }
 645:c:/Users/Black_Life/STM32Cube/Repository/STM32Cube_FW_F4_V1.26.2/Middlewares/Third_Party/LwIP/src/core\mem.c **** #if MEM_OVERFLOW_CHECK
 646:c:/Users/Black_Life/STM32Cube/Repository/STM32Cube_FW_F4_V1.26.2/Middlewares/Third_Party/LwIP/src/core\mem.c ****   mem_overflow_check_element(mem);
 647:c:/Users/Black_Life/STM32Cube/Repository/STM32Cube_FW_F4_V1.26.2/Middlewares/Third_Party/LwIP/src/core\mem.c **** #endif
 648:c:/Users/Black_Life/STM32Cube/Repository/STM32Cube_FW_F4_V1.26.2/Middlewares/Third_Party/LwIP/src/core\mem.c ****   /* protect the heap from concurrent access */
 649:c:/Users/Black_Life/STM32Cube/Repository/STM32Cube_FW_F4_V1.26.2/Middlewares/Third_Party/LwIP/src/core\mem.c ****   LWIP_MEM_FREE_PROTECT();
 608              		.loc 1 649 26 is_stmt 1 view .LVU166
 650:c:/Users/Black_Life/STM32Cube/Repository/STM32Cube_FW_F4_V1.26.2/Middlewares/Third_Party/LwIP/src/core\mem.c ****   /* mem has to be in a used state */
 651:c:/Users/Black_Life/STM32Cube/Repository/STM32Cube_FW_F4_V1.26.2/Middlewares/Third_Party/LwIP/src/core\mem.c ****   if (!mem->used) {
 609              		.loc 1 651 3 view .LVU167
 610              		.loc 1 651 11 is_stmt 0 view .LVU168
 611 0026 10F8043C 		ldrb	r3, [r0, #-4]	@ zero_extendqisi2
 612              		.loc 1 651 6 view .LVU169
 613 002a 03B3     		cbz	r3, .L53
 652:c:/Users/Black_Life/STM32Cube/Repository/STM32Cube_FW_F4_V1.26.2/Middlewares/Third_Party/LwIP/src/core\mem.c ****     LWIP_MEM_ILLEGAL_FREE("mem_free: illegal memory: double free");
 653:c:/Users/Black_Life/STM32Cube/Repository/STM32Cube_FW_F4_V1.26.2/Middlewares/Third_Party/LwIP/src/core\mem.c ****     LWIP_MEM_FREE_UNPROTECT();
 654:c:/Users/Black_Life/STM32Cube/Repository/STM32Cube_FW_F4_V1.26.2/Middlewares/Third_Party/LwIP/src/core\mem.c ****     LWIP_DEBUGF(MEM_DEBUG | LWIP_DBG_LEVEL_SEVERE, ("mem_free: illegal memory: double free?\n"));
 655:c:/Users/Black_Life/STM32Cube/Repository/STM32Cube_FW_F4_V1.26.2/Middlewares/Third_Party/LwIP/src/core\mem.c ****     /* protect mem stats from concurrent access */
 656:c:/Users/Black_Life/STM32Cube/Repository/STM32Cube_FW_F4_V1.26.2/Middlewares/Third_Party/LwIP/src/core\mem.c ****     MEM_STATS_INC_LOCKED(illegal);
 657:c:/Users/Black_Life/STM32Cube/Repository/STM32Cube_FW_F4_V1.26.2/Middlewares/Third_Party/LwIP/src/core\mem.c ****     return;
 658:c:/Users/Black_Life/STM32Cube/Repository/STM32Cube_FW_F4_V1.26.2/Middlewares/Third_Party/LwIP/src/core\mem.c ****   }
 659:c:/Users/Black_Life/STM32Cube/Repository/STM32Cube_FW_F4_V1.26.2/Middlewares/Third_Party/LwIP/src/core\mem.c **** 
 660:c:/Users/Black_Life/STM32Cube/Repository/STM32Cube_FW_F4_V1.26.2/Middlewares/Third_Party/LwIP/src/core\mem.c ****   if (!mem_link_valid(mem)) {
 614              		.loc 1 660 3 is_stmt 1 view .LVU170
ARM GAS  C:\Users\BLACK_~1\AppData\Local\Temp\ccnOKFK8.s 			page 26


 615              		.loc 1 660 8 is_stmt 0 view .LVU171
 616 002c 2846     		mov	r0, r5
 617              	.LVL48:
 618              		.loc 1 660 8 view .LVU172
 619 002e FFF7FEFF 		bl	mem_link_valid
 620              	.LVL49:
 621              		.loc 1 660 6 view .LVU173
 622 0032 20B3     		cbz	r0, .L54
 661:c:/Users/Black_Life/STM32Cube/Repository/STM32Cube_FW_F4_V1.26.2/Middlewares/Third_Party/LwIP/src/core\mem.c ****     LWIP_MEM_ILLEGAL_FREE("mem_free: illegal memory: non-linked: double free");
 662:c:/Users/Black_Life/STM32Cube/Repository/STM32Cube_FW_F4_V1.26.2/Middlewares/Third_Party/LwIP/src/core\mem.c ****     LWIP_MEM_FREE_UNPROTECT();
 663:c:/Users/Black_Life/STM32Cube/Repository/STM32Cube_FW_F4_V1.26.2/Middlewares/Third_Party/LwIP/src/core\mem.c ****     LWIP_DEBUGF(MEM_DEBUG | LWIP_DBG_LEVEL_SEVERE, ("mem_free: illegal memory: non-linked: double f
 664:c:/Users/Black_Life/STM32Cube/Repository/STM32Cube_FW_F4_V1.26.2/Middlewares/Third_Party/LwIP/src/core\mem.c ****     /* protect mem stats from concurrent access */
 665:c:/Users/Black_Life/STM32Cube/Repository/STM32Cube_FW_F4_V1.26.2/Middlewares/Third_Party/LwIP/src/core\mem.c ****     MEM_STATS_INC_LOCKED(illegal);
 666:c:/Users/Black_Life/STM32Cube/Repository/STM32Cube_FW_F4_V1.26.2/Middlewares/Third_Party/LwIP/src/core\mem.c ****     return;
 667:c:/Users/Black_Life/STM32Cube/Repository/STM32Cube_FW_F4_V1.26.2/Middlewares/Third_Party/LwIP/src/core\mem.c ****   }
 668:c:/Users/Black_Life/STM32Cube/Repository/STM32Cube_FW_F4_V1.26.2/Middlewares/Third_Party/LwIP/src/core\mem.c **** 
 669:c:/Users/Black_Life/STM32Cube/Repository/STM32Cube_FW_F4_V1.26.2/Middlewares/Third_Party/LwIP/src/core\mem.c ****   /* mem is now unused. */
 670:c:/Users/Black_Life/STM32Cube/Repository/STM32Cube_FW_F4_V1.26.2/Middlewares/Third_Party/LwIP/src/core\mem.c ****   mem->used = 0;
 623              		.loc 1 670 3 is_stmt 1 view .LVU174
 624              		.loc 1 670 13 is_stmt 0 view .LVU175
 625 0034 0023     		movs	r3, #0
 626 0036 04F8043C 		strb	r3, [r4, #-4]
 671:c:/Users/Black_Life/STM32Cube/Repository/STM32Cube_FW_F4_V1.26.2/Middlewares/Third_Party/LwIP/src/core\mem.c **** 
 672:c:/Users/Black_Life/STM32Cube/Repository/STM32Cube_FW_F4_V1.26.2/Middlewares/Third_Party/LwIP/src/core\mem.c ****   if (mem < lfree) {
 627              		.loc 1 672 3 is_stmt 1 view .LVU176
 628              		.loc 1 672 11 is_stmt 0 view .LVU177
 629 003a 174B     		ldr	r3, .L55+8
 630 003c 1B68     		ldr	r3, [r3]
 631              		.loc 1 672 6 view .LVU178
 632 003e AB42     		cmp	r3, r5
 633 0040 01D9     		bls	.L47
 673:c:/Users/Black_Life/STM32Cube/Repository/STM32Cube_FW_F4_V1.26.2/Middlewares/Third_Party/LwIP/src/core\mem.c ****     /* the newly freed struct is now the lowest */
 674:c:/Users/Black_Life/STM32Cube/Repository/STM32Cube_FW_F4_V1.26.2/Middlewares/Third_Party/LwIP/src/core\mem.c ****     lfree = mem;
 634              		.loc 1 674 5 is_stmt 1 view .LVU179
 635              		.loc 1 674 11 is_stmt 0 view .LVU180
 636 0042 154B     		ldr	r3, .L55+8
 637 0044 1D60     		str	r5, [r3]
 638              	.L47:
 675:c:/Users/Black_Life/STM32Cube/Repository/STM32Cube_FW_F4_V1.26.2/Middlewares/Third_Party/LwIP/src/core\mem.c ****   }
 676:c:/Users/Black_Life/STM32Cube/Repository/STM32Cube_FW_F4_V1.26.2/Middlewares/Third_Party/LwIP/src/core\mem.c **** 
 677:c:/Users/Black_Life/STM32Cube/Repository/STM32Cube_FW_F4_V1.26.2/Middlewares/Third_Party/LwIP/src/core\mem.c ****   MEM_STATS_DEC_USED(used, mem->next - (mem_size_t)(((u8_t *)mem - ram)));
 639              		.loc 1 677 74 is_stmt 1 view .LVU181
 678:c:/Users/Black_Life/STM32Cube/Repository/STM32Cube_FW_F4_V1.26.2/Middlewares/Third_Party/LwIP/src/core\mem.c **** 
 679:c:/Users/Black_Life/STM32Cube/Repository/STM32Cube_FW_F4_V1.26.2/Middlewares/Third_Party/LwIP/src/core\mem.c ****   /* finally, see if prev or next are free also */
 680:c:/Users/Black_Life/STM32Cube/Repository/STM32Cube_FW_F4_V1.26.2/Middlewares/Third_Party/LwIP/src/core\mem.c ****   plug_holes(mem);
 640              		.loc 1 680 3 view .LVU182
 641 0046 2846     		mov	r0, r5
 642 0048 FFF7FEFF 		bl	plug_holes
 643              	.LVL50:
 681:c:/Users/Black_Life/STM32Cube/Repository/STM32Cube_FW_F4_V1.26.2/Middlewares/Third_Party/LwIP/src/core\mem.c ****   MEM_SANITY();
 644              		.loc 1 681 15 view .LVU183
 682:c:/Users/Black_Life/STM32Cube/Repository/STM32Cube_FW_F4_V1.26.2/Middlewares/Third_Party/LwIP/src/core\mem.c **** #if LWIP_ALLOW_MEM_FREE_FROM_OTHER_CONTEXT
 683:c:/Users/Black_Life/STM32Cube/Repository/STM32Cube_FW_F4_V1.26.2/Middlewares/Third_Party/LwIP/src/core\mem.c ****   mem_free_count = 1;
 684:c:/Users/Black_Life/STM32Cube/Repository/STM32Cube_FW_F4_V1.26.2/Middlewares/Third_Party/LwIP/src/core\mem.c **** #endif /* LWIP_ALLOW_MEM_FREE_FROM_OTHER_CONTEXT */
 685:c:/Users/Black_Life/STM32Cube/Repository/STM32Cube_FW_F4_V1.26.2/Middlewares/Third_Party/LwIP/src/core\mem.c ****   LWIP_MEM_FREE_UNPROTECT();
 645              		.loc 1 685 28 view .LVU184
 646 004c 0EE0     		b	.L40
ARM GAS  C:\Users\BLACK_~1\AppData\Local\Temp\ccnOKFK8.s 			page 27


 647              	.LVL51:
 648              	.L52:
 627:c:/Users/Black_Life/STM32Cube/Repository/STM32Cube_FW_F4_V1.26.2/Middlewares/Third_Party/LwIP/src/core\mem.c ****     LWIP_DEBUGF(MEM_DEBUG | LWIP_DBG_LEVEL_SEVERE, ("mem_free: sanity check alignment\n"));
 649              		.loc 1 627 5 discriminator 1 view .LVU185
 627:c:/Users/Black_Life/STM32Cube/Repository/STM32Cube_FW_F4_V1.26.2/Middlewares/Third_Party/LwIP/src/core\mem.c ****     LWIP_DEBUGF(MEM_DEBUG | LWIP_DBG_LEVEL_SEVERE, ("mem_free: sanity check alignment\n"));
 650              		.loc 1 627 5 discriminator 1 view .LVU186
 627:c:/Users/Black_Life/STM32Cube/Repository/STM32Cube_FW_F4_V1.26.2/Middlewares/Third_Party/LwIP/src/core\mem.c ****     LWIP_DEBUGF(MEM_DEBUG | LWIP_DBG_LEVEL_SEVERE, ("mem_free: sanity check alignment\n"));
 651              		.loc 1 627 5 discriminator 1 view .LVU187
 627:c:/Users/Black_Life/STM32Cube/Repository/STM32Cube_FW_F4_V1.26.2/Middlewares/Third_Party/LwIP/src/core\mem.c ****     LWIP_DEBUGF(MEM_DEBUG | LWIP_DBG_LEVEL_SEVERE, ("mem_free: sanity check alignment\n"));
 652              		.loc 1 627 5 discriminator 1 view .LVU188
 653 004e 134B     		ldr	r3, .L55+12
 654 0050 40F27322 		movw	r2, #627
 655 0054 1249     		ldr	r1, .L55+16
 656 0056 1348     		ldr	r0, .L55+20
 657              	.LVL52:
 627:c:/Users/Black_Life/STM32Cube/Repository/STM32Cube_FW_F4_V1.26.2/Middlewares/Third_Party/LwIP/src/core\mem.c ****     LWIP_DEBUGF(MEM_DEBUG | LWIP_DBG_LEVEL_SEVERE, ("mem_free: sanity check alignment\n"));
 658              		.loc 1 627 5 is_stmt 0 discriminator 1 view .LVU189
 659 0058 FFF7FEFF 		bl	printf
 660              	.LVL53:
 627:c:/Users/Black_Life/STM32Cube/Repository/STM32Cube_FW_F4_V1.26.2/Middlewares/Third_Party/LwIP/src/core\mem.c ****     LWIP_DEBUGF(MEM_DEBUG | LWIP_DBG_LEVEL_SEVERE, ("mem_free: sanity check alignment\n"));
 661              		.loc 1 627 5 is_stmt 1 discriminator 1 view .LVU190
 627:c:/Users/Black_Life/STM32Cube/Repository/STM32Cube_FW_F4_V1.26.2/Middlewares/Third_Party/LwIP/src/core\mem.c ****     LWIP_DEBUGF(MEM_DEBUG | LWIP_DBG_LEVEL_SEVERE, ("mem_free: sanity check alignment\n"));
 662              		.loc 1 627 5 discriminator 1 view .LVU191
 628:c:/Users/Black_Life/STM32Cube/Repository/STM32Cube_FW_F4_V1.26.2/Middlewares/Third_Party/LwIP/src/core\mem.c ****     /* protect mem stats from concurrent access */
 663              		.loc 1 628 91 discriminator 1 view .LVU192
 630:c:/Users/Black_Life/STM32Cube/Repository/STM32Cube_FW_F4_V1.26.2/Middlewares/Third_Party/LwIP/src/core\mem.c ****     return;
 664              		.loc 1 630 5 discriminator 1 view .LVU193
 630:c:/Users/Black_Life/STM32Cube/Repository/STM32Cube_FW_F4_V1.26.2/Middlewares/Third_Party/LwIP/src/core\mem.c ****     return;
 665              		.loc 1 630 5 discriminator 1 view .LVU194
 630:c:/Users/Black_Life/STM32Cube/Repository/STM32Cube_FW_F4_V1.26.2/Middlewares/Third_Party/LwIP/src/core\mem.c ****     return;
 666              		.loc 1 630 5 discriminator 1 view .LVU195
 630:c:/Users/Black_Life/STM32Cube/Repository/STM32Cube_FW_F4_V1.26.2/Middlewares/Third_Party/LwIP/src/core\mem.c ****     return;
 667              		.loc 1 630 5 discriminator 1 view .LVU196
 630:c:/Users/Black_Life/STM32Cube/Repository/STM32Cube_FW_F4_V1.26.2/Middlewares/Third_Party/LwIP/src/core\mem.c ****     return;
 668              		.loc 1 630 5 discriminator 1 view .LVU197
 630:c:/Users/Black_Life/STM32Cube/Repository/STM32Cube_FW_F4_V1.26.2/Middlewares/Third_Party/LwIP/src/core\mem.c ****     return;
 669              		.loc 1 630 5 discriminator 1 view .LVU198
 631:c:/Users/Black_Life/STM32Cube/Repository/STM32Cube_FW_F4_V1.26.2/Middlewares/Third_Party/LwIP/src/core\mem.c ****   }
 670              		.loc 1 631 5 discriminator 1 view .LVU199
 671 005c 06E0     		b	.L40
 672              	.LVL54:
 673              	.L43:
 639:c:/Users/Black_Life/STM32Cube/Repository/STM32Cube_FW_F4_V1.26.2/Middlewares/Third_Party/LwIP/src/core\mem.c ****     LWIP_DEBUGF(MEM_DEBUG | LWIP_DBG_LEVEL_SEVERE, ("mem_free: illegal memory\n"));
 674              		.loc 1 639 5 discriminator 1 view .LVU200
 639:c:/Users/Black_Life/STM32Cube/Repository/STM32Cube_FW_F4_V1.26.2/Middlewares/Third_Party/LwIP/src/core\mem.c ****     LWIP_DEBUGF(MEM_DEBUG | LWIP_DBG_LEVEL_SEVERE, ("mem_free: illegal memory\n"));
 675              		.loc 1 639 5 discriminator 1 view .LVU201
 639:c:/Users/Black_Life/STM32Cube/Repository/STM32Cube_FW_F4_V1.26.2/Middlewares/Third_Party/LwIP/src/core\mem.c ****     LWIP_DEBUGF(MEM_DEBUG | LWIP_DBG_LEVEL_SEVERE, ("mem_free: illegal memory\n"));
 676              		.loc 1 639 5 discriminator 1 view .LVU202
 639:c:/Users/Black_Life/STM32Cube/Repository/STM32Cube_FW_F4_V1.26.2/Middlewares/Third_Party/LwIP/src/core\mem.c ****     LWIP_DEBUGF(MEM_DEBUG | LWIP_DBG_LEVEL_SEVERE, ("mem_free: illegal memory\n"));
 677              		.loc 1 639 5 discriminator 1 view .LVU203
 678 005e 0F4B     		ldr	r3, .L55+12
 679 0060 40F27F22 		movw	r2, #639
 680 0064 1049     		ldr	r1, .L55+24
 681 0066 0F48     		ldr	r0, .L55+20
 682              	.LVL55:
 639:c:/Users/Black_Life/STM32Cube/Repository/STM32Cube_FW_F4_V1.26.2/Middlewares/Third_Party/LwIP/src/core\mem.c ****     LWIP_DEBUGF(MEM_DEBUG | LWIP_DBG_LEVEL_SEVERE, ("mem_free: illegal memory\n"));
 683              		.loc 1 639 5 is_stmt 0 discriminator 1 view .LVU204
ARM GAS  C:\Users\BLACK_~1\AppData\Local\Temp\ccnOKFK8.s 			page 28


 684 0068 FFF7FEFF 		bl	printf
 685              	.LVL56:
 639:c:/Users/Black_Life/STM32Cube/Repository/STM32Cube_FW_F4_V1.26.2/Middlewares/Third_Party/LwIP/src/core\mem.c ****     LWIP_DEBUGF(MEM_DEBUG | LWIP_DBG_LEVEL_SEVERE, ("mem_free: illegal memory\n"));
 686              		.loc 1 639 5 is_stmt 1 discriminator 1 view .LVU205
 639:c:/Users/Black_Life/STM32Cube/Repository/STM32Cube_FW_F4_V1.26.2/Middlewares/Third_Party/LwIP/src/core\mem.c ****     LWIP_DEBUGF(MEM_DEBUG | LWIP_DBG_LEVEL_SEVERE, ("mem_free: illegal memory\n"));
 687              		.loc 1 639 5 discriminator 1 view .LVU206
 640:c:/Users/Black_Life/STM32Cube/Repository/STM32Cube_FW_F4_V1.26.2/Middlewares/Third_Party/LwIP/src/core\mem.c ****     /* protect mem stats from concurrent access */
 688              		.loc 1 640 83 discriminator 1 view .LVU207
 642:c:/Users/Black_Life/STM32Cube/Repository/STM32Cube_FW_F4_V1.26.2/Middlewares/Third_Party/LwIP/src/core\mem.c ****     return;
 689              		.loc 1 642 5 discriminator 1 view .LVU208
 642:c:/Users/Black_Life/STM32Cube/Repository/STM32Cube_FW_F4_V1.26.2/Middlewares/Third_Party/LwIP/src/core\mem.c ****     return;
 690              		.loc 1 642 5 discriminator 1 view .LVU209
 642:c:/Users/Black_Life/STM32Cube/Repository/STM32Cube_FW_F4_V1.26.2/Middlewares/Third_Party/LwIP/src/core\mem.c ****     return;
 691              		.loc 1 642 5 discriminator 1 view .LVU210
 642:c:/Users/Black_Life/STM32Cube/Repository/STM32Cube_FW_F4_V1.26.2/Middlewares/Third_Party/LwIP/src/core\mem.c ****     return;
 692              		.loc 1 642 5 discriminator 1 view .LVU211
 642:c:/Users/Black_Life/STM32Cube/Repository/STM32Cube_FW_F4_V1.26.2/Middlewares/Third_Party/LwIP/src/core\mem.c ****     return;
 693              		.loc 1 642 5 discriminator 1 view .LVU212
 642:c:/Users/Black_Life/STM32Cube/Repository/STM32Cube_FW_F4_V1.26.2/Middlewares/Third_Party/LwIP/src/core\mem.c ****     return;
 694              		.loc 1 642 5 discriminator 1 view .LVU213
 643:c:/Users/Black_Life/STM32Cube/Repository/STM32Cube_FW_F4_V1.26.2/Middlewares/Third_Party/LwIP/src/core\mem.c ****   }
 695              		.loc 1 643 5 discriminator 1 view .LVU214
 696              	.L40:
 686:c:/Users/Black_Life/STM32Cube/Repository/STM32Cube_FW_F4_V1.26.2/Middlewares/Third_Party/LwIP/src/core\mem.c **** }
 697              		.loc 1 686 1 is_stmt 0 view .LVU215
 698 006c 38BD     		pop	{r3, r4, r5, pc}
 699              	.LVL57:
 700              	.L53:
 652:c:/Users/Black_Life/STM32Cube/Repository/STM32Cube_FW_F4_V1.26.2/Middlewares/Third_Party/LwIP/src/core\mem.c ****     LWIP_MEM_FREE_UNPROTECT();
 701              		.loc 1 652 5 is_stmt 1 discriminator 1 view .LVU216
 652:c:/Users/Black_Life/STM32Cube/Repository/STM32Cube_FW_F4_V1.26.2/Middlewares/Third_Party/LwIP/src/core\mem.c ****     LWIP_MEM_FREE_UNPROTECT();
 702              		.loc 1 652 5 discriminator 1 view .LVU217
 652:c:/Users/Black_Life/STM32Cube/Repository/STM32Cube_FW_F4_V1.26.2/Middlewares/Third_Party/LwIP/src/core\mem.c ****     LWIP_MEM_FREE_UNPROTECT();
 703              		.loc 1 652 5 discriminator 1 view .LVU218
 652:c:/Users/Black_Life/STM32Cube/Repository/STM32Cube_FW_F4_V1.26.2/Middlewares/Third_Party/LwIP/src/core\mem.c ****     LWIP_MEM_FREE_UNPROTECT();
 704              		.loc 1 652 5 discriminator 1 view .LVU219
 705 006e 0B4B     		ldr	r3, .L55+12
 706 0070 4FF42372 		mov	r2, #652
 707 0074 0D49     		ldr	r1, .L55+28
 708 0076 0B48     		ldr	r0, .L55+20
 709              	.LVL58:
 652:c:/Users/Black_Life/STM32Cube/Repository/STM32Cube_FW_F4_V1.26.2/Middlewares/Third_Party/LwIP/src/core\mem.c ****     LWIP_MEM_FREE_UNPROTECT();
 710              		.loc 1 652 5 is_stmt 0 discriminator 1 view .LVU220
 711 0078 FFF7FEFF 		bl	printf
 712              	.LVL59:
 652:c:/Users/Black_Life/STM32Cube/Repository/STM32Cube_FW_F4_V1.26.2/Middlewares/Third_Party/LwIP/src/core\mem.c ****     LWIP_MEM_FREE_UNPROTECT();
 713              		.loc 1 652 5 is_stmt 1 discriminator 1 view .LVU221
 652:c:/Users/Black_Life/STM32Cube/Repository/STM32Cube_FW_F4_V1.26.2/Middlewares/Third_Party/LwIP/src/core\mem.c ****     LWIP_MEM_FREE_UNPROTECT();
 714              		.loc 1 652 5 discriminator 1 view .LVU222
 653:c:/Users/Black_Life/STM32Cube/Repository/STM32Cube_FW_F4_V1.26.2/Middlewares/Third_Party/LwIP/src/core\mem.c ****     LWIP_DEBUGF(MEM_DEBUG | LWIP_DBG_LEVEL_SEVERE, ("mem_free: illegal memory: double free?\n"));
 715              		.loc 1 653 30 discriminator 1 view .LVU223
 654:c:/Users/Black_Life/STM32Cube/Repository/STM32Cube_FW_F4_V1.26.2/Middlewares/Third_Party/LwIP/src/core\mem.c ****     /* protect mem stats from concurrent access */
 716              		.loc 1 654 97 discriminator 1 view .LVU224
 656:c:/Users/Black_Life/STM32Cube/Repository/STM32Cube_FW_F4_V1.26.2/Middlewares/Third_Party/LwIP/src/core\mem.c ****     return;
 717              		.loc 1 656 5 discriminator 1 view .LVU225
 656:c:/Users/Black_Life/STM32Cube/Repository/STM32Cube_FW_F4_V1.26.2/Middlewares/Third_Party/LwIP/src/core\mem.c ****     return;
 718              		.loc 1 656 5 discriminator 1 view .LVU226
ARM GAS  C:\Users\BLACK_~1\AppData\Local\Temp\ccnOKFK8.s 			page 29


 656:c:/Users/Black_Life/STM32Cube/Repository/STM32Cube_FW_F4_V1.26.2/Middlewares/Third_Party/LwIP/src/core\mem.c ****     return;
 719              		.loc 1 656 5 discriminator 1 view .LVU227
 656:c:/Users/Black_Life/STM32Cube/Repository/STM32Cube_FW_F4_V1.26.2/Middlewares/Third_Party/LwIP/src/core\mem.c ****     return;
 720              		.loc 1 656 5 discriminator 1 view .LVU228
 656:c:/Users/Black_Life/STM32Cube/Repository/STM32Cube_FW_F4_V1.26.2/Middlewares/Third_Party/LwIP/src/core\mem.c ****     return;
 721              		.loc 1 656 5 discriminator 1 view .LVU229
 656:c:/Users/Black_Life/STM32Cube/Repository/STM32Cube_FW_F4_V1.26.2/Middlewares/Third_Party/LwIP/src/core\mem.c ****     return;
 722              		.loc 1 656 5 discriminator 1 view .LVU230
 657:c:/Users/Black_Life/STM32Cube/Repository/STM32Cube_FW_F4_V1.26.2/Middlewares/Third_Party/LwIP/src/core\mem.c ****   }
 723              		.loc 1 657 5 discriminator 1 view .LVU231
 724 007c F6E7     		b	.L40
 725              	.L54:
 661:c:/Users/Black_Life/STM32Cube/Repository/STM32Cube_FW_F4_V1.26.2/Middlewares/Third_Party/LwIP/src/core\mem.c ****     LWIP_MEM_FREE_UNPROTECT();
 726              		.loc 1 661 5 discriminator 1 view .LVU232
 661:c:/Users/Black_Life/STM32Cube/Repository/STM32Cube_FW_F4_V1.26.2/Middlewares/Third_Party/LwIP/src/core\mem.c ****     LWIP_MEM_FREE_UNPROTECT();
 727              		.loc 1 661 5 discriminator 1 view .LVU233
 661:c:/Users/Black_Life/STM32Cube/Repository/STM32Cube_FW_F4_V1.26.2/Middlewares/Third_Party/LwIP/src/core\mem.c ****     LWIP_MEM_FREE_UNPROTECT();
 728              		.loc 1 661 5 discriminator 1 view .LVU234
 661:c:/Users/Black_Life/STM32Cube/Repository/STM32Cube_FW_F4_V1.26.2/Middlewares/Third_Party/LwIP/src/core\mem.c ****     LWIP_MEM_FREE_UNPROTECT();
 729              		.loc 1 661 5 discriminator 1 view .LVU235
 730 007e 074B     		ldr	r3, .L55+12
 731 0080 40F29522 		movw	r2, #661
 732 0084 0A49     		ldr	r1, .L55+32
 733 0086 0748     		ldr	r0, .L55+20
 734 0088 FFF7FEFF 		bl	printf
 735              	.LVL60:
 661:c:/Users/Black_Life/STM32Cube/Repository/STM32Cube_FW_F4_V1.26.2/Middlewares/Third_Party/LwIP/src/core\mem.c ****     LWIP_MEM_FREE_UNPROTECT();
 736              		.loc 1 661 5 discriminator 1 view .LVU236
 661:c:/Users/Black_Life/STM32Cube/Repository/STM32Cube_FW_F4_V1.26.2/Middlewares/Third_Party/LwIP/src/core\mem.c ****     LWIP_MEM_FREE_UNPROTECT();
 737              		.loc 1 661 5 discriminator 1 view .LVU237
 662:c:/Users/Black_Life/STM32Cube/Repository/STM32Cube_FW_F4_V1.26.2/Middlewares/Third_Party/LwIP/src/core\mem.c ****     LWIP_DEBUGF(MEM_DEBUG | LWIP_DBG_LEVEL_SEVERE, ("mem_free: illegal memory: non-linked: double f
 738              		.loc 1 662 30 discriminator 1 view .LVU238
 663:c:/Users/Black_Life/STM32Cube/Repository/STM32Cube_FW_F4_V1.26.2/Middlewares/Third_Party/LwIP/src/core\mem.c ****     /* protect mem stats from concurrent access */
 739              		.loc 1 663 109 discriminator 1 view .LVU239
 665:c:/Users/Black_Life/STM32Cube/Repository/STM32Cube_FW_F4_V1.26.2/Middlewares/Third_Party/LwIP/src/core\mem.c ****     return;
 740              		.loc 1 665 5 discriminator 1 view .LVU240
 665:c:/Users/Black_Life/STM32Cube/Repository/STM32Cube_FW_F4_V1.26.2/Middlewares/Third_Party/LwIP/src/core\mem.c ****     return;
 741              		.loc 1 665 5 discriminator 1 view .LVU241
 665:c:/Users/Black_Life/STM32Cube/Repository/STM32Cube_FW_F4_V1.26.2/Middlewares/Third_Party/LwIP/src/core\mem.c ****     return;
 742              		.loc 1 665 5 discriminator 1 view .LVU242
 665:c:/Users/Black_Life/STM32Cube/Repository/STM32Cube_FW_F4_V1.26.2/Middlewares/Third_Party/LwIP/src/core\mem.c ****     return;
 743              		.loc 1 665 5 discriminator 1 view .LVU243
 665:c:/Users/Black_Life/STM32Cube/Repository/STM32Cube_FW_F4_V1.26.2/Middlewares/Third_Party/LwIP/src/core\mem.c ****     return;
 744              		.loc 1 665 5 discriminator 1 view .LVU244
 665:c:/Users/Black_Life/STM32Cube/Repository/STM32Cube_FW_F4_V1.26.2/Middlewares/Third_Party/LwIP/src/core\mem.c ****     return;
 745              		.loc 1 665 5 discriminator 1 view .LVU245
 666:c:/Users/Black_Life/STM32Cube/Repository/STM32Cube_FW_F4_V1.26.2/Middlewares/Third_Party/LwIP/src/core\mem.c ****   }
 746              		.loc 1 666 5 discriminator 1 view .LVU246
 747 008c EEE7     		b	.L40
 748              	.LVL61:
 749              	.L49:
 750              	.LCFI4:
 751              		.cfi_def_cfa_offset 0
 752              		.cfi_restore 3
 753              		.cfi_restore 4
 754              		.cfi_restore 5
 755              		.cfi_restore 14
ARM GAS  C:\Users\BLACK_~1\AppData\Local\Temp\ccnOKFK8.s 			page 30


 666:c:/Users/Black_Life/STM32Cube/Repository/STM32Cube_FW_F4_V1.26.2/Middlewares/Third_Party/LwIP/src/core\mem.c ****   }
 756              		.loc 1 666 5 is_stmt 0 discriminator 1 view .LVU247
 757 008e 7047     		bx	lr
 758              	.L56:
 759              		.align	2
 760              	.L55:
 761 0090 00000000 		.word	.LANCHOR0
 762 0094 00000000 		.word	.LANCHOR1
 763 0098 00000000 		.word	.LANCHOR2
 764 009c 00000000 		.word	.LC0
 765 00a0 00000000 		.word	.LC6
 766 00a4 88000000 		.word	.LC2
 767 00a8 24000000 		.word	.LC7
 768 00ac 40000000 		.word	.LC8
 769 00b0 68000000 		.word	.LC9
 770              		.cfi_endproc
 771              	.LFE161:
 773              		.section	.rodata.mem_trim.str1.4,"aMS",%progbits,1
 774              		.align	2
 775              	.LC10:
 776 0000 6D656D5F 		.ascii	"mem_trim: legal memory\000"
 776      7472696D 
 776      3A206C65 
 776      67616C20 
 776      6D656D6F 
 777 0017 00       		.align	2
 778              	.LC11:
 779 0018 6D656D5F 		.ascii	"mem_trim can only shrink memory\000"
 779      7472696D 
 779      2063616E 
 779      206F6E6C 
 779      79207368 
 780              		.align	2
 781              	.LC12:
 782 0038 696E7661 		.ascii	"invalid next ptr\000"
 782      6C696420 
 782      6E657874 
 782      20707472 
 782      00
 783              		.section	.text.mem_trim,"ax",%progbits
 784              		.align	1
 785              		.global	mem_trim
 786              		.syntax unified
 787              		.thumb
 788              		.thumb_func
 790              	mem_trim:
 791              	.LVL62:
 792              	.LFB162:
 687:c:/Users/Black_Life/STM32Cube/Repository/STM32Cube_FW_F4_V1.26.2/Middlewares/Third_Party/LwIP/src/core\mem.c **** 
 688:c:/Users/Black_Life/STM32Cube/Repository/STM32Cube_FW_F4_V1.26.2/Middlewares/Third_Party/LwIP/src/core\mem.c **** /**
 689:c:/Users/Black_Life/STM32Cube/Repository/STM32Cube_FW_F4_V1.26.2/Middlewares/Third_Party/LwIP/src/core\mem.c ****  * Shrink memory returned by mem_malloc().
 690:c:/Users/Black_Life/STM32Cube/Repository/STM32Cube_FW_F4_V1.26.2/Middlewares/Third_Party/LwIP/src/core\mem.c ****  *
 691:c:/Users/Black_Life/STM32Cube/Repository/STM32Cube_FW_F4_V1.26.2/Middlewares/Third_Party/LwIP/src/core\mem.c ****  * @param rmem pointer to memory allocated by mem_malloc the is to be shrinked
 692:c:/Users/Black_Life/STM32Cube/Repository/STM32Cube_FW_F4_V1.26.2/Middlewares/Third_Party/LwIP/src/core\mem.c ****  * @param new_size required size after shrinking (needs to be smaller than or
 693:c:/Users/Black_Life/STM32Cube/Repository/STM32Cube_FW_F4_V1.26.2/Middlewares/Third_Party/LwIP/src/core\mem.c ****  *                equal to the previous size)
 694:c:/Users/Black_Life/STM32Cube/Repository/STM32Cube_FW_F4_V1.26.2/Middlewares/Third_Party/LwIP/src/core\mem.c ****  * @return for compatibility reasons: is always == rmem, at the moment
 695:c:/Users/Black_Life/STM32Cube/Repository/STM32Cube_FW_F4_V1.26.2/Middlewares/Third_Party/LwIP/src/core\mem.c ****  *         or NULL if newsize is > old size, in which case rmem is NOT touched
ARM GAS  C:\Users\BLACK_~1\AppData\Local\Temp\ccnOKFK8.s 			page 31


 696:c:/Users/Black_Life/STM32Cube/Repository/STM32Cube_FW_F4_V1.26.2/Middlewares/Third_Party/LwIP/src/core\mem.c ****  *         or freed!
 697:c:/Users/Black_Life/STM32Cube/Repository/STM32Cube_FW_F4_V1.26.2/Middlewares/Third_Party/LwIP/src/core\mem.c ****  */
 698:c:/Users/Black_Life/STM32Cube/Repository/STM32Cube_FW_F4_V1.26.2/Middlewares/Third_Party/LwIP/src/core\mem.c **** void *
 699:c:/Users/Black_Life/STM32Cube/Repository/STM32Cube_FW_F4_V1.26.2/Middlewares/Third_Party/LwIP/src/core\mem.c **** mem_trim(void *rmem, mem_size_t new_size)
 700:c:/Users/Black_Life/STM32Cube/Repository/STM32Cube_FW_F4_V1.26.2/Middlewares/Third_Party/LwIP/src/core\mem.c **** {
 793              		.loc 1 700 1 is_stmt 1 view -0
 794              		.cfi_startproc
 795              		@ args = 0, pretend = 0, frame = 0
 796              		@ frame_needed = 0, uses_anonymous_args = 0
 797              		.loc 1 700 1 is_stmt 0 view .LVU249
 798 0000 2DE9F843 		push	{r3, r4, r5, r6, r7, r8, r9, lr}
 799              	.LCFI5:
 800              		.cfi_def_cfa_offset 32
 801              		.cfi_offset 3, -32
 802              		.cfi_offset 4, -28
 803              		.cfi_offset 5, -24
 804              		.cfi_offset 6, -20
 805              		.cfi_offset 7, -16
 806              		.cfi_offset 8, -12
 807              		.cfi_offset 9, -8
 808              		.cfi_offset 14, -4
 809 0004 0546     		mov	r5, r0
 701:c:/Users/Black_Life/STM32Cube/Repository/STM32Cube_FW_F4_V1.26.2/Middlewares/Third_Party/LwIP/src/core\mem.c ****   mem_size_t size, newsize;
 810              		.loc 1 701 3 is_stmt 1 view .LVU250
 702:c:/Users/Black_Life/STM32Cube/Repository/STM32Cube_FW_F4_V1.26.2/Middlewares/Third_Party/LwIP/src/core\mem.c ****   mem_size_t ptr, ptr2;
 811              		.loc 1 702 3 view .LVU251
 703:c:/Users/Black_Life/STM32Cube/Repository/STM32Cube_FW_F4_V1.26.2/Middlewares/Third_Party/LwIP/src/core\mem.c ****   struct mem *mem, *mem2;
 812              		.loc 1 703 3 view .LVU252
 704:c:/Users/Black_Life/STM32Cube/Repository/STM32Cube_FW_F4_V1.26.2/Middlewares/Third_Party/LwIP/src/core\mem.c ****   /* use the FREE_PROTECT here: it protects with sem OR SYS_ARCH_PROTECT */
 705:c:/Users/Black_Life/STM32Cube/Repository/STM32Cube_FW_F4_V1.26.2/Middlewares/Third_Party/LwIP/src/core\mem.c ****   LWIP_MEM_FREE_DECL_PROTECT();
 813              		.loc 1 705 31 view .LVU253
 706:c:/Users/Black_Life/STM32Cube/Repository/STM32Cube_FW_F4_V1.26.2/Middlewares/Third_Party/LwIP/src/core\mem.c **** 
 707:c:/Users/Black_Life/STM32Cube/Repository/STM32Cube_FW_F4_V1.26.2/Middlewares/Third_Party/LwIP/src/core\mem.c ****   /* Expand the size of the allocated memory region so that we can
 708:c:/Users/Black_Life/STM32Cube/Repository/STM32Cube_FW_F4_V1.26.2/Middlewares/Third_Party/LwIP/src/core\mem.c ****      adjust for alignment. */
 709:c:/Users/Black_Life/STM32Cube/Repository/STM32Cube_FW_F4_V1.26.2/Middlewares/Third_Party/LwIP/src/core\mem.c ****   newsize = (mem_size_t)LWIP_MEM_ALIGN_SIZE(new_size);
 814              		.loc 1 709 3 view .LVU254
 815              		.loc 1 709 25 is_stmt 0 view .LVU255
 816 0006 CC1C     		adds	r4, r1, #3
 817 0008 A4B2     		uxth	r4, r4
 818              		.loc 1 709 11 view .LVU256
 819 000a 24F00304 		bic	r4, r4, #3
 820 000e A4B2     		uxth	r4, r4
 821              	.LVL63:
 710:c:/Users/Black_Life/STM32Cube/Repository/STM32Cube_FW_F4_V1.26.2/Middlewares/Third_Party/LwIP/src/core\mem.c ****   if (newsize < MIN_SIZE_ALIGNED) {
 822              		.loc 1 710 3 is_stmt 1 view .LVU257
 823              		.loc 1 710 6 is_stmt 0 view .LVU258
 824 0010 0B2C     		cmp	r4, #11
 825 0012 04D9     		bls	.L68
 711:c:/Users/Black_Life/STM32Cube/Repository/STM32Cube_FW_F4_V1.26.2/Middlewares/Third_Party/LwIP/src/core\mem.c ****     /* every data block must be at least MIN_SIZE_ALIGNED long */
 712:c:/Users/Black_Life/STM32Cube/Repository/STM32Cube_FW_F4_V1.26.2/Middlewares/Third_Party/LwIP/src/core\mem.c ****     newsize = MIN_SIZE_ALIGNED;
 713:c:/Users/Black_Life/STM32Cube/Repository/STM32Cube_FW_F4_V1.26.2/Middlewares/Third_Party/LwIP/src/core\mem.c ****   }
 714:c:/Users/Black_Life/STM32Cube/Repository/STM32Cube_FW_F4_V1.26.2/Middlewares/Third_Party/LwIP/src/core\mem.c **** #if MEM_OVERFLOW_CHECK
 715:c:/Users/Black_Life/STM32Cube/Repository/STM32Cube_FW_F4_V1.26.2/Middlewares/Third_Party/LwIP/src/core\mem.c ****   newsize += MEM_SANITY_REGION_BEFORE_ALIGNED + MEM_SANITY_REGION_AFTER_ALIGNED;
 716:c:/Users/Black_Life/STM32Cube/Repository/STM32Cube_FW_F4_V1.26.2/Middlewares/Third_Party/LwIP/src/core\mem.c **** #endif
 717:c:/Users/Black_Life/STM32Cube/Repository/STM32Cube_FW_F4_V1.26.2/Middlewares/Third_Party/LwIP/src/core\mem.c ****   if ((newsize > MEM_SIZE_ALIGNED) || (newsize < new_size)) {
 826              		.loc 1 717 3 is_stmt 1 view .LVU259
 827              		.loc 1 717 6 is_stmt 0 view .LVU260
ARM GAS  C:\Users\BLACK_~1\AppData\Local\Temp\ccnOKFK8.s 			page 32


 828 0014 B4F5C86F 		cmp	r4, #1600
 829 0018 02D9     		bls	.L58
 718:c:/Users/Black_Life/STM32Cube/Repository/STM32Cube_FW_F4_V1.26.2/Middlewares/Third_Party/LwIP/src/core\mem.c ****     return NULL;
 830              		.loc 1 718 12 view .LVU261
 831 001a 0025     		movs	r5, #0
 832 001c 99E0     		b	.L59
 833              	.L68:
 712:c:/Users/Black_Life/STM32Cube/Repository/STM32Cube_FW_F4_V1.26.2/Middlewares/Third_Party/LwIP/src/core\mem.c ****   }
 834              		.loc 1 712 13 view .LVU262
 835 001e 0C24     		movs	r4, #12
 836              	.LVL64:
 837              	.L58:
 717:c:/Users/Black_Life/STM32Cube/Repository/STM32Cube_FW_F4_V1.26.2/Middlewares/Third_Party/LwIP/src/core\mem.c ****     return NULL;
 838              		.loc 1 717 36 discriminator 1 view .LVU263
 839 0020 8C42     		cmp	r4, r1
 840 0022 C0F09580 		bcc	.L70
 719:c:/Users/Black_Life/STM32Cube/Repository/STM32Cube_FW_F4_V1.26.2/Middlewares/Third_Party/LwIP/src/core\mem.c ****   }
 720:c:/Users/Black_Life/STM32Cube/Repository/STM32Cube_FW_F4_V1.26.2/Middlewares/Third_Party/LwIP/src/core\mem.c **** 
 721:c:/Users/Black_Life/STM32Cube/Repository/STM32Cube_FW_F4_V1.26.2/Middlewares/Third_Party/LwIP/src/core\mem.c ****   LWIP_ASSERT("mem_trim: legal memory", (u8_t *)rmem >= (u8_t *)ram &&
 841              		.loc 1 721 3 is_stmt 1 view .LVU264
 842              		.loc 1 721 3 view .LVU265
 843 0026 4D4B     		ldr	r3, .L77
 844 0028 1B68     		ldr	r3, [r3]
 845 002a AB42     		cmp	r3, r5
 846 002c 03D8     		bhi	.L60
 847              		.loc 1 721 3 is_stmt 0 discriminator 2 view .LVU266
 848 002e 4C4B     		ldr	r3, .L77+4
 849 0030 1B68     		ldr	r3, [r3]
 850 0032 AB42     		cmp	r3, r5
 851 0034 06D8     		bhi	.L61
 852              	.L60:
 853              		.loc 1 721 3 is_stmt 1 discriminator 3 view .LVU267
 854              		.loc 1 721 3 discriminator 3 view .LVU268
 855 0036 4B4B     		ldr	r3, .L77+8
 856 0038 40F2D122 		movw	r2, #721
 857 003c 4A49     		ldr	r1, .L77+12
 858              	.LVL65:
 859              		.loc 1 721 3 is_stmt 0 discriminator 3 view .LVU269
 860 003e 4B48     		ldr	r0, .L77+16
 861              	.LVL66:
 862              		.loc 1 721 3 discriminator 3 view .LVU270
 863 0040 FFF7FEFF 		bl	printf
 864              	.LVL67:
 865              	.L61:
 866              		.loc 1 721 3 is_stmt 1 discriminator 5 view .LVU271
 867              		.loc 1 721 3 discriminator 5 view .LVU272
 722:c:/Users/Black_Life/STM32Cube/Repository/STM32Cube_FW_F4_V1.26.2/Middlewares/Third_Party/LwIP/src/core\mem.c ****               (u8_t *)rmem < (u8_t *)ram_end);
 723:c:/Users/Black_Life/STM32Cube/Repository/STM32Cube_FW_F4_V1.26.2/Middlewares/Third_Party/LwIP/src/core\mem.c **** 
 724:c:/Users/Black_Life/STM32Cube/Repository/STM32Cube_FW_F4_V1.26.2/Middlewares/Third_Party/LwIP/src/core\mem.c ****   if ((u8_t *)rmem < (u8_t *)ram || (u8_t *)rmem >= (u8_t *)ram_end) {
 868              		.loc 1 724 3 discriminator 5 view .LVU273
 869              		.loc 1 724 20 is_stmt 0 discriminator 5 view .LVU274
 870 0044 454B     		ldr	r3, .L77
 871 0046 1B68     		ldr	r3, [r3]
 872              		.loc 1 724 6 discriminator 5 view .LVU275
 873 0048 AB42     		cmp	r3, r5
 874 004a 00F28280 		bhi	.L59
 875              		.loc 1 724 53 discriminator 1 view .LVU276
ARM GAS  C:\Users\BLACK_~1\AppData\Local\Temp\ccnOKFK8.s 			page 33


 876 004e 444B     		ldr	r3, .L77+4
 877 0050 1B68     		ldr	r3, [r3]
 878              		.loc 1 724 34 discriminator 1 view .LVU277
 879 0052 AB42     		cmp	r3, r5
 880 0054 7DD9     		bls	.L59
 725:c:/Users/Black_Life/STM32Cube/Repository/STM32Cube_FW_F4_V1.26.2/Middlewares/Third_Party/LwIP/src/core\mem.c ****     LWIP_DEBUGF(MEM_DEBUG | LWIP_DBG_LEVEL_SEVERE, ("mem_trim: illegal memory\n"));
 726:c:/Users/Black_Life/STM32Cube/Repository/STM32Cube_FW_F4_V1.26.2/Middlewares/Third_Party/LwIP/src/core\mem.c ****     /* protect mem stats from concurrent access */
 727:c:/Users/Black_Life/STM32Cube/Repository/STM32Cube_FW_F4_V1.26.2/Middlewares/Third_Party/LwIP/src/core\mem.c ****     MEM_STATS_INC_LOCKED(illegal);
 728:c:/Users/Black_Life/STM32Cube/Repository/STM32Cube_FW_F4_V1.26.2/Middlewares/Third_Party/LwIP/src/core\mem.c ****     return rmem;
 729:c:/Users/Black_Life/STM32Cube/Repository/STM32Cube_FW_F4_V1.26.2/Middlewares/Third_Party/LwIP/src/core\mem.c ****   }
 730:c:/Users/Black_Life/STM32Cube/Repository/STM32Cube_FW_F4_V1.26.2/Middlewares/Third_Party/LwIP/src/core\mem.c ****   /* Get the corresponding struct mem ... */
 731:c:/Users/Black_Life/STM32Cube/Repository/STM32Cube_FW_F4_V1.26.2/Middlewares/Third_Party/LwIP/src/core\mem.c ****   /* cast through void* to get rid of alignment warnings */
 732:c:/Users/Black_Life/STM32Cube/Repository/STM32Cube_FW_F4_V1.26.2/Middlewares/Third_Party/LwIP/src/core\mem.c ****   mem = (struct mem *)(void *)((u8_t *)rmem - (SIZEOF_STRUCT_MEM + MEM_SANITY_OFFSET));
 881              		.loc 1 732 3 is_stmt 1 view .LVU278
 882              	.LVL68:
 733:c:/Users/Black_Life/STM32Cube/Repository/STM32Cube_FW_F4_V1.26.2/Middlewares/Third_Party/LwIP/src/core\mem.c **** #if MEM_OVERFLOW_CHECK
 734:c:/Users/Black_Life/STM32Cube/Repository/STM32Cube_FW_F4_V1.26.2/Middlewares/Third_Party/LwIP/src/core\mem.c ****   mem_overflow_check_element(mem);
 735:c:/Users/Black_Life/STM32Cube/Repository/STM32Cube_FW_F4_V1.26.2/Middlewares/Third_Party/LwIP/src/core\mem.c **** #endif
 736:c:/Users/Black_Life/STM32Cube/Repository/STM32Cube_FW_F4_V1.26.2/Middlewares/Third_Party/LwIP/src/core\mem.c ****   /* ... and its offset pointer */
 737:c:/Users/Black_Life/STM32Cube/Repository/STM32Cube_FW_F4_V1.26.2/Middlewares/Third_Party/LwIP/src/core\mem.c ****   ptr = mem_to_ptr(mem);
 883              		.loc 1 737 3 view .LVU279
 884              		.loc 1 737 9 is_stmt 0 view .LVU280
 885 0056 A5F10800 		sub	r0, r5, #8
 886              	.LVL69:
 887              		.loc 1 737 9 view .LVU281
 888 005a FFF7FEFF 		bl	mem_to_ptr
 889              	.LVL70:
 890              		.loc 1 737 9 view .LVU282
 891 005e 0646     		mov	r6, r0
 892              	.LVL71:
 738:c:/Users/Black_Life/STM32Cube/Repository/STM32Cube_FW_F4_V1.26.2/Middlewares/Third_Party/LwIP/src/core\mem.c **** 
 739:c:/Users/Black_Life/STM32Cube/Repository/STM32Cube_FW_F4_V1.26.2/Middlewares/Third_Party/LwIP/src/core\mem.c ****   size = (mem_size_t)((mem_size_t)(mem->next - ptr) - (SIZEOF_STRUCT_MEM + MEM_SANITY_OVERHEAD));
 893              		.loc 1 739 3 is_stmt 1 view .LVU283
 894              		.loc 1 739 39 is_stmt 0 view .LVU284
 895 0060 35F8088C 		ldrh	r8, [r5, #-8]
 896              		.loc 1 739 23 view .LVU285
 897 0064 A8EB0008 		sub	r8, r8, r0
 898 0068 1FFA88F8 		uxth	r8, r8
 899              		.loc 1 739 8 view .LVU286
 900 006c A8F10808 		sub	r8, r8, #8
 901 0070 1FFA88F8 		uxth	r8, r8
 902              	.LVL72:
 740:c:/Users/Black_Life/STM32Cube/Repository/STM32Cube_FW_F4_V1.26.2/Middlewares/Third_Party/LwIP/src/core\mem.c ****   LWIP_ASSERT("mem_trim can only shrink memory", newsize <= size);
 903              		.loc 1 740 3 is_stmt 1 view .LVU287
 904              		.loc 1 740 3 view .LVU288
 905 0074 4445     		cmp	r4, r8
 906 0076 29D8     		bhi	.L73
 907              	.LVL73:
 908              	.L62:
 909              		.loc 1 740 3 discriminator 3 view .LVU289
 910              		.loc 1 740 3 discriminator 3 view .LVU290
 741:c:/Users/Black_Life/STM32Cube/Repository/STM32Cube_FW_F4_V1.26.2/Middlewares/Third_Party/LwIP/src/core\mem.c ****   if (newsize > size) {
 911              		.loc 1 741 3 discriminator 3 view .LVU291
 912              		.loc 1 741 6 is_stmt 0 discriminator 3 view .LVU292
 913 0078 4445     		cmp	r4, r8
 914 007a 6DD8     		bhi	.L71
 742:c:/Users/Black_Life/STM32Cube/Repository/STM32Cube_FW_F4_V1.26.2/Middlewares/Third_Party/LwIP/src/core\mem.c ****     /* not supported */
ARM GAS  C:\Users\BLACK_~1\AppData\Local\Temp\ccnOKFK8.s 			page 34


 743:c:/Users/Black_Life/STM32Cube/Repository/STM32Cube_FW_F4_V1.26.2/Middlewares/Third_Party/LwIP/src/core\mem.c ****     return NULL;
 744:c:/Users/Black_Life/STM32Cube/Repository/STM32Cube_FW_F4_V1.26.2/Middlewares/Third_Party/LwIP/src/core\mem.c ****   }
 745:c:/Users/Black_Life/STM32Cube/Repository/STM32Cube_FW_F4_V1.26.2/Middlewares/Third_Party/LwIP/src/core\mem.c ****   if (newsize == size) {
 915              		.loc 1 745 3 is_stmt 1 view .LVU293
 916              		.loc 1 745 6 is_stmt 0 view .LVU294
 917 007c 69D0     		beq	.L59
 746:c:/Users/Black_Life/STM32Cube/Repository/STM32Cube_FW_F4_V1.26.2/Middlewares/Third_Party/LwIP/src/core\mem.c ****     /* No change in size, simply return */
 747:c:/Users/Black_Life/STM32Cube/Repository/STM32Cube_FW_F4_V1.26.2/Middlewares/Third_Party/LwIP/src/core\mem.c ****     return rmem;
 748:c:/Users/Black_Life/STM32Cube/Repository/STM32Cube_FW_F4_V1.26.2/Middlewares/Third_Party/LwIP/src/core\mem.c ****   }
 749:c:/Users/Black_Life/STM32Cube/Repository/STM32Cube_FW_F4_V1.26.2/Middlewares/Third_Party/LwIP/src/core\mem.c **** 
 750:c:/Users/Black_Life/STM32Cube/Repository/STM32Cube_FW_F4_V1.26.2/Middlewares/Third_Party/LwIP/src/core\mem.c ****   /* protect the heap from concurrent access */
 751:c:/Users/Black_Life/STM32Cube/Repository/STM32Cube_FW_F4_V1.26.2/Middlewares/Third_Party/LwIP/src/core\mem.c ****   LWIP_MEM_FREE_PROTECT();
 918              		.loc 1 751 26 is_stmt 1 view .LVU295
 752:c:/Users/Black_Life/STM32Cube/Repository/STM32Cube_FW_F4_V1.26.2/Middlewares/Third_Party/LwIP/src/core\mem.c **** 
 753:c:/Users/Black_Life/STM32Cube/Repository/STM32Cube_FW_F4_V1.26.2/Middlewares/Third_Party/LwIP/src/core\mem.c ****   mem2 = ptr_to_mem(mem->next);
 919              		.loc 1 753 3 view .LVU296
 920              		.loc 1 753 10 is_stmt 0 view .LVU297
 921 007e 35F8087C 		ldrh	r7, [r5, #-8]
 922 0082 3846     		mov	r0, r7
 923 0084 FFF7FEFF 		bl	ptr_to_mem
 924              	.LVL74:
 925 0088 8146     		mov	r9, r0
 926              	.LVL75:
 754:c:/Users/Black_Life/STM32Cube/Repository/STM32Cube_FW_F4_V1.26.2/Middlewares/Third_Party/LwIP/src/core\mem.c ****   if (mem2->used == 0) {
 927              		.loc 1 754 3 is_stmt 1 view .LVU298
 928              		.loc 1 754 11 is_stmt 0 view .LVU299
 929 008a 0379     		ldrb	r3, [r0, #4]	@ zero_extendqisi2
 930              		.loc 1 754 6 view .LVU300
 931 008c 002B     		cmp	r3, #0
 932 008e 33D1     		bne	.L63
 933              	.LBB2:
 755:c:/Users/Black_Life/STM32Cube/Repository/STM32Cube_FW_F4_V1.26.2/Middlewares/Third_Party/LwIP/src/core\mem.c ****     /* The next struct is unused, we can simply move it at little */
 756:c:/Users/Black_Life/STM32Cube/Repository/STM32Cube_FW_F4_V1.26.2/Middlewares/Third_Party/LwIP/src/core\mem.c ****     mem_size_t next;
 934              		.loc 1 756 5 is_stmt 1 view .LVU301
 757:c:/Users/Black_Life/STM32Cube/Repository/STM32Cube_FW_F4_V1.26.2/Middlewares/Third_Party/LwIP/src/core\mem.c ****     LWIP_ASSERT("invalid next ptr", mem->next != MEM_SIZE_ALIGNED);
 935              		.loc 1 757 5 view .LVU302
 936              		.loc 1 757 5 view .LVU303
 937 0090 B7F5C86F 		cmp	r7, #1600
 938 0094 22D0     		beq	.L74
 939              	.LVL76:
 940              	.L64:
 941              		.loc 1 757 5 discriminator 3 view .LVU304
 942              		.loc 1 757 5 discriminator 3 view .LVU305
 758:c:/Users/Black_Life/STM32Cube/Repository/STM32Cube_FW_F4_V1.26.2/Middlewares/Third_Party/LwIP/src/core\mem.c ****     /* remember the old next pointer */
 759:c:/Users/Black_Life/STM32Cube/Repository/STM32Cube_FW_F4_V1.26.2/Middlewares/Third_Party/LwIP/src/core\mem.c ****     next = mem2->next;
 943              		.loc 1 759 5 discriminator 3 view .LVU306
 944              		.loc 1 759 10 is_stmt 0 discriminator 3 view .LVU307
 945 0096 B9F80070 		ldrh	r7, [r9]
 946              	.LVL77:
 760:c:/Users/Black_Life/STM32Cube/Repository/STM32Cube_FW_F4_V1.26.2/Middlewares/Third_Party/LwIP/src/core\mem.c ****     /* create new struct mem which is moved directly after the shrinked mem */
 761:c:/Users/Black_Life/STM32Cube/Repository/STM32Cube_FW_F4_V1.26.2/Middlewares/Third_Party/LwIP/src/core\mem.c ****     ptr2 = (mem_size_t)(ptr + SIZEOF_STRUCT_MEM + newsize);
 947              		.loc 1 761 5 is_stmt 1 discriminator 3 view .LVU308
 948              		.loc 1 761 49 is_stmt 0 discriminator 3 view .LVU309
 949 009a 3444     		add	r4, r4, r6
 950 009c A4B2     		uxth	r4, r4
 951              		.loc 1 761 10 discriminator 3 view .LVU310
 952 009e 0834     		adds	r4, r4, #8
ARM GAS  C:\Users\BLACK_~1\AppData\Local\Temp\ccnOKFK8.s 			page 35


 953 00a0 A4B2     		uxth	r4, r4
 954              	.LVL78:
 762:c:/Users/Black_Life/STM32Cube/Repository/STM32Cube_FW_F4_V1.26.2/Middlewares/Third_Party/LwIP/src/core\mem.c ****     if (lfree == mem2) {
 955              		.loc 1 762 5 is_stmt 1 discriminator 3 view .LVU311
 956              		.loc 1 762 15 is_stmt 0 discriminator 3 view .LVU312
 957 00a2 334B     		ldr	r3, .L77+20
 958 00a4 1B68     		ldr	r3, [r3]
 959              		.loc 1 762 8 discriminator 3 view .LVU313
 960 00a6 4B45     		cmp	r3, r9
 961 00a8 20D0     		beq	.L75
 962              	.L65:
 763:c:/Users/Black_Life/STM32Cube/Repository/STM32Cube_FW_F4_V1.26.2/Middlewares/Third_Party/LwIP/src/core\mem.c ****       lfree = ptr_to_mem(ptr2);
 764:c:/Users/Black_Life/STM32Cube/Repository/STM32Cube_FW_F4_V1.26.2/Middlewares/Third_Party/LwIP/src/core\mem.c ****     }
 765:c:/Users/Black_Life/STM32Cube/Repository/STM32Cube_FW_F4_V1.26.2/Middlewares/Third_Party/LwIP/src/core\mem.c ****     mem2 = ptr_to_mem(ptr2);
 963              		.loc 1 765 5 is_stmt 1 view .LVU314
 964              		.loc 1 765 12 is_stmt 0 view .LVU315
 965 00aa 2046     		mov	r0, r4
 966 00ac FFF7FEFF 		bl	ptr_to_mem
 967              	.LVL79:
 766:c:/Users/Black_Life/STM32Cube/Repository/STM32Cube_FW_F4_V1.26.2/Middlewares/Third_Party/LwIP/src/core\mem.c ****     mem2->used = 0;
 968              		.loc 1 766 5 is_stmt 1 view .LVU316
 969              		.loc 1 766 16 is_stmt 0 view .LVU317
 970 00b0 0023     		movs	r3, #0
 971 00b2 0371     		strb	r3, [r0, #4]
 767:c:/Users/Black_Life/STM32Cube/Repository/STM32Cube_FW_F4_V1.26.2/Middlewares/Third_Party/LwIP/src/core\mem.c ****     /* restore the next pointer */
 768:c:/Users/Black_Life/STM32Cube/Repository/STM32Cube_FW_F4_V1.26.2/Middlewares/Third_Party/LwIP/src/core\mem.c ****     mem2->next = next;
 972              		.loc 1 768 5 is_stmt 1 view .LVU318
 973              		.loc 1 768 16 is_stmt 0 view .LVU319
 974 00b4 0780     		strh	r7, [r0]	@ movhi
 769:c:/Users/Black_Life/STM32Cube/Repository/STM32Cube_FW_F4_V1.26.2/Middlewares/Third_Party/LwIP/src/core\mem.c ****     /* link it back to mem */
 770:c:/Users/Black_Life/STM32Cube/Repository/STM32Cube_FW_F4_V1.26.2/Middlewares/Third_Party/LwIP/src/core\mem.c ****     mem2->prev = ptr;
 975              		.loc 1 770 5 is_stmt 1 view .LVU320
 976              		.loc 1 770 16 is_stmt 0 view .LVU321
 977 00b6 4680     		strh	r6, [r0, #2]	@ movhi
 771:c:/Users/Black_Life/STM32Cube/Repository/STM32Cube_FW_F4_V1.26.2/Middlewares/Third_Party/LwIP/src/core\mem.c ****     /* link mem to it */
 772:c:/Users/Black_Life/STM32Cube/Repository/STM32Cube_FW_F4_V1.26.2/Middlewares/Third_Party/LwIP/src/core\mem.c ****     mem->next = ptr2;
 978              		.loc 1 772 5 is_stmt 1 view .LVU322
 979              		.loc 1 772 15 is_stmt 0 view .LVU323
 980 00b8 25F8084C 		strh	r4, [r5, #-8]	@ movhi
 773:c:/Users/Black_Life/STM32Cube/Repository/STM32Cube_FW_F4_V1.26.2/Middlewares/Third_Party/LwIP/src/core\mem.c ****     /* last thing to restore linked list: as we have moved mem2,
 774:c:/Users/Black_Life/STM32Cube/Repository/STM32Cube_FW_F4_V1.26.2/Middlewares/Third_Party/LwIP/src/core\mem.c ****      * let 'mem2->next->prev' point to mem2 again. but only if mem2->next is not
 775:c:/Users/Black_Life/STM32Cube/Repository/STM32Cube_FW_F4_V1.26.2/Middlewares/Third_Party/LwIP/src/core\mem.c ****      * the end of the heap */
 776:c:/Users/Black_Life/STM32Cube/Repository/STM32Cube_FW_F4_V1.26.2/Middlewares/Third_Party/LwIP/src/core\mem.c ****     if (mem2->next != MEM_SIZE_ALIGNED) {
 981              		.loc 1 776 5 is_stmt 1 view .LVU324
 982              		.loc 1 776 13 is_stmt 0 view .LVU325
 983 00bc 0088     		ldrh	r0, [r0]
 984              	.LVL80:
 985              		.loc 1 776 8 view .LVU326
 986 00be B0F5C86F 		cmp	r0, #1600
 987 00c2 46D0     		beq	.L59
 777:c:/Users/Black_Life/STM32Cube/Repository/STM32Cube_FW_F4_V1.26.2/Middlewares/Third_Party/LwIP/src/core\mem.c ****       ptr_to_mem(mem2->next)->prev = ptr2;
 988              		.loc 1 777 7 is_stmt 1 view .LVU327
 989 00c4 FFF7FEFF 		bl	ptr_to_mem
 990              	.LVL81:
 991              		.loc 1 777 36 is_stmt 0 view .LVU328
 992 00c8 4480     		strh	r4, [r0, #2]	@ movhi
 993 00ca 42E0     		b	.L59
ARM GAS  C:\Users\BLACK_~1\AppData\Local\Temp\ccnOKFK8.s 			page 36


 994              	.LVL82:
 995              	.L73:
 996              		.loc 1 777 36 view .LVU329
 997              	.LBE2:
 740:c:/Users/Black_Life/STM32Cube/Repository/STM32Cube_FW_F4_V1.26.2/Middlewares/Third_Party/LwIP/src/core\mem.c ****   if (newsize > size) {
 998              		.loc 1 740 3 is_stmt 1 discriminator 1 view .LVU330
 740:c:/Users/Black_Life/STM32Cube/Repository/STM32Cube_FW_F4_V1.26.2/Middlewares/Third_Party/LwIP/src/core\mem.c ****   if (newsize > size) {
 999              		.loc 1 740 3 discriminator 1 view .LVU331
 1000 00cc 254B     		ldr	r3, .L77+8
 1001 00ce 4FF43972 		mov	r2, #740
 1002 00d2 2849     		ldr	r1, .L77+24
 1003 00d4 2548     		ldr	r0, .L77+16
 1004              	.LVL83:
 740:c:/Users/Black_Life/STM32Cube/Repository/STM32Cube_FW_F4_V1.26.2/Middlewares/Third_Party/LwIP/src/core\mem.c ****   if (newsize > size) {
 1005              		.loc 1 740 3 is_stmt 0 discriminator 1 view .LVU332
 1006 00d6 FFF7FEFF 		bl	printf
 1007              	.LVL84:
 1008 00da CDE7     		b	.L62
 1009              	.LVL85:
 1010              	.L74:
 1011              	.LBB3:
 757:c:/Users/Black_Life/STM32Cube/Repository/STM32Cube_FW_F4_V1.26.2/Middlewares/Third_Party/LwIP/src/core\mem.c ****     /* remember the old next pointer */
 1012              		.loc 1 757 5 is_stmt 1 discriminator 1 view .LVU333
 757:c:/Users/Black_Life/STM32Cube/Repository/STM32Cube_FW_F4_V1.26.2/Middlewares/Third_Party/LwIP/src/core\mem.c ****     /* remember the old next pointer */
 1013              		.loc 1 757 5 discriminator 1 view .LVU334
 1014 00dc 214B     		ldr	r3, .L77+8
 1015 00de 40F2F522 		movw	r2, #757
 1016 00e2 2549     		ldr	r1, .L77+28
 1017 00e4 2148     		ldr	r0, .L77+16
 1018              	.LVL86:
 757:c:/Users/Black_Life/STM32Cube/Repository/STM32Cube_FW_F4_V1.26.2/Middlewares/Third_Party/LwIP/src/core\mem.c ****     /* remember the old next pointer */
 1019              		.loc 1 757 5 is_stmt 0 discriminator 1 view .LVU335
 1020 00e6 FFF7FEFF 		bl	printf
 1021              	.LVL87:
 1022 00ea D4E7     		b	.L64
 1023              	.LVL88:
 1024              	.L75:
 763:c:/Users/Black_Life/STM32Cube/Repository/STM32Cube_FW_F4_V1.26.2/Middlewares/Third_Party/LwIP/src/core\mem.c ****     }
 1025              		.loc 1 763 7 is_stmt 1 view .LVU336
 763:c:/Users/Black_Life/STM32Cube/Repository/STM32Cube_FW_F4_V1.26.2/Middlewares/Third_Party/LwIP/src/core\mem.c ****     }
 1026              		.loc 1 763 15 is_stmt 0 view .LVU337
 1027 00ec 2046     		mov	r0, r4
 1028 00ee FFF7FEFF 		bl	ptr_to_mem
 1029              	.LVL89:
 763:c:/Users/Black_Life/STM32Cube/Repository/STM32Cube_FW_F4_V1.26.2/Middlewares/Third_Party/LwIP/src/core\mem.c ****     }
 1030              		.loc 1 763 13 view .LVU338
 1031 00f2 1F4B     		ldr	r3, .L77+20
 1032 00f4 1860     		str	r0, [r3]
 1033 00f6 D8E7     		b	.L65
 1034              	.LVL90:
 1035              	.L63:
 763:c:/Users/Black_Life/STM32Cube/Repository/STM32Cube_FW_F4_V1.26.2/Middlewares/Third_Party/LwIP/src/core\mem.c ****     }
 1036              		.loc 1 763 13 view .LVU339
 1037              	.LBE3:
 778:c:/Users/Black_Life/STM32Cube/Repository/STM32Cube_FW_F4_V1.26.2/Middlewares/Third_Party/LwIP/src/core\mem.c ****     }
 779:c:/Users/Black_Life/STM32Cube/Repository/STM32Cube_FW_F4_V1.26.2/Middlewares/Third_Party/LwIP/src/core\mem.c ****     MEM_STATS_DEC_USED(used, (size - newsize));
 780:c:/Users/Black_Life/STM32Cube/Repository/STM32Cube_FW_F4_V1.26.2/Middlewares/Third_Party/LwIP/src/core\mem.c ****     /* no need to plug holes, we've already done that */
ARM GAS  C:\Users\BLACK_~1\AppData\Local\Temp\ccnOKFK8.s 			page 37


 781:c:/Users/Black_Life/STM32Cube/Repository/STM32Cube_FW_F4_V1.26.2/Middlewares/Third_Party/LwIP/src/core\mem.c ****   } else if (newsize + SIZEOF_STRUCT_MEM + MIN_SIZE_ALIGNED <= size) {
 1038              		.loc 1 781 10 is_stmt 1 view .LVU340
 1039              		.loc 1 781 42 is_stmt 0 view .LVU341
 1040 00f8 04F11403 		add	r3, r4, #20
 1041              		.loc 1 781 13 view .LVU342
 1042 00fc 4345     		cmp	r3, r8
 1043 00fe 28D8     		bhi	.L59
 782:c:/Users/Black_Life/STM32Cube/Repository/STM32Cube_FW_F4_V1.26.2/Middlewares/Third_Party/LwIP/src/core\mem.c ****     /* Next struct is used but there's room for another struct mem with
 783:c:/Users/Black_Life/STM32Cube/Repository/STM32Cube_FW_F4_V1.26.2/Middlewares/Third_Party/LwIP/src/core\mem.c ****      * at least MIN_SIZE_ALIGNED of data.
 784:c:/Users/Black_Life/STM32Cube/Repository/STM32Cube_FW_F4_V1.26.2/Middlewares/Third_Party/LwIP/src/core\mem.c ****      * Old size ('size') must be big enough to contain at least 'newsize' plus a struct mem
 785:c:/Users/Black_Life/STM32Cube/Repository/STM32Cube_FW_F4_V1.26.2/Middlewares/Third_Party/LwIP/src/core\mem.c ****      * ('SIZEOF_STRUCT_MEM') with some data ('MIN_SIZE_ALIGNED').
 786:c:/Users/Black_Life/STM32Cube/Repository/STM32Cube_FW_F4_V1.26.2/Middlewares/Third_Party/LwIP/src/core\mem.c ****      * @todo we could leave out MIN_SIZE_ALIGNED. We would create an empty
 787:c:/Users/Black_Life/STM32Cube/Repository/STM32Cube_FW_F4_V1.26.2/Middlewares/Third_Party/LwIP/src/core\mem.c ****      *       region that couldn't hold data, but when mem->next gets freed,
 788:c:/Users/Black_Life/STM32Cube/Repository/STM32Cube_FW_F4_V1.26.2/Middlewares/Third_Party/LwIP/src/core\mem.c ****      *       the 2 regions would be combined, resulting in more free memory */
 789:c:/Users/Black_Life/STM32Cube/Repository/STM32Cube_FW_F4_V1.26.2/Middlewares/Third_Party/LwIP/src/core\mem.c ****     ptr2 = (mem_size_t)(ptr + SIZEOF_STRUCT_MEM + newsize);
 1044              		.loc 1 789 5 is_stmt 1 view .LVU343
 1045              		.loc 1 789 49 is_stmt 0 view .LVU344
 1046 0100 3444     		add	r4, r4, r6
 1047 0102 A4B2     		uxth	r4, r4
 1048              		.loc 1 789 10 view .LVU345
 1049 0104 0834     		adds	r4, r4, #8
 1050 0106 A4B2     		uxth	r4, r4
 1051              	.LVL91:
 790:c:/Users/Black_Life/STM32Cube/Repository/STM32Cube_FW_F4_V1.26.2/Middlewares/Third_Party/LwIP/src/core\mem.c ****     LWIP_ASSERT("invalid next ptr", mem->next != MEM_SIZE_ALIGNED);
 1052              		.loc 1 790 5 is_stmt 1 view .LVU346
 1053              		.loc 1 790 5 view .LVU347
 1054 0108 B7F5C86F 		cmp	r7, #1600
 1055 010c 18D0     		beq	.L76
 1056              	.LVL92:
 1057              	.L66:
 1058              		.loc 1 790 5 discriminator 3 view .LVU348
 1059              		.loc 1 790 5 discriminator 3 view .LVU349
 791:c:/Users/Black_Life/STM32Cube/Repository/STM32Cube_FW_F4_V1.26.2/Middlewares/Third_Party/LwIP/src/core\mem.c ****     mem2 = ptr_to_mem(ptr2);
 1060              		.loc 1 791 5 discriminator 3 view .LVU350
 1061              		.loc 1 791 12 is_stmt 0 discriminator 3 view .LVU351
 1062 010e 2046     		mov	r0, r4
 1063 0110 FFF7FEFF 		bl	ptr_to_mem
 1064              	.LVL93:
 792:c:/Users/Black_Life/STM32Cube/Repository/STM32Cube_FW_F4_V1.26.2/Middlewares/Third_Party/LwIP/src/core\mem.c ****     if (mem2 < lfree) {
 1065              		.loc 1 792 5 is_stmt 1 discriminator 3 view .LVU352
 1066              		.loc 1 792 14 is_stmt 0 discriminator 3 view .LVU353
 1067 0114 164B     		ldr	r3, .L77+20
 1068 0116 1B68     		ldr	r3, [r3]
 1069              		.loc 1 792 8 discriminator 3 view .LVU354
 1070 0118 8342     		cmp	r3, r0
 1071 011a 01D9     		bls	.L67
 793:c:/Users/Black_Life/STM32Cube/Repository/STM32Cube_FW_F4_V1.26.2/Middlewares/Third_Party/LwIP/src/core\mem.c ****       lfree = mem2;
 1072              		.loc 1 793 7 is_stmt 1 view .LVU355
 1073              		.loc 1 793 13 is_stmt 0 view .LVU356
 1074 011c 144B     		ldr	r3, .L77+20
 1075 011e 1860     		str	r0, [r3]
 1076              	.L67:
 794:c:/Users/Black_Life/STM32Cube/Repository/STM32Cube_FW_F4_V1.26.2/Middlewares/Third_Party/LwIP/src/core\mem.c ****     }
 795:c:/Users/Black_Life/STM32Cube/Repository/STM32Cube_FW_F4_V1.26.2/Middlewares/Third_Party/LwIP/src/core\mem.c ****     mem2->used = 0;
 1077              		.loc 1 795 5 is_stmt 1 view .LVU357
 1078              		.loc 1 795 16 is_stmt 0 view .LVU358
 1079 0120 0023     		movs	r3, #0
ARM GAS  C:\Users\BLACK_~1\AppData\Local\Temp\ccnOKFK8.s 			page 38


 1080 0122 0371     		strb	r3, [r0, #4]
 796:c:/Users/Black_Life/STM32Cube/Repository/STM32Cube_FW_F4_V1.26.2/Middlewares/Third_Party/LwIP/src/core\mem.c ****     mem2->next = mem->next;
 1081              		.loc 1 796 5 is_stmt 1 view .LVU359
 1082              		.loc 1 796 21 is_stmt 0 view .LVU360
 1083 0124 35F8083C 		ldrh	r3, [r5, #-8]
 1084              		.loc 1 796 16 view .LVU361
 1085 0128 0380     		strh	r3, [r0]	@ movhi
 797:c:/Users/Black_Life/STM32Cube/Repository/STM32Cube_FW_F4_V1.26.2/Middlewares/Third_Party/LwIP/src/core\mem.c ****     mem2->prev = ptr;
 1086              		.loc 1 797 5 is_stmt 1 view .LVU362
 1087              		.loc 1 797 16 is_stmt 0 view .LVU363
 1088 012a 4680     		strh	r6, [r0, #2]	@ movhi
 798:c:/Users/Black_Life/STM32Cube/Repository/STM32Cube_FW_F4_V1.26.2/Middlewares/Third_Party/LwIP/src/core\mem.c ****     mem->next = ptr2;
 1089              		.loc 1 798 5 is_stmt 1 view .LVU364
 1090              		.loc 1 798 15 is_stmt 0 view .LVU365
 1091 012c 25F8084C 		strh	r4, [r5, #-8]	@ movhi
 799:c:/Users/Black_Life/STM32Cube/Repository/STM32Cube_FW_F4_V1.26.2/Middlewares/Third_Party/LwIP/src/core\mem.c ****     if (mem2->next != MEM_SIZE_ALIGNED) {
 1092              		.loc 1 799 5 is_stmt 1 view .LVU366
 1093              		.loc 1 799 13 is_stmt 0 view .LVU367
 1094 0130 0088     		ldrh	r0, [r0]
 1095              	.LVL94:
 1096              		.loc 1 799 8 view .LVU368
 1097 0132 B0F5C86F 		cmp	r0, #1600
 1098 0136 0CD0     		beq	.L59
 800:c:/Users/Black_Life/STM32Cube/Repository/STM32Cube_FW_F4_V1.26.2/Middlewares/Third_Party/LwIP/src/core\mem.c ****       ptr_to_mem(mem2->next)->prev = ptr2;
 1099              		.loc 1 800 7 is_stmt 1 view .LVU369
 1100 0138 FFF7FEFF 		bl	ptr_to_mem
 1101              	.LVL95:
 1102              		.loc 1 800 36 is_stmt 0 view .LVU370
 1103 013c 4480     		strh	r4, [r0, #2]	@ movhi
 1104 013e 08E0     		b	.L59
 1105              	.LVL96:
 1106              	.L76:
 790:c:/Users/Black_Life/STM32Cube/Repository/STM32Cube_FW_F4_V1.26.2/Middlewares/Third_Party/LwIP/src/core\mem.c ****     mem2 = ptr_to_mem(ptr2);
 1107              		.loc 1 790 5 is_stmt 1 discriminator 1 view .LVU371
 790:c:/Users/Black_Life/STM32Cube/Repository/STM32Cube_FW_F4_V1.26.2/Middlewares/Third_Party/LwIP/src/core\mem.c ****     mem2 = ptr_to_mem(ptr2);
 1108              		.loc 1 790 5 discriminator 1 view .LVU372
 1109 0140 084B     		ldr	r3, .L77+8
 1110 0142 40F21632 		movw	r2, #790
 1111 0146 0C49     		ldr	r1, .L77+28
 1112 0148 0848     		ldr	r0, .L77+16
 1113              	.LVL97:
 790:c:/Users/Black_Life/STM32Cube/Repository/STM32Cube_FW_F4_V1.26.2/Middlewares/Third_Party/LwIP/src/core\mem.c ****     mem2 = ptr_to_mem(ptr2);
 1114              		.loc 1 790 5 is_stmt 0 discriminator 1 view .LVU373
 1115 014a FFF7FEFF 		bl	printf
 1116              	.LVL98:
 1117 014e DEE7     		b	.L66
 1118              	.LVL99:
 1119              	.L70:
 718:c:/Users/Black_Life/STM32Cube/Repository/STM32Cube_FW_F4_V1.26.2/Middlewares/Third_Party/LwIP/src/core\mem.c ****   }
 1120              		.loc 1 718 12 view .LVU374
 1121 0150 0025     		movs	r5, #0
 1122              	.LVL100:
 1123              	.L59:
 801:c:/Users/Black_Life/STM32Cube/Repository/STM32Cube_FW_F4_V1.26.2/Middlewares/Third_Party/LwIP/src/core\mem.c ****     }
 802:c:/Users/Black_Life/STM32Cube/Repository/STM32Cube_FW_F4_V1.26.2/Middlewares/Third_Party/LwIP/src/core\mem.c ****     MEM_STATS_DEC_USED(used, (size - newsize));
 803:c:/Users/Black_Life/STM32Cube/Repository/STM32Cube_FW_F4_V1.26.2/Middlewares/Third_Party/LwIP/src/core\mem.c ****     /* the original mem->next is used, so no need to plug holes! */
 804:c:/Users/Black_Life/STM32Cube/Repository/STM32Cube_FW_F4_V1.26.2/Middlewares/Third_Party/LwIP/src/core\mem.c ****   }
ARM GAS  C:\Users\BLACK_~1\AppData\Local\Temp\ccnOKFK8.s 			page 39


 805:c:/Users/Black_Life/STM32Cube/Repository/STM32Cube_FW_F4_V1.26.2/Middlewares/Third_Party/LwIP/src/core\mem.c ****   /* else {
 806:c:/Users/Black_Life/STM32Cube/Repository/STM32Cube_FW_F4_V1.26.2/Middlewares/Third_Party/LwIP/src/core\mem.c ****     next struct mem is used but size between mem and mem2 is not big enough
 807:c:/Users/Black_Life/STM32Cube/Repository/STM32Cube_FW_F4_V1.26.2/Middlewares/Third_Party/LwIP/src/core\mem.c ****     to create another struct mem
 808:c:/Users/Black_Life/STM32Cube/Repository/STM32Cube_FW_F4_V1.26.2/Middlewares/Third_Party/LwIP/src/core\mem.c ****     -> don't do anyhting.
 809:c:/Users/Black_Life/STM32Cube/Repository/STM32Cube_FW_F4_V1.26.2/Middlewares/Third_Party/LwIP/src/core\mem.c ****     -> the remaining space stays unused since it is too small
 810:c:/Users/Black_Life/STM32Cube/Repository/STM32Cube_FW_F4_V1.26.2/Middlewares/Third_Party/LwIP/src/core\mem.c ****   } */
 811:c:/Users/Black_Life/STM32Cube/Repository/STM32Cube_FW_F4_V1.26.2/Middlewares/Third_Party/LwIP/src/core\mem.c **** #if MEM_OVERFLOW_CHECK
 812:c:/Users/Black_Life/STM32Cube/Repository/STM32Cube_FW_F4_V1.26.2/Middlewares/Third_Party/LwIP/src/core\mem.c ****   mem_overflow_init_element(mem, new_size);
 813:c:/Users/Black_Life/STM32Cube/Repository/STM32Cube_FW_F4_V1.26.2/Middlewares/Third_Party/LwIP/src/core\mem.c **** #endif
 814:c:/Users/Black_Life/STM32Cube/Repository/STM32Cube_FW_F4_V1.26.2/Middlewares/Third_Party/LwIP/src/core\mem.c ****   MEM_SANITY();
 815:c:/Users/Black_Life/STM32Cube/Repository/STM32Cube_FW_F4_V1.26.2/Middlewares/Third_Party/LwIP/src/core\mem.c **** #if LWIP_ALLOW_MEM_FREE_FROM_OTHER_CONTEXT
 816:c:/Users/Black_Life/STM32Cube/Repository/STM32Cube_FW_F4_V1.26.2/Middlewares/Third_Party/LwIP/src/core\mem.c ****   mem_free_count = 1;
 817:c:/Users/Black_Life/STM32Cube/Repository/STM32Cube_FW_F4_V1.26.2/Middlewares/Third_Party/LwIP/src/core\mem.c **** #endif /* LWIP_ALLOW_MEM_FREE_FROM_OTHER_CONTEXT */
 818:c:/Users/Black_Life/STM32Cube/Repository/STM32Cube_FW_F4_V1.26.2/Middlewares/Third_Party/LwIP/src/core\mem.c ****   LWIP_MEM_FREE_UNPROTECT();
 819:c:/Users/Black_Life/STM32Cube/Repository/STM32Cube_FW_F4_V1.26.2/Middlewares/Third_Party/LwIP/src/core\mem.c ****   return rmem;
 820:c:/Users/Black_Life/STM32Cube/Repository/STM32Cube_FW_F4_V1.26.2/Middlewares/Third_Party/LwIP/src/core\mem.c **** }
 1124              		.loc 1 820 1 view .LVU375
 1125 0152 2846     		mov	r0, r5
 1126 0154 BDE8F883 		pop	{r3, r4, r5, r6, r7, r8, r9, pc}
 1127              	.LVL101:
 1128              	.L71:
 743:c:/Users/Black_Life/STM32Cube/Repository/STM32Cube_FW_F4_V1.26.2/Middlewares/Third_Party/LwIP/src/core\mem.c ****   }
 1129              		.loc 1 743 12 view .LVU376
 1130 0158 0025     		movs	r5, #0
 1131              	.LVL102:
 743:c:/Users/Black_Life/STM32Cube/Repository/STM32Cube_FW_F4_V1.26.2/Middlewares/Third_Party/LwIP/src/core\mem.c ****   }
 1132              		.loc 1 743 12 view .LVU377
 1133 015a FAE7     		b	.L59
 1134              	.L78:
 1135              		.align	2
 1136              	.L77:
 1137 015c 00000000 		.word	.LANCHOR0
 1138 0160 00000000 		.word	.LANCHOR1
 1139 0164 00000000 		.word	.LC0
 1140 0168 00000000 		.word	.LC10
 1141 016c 88000000 		.word	.LC2
 1142 0170 00000000 		.word	.LANCHOR2
 1143 0174 18000000 		.word	.LC11
 1144 0178 38000000 		.word	.LC12
 1145              		.cfi_endproc
 1146              	.LFE162:
 1148              		.section	.rodata.mem_malloc.str1.4,"aMS",%progbits,1
 1149              		.align	2
 1150              	.LC13:
 1151 0000 6D656D5F 		.ascii	"mem_malloc: !lfree->used\000"
 1151      6D616C6C 
 1151      6F633A20 
 1151      216C6672 
 1151      65652D3E 
 1152 0019 000000   		.align	2
 1153              	.LC14:
 1154 001c 6D656D5F 		.ascii	"mem_malloc: allocated memory not above ram_end.\000"
 1154      6D616C6C 
 1154      6F633A20 
 1154      616C6C6F 
 1154      63617465 
 1155              		.align	2
ARM GAS  C:\Users\BLACK_~1\AppData\Local\Temp\ccnOKFK8.s 			page 40


 1156              	.LC15:
 1157 004c 6D656D5F 		.ascii	"mem_malloc: allocated memory properly aligned.\000"
 1157      6D616C6C 
 1157      6F633A20 
 1157      616C6C6F 
 1157      63617465 
 1158 007b 00       		.align	2
 1159              	.LC16:
 1160 007c 6D656D5F 		.ascii	"mem_malloc: sanity check alignment\000"
 1160      6D616C6C 
 1160      6F633A20 
 1160      73616E69 
 1160      74792063 
 1161              		.section	.text.mem_malloc,"ax",%progbits
 1162              		.align	1
 1163              		.global	mem_malloc
 1164              		.syntax unified
 1165              		.thumb
 1166              		.thumb_func
 1168              	mem_malloc:
 1169              	.LVL103:
 1170              	.LFB163:
 821:c:/Users/Black_Life/STM32Cube/Repository/STM32Cube_FW_F4_V1.26.2/Middlewares/Third_Party/LwIP/src/core\mem.c **** 
 822:c:/Users/Black_Life/STM32Cube/Repository/STM32Cube_FW_F4_V1.26.2/Middlewares/Third_Party/LwIP/src/core\mem.c **** /**
 823:c:/Users/Black_Life/STM32Cube/Repository/STM32Cube_FW_F4_V1.26.2/Middlewares/Third_Party/LwIP/src/core\mem.c ****  * Allocate a block of memory with a minimum of 'size' bytes.
 824:c:/Users/Black_Life/STM32Cube/Repository/STM32Cube_FW_F4_V1.26.2/Middlewares/Third_Party/LwIP/src/core\mem.c ****  *
 825:c:/Users/Black_Life/STM32Cube/Repository/STM32Cube_FW_F4_V1.26.2/Middlewares/Third_Party/LwIP/src/core\mem.c ****  * @param size_in is the minimum size of the requested block in bytes.
 826:c:/Users/Black_Life/STM32Cube/Repository/STM32Cube_FW_F4_V1.26.2/Middlewares/Third_Party/LwIP/src/core\mem.c ****  * @return pointer to allocated memory or NULL if no free memory was found.
 827:c:/Users/Black_Life/STM32Cube/Repository/STM32Cube_FW_F4_V1.26.2/Middlewares/Third_Party/LwIP/src/core\mem.c ****  *
 828:c:/Users/Black_Life/STM32Cube/Repository/STM32Cube_FW_F4_V1.26.2/Middlewares/Third_Party/LwIP/src/core\mem.c ****  * Note that the returned value will always be aligned (as defined by MEM_ALIGNMENT).
 829:c:/Users/Black_Life/STM32Cube/Repository/STM32Cube_FW_F4_V1.26.2/Middlewares/Third_Party/LwIP/src/core\mem.c ****  */
 830:c:/Users/Black_Life/STM32Cube/Repository/STM32Cube_FW_F4_V1.26.2/Middlewares/Third_Party/LwIP/src/core\mem.c **** void *
 831:c:/Users/Black_Life/STM32Cube/Repository/STM32Cube_FW_F4_V1.26.2/Middlewares/Third_Party/LwIP/src/core\mem.c **** mem_malloc(mem_size_t size_in)
 832:c:/Users/Black_Life/STM32Cube/Repository/STM32Cube_FW_F4_V1.26.2/Middlewares/Third_Party/LwIP/src/core\mem.c **** {
 1171              		.loc 1 832 1 is_stmt 1 view -0
 1172              		.cfi_startproc
 1173              		@ args = 0, pretend = 0, frame = 0
 1174              		@ frame_needed = 0, uses_anonymous_args = 0
 833:c:/Users/Black_Life/STM32Cube/Repository/STM32Cube_FW_F4_V1.26.2/Middlewares/Third_Party/LwIP/src/core\mem.c ****   mem_size_t ptr, ptr2, size;
 1175              		.loc 1 833 3 view .LVU379
 834:c:/Users/Black_Life/STM32Cube/Repository/STM32Cube_FW_F4_V1.26.2/Middlewares/Third_Party/LwIP/src/core\mem.c ****   struct mem *mem, *mem2;
 1176              		.loc 1 834 3 view .LVU380
 835:c:/Users/Black_Life/STM32Cube/Repository/STM32Cube_FW_F4_V1.26.2/Middlewares/Third_Party/LwIP/src/core\mem.c **** #if LWIP_ALLOW_MEM_FREE_FROM_OTHER_CONTEXT
 836:c:/Users/Black_Life/STM32Cube/Repository/STM32Cube_FW_F4_V1.26.2/Middlewares/Third_Party/LwIP/src/core\mem.c ****   u8_t local_mem_free_count = 0;
 837:c:/Users/Black_Life/STM32Cube/Repository/STM32Cube_FW_F4_V1.26.2/Middlewares/Third_Party/LwIP/src/core\mem.c **** #endif /* LWIP_ALLOW_MEM_FREE_FROM_OTHER_CONTEXT */
 838:c:/Users/Black_Life/STM32Cube/Repository/STM32Cube_FW_F4_V1.26.2/Middlewares/Third_Party/LwIP/src/core\mem.c ****   LWIP_MEM_ALLOC_DECL_PROTECT();
 1177              		.loc 1 838 32 view .LVU381
 839:c:/Users/Black_Life/STM32Cube/Repository/STM32Cube_FW_F4_V1.26.2/Middlewares/Third_Party/LwIP/src/core\mem.c **** 
 840:c:/Users/Black_Life/STM32Cube/Repository/STM32Cube_FW_F4_V1.26.2/Middlewares/Third_Party/LwIP/src/core\mem.c ****   if (size_in == 0) {
 1178              		.loc 1 840 3 view .LVU382
 1179              		.loc 1 840 6 is_stmt 0 view .LVU383
 1180 0000 0028     		cmp	r0, #0
 1181 0002 00F09A80 		beq	.L95
 832:c:/Users/Black_Life/STM32Cube/Repository/STM32Cube_FW_F4_V1.26.2/Middlewares/Third_Party/LwIP/src/core\mem.c ****   mem_size_t ptr, ptr2, size;
 1182              		.loc 1 832 1 view .LVU384
 1183 0006 2DE9F041 		push	{r4, r5, r6, r7, r8, lr}
 1184              	.LCFI6:
ARM GAS  C:\Users\BLACK_~1\AppData\Local\Temp\ccnOKFK8.s 			page 41


 1185              		.cfi_def_cfa_offset 24
 1186              		.cfi_offset 4, -24
 1187              		.cfi_offset 5, -20
 1188              		.cfi_offset 6, -16
 1189              		.cfi_offset 7, -12
 1190              		.cfi_offset 8, -8
 1191              		.cfi_offset 14, -4
 1192 000a 0346     		mov	r3, r0
 841:c:/Users/Black_Life/STM32Cube/Repository/STM32Cube_FW_F4_V1.26.2/Middlewares/Third_Party/LwIP/src/core\mem.c ****     return NULL;
 842:c:/Users/Black_Life/STM32Cube/Repository/STM32Cube_FW_F4_V1.26.2/Middlewares/Third_Party/LwIP/src/core\mem.c ****   }
 843:c:/Users/Black_Life/STM32Cube/Repository/STM32Cube_FW_F4_V1.26.2/Middlewares/Third_Party/LwIP/src/core\mem.c **** 
 844:c:/Users/Black_Life/STM32Cube/Repository/STM32Cube_FW_F4_V1.26.2/Middlewares/Third_Party/LwIP/src/core\mem.c ****   /* Expand the size of the allocated memory region so that we can
 845:c:/Users/Black_Life/STM32Cube/Repository/STM32Cube_FW_F4_V1.26.2/Middlewares/Third_Party/LwIP/src/core\mem.c ****      adjust for alignment. */
 846:c:/Users/Black_Life/STM32Cube/Repository/STM32Cube_FW_F4_V1.26.2/Middlewares/Third_Party/LwIP/src/core\mem.c ****   size = (mem_size_t)LWIP_MEM_ALIGN_SIZE(size_in);
 1193              		.loc 1 846 3 is_stmt 1 view .LVU385
 1194              		.loc 1 846 22 is_stmt 0 view .LVU386
 1195 000c C61C     		adds	r6, r0, #3
 1196 000e B6B2     		uxth	r6, r6
 1197              		.loc 1 846 8 view .LVU387
 1198 0010 26F00306 		bic	r6, r6, #3
 1199 0014 B6B2     		uxth	r6, r6
 1200              	.LVL104:
 847:c:/Users/Black_Life/STM32Cube/Repository/STM32Cube_FW_F4_V1.26.2/Middlewares/Third_Party/LwIP/src/core\mem.c ****   if (size < MIN_SIZE_ALIGNED) {
 1201              		.loc 1 847 3 is_stmt 1 view .LVU388
 1202              		.loc 1 847 6 is_stmt 0 view .LVU389
 1203 0016 0B2E     		cmp	r6, #11
 1204 0018 04D9     		bls	.L96
 848:c:/Users/Black_Life/STM32Cube/Repository/STM32Cube_FW_F4_V1.26.2/Middlewares/Third_Party/LwIP/src/core\mem.c ****     /* every data block must be at least MIN_SIZE_ALIGNED long */
 849:c:/Users/Black_Life/STM32Cube/Repository/STM32Cube_FW_F4_V1.26.2/Middlewares/Third_Party/LwIP/src/core\mem.c ****     size = MIN_SIZE_ALIGNED;
 850:c:/Users/Black_Life/STM32Cube/Repository/STM32Cube_FW_F4_V1.26.2/Middlewares/Third_Party/LwIP/src/core\mem.c ****   }
 851:c:/Users/Black_Life/STM32Cube/Repository/STM32Cube_FW_F4_V1.26.2/Middlewares/Third_Party/LwIP/src/core\mem.c **** #if MEM_OVERFLOW_CHECK
 852:c:/Users/Black_Life/STM32Cube/Repository/STM32Cube_FW_F4_V1.26.2/Middlewares/Third_Party/LwIP/src/core\mem.c ****   size += MEM_SANITY_REGION_BEFORE_ALIGNED + MEM_SANITY_REGION_AFTER_ALIGNED;
 853:c:/Users/Black_Life/STM32Cube/Repository/STM32Cube_FW_F4_V1.26.2/Middlewares/Third_Party/LwIP/src/core\mem.c **** #endif
 854:c:/Users/Black_Life/STM32Cube/Repository/STM32Cube_FW_F4_V1.26.2/Middlewares/Third_Party/LwIP/src/core\mem.c ****   if ((size > MEM_SIZE_ALIGNED) || (size < size_in)) {
 1205              		.loc 1 854 3 is_stmt 1 view .LVU390
 1206              		.loc 1 854 6 is_stmt 0 view .LVU391
 1207 001a B6F5C86F 		cmp	r6, #1600
 1208 001e 02D9     		bls	.L81
 855:c:/Users/Black_Life/STM32Cube/Repository/STM32Cube_FW_F4_V1.26.2/Middlewares/Third_Party/LwIP/src/core\mem.c ****     return NULL;
 1209              		.loc 1 855 12 view .LVU392
 1210 0020 0020     		movs	r0, #0
 1211              	.LVL105:
 1212              		.loc 1 855 12 view .LVU393
 1213 0022 88E0     		b	.L79
 1214              	.LVL106:
 1215              	.L96:
 849:c:/Users/Black_Life/STM32Cube/Repository/STM32Cube_FW_F4_V1.26.2/Middlewares/Third_Party/LwIP/src/core\mem.c ****   }
 1216              		.loc 1 849 10 view .LVU394
 1217 0024 0C26     		movs	r6, #12
 1218              	.LVL107:
 1219              	.L81:
 854:c:/Users/Black_Life/STM32Cube/Repository/STM32Cube_FW_F4_V1.26.2/Middlewares/Third_Party/LwIP/src/core\mem.c ****     return NULL;
 1220              		.loc 1 854 33 discriminator 1 view .LVU395
 1221 0026 9E42     		cmp	r6, r3
 1222 0028 C0F08980 		bcc	.L98
 856:c:/Users/Black_Life/STM32Cube/Repository/STM32Cube_FW_F4_V1.26.2/Middlewares/Third_Party/LwIP/src/core\mem.c ****   }
 857:c:/Users/Black_Life/STM32Cube/Repository/STM32Cube_FW_F4_V1.26.2/Middlewares/Third_Party/LwIP/src/core\mem.c **** 
ARM GAS  C:\Users\BLACK_~1\AppData\Local\Temp\ccnOKFK8.s 			page 42


 858:c:/Users/Black_Life/STM32Cube/Repository/STM32Cube_FW_F4_V1.26.2/Middlewares/Third_Party/LwIP/src/core\mem.c ****   /* protect the heap from concurrent access */
 859:c:/Users/Black_Life/STM32Cube/Repository/STM32Cube_FW_F4_V1.26.2/Middlewares/Third_Party/LwIP/src/core\mem.c ****   sys_mutex_lock(&mem_mutex);
 1223              		.loc 1 859 29 is_stmt 1 view .LVU396
 860:c:/Users/Black_Life/STM32Cube/Repository/STM32Cube_FW_F4_V1.26.2/Middlewares/Third_Party/LwIP/src/core\mem.c ****   LWIP_MEM_ALLOC_PROTECT();
 1224              		.loc 1 860 27 view .LVU397
 861:c:/Users/Black_Life/STM32Cube/Repository/STM32Cube_FW_F4_V1.26.2/Middlewares/Third_Party/LwIP/src/core\mem.c **** #if LWIP_ALLOW_MEM_FREE_FROM_OTHER_CONTEXT
 862:c:/Users/Black_Life/STM32Cube/Repository/STM32Cube_FW_F4_V1.26.2/Middlewares/Third_Party/LwIP/src/core\mem.c ****   /* run as long as a mem_free disturbed mem_malloc or mem_trim */
 863:c:/Users/Black_Life/STM32Cube/Repository/STM32Cube_FW_F4_V1.26.2/Middlewares/Third_Party/LwIP/src/core\mem.c ****   do {
 864:c:/Users/Black_Life/STM32Cube/Repository/STM32Cube_FW_F4_V1.26.2/Middlewares/Third_Party/LwIP/src/core\mem.c ****     local_mem_free_count = 0;
 865:c:/Users/Black_Life/STM32Cube/Repository/STM32Cube_FW_F4_V1.26.2/Middlewares/Third_Party/LwIP/src/core\mem.c **** #endif /* LWIP_ALLOW_MEM_FREE_FROM_OTHER_CONTEXT */
 866:c:/Users/Black_Life/STM32Cube/Repository/STM32Cube_FW_F4_V1.26.2/Middlewares/Third_Party/LwIP/src/core\mem.c **** 
 867:c:/Users/Black_Life/STM32Cube/Repository/STM32Cube_FW_F4_V1.26.2/Middlewares/Third_Party/LwIP/src/core\mem.c ****     /* Scan through the heap searching for a free block that is big enough,
 868:c:/Users/Black_Life/STM32Cube/Repository/STM32Cube_FW_F4_V1.26.2/Middlewares/Third_Party/LwIP/src/core\mem.c ****      * beginning with the lowest free block.
 869:c:/Users/Black_Life/STM32Cube/Repository/STM32Cube_FW_F4_V1.26.2/Middlewares/Third_Party/LwIP/src/core\mem.c ****      */
 870:c:/Users/Black_Life/STM32Cube/Repository/STM32Cube_FW_F4_V1.26.2/Middlewares/Third_Party/LwIP/src/core\mem.c ****     for (ptr = mem_to_ptr(lfree); ptr < MEM_SIZE_ALIGNED - size;
 1225              		.loc 1 870 5 view .LVU398
 1226              		.loc 1 870 16 is_stmt 0 view .LVU399
 1227 002c 454B     		ldr	r3, .L108
 1228 002e 1868     		ldr	r0, [r3]
 1229              	.LVL108:
 1230              		.loc 1 870 16 view .LVU400
 1231 0030 FFF7FEFF 		bl	mem_to_ptr
 1232              	.LVL109:
 1233 0034 0546     		mov	r5, r0
 1234              	.LVL110:
 1235              		.loc 1 870 5 view .LVU401
 1236 0036 4CE0     		b	.L82
 1237              	.LVL111:
 1238              	.L107:
 871:c:/Users/Black_Life/STM32Cube/Repository/STM32Cube_FW_F4_V1.26.2/Middlewares/Third_Party/LwIP/src/core\mem.c ****          ptr = ptr_to_mem(ptr)->next) {
 872:c:/Users/Black_Life/STM32Cube/Repository/STM32Cube_FW_F4_V1.26.2/Middlewares/Third_Party/LwIP/src/core\mem.c ****       mem = ptr_to_mem(ptr);
 873:c:/Users/Black_Life/STM32Cube/Repository/STM32Cube_FW_F4_V1.26.2/Middlewares/Third_Party/LwIP/src/core\mem.c **** #if LWIP_ALLOW_MEM_FREE_FROM_OTHER_CONTEXT
 874:c:/Users/Black_Life/STM32Cube/Repository/STM32Cube_FW_F4_V1.26.2/Middlewares/Third_Party/LwIP/src/core\mem.c ****       mem_free_count = 0;
 875:c:/Users/Black_Life/STM32Cube/Repository/STM32Cube_FW_F4_V1.26.2/Middlewares/Third_Party/LwIP/src/core\mem.c ****       LWIP_MEM_ALLOC_UNPROTECT();
 876:c:/Users/Black_Life/STM32Cube/Repository/STM32Cube_FW_F4_V1.26.2/Middlewares/Third_Party/LwIP/src/core\mem.c ****       /* allow mem_free or mem_trim to run */
 877:c:/Users/Black_Life/STM32Cube/Repository/STM32Cube_FW_F4_V1.26.2/Middlewares/Third_Party/LwIP/src/core\mem.c ****       LWIP_MEM_ALLOC_PROTECT();
 878:c:/Users/Black_Life/STM32Cube/Repository/STM32Cube_FW_F4_V1.26.2/Middlewares/Third_Party/LwIP/src/core\mem.c ****       if (mem_free_count != 0) {
 879:c:/Users/Black_Life/STM32Cube/Repository/STM32Cube_FW_F4_V1.26.2/Middlewares/Third_Party/LwIP/src/core\mem.c ****         /* If mem_free or mem_trim have run, we have to restart since they
 880:c:/Users/Black_Life/STM32Cube/Repository/STM32Cube_FW_F4_V1.26.2/Middlewares/Third_Party/LwIP/src/core\mem.c ****            could have altered our current struct mem. */
 881:c:/Users/Black_Life/STM32Cube/Repository/STM32Cube_FW_F4_V1.26.2/Middlewares/Third_Party/LwIP/src/core\mem.c ****         local_mem_free_count = 1;
 882:c:/Users/Black_Life/STM32Cube/Repository/STM32Cube_FW_F4_V1.26.2/Middlewares/Third_Party/LwIP/src/core\mem.c ****         break;
 883:c:/Users/Black_Life/STM32Cube/Repository/STM32Cube_FW_F4_V1.26.2/Middlewares/Third_Party/LwIP/src/core\mem.c ****       }
 884:c:/Users/Black_Life/STM32Cube/Repository/STM32Cube_FW_F4_V1.26.2/Middlewares/Third_Party/LwIP/src/core\mem.c **** #endif /* LWIP_ALLOW_MEM_FREE_FROM_OTHER_CONTEXT */
 885:c:/Users/Black_Life/STM32Cube/Repository/STM32Cube_FW_F4_V1.26.2/Middlewares/Third_Party/LwIP/src/core\mem.c **** 
 886:c:/Users/Black_Life/STM32Cube/Repository/STM32Cube_FW_F4_V1.26.2/Middlewares/Third_Party/LwIP/src/core\mem.c ****       if ((!mem->used) &&
 887:c:/Users/Black_Life/STM32Cube/Repository/STM32Cube_FW_F4_V1.26.2/Middlewares/Third_Party/LwIP/src/core\mem.c ****           (mem->next - (ptr + SIZEOF_STRUCT_MEM)) >= size) {
 888:c:/Users/Black_Life/STM32Cube/Repository/STM32Cube_FW_F4_V1.26.2/Middlewares/Third_Party/LwIP/src/core\mem.c ****         /* mem is not used and at least perfect fit is possible:
 889:c:/Users/Black_Life/STM32Cube/Repository/STM32Cube_FW_F4_V1.26.2/Middlewares/Third_Party/LwIP/src/core\mem.c ****          * mem->next - (ptr + SIZEOF_STRUCT_MEM) gives us the 'user data size' of mem */
 890:c:/Users/Black_Life/STM32Cube/Repository/STM32Cube_FW_F4_V1.26.2/Middlewares/Third_Party/LwIP/src/core\mem.c **** 
 891:c:/Users/Black_Life/STM32Cube/Repository/STM32Cube_FW_F4_V1.26.2/Middlewares/Third_Party/LwIP/src/core\mem.c ****         if (mem->next - (ptr + SIZEOF_STRUCT_MEM) >= (size + SIZEOF_STRUCT_MEM + MIN_SIZE_ALIGNED))
 892:c:/Users/Black_Life/STM32Cube/Repository/STM32Cube_FW_F4_V1.26.2/Middlewares/Third_Party/LwIP/src/core\mem.c ****           /* (in addition to the above, we test if another struct mem (SIZEOF_STRUCT_MEM) containin
 893:c:/Users/Black_Life/STM32Cube/Repository/STM32Cube_FW_F4_V1.26.2/Middlewares/Third_Party/LwIP/src/core\mem.c ****            * at least MIN_SIZE_ALIGNED of data also fits in the 'user data space' of 'mem')
 894:c:/Users/Black_Life/STM32Cube/Repository/STM32Cube_FW_F4_V1.26.2/Middlewares/Third_Party/LwIP/src/core\mem.c ****            * -> split large block, create empty remainder,
 895:c:/Users/Black_Life/STM32Cube/Repository/STM32Cube_FW_F4_V1.26.2/Middlewares/Third_Party/LwIP/src/core\mem.c ****            * remainder must be large enough to contain MIN_SIZE_ALIGNED data: if
 896:c:/Users/Black_Life/STM32Cube/Repository/STM32Cube_FW_F4_V1.26.2/Middlewares/Third_Party/LwIP/src/core\mem.c ****            * mem->next - (ptr + (2*SIZEOF_STRUCT_MEM)) == size,
 897:c:/Users/Black_Life/STM32Cube/Repository/STM32Cube_FW_F4_V1.26.2/Middlewares/Third_Party/LwIP/src/core\mem.c ****            * struct mem would fit in but no data between mem2 and mem2->next
 898:c:/Users/Black_Life/STM32Cube/Repository/STM32Cube_FW_F4_V1.26.2/Middlewares/Third_Party/LwIP/src/core\mem.c ****            * @todo we could leave out MIN_SIZE_ALIGNED. We would create an empty
ARM GAS  C:\Users\BLACK_~1\AppData\Local\Temp\ccnOKFK8.s 			page 43


 899:c:/Users/Black_Life/STM32Cube/Repository/STM32Cube_FW_F4_V1.26.2/Middlewares/Third_Party/LwIP/src/core\mem.c ****            *       region that couldn't hold data, but when mem->next gets freed,
 900:c:/Users/Black_Life/STM32Cube/Repository/STM32Cube_FW_F4_V1.26.2/Middlewares/Third_Party/LwIP/src/core\mem.c ****            *       the 2 regions would be combined, resulting in more free memory
 901:c:/Users/Black_Life/STM32Cube/Repository/STM32Cube_FW_F4_V1.26.2/Middlewares/Third_Party/LwIP/src/core\mem.c ****            */
 902:c:/Users/Black_Life/STM32Cube/Repository/STM32Cube_FW_F4_V1.26.2/Middlewares/Third_Party/LwIP/src/core\mem.c ****           ptr2 = (mem_size_t)(ptr + SIZEOF_STRUCT_MEM + size);
 903:c:/Users/Black_Life/STM32Cube/Repository/STM32Cube_FW_F4_V1.26.2/Middlewares/Third_Party/LwIP/src/core\mem.c ****           LWIP_ASSERT("invalid next ptr",ptr2 != MEM_SIZE_ALIGNED);
 1239              		.loc 1 903 11 is_stmt 1 discriminator 1 view .LVU402
 1240              		.loc 1 903 11 discriminator 1 view .LVU403
 1241 0038 434B     		ldr	r3, .L108+4
 1242 003a 40F28732 		movw	r2, #903
 1243 003e 4349     		ldr	r1, .L108+8
 1244 0040 4348     		ldr	r0, .L108+12
 1245              	.LVL112:
 1246              		.loc 1 903 11 is_stmt 0 discriminator 1 view .LVU404
 1247 0042 FFF7FEFF 		bl	printf
 1248              	.LVL113:
 1249 0046 62E0     		b	.L85
 1250              	.LVL114:
 1251              	.L84:
 904:c:/Users/Black_Life/STM32Cube/Repository/STM32Cube_FW_F4_V1.26.2/Middlewares/Third_Party/LwIP/src/core\mem.c ****           /* create mem2 struct */
 905:c:/Users/Black_Life/STM32Cube/Repository/STM32Cube_FW_F4_V1.26.2/Middlewares/Third_Party/LwIP/src/core\mem.c ****           mem2 = ptr_to_mem(ptr2);
 906:c:/Users/Black_Life/STM32Cube/Repository/STM32Cube_FW_F4_V1.26.2/Middlewares/Third_Party/LwIP/src/core\mem.c ****           mem2->used = 0;
 907:c:/Users/Black_Life/STM32Cube/Repository/STM32Cube_FW_F4_V1.26.2/Middlewares/Third_Party/LwIP/src/core\mem.c ****           mem2->next = mem->next;
 908:c:/Users/Black_Life/STM32Cube/Repository/STM32Cube_FW_F4_V1.26.2/Middlewares/Third_Party/LwIP/src/core\mem.c ****           mem2->prev = ptr;
 909:c:/Users/Black_Life/STM32Cube/Repository/STM32Cube_FW_F4_V1.26.2/Middlewares/Third_Party/LwIP/src/core\mem.c ****           /* and insert it between mem and mem->next */
 910:c:/Users/Black_Life/STM32Cube/Repository/STM32Cube_FW_F4_V1.26.2/Middlewares/Third_Party/LwIP/src/core\mem.c ****           mem->next = ptr2;
 911:c:/Users/Black_Life/STM32Cube/Repository/STM32Cube_FW_F4_V1.26.2/Middlewares/Third_Party/LwIP/src/core\mem.c ****           mem->used = 1;
 912:c:/Users/Black_Life/STM32Cube/Repository/STM32Cube_FW_F4_V1.26.2/Middlewares/Third_Party/LwIP/src/core\mem.c **** 
 913:c:/Users/Black_Life/STM32Cube/Repository/STM32Cube_FW_F4_V1.26.2/Middlewares/Third_Party/LwIP/src/core\mem.c ****           if (mem2->next != MEM_SIZE_ALIGNED) {
 914:c:/Users/Black_Life/STM32Cube/Repository/STM32Cube_FW_F4_V1.26.2/Middlewares/Third_Party/LwIP/src/core\mem.c ****             ptr_to_mem(mem2->next)->prev = ptr2;
 915:c:/Users/Black_Life/STM32Cube/Repository/STM32Cube_FW_F4_V1.26.2/Middlewares/Third_Party/LwIP/src/core\mem.c ****           }
 916:c:/Users/Black_Life/STM32Cube/Repository/STM32Cube_FW_F4_V1.26.2/Middlewares/Third_Party/LwIP/src/core\mem.c ****           MEM_STATS_INC_USED(used, (size + SIZEOF_STRUCT_MEM));
 917:c:/Users/Black_Life/STM32Cube/Repository/STM32Cube_FW_F4_V1.26.2/Middlewares/Third_Party/LwIP/src/core\mem.c ****         } else {
 918:c:/Users/Black_Life/STM32Cube/Repository/STM32Cube_FW_F4_V1.26.2/Middlewares/Third_Party/LwIP/src/core\mem.c ****           /* (a mem2 struct does no fit into the user data space of mem and mem->next will always
 919:c:/Users/Black_Life/STM32Cube/Repository/STM32Cube_FW_F4_V1.26.2/Middlewares/Third_Party/LwIP/src/core\mem.c ****            * be used at this point: if not we have 2 unused structs in a row, plug_holes should hav
 920:c:/Users/Black_Life/STM32Cube/Repository/STM32Cube_FW_F4_V1.26.2/Middlewares/Third_Party/LwIP/src/core\mem.c ****            * take care of this).
 921:c:/Users/Black_Life/STM32Cube/Repository/STM32Cube_FW_F4_V1.26.2/Middlewares/Third_Party/LwIP/src/core\mem.c ****            * -> near fit or exact fit: do not split, no mem2 creation
 922:c:/Users/Black_Life/STM32Cube/Repository/STM32Cube_FW_F4_V1.26.2/Middlewares/Third_Party/LwIP/src/core\mem.c ****            * also can't move mem->next directly behind mem, since mem->next
 923:c:/Users/Black_Life/STM32Cube/Repository/STM32Cube_FW_F4_V1.26.2/Middlewares/Third_Party/LwIP/src/core\mem.c ****            * will always be used at this point!
 924:c:/Users/Black_Life/STM32Cube/Repository/STM32Cube_FW_F4_V1.26.2/Middlewares/Third_Party/LwIP/src/core\mem.c ****            */
 925:c:/Users/Black_Life/STM32Cube/Repository/STM32Cube_FW_F4_V1.26.2/Middlewares/Third_Party/LwIP/src/core\mem.c ****           mem->used = 1;
 1252              		.loc 1 925 11 is_stmt 1 view .LVU405
 1253              		.loc 1 925 21 is_stmt 0 view .LVU406
 1254 0048 0123     		movs	r3, #1
 1255 004a 0371     		strb	r3, [r0, #4]
 1256              	.LVL115:
 1257              	.L86:
 926:c:/Users/Black_Life/STM32Cube/Repository/STM32Cube_FW_F4_V1.26.2/Middlewares/Third_Party/LwIP/src/core\mem.c ****           MEM_STATS_INC_USED(used, mem->next - mem_to_ptr(mem));
 1258              		.loc 1 926 64 is_stmt 1 view .LVU407
 927:c:/Users/Black_Life/STM32Cube/Repository/STM32Cube_FW_F4_V1.26.2/Middlewares/Third_Party/LwIP/src/core\mem.c ****         }
 928:c:/Users/Black_Life/STM32Cube/Repository/STM32Cube_FW_F4_V1.26.2/Middlewares/Third_Party/LwIP/src/core\mem.c **** #if LWIP_ALLOW_MEM_FREE_FROM_OTHER_CONTEXT
 929:c:/Users/Black_Life/STM32Cube/Repository/STM32Cube_FW_F4_V1.26.2/Middlewares/Third_Party/LwIP/src/core\mem.c **** mem_malloc_adjust_lfree:
 930:c:/Users/Black_Life/STM32Cube/Repository/STM32Cube_FW_F4_V1.26.2/Middlewares/Third_Party/LwIP/src/core\mem.c **** #endif /* LWIP_ALLOW_MEM_FREE_FROM_OTHER_CONTEXT */
 931:c:/Users/Black_Life/STM32Cube/Repository/STM32Cube_FW_F4_V1.26.2/Middlewares/Third_Party/LwIP/src/core\mem.c ****         if (mem == lfree) {
 1259              		.loc 1 931 9 view .LVU408
 1260              		.loc 1 931 17 is_stmt 0 view .LVU409
 1261 004c 3D4B     		ldr	r3, .L108
 1262 004e 1868     		ldr	r0, [r3]
ARM GAS  C:\Users\BLACK_~1\AppData\Local\Temp\ccnOKFK8.s 			page 44


 1263              		.loc 1 931 12 view .LVU410
 1264 0050 A042     		cmp	r0, r4
 1265 0052 0FD0     		beq	.L87
 1266              	.L88:
 1267              	.LBB4:
 932:c:/Users/Black_Life/STM32Cube/Repository/STM32Cube_FW_F4_V1.26.2/Middlewares/Third_Party/LwIP/src/core\mem.c ****           struct mem *cur = lfree;
 933:c:/Users/Black_Life/STM32Cube/Repository/STM32Cube_FW_F4_V1.26.2/Middlewares/Third_Party/LwIP/src/core\mem.c ****           /* Find next free block after mem and update lowest free pointer */
 934:c:/Users/Black_Life/STM32Cube/Repository/STM32Cube_FW_F4_V1.26.2/Middlewares/Third_Party/LwIP/src/core\mem.c ****           while (cur->used && cur != ram_end) {
 935:c:/Users/Black_Life/STM32Cube/Repository/STM32Cube_FW_F4_V1.26.2/Middlewares/Third_Party/LwIP/src/core\mem.c **** #if LWIP_ALLOW_MEM_FREE_FROM_OTHER_CONTEXT
 936:c:/Users/Black_Life/STM32Cube/Repository/STM32Cube_FW_F4_V1.26.2/Middlewares/Third_Party/LwIP/src/core\mem.c ****             mem_free_count = 0;
 937:c:/Users/Black_Life/STM32Cube/Repository/STM32Cube_FW_F4_V1.26.2/Middlewares/Third_Party/LwIP/src/core\mem.c ****             LWIP_MEM_ALLOC_UNPROTECT();
 938:c:/Users/Black_Life/STM32Cube/Repository/STM32Cube_FW_F4_V1.26.2/Middlewares/Third_Party/LwIP/src/core\mem.c ****             /* prevent high interrupt latency... */
 939:c:/Users/Black_Life/STM32Cube/Repository/STM32Cube_FW_F4_V1.26.2/Middlewares/Third_Party/LwIP/src/core\mem.c ****             LWIP_MEM_ALLOC_PROTECT();
 940:c:/Users/Black_Life/STM32Cube/Repository/STM32Cube_FW_F4_V1.26.2/Middlewares/Third_Party/LwIP/src/core\mem.c ****             if (mem_free_count != 0) {
 941:c:/Users/Black_Life/STM32Cube/Repository/STM32Cube_FW_F4_V1.26.2/Middlewares/Third_Party/LwIP/src/core\mem.c ****               /* If mem_free or mem_trim have run, we have to restart since they
 942:c:/Users/Black_Life/STM32Cube/Repository/STM32Cube_FW_F4_V1.26.2/Middlewares/Third_Party/LwIP/src/core\mem.c ****                  could have altered our current struct mem or lfree. */
 943:c:/Users/Black_Life/STM32Cube/Repository/STM32Cube_FW_F4_V1.26.2/Middlewares/Third_Party/LwIP/src/core\mem.c ****               goto mem_malloc_adjust_lfree;
 944:c:/Users/Black_Life/STM32Cube/Repository/STM32Cube_FW_F4_V1.26.2/Middlewares/Third_Party/LwIP/src/core\mem.c ****             }
 945:c:/Users/Black_Life/STM32Cube/Repository/STM32Cube_FW_F4_V1.26.2/Middlewares/Third_Party/LwIP/src/core\mem.c **** #endif /* LWIP_ALLOW_MEM_FREE_FROM_OTHER_CONTEXT */
 946:c:/Users/Black_Life/STM32Cube/Repository/STM32Cube_FW_F4_V1.26.2/Middlewares/Third_Party/LwIP/src/core\mem.c ****             cur = ptr_to_mem(cur->next);
 947:c:/Users/Black_Life/STM32Cube/Repository/STM32Cube_FW_F4_V1.26.2/Middlewares/Third_Party/LwIP/src/core\mem.c ****           }
 948:c:/Users/Black_Life/STM32Cube/Repository/STM32Cube_FW_F4_V1.26.2/Middlewares/Third_Party/LwIP/src/core\mem.c ****           lfree = cur;
 949:c:/Users/Black_Life/STM32Cube/Repository/STM32Cube_FW_F4_V1.26.2/Middlewares/Third_Party/LwIP/src/core\mem.c ****           LWIP_ASSERT("mem_malloc: !lfree->used", ((lfree == ram_end) || (!lfree->used)));
 1268              		.loc 1 949 11 is_stmt 1 discriminator 5 view .LVU411
 1269              		.loc 1 949 11 discriminator 5 view .LVU412
 1270              	.LBE4:
 950:c:/Users/Black_Life/STM32Cube/Repository/STM32Cube_FW_F4_V1.26.2/Middlewares/Third_Party/LwIP/src/core\mem.c ****         }
 951:c:/Users/Black_Life/STM32Cube/Repository/STM32Cube_FW_F4_V1.26.2/Middlewares/Third_Party/LwIP/src/core\mem.c ****         LWIP_MEM_ALLOC_UNPROTECT();
 1271              		.loc 1 951 35 discriminator 5 view .LVU413
 952:c:/Users/Black_Life/STM32Cube/Repository/STM32Cube_FW_F4_V1.26.2/Middlewares/Third_Party/LwIP/src/core\mem.c ****         sys_mutex_unlock(&mem_mutex);
 1272              		.loc 1 952 37 discriminator 5 view .LVU414
 953:c:/Users/Black_Life/STM32Cube/Repository/STM32Cube_FW_F4_V1.26.2/Middlewares/Third_Party/LwIP/src/core\mem.c ****         LWIP_ASSERT("mem_malloc: allocated memory not above ram_end.",
 1273              		.loc 1 953 9 discriminator 5 view .LVU415
 1274              		.loc 1 953 9 discriminator 5 view .LVU416
 1275 0054 2744     		add	r7, r7, r4
 1276 0056 0837     		adds	r7, r7, #8
 1277 0058 3E4B     		ldr	r3, .L108+16
 1278 005a 1B68     		ldr	r3, [r3]
 1279 005c 9F42     		cmp	r7, r3
 1280 005e 1FD8     		bhi	.L103
 1281              	.L91:
 1282              		.loc 1 953 9 discriminator 3 view .LVU417
 1283              		.loc 1 953 9 discriminator 3 view .LVU418
 954:c:/Users/Black_Life/STM32Cube/Repository/STM32Cube_FW_F4_V1.26.2/Middlewares/Third_Party/LwIP/src/core\mem.c ****                     (mem_ptr_t)mem + SIZEOF_STRUCT_MEM + size <= (mem_ptr_t)ram_end);
 955:c:/Users/Black_Life/STM32Cube/Repository/STM32Cube_FW_F4_V1.26.2/Middlewares/Third_Party/LwIP/src/core\mem.c ****         LWIP_ASSERT("mem_malloc: allocated memory properly aligned.",
 1284              		.loc 1 955 9 discriminator 3 view .LVU419
 1285              		.loc 1 955 9 discriminator 3 view .LVU420
 1286 0060 14F00305 		ands	r5, r4, #3
 1287              	.LVL116:
 1288              		.loc 1 955 9 is_stmt 0 discriminator 3 view .LVU421
 1289 0064 24D1     		bne	.L104
 1290              	.L92:
 1291              		.loc 1 955 9 is_stmt 1 discriminator 3 view .LVU422
 1292              		.loc 1 955 9 discriminator 3 view .LVU423
 956:c:/Users/Black_Life/STM32Cube/Repository/STM32Cube_FW_F4_V1.26.2/Middlewares/Third_Party/LwIP/src/core\mem.c ****                     ((mem_ptr_t)mem + SIZEOF_STRUCT_MEM) % MEM_ALIGNMENT == 0);
 957:c:/Users/Black_Life/STM32Cube/Repository/STM32Cube_FW_F4_V1.26.2/Middlewares/Third_Party/LwIP/src/core\mem.c ****         LWIP_ASSERT("mem_malloc: sanity check alignment",
 1293              		.loc 1 957 9 discriminator 3 view .LVU424
ARM GAS  C:\Users\BLACK_~1\AppData\Local\Temp\ccnOKFK8.s 			page 45


 1294              		.loc 1 957 9 discriminator 3 view .LVU425
 1295 0066 5DBB     		cbnz	r5, .L105
 1296              	.L93:
 1297              		.loc 1 957 9 discriminator 3 view .LVU426
 1298              		.loc 1 957 9 discriminator 3 view .LVU427
 958:c:/Users/Black_Life/STM32Cube/Repository/STM32Cube_FW_F4_V1.26.2/Middlewares/Third_Party/LwIP/src/core\mem.c ****                     (((mem_ptr_t)mem) & (MEM_ALIGNMENT - 1)) == 0);
 959:c:/Users/Black_Life/STM32Cube/Repository/STM32Cube_FW_F4_V1.26.2/Middlewares/Third_Party/LwIP/src/core\mem.c **** 
 960:c:/Users/Black_Life/STM32Cube/Repository/STM32Cube_FW_F4_V1.26.2/Middlewares/Third_Party/LwIP/src/core\mem.c **** #if MEM_OVERFLOW_CHECK
 961:c:/Users/Black_Life/STM32Cube/Repository/STM32Cube_FW_F4_V1.26.2/Middlewares/Third_Party/LwIP/src/core\mem.c ****         mem_overflow_init_element(mem, size_in);
 962:c:/Users/Black_Life/STM32Cube/Repository/STM32Cube_FW_F4_V1.26.2/Middlewares/Third_Party/LwIP/src/core\mem.c **** #endif
 963:c:/Users/Black_Life/STM32Cube/Repository/STM32Cube_FW_F4_V1.26.2/Middlewares/Third_Party/LwIP/src/core\mem.c ****         MEM_SANITY();
 1299              		.loc 1 963 21 discriminator 3 view .LVU428
 964:c:/Users/Black_Life/STM32Cube/Repository/STM32Cube_FW_F4_V1.26.2/Middlewares/Third_Party/LwIP/src/core\mem.c ****         return (u8_t *)mem + SIZEOF_STRUCT_MEM + MEM_SANITY_OFFSET;
 1300              		.loc 1 964 9 discriminator 3 view .LVU429
 1301              		.loc 1 964 48 is_stmt 0 discriminator 3 view .LVU430
 1302 0068 04F10800 		add	r0, r4, #8
 1303 006c 63E0     		b	.L79
 1304              	.LVL117:
 1305              	.L90:
 1306              	.LBB5:
 946:c:/Users/Black_Life/STM32Cube/Repository/STM32Cube_FW_F4_V1.26.2/Middlewares/Third_Party/LwIP/src/core\mem.c ****           }
 1307              		.loc 1 946 13 is_stmt 1 view .LVU431
 946:c:/Users/Black_Life/STM32Cube/Repository/STM32Cube_FW_F4_V1.26.2/Middlewares/Third_Party/LwIP/src/core\mem.c ****           }
 1308              		.loc 1 946 19 is_stmt 0 view .LVU432
 1309 006e 0088     		ldrh	r0, [r0]
 1310              	.LVL118:
 946:c:/Users/Black_Life/STM32Cube/Repository/STM32Cube_FW_F4_V1.26.2/Middlewares/Third_Party/LwIP/src/core\mem.c ****           }
 1311              		.loc 1 946 19 view .LVU433
 1312 0070 FFF7FEFF 		bl	ptr_to_mem
 1313              	.LVL119:
 1314              	.L87:
 934:c:/Users/Black_Life/STM32Cube/Repository/STM32Cube_FW_F4_V1.26.2/Middlewares/Third_Party/LwIP/src/core\mem.c **** #if LWIP_ALLOW_MEM_FREE_FROM_OTHER_CONTEXT
 1315              		.loc 1 934 17 is_stmt 1 view .LVU434
 934:c:/Users/Black_Life/STM32Cube/Repository/STM32Cube_FW_F4_V1.26.2/Middlewares/Third_Party/LwIP/src/core\mem.c **** #if LWIP_ALLOW_MEM_FREE_FROM_OTHER_CONTEXT
 1316              		.loc 1 934 21 is_stmt 0 view .LVU435
 1317 0074 0379     		ldrb	r3, [r0, #4]	@ zero_extendqisi2
 934:c:/Users/Black_Life/STM32Cube/Repository/STM32Cube_FW_F4_V1.26.2/Middlewares/Third_Party/LwIP/src/core\mem.c **** #if LWIP_ALLOW_MEM_FREE_FROM_OTHER_CONTEXT
 1318              		.loc 1 934 17 view .LVU436
 1319 0076 1BB1     		cbz	r3, .L89
 934:c:/Users/Black_Life/STM32Cube/Repository/STM32Cube_FW_F4_V1.26.2/Middlewares/Third_Party/LwIP/src/core\mem.c **** #if LWIP_ALLOW_MEM_FREE_FROM_OTHER_CONTEXT
 1320              		.loc 1 934 35 discriminator 1 view .LVU437
 1321 0078 364A     		ldr	r2, .L108+16
 1322 007a 1268     		ldr	r2, [r2]
 934:c:/Users/Black_Life/STM32Cube/Repository/STM32Cube_FW_F4_V1.26.2/Middlewares/Third_Party/LwIP/src/core\mem.c **** #if LWIP_ALLOW_MEM_FREE_FROM_OTHER_CONTEXT
 1323              		.loc 1 934 28 discriminator 1 view .LVU438
 1324 007c 8242     		cmp	r2, r0
 1325 007e F6D1     		bne	.L90
 1326              	.L89:
 948:c:/Users/Black_Life/STM32Cube/Repository/STM32Cube_FW_F4_V1.26.2/Middlewares/Third_Party/LwIP/src/core\mem.c ****           LWIP_ASSERT("mem_malloc: !lfree->used", ((lfree == ram_end) || (!lfree->used)));
 1327              		.loc 1 948 11 is_stmt 1 view .LVU439
 948:c:/Users/Black_Life/STM32Cube/Repository/STM32Cube_FW_F4_V1.26.2/Middlewares/Third_Party/LwIP/src/core\mem.c ****           LWIP_ASSERT("mem_malloc: !lfree->used", ((lfree == ram_end) || (!lfree->used)));
 1328              		.loc 1 948 17 is_stmt 0 view .LVU440
 1329 0080 304A     		ldr	r2, .L108
 1330 0082 1060     		str	r0, [r2]
 949:c:/Users/Black_Life/STM32Cube/Repository/STM32Cube_FW_F4_V1.26.2/Middlewares/Third_Party/LwIP/src/core\mem.c ****         }
 1331              		.loc 1 949 11 is_stmt 1 view .LVU441
 949:c:/Users/Black_Life/STM32Cube/Repository/STM32Cube_FW_F4_V1.26.2/Middlewares/Third_Party/LwIP/src/core\mem.c ****         }
ARM GAS  C:\Users\BLACK_~1\AppData\Local\Temp\ccnOKFK8.s 			page 46


 1332              		.loc 1 949 11 view .LVU442
 1333 0084 334A     		ldr	r2, .L108+16
 1334 0086 1268     		ldr	r2, [r2]
 1335 0088 8242     		cmp	r2, r0
 1336 008a E3D0     		beq	.L88
 949:c:/Users/Black_Life/STM32Cube/Repository/STM32Cube_FW_F4_V1.26.2/Middlewares/Third_Party/LwIP/src/core\mem.c ****         }
 1337              		.loc 1 949 11 is_stmt 0 discriminator 1 view .LVU443
 1338 008c 002B     		cmp	r3, #0
 1339 008e E1D0     		beq	.L88
 949:c:/Users/Black_Life/STM32Cube/Repository/STM32Cube_FW_F4_V1.26.2/Middlewares/Third_Party/LwIP/src/core\mem.c ****         }
 1340              		.loc 1 949 11 is_stmt 1 discriminator 3 view .LVU444
 949:c:/Users/Black_Life/STM32Cube/Repository/STM32Cube_FW_F4_V1.26.2/Middlewares/Third_Party/LwIP/src/core\mem.c ****         }
 1341              		.loc 1 949 11 discriminator 3 view .LVU445
 1342 0090 2D4B     		ldr	r3, .L108+4
 1343 0092 40F2B532 		movw	r2, #949
 1344 0096 3049     		ldr	r1, .L108+20
 1345 0098 2D48     		ldr	r0, .L108+12
 1346              	.LVL120:
 949:c:/Users/Black_Life/STM32Cube/Repository/STM32Cube_FW_F4_V1.26.2/Middlewares/Third_Party/LwIP/src/core\mem.c ****         }
 1347              		.loc 1 949 11 is_stmt 0 discriminator 3 view .LVU446
 1348 009a FFF7FEFF 		bl	printf
 1349              	.LVL121:
 949:c:/Users/Black_Life/STM32Cube/Repository/STM32Cube_FW_F4_V1.26.2/Middlewares/Third_Party/LwIP/src/core\mem.c ****         }
 1350              		.loc 1 949 11 discriminator 3 view .LVU447
 1351 009e D9E7     		b	.L88
 1352              	.L103:
 949:c:/Users/Black_Life/STM32Cube/Repository/STM32Cube_FW_F4_V1.26.2/Middlewares/Third_Party/LwIP/src/core\mem.c ****         }
 1353              		.loc 1 949 11 discriminator 3 view .LVU448
 1354              	.LBE5:
 953:c:/Users/Black_Life/STM32Cube/Repository/STM32Cube_FW_F4_V1.26.2/Middlewares/Third_Party/LwIP/src/core\mem.c ****                     (mem_ptr_t)mem + SIZEOF_STRUCT_MEM + size <= (mem_ptr_t)ram_end);
 1355              		.loc 1 953 9 is_stmt 1 discriminator 1 view .LVU449
 953:c:/Users/Black_Life/STM32Cube/Repository/STM32Cube_FW_F4_V1.26.2/Middlewares/Third_Party/LwIP/src/core\mem.c ****                     (mem_ptr_t)mem + SIZEOF_STRUCT_MEM + size <= (mem_ptr_t)ram_end);
 1356              		.loc 1 953 9 discriminator 1 view .LVU450
 1357 00a0 294B     		ldr	r3, .L108+4
 1358 00a2 40F2B932 		movw	r2, #953
 1359 00a6 2D49     		ldr	r1, .L108+24
 1360 00a8 2948     		ldr	r0, .L108+12
 1361 00aa FFF7FEFF 		bl	printf
 1362              	.LVL122:
 1363 00ae D7E7     		b	.L91
 1364              	.LVL123:
 1365              	.L104:
 955:c:/Users/Black_Life/STM32Cube/Repository/STM32Cube_FW_F4_V1.26.2/Middlewares/Third_Party/LwIP/src/core\mem.c ****                     ((mem_ptr_t)mem + SIZEOF_STRUCT_MEM) % MEM_ALIGNMENT == 0);
 1366              		.loc 1 955 9 discriminator 1 view .LVU451
 955:c:/Users/Black_Life/STM32Cube/Repository/STM32Cube_FW_F4_V1.26.2/Middlewares/Third_Party/LwIP/src/core\mem.c ****                     ((mem_ptr_t)mem + SIZEOF_STRUCT_MEM) % MEM_ALIGNMENT == 0);
 1367              		.loc 1 955 9 discriminator 1 view .LVU452
 1368 00b0 254B     		ldr	r3, .L108+4
 1369 00b2 40F2BB32 		movw	r2, #955
 1370 00b6 2A49     		ldr	r1, .L108+28
 1371 00b8 2548     		ldr	r0, .L108+12
 1372 00ba FFF7FEFF 		bl	printf
 1373              	.LVL124:
 1374 00be D2E7     		b	.L92
 1375              	.L105:
 957:c:/Users/Black_Life/STM32Cube/Repository/STM32Cube_FW_F4_V1.26.2/Middlewares/Third_Party/LwIP/src/core\mem.c ****                     (((mem_ptr_t)mem) & (MEM_ALIGNMENT - 1)) == 0);
 1376              		.loc 1 957 9 discriminator 1 view .LVU453
 957:c:/Users/Black_Life/STM32Cube/Repository/STM32Cube_FW_F4_V1.26.2/Middlewares/Third_Party/LwIP/src/core\mem.c ****                     (((mem_ptr_t)mem) & (MEM_ALIGNMENT - 1)) == 0);
ARM GAS  C:\Users\BLACK_~1\AppData\Local\Temp\ccnOKFK8.s 			page 47


 1377              		.loc 1 957 9 discriminator 1 view .LVU454
 1378 00c0 214B     		ldr	r3, .L108+4
 1379 00c2 40F2BD32 		movw	r2, #957
 1380 00c6 2749     		ldr	r1, .L108+32
 1381 00c8 2148     		ldr	r0, .L108+12
 1382 00ca FFF7FEFF 		bl	printf
 1383              	.LVL125:
 1384 00ce CBE7     		b	.L93
 1385              	.LVL126:
 1386              	.L83:
 871:c:/Users/Black_Life/STM32Cube/Repository/STM32Cube_FW_F4_V1.26.2/Middlewares/Third_Party/LwIP/src/core\mem.c ****       mem = ptr_to_mem(ptr);
 1387              		.loc 1 871 10 view .LVU455
 871:c:/Users/Black_Life/STM32Cube/Repository/STM32Cube_FW_F4_V1.26.2/Middlewares/Third_Party/LwIP/src/core\mem.c ****       mem = ptr_to_mem(ptr);
 1388              		.loc 1 871 14 is_stmt 0 view .LVU456
 1389 00d0 2588     		ldrh	r5, [r4]
 1390              	.LVL127:
 1391              	.L82:
 870:c:/Users/Black_Life/STM32Cube/Repository/STM32Cube_FW_F4_V1.26.2/Middlewares/Third_Party/LwIP/src/core\mem.c ****          ptr = ptr_to_mem(ptr)->next) {
 1392              		.loc 1 870 35 is_stmt 1 discriminator 1 view .LVU457
 870:c:/Users/Black_Life/STM32Cube/Repository/STM32Cube_FW_F4_V1.26.2/Middlewares/Third_Party/LwIP/src/core\mem.c ****          ptr = ptr_to_mem(ptr)->next) {
 1393              		.loc 1 870 39 is_stmt 0 discriminator 1 view .LVU458
 1394 00d2 A846     		mov	r8, r5
 870:c:/Users/Black_Life/STM32Cube/Repository/STM32Cube_FW_F4_V1.26.2/Middlewares/Third_Party/LwIP/src/core\mem.c ****          ptr = ptr_to_mem(ptr)->next) {
 1395              		.loc 1 870 58 discriminator 1 view .LVU459
 1396 00d4 3746     		mov	r7, r6
 1397 00d6 C6F5C863 		rsb	r3, r6, #1600
 870:c:/Users/Black_Life/STM32Cube/Repository/STM32Cube_FW_F4_V1.26.2/Middlewares/Third_Party/LwIP/src/core\mem.c ****          ptr = ptr_to_mem(ptr)->next) {
 1398              		.loc 1 870 5 discriminator 1 view .LVU460
 1399 00da 9D42     		cmp	r5, r3
 1400 00dc 2AD2     		bcs	.L106
 872:c:/Users/Black_Life/STM32Cube/Repository/STM32Cube_FW_F4_V1.26.2/Middlewares/Third_Party/LwIP/src/core\mem.c **** #if LWIP_ALLOW_MEM_FREE_FROM_OTHER_CONTEXT
 1401              		.loc 1 872 7 is_stmt 1 view .LVU461
 872:c:/Users/Black_Life/STM32Cube/Repository/STM32Cube_FW_F4_V1.26.2/Middlewares/Third_Party/LwIP/src/core\mem.c **** #if LWIP_ALLOW_MEM_FREE_FROM_OTHER_CONTEXT
 1402              		.loc 1 872 13 is_stmt 0 view .LVU462
 1403 00de 2846     		mov	r0, r5
 1404 00e0 FFF7FEFF 		bl	ptr_to_mem
 1405              	.LVL128:
 1406 00e4 0446     		mov	r4, r0
 1407              	.LVL129:
 886:c:/Users/Black_Life/STM32Cube/Repository/STM32Cube_FW_F4_V1.26.2/Middlewares/Third_Party/LwIP/src/core\mem.c ****           (mem->next - (ptr + SIZEOF_STRUCT_MEM)) >= size) {
 1408              		.loc 1 886 7 is_stmt 1 view .LVU463
 886:c:/Users/Black_Life/STM32Cube/Repository/STM32Cube_FW_F4_V1.26.2/Middlewares/Third_Party/LwIP/src/core\mem.c ****           (mem->next - (ptr + SIZEOF_STRUCT_MEM)) >= size) {
 1409              		.loc 1 886 16 is_stmt 0 view .LVU464
 1410 00e6 0379     		ldrb	r3, [r0, #4]	@ zero_extendqisi2
 886:c:/Users/Black_Life/STM32Cube/Repository/STM32Cube_FW_F4_V1.26.2/Middlewares/Third_Party/LwIP/src/core\mem.c ****           (mem->next - (ptr + SIZEOF_STRUCT_MEM)) >= size) {
 1411              		.loc 1 886 10 view .LVU465
 1412 00e8 002B     		cmp	r3, #0
 1413 00ea F1D1     		bne	.L83
 887:c:/Users/Black_Life/STM32Cube/Repository/STM32Cube_FW_F4_V1.26.2/Middlewares/Third_Party/LwIP/src/core\mem.c ****         /* mem is not used and at least perfect fit is possible:
 1414              		.loc 1 887 15 discriminator 1 view .LVU466
 1415 00ec 0388     		ldrh	r3, [r0]
 887:c:/Users/Black_Life/STM32Cube/Repository/STM32Cube_FW_F4_V1.26.2/Middlewares/Third_Party/LwIP/src/core\mem.c ****         /* mem is not used and at least perfect fit is possible:
 1416              		.loc 1 887 22 discriminator 1 view .LVU467
 1417 00ee A3EB0803 		sub	r3, r3, r8
 1418 00f2 083B     		subs	r3, r3, #8
 886:c:/Users/Black_Life/STM32Cube/Repository/STM32Cube_FW_F4_V1.26.2/Middlewares/Third_Party/LwIP/src/core\mem.c ****           (mem->next - (ptr + SIZEOF_STRUCT_MEM)) >= size) {
 1419              		.loc 1 886 24 discriminator 1 view .LVU468
ARM GAS  C:\Users\BLACK_~1\AppData\Local\Temp\ccnOKFK8.s 			page 48


 1420 00f4 BB42     		cmp	r3, r7
 1421 00f6 EBD3     		bcc	.L83
 891:c:/Users/Black_Life/STM32Cube/Repository/STM32Cube_FW_F4_V1.26.2/Middlewares/Third_Party/LwIP/src/core\mem.c ****           /* (in addition to the above, we test if another struct mem (SIZEOF_STRUCT_MEM) containin
 1422              		.loc 1 891 9 is_stmt 1 view .LVU469
 891:c:/Users/Black_Life/STM32Cube/Repository/STM32Cube_FW_F4_V1.26.2/Middlewares/Third_Party/LwIP/src/core\mem.c ****           /* (in addition to the above, we test if another struct mem (SIZEOF_STRUCT_MEM) containin
 1423              		.loc 1 891 80 is_stmt 0 view .LVU470
 1424 00f8 07F11402 		add	r2, r7, #20
 891:c:/Users/Black_Life/STM32Cube/Repository/STM32Cube_FW_F4_V1.26.2/Middlewares/Third_Party/LwIP/src/core\mem.c ****           /* (in addition to the above, we test if another struct mem (SIZEOF_STRUCT_MEM) containin
 1425              		.loc 1 891 12 view .LVU471
 1426 00fc 9342     		cmp	r3, r2
 1427 00fe A3D3     		bcc	.L84
 902:c:/Users/Black_Life/STM32Cube/Repository/STM32Cube_FW_F4_V1.26.2/Middlewares/Third_Party/LwIP/src/core\mem.c ****           LWIP_ASSERT("invalid next ptr",ptr2 != MEM_SIZE_ALIGNED);
 1428              		.loc 1 902 11 is_stmt 1 view .LVU472
 902:c:/Users/Black_Life/STM32Cube/Repository/STM32Cube_FW_F4_V1.26.2/Middlewares/Third_Party/LwIP/src/core\mem.c ****           LWIP_ASSERT("invalid next ptr",ptr2 != MEM_SIZE_ALIGNED);
 1429              		.loc 1 902 55 is_stmt 0 view .LVU473
 1430 0100 2E44     		add	r6, r6, r5
 1431 0102 B6B2     		uxth	r6, r6
 902:c:/Users/Black_Life/STM32Cube/Repository/STM32Cube_FW_F4_V1.26.2/Middlewares/Third_Party/LwIP/src/core\mem.c ****           LWIP_ASSERT("invalid next ptr",ptr2 != MEM_SIZE_ALIGNED);
 1432              		.loc 1 902 16 view .LVU474
 1433 0104 0836     		adds	r6, r6, #8
 1434 0106 B6B2     		uxth	r6, r6
 1435              	.LVL130:
 903:c:/Users/Black_Life/STM32Cube/Repository/STM32Cube_FW_F4_V1.26.2/Middlewares/Third_Party/LwIP/src/core\mem.c ****           /* create mem2 struct */
 1436              		.loc 1 903 11 is_stmt 1 view .LVU475
 903:c:/Users/Black_Life/STM32Cube/Repository/STM32Cube_FW_F4_V1.26.2/Middlewares/Third_Party/LwIP/src/core\mem.c ****           /* create mem2 struct */
 1437              		.loc 1 903 11 view .LVU476
 1438 0108 B6F5C86F 		cmp	r6, #1600
 1439 010c 94D0     		beq	.L107
 1440              	.LVL131:
 1441              	.L85:
 903:c:/Users/Black_Life/STM32Cube/Repository/STM32Cube_FW_F4_V1.26.2/Middlewares/Third_Party/LwIP/src/core\mem.c ****           /* create mem2 struct */
 1442              		.loc 1 903 11 discriminator 3 view .LVU477
 903:c:/Users/Black_Life/STM32Cube/Repository/STM32Cube_FW_F4_V1.26.2/Middlewares/Third_Party/LwIP/src/core\mem.c ****           /* create mem2 struct */
 1443              		.loc 1 903 11 discriminator 3 view .LVU478
 905:c:/Users/Black_Life/STM32Cube/Repository/STM32Cube_FW_F4_V1.26.2/Middlewares/Third_Party/LwIP/src/core\mem.c ****           mem2->used = 0;
 1444              		.loc 1 905 11 discriminator 3 view .LVU479
 905:c:/Users/Black_Life/STM32Cube/Repository/STM32Cube_FW_F4_V1.26.2/Middlewares/Third_Party/LwIP/src/core\mem.c ****           mem2->used = 0;
 1445              		.loc 1 905 18 is_stmt 0 discriminator 3 view .LVU480
 1446 010e 3046     		mov	r0, r6
 1447 0110 FFF7FEFF 		bl	ptr_to_mem
 1448              	.LVL132:
 906:c:/Users/Black_Life/STM32Cube/Repository/STM32Cube_FW_F4_V1.26.2/Middlewares/Third_Party/LwIP/src/core\mem.c ****           mem2->next = mem->next;
 1449              		.loc 1 906 11 is_stmt 1 discriminator 3 view .LVU481
 906:c:/Users/Black_Life/STM32Cube/Repository/STM32Cube_FW_F4_V1.26.2/Middlewares/Third_Party/LwIP/src/core\mem.c ****           mem2->next = mem->next;
 1450              		.loc 1 906 22 is_stmt 0 discriminator 3 view .LVU482
 1451 0114 0023     		movs	r3, #0
 1452 0116 0371     		strb	r3, [r0, #4]
 907:c:/Users/Black_Life/STM32Cube/Repository/STM32Cube_FW_F4_V1.26.2/Middlewares/Third_Party/LwIP/src/core\mem.c ****           mem2->prev = ptr;
 1453              		.loc 1 907 11 is_stmt 1 discriminator 3 view .LVU483
 907:c:/Users/Black_Life/STM32Cube/Repository/STM32Cube_FW_F4_V1.26.2/Middlewares/Third_Party/LwIP/src/core\mem.c ****           mem2->prev = ptr;
 1454              		.loc 1 907 27 is_stmt 0 discriminator 3 view .LVU484
 1455 0118 2388     		ldrh	r3, [r4]
 907:c:/Users/Black_Life/STM32Cube/Repository/STM32Cube_FW_F4_V1.26.2/Middlewares/Third_Party/LwIP/src/core\mem.c ****           mem2->prev = ptr;
 1456              		.loc 1 907 22 discriminator 3 view .LVU485
 1457 011a 0380     		strh	r3, [r0]	@ movhi
 908:c:/Users/Black_Life/STM32Cube/Repository/STM32Cube_FW_F4_V1.26.2/Middlewares/Third_Party/LwIP/src/core\mem.c ****           /* and insert it between mem and mem->next */
 1458              		.loc 1 908 11 is_stmt 1 discriminator 3 view .LVU486
ARM GAS  C:\Users\BLACK_~1\AppData\Local\Temp\ccnOKFK8.s 			page 49


 908:c:/Users/Black_Life/STM32Cube/Repository/STM32Cube_FW_F4_V1.26.2/Middlewares/Third_Party/LwIP/src/core\mem.c ****           /* and insert it between mem and mem->next */
 1459              		.loc 1 908 22 is_stmt 0 discriminator 3 view .LVU487
 1460 011c 4580     		strh	r5, [r0, #2]	@ movhi
 910:c:/Users/Black_Life/STM32Cube/Repository/STM32Cube_FW_F4_V1.26.2/Middlewares/Third_Party/LwIP/src/core\mem.c ****           mem->used = 1;
 1461              		.loc 1 910 11 is_stmt 1 discriminator 3 view .LVU488
 910:c:/Users/Black_Life/STM32Cube/Repository/STM32Cube_FW_F4_V1.26.2/Middlewares/Third_Party/LwIP/src/core\mem.c ****           mem->used = 1;
 1462              		.loc 1 910 21 is_stmt 0 discriminator 3 view .LVU489
 1463 011e 2680     		strh	r6, [r4]	@ movhi
 911:c:/Users/Black_Life/STM32Cube/Repository/STM32Cube_FW_F4_V1.26.2/Middlewares/Third_Party/LwIP/src/core\mem.c **** 
 1464              		.loc 1 911 11 is_stmt 1 discriminator 3 view .LVU490
 911:c:/Users/Black_Life/STM32Cube/Repository/STM32Cube_FW_F4_V1.26.2/Middlewares/Third_Party/LwIP/src/core\mem.c **** 
 1465              		.loc 1 911 21 is_stmt 0 discriminator 3 view .LVU491
 1466 0120 0123     		movs	r3, #1
 1467 0122 2371     		strb	r3, [r4, #4]
 913:c:/Users/Black_Life/STM32Cube/Repository/STM32Cube_FW_F4_V1.26.2/Middlewares/Third_Party/LwIP/src/core\mem.c ****             ptr_to_mem(mem2->next)->prev = ptr2;
 1468              		.loc 1 913 11 is_stmt 1 discriminator 3 view .LVU492
 913:c:/Users/Black_Life/STM32Cube/Repository/STM32Cube_FW_F4_V1.26.2/Middlewares/Third_Party/LwIP/src/core\mem.c ****             ptr_to_mem(mem2->next)->prev = ptr2;
 1469              		.loc 1 913 19 is_stmt 0 discriminator 3 view .LVU493
 1470 0124 0088     		ldrh	r0, [r0]
 1471              	.LVL133:
 913:c:/Users/Black_Life/STM32Cube/Repository/STM32Cube_FW_F4_V1.26.2/Middlewares/Third_Party/LwIP/src/core\mem.c ****             ptr_to_mem(mem2->next)->prev = ptr2;
 1472              		.loc 1 913 14 discriminator 3 view .LVU494
 1473 0126 B0F5C86F 		cmp	r0, #1600
 1474 012a 8FD0     		beq	.L86
 914:c:/Users/Black_Life/STM32Cube/Repository/STM32Cube_FW_F4_V1.26.2/Middlewares/Third_Party/LwIP/src/core\mem.c ****           }
 1475              		.loc 1 914 13 is_stmt 1 view .LVU495
 1476 012c FFF7FEFF 		bl	ptr_to_mem
 1477              	.LVL134:
 914:c:/Users/Black_Life/STM32Cube/Repository/STM32Cube_FW_F4_V1.26.2/Middlewares/Third_Party/LwIP/src/core\mem.c ****           }
 1478              		.loc 1 914 42 is_stmt 0 view .LVU496
 1479 0130 4680     		strh	r6, [r0, #2]	@ movhi
 1480 0132 8BE7     		b	.L86
 1481              	.LVL135:
 1482              	.L106:
 965:c:/Users/Black_Life/STM32Cube/Repository/STM32Cube_FW_F4_V1.26.2/Middlewares/Third_Party/LwIP/src/core\mem.c ****       }
 966:c:/Users/Black_Life/STM32Cube/Repository/STM32Cube_FW_F4_V1.26.2/Middlewares/Third_Party/LwIP/src/core\mem.c ****     }
 967:c:/Users/Black_Life/STM32Cube/Repository/STM32Cube_FW_F4_V1.26.2/Middlewares/Third_Party/LwIP/src/core\mem.c **** #if LWIP_ALLOW_MEM_FREE_FROM_OTHER_CONTEXT
 968:c:/Users/Black_Life/STM32Cube/Repository/STM32Cube_FW_F4_V1.26.2/Middlewares/Third_Party/LwIP/src/core\mem.c ****     /* if we got interrupted by a mem_free, try again */
 969:c:/Users/Black_Life/STM32Cube/Repository/STM32Cube_FW_F4_V1.26.2/Middlewares/Third_Party/LwIP/src/core\mem.c ****   } while (local_mem_free_count != 0);
 970:c:/Users/Black_Life/STM32Cube/Repository/STM32Cube_FW_F4_V1.26.2/Middlewares/Third_Party/LwIP/src/core\mem.c **** #endif /* LWIP_ALLOW_MEM_FREE_FROM_OTHER_CONTEXT */
 971:c:/Users/Black_Life/STM32Cube/Repository/STM32Cube_FW_F4_V1.26.2/Middlewares/Third_Party/LwIP/src/core\mem.c ****   MEM_STATS_INC(err);
 972:c:/Users/Black_Life/STM32Cube/Repository/STM32Cube_FW_F4_V1.26.2/Middlewares/Third_Party/LwIP/src/core\mem.c ****   LWIP_MEM_ALLOC_UNPROTECT();
 973:c:/Users/Black_Life/STM32Cube/Repository/STM32Cube_FW_F4_V1.26.2/Middlewares/Third_Party/LwIP/src/core\mem.c ****   sys_mutex_unlock(&mem_mutex);
 974:c:/Users/Black_Life/STM32Cube/Repository/STM32Cube_FW_F4_V1.26.2/Middlewares/Third_Party/LwIP/src/core\mem.c ****   LWIP_DEBUGF(MEM_DEBUG | LWIP_DBG_LEVEL_SERIOUS, ("mem_malloc: could not allocate %"S16_F" bytes\n
 975:c:/Users/Black_Life/STM32Cube/Repository/STM32Cube_FW_F4_V1.26.2/Middlewares/Third_Party/LwIP/src/core\mem.c ****   return NULL;
 1483              		.loc 1 975 10 view .LVU497
 1484 0134 0020     		movs	r0, #0
 1485              	.LVL136:
 1486              	.L79:
 976:c:/Users/Black_Life/STM32Cube/Repository/STM32Cube_FW_F4_V1.26.2/Middlewares/Third_Party/LwIP/src/core\mem.c **** }
 1487              		.loc 1 976 1 view .LVU498
 1488 0136 BDE8F081 		pop	{r4, r5, r6, r7, r8, pc}
 1489              	.LVL137:
 1490              	.L95:
 1491              	.LCFI7:
 1492              		.cfi_def_cfa_offset 0
 1493              		.cfi_restore 4
ARM GAS  C:\Users\BLACK_~1\AppData\Local\Temp\ccnOKFK8.s 			page 50


 1494              		.cfi_restore 5
 1495              		.cfi_restore 6
 1496              		.cfi_restore 7
 1497              		.cfi_restore 8
 1498              		.cfi_restore 14
 841:c:/Users/Black_Life/STM32Cube/Repository/STM32Cube_FW_F4_V1.26.2/Middlewares/Third_Party/LwIP/src/core\mem.c ****   }
 1499              		.loc 1 841 12 view .LVU499
 1500 013a 0020     		movs	r0, #0
 1501              	.LVL138:
 1502              		.loc 1 976 1 view .LVU500
 1503 013c 7047     		bx	lr
 1504              	.LVL139:
 1505              	.L98:
 1506              	.LCFI8:
 1507              		.cfi_def_cfa_offset 24
 1508              		.cfi_offset 4, -24
 1509              		.cfi_offset 5, -20
 1510              		.cfi_offset 6, -16
 1511              		.cfi_offset 7, -12
 1512              		.cfi_offset 8, -8
 1513              		.cfi_offset 14, -4
 855:c:/Users/Black_Life/STM32Cube/Repository/STM32Cube_FW_F4_V1.26.2/Middlewares/Third_Party/LwIP/src/core\mem.c ****   }
 1514              		.loc 1 855 12 view .LVU501
 1515 013e 0020     		movs	r0, #0
 1516              	.LVL140:
 855:c:/Users/Black_Life/STM32Cube/Repository/STM32Cube_FW_F4_V1.26.2/Middlewares/Third_Party/LwIP/src/core\mem.c ****   }
 1517              		.loc 1 855 12 view .LVU502
 1518 0140 F9E7     		b	.L79
 1519              	.L109:
 1520 0142 00BF     		.align	2
 1521              	.L108:
 1522 0144 00000000 		.word	.LANCHOR2
 1523 0148 00000000 		.word	.LC0
 1524 014c 38000000 		.word	.LC12
 1525 0150 88000000 		.word	.LC2
 1526 0154 00000000 		.word	.LANCHOR1
 1527 0158 00000000 		.word	.LC13
 1528 015c 1C000000 		.word	.LC14
 1529 0160 4C000000 		.word	.LC15
 1530 0164 7C000000 		.word	.LC16
 1531              		.cfi_endproc
 1532              	.LFE163:
 1534              		.section	.text.mem_calloc,"ax",%progbits
 1535              		.align	1
 1536              		.global	mem_calloc
 1537              		.syntax unified
 1538              		.thumb
 1539              		.thumb_func
 1541              	mem_calloc:
 1542              	.LVL141:
 1543              	.LFB164:
 977:c:/Users/Black_Life/STM32Cube/Repository/STM32Cube_FW_F4_V1.26.2/Middlewares/Third_Party/LwIP/src/core\mem.c **** 
 978:c:/Users/Black_Life/STM32Cube/Repository/STM32Cube_FW_F4_V1.26.2/Middlewares/Third_Party/LwIP/src/core\mem.c **** #endif /* MEM_USE_POOLS */
 979:c:/Users/Black_Life/STM32Cube/Repository/STM32Cube_FW_F4_V1.26.2/Middlewares/Third_Party/LwIP/src/core\mem.c **** 
 980:c:/Users/Black_Life/STM32Cube/Repository/STM32Cube_FW_F4_V1.26.2/Middlewares/Third_Party/LwIP/src/core\mem.c **** #if MEM_LIBC_MALLOC && (!LWIP_STATS || !MEM_STATS)
 981:c:/Users/Black_Life/STM32Cube/Repository/STM32Cube_FW_F4_V1.26.2/Middlewares/Third_Party/LwIP/src/core\mem.c **** void *
 982:c:/Users/Black_Life/STM32Cube/Repository/STM32Cube_FW_F4_V1.26.2/Middlewares/Third_Party/LwIP/src/core\mem.c **** mem_calloc(mem_size_t count, mem_size_t size)
ARM GAS  C:\Users\BLACK_~1\AppData\Local\Temp\ccnOKFK8.s 			page 51


 983:c:/Users/Black_Life/STM32Cube/Repository/STM32Cube_FW_F4_V1.26.2/Middlewares/Third_Party/LwIP/src/core\mem.c **** {
 984:c:/Users/Black_Life/STM32Cube/Repository/STM32Cube_FW_F4_V1.26.2/Middlewares/Third_Party/LwIP/src/core\mem.c ****   return mem_clib_calloc(count, size);
 985:c:/Users/Black_Life/STM32Cube/Repository/STM32Cube_FW_F4_V1.26.2/Middlewares/Third_Party/LwIP/src/core\mem.c **** }
 986:c:/Users/Black_Life/STM32Cube/Repository/STM32Cube_FW_F4_V1.26.2/Middlewares/Third_Party/LwIP/src/core\mem.c **** 
 987:c:/Users/Black_Life/STM32Cube/Repository/STM32Cube_FW_F4_V1.26.2/Middlewares/Third_Party/LwIP/src/core\mem.c **** #else /* MEM_LIBC_MALLOC && (!LWIP_STATS || !MEM_STATS) */
 988:c:/Users/Black_Life/STM32Cube/Repository/STM32Cube_FW_F4_V1.26.2/Middlewares/Third_Party/LwIP/src/core\mem.c **** /**
 989:c:/Users/Black_Life/STM32Cube/Repository/STM32Cube_FW_F4_V1.26.2/Middlewares/Third_Party/LwIP/src/core\mem.c ****  * Contiguously allocates enough space for count objects that are size bytes
 990:c:/Users/Black_Life/STM32Cube/Repository/STM32Cube_FW_F4_V1.26.2/Middlewares/Third_Party/LwIP/src/core\mem.c ****  * of memory each and returns a pointer to the allocated memory.
 991:c:/Users/Black_Life/STM32Cube/Repository/STM32Cube_FW_F4_V1.26.2/Middlewares/Third_Party/LwIP/src/core\mem.c ****  *
 992:c:/Users/Black_Life/STM32Cube/Repository/STM32Cube_FW_F4_V1.26.2/Middlewares/Third_Party/LwIP/src/core\mem.c ****  * The allocated memory is filled with bytes of value zero.
 993:c:/Users/Black_Life/STM32Cube/Repository/STM32Cube_FW_F4_V1.26.2/Middlewares/Third_Party/LwIP/src/core\mem.c ****  *
 994:c:/Users/Black_Life/STM32Cube/Repository/STM32Cube_FW_F4_V1.26.2/Middlewares/Third_Party/LwIP/src/core\mem.c ****  * @param count number of objects to allocate
 995:c:/Users/Black_Life/STM32Cube/Repository/STM32Cube_FW_F4_V1.26.2/Middlewares/Third_Party/LwIP/src/core\mem.c ****  * @param size size of the objects to allocate
 996:c:/Users/Black_Life/STM32Cube/Repository/STM32Cube_FW_F4_V1.26.2/Middlewares/Third_Party/LwIP/src/core\mem.c ****  * @return pointer to allocated memory / NULL pointer if there is an error
 997:c:/Users/Black_Life/STM32Cube/Repository/STM32Cube_FW_F4_V1.26.2/Middlewares/Third_Party/LwIP/src/core\mem.c ****  */
 998:c:/Users/Black_Life/STM32Cube/Repository/STM32Cube_FW_F4_V1.26.2/Middlewares/Third_Party/LwIP/src/core\mem.c **** void *
 999:c:/Users/Black_Life/STM32Cube/Repository/STM32Cube_FW_F4_V1.26.2/Middlewares/Third_Party/LwIP/src/core\mem.c **** mem_calloc(mem_size_t count, mem_size_t size)
1000:c:/Users/Black_Life/STM32Cube/Repository/STM32Cube_FW_F4_V1.26.2/Middlewares/Third_Party/LwIP/src/core\mem.c **** {
 1544              		.loc 1 1000 1 is_stmt 1 view -0
 1545              		.cfi_startproc
 1546              		@ args = 0, pretend = 0, frame = 0
 1547              		@ frame_needed = 0, uses_anonymous_args = 0
 1548              		.loc 1 1000 1 is_stmt 0 view .LVU504
 1549 0000 38B5     		push	{r3, r4, r5, lr}
 1550              	.LCFI9:
 1551              		.cfi_def_cfa_offset 16
 1552              		.cfi_offset 3, -16
 1553              		.cfi_offset 4, -12
 1554              		.cfi_offset 5, -8
 1555              		.cfi_offset 14, -4
1001:c:/Users/Black_Life/STM32Cube/Repository/STM32Cube_FW_F4_V1.26.2/Middlewares/Third_Party/LwIP/src/core\mem.c ****   void *p;
 1556              		.loc 1 1001 3 is_stmt 1 view .LVU505
1002:c:/Users/Black_Life/STM32Cube/Repository/STM32Cube_FW_F4_V1.26.2/Middlewares/Third_Party/LwIP/src/core\mem.c ****   size_t alloc_size = (size_t)count * (size_t)size;
 1557              		.loc 1 1002 3 view .LVU506
 1558              		.loc 1 1002 10 is_stmt 0 view .LVU507
 1559 0002 01FB00F4 		mul	r4, r1, r0
 1560              	.LVL142:
1003:c:/Users/Black_Life/STM32Cube/Repository/STM32Cube_FW_F4_V1.26.2/Middlewares/Third_Party/LwIP/src/core\mem.c **** 
1004:c:/Users/Black_Life/STM32Cube/Repository/STM32Cube_FW_F4_V1.26.2/Middlewares/Third_Party/LwIP/src/core\mem.c ****   if ((size_t)(mem_size_t)alloc_size != alloc_size) {
 1561              		.loc 1 1004 3 is_stmt 1 view .LVU508
 1562              		.loc 1 1004 15 is_stmt 0 view .LVU509
 1563 0006 A0B2     		uxth	r0, r4
 1564              	.LVL143:
 1565              		.loc 1 1004 6 view .LVU510
 1566 0008 8442     		cmp	r4, r0
 1567 000a 08D1     		bne	.L112
1005:c:/Users/Black_Life/STM32Cube/Repository/STM32Cube_FW_F4_V1.26.2/Middlewares/Third_Party/LwIP/src/core\mem.c ****     LWIP_DEBUGF(MEM_DEBUG | LWIP_DBG_LEVEL_SERIOUS, ("mem_calloc: could not allocate %"SZT_F" bytes
1006:c:/Users/Black_Life/STM32Cube/Repository/STM32Cube_FW_F4_V1.26.2/Middlewares/Third_Party/LwIP/src/core\mem.c ****     return NULL;
1007:c:/Users/Black_Life/STM32Cube/Repository/STM32Cube_FW_F4_V1.26.2/Middlewares/Third_Party/LwIP/src/core\mem.c ****   }
1008:c:/Users/Black_Life/STM32Cube/Repository/STM32Cube_FW_F4_V1.26.2/Middlewares/Third_Party/LwIP/src/core\mem.c **** 
1009:c:/Users/Black_Life/STM32Cube/Repository/STM32Cube_FW_F4_V1.26.2/Middlewares/Third_Party/LwIP/src/core\mem.c ****   /* allocate 'count' objects of size 'size' */
1010:c:/Users/Black_Life/STM32Cube/Repository/STM32Cube_FW_F4_V1.26.2/Middlewares/Third_Party/LwIP/src/core\mem.c ****   p = mem_malloc((mem_size_t)alloc_size);
 1568              		.loc 1 1010 3 is_stmt 1 view .LVU511
 1569              		.loc 1 1010 7 is_stmt 0 view .LVU512
 1570 000c FFF7FEFF 		bl	mem_malloc
 1571              	.LVL144:
1011:c:/Users/Black_Life/STM32Cube/Repository/STM32Cube_FW_F4_V1.26.2/Middlewares/Third_Party/LwIP/src/core\mem.c ****   if (p) {
ARM GAS  C:\Users\BLACK_~1\AppData\Local\Temp\ccnOKFK8.s 			page 52


 1572              		.loc 1 1011 3 is_stmt 1 view .LVU513
 1573              		.loc 1 1011 6 is_stmt 0 view .LVU514
 1574 0010 0546     		mov	r5, r0
 1575 0012 28B1     		cbz	r0, .L110
1012:c:/Users/Black_Life/STM32Cube/Repository/STM32Cube_FW_F4_V1.26.2/Middlewares/Third_Party/LwIP/src/core\mem.c ****     /* zero the memory */
1013:c:/Users/Black_Life/STM32Cube/Repository/STM32Cube_FW_F4_V1.26.2/Middlewares/Third_Party/LwIP/src/core\mem.c ****     memset(p, 0, alloc_size);
 1576              		.loc 1 1013 5 is_stmt 1 view .LVU515
 1577 0014 2246     		mov	r2, r4
 1578 0016 0021     		movs	r1, #0
 1579 0018 FFF7FEFF 		bl	memset
 1580              	.LVL145:
 1581              		.loc 1 1013 5 is_stmt 0 view .LVU516
 1582 001c 00E0     		b	.L110
 1583              	.LVL146:
 1584              	.L112:
1006:c:/Users/Black_Life/STM32Cube/Repository/STM32Cube_FW_F4_V1.26.2/Middlewares/Third_Party/LwIP/src/core\mem.c ****   }
 1585              		.loc 1 1006 12 view .LVU517
 1586 001e 0025     		movs	r5, #0
 1587              	.LVL147:
 1588              	.L110:
1014:c:/Users/Black_Life/STM32Cube/Repository/STM32Cube_FW_F4_V1.26.2/Middlewares/Third_Party/LwIP/src/core\mem.c ****   }
1015:c:/Users/Black_Life/STM32Cube/Repository/STM32Cube_FW_F4_V1.26.2/Middlewares/Third_Party/LwIP/src/core\mem.c ****   return p;
1016:c:/Users/Black_Life/STM32Cube/Repository/STM32Cube_FW_F4_V1.26.2/Middlewares/Third_Party/LwIP/src/core\mem.c **** }
 1589              		.loc 1 1016 1 view .LVU518
 1590 0020 2846     		mov	r0, r5
 1591 0022 38BD     		pop	{r3, r4, r5, pc}
 1592              		.loc 1 1016 1 view .LVU519
 1593              		.cfi_endproc
 1594              	.LFE164:
 1596              		.global	ram_heap
 1597              		.section	.bss.lfree,"aw",%nobits
 1598              		.align	2
 1599              		.set	.LANCHOR2,. + 0
 1602              	lfree:
 1603 0000 00000000 		.space	4
 1604              		.section	.bss.ram,"aw",%nobits
 1605              		.align	2
 1606              		.set	.LANCHOR0,. + 0
 1609              	ram:
 1610 0000 00000000 		.space	4
 1611              		.section	.bss.ram_end,"aw",%nobits
 1612              		.align	2
 1613              		.set	.LANCHOR1,. + 0
 1616              	ram_end:
 1617 0000 00000000 		.space	4
 1618              		.section	.bss.ram_heap,"aw",%nobits
 1619              		.align	2
 1620              		.set	.LANCHOR3,. + 0
 1623              	ram_heap:
 1624 0000 00000000 		.space	1619
 1624      00000000 
 1624      00000000 
 1624      00000000 
 1624      00000000 
 1625              		.text
 1626              	.Letext0:
 1627              		.file 2 "e:\\gnu arm embedded toolchain\\10 2021.10\\arm-none-eabi\\include\\machine\\_default_typ
ARM GAS  C:\Users\BLACK_~1\AppData\Local\Temp\ccnOKFK8.s 			page 53


 1628              		.file 3 "e:\\gnu arm embedded toolchain\\10 2021.10\\arm-none-eabi\\include\\sys\\_stdint.h"
 1629              		.file 4 "e:\\gnu arm embedded toolchain\\10 2021.10\\lib\\gcc\\arm-none-eabi\\10.3.1\\include\\std
 1630              		.file 5 "c:/Users/Black_Life/STM32Cube/Repository/STM32Cube_FW_F4_V1.26.2/Middlewares/Third_Party/
 1631              		.file 6 "c:/Users/Black_Life/STM32Cube/Repository/STM32Cube_FW_F4_V1.26.2/Middlewares/Third_Party/
 1632              		.file 7 "c:/Users/Black_Life/STM32Cube/Repository/STM32Cube_FW_F4_V1.26.2/Middlewares/Third_Party/
 1633              		.file 8 "c:/Users/Black_Life/STM32Cube/Repository/STM32Cube_FW_F4_V1.26.2/Middlewares/Third_Party/
 1634              		.file 9 "<built-in>"
 1635              		.file 10 "e:\\gnu arm embedded toolchain\\10 2021.10\\arm-none-eabi\\include\\stdio.h"
ARM GAS  C:\Users\BLACK_~1\AppData\Local\Temp\ccnOKFK8.s 			page 54


DEFINED SYMBOLS
                            *ABS*:00000000 mem.c
C:\Users\BLACK_~1\AppData\Local\Temp\ccnOKFK8.s:20     .text.ptr_to_mem:00000000 $t
C:\Users\BLACK_~1\AppData\Local\Temp\ccnOKFK8.s:25     .text.ptr_to_mem:00000000 ptr_to_mem
C:\Users\BLACK_~1\AppData\Local\Temp\ccnOKFK8.s:46     .text.ptr_to_mem:00000008 $d
C:\Users\BLACK_~1\AppData\Local\Temp\ccnOKFK8.s:51     .text.mem_to_ptr:00000000 $t
C:\Users\BLACK_~1\AppData\Local\Temp\ccnOKFK8.s:56     .text.mem_to_ptr:00000000 mem_to_ptr
C:\Users\BLACK_~1\AppData\Local\Temp\ccnOKFK8.s:76     .text.mem_to_ptr:0000000c $d
C:\Users\BLACK_~1\AppData\Local\Temp\ccnOKFK8.s:81     .text.mem_link_valid:00000000 $t
C:\Users\BLACK_~1\AppData\Local\Temp\ccnOKFK8.s:86     .text.mem_link_valid:00000000 mem_link_valid
C:\Users\BLACK_~1\AppData\Local\Temp\ccnOKFK8.s:202    .text.mem_link_valid:00000058 $d
C:\Users\BLACK_~1\AppData\Local\Temp\ccnOKFK8.s:207    .rodata.plug_holes.str1.4:00000000 $d
C:\Users\BLACK_~1\AppData\Local\Temp\ccnOKFK8.s:228    .text.plug_holes:00000000 $t
C:\Users\BLACK_~1\AppData\Local\Temp\ccnOKFK8.s:233    .text.plug_holes:00000000 plug_holes
C:\Users\BLACK_~1\AppData\Local\Temp\ccnOKFK8.s:445    .text.plug_holes:000000dc $d
C:\Users\BLACK_~1\AppData\Local\Temp\ccnOKFK8.s:458    .text.mem_init:00000000 $t
C:\Users\BLACK_~1\AppData\Local\Temp\ccnOKFK8.s:464    .text.mem_init:00000000 mem_init
C:\Users\BLACK_~1\AppData\Local\Temp\ccnOKFK8.s:536    .text.mem_init:00000030 $d
C:\Users\BLACK_~1\AppData\Local\Temp\ccnOKFK8.s:544    .rodata.mem_free.str1.4:00000000 $d
C:\Users\BLACK_~1\AppData\Local\Temp\ccnOKFK8.s:557    .text.mem_free:00000000 $t
C:\Users\BLACK_~1\AppData\Local\Temp\ccnOKFK8.s:563    .text.mem_free:00000000 mem_free
C:\Users\BLACK_~1\AppData\Local\Temp\ccnOKFK8.s:761    .text.mem_free:00000090 $d
C:\Users\BLACK_~1\AppData\Local\Temp\ccnOKFK8.s:774    .rodata.mem_trim.str1.4:00000000 $d
C:\Users\BLACK_~1\AppData\Local\Temp\ccnOKFK8.s:784    .text.mem_trim:00000000 $t
C:\Users\BLACK_~1\AppData\Local\Temp\ccnOKFK8.s:790    .text.mem_trim:00000000 mem_trim
C:\Users\BLACK_~1\AppData\Local\Temp\ccnOKFK8.s:1137   .text.mem_trim:0000015c $d
C:\Users\BLACK_~1\AppData\Local\Temp\ccnOKFK8.s:1149   .rodata.mem_malloc.str1.4:00000000 $d
C:\Users\BLACK_~1\AppData\Local\Temp\ccnOKFK8.s:1162   .text.mem_malloc:00000000 $t
C:\Users\BLACK_~1\AppData\Local\Temp\ccnOKFK8.s:1168   .text.mem_malloc:00000000 mem_malloc
C:\Users\BLACK_~1\AppData\Local\Temp\ccnOKFK8.s:1522   .text.mem_malloc:00000144 $d
C:\Users\BLACK_~1\AppData\Local\Temp\ccnOKFK8.s:1535   .text.mem_calloc:00000000 $t
C:\Users\BLACK_~1\AppData\Local\Temp\ccnOKFK8.s:1541   .text.mem_calloc:00000000 mem_calloc
C:\Users\BLACK_~1\AppData\Local\Temp\ccnOKFK8.s:1623   .bss.ram_heap:00000000 ram_heap
C:\Users\BLACK_~1\AppData\Local\Temp\ccnOKFK8.s:1598   .bss.lfree:00000000 $d
C:\Users\BLACK_~1\AppData\Local\Temp\ccnOKFK8.s:1602   .bss.lfree:00000000 lfree
C:\Users\BLACK_~1\AppData\Local\Temp\ccnOKFK8.s:1605   .bss.ram:00000000 $d
C:\Users\BLACK_~1\AppData\Local\Temp\ccnOKFK8.s:1609   .bss.ram:00000000 ram
C:\Users\BLACK_~1\AppData\Local\Temp\ccnOKFK8.s:1612   .bss.ram_end:00000000 $d
C:\Users\BLACK_~1\AppData\Local\Temp\ccnOKFK8.s:1616   .bss.ram_end:00000000 ram_end
C:\Users\BLACK_~1\AppData\Local\Temp\ccnOKFK8.s:1619   .bss.ram_heap:00000000 $d

UNDEFINED SYMBOLS
printf
memset
