ARM GAS  /var/folders/k2/cd9bl_j17z77g23y6ffqb_400000gn/T//ccOYpq1j.s 			page 1


   1              		.cpu cortex-m4
   2              		.eabi_attribute 27, 1
   3              		.eabi_attribute 28, 1
   4              		.eabi_attribute 20, 1
   5              		.eabi_attribute 21, 1
   6              		.eabi_attribute 23, 3
   7              		.eabi_attribute 24, 1
   8              		.eabi_attribute 25, 1
   9              		.eabi_attribute 26, 1
  10              		.eabi_attribute 30, 1
  11              		.eabi_attribute 34, 1
  12              		.eabi_attribute 18, 4
  13              		.file	"slipif.c"
  14              		.text
  15              	.Ltext0:
  16              		.cfi_sections	.debug_frame
  17              		.section	.rodata.slipif_output.str1.4,"aMS",%progbits,1
  18              		.align	2
  19              	.LC0:
  20 0000 2F557365 		.ascii	"/Users/nhantt/STM32Cube/Repository/STM32Cube_FW_F4_"
  20      72732F6E 
  20      68616E74 
  20      742F5354 
  20      4D333243 
  21 0033 56312E32 		.ascii	"V1.26.0/Middlewares/Third_Party/LwIP/src/netif/slip"
  21      362E302F 
  21      4D696464 
  21      6C657761 
  21      7265732F 
  22 0066 69662E63 		.ascii	"if.c\000"
  22      00
  23 006b 00       		.align	2
  24              	.LC1:
  25 006c 6E657469 		.ascii	"netif != NULL\000"
  25      6620213D 
  25      204E554C 
  25      4C00
  26 007a 0000     		.align	2
  27              	.LC2:
  28 007c 41737365 		.ascii	"Assertion \"%s\" failed at line %d in %s\012\000"
  28      7274696F 
  28      6E202225 
  28      73222066 
  28      61696C65 
  29              		.align	2
  30              	.LC3:
  31 00a4 6E657469 		.ascii	"netif->state != NULL\000"
  31      662D3E73 
  31      74617465 
  31      20213D20 
  31      4E554C4C 
  32 00b9 000000   		.align	2
  33              	.LC4:
  34 00bc 7020213D 		.ascii	"p != NULL\000"
  34      204E554C 
  34      4C00
  35              		.section	.text.slipif_output,"ax",%progbits
ARM GAS  /var/folders/k2/cd9bl_j17z77g23y6ffqb_400000gn/T//ccOYpq1j.s 			page 2


  36              		.align	1
  37              		.arch armv7e-m
  38              		.syntax unified
  39              		.thumb
  40              		.thumb_func
  41              		.fpu fpv4-sp-d16
  43              	slipif_output:
  44              	.LVL0:
  45              	.LFB155:
  46              		.file 1 "/Users/nhantt/STM32Cube/Repository/STM32Cube_FW_F4_V1.26.0/Middlewares/Third_Party/LwIP/s
   1:/Users/nhantt/STM32Cube/Repository/STM32Cube_FW_F4_V1.26.0/Middlewares/Third_Party/LwIP/src/netif/slipif.c **** /**
   2:/Users/nhantt/STM32Cube/Repository/STM32Cube_FW_F4_V1.26.0/Middlewares/Third_Party/LwIP/src/netif/slipif.c ****  * @file
   3:/Users/nhantt/STM32Cube/Repository/STM32Cube_FW_F4_V1.26.0/Middlewares/Third_Party/LwIP/src/netif/slipif.c ****  * SLIP Interface
   4:/Users/nhantt/STM32Cube/Repository/STM32Cube_FW_F4_V1.26.0/Middlewares/Third_Party/LwIP/src/netif/slipif.c ****  *
   5:/Users/nhantt/STM32Cube/Repository/STM32Cube_FW_F4_V1.26.0/Middlewares/Third_Party/LwIP/src/netif/slipif.c ****  */
   6:/Users/nhantt/STM32Cube/Repository/STM32Cube_FW_F4_V1.26.0/Middlewares/Third_Party/LwIP/src/netif/slipif.c **** 
   7:/Users/nhantt/STM32Cube/Repository/STM32Cube_FW_F4_V1.26.0/Middlewares/Third_Party/LwIP/src/netif/slipif.c **** /*
   8:/Users/nhantt/STM32Cube/Repository/STM32Cube_FW_F4_V1.26.0/Middlewares/Third_Party/LwIP/src/netif/slipif.c ****  * Copyright (c) 2001-2004 Swedish Institute of Computer Science.
   9:/Users/nhantt/STM32Cube/Repository/STM32Cube_FW_F4_V1.26.0/Middlewares/Third_Party/LwIP/src/netif/slipif.c ****  * All rights reserved.
  10:/Users/nhantt/STM32Cube/Repository/STM32Cube_FW_F4_V1.26.0/Middlewares/Third_Party/LwIP/src/netif/slipif.c ****  *
  11:/Users/nhantt/STM32Cube/Repository/STM32Cube_FW_F4_V1.26.0/Middlewares/Third_Party/LwIP/src/netif/slipif.c ****  * Redistribution and use in source and binary forms, with or without
  12:/Users/nhantt/STM32Cube/Repository/STM32Cube_FW_F4_V1.26.0/Middlewares/Third_Party/LwIP/src/netif/slipif.c ****  * modification, are permitted provided that the following conditions
  13:/Users/nhantt/STM32Cube/Repository/STM32Cube_FW_F4_V1.26.0/Middlewares/Third_Party/LwIP/src/netif/slipif.c ****  * are met:
  14:/Users/nhantt/STM32Cube/Repository/STM32Cube_FW_F4_V1.26.0/Middlewares/Third_Party/LwIP/src/netif/slipif.c ****  * 1. Redistributions of source code must retain the above copyright
  15:/Users/nhantt/STM32Cube/Repository/STM32Cube_FW_F4_V1.26.0/Middlewares/Third_Party/LwIP/src/netif/slipif.c ****  *    notice, this list of conditions and the following disclaimer.
  16:/Users/nhantt/STM32Cube/Repository/STM32Cube_FW_F4_V1.26.0/Middlewares/Third_Party/LwIP/src/netif/slipif.c ****  * 2. Redistributions in binary form must reproduce the above copyright
  17:/Users/nhantt/STM32Cube/Repository/STM32Cube_FW_F4_V1.26.0/Middlewares/Third_Party/LwIP/src/netif/slipif.c ****  *    notice, this list of conditions and the following disclaimer in the
  18:/Users/nhantt/STM32Cube/Repository/STM32Cube_FW_F4_V1.26.0/Middlewares/Third_Party/LwIP/src/netif/slipif.c ****  *    documentation and/or other materials provided with the distribution.
  19:/Users/nhantt/STM32Cube/Repository/STM32Cube_FW_F4_V1.26.0/Middlewares/Third_Party/LwIP/src/netif/slipif.c ****  * 3. Neither the name of the Institute nor the names of its contributors
  20:/Users/nhantt/STM32Cube/Repository/STM32Cube_FW_F4_V1.26.0/Middlewares/Third_Party/LwIP/src/netif/slipif.c ****  *    may be used to endorse or promote products derived from this software
  21:/Users/nhantt/STM32Cube/Repository/STM32Cube_FW_F4_V1.26.0/Middlewares/Third_Party/LwIP/src/netif/slipif.c ****  *    without specific prior written permission.
  22:/Users/nhantt/STM32Cube/Repository/STM32Cube_FW_F4_V1.26.0/Middlewares/Third_Party/LwIP/src/netif/slipif.c ****  *
  23:/Users/nhantt/STM32Cube/Repository/STM32Cube_FW_F4_V1.26.0/Middlewares/Third_Party/LwIP/src/netif/slipif.c ****  * THIS SOFTWARE IS PROVIDED BY THE INSTITUTE AND CONTRIBUTORS ``AS IS'' AND
  24:/Users/nhantt/STM32Cube/Repository/STM32Cube_FW_F4_V1.26.0/Middlewares/Third_Party/LwIP/src/netif/slipif.c ****  * ANY EXPRESS OR IMPLIED WARRANTIES, INCLUDING, BUT NOT LIMITED TO, THE
  25:/Users/nhantt/STM32Cube/Repository/STM32Cube_FW_F4_V1.26.0/Middlewares/Third_Party/LwIP/src/netif/slipif.c ****  * IMPLIED WARRANTIES OF MERCHANTABILITY AND FITNESS FOR A PARTICULAR PURPOSE
  26:/Users/nhantt/STM32Cube/Repository/STM32Cube_FW_F4_V1.26.0/Middlewares/Third_Party/LwIP/src/netif/slipif.c ****  * ARE DISCLAIMED.  IN NO EVENT SHALL THE INSTITUTE OR CONTRIBUTORS BE LIABLE
  27:/Users/nhantt/STM32Cube/Repository/STM32Cube_FW_F4_V1.26.0/Middlewares/Third_Party/LwIP/src/netif/slipif.c ****  * FOR ANY DIRECT, INDIRECT, INCIDENTAL, SPECIAL, EXEMPLARY, OR CONSEQUENTIAL
  28:/Users/nhantt/STM32Cube/Repository/STM32Cube_FW_F4_V1.26.0/Middlewares/Third_Party/LwIP/src/netif/slipif.c ****  * DAMAGES (INCLUDING, BUT NOT LIMITED TO, PROCUREMENT OF SUBSTITUTE GOODS
  29:/Users/nhantt/STM32Cube/Repository/STM32Cube_FW_F4_V1.26.0/Middlewares/Third_Party/LwIP/src/netif/slipif.c ****  * OR SERVICES; LOSS OF USE, DATA, OR PROFITS; OR BUSINESS INTERRUPTION)
  30:/Users/nhantt/STM32Cube/Repository/STM32Cube_FW_F4_V1.26.0/Middlewares/Third_Party/LwIP/src/netif/slipif.c ****  * HOWEVER CAUSED AND ON ANY THEORY OF LIABILITY, WHETHER IN CONTRACT, STRICT
  31:/Users/nhantt/STM32Cube/Repository/STM32Cube_FW_F4_V1.26.0/Middlewares/Third_Party/LwIP/src/netif/slipif.c ****  * LIABILITY, OR TORT (INCLUDING NEGLIGENCE OR OTHERWISE) ARISING IN ANY WAY
  32:/Users/nhantt/STM32Cube/Repository/STM32Cube_FW_F4_V1.26.0/Middlewares/Third_Party/LwIP/src/netif/slipif.c ****  * OUT OF THE USE OF THIS SOFTWARE, EVEN IF ADVISED OF THE POSSIBILITY OF
  33:/Users/nhantt/STM32Cube/Repository/STM32Cube_FW_F4_V1.26.0/Middlewares/Third_Party/LwIP/src/netif/slipif.c ****  * SUCH DAMAGE.
  34:/Users/nhantt/STM32Cube/Repository/STM32Cube_FW_F4_V1.26.0/Middlewares/Third_Party/LwIP/src/netif/slipif.c ****  *
  35:/Users/nhantt/STM32Cube/Repository/STM32Cube_FW_F4_V1.26.0/Middlewares/Third_Party/LwIP/src/netif/slipif.c ****  * This file is built upon the file: src/arch/rtxc/netif/sioslip.c
  36:/Users/nhantt/STM32Cube/Repository/STM32Cube_FW_F4_V1.26.0/Middlewares/Third_Party/LwIP/src/netif/slipif.c ****  *
  37:/Users/nhantt/STM32Cube/Repository/STM32Cube_FW_F4_V1.26.0/Middlewares/Third_Party/LwIP/src/netif/slipif.c ****  * Author: Magnus Ivarsson <magnus.ivarsson(at)volvo.com>
  38:/Users/nhantt/STM32Cube/Repository/STM32Cube_FW_F4_V1.26.0/Middlewares/Third_Party/LwIP/src/netif/slipif.c ****  *         Simon Goldschmidt
  39:/Users/nhantt/STM32Cube/Repository/STM32Cube_FW_F4_V1.26.0/Middlewares/Third_Party/LwIP/src/netif/slipif.c ****  */
  40:/Users/nhantt/STM32Cube/Repository/STM32Cube_FW_F4_V1.26.0/Middlewares/Third_Party/LwIP/src/netif/slipif.c **** 
  41:/Users/nhantt/STM32Cube/Repository/STM32Cube_FW_F4_V1.26.0/Middlewares/Third_Party/LwIP/src/netif/slipif.c **** 
  42:/Users/nhantt/STM32Cube/Repository/STM32Cube_FW_F4_V1.26.0/Middlewares/Third_Party/LwIP/src/netif/slipif.c **** /**
  43:/Users/nhantt/STM32Cube/Repository/STM32Cube_FW_F4_V1.26.0/Middlewares/Third_Party/LwIP/src/netif/slipif.c ****  * @defgroup slipif SLIP
  44:/Users/nhantt/STM32Cube/Repository/STM32Cube_FW_F4_V1.26.0/Middlewares/Third_Party/LwIP/src/netif/slipif.c ****  * @ingroup netifs
  45:/Users/nhantt/STM32Cube/Repository/STM32Cube_FW_F4_V1.26.0/Middlewares/Third_Party/LwIP/src/netif/slipif.c ****  *
  46:/Users/nhantt/STM32Cube/Repository/STM32Cube_FW_F4_V1.26.0/Middlewares/Third_Party/LwIP/src/netif/slipif.c ****  * This is an arch independent SLIP netif. The specific serial hooks must be
  47:/Users/nhantt/STM32Cube/Repository/STM32Cube_FW_F4_V1.26.0/Middlewares/Third_Party/LwIP/src/netif/slipif.c ****  * provided by another file. They are sio_open, sio_read/sio_tryread and sio_send
ARM GAS  /var/folders/k2/cd9bl_j17z77g23y6ffqb_400000gn/T//ccOYpq1j.s 			page 3


  48:/Users/nhantt/STM32Cube/Repository/STM32Cube_FW_F4_V1.26.0/Middlewares/Third_Party/LwIP/src/netif/slipif.c ****  *
  49:/Users/nhantt/STM32Cube/Repository/STM32Cube_FW_F4_V1.26.0/Middlewares/Third_Party/LwIP/src/netif/slipif.c ****  * Usage: This netif can be used in three ways:\n
  50:/Users/nhantt/STM32Cube/Repository/STM32Cube_FW_F4_V1.26.0/Middlewares/Third_Party/LwIP/src/netif/slipif.c ****  *        1) For NO_SYS==0, an RX thread can be used which blocks on sio_read()
  51:/Users/nhantt/STM32Cube/Repository/STM32Cube_FW_F4_V1.26.0/Middlewares/Third_Party/LwIP/src/netif/slipif.c ****  *           until data is received.\n
  52:/Users/nhantt/STM32Cube/Repository/STM32Cube_FW_F4_V1.26.0/Middlewares/Third_Party/LwIP/src/netif/slipif.c ****  *        2) In your main loop, call slipif_poll() to check for new RX bytes,
  53:/Users/nhantt/STM32Cube/Repository/STM32Cube_FW_F4_V1.26.0/Middlewares/Third_Party/LwIP/src/netif/slipif.c ****  *           completed packets are fed into netif->input().\n
  54:/Users/nhantt/STM32Cube/Repository/STM32Cube_FW_F4_V1.26.0/Middlewares/Third_Party/LwIP/src/netif/slipif.c ****  *        3) Call slipif_received_byte[s]() from your serial RX ISR and
  55:/Users/nhantt/STM32Cube/Repository/STM32Cube_FW_F4_V1.26.0/Middlewares/Third_Party/LwIP/src/netif/slipif.c ****  *           slipif_process_rxqueue() from your main loop. ISR level decodes
  56:/Users/nhantt/STM32Cube/Repository/STM32Cube_FW_F4_V1.26.0/Middlewares/Third_Party/LwIP/src/netif/slipif.c ****  *           packets and puts completed packets on a queue which is fed into
  57:/Users/nhantt/STM32Cube/Repository/STM32Cube_FW_F4_V1.26.0/Middlewares/Third_Party/LwIP/src/netif/slipif.c ****  *           the stack from the main loop (needs SYS_LIGHTWEIGHT_PROT for
  58:/Users/nhantt/STM32Cube/Repository/STM32Cube_FW_F4_V1.26.0/Middlewares/Third_Party/LwIP/src/netif/slipif.c ****  *           pbuf_alloc to work on ISR level!).
  59:/Users/nhantt/STM32Cube/Repository/STM32Cube_FW_F4_V1.26.0/Middlewares/Third_Party/LwIP/src/netif/slipif.c ****  *
  60:/Users/nhantt/STM32Cube/Repository/STM32Cube_FW_F4_V1.26.0/Middlewares/Third_Party/LwIP/src/netif/slipif.c ****  */
  61:/Users/nhantt/STM32Cube/Repository/STM32Cube_FW_F4_V1.26.0/Middlewares/Third_Party/LwIP/src/netif/slipif.c **** 
  62:/Users/nhantt/STM32Cube/Repository/STM32Cube_FW_F4_V1.26.0/Middlewares/Third_Party/LwIP/src/netif/slipif.c **** #include "netif/slipif.h"
  63:/Users/nhantt/STM32Cube/Repository/STM32Cube_FW_F4_V1.26.0/Middlewares/Third_Party/LwIP/src/netif/slipif.c **** #include "lwip/opt.h"
  64:/Users/nhantt/STM32Cube/Repository/STM32Cube_FW_F4_V1.26.0/Middlewares/Third_Party/LwIP/src/netif/slipif.c **** 
  65:/Users/nhantt/STM32Cube/Repository/STM32Cube_FW_F4_V1.26.0/Middlewares/Third_Party/LwIP/src/netif/slipif.c **** #include "lwip/def.h"
  66:/Users/nhantt/STM32Cube/Repository/STM32Cube_FW_F4_V1.26.0/Middlewares/Third_Party/LwIP/src/netif/slipif.c **** #include "lwip/pbuf.h"
  67:/Users/nhantt/STM32Cube/Repository/STM32Cube_FW_F4_V1.26.0/Middlewares/Third_Party/LwIP/src/netif/slipif.c **** #include "lwip/stats.h"
  68:/Users/nhantt/STM32Cube/Repository/STM32Cube_FW_F4_V1.26.0/Middlewares/Third_Party/LwIP/src/netif/slipif.c **** #include "lwip/snmp.h"
  69:/Users/nhantt/STM32Cube/Repository/STM32Cube_FW_F4_V1.26.0/Middlewares/Third_Party/LwIP/src/netif/slipif.c **** #include "lwip/sys.h"
  70:/Users/nhantt/STM32Cube/Repository/STM32Cube_FW_F4_V1.26.0/Middlewares/Third_Party/LwIP/src/netif/slipif.c **** #include "lwip/sio.h"
  71:/Users/nhantt/STM32Cube/Repository/STM32Cube_FW_F4_V1.26.0/Middlewares/Third_Party/LwIP/src/netif/slipif.c **** 
  72:/Users/nhantt/STM32Cube/Repository/STM32Cube_FW_F4_V1.26.0/Middlewares/Third_Party/LwIP/src/netif/slipif.c **** #define SLIP_END     0xC0 /* 0300: start and end of every packet */
  73:/Users/nhantt/STM32Cube/Repository/STM32Cube_FW_F4_V1.26.0/Middlewares/Third_Party/LwIP/src/netif/slipif.c **** #define SLIP_ESC     0xDB /* 0333: escape start (one byte escaped data follows) */
  74:/Users/nhantt/STM32Cube/Repository/STM32Cube_FW_F4_V1.26.0/Middlewares/Third_Party/LwIP/src/netif/slipif.c **** #define SLIP_ESC_END 0xDC /* 0334: following escape: original byte is 0xC0 (END) */
  75:/Users/nhantt/STM32Cube/Repository/STM32Cube_FW_F4_V1.26.0/Middlewares/Third_Party/LwIP/src/netif/slipif.c **** #define SLIP_ESC_ESC 0xDD /* 0335: following escape: original byte is 0xDB (ESC) */
  76:/Users/nhantt/STM32Cube/Repository/STM32Cube_FW_F4_V1.26.0/Middlewares/Third_Party/LwIP/src/netif/slipif.c **** 
  77:/Users/nhantt/STM32Cube/Repository/STM32Cube_FW_F4_V1.26.0/Middlewares/Third_Party/LwIP/src/netif/slipif.c **** /** Maximum packet size that is received by this netif */
  78:/Users/nhantt/STM32Cube/Repository/STM32Cube_FW_F4_V1.26.0/Middlewares/Third_Party/LwIP/src/netif/slipif.c **** #ifndef SLIP_MAX_SIZE
  79:/Users/nhantt/STM32Cube/Repository/STM32Cube_FW_F4_V1.26.0/Middlewares/Third_Party/LwIP/src/netif/slipif.c **** #define SLIP_MAX_SIZE 1500
  80:/Users/nhantt/STM32Cube/Repository/STM32Cube_FW_F4_V1.26.0/Middlewares/Third_Party/LwIP/src/netif/slipif.c **** #endif
  81:/Users/nhantt/STM32Cube/Repository/STM32Cube_FW_F4_V1.26.0/Middlewares/Third_Party/LwIP/src/netif/slipif.c **** 
  82:/Users/nhantt/STM32Cube/Repository/STM32Cube_FW_F4_V1.26.0/Middlewares/Third_Party/LwIP/src/netif/slipif.c **** /** Define this to the interface speed for SNMP
  83:/Users/nhantt/STM32Cube/Repository/STM32Cube_FW_F4_V1.26.0/Middlewares/Third_Party/LwIP/src/netif/slipif.c ****  * (sio_fd is the sio_fd_t returned by sio_open).
  84:/Users/nhantt/STM32Cube/Repository/STM32Cube_FW_F4_V1.26.0/Middlewares/Third_Party/LwIP/src/netif/slipif.c ****  * The default value of zero means 'unknown'.
  85:/Users/nhantt/STM32Cube/Repository/STM32Cube_FW_F4_V1.26.0/Middlewares/Third_Party/LwIP/src/netif/slipif.c ****  */
  86:/Users/nhantt/STM32Cube/Repository/STM32Cube_FW_F4_V1.26.0/Middlewares/Third_Party/LwIP/src/netif/slipif.c **** #ifndef SLIP_SIO_SPEED
  87:/Users/nhantt/STM32Cube/Repository/STM32Cube_FW_F4_V1.26.0/Middlewares/Third_Party/LwIP/src/netif/slipif.c **** #define SLIP_SIO_SPEED(sio_fd) 0
  88:/Users/nhantt/STM32Cube/Repository/STM32Cube_FW_F4_V1.26.0/Middlewares/Third_Party/LwIP/src/netif/slipif.c **** #endif
  89:/Users/nhantt/STM32Cube/Repository/STM32Cube_FW_F4_V1.26.0/Middlewares/Third_Party/LwIP/src/netif/slipif.c **** 
  90:/Users/nhantt/STM32Cube/Repository/STM32Cube_FW_F4_V1.26.0/Middlewares/Third_Party/LwIP/src/netif/slipif.c **** enum slipif_recv_state {
  91:/Users/nhantt/STM32Cube/Repository/STM32Cube_FW_F4_V1.26.0/Middlewares/Third_Party/LwIP/src/netif/slipif.c ****   SLIP_RECV_NORMAL,
  92:/Users/nhantt/STM32Cube/Repository/STM32Cube_FW_F4_V1.26.0/Middlewares/Third_Party/LwIP/src/netif/slipif.c ****   SLIP_RECV_ESCAPE
  93:/Users/nhantt/STM32Cube/Repository/STM32Cube_FW_F4_V1.26.0/Middlewares/Third_Party/LwIP/src/netif/slipif.c **** };
  94:/Users/nhantt/STM32Cube/Repository/STM32Cube_FW_F4_V1.26.0/Middlewares/Third_Party/LwIP/src/netif/slipif.c **** 
  95:/Users/nhantt/STM32Cube/Repository/STM32Cube_FW_F4_V1.26.0/Middlewares/Third_Party/LwIP/src/netif/slipif.c **** struct slipif_priv {
  96:/Users/nhantt/STM32Cube/Repository/STM32Cube_FW_F4_V1.26.0/Middlewares/Third_Party/LwIP/src/netif/slipif.c ****   sio_fd_t sd;
  97:/Users/nhantt/STM32Cube/Repository/STM32Cube_FW_F4_V1.26.0/Middlewares/Third_Party/LwIP/src/netif/slipif.c ****   /* q is the whole pbuf chain for a packet, p is the current pbuf in the chain */
  98:/Users/nhantt/STM32Cube/Repository/STM32Cube_FW_F4_V1.26.0/Middlewares/Third_Party/LwIP/src/netif/slipif.c ****   struct pbuf *p, *q;
  99:/Users/nhantt/STM32Cube/Repository/STM32Cube_FW_F4_V1.26.0/Middlewares/Third_Party/LwIP/src/netif/slipif.c ****   u8_t state;
 100:/Users/nhantt/STM32Cube/Repository/STM32Cube_FW_F4_V1.26.0/Middlewares/Third_Party/LwIP/src/netif/slipif.c ****   u16_t i, recved;
 101:/Users/nhantt/STM32Cube/Repository/STM32Cube_FW_F4_V1.26.0/Middlewares/Third_Party/LwIP/src/netif/slipif.c **** #if SLIP_RX_FROM_ISR
 102:/Users/nhantt/STM32Cube/Repository/STM32Cube_FW_F4_V1.26.0/Middlewares/Third_Party/LwIP/src/netif/slipif.c ****   struct pbuf *rxpackets;
 103:/Users/nhantt/STM32Cube/Repository/STM32Cube_FW_F4_V1.26.0/Middlewares/Third_Party/LwIP/src/netif/slipif.c **** #endif
 104:/Users/nhantt/STM32Cube/Repository/STM32Cube_FW_F4_V1.26.0/Middlewares/Third_Party/LwIP/src/netif/slipif.c **** };
ARM GAS  /var/folders/k2/cd9bl_j17z77g23y6ffqb_400000gn/T//ccOYpq1j.s 			page 4


 105:/Users/nhantt/STM32Cube/Repository/STM32Cube_FW_F4_V1.26.0/Middlewares/Third_Party/LwIP/src/netif/slipif.c **** 
 106:/Users/nhantt/STM32Cube/Repository/STM32Cube_FW_F4_V1.26.0/Middlewares/Third_Party/LwIP/src/netif/slipif.c **** /**
 107:/Users/nhantt/STM32Cube/Repository/STM32Cube_FW_F4_V1.26.0/Middlewares/Third_Party/LwIP/src/netif/slipif.c ****  * Send a pbuf doing the necessary SLIP encapsulation
 108:/Users/nhantt/STM32Cube/Repository/STM32Cube_FW_F4_V1.26.0/Middlewares/Third_Party/LwIP/src/netif/slipif.c ****  *
 109:/Users/nhantt/STM32Cube/Repository/STM32Cube_FW_F4_V1.26.0/Middlewares/Third_Party/LwIP/src/netif/slipif.c ****  * Uses the serial layer's sio_send()
 110:/Users/nhantt/STM32Cube/Repository/STM32Cube_FW_F4_V1.26.0/Middlewares/Third_Party/LwIP/src/netif/slipif.c ****  *
 111:/Users/nhantt/STM32Cube/Repository/STM32Cube_FW_F4_V1.26.0/Middlewares/Third_Party/LwIP/src/netif/slipif.c ****  * @param netif the lwip network interface structure for this slipif
 112:/Users/nhantt/STM32Cube/Repository/STM32Cube_FW_F4_V1.26.0/Middlewares/Third_Party/LwIP/src/netif/slipif.c ****  * @param p the pbuf chain packet to send
 113:/Users/nhantt/STM32Cube/Repository/STM32Cube_FW_F4_V1.26.0/Middlewares/Third_Party/LwIP/src/netif/slipif.c ****  * @return always returns ERR_OK since the serial layer does not provide return values
 114:/Users/nhantt/STM32Cube/Repository/STM32Cube_FW_F4_V1.26.0/Middlewares/Third_Party/LwIP/src/netif/slipif.c ****  */
 115:/Users/nhantt/STM32Cube/Repository/STM32Cube_FW_F4_V1.26.0/Middlewares/Third_Party/LwIP/src/netif/slipif.c **** static err_t
 116:/Users/nhantt/STM32Cube/Repository/STM32Cube_FW_F4_V1.26.0/Middlewares/Third_Party/LwIP/src/netif/slipif.c **** slipif_output(struct netif *netif, struct pbuf *p)
 117:/Users/nhantt/STM32Cube/Repository/STM32Cube_FW_F4_V1.26.0/Middlewares/Third_Party/LwIP/src/netif/slipif.c **** {
  47              		.loc 1 117 1 view -0
  48              		.cfi_startproc
  49              		@ args = 0, pretend = 0, frame = 0
  50              		@ frame_needed = 0, uses_anonymous_args = 0
  51              		.loc 1 117 1 is_stmt 0 view .LVU1
  52 0000 70B5     		push	{r4, r5, r6, lr}
  53              	.LCFI0:
  54              		.cfi_def_cfa_offset 16
  55              		.cfi_offset 4, -16
  56              		.cfi_offset 5, -12
  57              		.cfi_offset 6, -8
  58              		.cfi_offset 14, -4
  59 0002 0D46     		mov	r5, r1
 118:/Users/nhantt/STM32Cube/Repository/STM32Cube_FW_F4_V1.26.0/Middlewares/Third_Party/LwIP/src/netif/slipif.c ****   struct slipif_priv *priv;
  60              		.loc 1 118 3 is_stmt 1 view .LVU2
 119:/Users/nhantt/STM32Cube/Repository/STM32Cube_FW_F4_V1.26.0/Middlewares/Third_Party/LwIP/src/netif/slipif.c ****   struct pbuf *q;
  61              		.loc 1 119 3 view .LVU3
 120:/Users/nhantt/STM32Cube/Repository/STM32Cube_FW_F4_V1.26.0/Middlewares/Third_Party/LwIP/src/netif/slipif.c ****   u16_t i;
  62              		.loc 1 120 3 view .LVU4
 121:/Users/nhantt/STM32Cube/Repository/STM32Cube_FW_F4_V1.26.0/Middlewares/Third_Party/LwIP/src/netif/slipif.c ****   u8_t c;
  63              		.loc 1 121 3 view .LVU5
 122:/Users/nhantt/STM32Cube/Repository/STM32Cube_FW_F4_V1.26.0/Middlewares/Third_Party/LwIP/src/netif/slipif.c **** 
 123:/Users/nhantt/STM32Cube/Repository/STM32Cube_FW_F4_V1.26.0/Middlewares/Third_Party/LwIP/src/netif/slipif.c ****   LWIP_ASSERT("netif != NULL", (netif != NULL));
  64              		.loc 1 123 3 view .LVU6
  65              		.loc 1 123 3 view .LVU7
  66 0004 0446     		mov	r4, r0
  67 0006 40B1     		cbz	r0, .L15
  68              	.LVL1:
  69              	.L2:
  70              		.loc 1 123 3 discriminator 3 view .LVU8
  71              		.loc 1 123 3 discriminator 3 view .LVU9
 124:/Users/nhantt/STM32Cube/Repository/STM32Cube_FW_F4_V1.26.0/Middlewares/Third_Party/LwIP/src/netif/slipif.c ****   LWIP_ASSERT("netif->state != NULL", (netif->state != NULL));
  72              		.loc 1 124 3 discriminator 3 view .LVU10
  73              		.loc 1 124 3 discriminator 3 view .LVU11
  74 0008 236A     		ldr	r3, [r4, #32]
  75 000a 6BB1     		cbz	r3, .L16
  76              	.L3:
  77              		.loc 1 124 3 discriminator 3 view .LVU12
  78              		.loc 1 124 3 discriminator 3 view .LVU13
 125:/Users/nhantt/STM32Cube/Repository/STM32Cube_FW_F4_V1.26.0/Middlewares/Third_Party/LwIP/src/netif/slipif.c ****   LWIP_ASSERT("p != NULL", (p != NULL));
  79              		.loc 1 125 3 discriminator 3 view .LVU14
  80              		.loc 1 125 3 discriminator 3 view .LVU15
  81 000c 9DB1     		cbz	r5, .L17
  82              	.L4:
ARM GAS  /var/folders/k2/cd9bl_j17z77g23y6ffqb_400000gn/T//ccOYpq1j.s 			page 5


  83              		.loc 1 125 3 discriminator 3 view .LVU16
  84              		.loc 1 125 3 discriminator 3 view .LVU17
 126:/Users/nhantt/STM32Cube/Repository/STM32Cube_FW_F4_V1.26.0/Middlewares/Third_Party/LwIP/src/netif/slipif.c **** 
 127:/Users/nhantt/STM32Cube/Repository/STM32Cube_FW_F4_V1.26.0/Middlewares/Third_Party/LwIP/src/netif/slipif.c ****   LWIP_DEBUGF(SLIP_DEBUG, ("slipif_output: sending %"U16_F" bytes\n", p->tot_len));
  85              		.loc 1 127 83 discriminator 3 view .LVU18
 128:/Users/nhantt/STM32Cube/Repository/STM32Cube_FW_F4_V1.26.0/Middlewares/Third_Party/LwIP/src/netif/slipif.c ****   priv = (struct slipif_priv *)netif->state;
  86              		.loc 1 128 3 discriminator 3 view .LVU19
  87              		.loc 1 128 8 is_stmt 0 discriminator 3 view .LVU20
  88 000e 266A     		ldr	r6, [r4, #32]
  89              	.LVL2:
 129:/Users/nhantt/STM32Cube/Repository/STM32Cube_FW_F4_V1.26.0/Middlewares/Third_Party/LwIP/src/netif/slipif.c **** 
 130:/Users/nhantt/STM32Cube/Repository/STM32Cube_FW_F4_V1.26.0/Middlewares/Third_Party/LwIP/src/netif/slipif.c ****   /* Send pbuf out on the serial I/O device. */
 131:/Users/nhantt/STM32Cube/Repository/STM32Cube_FW_F4_V1.26.0/Middlewares/Third_Party/LwIP/src/netif/slipif.c ****   /* Start with packet delimiter. */
 132:/Users/nhantt/STM32Cube/Repository/STM32Cube_FW_F4_V1.26.0/Middlewares/Third_Party/LwIP/src/netif/slipif.c ****   sio_send(SLIP_END, priv->sd);
  90              		.loc 1 132 3 is_stmt 1 discriminator 3 view .LVU21
  91 0010 3168     		ldr	r1, [r6]
  92 0012 C020     		movs	r0, #192
  93 0014 FFF7FEFF 		bl	sio_send
  94              	.LVL3:
 133:/Users/nhantt/STM32Cube/Repository/STM32Cube_FW_F4_V1.26.0/Middlewares/Third_Party/LwIP/src/netif/slipif.c **** 
 134:/Users/nhantt/STM32Cube/Repository/STM32Cube_FW_F4_V1.26.0/Middlewares/Third_Party/LwIP/src/netif/slipif.c ****   for (q = p; q != NULL; q = q->next) {
  95              		.loc 1 134 3 discriminator 3 view .LVU22
  96              		.loc 1 134 3 is_stmt 0 discriminator 3 view .LVU23
  97 0018 35E0     		b	.L5
  98              	.LVL4:
  99              	.L15:
 123:/Users/nhantt/STM32Cube/Repository/STM32Cube_FW_F4_V1.26.0/Middlewares/Third_Party/LwIP/src/netif/slipif.c ****   LWIP_ASSERT("netif->state != NULL", (netif->state != NULL));
 100              		.loc 1 123 3 is_stmt 1 discriminator 1 view .LVU24
 123:/Users/nhantt/STM32Cube/Repository/STM32Cube_FW_F4_V1.26.0/Middlewares/Third_Party/LwIP/src/netif/slipif.c ****   LWIP_ASSERT("netif->state != NULL", (netif->state != NULL));
 101              		.loc 1 123 3 discriminator 1 view .LVU25
 102 001a 1F4B     		ldr	r3, .L20
 103 001c 7B22     		movs	r2, #123
 104 001e 1F49     		ldr	r1, .L20+4
 105              	.LVL5:
 123:/Users/nhantt/STM32Cube/Repository/STM32Cube_FW_F4_V1.26.0/Middlewares/Third_Party/LwIP/src/netif/slipif.c ****   LWIP_ASSERT("netif->state != NULL", (netif->state != NULL));
 106              		.loc 1 123 3 is_stmt 0 discriminator 1 view .LVU26
 107 0020 1F48     		ldr	r0, .L20+8
 108              	.LVL6:
 123:/Users/nhantt/STM32Cube/Repository/STM32Cube_FW_F4_V1.26.0/Middlewares/Third_Party/LwIP/src/netif/slipif.c ****   LWIP_ASSERT("netif->state != NULL", (netif->state != NULL));
 109              		.loc 1 123 3 discriminator 1 view .LVU27
 110 0022 FFF7FEFF 		bl	printf
 111              	.LVL7:
 112 0026 EFE7     		b	.L2
 113              	.L16:
 124:/Users/nhantt/STM32Cube/Repository/STM32Cube_FW_F4_V1.26.0/Middlewares/Third_Party/LwIP/src/netif/slipif.c ****   LWIP_ASSERT("p != NULL", (p != NULL));
 114              		.loc 1 124 3 is_stmt 1 discriminator 1 view .LVU28
 124:/Users/nhantt/STM32Cube/Repository/STM32Cube_FW_F4_V1.26.0/Middlewares/Third_Party/LwIP/src/netif/slipif.c ****   LWIP_ASSERT("p != NULL", (p != NULL));
 115              		.loc 1 124 3 discriminator 1 view .LVU29
 116 0028 1B4B     		ldr	r3, .L20
 117 002a 7C22     		movs	r2, #124
 118 002c 1D49     		ldr	r1, .L20+12
 119 002e 1C48     		ldr	r0, .L20+8
 120 0030 FFF7FEFF 		bl	printf
 121              	.LVL8:
 122 0034 EAE7     		b	.L3
 123              	.L17:
 125:/Users/nhantt/STM32Cube/Repository/STM32Cube_FW_F4_V1.26.0/Middlewares/Third_Party/LwIP/src/netif/slipif.c **** 
ARM GAS  /var/folders/k2/cd9bl_j17z77g23y6ffqb_400000gn/T//ccOYpq1j.s 			page 6


 124              		.loc 1 125 3 discriminator 1 view .LVU30
 125:/Users/nhantt/STM32Cube/Repository/STM32Cube_FW_F4_V1.26.0/Middlewares/Third_Party/LwIP/src/netif/slipif.c **** 
 125              		.loc 1 125 3 discriminator 1 view .LVU31
 126 0036 184B     		ldr	r3, .L20
 127 0038 7D22     		movs	r2, #125
 128 003a 1B49     		ldr	r1, .L20+16
 129 003c 1848     		ldr	r0, .L20+8
 130 003e FFF7FEFF 		bl	printf
 131              	.LVL9:
 132 0042 E4E7     		b	.L4
 133              	.LVL10:
 134              	.L6:
 135:/Users/nhantt/STM32Cube/Repository/STM32Cube_FW_F4_V1.26.0/Middlewares/Third_Party/LwIP/src/netif/slipif.c ****     for (i = 0; i < q->len; i++) {
 136:/Users/nhantt/STM32Cube/Repository/STM32Cube_FW_F4_V1.26.0/Middlewares/Third_Party/LwIP/src/netif/slipif.c ****       c = ((u8_t *)q->payload)[i];
 137:/Users/nhantt/STM32Cube/Repository/STM32Cube_FW_F4_V1.26.0/Middlewares/Third_Party/LwIP/src/netif/slipif.c ****       switch (c) {
 138:/Users/nhantt/STM32Cube/Repository/STM32Cube_FW_F4_V1.26.0/Middlewares/Third_Party/LwIP/src/netif/slipif.c ****         case SLIP_END:
 139:/Users/nhantt/STM32Cube/Repository/STM32Cube_FW_F4_V1.26.0/Middlewares/Third_Party/LwIP/src/netif/slipif.c ****           /* need to escape this byte (0xC0 -> 0xDB, 0xDC) */
 140:/Users/nhantt/STM32Cube/Repository/STM32Cube_FW_F4_V1.26.0/Middlewares/Third_Party/LwIP/src/netif/slipif.c ****           sio_send(SLIP_ESC, priv->sd);
 135              		.loc 1 140 11 view .LVU32
 136 0044 3168     		ldr	r1, [r6]
 137 0046 DB20     		movs	r0, #219
 138              	.LVL11:
 139              		.loc 1 140 11 is_stmt 0 view .LVU33
 140 0048 FFF7FEFF 		bl	sio_send
 141              	.LVL12:
 141:/Users/nhantt/STM32Cube/Repository/STM32Cube_FW_F4_V1.26.0/Middlewares/Third_Party/LwIP/src/netif/slipif.c ****           sio_send(SLIP_ESC_END, priv->sd);
 142              		.loc 1 141 11 is_stmt 1 view .LVU34
 143 004c 3168     		ldr	r1, [r6]
 144 004e DC20     		movs	r0, #220
 145 0050 FFF7FEFF 		bl	sio_send
 146              	.LVL13:
 142:/Users/nhantt/STM32Cube/Repository/STM32Cube_FW_F4_V1.26.0/Middlewares/Third_Party/LwIP/src/netif/slipif.c ****           break;
 147              		.loc 1 142 11 view .LVU35
 148              	.L9:
 135:/Users/nhantt/STM32Cube/Repository/STM32Cube_FW_F4_V1.26.0/Middlewares/Third_Party/LwIP/src/netif/slipif.c ****     for (i = 0; i < q->len; i++) {
 149              		.loc 1 135 29 discriminator 2 view .LVU36
 135:/Users/nhantt/STM32Cube/Repository/STM32Cube_FW_F4_V1.26.0/Middlewares/Third_Party/LwIP/src/netif/slipif.c ****     for (i = 0; i < q->len; i++) {
 150              		.loc 1 135 30 is_stmt 0 discriminator 2 view .LVU37
 151 0054 0134     		adds	r4, r4, #1
 152              	.LVL14:
 135:/Users/nhantt/STM32Cube/Repository/STM32Cube_FW_F4_V1.26.0/Middlewares/Third_Party/LwIP/src/netif/slipif.c ****     for (i = 0; i < q->len; i++) {
 153              		.loc 1 135 30 discriminator 2 view .LVU38
 154 0056 A4B2     		uxth	r4, r4
 155              	.LVL15:
 156              	.L11:
 135:/Users/nhantt/STM32Cube/Repository/STM32Cube_FW_F4_V1.26.0/Middlewares/Third_Party/LwIP/src/netif/slipif.c ****     for (i = 0; i < q->len; i++) {
 157              		.loc 1 135 17 is_stmt 1 discriminator 1 view .LVU39
 135:/Users/nhantt/STM32Cube/Repository/STM32Cube_FW_F4_V1.26.0/Middlewares/Third_Party/LwIP/src/netif/slipif.c ****     for (i = 0; i < q->len; i++) {
 158              		.loc 1 135 22 is_stmt 0 discriminator 1 view .LVU40
 159 0058 6B89     		ldrh	r3, [r5, #10]
 135:/Users/nhantt/STM32Cube/Repository/STM32Cube_FW_F4_V1.26.0/Middlewares/Third_Party/LwIP/src/netif/slipif.c ****     for (i = 0; i < q->len; i++) {
 160              		.loc 1 135 5 discriminator 1 view .LVU41
 161 005a A342     		cmp	r3, r4
 162 005c 12D9     		bls	.L18
 136:/Users/nhantt/STM32Cube/Repository/STM32Cube_FW_F4_V1.26.0/Middlewares/Third_Party/LwIP/src/netif/slipif.c ****       switch (c) {
 163              		.loc 1 136 7 is_stmt 1 view .LVU42
 136:/Users/nhantt/STM32Cube/Repository/STM32Cube_FW_F4_V1.26.0/Middlewares/Third_Party/LwIP/src/netif/slipif.c ****       switch (c) {
ARM GAS  /var/folders/k2/cd9bl_j17z77g23y6ffqb_400000gn/T//ccOYpq1j.s 			page 7


 164              		.loc 1 136 21 is_stmt 0 view .LVU43
 165 005e 6B68     		ldr	r3, [r5, #4]
 136:/Users/nhantt/STM32Cube/Repository/STM32Cube_FW_F4_V1.26.0/Middlewares/Third_Party/LwIP/src/netif/slipif.c ****       switch (c) {
 166              		.loc 1 136 9 view .LVU44
 167 0060 185D     		ldrb	r0, [r3, r4]	@ zero_extendqisi2
 168              	.LVL16:
 137:/Users/nhantt/STM32Cube/Repository/STM32Cube_FW_F4_V1.26.0/Middlewares/Third_Party/LwIP/src/netif/slipif.c ****         case SLIP_END:
 169              		.loc 1 137 7 is_stmt 1 view .LVU45
 170 0062 C028     		cmp	r0, #192
 171 0064 EED0     		beq	.L6
 172 0066 DB28     		cmp	r0, #219
 173 0068 03D0     		beq	.L7
 143:/Users/nhantt/STM32Cube/Repository/STM32Cube_FW_F4_V1.26.0/Middlewares/Third_Party/LwIP/src/netif/slipif.c ****         case SLIP_ESC:
 144:/Users/nhantt/STM32Cube/Repository/STM32Cube_FW_F4_V1.26.0/Middlewares/Third_Party/LwIP/src/netif/slipif.c ****           /* need to escape this byte (0xDB -> 0xDB, 0xDD) */
 145:/Users/nhantt/STM32Cube/Repository/STM32Cube_FW_F4_V1.26.0/Middlewares/Third_Party/LwIP/src/netif/slipif.c ****           sio_send(SLIP_ESC, priv->sd);
 146:/Users/nhantt/STM32Cube/Repository/STM32Cube_FW_F4_V1.26.0/Middlewares/Third_Party/LwIP/src/netif/slipif.c ****           sio_send(SLIP_ESC_ESC, priv->sd);
 147:/Users/nhantt/STM32Cube/Repository/STM32Cube_FW_F4_V1.26.0/Middlewares/Third_Party/LwIP/src/netif/slipif.c ****           break;
 148:/Users/nhantt/STM32Cube/Repository/STM32Cube_FW_F4_V1.26.0/Middlewares/Third_Party/LwIP/src/netif/slipif.c ****         default:
 149:/Users/nhantt/STM32Cube/Repository/STM32Cube_FW_F4_V1.26.0/Middlewares/Third_Party/LwIP/src/netif/slipif.c ****           /* normal byte - no need for escaping */
 150:/Users/nhantt/STM32Cube/Repository/STM32Cube_FW_F4_V1.26.0/Middlewares/Third_Party/LwIP/src/netif/slipif.c ****           sio_send(c, priv->sd);
 174              		.loc 1 150 11 view .LVU46
 175 006a 3168     		ldr	r1, [r6]
 176 006c FFF7FEFF 		bl	sio_send
 177              	.LVL17:
 151:/Users/nhantt/STM32Cube/Repository/STM32Cube_FW_F4_V1.26.0/Middlewares/Third_Party/LwIP/src/netif/slipif.c ****           break;
 178              		.loc 1 151 11 view .LVU47
 179 0070 F0E7     		b	.L9
 180              	.LVL18:
 181              	.L7:
 145:/Users/nhantt/STM32Cube/Repository/STM32Cube_FW_F4_V1.26.0/Middlewares/Third_Party/LwIP/src/netif/slipif.c ****           sio_send(SLIP_ESC_ESC, priv->sd);
 182              		.loc 1 145 11 view .LVU48
 183 0072 3168     		ldr	r1, [r6]
 184 0074 DB20     		movs	r0, #219
 185              	.LVL19:
 145:/Users/nhantt/STM32Cube/Repository/STM32Cube_FW_F4_V1.26.0/Middlewares/Third_Party/LwIP/src/netif/slipif.c ****           sio_send(SLIP_ESC_ESC, priv->sd);
 186              		.loc 1 145 11 is_stmt 0 view .LVU49
 187 0076 FFF7FEFF 		bl	sio_send
 188              	.LVL20:
 146:/Users/nhantt/STM32Cube/Repository/STM32Cube_FW_F4_V1.26.0/Middlewares/Third_Party/LwIP/src/netif/slipif.c ****           break;
 189              		.loc 1 146 11 is_stmt 1 view .LVU50
 190 007a 3168     		ldr	r1, [r6]
 191 007c DD20     		movs	r0, #221
 192 007e FFF7FEFF 		bl	sio_send
 193              	.LVL21:
 147:/Users/nhantt/STM32Cube/Repository/STM32Cube_FW_F4_V1.26.0/Middlewares/Third_Party/LwIP/src/netif/slipif.c ****         default:
 194              		.loc 1 147 11 view .LVU51
 195 0082 E7E7     		b	.L9
 196              	.L18:
 134:/Users/nhantt/STM32Cube/Repository/STM32Cube_FW_F4_V1.26.0/Middlewares/Third_Party/LwIP/src/netif/slipif.c ****     for (i = 0; i < q->len; i++) {
 197              		.loc 1 134 26 discriminator 2 view .LVU52
 134:/Users/nhantt/STM32Cube/Repository/STM32Cube_FW_F4_V1.26.0/Middlewares/Third_Party/LwIP/src/netif/slipif.c ****     for (i = 0; i < q->len; i++) {
 198              		.loc 1 134 28 is_stmt 0 discriminator 2 view .LVU53
 199 0084 2D68     		ldr	r5, [r5]
 200              	.LVL22:
 201              	.L5:
 134:/Users/nhantt/STM32Cube/Repository/STM32Cube_FW_F4_V1.26.0/Middlewares/Third_Party/LwIP/src/netif/slipif.c ****     for (i = 0; i < q->len; i++) {
 202              		.loc 1 134 15 is_stmt 1 discriminator 1 view .LVU54
ARM GAS  /var/folders/k2/cd9bl_j17z77g23y6ffqb_400000gn/T//ccOYpq1j.s 			page 8


 134:/Users/nhantt/STM32Cube/Repository/STM32Cube_FW_F4_V1.26.0/Middlewares/Third_Party/LwIP/src/netif/slipif.c ****     for (i = 0; i < q->len; i++) {
 203              		.loc 1 134 3 is_stmt 0 discriminator 1 view .LVU55
 204 0086 0DB1     		cbz	r5, .L19
 135:/Users/nhantt/STM32Cube/Repository/STM32Cube_FW_F4_V1.26.0/Middlewares/Third_Party/LwIP/src/netif/slipif.c ****       c = ((u8_t *)q->payload)[i];
 205              		.loc 1 135 12 view .LVU56
 206 0088 0024     		movs	r4, #0
 207 008a E5E7     		b	.L11
 208              	.L19:
 152:/Users/nhantt/STM32Cube/Repository/STM32Cube_FW_F4_V1.26.0/Middlewares/Third_Party/LwIP/src/netif/slipif.c ****       }
 153:/Users/nhantt/STM32Cube/Repository/STM32Cube_FW_F4_V1.26.0/Middlewares/Third_Party/LwIP/src/netif/slipif.c ****     }
 154:/Users/nhantt/STM32Cube/Repository/STM32Cube_FW_F4_V1.26.0/Middlewares/Third_Party/LwIP/src/netif/slipif.c ****   }
 155:/Users/nhantt/STM32Cube/Repository/STM32Cube_FW_F4_V1.26.0/Middlewares/Third_Party/LwIP/src/netif/slipif.c ****   /* End with packet delimiter. */
 156:/Users/nhantt/STM32Cube/Repository/STM32Cube_FW_F4_V1.26.0/Middlewares/Third_Party/LwIP/src/netif/slipif.c ****   sio_send(SLIP_END, priv->sd);
 209              		.loc 1 156 3 is_stmt 1 view .LVU57
 210 008c 3168     		ldr	r1, [r6]
 211 008e C020     		movs	r0, #192
 212 0090 FFF7FEFF 		bl	sio_send
 213              	.LVL23:
 157:/Users/nhantt/STM32Cube/Repository/STM32Cube_FW_F4_V1.26.0/Middlewares/Third_Party/LwIP/src/netif/slipif.c ****   return ERR_OK;
 214              		.loc 1 157 3 view .LVU58
 158:/Users/nhantt/STM32Cube/Repository/STM32Cube_FW_F4_V1.26.0/Middlewares/Third_Party/LwIP/src/netif/slipif.c **** }
 215              		.loc 1 158 1 is_stmt 0 view .LVU59
 216 0094 0020     		movs	r0, #0
 217 0096 70BD     		pop	{r4, r5, r6, pc}
 218              	.LVL24:
 219              	.L21:
 220              		.loc 1 158 1 view .LVU60
 221              		.align	2
 222              	.L20:
 223 0098 00000000 		.word	.LC0
 224 009c 6C000000 		.word	.LC1
 225 00a0 7C000000 		.word	.LC2
 226 00a4 A4000000 		.word	.LC3
 227 00a8 BC000000 		.word	.LC4
 228              		.cfi_endproc
 229              	.LFE155:
 231              		.section	.text.slipif_output_v4,"ax",%progbits
 232              		.align	1
 233              		.syntax unified
 234              		.thumb
 235              		.thumb_func
 236              		.fpu fpv4-sp-d16
 238              	slipif_output_v4:
 239              	.LVL25:
 240              	.LFB156:
 159:/Users/nhantt/STM32Cube/Repository/STM32Cube_FW_F4_V1.26.0/Middlewares/Third_Party/LwIP/src/netif/slipif.c **** 
 160:/Users/nhantt/STM32Cube/Repository/STM32Cube_FW_F4_V1.26.0/Middlewares/Third_Party/LwIP/src/netif/slipif.c **** #if LWIP_IPV4
 161:/Users/nhantt/STM32Cube/Repository/STM32Cube_FW_F4_V1.26.0/Middlewares/Third_Party/LwIP/src/netif/slipif.c **** /**
 162:/Users/nhantt/STM32Cube/Repository/STM32Cube_FW_F4_V1.26.0/Middlewares/Third_Party/LwIP/src/netif/slipif.c ****  * Send a pbuf doing the necessary SLIP encapsulation
 163:/Users/nhantt/STM32Cube/Repository/STM32Cube_FW_F4_V1.26.0/Middlewares/Third_Party/LwIP/src/netif/slipif.c ****  *
 164:/Users/nhantt/STM32Cube/Repository/STM32Cube_FW_F4_V1.26.0/Middlewares/Third_Party/LwIP/src/netif/slipif.c ****  * Uses the serial layer's sio_send()
 165:/Users/nhantt/STM32Cube/Repository/STM32Cube_FW_F4_V1.26.0/Middlewares/Third_Party/LwIP/src/netif/slipif.c ****  *
 166:/Users/nhantt/STM32Cube/Repository/STM32Cube_FW_F4_V1.26.0/Middlewares/Third_Party/LwIP/src/netif/slipif.c ****  * @param netif the lwip network interface structure for this slipif
 167:/Users/nhantt/STM32Cube/Repository/STM32Cube_FW_F4_V1.26.0/Middlewares/Third_Party/LwIP/src/netif/slipif.c ****  * @param p the pbuf chain packet to send
 168:/Users/nhantt/STM32Cube/Repository/STM32Cube_FW_F4_V1.26.0/Middlewares/Third_Party/LwIP/src/netif/slipif.c ****  * @param ipaddr the ip address to send the packet to (not used for slipif)
 169:/Users/nhantt/STM32Cube/Repository/STM32Cube_FW_F4_V1.26.0/Middlewares/Third_Party/LwIP/src/netif/slipif.c ****  * @return always returns ERR_OK since the serial layer does not provide return values
 170:/Users/nhantt/STM32Cube/Repository/STM32Cube_FW_F4_V1.26.0/Middlewares/Third_Party/LwIP/src/netif/slipif.c ****  */
ARM GAS  /var/folders/k2/cd9bl_j17z77g23y6ffqb_400000gn/T//ccOYpq1j.s 			page 9


 171:/Users/nhantt/STM32Cube/Repository/STM32Cube_FW_F4_V1.26.0/Middlewares/Third_Party/LwIP/src/netif/slipif.c **** static err_t
 172:/Users/nhantt/STM32Cube/Repository/STM32Cube_FW_F4_V1.26.0/Middlewares/Third_Party/LwIP/src/netif/slipif.c **** slipif_output_v4(struct netif *netif, struct pbuf *p, const ip4_addr_t *ipaddr)
 173:/Users/nhantt/STM32Cube/Repository/STM32Cube_FW_F4_V1.26.0/Middlewares/Third_Party/LwIP/src/netif/slipif.c **** {
 241              		.loc 1 173 1 is_stmt 1 view -0
 242              		.cfi_startproc
 243              		@ args = 0, pretend = 0, frame = 0
 244              		@ frame_needed = 0, uses_anonymous_args = 0
 245              		.loc 1 173 1 is_stmt 0 view .LVU62
 246 0000 08B5     		push	{r3, lr}
 247              	.LCFI1:
 248              		.cfi_def_cfa_offset 8
 249              		.cfi_offset 3, -8
 250              		.cfi_offset 14, -4
 174:/Users/nhantt/STM32Cube/Repository/STM32Cube_FW_F4_V1.26.0/Middlewares/Third_Party/LwIP/src/netif/slipif.c ****   LWIP_UNUSED_ARG(ipaddr);
 251              		.loc 1 174 3 is_stmt 1 view .LVU63
 175:/Users/nhantt/STM32Cube/Repository/STM32Cube_FW_F4_V1.26.0/Middlewares/Third_Party/LwIP/src/netif/slipif.c ****   return slipif_output(netif, p);
 252              		.loc 1 175 3 view .LVU64
 253              		.loc 1 175 10 is_stmt 0 view .LVU65
 254 0002 FFF7FEFF 		bl	slipif_output
 255              	.LVL26:
 176:/Users/nhantt/STM32Cube/Repository/STM32Cube_FW_F4_V1.26.0/Middlewares/Third_Party/LwIP/src/netif/slipif.c **** }
 256              		.loc 1 176 1 view .LVU66
 257 0006 08BD     		pop	{r3, pc}
 258              		.cfi_endproc
 259              	.LFE156:
 261              		.section	.text.slipif_rxbyte,"ax",%progbits
 262              		.align	1
 263              		.syntax unified
 264              		.thumb
 265              		.thumb_func
 266              		.fpu fpv4-sp-d16
 268              	slipif_rxbyte:
 269              	.LVL27:
 270              	.LFB157:
 177:/Users/nhantt/STM32Cube/Repository/STM32Cube_FW_F4_V1.26.0/Middlewares/Third_Party/LwIP/src/netif/slipif.c **** #endif /* LWIP_IPV4 */
 178:/Users/nhantt/STM32Cube/Repository/STM32Cube_FW_F4_V1.26.0/Middlewares/Third_Party/LwIP/src/netif/slipif.c **** 
 179:/Users/nhantt/STM32Cube/Repository/STM32Cube_FW_F4_V1.26.0/Middlewares/Third_Party/LwIP/src/netif/slipif.c **** #if LWIP_IPV6
 180:/Users/nhantt/STM32Cube/Repository/STM32Cube_FW_F4_V1.26.0/Middlewares/Third_Party/LwIP/src/netif/slipif.c **** /**
 181:/Users/nhantt/STM32Cube/Repository/STM32Cube_FW_F4_V1.26.0/Middlewares/Third_Party/LwIP/src/netif/slipif.c ****  * Send a pbuf doing the necessary SLIP encapsulation
 182:/Users/nhantt/STM32Cube/Repository/STM32Cube_FW_F4_V1.26.0/Middlewares/Third_Party/LwIP/src/netif/slipif.c ****  *
 183:/Users/nhantt/STM32Cube/Repository/STM32Cube_FW_F4_V1.26.0/Middlewares/Third_Party/LwIP/src/netif/slipif.c ****  * Uses the serial layer's sio_send()
 184:/Users/nhantt/STM32Cube/Repository/STM32Cube_FW_F4_V1.26.0/Middlewares/Third_Party/LwIP/src/netif/slipif.c ****  *
 185:/Users/nhantt/STM32Cube/Repository/STM32Cube_FW_F4_V1.26.0/Middlewares/Third_Party/LwIP/src/netif/slipif.c ****  * @param netif the lwip network interface structure for this slipif
 186:/Users/nhantt/STM32Cube/Repository/STM32Cube_FW_F4_V1.26.0/Middlewares/Third_Party/LwIP/src/netif/slipif.c ****  * @param p the pbuf chain packet to send
 187:/Users/nhantt/STM32Cube/Repository/STM32Cube_FW_F4_V1.26.0/Middlewares/Third_Party/LwIP/src/netif/slipif.c ****  * @param ipaddr the ip address to send the packet to (not used for slipif)
 188:/Users/nhantt/STM32Cube/Repository/STM32Cube_FW_F4_V1.26.0/Middlewares/Third_Party/LwIP/src/netif/slipif.c ****  * @return always returns ERR_OK since the serial layer does not provide return values
 189:/Users/nhantt/STM32Cube/Repository/STM32Cube_FW_F4_V1.26.0/Middlewares/Third_Party/LwIP/src/netif/slipif.c ****  */
 190:/Users/nhantt/STM32Cube/Repository/STM32Cube_FW_F4_V1.26.0/Middlewares/Third_Party/LwIP/src/netif/slipif.c **** static err_t
 191:/Users/nhantt/STM32Cube/Repository/STM32Cube_FW_F4_V1.26.0/Middlewares/Third_Party/LwIP/src/netif/slipif.c **** slipif_output_v6(struct netif *netif, struct pbuf *p, const ip6_addr_t *ipaddr)
 192:/Users/nhantt/STM32Cube/Repository/STM32Cube_FW_F4_V1.26.0/Middlewares/Third_Party/LwIP/src/netif/slipif.c **** {
 193:/Users/nhantt/STM32Cube/Repository/STM32Cube_FW_F4_V1.26.0/Middlewares/Third_Party/LwIP/src/netif/slipif.c ****   LWIP_UNUSED_ARG(ipaddr);
 194:/Users/nhantt/STM32Cube/Repository/STM32Cube_FW_F4_V1.26.0/Middlewares/Third_Party/LwIP/src/netif/slipif.c ****   return slipif_output(netif, p);
 195:/Users/nhantt/STM32Cube/Repository/STM32Cube_FW_F4_V1.26.0/Middlewares/Third_Party/LwIP/src/netif/slipif.c **** }
 196:/Users/nhantt/STM32Cube/Repository/STM32Cube_FW_F4_V1.26.0/Middlewares/Third_Party/LwIP/src/netif/slipif.c **** #endif /* LWIP_IPV6 */
 197:/Users/nhantt/STM32Cube/Repository/STM32Cube_FW_F4_V1.26.0/Middlewares/Third_Party/LwIP/src/netif/slipif.c **** 
 198:/Users/nhantt/STM32Cube/Repository/STM32Cube_FW_F4_V1.26.0/Middlewares/Third_Party/LwIP/src/netif/slipif.c **** /**
 199:/Users/nhantt/STM32Cube/Repository/STM32Cube_FW_F4_V1.26.0/Middlewares/Third_Party/LwIP/src/netif/slipif.c ****  * Handle the incoming SLIP stream character by character
ARM GAS  /var/folders/k2/cd9bl_j17z77g23y6ffqb_400000gn/T//ccOYpq1j.s 			page 10


 200:/Users/nhantt/STM32Cube/Repository/STM32Cube_FW_F4_V1.26.0/Middlewares/Third_Party/LwIP/src/netif/slipif.c ****  *
 201:/Users/nhantt/STM32Cube/Repository/STM32Cube_FW_F4_V1.26.0/Middlewares/Third_Party/LwIP/src/netif/slipif.c ****  * @param netif the lwip network interface structure for this slipif
 202:/Users/nhantt/STM32Cube/Repository/STM32Cube_FW_F4_V1.26.0/Middlewares/Third_Party/LwIP/src/netif/slipif.c ****  * @param c received character (multiple calls to this function will
 203:/Users/nhantt/STM32Cube/Repository/STM32Cube_FW_F4_V1.26.0/Middlewares/Third_Party/LwIP/src/netif/slipif.c ****  *        return a complete packet, NULL is returned before - used for polling)
 204:/Users/nhantt/STM32Cube/Repository/STM32Cube_FW_F4_V1.26.0/Middlewares/Third_Party/LwIP/src/netif/slipif.c ****  * @return The IP packet when SLIP_END is received
 205:/Users/nhantt/STM32Cube/Repository/STM32Cube_FW_F4_V1.26.0/Middlewares/Third_Party/LwIP/src/netif/slipif.c ****  */
 206:/Users/nhantt/STM32Cube/Repository/STM32Cube_FW_F4_V1.26.0/Middlewares/Third_Party/LwIP/src/netif/slipif.c **** static struct pbuf *
 207:/Users/nhantt/STM32Cube/Repository/STM32Cube_FW_F4_V1.26.0/Middlewares/Third_Party/LwIP/src/netif/slipif.c **** slipif_rxbyte(struct netif *netif, u8_t c)
 208:/Users/nhantt/STM32Cube/Repository/STM32Cube_FW_F4_V1.26.0/Middlewares/Third_Party/LwIP/src/netif/slipif.c **** {
 271              		.loc 1 208 1 is_stmt 1 view -0
 272              		.cfi_startproc
 273              		@ args = 0, pretend = 0, frame = 0
 274              		@ frame_needed = 0, uses_anonymous_args = 0
 275              		.loc 1 208 1 is_stmt 0 view .LVU68
 276 0000 38B5     		push	{r3, r4, r5, lr}
 277              	.LCFI2:
 278              		.cfi_def_cfa_offset 16
 279              		.cfi_offset 3, -16
 280              		.cfi_offset 4, -12
 281              		.cfi_offset 5, -8
 282              		.cfi_offset 14, -4
 283 0002 0D46     		mov	r5, r1
 209:/Users/nhantt/STM32Cube/Repository/STM32Cube_FW_F4_V1.26.0/Middlewares/Third_Party/LwIP/src/netif/slipif.c ****   struct slipif_priv *priv;
 284              		.loc 1 209 3 is_stmt 1 view .LVU69
 210:/Users/nhantt/STM32Cube/Repository/STM32Cube_FW_F4_V1.26.0/Middlewares/Third_Party/LwIP/src/netif/slipif.c ****   struct pbuf *t;
 285              		.loc 1 210 3 view .LVU70
 211:/Users/nhantt/STM32Cube/Repository/STM32Cube_FW_F4_V1.26.0/Middlewares/Third_Party/LwIP/src/netif/slipif.c **** 
 212:/Users/nhantt/STM32Cube/Repository/STM32Cube_FW_F4_V1.26.0/Middlewares/Third_Party/LwIP/src/netif/slipif.c ****   LWIP_ASSERT("netif != NULL", (netif != NULL));
 286              		.loc 1 212 3 view .LVU71
 287              		.loc 1 212 3 view .LVU72
 288 0004 0446     		mov	r4, r0
 289 0006 0028     		cmp	r0, #0
 290 0008 2CD0     		beq	.L42
 291              	.LVL28:
 292              	.L25:
 293              		.loc 1 212 3 discriminator 3 view .LVU73
 294              		.loc 1 212 3 discriminator 3 view .LVU74
 213:/Users/nhantt/STM32Cube/Repository/STM32Cube_FW_F4_V1.26.0/Middlewares/Third_Party/LwIP/src/netif/slipif.c ****   LWIP_ASSERT("netif->state != NULL", (netif->state != NULL));
 295              		.loc 1 213 3 discriminator 3 view .LVU75
 296              		.loc 1 213 3 discriminator 3 view .LVU76
 297 000a 236A     		ldr	r3, [r4, #32]
 298 000c 002B     		cmp	r3, #0
 299 000e 30D0     		beq	.L43
 300              	.L26:
 301              		.loc 1 213 3 discriminator 3 view .LVU77
 302              		.loc 1 213 3 discriminator 3 view .LVU78
 214:/Users/nhantt/STM32Cube/Repository/STM32Cube_FW_F4_V1.26.0/Middlewares/Third_Party/LwIP/src/netif/slipif.c **** 
 215:/Users/nhantt/STM32Cube/Repository/STM32Cube_FW_F4_V1.26.0/Middlewares/Third_Party/LwIP/src/netif/slipif.c ****   priv = (struct slipif_priv *)netif->state;
 303              		.loc 1 215 3 discriminator 3 view .LVU79
 304              		.loc 1 215 8 is_stmt 0 discriminator 3 view .LVU80
 305 0010 246A     		ldr	r4, [r4, #32]
 306              	.LVL29:
 216:/Users/nhantt/STM32Cube/Repository/STM32Cube_FW_F4_V1.26.0/Middlewares/Third_Party/LwIP/src/netif/slipif.c **** 
 217:/Users/nhantt/STM32Cube/Repository/STM32Cube_FW_F4_V1.26.0/Middlewares/Third_Party/LwIP/src/netif/slipif.c ****   switch (priv->state) {
 307              		.loc 1 217 3 is_stmt 1 discriminator 3 view .LVU81
 308              		.loc 1 217 15 is_stmt 0 discriminator 3 view .LVU82
 309 0012 237B     		ldrb	r3, [r4, #12]	@ zero_extendqisi2
ARM GAS  /var/folders/k2/cd9bl_j17z77g23y6ffqb_400000gn/T//ccOYpq1j.s 			page 11


 310              		.loc 1 217 3 discriminator 3 view .LVU83
 311 0014 002B     		cmp	r3, #0
 312 0016 33D0     		beq	.L27
 313              		.loc 1 217 3 view .LVU84
 314 0018 012B     		cmp	r3, #1
 315 001a 47D0     		beq	.L28
 316              	.LVL30:
 317              	.L29:
 218:/Users/nhantt/STM32Cube/Repository/STM32Cube_FW_F4_V1.26.0/Middlewares/Third_Party/LwIP/src/netif/slipif.c ****     case SLIP_RECV_NORMAL:
 219:/Users/nhantt/STM32Cube/Repository/STM32Cube_FW_F4_V1.26.0/Middlewares/Third_Party/LwIP/src/netif/slipif.c ****       switch (c) {
 220:/Users/nhantt/STM32Cube/Repository/STM32Cube_FW_F4_V1.26.0/Middlewares/Third_Party/LwIP/src/netif/slipif.c ****         case SLIP_END:
 221:/Users/nhantt/STM32Cube/Repository/STM32Cube_FW_F4_V1.26.0/Middlewares/Third_Party/LwIP/src/netif/slipif.c ****           if (priv->recved > 0) {
 222:/Users/nhantt/STM32Cube/Repository/STM32Cube_FW_F4_V1.26.0/Middlewares/Third_Party/LwIP/src/netif/slipif.c ****             /* Received whole packet. */
 223:/Users/nhantt/STM32Cube/Repository/STM32Cube_FW_F4_V1.26.0/Middlewares/Third_Party/LwIP/src/netif/slipif.c ****             /* Trim the pbuf to the size of the received packet. */
 224:/Users/nhantt/STM32Cube/Repository/STM32Cube_FW_F4_V1.26.0/Middlewares/Third_Party/LwIP/src/netif/slipif.c ****             pbuf_realloc(priv->q, priv->recved);
 225:/Users/nhantt/STM32Cube/Repository/STM32Cube_FW_F4_V1.26.0/Middlewares/Third_Party/LwIP/src/netif/slipif.c **** 
 226:/Users/nhantt/STM32Cube/Repository/STM32Cube_FW_F4_V1.26.0/Middlewares/Third_Party/LwIP/src/netif/slipif.c ****             LINK_STATS_INC(link.recv);
 227:/Users/nhantt/STM32Cube/Repository/STM32Cube_FW_F4_V1.26.0/Middlewares/Third_Party/LwIP/src/netif/slipif.c **** 
 228:/Users/nhantt/STM32Cube/Repository/STM32Cube_FW_F4_V1.26.0/Middlewares/Third_Party/LwIP/src/netif/slipif.c ****             LWIP_DEBUGF(SLIP_DEBUG, ("slipif: Got packet (%"U16_F" bytes)\n", priv->recved));
 229:/Users/nhantt/STM32Cube/Repository/STM32Cube_FW_F4_V1.26.0/Middlewares/Third_Party/LwIP/src/netif/slipif.c ****             t = priv->q;
 230:/Users/nhantt/STM32Cube/Repository/STM32Cube_FW_F4_V1.26.0/Middlewares/Third_Party/LwIP/src/netif/slipif.c ****             priv->p = priv->q = NULL;
 231:/Users/nhantt/STM32Cube/Repository/STM32Cube_FW_F4_V1.26.0/Middlewares/Third_Party/LwIP/src/netif/slipif.c ****             priv->i = priv->recved = 0;
 232:/Users/nhantt/STM32Cube/Repository/STM32Cube_FW_F4_V1.26.0/Middlewares/Third_Party/LwIP/src/netif/slipif.c ****             return t;
 233:/Users/nhantt/STM32Cube/Repository/STM32Cube_FW_F4_V1.26.0/Middlewares/Third_Party/LwIP/src/netif/slipif.c ****           }
 234:/Users/nhantt/STM32Cube/Repository/STM32Cube_FW_F4_V1.26.0/Middlewares/Third_Party/LwIP/src/netif/slipif.c ****           return NULL;
 235:/Users/nhantt/STM32Cube/Repository/STM32Cube_FW_F4_V1.26.0/Middlewares/Third_Party/LwIP/src/netif/slipif.c ****         case SLIP_ESC:
 236:/Users/nhantt/STM32Cube/Repository/STM32Cube_FW_F4_V1.26.0/Middlewares/Third_Party/LwIP/src/netif/slipif.c ****           priv->state = SLIP_RECV_ESCAPE;
 237:/Users/nhantt/STM32Cube/Repository/STM32Cube_FW_F4_V1.26.0/Middlewares/Third_Party/LwIP/src/netif/slipif.c ****           return NULL;
 238:/Users/nhantt/STM32Cube/Repository/STM32Cube_FW_F4_V1.26.0/Middlewares/Third_Party/LwIP/src/netif/slipif.c ****         default:
 239:/Users/nhantt/STM32Cube/Repository/STM32Cube_FW_F4_V1.26.0/Middlewares/Third_Party/LwIP/src/netif/slipif.c ****           break;
 240:/Users/nhantt/STM32Cube/Repository/STM32Cube_FW_F4_V1.26.0/Middlewares/Third_Party/LwIP/src/netif/slipif.c ****       } /* end switch (c) */
 241:/Users/nhantt/STM32Cube/Repository/STM32Cube_FW_F4_V1.26.0/Middlewares/Third_Party/LwIP/src/netif/slipif.c ****       break;
 242:/Users/nhantt/STM32Cube/Repository/STM32Cube_FW_F4_V1.26.0/Middlewares/Third_Party/LwIP/src/netif/slipif.c ****     case SLIP_RECV_ESCAPE:
 243:/Users/nhantt/STM32Cube/Repository/STM32Cube_FW_F4_V1.26.0/Middlewares/Third_Party/LwIP/src/netif/slipif.c ****       /* un-escape END or ESC bytes, leave other bytes
 244:/Users/nhantt/STM32Cube/Repository/STM32Cube_FW_F4_V1.26.0/Middlewares/Third_Party/LwIP/src/netif/slipif.c ****          (although that would be a protocol error) */
 245:/Users/nhantt/STM32Cube/Repository/STM32Cube_FW_F4_V1.26.0/Middlewares/Third_Party/LwIP/src/netif/slipif.c ****       switch (c) {
 246:/Users/nhantt/STM32Cube/Repository/STM32Cube_FW_F4_V1.26.0/Middlewares/Third_Party/LwIP/src/netif/slipif.c ****         case SLIP_ESC_END:
 247:/Users/nhantt/STM32Cube/Repository/STM32Cube_FW_F4_V1.26.0/Middlewares/Third_Party/LwIP/src/netif/slipif.c ****           c = SLIP_END;
 248:/Users/nhantt/STM32Cube/Repository/STM32Cube_FW_F4_V1.26.0/Middlewares/Third_Party/LwIP/src/netif/slipif.c ****           break;
 249:/Users/nhantt/STM32Cube/Repository/STM32Cube_FW_F4_V1.26.0/Middlewares/Third_Party/LwIP/src/netif/slipif.c ****         case SLIP_ESC_ESC:
 250:/Users/nhantt/STM32Cube/Repository/STM32Cube_FW_F4_V1.26.0/Middlewares/Third_Party/LwIP/src/netif/slipif.c ****           c = SLIP_ESC;
 251:/Users/nhantt/STM32Cube/Repository/STM32Cube_FW_F4_V1.26.0/Middlewares/Third_Party/LwIP/src/netif/slipif.c ****           break;
 252:/Users/nhantt/STM32Cube/Repository/STM32Cube_FW_F4_V1.26.0/Middlewares/Third_Party/LwIP/src/netif/slipif.c ****         default:
 253:/Users/nhantt/STM32Cube/Repository/STM32Cube_FW_F4_V1.26.0/Middlewares/Third_Party/LwIP/src/netif/slipif.c ****           break;
 254:/Users/nhantt/STM32Cube/Repository/STM32Cube_FW_F4_V1.26.0/Middlewares/Third_Party/LwIP/src/netif/slipif.c ****       }
 255:/Users/nhantt/STM32Cube/Repository/STM32Cube_FW_F4_V1.26.0/Middlewares/Third_Party/LwIP/src/netif/slipif.c ****       priv->state = SLIP_RECV_NORMAL;
 256:/Users/nhantt/STM32Cube/Repository/STM32Cube_FW_F4_V1.26.0/Middlewares/Third_Party/LwIP/src/netif/slipif.c ****       break;
 257:/Users/nhantt/STM32Cube/Repository/STM32Cube_FW_F4_V1.26.0/Middlewares/Third_Party/LwIP/src/netif/slipif.c ****     default:
 258:/Users/nhantt/STM32Cube/Repository/STM32Cube_FW_F4_V1.26.0/Middlewares/Third_Party/LwIP/src/netif/slipif.c ****       break;
 259:/Users/nhantt/STM32Cube/Repository/STM32Cube_FW_F4_V1.26.0/Middlewares/Third_Party/LwIP/src/netif/slipif.c ****   } /* end switch (priv->state) */
 260:/Users/nhantt/STM32Cube/Repository/STM32Cube_FW_F4_V1.26.0/Middlewares/Third_Party/LwIP/src/netif/slipif.c **** 
 261:/Users/nhantt/STM32Cube/Repository/STM32Cube_FW_F4_V1.26.0/Middlewares/Third_Party/LwIP/src/netif/slipif.c ****   /* byte received, packet not yet completely received */
 262:/Users/nhantt/STM32Cube/Repository/STM32Cube_FW_F4_V1.26.0/Middlewares/Third_Party/LwIP/src/netif/slipif.c ****   if (priv->p == NULL) {
 318              		.loc 1 262 3 is_stmt 1 view .LVU85
 319              		.loc 1 262 11 is_stmt 0 view .LVU86
 320 001c 6368     		ldr	r3, [r4, #4]
 321              		.loc 1 262 6 view .LVU87
ARM GAS  /var/folders/k2/cd9bl_j17z77g23y6ffqb_400000gn/T//ccOYpq1j.s 			page 12


 322 001e 002B     		cmp	r3, #0
 323 0020 4ED0     		beq	.L44
 324              	.L34:
 263:/Users/nhantt/STM32Cube/Repository/STM32Cube_FW_F4_V1.26.0/Middlewares/Third_Party/LwIP/src/netif/slipif.c ****     /* allocate a new pbuf */
 264:/Users/nhantt/STM32Cube/Repository/STM32Cube_FW_F4_V1.26.0/Middlewares/Third_Party/LwIP/src/netif/slipif.c ****     LWIP_DEBUGF(SLIP_DEBUG, ("slipif_input: alloc\n"));
 265:/Users/nhantt/STM32Cube/Repository/STM32Cube_FW_F4_V1.26.0/Middlewares/Third_Party/LwIP/src/netif/slipif.c ****     priv->p = pbuf_alloc(PBUF_LINK, (PBUF_POOL_BUFSIZE - PBUF_LINK_HLEN - PBUF_LINK_ENCAPSULATION_H
 266:/Users/nhantt/STM32Cube/Repository/STM32Cube_FW_F4_V1.26.0/Middlewares/Third_Party/LwIP/src/netif/slipif.c **** 
 267:/Users/nhantt/STM32Cube/Repository/STM32Cube_FW_F4_V1.26.0/Middlewares/Third_Party/LwIP/src/netif/slipif.c ****     if (priv->p == NULL) {
 268:/Users/nhantt/STM32Cube/Repository/STM32Cube_FW_F4_V1.26.0/Middlewares/Third_Party/LwIP/src/netif/slipif.c ****       LINK_STATS_INC(link.drop);
 269:/Users/nhantt/STM32Cube/Repository/STM32Cube_FW_F4_V1.26.0/Middlewares/Third_Party/LwIP/src/netif/slipif.c ****       LWIP_DEBUGF(SLIP_DEBUG, ("slipif_input: no new pbuf! (DROP)\n"));
 270:/Users/nhantt/STM32Cube/Repository/STM32Cube_FW_F4_V1.26.0/Middlewares/Third_Party/LwIP/src/netif/slipif.c ****       /* don't process any further since we got no pbuf to receive to */
 271:/Users/nhantt/STM32Cube/Repository/STM32Cube_FW_F4_V1.26.0/Middlewares/Third_Party/LwIP/src/netif/slipif.c ****       return NULL;
 272:/Users/nhantt/STM32Cube/Repository/STM32Cube_FW_F4_V1.26.0/Middlewares/Third_Party/LwIP/src/netif/slipif.c ****     }
 273:/Users/nhantt/STM32Cube/Repository/STM32Cube_FW_F4_V1.26.0/Middlewares/Third_Party/LwIP/src/netif/slipif.c **** 
 274:/Users/nhantt/STM32Cube/Repository/STM32Cube_FW_F4_V1.26.0/Middlewares/Third_Party/LwIP/src/netif/slipif.c ****     if (priv->q != NULL) {
 275:/Users/nhantt/STM32Cube/Repository/STM32Cube_FW_F4_V1.26.0/Middlewares/Third_Party/LwIP/src/netif/slipif.c ****       /* 'chain' the pbuf to the existing chain */
 276:/Users/nhantt/STM32Cube/Repository/STM32Cube_FW_F4_V1.26.0/Middlewares/Third_Party/LwIP/src/netif/slipif.c ****       pbuf_cat(priv->q, priv->p);
 277:/Users/nhantt/STM32Cube/Repository/STM32Cube_FW_F4_V1.26.0/Middlewares/Third_Party/LwIP/src/netif/slipif.c ****     } else {
 278:/Users/nhantt/STM32Cube/Repository/STM32Cube_FW_F4_V1.26.0/Middlewares/Third_Party/LwIP/src/netif/slipif.c ****       /* p is the first pbuf in the chain */
 279:/Users/nhantt/STM32Cube/Repository/STM32Cube_FW_F4_V1.26.0/Middlewares/Third_Party/LwIP/src/netif/slipif.c ****       priv->q = priv->p;
 280:/Users/nhantt/STM32Cube/Repository/STM32Cube_FW_F4_V1.26.0/Middlewares/Third_Party/LwIP/src/netif/slipif.c ****     }
 281:/Users/nhantt/STM32Cube/Repository/STM32Cube_FW_F4_V1.26.0/Middlewares/Third_Party/LwIP/src/netif/slipif.c ****   }
 282:/Users/nhantt/STM32Cube/Repository/STM32Cube_FW_F4_V1.26.0/Middlewares/Third_Party/LwIP/src/netif/slipif.c **** 
 283:/Users/nhantt/STM32Cube/Repository/STM32Cube_FW_F4_V1.26.0/Middlewares/Third_Party/LwIP/src/netif/slipif.c ****   /* this automatically drops bytes if > SLIP_MAX_SIZE */
 284:/Users/nhantt/STM32Cube/Repository/STM32Cube_FW_F4_V1.26.0/Middlewares/Third_Party/LwIP/src/netif/slipif.c ****   if ((priv->p != NULL) && (priv->recved <= SLIP_MAX_SIZE)) {
 325              		.loc 1 284 3 is_stmt 1 view .LVU88
 326              		.loc 1 284 12 is_stmt 0 view .LVU89
 327 0022 6068     		ldr	r0, [r4, #4]
 328              		.loc 1 284 6 view .LVU90
 329 0024 0028     		cmp	r0, #0
 330 0026 61D0     		beq	.L24
 331              		.loc 1 284 33 discriminator 1 view .LVU91
 332 0028 228A     		ldrh	r2, [r4, #16]
 333              		.loc 1 284 25 discriminator 1 view .LVU92
 334 002a 40F2DC53 		movw	r3, #1500
 335 002e 9A42     		cmp	r2, r3
 336 0030 5BD8     		bhi	.L39
 285:/Users/nhantt/STM32Cube/Repository/STM32Cube_FW_F4_V1.26.0/Middlewares/Third_Party/LwIP/src/netif/slipif.c ****     ((u8_t *)priv->p->payload)[priv->i] = c;
 337              		.loc 1 285 5 is_stmt 1 view .LVU93
 338              		.loc 1 285 21 is_stmt 0 view .LVU94
 339 0032 4268     		ldr	r2, [r0, #4]
 340              		.loc 1 285 36 view .LVU95
 341 0034 E389     		ldrh	r3, [r4, #14]
 342              		.loc 1 285 41 view .LVU96
 343 0036 D554     		strb	r5, [r2, r3]
 286:/Users/nhantt/STM32Cube/Repository/STM32Cube_FW_F4_V1.26.0/Middlewares/Third_Party/LwIP/src/netif/slipif.c ****     priv->recved++;
 344              		.loc 1 286 5 is_stmt 1 view .LVU97
 345              		.loc 1 286 9 is_stmt 0 view .LVU98
 346 0038 238A     		ldrh	r3, [r4, #16]
 347              		.loc 1 286 17 view .LVU99
 348 003a 0133     		adds	r3, r3, #1
 349 003c 2382     		strh	r3, [r4, #16]	@ movhi
 287:/Users/nhantt/STM32Cube/Repository/STM32Cube_FW_F4_V1.26.0/Middlewares/Third_Party/LwIP/src/netif/slipif.c ****     priv->i++;
 350              		.loc 1 287 5 is_stmt 1 view .LVU100
 351              		.loc 1 287 9 is_stmt 0 view .LVU101
 352 003e E389     		ldrh	r3, [r4, #14]
 353              		.loc 1 287 12 view .LVU102
ARM GAS  /var/folders/k2/cd9bl_j17z77g23y6ffqb_400000gn/T//ccOYpq1j.s 			page 13


 354 0040 0133     		adds	r3, r3, #1
 355 0042 9BB2     		uxth	r3, r3
 356 0044 E381     		strh	r3, [r4, #14]	@ movhi
 288:/Users/nhantt/STM32Cube/Repository/STM32Cube_FW_F4_V1.26.0/Middlewares/Third_Party/LwIP/src/netif/slipif.c ****     if (priv->i >= priv->p->len) {
 357              		.loc 1 288 5 is_stmt 1 view .LVU103
 358              		.loc 1 288 24 is_stmt 0 view .LVU104
 359 0046 6268     		ldr	r2, [r4, #4]
 360              		.loc 1 288 27 view .LVU105
 361 0048 5189     		ldrh	r1, [r2, #10]
 362              		.loc 1 288 8 view .LVU106
 363 004a 8B42     		cmp	r3, r1
 364 004c 4FD3     		bcc	.L40
 289:/Users/nhantt/STM32Cube/Repository/STM32Cube_FW_F4_V1.26.0/Middlewares/Third_Party/LwIP/src/netif/slipif.c ****       /* on to the next pbuf */
 290:/Users/nhantt/STM32Cube/Repository/STM32Cube_FW_F4_V1.26.0/Middlewares/Third_Party/LwIP/src/netif/slipif.c ****       priv->i = 0;
 365              		.loc 1 290 7 is_stmt 1 view .LVU107
 366              		.loc 1 290 15 is_stmt 0 view .LVU108
 367 004e 0023     		movs	r3, #0
 368 0050 E381     		strh	r3, [r4, #14]	@ movhi
 291:/Users/nhantt/STM32Cube/Repository/STM32Cube_FW_F4_V1.26.0/Middlewares/Third_Party/LwIP/src/netif/slipif.c ****       if (priv->p->next != NULL && priv->p->next->len > 0) {
 369              		.loc 1 291 7 is_stmt 1 view .LVU109
 370              		.loc 1 291 18 is_stmt 0 view .LVU110
 371 0052 1368     		ldr	r3, [r2]
 372              		.loc 1 291 10 view .LVU111
 373 0054 002B     		cmp	r3, #0
 374 0056 45D0     		beq	.L36
 375              		.loc 1 291 49 discriminator 1 view .LVU112
 376 0058 5A89     		ldrh	r2, [r3, #10]
 377              		.loc 1 291 33 discriminator 1 view .LVU113
 378 005a 002A     		cmp	r2, #0
 379 005c 42D0     		beq	.L36
 292:/Users/nhantt/STM32Cube/Repository/STM32Cube_FW_F4_V1.26.0/Middlewares/Third_Party/LwIP/src/netif/slipif.c ****         /* p is a chain, on to the next in the chain */
 293:/Users/nhantt/STM32Cube/Repository/STM32Cube_FW_F4_V1.26.0/Middlewares/Third_Party/LwIP/src/netif/slipif.c ****         priv->p = priv->p->next;
 380              		.loc 1 293 9 is_stmt 1 view .LVU114
 381              		.loc 1 293 17 is_stmt 0 view .LVU115
 382 005e 6360     		str	r3, [r4, #4]
 294:/Users/nhantt/STM32Cube/Repository/STM32Cube_FW_F4_V1.26.0/Middlewares/Third_Party/LwIP/src/netif/slipif.c ****       } else {
 295:/Users/nhantt/STM32Cube/Repository/STM32Cube_FW_F4_V1.26.0/Middlewares/Third_Party/LwIP/src/netif/slipif.c ****         /* p is a single pbuf, set it to NULL so next time a new
 296:/Users/nhantt/STM32Cube/Repository/STM32Cube_FW_F4_V1.26.0/Middlewares/Third_Party/LwIP/src/netif/slipif.c ****          * pbuf is allocated */
 297:/Users/nhantt/STM32Cube/Repository/STM32Cube_FW_F4_V1.26.0/Middlewares/Third_Party/LwIP/src/netif/slipif.c ****         priv->p = NULL;
 298:/Users/nhantt/STM32Cube/Repository/STM32Cube_FW_F4_V1.26.0/Middlewares/Third_Party/LwIP/src/netif/slipif.c ****       }
 299:/Users/nhantt/STM32Cube/Repository/STM32Cube_FW_F4_V1.26.0/Middlewares/Third_Party/LwIP/src/netif/slipif.c ****     }
 300:/Users/nhantt/STM32Cube/Repository/STM32Cube_FW_F4_V1.26.0/Middlewares/Third_Party/LwIP/src/netif/slipif.c ****   }
 301:/Users/nhantt/STM32Cube/Repository/STM32Cube_FW_F4_V1.26.0/Middlewares/Third_Party/LwIP/src/netif/slipif.c ****   return NULL;
 383              		.loc 1 301 10 view .LVU116
 384 0060 0020     		movs	r0, #0
 293:/Users/nhantt/STM32Cube/Repository/STM32Cube_FW_F4_V1.26.0/Middlewares/Third_Party/LwIP/src/netif/slipif.c ****       } else {
 385              		.loc 1 293 17 view .LVU117
 386 0062 43E0     		b	.L24
 387              	.LVL31:
 388              	.L42:
 212:/Users/nhantt/STM32Cube/Repository/STM32Cube_FW_F4_V1.26.0/Middlewares/Third_Party/LwIP/src/netif/slipif.c ****   LWIP_ASSERT("netif->state != NULL", (netif->state != NULL));
 389              		.loc 1 212 3 is_stmt 1 discriminator 1 view .LVU118
 212:/Users/nhantt/STM32Cube/Repository/STM32Cube_FW_F4_V1.26.0/Middlewares/Third_Party/LwIP/src/netif/slipif.c ****   LWIP_ASSERT("netif->state != NULL", (netif->state != NULL));
 390              		.loc 1 212 3 discriminator 1 view .LVU119
 391 0064 234B     		ldr	r3, .L46
 392 0066 D422     		movs	r2, #212
 393 0068 2349     		ldr	r1, .L46+4
ARM GAS  /var/folders/k2/cd9bl_j17z77g23y6ffqb_400000gn/T//ccOYpq1j.s 			page 14


 394              	.LVL32:
 212:/Users/nhantt/STM32Cube/Repository/STM32Cube_FW_F4_V1.26.0/Middlewares/Third_Party/LwIP/src/netif/slipif.c ****   LWIP_ASSERT("netif->state != NULL", (netif->state != NULL));
 395              		.loc 1 212 3 is_stmt 0 discriminator 1 view .LVU120
 396 006a 2448     		ldr	r0, .L46+8
 397              	.LVL33:
 212:/Users/nhantt/STM32Cube/Repository/STM32Cube_FW_F4_V1.26.0/Middlewares/Third_Party/LwIP/src/netif/slipif.c ****   LWIP_ASSERT("netif->state != NULL", (netif->state != NULL));
 398              		.loc 1 212 3 discriminator 1 view .LVU121
 399 006c FFF7FEFF 		bl	printf
 400              	.LVL34:
 401 0070 CBE7     		b	.L25
 402              	.L43:
 213:/Users/nhantt/STM32Cube/Repository/STM32Cube_FW_F4_V1.26.0/Middlewares/Third_Party/LwIP/src/netif/slipif.c **** 
 403              		.loc 1 213 3 is_stmt 1 discriminator 1 view .LVU122
 213:/Users/nhantt/STM32Cube/Repository/STM32Cube_FW_F4_V1.26.0/Middlewares/Third_Party/LwIP/src/netif/slipif.c **** 
 404              		.loc 1 213 3 discriminator 1 view .LVU123
 405 0072 204B     		ldr	r3, .L46
 406 0074 D522     		movs	r2, #213
 407 0076 2249     		ldr	r1, .L46+12
 408 0078 2048     		ldr	r0, .L46+8
 409 007a FFF7FEFF 		bl	printf
 410              	.LVL35:
 411 007e C7E7     		b	.L26
 412              	.LVL36:
 413              	.L27:
 219:/Users/nhantt/STM32Cube/Repository/STM32Cube_FW_F4_V1.26.0/Middlewares/Third_Party/LwIP/src/netif/slipif.c ****         case SLIP_END:
 414              		.loc 1 219 7 view .LVU124
 415 0080 C02D     		cmp	r5, #192
 416 0082 05D0     		beq	.L30
 417 0084 DB2D     		cmp	r5, #219
 418 0086 C9D1     		bne	.L29
 236:/Users/nhantt/STM32Cube/Repository/STM32Cube_FW_F4_V1.26.0/Middlewares/Third_Party/LwIP/src/netif/slipif.c ****           return NULL;
 419              		.loc 1 236 11 view .LVU125
 236:/Users/nhantt/STM32Cube/Repository/STM32Cube_FW_F4_V1.26.0/Middlewares/Third_Party/LwIP/src/netif/slipif.c ****           return NULL;
 420              		.loc 1 236 23 is_stmt 0 view .LVU126
 421 0088 0123     		movs	r3, #1
 422 008a 2373     		strb	r3, [r4, #12]
 237:/Users/nhantt/STM32Cube/Repository/STM32Cube_FW_F4_V1.26.0/Middlewares/Third_Party/LwIP/src/netif/slipif.c ****         default:
 423              		.loc 1 237 11 is_stmt 1 view .LVU127
 237:/Users/nhantt/STM32Cube/Repository/STM32Cube_FW_F4_V1.26.0/Middlewares/Third_Party/LwIP/src/netif/slipif.c ****         default:
 424              		.loc 1 237 18 is_stmt 0 view .LVU128
 425 008c 0020     		movs	r0, #0
 426 008e 2DE0     		b	.L24
 427              	.L30:
 221:/Users/nhantt/STM32Cube/Repository/STM32Cube_FW_F4_V1.26.0/Middlewares/Third_Party/LwIP/src/netif/slipif.c ****             /* Received whole packet. */
 428              		.loc 1 221 11 is_stmt 1 view .LVU129
 221:/Users/nhantt/STM32Cube/Repository/STM32Cube_FW_F4_V1.26.0/Middlewares/Third_Party/LwIP/src/netif/slipif.c ****             /* Received whole packet. */
 429              		.loc 1 221 19 is_stmt 0 view .LVU130
 430 0090 218A     		ldrh	r1, [r4, #16]
 221:/Users/nhantt/STM32Cube/Repository/STM32Cube_FW_F4_V1.26.0/Middlewares/Third_Party/LwIP/src/netif/slipif.c ****             /* Received whole packet. */
 431              		.loc 1 221 14 view .LVU131
 432 0092 09B9     		cbnz	r1, .L45
 234:/Users/nhantt/STM32Cube/Repository/STM32Cube_FW_F4_V1.26.0/Middlewares/Third_Party/LwIP/src/netif/slipif.c ****         case SLIP_ESC:
 433              		.loc 1 234 18 view .LVU132
 434 0094 0020     		movs	r0, #0
 435 0096 29E0     		b	.L24
 436              	.L45:
 224:/Users/nhantt/STM32Cube/Repository/STM32Cube_FW_F4_V1.26.0/Middlewares/Third_Party/LwIP/src/netif/slipif.c **** 
ARM GAS  /var/folders/k2/cd9bl_j17z77g23y6ffqb_400000gn/T//ccOYpq1j.s 			page 15


 437              		.loc 1 224 13 is_stmt 1 view .LVU133
 438 0098 A068     		ldr	r0, [r4, #8]
 439 009a FFF7FEFF 		bl	pbuf_realloc
 440              	.LVL37:
 226:/Users/nhantt/STM32Cube/Repository/STM32Cube_FW_F4_V1.26.0/Middlewares/Third_Party/LwIP/src/netif/slipif.c **** 
 441              		.loc 1 226 38 view .LVU134
 228:/Users/nhantt/STM32Cube/Repository/STM32Cube_FW_F4_V1.26.0/Middlewares/Third_Party/LwIP/src/netif/slipif.c ****             t = priv->q;
 442              		.loc 1 228 93 view .LVU135
 229:/Users/nhantt/STM32Cube/Repository/STM32Cube_FW_F4_V1.26.0/Middlewares/Third_Party/LwIP/src/netif/slipif.c ****             priv->p = priv->q = NULL;
 443              		.loc 1 229 13 view .LVU136
 229:/Users/nhantt/STM32Cube/Repository/STM32Cube_FW_F4_V1.26.0/Middlewares/Third_Party/LwIP/src/netif/slipif.c ****             priv->p = priv->q = NULL;
 444              		.loc 1 229 15 is_stmt 0 view .LVU137
 445 009e A068     		ldr	r0, [r4, #8]
 446              	.LVL38:
 230:/Users/nhantt/STM32Cube/Repository/STM32Cube_FW_F4_V1.26.0/Middlewares/Third_Party/LwIP/src/netif/slipif.c ****             priv->i = priv->recved = 0;
 447              		.loc 1 230 13 is_stmt 1 view .LVU138
 230:/Users/nhantt/STM32Cube/Repository/STM32Cube_FW_F4_V1.26.0/Middlewares/Third_Party/LwIP/src/netif/slipif.c ****             priv->i = priv->recved = 0;
 448              		.loc 1 230 31 is_stmt 0 view .LVU139
 449 00a0 0023     		movs	r3, #0
 450 00a2 A360     		str	r3, [r4, #8]
 230:/Users/nhantt/STM32Cube/Repository/STM32Cube_FW_F4_V1.26.0/Middlewares/Third_Party/LwIP/src/netif/slipif.c ****             priv->i = priv->recved = 0;
 451              		.loc 1 230 21 view .LVU140
 452 00a4 6360     		str	r3, [r4, #4]
 231:/Users/nhantt/STM32Cube/Repository/STM32Cube_FW_F4_V1.26.0/Middlewares/Third_Party/LwIP/src/netif/slipif.c ****             return t;
 453              		.loc 1 231 13 is_stmt 1 view .LVU141
 231:/Users/nhantt/STM32Cube/Repository/STM32Cube_FW_F4_V1.26.0/Middlewares/Third_Party/LwIP/src/netif/slipif.c ****             return t;
 454              		.loc 1 231 36 is_stmt 0 view .LVU142
 455 00a6 2382     		strh	r3, [r4, #16]	@ movhi
 231:/Users/nhantt/STM32Cube/Repository/STM32Cube_FW_F4_V1.26.0/Middlewares/Third_Party/LwIP/src/netif/slipif.c ****             return t;
 456              		.loc 1 231 21 view .LVU143
 457 00a8 E381     		strh	r3, [r4, #14]	@ movhi
 232:/Users/nhantt/STM32Cube/Repository/STM32Cube_FW_F4_V1.26.0/Middlewares/Third_Party/LwIP/src/netif/slipif.c ****           }
 458              		.loc 1 232 13 is_stmt 1 view .LVU144
 232:/Users/nhantt/STM32Cube/Repository/STM32Cube_FW_F4_V1.26.0/Middlewares/Third_Party/LwIP/src/netif/slipif.c ****           }
 459              		.loc 1 232 20 is_stmt 0 view .LVU145
 460 00aa 1FE0     		b	.L24
 461              	.LVL39:
 462              	.L28:
 245:/Users/nhantt/STM32Cube/Repository/STM32Cube_FW_F4_V1.26.0/Middlewares/Third_Party/LwIP/src/netif/slipif.c ****         case SLIP_ESC_END:
 463              		.loc 1 245 7 is_stmt 1 view .LVU146
 464 00ac DC2D     		cmp	r5, #220
 465 00ae 05D0     		beq	.L38
 466 00b0 DD2D     		cmp	r5, #221
 467 00b2 00D1     		bne	.L33
 250:/Users/nhantt/STM32Cube/Repository/STM32Cube_FW_F4_V1.26.0/Middlewares/Third_Party/LwIP/src/netif/slipif.c ****           break;
 468              		.loc 1 250 13 is_stmt 0 view .LVU147
 469 00b4 DB25     		movs	r5, #219
 470              	.L33:
 471              	.LVL40:
 255:/Users/nhantt/STM32Cube/Repository/STM32Cube_FW_F4_V1.26.0/Middlewares/Third_Party/LwIP/src/netif/slipif.c ****       break;
 472              		.loc 1 255 7 is_stmt 1 view .LVU148
 255:/Users/nhantt/STM32Cube/Repository/STM32Cube_FW_F4_V1.26.0/Middlewares/Third_Party/LwIP/src/netif/slipif.c ****       break;
 473              		.loc 1 255 19 is_stmt 0 view .LVU149
 474 00b6 0023     		movs	r3, #0
 475 00b8 2373     		strb	r3, [r4, #12]
 256:/Users/nhantt/STM32Cube/Repository/STM32Cube_FW_F4_V1.26.0/Middlewares/Third_Party/LwIP/src/netif/slipif.c ****     default:
 476              		.loc 1 256 7 is_stmt 1 view .LVU150
ARM GAS  /var/folders/k2/cd9bl_j17z77g23y6ffqb_400000gn/T//ccOYpq1j.s 			page 16


 477 00ba AFE7     		b	.L29
 478              	.LVL41:
 479              	.L38:
 247:/Users/nhantt/STM32Cube/Repository/STM32Cube_FW_F4_V1.26.0/Middlewares/Third_Party/LwIP/src/netif/slipif.c ****           break;
 480              		.loc 1 247 13 is_stmt 0 view .LVU151
 481 00bc C025     		movs	r5, #192
 482 00be FAE7     		b	.L33
 483              	.LVL42:
 484              	.L44:
 264:/Users/nhantt/STM32Cube/Repository/STM32Cube_FW_F4_V1.26.0/Middlewares/Third_Party/LwIP/src/netif/slipif.c ****     priv->p = pbuf_alloc(PBUF_LINK, (PBUF_POOL_BUFSIZE - PBUF_LINK_HLEN - PBUF_LINK_ENCAPSULATION_H
 485              		.loc 1 264 55 is_stmt 1 view .LVU152
 265:/Users/nhantt/STM32Cube/Repository/STM32Cube_FW_F4_V1.26.0/Middlewares/Third_Party/LwIP/src/netif/slipif.c **** 
 486              		.loc 1 265 5 view .LVU153
 265:/Users/nhantt/STM32Cube/Repository/STM32Cube_FW_F4_V1.26.0/Middlewares/Third_Party/LwIP/src/netif/slipif.c **** 
 487              		.loc 1 265 15 is_stmt 0 view .LVU154
 488 00c0 4FF4C172 		mov	r2, #386
 489 00c4 40F24221 		movw	r1, #578
 490 00c8 0E20     		movs	r0, #14
 491 00ca FFF7FEFF 		bl	pbuf_alloc
 492              	.LVL43:
 265:/Users/nhantt/STM32Cube/Repository/STM32Cube_FW_F4_V1.26.0/Middlewares/Third_Party/LwIP/src/netif/slipif.c **** 
 493              		.loc 1 265 13 view .LVU155
 494 00ce 6060     		str	r0, [r4, #4]
 267:/Users/nhantt/STM32Cube/Repository/STM32Cube_FW_F4_V1.26.0/Middlewares/Third_Party/LwIP/src/netif/slipif.c ****       LINK_STATS_INC(link.drop);
 495              		.loc 1 267 5 is_stmt 1 view .LVU156
 267:/Users/nhantt/STM32Cube/Repository/STM32Cube_FW_F4_V1.26.0/Middlewares/Third_Party/LwIP/src/netif/slipif.c ****       LINK_STATS_INC(link.drop);
 496              		.loc 1 267 8 is_stmt 0 view .LVU157
 497 00d0 60B1     		cbz	r0, .L24
 274:/Users/nhantt/STM32Cube/Repository/STM32Cube_FW_F4_V1.26.0/Middlewares/Third_Party/LwIP/src/netif/slipif.c ****       /* 'chain' the pbuf to the existing chain */
 498              		.loc 1 274 5 is_stmt 1 view .LVU158
 274:/Users/nhantt/STM32Cube/Repository/STM32Cube_FW_F4_V1.26.0/Middlewares/Third_Party/LwIP/src/netif/slipif.c ****       /* 'chain' the pbuf to the existing chain */
 499              		.loc 1 274 13 is_stmt 0 view .LVU159
 500 00d2 A368     		ldr	r3, [r4, #8]
 274:/Users/nhantt/STM32Cube/Repository/STM32Cube_FW_F4_V1.26.0/Middlewares/Third_Party/LwIP/src/netif/slipif.c ****       /* 'chain' the pbuf to the existing chain */
 501              		.loc 1 274 8 view .LVU160
 502 00d4 23B1     		cbz	r3, .L35
 276:/Users/nhantt/STM32Cube/Repository/STM32Cube_FW_F4_V1.26.0/Middlewares/Third_Party/LwIP/src/netif/slipif.c ****     } else {
 503              		.loc 1 276 7 is_stmt 1 view .LVU161
 504 00d6 0146     		mov	r1, r0
 505 00d8 1846     		mov	r0, r3
 506 00da FFF7FEFF 		bl	pbuf_cat
 507              	.LVL44:
 508 00de A0E7     		b	.L34
 509              	.L35:
 279:/Users/nhantt/STM32Cube/Repository/STM32Cube_FW_F4_V1.26.0/Middlewares/Third_Party/LwIP/src/netif/slipif.c ****     }
 510              		.loc 1 279 7 view .LVU162
 279:/Users/nhantt/STM32Cube/Repository/STM32Cube_FW_F4_V1.26.0/Middlewares/Third_Party/LwIP/src/netif/slipif.c ****     }
 511              		.loc 1 279 15 is_stmt 0 view .LVU163
 512 00e0 A060     		str	r0, [r4, #8]
 513 00e2 9EE7     		b	.L34
 514              	.L36:
 297:/Users/nhantt/STM32Cube/Repository/STM32Cube_FW_F4_V1.26.0/Middlewares/Third_Party/LwIP/src/netif/slipif.c ****       }
 515              		.loc 1 297 9 is_stmt 1 view .LVU164
 297:/Users/nhantt/STM32Cube/Repository/STM32Cube_FW_F4_V1.26.0/Middlewares/Third_Party/LwIP/src/netif/slipif.c ****       }
 516              		.loc 1 297 17 is_stmt 0 view .LVU165
 517 00e4 0020     		movs	r0, #0
 518 00e6 6060     		str	r0, [r4, #4]
ARM GAS  /var/folders/k2/cd9bl_j17z77g23y6ffqb_400000gn/T//ccOYpq1j.s 			page 17


 519 00e8 00E0     		b	.L24
 520              	.L39:
 521              		.loc 1 301 10 view .LVU166
 522 00ea 0020     		movs	r0, #0
 523              	.LVL45:
 524              	.L24:
 302:/Users/nhantt/STM32Cube/Repository/STM32Cube_FW_F4_V1.26.0/Middlewares/Third_Party/LwIP/src/netif/slipif.c **** }
 525              		.loc 1 302 1 view .LVU167
 526 00ec 38BD     		pop	{r3, r4, r5, pc}
 527              	.LVL46:
 528              	.L40:
 301:/Users/nhantt/STM32Cube/Repository/STM32Cube_FW_F4_V1.26.0/Middlewares/Third_Party/LwIP/src/netif/slipif.c **** }
 529              		.loc 1 301 10 view .LVU168
 530 00ee 0020     		movs	r0, #0
 531 00f0 FCE7     		b	.L24
 532              	.L47:
 533 00f2 00BF     		.align	2
 534              	.L46:
 535 00f4 00000000 		.word	.LC0
 536 00f8 6C000000 		.word	.LC1
 537 00fc 7C000000 		.word	.LC2
 538 0100 A4000000 		.word	.LC3
 539              		.cfi_endproc
 540              	.LFE157:
 542              		.section	.text.slipif_rxbyte_input,"ax",%progbits
 543              		.align	1
 544              		.syntax unified
 545              		.thumb
 546              		.thumb_func
 547              		.fpu fpv4-sp-d16
 549              	slipif_rxbyte_input:
 550              	.LVL47:
 551              	.LFB158:
 303:/Users/nhantt/STM32Cube/Repository/STM32Cube_FW_F4_V1.26.0/Middlewares/Third_Party/LwIP/src/netif/slipif.c **** 
 304:/Users/nhantt/STM32Cube/Repository/STM32Cube_FW_F4_V1.26.0/Middlewares/Third_Party/LwIP/src/netif/slipif.c **** /** Like slipif_rxbyte, but passes completed packets to netif->input
 305:/Users/nhantt/STM32Cube/Repository/STM32Cube_FW_F4_V1.26.0/Middlewares/Third_Party/LwIP/src/netif/slipif.c ****  *
 306:/Users/nhantt/STM32Cube/Repository/STM32Cube_FW_F4_V1.26.0/Middlewares/Third_Party/LwIP/src/netif/slipif.c ****  * @param netif The lwip network interface structure for this slipif
 307:/Users/nhantt/STM32Cube/Repository/STM32Cube_FW_F4_V1.26.0/Middlewares/Third_Party/LwIP/src/netif/slipif.c ****  * @param c received character
 308:/Users/nhantt/STM32Cube/Repository/STM32Cube_FW_F4_V1.26.0/Middlewares/Third_Party/LwIP/src/netif/slipif.c ****  */
 309:/Users/nhantt/STM32Cube/Repository/STM32Cube_FW_F4_V1.26.0/Middlewares/Third_Party/LwIP/src/netif/slipif.c **** static void
 310:/Users/nhantt/STM32Cube/Repository/STM32Cube_FW_F4_V1.26.0/Middlewares/Third_Party/LwIP/src/netif/slipif.c **** slipif_rxbyte_input(struct netif *netif, u8_t c)
 311:/Users/nhantt/STM32Cube/Repository/STM32Cube_FW_F4_V1.26.0/Middlewares/Third_Party/LwIP/src/netif/slipif.c **** {
 552              		.loc 1 311 1 is_stmt 1 view -0
 553              		.cfi_startproc
 554              		@ args = 0, pretend = 0, frame = 0
 555              		@ frame_needed = 0, uses_anonymous_args = 0
 556              		.loc 1 311 1 is_stmt 0 view .LVU170
 557 0000 38B5     		push	{r3, r4, r5, lr}
 558              	.LCFI3:
 559              		.cfi_def_cfa_offset 16
 560              		.cfi_offset 3, -16
 561              		.cfi_offset 4, -12
 562              		.cfi_offset 5, -8
 563              		.cfi_offset 14, -4
 564 0002 0446     		mov	r4, r0
 312:/Users/nhantt/STM32Cube/Repository/STM32Cube_FW_F4_V1.26.0/Middlewares/Third_Party/LwIP/src/netif/slipif.c ****   struct pbuf *p;
 565              		.loc 1 312 3 is_stmt 1 view .LVU171
ARM GAS  /var/folders/k2/cd9bl_j17z77g23y6ffqb_400000gn/T//ccOYpq1j.s 			page 18


 313:/Users/nhantt/STM32Cube/Repository/STM32Cube_FW_F4_V1.26.0/Middlewares/Third_Party/LwIP/src/netif/slipif.c ****   p = slipif_rxbyte(netif, c);
 566              		.loc 1 313 3 view .LVU172
 567              		.loc 1 313 7 is_stmt 0 view .LVU173
 568 0004 FFF7FEFF 		bl	slipif_rxbyte
 569              	.LVL48:
 314:/Users/nhantt/STM32Cube/Repository/STM32Cube_FW_F4_V1.26.0/Middlewares/Third_Party/LwIP/src/netif/slipif.c ****   if (p != NULL) {
 570              		.loc 1 314 3 is_stmt 1 view .LVU174
 571              		.loc 1 314 6 is_stmt 0 view .LVU175
 572 0008 20B1     		cbz	r0, .L48
 573 000a 0546     		mov	r5, r0
 315:/Users/nhantt/STM32Cube/Repository/STM32Cube_FW_F4_V1.26.0/Middlewares/Third_Party/LwIP/src/netif/slipif.c ****     if (netif->input(p, netif) != ERR_OK) {
 574              		.loc 1 315 5 is_stmt 1 view .LVU176
 575              		.loc 1 315 14 is_stmt 0 view .LVU177
 576 000c 2369     		ldr	r3, [r4, #16]
 577              		.loc 1 315 9 view .LVU178
 578 000e 2146     		mov	r1, r4
 579 0010 9847     		blx	r3
 580              	.LVL49:
 581              		.loc 1 315 8 view .LVU179
 582 0012 00B9     		cbnz	r0, .L51
 583              	.LVL50:
 584              	.L48:
 316:/Users/nhantt/STM32Cube/Repository/STM32Cube_FW_F4_V1.26.0/Middlewares/Third_Party/LwIP/src/netif/slipif.c ****       pbuf_free(p);
 317:/Users/nhantt/STM32Cube/Repository/STM32Cube_FW_F4_V1.26.0/Middlewares/Third_Party/LwIP/src/netif/slipif.c ****     }
 318:/Users/nhantt/STM32Cube/Repository/STM32Cube_FW_F4_V1.26.0/Middlewares/Third_Party/LwIP/src/netif/slipif.c ****   }
 319:/Users/nhantt/STM32Cube/Repository/STM32Cube_FW_F4_V1.26.0/Middlewares/Third_Party/LwIP/src/netif/slipif.c **** }
 585              		.loc 1 319 1 view .LVU180
 586 0014 38BD     		pop	{r3, r4, r5, pc}
 587              	.LVL51:
 588              	.L51:
 316:/Users/nhantt/STM32Cube/Repository/STM32Cube_FW_F4_V1.26.0/Middlewares/Third_Party/LwIP/src/netif/slipif.c ****       pbuf_free(p);
 589              		.loc 1 316 7 is_stmt 1 view .LVU181
 590 0016 2846     		mov	r0, r5
 591 0018 FFF7FEFF 		bl	pbuf_free
 592              	.LVL52:
 593              		.loc 1 319 1 is_stmt 0 view .LVU182
 594 001c FAE7     		b	.L48
 595              		.cfi_endproc
 596              	.LFE158:
 598              		.section	.rodata.slipif_init.str1.4,"aMS",%progbits,1
 599              		.align	2
 600              	.LC5:
 601 0000 736C6970 		.ascii	"slipif needs an input callback\000"
 601      6966206E 
 601      65656473 
 601      20616E20 
 601      696E7075 
 602              		.section	.text.slipif_init,"ax",%progbits
 603              		.align	1
 604              		.global	slipif_init
 605              		.syntax unified
 606              		.thumb
 607              		.thumb_func
 608              		.fpu fpv4-sp-d16
 610              	slipif_init:
 611              	.LVL53:
 612              	.LFB159:
ARM GAS  /var/folders/k2/cd9bl_j17z77g23y6ffqb_400000gn/T//ccOYpq1j.s 			page 19


 320:/Users/nhantt/STM32Cube/Repository/STM32Cube_FW_F4_V1.26.0/Middlewares/Third_Party/LwIP/src/netif/slipif.c **** 
 321:/Users/nhantt/STM32Cube/Repository/STM32Cube_FW_F4_V1.26.0/Middlewares/Third_Party/LwIP/src/netif/slipif.c **** #if SLIP_USE_RX_THREAD
 322:/Users/nhantt/STM32Cube/Repository/STM32Cube_FW_F4_V1.26.0/Middlewares/Third_Party/LwIP/src/netif/slipif.c **** /**
 323:/Users/nhantt/STM32Cube/Repository/STM32Cube_FW_F4_V1.26.0/Middlewares/Third_Party/LwIP/src/netif/slipif.c ****  * The SLIP input thread.
 324:/Users/nhantt/STM32Cube/Repository/STM32Cube_FW_F4_V1.26.0/Middlewares/Third_Party/LwIP/src/netif/slipif.c ****  *
 325:/Users/nhantt/STM32Cube/Repository/STM32Cube_FW_F4_V1.26.0/Middlewares/Third_Party/LwIP/src/netif/slipif.c ****  * Feed the IP layer with incoming packets
 326:/Users/nhantt/STM32Cube/Repository/STM32Cube_FW_F4_V1.26.0/Middlewares/Third_Party/LwIP/src/netif/slipif.c ****  *
 327:/Users/nhantt/STM32Cube/Repository/STM32Cube_FW_F4_V1.26.0/Middlewares/Third_Party/LwIP/src/netif/slipif.c ****  * @param nf the lwip network interface structure for this slipif
 328:/Users/nhantt/STM32Cube/Repository/STM32Cube_FW_F4_V1.26.0/Middlewares/Third_Party/LwIP/src/netif/slipif.c ****  */
 329:/Users/nhantt/STM32Cube/Repository/STM32Cube_FW_F4_V1.26.0/Middlewares/Third_Party/LwIP/src/netif/slipif.c **** static void
 330:/Users/nhantt/STM32Cube/Repository/STM32Cube_FW_F4_V1.26.0/Middlewares/Third_Party/LwIP/src/netif/slipif.c **** slipif_loop_thread(void *nf)
 331:/Users/nhantt/STM32Cube/Repository/STM32Cube_FW_F4_V1.26.0/Middlewares/Third_Party/LwIP/src/netif/slipif.c **** {
 332:/Users/nhantt/STM32Cube/Repository/STM32Cube_FW_F4_V1.26.0/Middlewares/Third_Party/LwIP/src/netif/slipif.c ****   u8_t c;
 333:/Users/nhantt/STM32Cube/Repository/STM32Cube_FW_F4_V1.26.0/Middlewares/Third_Party/LwIP/src/netif/slipif.c ****   struct netif *netif = (struct netif *)nf;
 334:/Users/nhantt/STM32Cube/Repository/STM32Cube_FW_F4_V1.26.0/Middlewares/Third_Party/LwIP/src/netif/slipif.c ****   struct slipif_priv *priv = (struct slipif_priv *)netif->state;
 335:/Users/nhantt/STM32Cube/Repository/STM32Cube_FW_F4_V1.26.0/Middlewares/Third_Party/LwIP/src/netif/slipif.c **** 
 336:/Users/nhantt/STM32Cube/Repository/STM32Cube_FW_F4_V1.26.0/Middlewares/Third_Party/LwIP/src/netif/slipif.c ****   while (1) {
 337:/Users/nhantt/STM32Cube/Repository/STM32Cube_FW_F4_V1.26.0/Middlewares/Third_Party/LwIP/src/netif/slipif.c ****     if (sio_read(priv->sd, &c, 1) > 0) {
 338:/Users/nhantt/STM32Cube/Repository/STM32Cube_FW_F4_V1.26.0/Middlewares/Third_Party/LwIP/src/netif/slipif.c ****       slipif_rxbyte_input(netif, c);
 339:/Users/nhantt/STM32Cube/Repository/STM32Cube_FW_F4_V1.26.0/Middlewares/Third_Party/LwIP/src/netif/slipif.c ****     }
 340:/Users/nhantt/STM32Cube/Repository/STM32Cube_FW_F4_V1.26.0/Middlewares/Third_Party/LwIP/src/netif/slipif.c ****   }
 341:/Users/nhantt/STM32Cube/Repository/STM32Cube_FW_F4_V1.26.0/Middlewares/Third_Party/LwIP/src/netif/slipif.c **** }
 342:/Users/nhantt/STM32Cube/Repository/STM32Cube_FW_F4_V1.26.0/Middlewares/Third_Party/LwIP/src/netif/slipif.c **** #endif /* SLIP_USE_RX_THREAD */
 343:/Users/nhantt/STM32Cube/Repository/STM32Cube_FW_F4_V1.26.0/Middlewares/Third_Party/LwIP/src/netif/slipif.c **** 
 344:/Users/nhantt/STM32Cube/Repository/STM32Cube_FW_F4_V1.26.0/Middlewares/Third_Party/LwIP/src/netif/slipif.c **** /**
 345:/Users/nhantt/STM32Cube/Repository/STM32Cube_FW_F4_V1.26.0/Middlewares/Third_Party/LwIP/src/netif/slipif.c ****  * @ingroup slipif
 346:/Users/nhantt/STM32Cube/Repository/STM32Cube_FW_F4_V1.26.0/Middlewares/Third_Party/LwIP/src/netif/slipif.c ****  * SLIP netif initialization
 347:/Users/nhantt/STM32Cube/Repository/STM32Cube_FW_F4_V1.26.0/Middlewares/Third_Party/LwIP/src/netif/slipif.c ****  *
 348:/Users/nhantt/STM32Cube/Repository/STM32Cube_FW_F4_V1.26.0/Middlewares/Third_Party/LwIP/src/netif/slipif.c ****  * Call the arch specific sio_open and remember
 349:/Users/nhantt/STM32Cube/Repository/STM32Cube_FW_F4_V1.26.0/Middlewares/Third_Party/LwIP/src/netif/slipif.c ****  * the opened device in the state field of the netif.
 350:/Users/nhantt/STM32Cube/Repository/STM32Cube_FW_F4_V1.26.0/Middlewares/Third_Party/LwIP/src/netif/slipif.c ****  *
 351:/Users/nhantt/STM32Cube/Repository/STM32Cube_FW_F4_V1.26.0/Middlewares/Third_Party/LwIP/src/netif/slipif.c ****  * @param netif the lwip network interface structure for this slipif
 352:/Users/nhantt/STM32Cube/Repository/STM32Cube_FW_F4_V1.26.0/Middlewares/Third_Party/LwIP/src/netif/slipif.c ****  * @return ERR_OK if serial line could be opened,
 353:/Users/nhantt/STM32Cube/Repository/STM32Cube_FW_F4_V1.26.0/Middlewares/Third_Party/LwIP/src/netif/slipif.c ****  *         ERR_MEM if no memory could be allocated,
 354:/Users/nhantt/STM32Cube/Repository/STM32Cube_FW_F4_V1.26.0/Middlewares/Third_Party/LwIP/src/netif/slipif.c ****  *         ERR_IF is serial line couldn't be opened
 355:/Users/nhantt/STM32Cube/Repository/STM32Cube_FW_F4_V1.26.0/Middlewares/Third_Party/LwIP/src/netif/slipif.c ****  *
 356:/Users/nhantt/STM32Cube/Repository/STM32Cube_FW_F4_V1.26.0/Middlewares/Third_Party/LwIP/src/netif/slipif.c ****  * @note If netif->state is interpreted as an u8_t serial port number.
 357:/Users/nhantt/STM32Cube/Repository/STM32Cube_FW_F4_V1.26.0/Middlewares/Third_Party/LwIP/src/netif/slipif.c ****  *
 358:/Users/nhantt/STM32Cube/Repository/STM32Cube_FW_F4_V1.26.0/Middlewares/Third_Party/LwIP/src/netif/slipif.c ****  */
 359:/Users/nhantt/STM32Cube/Repository/STM32Cube_FW_F4_V1.26.0/Middlewares/Third_Party/LwIP/src/netif/slipif.c **** err_t
 360:/Users/nhantt/STM32Cube/Repository/STM32Cube_FW_F4_V1.26.0/Middlewares/Third_Party/LwIP/src/netif/slipif.c **** slipif_init(struct netif *netif)
 361:/Users/nhantt/STM32Cube/Repository/STM32Cube_FW_F4_V1.26.0/Middlewares/Third_Party/LwIP/src/netif/slipif.c **** {
 613              		.loc 1 361 1 is_stmt 1 view -0
 614              		.cfi_startproc
 615              		@ args = 0, pretend = 0, frame = 0
 616              		@ frame_needed = 0, uses_anonymous_args = 0
 617              		.loc 1 361 1 is_stmt 0 view .LVU184
 618 0000 70B5     		push	{r4, r5, r6, lr}
 619              	.LCFI4:
 620              		.cfi_def_cfa_offset 16
 621              		.cfi_offset 4, -16
 622              		.cfi_offset 5, -12
 623              		.cfi_offset 6, -8
 624              		.cfi_offset 14, -4
 625 0002 0446     		mov	r4, r0
 362:/Users/nhantt/STM32Cube/Repository/STM32Cube_FW_F4_V1.26.0/Middlewares/Third_Party/LwIP/src/netif/slipif.c ****   struct slipif_priv *priv;
 626              		.loc 1 362 3 is_stmt 1 view .LVU185
ARM GAS  /var/folders/k2/cd9bl_j17z77g23y6ffqb_400000gn/T//ccOYpq1j.s 			page 20


 363:/Users/nhantt/STM32Cube/Repository/STM32Cube_FW_F4_V1.26.0/Middlewares/Third_Party/LwIP/src/netif/slipif.c ****   u8_t sio_num;
 627              		.loc 1 363 3 view .LVU186
 364:/Users/nhantt/STM32Cube/Repository/STM32Cube_FW_F4_V1.26.0/Middlewares/Third_Party/LwIP/src/netif/slipif.c **** 
 365:/Users/nhantt/STM32Cube/Repository/STM32Cube_FW_F4_V1.26.0/Middlewares/Third_Party/LwIP/src/netif/slipif.c ****   LWIP_ASSERT("slipif needs an input callback", netif->input != NULL);
 628              		.loc 1 365 3 view .LVU187
 629              		.loc 1 365 3 view .LVU188
 630 0004 0369     		ldr	r3, [r0, #16]
 631 0006 F3B1     		cbz	r3, .L58
 632              	.LVL54:
 633              	.L53:
 634              		.loc 1 365 3 discriminator 3 view .LVU189
 635              		.loc 1 365 3 discriminator 3 view .LVU190
 366:/Users/nhantt/STM32Cube/Repository/STM32Cube_FW_F4_V1.26.0/Middlewares/Third_Party/LwIP/src/netif/slipif.c **** 
 367:/Users/nhantt/STM32Cube/Repository/STM32Cube_FW_F4_V1.26.0/Middlewares/Third_Party/LwIP/src/netif/slipif.c ****   /* netif->state contains serial port number */
 368:/Users/nhantt/STM32Cube/Repository/STM32Cube_FW_F4_V1.26.0/Middlewares/Third_Party/LwIP/src/netif/slipif.c ****   sio_num = LWIP_PTR_NUMERIC_CAST(u8_t, netif->state);
 636              		.loc 1 368 3 discriminator 3 view .LVU191
 637              		.loc 1 368 11 is_stmt 0 discriminator 3 view .LVU192
 638 0008 94F82060 		ldrb	r6, [r4, #32]	@ zero_extendqisi2
 639              	.LVL55:
 369:/Users/nhantt/STM32Cube/Repository/STM32Cube_FW_F4_V1.26.0/Middlewares/Third_Party/LwIP/src/netif/slipif.c **** 
 370:/Users/nhantt/STM32Cube/Repository/STM32Cube_FW_F4_V1.26.0/Middlewares/Third_Party/LwIP/src/netif/slipif.c ****   LWIP_DEBUGF(SLIP_DEBUG, ("slipif_init: netif->num=%"U16_F"\n", (u16_t)sio_num));
 640              		.loc 1 370 82 is_stmt 1 discriminator 3 view .LVU193
 371:/Users/nhantt/STM32Cube/Repository/STM32Cube_FW_F4_V1.26.0/Middlewares/Third_Party/LwIP/src/netif/slipif.c **** 
 372:/Users/nhantt/STM32Cube/Repository/STM32Cube_FW_F4_V1.26.0/Middlewares/Third_Party/LwIP/src/netif/slipif.c ****   /* Allocate private data */
 373:/Users/nhantt/STM32Cube/Repository/STM32Cube_FW_F4_V1.26.0/Middlewares/Third_Party/LwIP/src/netif/slipif.c ****   priv = (struct slipif_priv *)mem_malloc(sizeof(struct slipif_priv));
 641              		.loc 1 373 3 discriminator 3 view .LVU194
 642              		.loc 1 373 32 is_stmt 0 discriminator 3 view .LVU195
 643 000c 1420     		movs	r0, #20
 644 000e FFF7FEFF 		bl	mem_malloc
 645              	.LVL56:
 374:/Users/nhantt/STM32Cube/Repository/STM32Cube_FW_F4_V1.26.0/Middlewares/Third_Party/LwIP/src/netif/slipif.c ****   if (!priv) {
 646              		.loc 1 374 3 is_stmt 1 discriminator 3 view .LVU196
 647              		.loc 1 374 6 is_stmt 0 discriminator 3 view .LVU197
 648 0012 0546     		mov	r5, r0
 649 0014 28B3     		cbz	r0, .L56
 375:/Users/nhantt/STM32Cube/Repository/STM32Cube_FW_F4_V1.26.0/Middlewares/Third_Party/LwIP/src/netif/slipif.c ****     return ERR_MEM;
 376:/Users/nhantt/STM32Cube/Repository/STM32Cube_FW_F4_V1.26.0/Middlewares/Third_Party/LwIP/src/netif/slipif.c ****   }
 377:/Users/nhantt/STM32Cube/Repository/STM32Cube_FW_F4_V1.26.0/Middlewares/Third_Party/LwIP/src/netif/slipif.c **** 
 378:/Users/nhantt/STM32Cube/Repository/STM32Cube_FW_F4_V1.26.0/Middlewares/Third_Party/LwIP/src/netif/slipif.c ****   netif->name[0] = 's';
 650              		.loc 1 378 3 is_stmt 1 view .LVU198
 651              		.loc 1 378 18 is_stmt 0 view .LVU199
 652 0016 7323     		movs	r3, #115
 653 0018 84F83230 		strb	r3, [r4, #50]
 379:/Users/nhantt/STM32Cube/Repository/STM32Cube_FW_F4_V1.26.0/Middlewares/Third_Party/LwIP/src/netif/slipif.c ****   netif->name[1] = 'l';
 654              		.loc 1 379 3 is_stmt 1 view .LVU200
 655              		.loc 1 379 18 is_stmt 0 view .LVU201
 656 001c 6C23     		movs	r3, #108
 657 001e 84F83330 		strb	r3, [r4, #51]
 380:/Users/nhantt/STM32Cube/Repository/STM32Cube_FW_F4_V1.26.0/Middlewares/Third_Party/LwIP/src/netif/slipif.c **** #if LWIP_IPV4
 381:/Users/nhantt/STM32Cube/Repository/STM32Cube_FW_F4_V1.26.0/Middlewares/Third_Party/LwIP/src/netif/slipif.c ****   netif->output = slipif_output_v4;
 658              		.loc 1 381 3 is_stmt 1 view .LVU202
 659              		.loc 1 381 17 is_stmt 0 view .LVU203
 660 0022 114B     		ldr	r3, .L60
 661 0024 6361     		str	r3, [r4, #20]
 382:/Users/nhantt/STM32Cube/Repository/STM32Cube_FW_F4_V1.26.0/Middlewares/Third_Party/LwIP/src/netif/slipif.c **** #endif /* LWIP_IPV4 */
 383:/Users/nhantt/STM32Cube/Repository/STM32Cube_FW_F4_V1.26.0/Middlewares/Third_Party/LwIP/src/netif/slipif.c **** #if LWIP_IPV6
 384:/Users/nhantt/STM32Cube/Repository/STM32Cube_FW_F4_V1.26.0/Middlewares/Third_Party/LwIP/src/netif/slipif.c ****   netif->output_ip6 = slipif_output_v6;
ARM GAS  /var/folders/k2/cd9bl_j17z77g23y6ffqb_400000gn/T//ccOYpq1j.s 			page 21


 385:/Users/nhantt/STM32Cube/Repository/STM32Cube_FW_F4_V1.26.0/Middlewares/Third_Party/LwIP/src/netif/slipif.c **** #endif /* LWIP_IPV6 */
 386:/Users/nhantt/STM32Cube/Repository/STM32Cube_FW_F4_V1.26.0/Middlewares/Third_Party/LwIP/src/netif/slipif.c ****   netif->mtu = SLIP_MAX_SIZE;
 662              		.loc 1 386 3 is_stmt 1 view .LVU204
 663              		.loc 1 386 14 is_stmt 0 view .LVU205
 664 0026 40F2DC53 		movw	r3, #1500
 665 002a 2385     		strh	r3, [r4, #40]	@ movhi
 387:/Users/nhantt/STM32Cube/Repository/STM32Cube_FW_F4_V1.26.0/Middlewares/Third_Party/LwIP/src/netif/slipif.c **** 
 388:/Users/nhantt/STM32Cube/Repository/STM32Cube_FW_F4_V1.26.0/Middlewares/Third_Party/LwIP/src/netif/slipif.c ****   /* Try to open the serial port. */
 389:/Users/nhantt/STM32Cube/Repository/STM32Cube_FW_F4_V1.26.0/Middlewares/Third_Party/LwIP/src/netif/slipif.c ****   priv->sd = sio_open(sio_num);
 666              		.loc 1 389 3 is_stmt 1 view .LVU206
 667              		.loc 1 389 14 is_stmt 0 view .LVU207
 668 002c 3046     		mov	r0, r6
 669              	.LVL57:
 670              		.loc 1 389 14 view .LVU208
 671 002e FFF7FEFF 		bl	sio_open
 672              	.LVL58:
 673              		.loc 1 389 12 view .LVU209
 674 0032 2860     		str	r0, [r5]
 390:/Users/nhantt/STM32Cube/Repository/STM32Cube_FW_F4_V1.26.0/Middlewares/Third_Party/LwIP/src/netif/slipif.c ****   if (!priv->sd) {
 675              		.loc 1 390 3 is_stmt 1 view .LVU210
 676              		.loc 1 390 6 is_stmt 0 view .LVU211
 677 0034 78B1     		cbz	r0, .L59
 391:/Users/nhantt/STM32Cube/Repository/STM32Cube_FW_F4_V1.26.0/Middlewares/Third_Party/LwIP/src/netif/slipif.c ****     /* Opening the serial port failed. */
 392:/Users/nhantt/STM32Cube/Repository/STM32Cube_FW_F4_V1.26.0/Middlewares/Third_Party/LwIP/src/netif/slipif.c ****     mem_free(priv);
 393:/Users/nhantt/STM32Cube/Repository/STM32Cube_FW_F4_V1.26.0/Middlewares/Third_Party/LwIP/src/netif/slipif.c ****     return ERR_IF;
 394:/Users/nhantt/STM32Cube/Repository/STM32Cube_FW_F4_V1.26.0/Middlewares/Third_Party/LwIP/src/netif/slipif.c ****   }
 395:/Users/nhantt/STM32Cube/Repository/STM32Cube_FW_F4_V1.26.0/Middlewares/Third_Party/LwIP/src/netif/slipif.c **** 
 396:/Users/nhantt/STM32Cube/Repository/STM32Cube_FW_F4_V1.26.0/Middlewares/Third_Party/LwIP/src/netif/slipif.c ****   /* Initialize private data */
 397:/Users/nhantt/STM32Cube/Repository/STM32Cube_FW_F4_V1.26.0/Middlewares/Third_Party/LwIP/src/netif/slipif.c ****   priv->p = NULL;
 678              		.loc 1 397 3 is_stmt 1 view .LVU212
 679              		.loc 1 397 11 is_stmt 0 view .LVU213
 680 0036 0020     		movs	r0, #0
 681 0038 6860     		str	r0, [r5, #4]
 398:/Users/nhantt/STM32Cube/Repository/STM32Cube_FW_F4_V1.26.0/Middlewares/Third_Party/LwIP/src/netif/slipif.c ****   priv->q = NULL;
 682              		.loc 1 398 3 is_stmt 1 view .LVU214
 683              		.loc 1 398 11 is_stmt 0 view .LVU215
 684 003a A860     		str	r0, [r5, #8]
 399:/Users/nhantt/STM32Cube/Repository/STM32Cube_FW_F4_V1.26.0/Middlewares/Third_Party/LwIP/src/netif/slipif.c ****   priv->state = SLIP_RECV_NORMAL;
 685              		.loc 1 399 3 is_stmt 1 view .LVU216
 686              		.loc 1 399 15 is_stmt 0 view .LVU217
 687 003c 2873     		strb	r0, [r5, #12]
 400:/Users/nhantt/STM32Cube/Repository/STM32Cube_FW_F4_V1.26.0/Middlewares/Third_Party/LwIP/src/netif/slipif.c ****   priv->i = 0;
 688              		.loc 1 400 3 is_stmt 1 view .LVU218
 689              		.loc 1 400 11 is_stmt 0 view .LVU219
 690 003e E881     		strh	r0, [r5, #14]	@ movhi
 401:/Users/nhantt/STM32Cube/Repository/STM32Cube_FW_F4_V1.26.0/Middlewares/Third_Party/LwIP/src/netif/slipif.c ****   priv->recved = 0;
 691              		.loc 1 401 3 is_stmt 1 view .LVU220
 692              		.loc 1 401 16 is_stmt 0 view .LVU221
 693 0040 2882     		strh	r0, [r5, #16]	@ movhi
 402:/Users/nhantt/STM32Cube/Repository/STM32Cube_FW_F4_V1.26.0/Middlewares/Third_Party/LwIP/src/netif/slipif.c **** #if SLIP_RX_FROM_ISR
 403:/Users/nhantt/STM32Cube/Repository/STM32Cube_FW_F4_V1.26.0/Middlewares/Third_Party/LwIP/src/netif/slipif.c ****   priv->rxpackets = NULL;
 404:/Users/nhantt/STM32Cube/Repository/STM32Cube_FW_F4_V1.26.0/Middlewares/Third_Party/LwIP/src/netif/slipif.c **** #endif
 405:/Users/nhantt/STM32Cube/Repository/STM32Cube_FW_F4_V1.26.0/Middlewares/Third_Party/LwIP/src/netif/slipif.c **** 
 406:/Users/nhantt/STM32Cube/Repository/STM32Cube_FW_F4_V1.26.0/Middlewares/Third_Party/LwIP/src/netif/slipif.c ****   netif->state = priv;
 694              		.loc 1 406 3 is_stmt 1 view .LVU222
 695              		.loc 1 406 16 is_stmt 0 view .LVU223
 696 0042 2562     		str	r5, [r4, #32]
ARM GAS  /var/folders/k2/cd9bl_j17z77g23y6ffqb_400000gn/T//ccOYpq1j.s 			page 22


 407:/Users/nhantt/STM32Cube/Repository/STM32Cube_FW_F4_V1.26.0/Middlewares/Third_Party/LwIP/src/netif/slipif.c **** 
 408:/Users/nhantt/STM32Cube/Repository/STM32Cube_FW_F4_V1.26.0/Middlewares/Third_Party/LwIP/src/netif/slipif.c ****   /* initialize the snmp variables and counters inside the struct netif */
 409:/Users/nhantt/STM32Cube/Repository/STM32Cube_FW_F4_V1.26.0/Middlewares/Third_Party/LwIP/src/netif/slipif.c ****   MIB2_INIT_NETIF(netif, snmp_ifType_slip, SLIP_SIO_SPEED(priv->sd));
 697              		.loc 1 409 69 is_stmt 1 view .LVU224
 410:/Users/nhantt/STM32Cube/Repository/STM32Cube_FW_F4_V1.26.0/Middlewares/Third_Party/LwIP/src/netif/slipif.c **** 
 411:/Users/nhantt/STM32Cube/Repository/STM32Cube_FW_F4_V1.26.0/Middlewares/Third_Party/LwIP/src/netif/slipif.c **** #if SLIP_USE_RX_THREAD
 412:/Users/nhantt/STM32Cube/Repository/STM32Cube_FW_F4_V1.26.0/Middlewares/Third_Party/LwIP/src/netif/slipif.c ****   /* Create a thread to poll the serial line. */
 413:/Users/nhantt/STM32Cube/Repository/STM32Cube_FW_F4_V1.26.0/Middlewares/Third_Party/LwIP/src/netif/slipif.c ****   sys_thread_new(SLIPIF_THREAD_NAME, slipif_loop_thread, netif,
 414:/Users/nhantt/STM32Cube/Repository/STM32Cube_FW_F4_V1.26.0/Middlewares/Third_Party/LwIP/src/netif/slipif.c ****                  SLIPIF_THREAD_STACKSIZE, SLIPIF_THREAD_PRIO);
 415:/Users/nhantt/STM32Cube/Repository/STM32Cube_FW_F4_V1.26.0/Middlewares/Third_Party/LwIP/src/netif/slipif.c **** #endif /* SLIP_USE_RX_THREAD */
 416:/Users/nhantt/STM32Cube/Repository/STM32Cube_FW_F4_V1.26.0/Middlewares/Third_Party/LwIP/src/netif/slipif.c ****   return ERR_OK;
 698              		.loc 1 416 3 view .LVU225
 699              	.L54:
 417:/Users/nhantt/STM32Cube/Repository/STM32Cube_FW_F4_V1.26.0/Middlewares/Third_Party/LwIP/src/netif/slipif.c **** }
 700              		.loc 1 417 1 is_stmt 0 view .LVU226
 701 0044 70BD     		pop	{r4, r5, r6, pc}
 702              	.LVL59:
 703              	.L58:
 365:/Users/nhantt/STM32Cube/Repository/STM32Cube_FW_F4_V1.26.0/Middlewares/Third_Party/LwIP/src/netif/slipif.c **** 
 704              		.loc 1 365 3 is_stmt 1 discriminator 1 view .LVU227
 365:/Users/nhantt/STM32Cube/Repository/STM32Cube_FW_F4_V1.26.0/Middlewares/Third_Party/LwIP/src/netif/slipif.c **** 
 705              		.loc 1 365 3 discriminator 1 view .LVU228
 706 0046 094B     		ldr	r3, .L60+4
 707 0048 40F26D12 		movw	r2, #365
 708 004c 0849     		ldr	r1, .L60+8
 709 004e 0948     		ldr	r0, .L60+12
 710              	.LVL60:
 365:/Users/nhantt/STM32Cube/Repository/STM32Cube_FW_F4_V1.26.0/Middlewares/Third_Party/LwIP/src/netif/slipif.c **** 
 711              		.loc 1 365 3 is_stmt 0 discriminator 1 view .LVU229
 712 0050 FFF7FEFF 		bl	printf
 713              	.LVL61:
 714 0054 D8E7     		b	.L53
 715              	.LVL62:
 716              	.L59:
 392:/Users/nhantt/STM32Cube/Repository/STM32Cube_FW_F4_V1.26.0/Middlewares/Third_Party/LwIP/src/netif/slipif.c ****     return ERR_IF;
 717              		.loc 1 392 5 is_stmt 1 view .LVU230
 718 0056 2846     		mov	r0, r5
 719 0058 FFF7FEFF 		bl	mem_free
 720              	.LVL63:
 393:/Users/nhantt/STM32Cube/Repository/STM32Cube_FW_F4_V1.26.0/Middlewares/Third_Party/LwIP/src/netif/slipif.c ****   }
 721              		.loc 1 393 5 view .LVU231
 393:/Users/nhantt/STM32Cube/Repository/STM32Cube_FW_F4_V1.26.0/Middlewares/Third_Party/LwIP/src/netif/slipif.c ****   }
 722              		.loc 1 393 12 is_stmt 0 view .LVU232
 723 005c 6FF00B00 		mvn	r0, #11
 724 0060 F0E7     		b	.L54
 725              	.LVL64:
 726              	.L56:
 375:/Users/nhantt/STM32Cube/Repository/STM32Cube_FW_F4_V1.26.0/Middlewares/Third_Party/LwIP/src/netif/slipif.c ****   }
 727              		.loc 1 375 12 view .LVU233
 728 0062 4FF0FF30 		mov	r0, #-1
 729              	.LVL65:
 375:/Users/nhantt/STM32Cube/Repository/STM32Cube_FW_F4_V1.26.0/Middlewares/Third_Party/LwIP/src/netif/slipif.c ****   }
 730              		.loc 1 375 12 view .LVU234
 731 0066 EDE7     		b	.L54
 732              	.L61:
 733              		.align	2
 734              	.L60:
ARM GAS  /var/folders/k2/cd9bl_j17z77g23y6ffqb_400000gn/T//ccOYpq1j.s 			page 23


 735 0068 00000000 		.word	slipif_output_v4
 736 006c 00000000 		.word	.LC0
 737 0070 00000000 		.word	.LC5
 738 0074 7C000000 		.word	.LC2
 739              		.cfi_endproc
 740              	.LFE159:
 742              		.section	.text.slipif_poll,"ax",%progbits
 743              		.align	1
 744              		.global	slipif_poll
 745              		.syntax unified
 746              		.thumb
 747              		.thumb_func
 748              		.fpu fpv4-sp-d16
 750              	slipif_poll:
 751              	.LVL66:
 752              	.LFB160:
 418:/Users/nhantt/STM32Cube/Repository/STM32Cube_FW_F4_V1.26.0/Middlewares/Third_Party/LwIP/src/netif/slipif.c **** 
 419:/Users/nhantt/STM32Cube/Repository/STM32Cube_FW_F4_V1.26.0/Middlewares/Third_Party/LwIP/src/netif/slipif.c **** /**
 420:/Users/nhantt/STM32Cube/Repository/STM32Cube_FW_F4_V1.26.0/Middlewares/Third_Party/LwIP/src/netif/slipif.c ****  * @ingroup slipif
 421:/Users/nhantt/STM32Cube/Repository/STM32Cube_FW_F4_V1.26.0/Middlewares/Third_Party/LwIP/src/netif/slipif.c ****  * Polls the serial device and feeds the IP layer with incoming packets.
 422:/Users/nhantt/STM32Cube/Repository/STM32Cube_FW_F4_V1.26.0/Middlewares/Third_Party/LwIP/src/netif/slipif.c ****  *
 423:/Users/nhantt/STM32Cube/Repository/STM32Cube_FW_F4_V1.26.0/Middlewares/Third_Party/LwIP/src/netif/slipif.c ****  * @param netif The lwip network interface structure for this slipif
 424:/Users/nhantt/STM32Cube/Repository/STM32Cube_FW_F4_V1.26.0/Middlewares/Third_Party/LwIP/src/netif/slipif.c ****  */
 425:/Users/nhantt/STM32Cube/Repository/STM32Cube_FW_F4_V1.26.0/Middlewares/Third_Party/LwIP/src/netif/slipif.c **** void
 426:/Users/nhantt/STM32Cube/Repository/STM32Cube_FW_F4_V1.26.0/Middlewares/Third_Party/LwIP/src/netif/slipif.c **** slipif_poll(struct netif *netif)
 427:/Users/nhantt/STM32Cube/Repository/STM32Cube_FW_F4_V1.26.0/Middlewares/Third_Party/LwIP/src/netif/slipif.c **** {
 753              		.loc 1 427 1 is_stmt 1 view -0
 754              		.cfi_startproc
 755              		@ args = 0, pretend = 0, frame = 8
 756              		@ frame_needed = 0, uses_anonymous_args = 0
 757              		.loc 1 427 1 is_stmt 0 view .LVU236
 758 0000 30B5     		push	{r4, r5, lr}
 759              	.LCFI5:
 760              		.cfi_def_cfa_offset 12
 761              		.cfi_offset 4, -12
 762              		.cfi_offset 5, -8
 763              		.cfi_offset 14, -4
 764 0002 83B0     		sub	sp, sp, #12
 765              	.LCFI6:
 766              		.cfi_def_cfa_offset 24
 428:/Users/nhantt/STM32Cube/Repository/STM32Cube_FW_F4_V1.26.0/Middlewares/Third_Party/LwIP/src/netif/slipif.c ****   u8_t c;
 767              		.loc 1 428 3 is_stmt 1 view .LVU237
 429:/Users/nhantt/STM32Cube/Repository/STM32Cube_FW_F4_V1.26.0/Middlewares/Third_Party/LwIP/src/netif/slipif.c ****   struct slipif_priv *priv;
 768              		.loc 1 429 3 view .LVU238
 430:/Users/nhantt/STM32Cube/Repository/STM32Cube_FW_F4_V1.26.0/Middlewares/Third_Party/LwIP/src/netif/slipif.c **** 
 431:/Users/nhantt/STM32Cube/Repository/STM32Cube_FW_F4_V1.26.0/Middlewares/Third_Party/LwIP/src/netif/slipif.c ****   LWIP_ASSERT("netif != NULL", (netif != NULL));
 769              		.loc 1 431 3 view .LVU239
 770              		.loc 1 431 3 view .LVU240
 771 0004 0446     		mov	r4, r0
 772 0006 18B1     		cbz	r0, .L68
 773              	.LVL67:
 774              	.L63:
 775              		.loc 1 431 3 discriminator 3 view .LVU241
 776              		.loc 1 431 3 discriminator 3 view .LVU242
 432:/Users/nhantt/STM32Cube/Repository/STM32Cube_FW_F4_V1.26.0/Middlewares/Third_Party/LwIP/src/netif/slipif.c ****   LWIP_ASSERT("netif->state != NULL", (netif->state != NULL));
 777              		.loc 1 432 3 discriminator 3 view .LVU243
 778              		.loc 1 432 3 discriminator 3 view .LVU244
ARM GAS  /var/folders/k2/cd9bl_j17z77g23y6ffqb_400000gn/T//ccOYpq1j.s 			page 24


 779 0008 236A     		ldr	r3, [r4, #32]
 780 000a 4BB1     		cbz	r3, .L69
 781              	.L64:
 782              		.loc 1 432 3 discriminator 3 view .LVU245
 783              		.loc 1 432 3 discriminator 3 view .LVU246
 433:/Users/nhantt/STM32Cube/Repository/STM32Cube_FW_F4_V1.26.0/Middlewares/Third_Party/LwIP/src/netif/slipif.c **** 
 434:/Users/nhantt/STM32Cube/Repository/STM32Cube_FW_F4_V1.26.0/Middlewares/Third_Party/LwIP/src/netif/slipif.c ****   priv = (struct slipif_priv *)netif->state;
 784              		.loc 1 434 3 discriminator 3 view .LVU247
 785              		.loc 1 434 8 is_stmt 0 discriminator 3 view .LVU248
 786 000c 256A     		ldr	r5, [r4, #32]
 787              	.LVL68:
 435:/Users/nhantt/STM32Cube/Repository/STM32Cube_FW_F4_V1.26.0/Middlewares/Third_Party/LwIP/src/netif/slipif.c **** 
 436:/Users/nhantt/STM32Cube/Repository/STM32Cube_FW_F4_V1.26.0/Middlewares/Third_Party/LwIP/src/netif/slipif.c ****   while (sio_tryread(priv->sd, &c, 1) > 0) {
 788              		.loc 1 436 3 is_stmt 1 discriminator 3 view .LVU249
 789              		.loc 1 436 9 is_stmt 0 discriminator 3 view .LVU250
 790 000e 14E0     		b	.L65
 791              	.LVL69:
 792              	.L68:
 431:/Users/nhantt/STM32Cube/Repository/STM32Cube_FW_F4_V1.26.0/Middlewares/Third_Party/LwIP/src/netif/slipif.c ****   LWIP_ASSERT("netif->state != NULL", (netif->state != NULL));
 793              		.loc 1 431 3 is_stmt 1 discriminator 1 view .LVU251
 431:/Users/nhantt/STM32Cube/Repository/STM32Cube_FW_F4_V1.26.0/Middlewares/Third_Party/LwIP/src/netif/slipif.c ****   LWIP_ASSERT("netif->state != NULL", (netif->state != NULL));
 794              		.loc 1 431 3 discriminator 1 view .LVU252
 795 0010 0F4B     		ldr	r3, .L70
 796 0012 40F2AF12 		movw	r2, #431
 797 0016 0F49     		ldr	r1, .L70+4
 798 0018 0F48     		ldr	r0, .L70+8
 799              	.LVL70:
 431:/Users/nhantt/STM32Cube/Repository/STM32Cube_FW_F4_V1.26.0/Middlewares/Third_Party/LwIP/src/netif/slipif.c ****   LWIP_ASSERT("netif->state != NULL", (netif->state != NULL));
 800              		.loc 1 431 3 is_stmt 0 discriminator 1 view .LVU253
 801 001a FFF7FEFF 		bl	printf
 802              	.LVL71:
 803 001e F3E7     		b	.L63
 804              	.L69:
 432:/Users/nhantt/STM32Cube/Repository/STM32Cube_FW_F4_V1.26.0/Middlewares/Third_Party/LwIP/src/netif/slipif.c **** 
 805              		.loc 1 432 3 is_stmt 1 discriminator 1 view .LVU254
 432:/Users/nhantt/STM32Cube/Repository/STM32Cube_FW_F4_V1.26.0/Middlewares/Third_Party/LwIP/src/netif/slipif.c **** 
 806              		.loc 1 432 3 discriminator 1 view .LVU255
 807 0020 0B4B     		ldr	r3, .L70
 808 0022 4FF4D872 		mov	r2, #432
 809 0026 0D49     		ldr	r1, .L70+12
 810 0028 0B48     		ldr	r0, .L70+8
 811 002a FFF7FEFF 		bl	printf
 812              	.LVL72:
 813 002e EDE7     		b	.L64
 814              	.LVL73:
 815              	.L66:
 437:/Users/nhantt/STM32Cube/Repository/STM32Cube_FW_F4_V1.26.0/Middlewares/Third_Party/LwIP/src/netif/slipif.c ****     slipif_rxbyte_input(netif, c);
 816              		.loc 1 437 5 view .LVU256
 817 0030 9DF80710 		ldrb	r1, [sp, #7]	@ zero_extendqisi2
 818 0034 2046     		mov	r0, r4
 819 0036 FFF7FEFF 		bl	slipif_rxbyte_input
 820              	.LVL74:
 821              	.L65:
 436:/Users/nhantt/STM32Cube/Repository/STM32Cube_FW_F4_V1.26.0/Middlewares/Third_Party/LwIP/src/netif/slipif.c ****     slipif_rxbyte_input(netif, c);
 822              		.loc 1 436 9 view .LVU257
 436:/Users/nhantt/STM32Cube/Repository/STM32Cube_FW_F4_V1.26.0/Middlewares/Third_Party/LwIP/src/netif/slipif.c ****     slipif_rxbyte_input(netif, c);
 823              		.loc 1 436 10 is_stmt 0 view .LVU258
ARM GAS  /var/folders/k2/cd9bl_j17z77g23y6ffqb_400000gn/T//ccOYpq1j.s 			page 25


 824 003a 0122     		movs	r2, #1
 825 003c 0DF10701 		add	r1, sp, #7
 826 0040 2868     		ldr	r0, [r5]
 827 0042 FFF7FEFF 		bl	sio_tryread
 828              	.LVL75:
 436:/Users/nhantt/STM32Cube/Repository/STM32Cube_FW_F4_V1.26.0/Middlewares/Third_Party/LwIP/src/netif/slipif.c ****     slipif_rxbyte_input(netif, c);
 829              		.loc 1 436 9 view .LVU259
 830 0046 0028     		cmp	r0, #0
 831 0048 F2D1     		bne	.L66
 438:/Users/nhantt/STM32Cube/Repository/STM32Cube_FW_F4_V1.26.0/Middlewares/Third_Party/LwIP/src/netif/slipif.c ****   }
 439:/Users/nhantt/STM32Cube/Repository/STM32Cube_FW_F4_V1.26.0/Middlewares/Third_Party/LwIP/src/netif/slipif.c **** }
 832              		.loc 1 439 1 view .LVU260
 833 004a 03B0     		add	sp, sp, #12
 834              	.LCFI7:
 835              		.cfi_def_cfa_offset 12
 836              		@ sp needed
 837 004c 30BD     		pop	{r4, r5, pc}
 838              	.LVL76:
 839              	.L71:
 840              		.loc 1 439 1 view .LVU261
 841 004e 00BF     		.align	2
 842              	.L70:
 843 0050 00000000 		.word	.LC0
 844 0054 6C000000 		.word	.LC1
 845 0058 7C000000 		.word	.LC2
 846 005c A4000000 		.word	.LC3
 847              		.cfi_endproc
 848              	.LFE160:
 850              		.text
 851              	.Letext0:
 852              		.file 2 "/Users/nhantt/tools/stm32/gcc-arm-none-eabi-10-2020-q4-major/arm-none-eabi/include/machin
 853              		.file 3 "/Users/nhantt/tools/stm32/gcc-arm-none-eabi-10-2020-q4-major/arm-none-eabi/include/sys/_s
 854              		.file 4 "/Users/nhantt/tools/stm32/gcc-arm-none-eabi-10-2020-q4-major/lib/gcc/arm-none-eabi/10.2.1
 855              		.file 5 "/Users/nhantt/STM32Cube/Repository/STM32Cube_FW_F4_V1.26.0/Middlewares/Third_Party/LwIP/s
 856              		.file 6 "/Users/nhantt/STM32Cube/Repository/STM32Cube_FW_F4_V1.26.0/Middlewares/Third_Party/LwIP/s
 857              		.file 7 "/Users/nhantt/STM32Cube/Repository/STM32Cube_FW_F4_V1.26.0/Middlewares/Third_Party/LwIP/s
 858              		.file 8 "/Users/nhantt/STM32Cube/Repository/STM32Cube_FW_F4_V1.26.0/Middlewares/Third_Party/LwIP/s
 859              		.file 9 "/Users/nhantt/STM32Cube/Repository/STM32Cube_FW_F4_V1.26.0/Middlewares/Third_Party/LwIP/s
 860              		.file 10 "/Users/nhantt/STM32Cube/Repository/STM32Cube_FW_F4_V1.26.0/Middlewares/Third_Party/LwIP/
 861              		.file 11 "/Users/nhantt/STM32Cube/Repository/STM32Cube_FW_F4_V1.26.0/Middlewares/Third_Party/LwIP/
 862              		.file 12 "/Users/nhantt/tools/stm32/gcc-arm-none-eabi-10-2020-q4-major/arm-none-eabi/include/stdio
 863              		.file 13 "/Users/nhantt/STM32Cube/Repository/STM32Cube_FW_F4_V1.26.0/Middlewares/Third_Party/LwIP/
ARM GAS  /var/folders/k2/cd9bl_j17z77g23y6ffqb_400000gn/T//ccOYpq1j.s 			page 26


DEFINED SYMBOLS
                            *ABS*:0000000000000000 slipif.c
/var/folders/k2/cd9bl_j17z77g23y6ffqb_400000gn/T//ccOYpq1j.s:18     .rodata.slipif_output.str1.4:0000000000000000 $d
/var/folders/k2/cd9bl_j17z77g23y6ffqb_400000gn/T//ccOYpq1j.s:36     .text.slipif_output:0000000000000000 $t
/var/folders/k2/cd9bl_j17z77g23y6ffqb_400000gn/T//ccOYpq1j.s:43     .text.slipif_output:0000000000000000 slipif_output
/var/folders/k2/cd9bl_j17z77g23y6ffqb_400000gn/T//ccOYpq1j.s:223    .text.slipif_output:0000000000000098 $d
/var/folders/k2/cd9bl_j17z77g23y6ffqb_400000gn/T//ccOYpq1j.s:232    .text.slipif_output_v4:0000000000000000 $t
/var/folders/k2/cd9bl_j17z77g23y6ffqb_400000gn/T//ccOYpq1j.s:238    .text.slipif_output_v4:0000000000000000 slipif_output_v4
/var/folders/k2/cd9bl_j17z77g23y6ffqb_400000gn/T//ccOYpq1j.s:262    .text.slipif_rxbyte:0000000000000000 $t
/var/folders/k2/cd9bl_j17z77g23y6ffqb_400000gn/T//ccOYpq1j.s:268    .text.slipif_rxbyte:0000000000000000 slipif_rxbyte
/var/folders/k2/cd9bl_j17z77g23y6ffqb_400000gn/T//ccOYpq1j.s:535    .text.slipif_rxbyte:00000000000000f4 $d
/var/folders/k2/cd9bl_j17z77g23y6ffqb_400000gn/T//ccOYpq1j.s:543    .text.slipif_rxbyte_input:0000000000000000 $t
/var/folders/k2/cd9bl_j17z77g23y6ffqb_400000gn/T//ccOYpq1j.s:549    .text.slipif_rxbyte_input:0000000000000000 slipif_rxbyte_input
/var/folders/k2/cd9bl_j17z77g23y6ffqb_400000gn/T//ccOYpq1j.s:599    .rodata.slipif_init.str1.4:0000000000000000 $d
/var/folders/k2/cd9bl_j17z77g23y6ffqb_400000gn/T//ccOYpq1j.s:603    .text.slipif_init:0000000000000000 $t
/var/folders/k2/cd9bl_j17z77g23y6ffqb_400000gn/T//ccOYpq1j.s:610    .text.slipif_init:0000000000000000 slipif_init
/var/folders/k2/cd9bl_j17z77g23y6ffqb_400000gn/T//ccOYpq1j.s:735    .text.slipif_init:0000000000000068 $d
/var/folders/k2/cd9bl_j17z77g23y6ffqb_400000gn/T//ccOYpq1j.s:743    .text.slipif_poll:0000000000000000 $t
/var/folders/k2/cd9bl_j17z77g23y6ffqb_400000gn/T//ccOYpq1j.s:750    .text.slipif_poll:0000000000000000 slipif_poll
/var/folders/k2/cd9bl_j17z77g23y6ffqb_400000gn/T//ccOYpq1j.s:843    .text.slipif_poll:0000000000000050 $d

UNDEFINED SYMBOLS
sio_send
printf
pbuf_realloc
pbuf_alloc
pbuf_cat
pbuf_free
mem_malloc
sio_open
mem_free
sio_tryread
