ARM GAS  C:\Users\BLACK_~1\AppData\Local\Temp\ccMgrS3u.s 			page 1


   1              		.cpu cortex-m4
   2              		.arch armv7e-m
   3              		.fpu fpv4-sp-d16
   4              		.eabi_attribute 27, 1
   5              		.eabi_attribute 28, 1
   6              		.eabi_attribute 20, 1
   7              		.eabi_attribute 21, 1
   8              		.eabi_attribute 23, 3
   9              		.eabi_attribute 24, 1
  10              		.eabi_attribute 25, 1
  11              		.eabi_attribute 26, 1
  12              		.eabi_attribute 30, 1
  13              		.eabi_attribute 34, 1
  14              		.eabi_attribute 18, 4
  15              		.file	"ssd1963_fsmc.c"
  16              		.text
  17              	.Ltext0:
  18              		.cfi_sections	.debug_frame
  19              		.section	.text.RGB,"ax",%progbits
  20              		.align	1
  21              		.global	RGB
  22              		.syntax unified
  23              		.thumb
  24              		.thumb_func
  26              	RGB:
  27              	.LVL0:
  28              	.LFB130:
  29              		.file 1 "Src/ssd1963_fsmc.c"
   1:Src/ssd1963_fsmc.c **** #include "ssd1963_fsmc.h"
   2:Src/ssd1963_fsmc.c **** 
   3:Src/ssd1963_fsmc.c **** uint16_t RGB(uint8_t r, uint8_t g, uint8_t b)
   4:Src/ssd1963_fsmc.c **** {
  30              		.loc 1 4 1 view -0
  31              		.cfi_startproc
  32              		@ args = 0, pretend = 0, frame = 0
  33              		@ frame_needed = 0, uses_anonymous_args = 0
  34              		@ link register save eliminated.
   5:Src/ssd1963_fsmc.c **** 	return ((r & 0xF8) << 8) | ((g & 0xFC) << 3) | (b >> 3);
  35              		.loc 1 5 2 view .LVU1
  36              		.loc 1 5 21 is_stmt 0 view .LVU2
  37 0000 0002     		lsls	r0, r0, #8
  38              	.LVL1:
  39              		.loc 1 5 21 view .LVU3
  40 0002 00F47840 		and	r0, r0, #63488
  41 0006 00B2     		sxth	r0, r0
  42              		.loc 1 5 41 view .LVU4
  43 0008 C900     		lsls	r1, r1, #3
  44              	.LVL2:
  45              		.loc 1 5 41 view .LVU5
  46 000a 01F4FC61 		and	r1, r1, #2016
  47              		.loc 1 5 27 view .LVU6
  48 000e 0843     		orrs	r0, r0, r1
  49              		.loc 1 5 47 view .LVU7
  50 0010 40EAD200 		orr	r0, r0, r2, lsr #3
   6:Src/ssd1963_fsmc.c **** }
  51              		.loc 1 6 1 view .LVU8
  52 0014 80B2     		uxth	r0, r0
ARM GAS  C:\Users\BLACK_~1\AppData\Local\Temp\ccMgrS3u.s 			page 2


  53 0016 7047     		bx	lr
  54              		.cfi_endproc
  55              	.LFE130:
  57              		.section	.text.H24_RGB565,"ax",%progbits
  58              		.align	1
  59              		.global	H24_RGB565
  60              		.syntax unified
  61              		.thumb
  62              		.thumb_func
  64              	H24_RGB565:
  65              	.LVL3:
  66              	.LFB131:
   7:Src/ssd1963_fsmc.c **** 
   8:Src/ssd1963_fsmc.c **** uint16_t H24_RGB565(uint8_t reverse, uint32_t color24)
   9:Src/ssd1963_fsmc.c **** {
  67              		.loc 1 9 1 is_stmt 1 view -0
  68              		.cfi_startproc
  69              		@ args = 0, pretend = 0, frame = 0
  70              		@ frame_needed = 0, uses_anonymous_args = 0
  71              		@ link register save eliminated.
  10:Src/ssd1963_fsmc.c **** 	uint8_t b = (color24 >> 16) & 0xFF;
  72              		.loc 1 10 2 view .LVU10
  73              		.loc 1 10 10 is_stmt 0 view .LVU11
  74 0000 C1F30742 		ubfx	r2, r1, #16, #8
  75              	.LVL4:
  11:Src/ssd1963_fsmc.c **** 	uint8_t g = (color24 >> 8) & 0xFF;
  76              		.loc 1 11 2 is_stmt 1 view .LVU12
  77              		.loc 1 11 10 is_stmt 0 view .LVU13
  78 0004 C1F30723 		ubfx	r3, r1, #8, #8
  79              	.LVL5:
  12:Src/ssd1963_fsmc.c **** 	uint8_t r = color24 & 0xFF;
  80              		.loc 1 12 2 is_stmt 1 view .LVU14
  81              		.loc 1 12 10 is_stmt 0 view .LVU15
  82 0008 C9B2     		uxtb	r1, r1
  83              	.LVL6:
  13:Src/ssd1963_fsmc.c **** 	if (reverse) return ((b / 8) << 11) | ((g / 4) << 5) | (r / 8);
  84              		.loc 1 13 2 is_stmt 1 view .LVU16
  85              		.loc 1 13 5 is_stmt 0 view .LVU17
  86 000a 48B1     		cbz	r0, .L3
  87              		.loc 1 13 15 is_stmt 1 discriminator 1 view .LVU18
  88              		.loc 1 13 26 is_stmt 0 discriminator 1 view .LVU19
  89 000c D208     		lsrs	r2, r2, #3
  90              	.LVL7:
  91              		.loc 1 13 44 discriminator 1 view .LVU20
  92 000e 9B08     		lsrs	r3, r3, #2
  93              	.LVL8:
  94              		.loc 1 13 49 discriminator 1 view .LVU21
  95 0010 5801     		lsls	r0, r3, #5
  96              	.LVL9:
  97              		.loc 1 13 38 discriminator 1 view .LVU22
  98 0012 40EAC220 		orr	r0, r0, r2, lsl #11
  99 0016 00B2     		sxth	r0, r0
 100              		.loc 1 13 55 discriminator 1 view .LVU23
 101 0018 40EAD100 		orr	r0, r0, r1, lsr #3
 102 001c 80B2     		uxth	r0, r0
 103 001e 7047     		bx	lr
 104              	.LVL10:
ARM GAS  C:\Users\BLACK_~1\AppData\Local\Temp\ccMgrS3u.s 			page 3


 105              	.L3:
  14:Src/ssd1963_fsmc.c **** 	else return ((r / 8) << 11) | ((g / 4) << 5) | (b / 8);
 106              		.loc 1 14 7 is_stmt 1 view .LVU24
 107              		.loc 1 14 18 is_stmt 0 view .LVU25
 108 0020 C908     		lsrs	r1, r1, #3
 109              	.LVL11:
 110              		.loc 1 14 36 view .LVU26
 111 0022 9808     		lsrs	r0, r3, #2
 112              	.LVL12:
 113              		.loc 1 14 41 view .LVU27
 114 0024 4001     		lsls	r0, r0, #5
 115              		.loc 1 14 30 view .LVU28
 116 0026 40EAC120 		orr	r0, r0, r1, lsl #11
 117 002a 00B2     		sxth	r0, r0
 118              		.loc 1 14 47 view .LVU29
 119 002c 40EAD200 		orr	r0, r0, r2, lsr #3
 120 0030 80B2     		uxth	r0, r0
  15:Src/ssd1963_fsmc.c **** }
 121              		.loc 1 15 1 view .LVU30
 122 0032 7047     		bx	lr
 123              		.cfi_endproc
 124              	.LFE131:
 126              		.section	.text.LCD_Send_Cmd,"ax",%progbits
 127              		.align	1
 128              		.global	LCD_Send_Cmd
 129              		.syntax unified
 130              		.thumb
 131              		.thumb_func
 133              	LCD_Send_Cmd:
 134              	.LVL13:
 135              	.LFB132:
  16:Src/ssd1963_fsmc.c **** 
  17:Src/ssd1963_fsmc.c **** void LCD_Send_Cmd(uint16_t cmd)
  18:Src/ssd1963_fsmc.c **** {
 136              		.loc 1 18 1 is_stmt 1 view -0
 137              		.cfi_startproc
 138              		@ args = 0, pretend = 0, frame = 0
 139              		@ frame_needed = 0, uses_anonymous_args = 0
 140              		@ link register save eliminated.
  19:Src/ssd1963_fsmc.c **** 	CMD = cmd;
 141              		.loc 1 19 2 view .LVU32
 142              		.loc 1 19 6 is_stmt 0 view .LVU33
 143 0000 4FF0C043 		mov	r3, #1610612736
 144 0004 1880     		strh	r0, [r3]	@ movhi
  20:Src/ssd1963_fsmc.c **** }
 145              		.loc 1 20 1 view .LVU34
 146 0006 7047     		bx	lr
 147              		.cfi_endproc
 148              	.LFE132:
 150              		.section	.text.LCD_Send_Dat,"ax",%progbits
 151              		.align	1
 152              		.global	LCD_Send_Dat
 153              		.syntax unified
 154              		.thumb
 155              		.thumb_func
 157              	LCD_Send_Dat:
 158              	.LVL14:
ARM GAS  C:\Users\BLACK_~1\AppData\Local\Temp\ccMgrS3u.s 			page 4


 159              	.LFB133:
  21:Src/ssd1963_fsmc.c **** 
  22:Src/ssd1963_fsmc.c **** void LCD_Send_Dat(uint16_t dat)
  23:Src/ssd1963_fsmc.c **** {
 160              		.loc 1 23 1 is_stmt 1 view -0
 161              		.cfi_startproc
 162              		@ args = 0, pretend = 0, frame = 0
 163              		@ frame_needed = 0, uses_anonymous_args = 0
 164              		@ link register save eliminated.
  24:Src/ssd1963_fsmc.c **** 	//for (uint8_t i = 0; i < 1; i++)
  25:Src/ssd1963_fsmc.c **** 	DAT = dat;
 165              		.loc 1 25 2 view .LVU36
 166              		.loc 1 25 6 is_stmt 0 view .LVU37
 167 0000 014B     		ldr	r3, .L7
 168 0002 1880     		strh	r0, [r3]	@ movhi
  26:Src/ssd1963_fsmc.c **** }
 169              		.loc 1 26 1 view .LVU38
 170 0004 7047     		bx	lr
 171              	.L8:
 172 0006 00BF     		.align	2
 173              	.L7:
 174 0008 00000860 		.word	1611137024
 175              		.cfi_endproc
 176              	.LFE133:
 178              		.section	.text.LCD_Window,"ax",%progbits
 179              		.align	1
 180              		.global	LCD_Window
 181              		.syntax unified
 182              		.thumb
 183              		.thumb_func
 185              	LCD_Window:
 186              	.LVL15:
 187              	.LFB134:
  27:Src/ssd1963_fsmc.c **** 
  28:Src/ssd1963_fsmc.c **** void LCD_Window(uint16_t x1, uint16_t y1, uint16_t x2, uint16_t y2)
  29:Src/ssd1963_fsmc.c **** {
 188              		.loc 1 29 1 is_stmt 1 view -0
 189              		.cfi_startproc
 190              		@ args = 0, pretend = 0, frame = 0
 191              		@ frame_needed = 0, uses_anonymous_args = 0
 192              		.loc 1 29 1 is_stmt 0 view .LVU40
 193 0000 F8B5     		push	{r3, r4, r5, r6, r7, lr}
 194              	.LCFI0:
 195              		.cfi_def_cfa_offset 24
 196              		.cfi_offset 3, -24
 197              		.cfi_offset 4, -20
 198              		.cfi_offset 5, -16
 199              		.cfi_offset 6, -12
 200              		.cfi_offset 7, -8
 201              		.cfi_offset 14, -4
 202 0002 0546     		mov	r5, r0
 203 0004 0F46     		mov	r7, r1
 204 0006 1446     		mov	r4, r2
 205 0008 1E46     		mov	r6, r3
  30:Src/ssd1963_fsmc.c **** 	LCD_Send_Cmd(LCD_COLUMN_ADDR);
 206              		.loc 1 30 2 is_stmt 1 view .LVU41
 207 000a 2A20     		movs	r0, #42
ARM GAS  C:\Users\BLACK_~1\AppData\Local\Temp\ccMgrS3u.s 			page 5


 208              	.LVL16:
 209              		.loc 1 30 2 is_stmt 0 view .LVU42
 210 000c FFF7FEFF 		bl	LCD_Send_Cmd
 211              	.LVL17:
  31:Src/ssd1963_fsmc.c **** 	LCD_Send_Dat(y1 >> 8);
 212              		.loc 1 31 2 is_stmt 1 view .LVU43
 213 0010 380A     		lsrs	r0, r7, #8
 214 0012 FFF7FEFF 		bl	LCD_Send_Dat
 215              	.LVL18:
  32:Src/ssd1963_fsmc.c **** 	LCD_Send_Dat(y1 & 0x00FF);
 216              		.loc 1 32 2 view .LVU44
 217 0016 F8B2     		uxtb	r0, r7
 218 0018 FFF7FEFF 		bl	LCD_Send_Dat
 219              	.LVL19:
  33:Src/ssd1963_fsmc.c **** 	LCD_Send_Dat(y2 >> 8);
 220              		.loc 1 33 2 view .LVU45
 221 001c 300A     		lsrs	r0, r6, #8
 222 001e FFF7FEFF 		bl	LCD_Send_Dat
 223              	.LVL20:
  34:Src/ssd1963_fsmc.c **** 	LCD_Send_Dat(y2 & 0x00FF);
 224              		.loc 1 34 2 view .LVU46
 225 0022 F0B2     		uxtb	r0, r6
 226 0024 FFF7FEFF 		bl	LCD_Send_Dat
 227              	.LVL21:
  35:Src/ssd1963_fsmc.c **** 	LCD_Send_Cmd(LCD_PAGE_ADDR);
 228              		.loc 1 35 2 view .LVU47
 229 0028 2B20     		movs	r0, #43
 230 002a FFF7FEFF 		bl	LCD_Send_Cmd
 231              	.LVL22:
  36:Src/ssd1963_fsmc.c **** 	LCD_Send_Dat(x1 >> 8);
 232              		.loc 1 36 2 view .LVU48
 233 002e 280A     		lsrs	r0, r5, #8
 234 0030 FFF7FEFF 		bl	LCD_Send_Dat
 235              	.LVL23:
  37:Src/ssd1963_fsmc.c **** 	LCD_Send_Dat(x1 & 0x00FF);
 236              		.loc 1 37 2 view .LVU49
 237 0034 E8B2     		uxtb	r0, r5
 238 0036 FFF7FEFF 		bl	LCD_Send_Dat
 239              	.LVL24:
  38:Src/ssd1963_fsmc.c **** 	LCD_Send_Dat(x2 >> 8);
 240              		.loc 1 38 2 view .LVU50
 241 003a 200A     		lsrs	r0, r4, #8
 242 003c FFF7FEFF 		bl	LCD_Send_Dat
 243              	.LVL25:
  39:Src/ssd1963_fsmc.c **** 	LCD_Send_Dat(x2 & 0x00FF);
 244              		.loc 1 39 2 view .LVU51
 245 0040 E0B2     		uxtb	r0, r4
 246 0042 FFF7FEFF 		bl	LCD_Send_Dat
 247              	.LVL26:
  40:Src/ssd1963_fsmc.c **** 	LCD_Send_Cmd(LCD_GRAM);
 248              		.loc 1 40 2 view .LVU52
 249 0046 2C20     		movs	r0, #44
 250 0048 FFF7FEFF 		bl	LCD_Send_Cmd
 251              	.LVL27:
  41:Src/ssd1963_fsmc.c **** }
 252              		.loc 1 41 1 is_stmt 0 view .LVU53
 253 004c F8BD     		pop	{r3, r4, r5, r6, r7, pc}
ARM GAS  C:\Users\BLACK_~1\AppData\Local\Temp\ccMgrS3u.s 			page 6


 254              		.cfi_endproc
 255              	.LFE134:
 257              		.section	.text.LCD_Pixel,"ax",%progbits
 258              		.align	1
 259              		.global	LCD_Pixel
 260              		.syntax unified
 261              		.thumb
 262              		.thumb_func
 264              	LCD_Pixel:
 265              	.LVL28:
 266              	.LFB135:
  42:Src/ssd1963_fsmc.c **** 
  43:Src/ssd1963_fsmc.c **** void LCD_Pixel(uint16_t x, uint16_t y, uint32_t color24)
  44:Src/ssd1963_fsmc.c **** {
 267              		.loc 1 44 1 is_stmt 1 view -0
 268              		.cfi_startproc
 269              		@ args = 0, pretend = 0, frame = 0
 270              		@ frame_needed = 0, uses_anonymous_args = 0
 271              		.loc 1 44 1 is_stmt 0 view .LVU55
 272 0000 10B5     		push	{r4, lr}
 273              	.LCFI1:
 274              		.cfi_def_cfa_offset 8
 275              		.cfi_offset 4, -8
 276              		.cfi_offset 14, -4
 277 0002 0B46     		mov	r3, r1
 278 0004 1446     		mov	r4, r2
  45:Src/ssd1963_fsmc.c **** 	LCD_Window(x, y, x, y);
 279              		.loc 1 45 2 is_stmt 1 view .LVU56
 280 0006 0246     		mov	r2, r0
 281              	.LVL29:
 282              		.loc 1 45 2 is_stmt 0 view .LVU57
 283 0008 FFF7FEFF 		bl	LCD_Window
 284              	.LVL30:
  46:Src/ssd1963_fsmc.c **** 	LCD_Send_Dat(H24_RGB565(1, color24));
 285              		.loc 1 46 2 is_stmt 1 view .LVU58
 286 000c 2146     		mov	r1, r4
 287 000e 0120     		movs	r0, #1
 288 0010 FFF7FEFF 		bl	H24_RGB565
 289              	.LVL31:
 290 0014 FFF7FEFF 		bl	LCD_Send_Dat
 291              	.LVL32:
  47:Src/ssd1963_fsmc.c **** }
 292              		.loc 1 47 1 is_stmt 0 view .LVU59
 293 0018 10BD     		pop	{r4, pc}
 294              		.loc 1 47 1 view .LVU60
 295              		.cfi_endproc
 296              	.LFE135:
 298              		.section	.text.LCD_Rect_Fill,"ax",%progbits
 299              		.align	1
 300              		.global	LCD_Rect_Fill
 301              		.syntax unified
 302              		.thumb
 303              		.thumb_func
 305              	LCD_Rect_Fill:
 306              	.LVL33:
 307              	.LFB136:
  48:Src/ssd1963_fsmc.c **** 
ARM GAS  C:\Users\BLACK_~1\AppData\Local\Temp\ccMgrS3u.s 			page 7


  49:Src/ssd1963_fsmc.c **** void LCD_Rect_Fill(uint16_t x, uint16_t y, uint16_t w, uint16_t h, uint32_t color24)
  50:Src/ssd1963_fsmc.c **** {
 308              		.loc 1 50 1 is_stmt 1 view -0
 309              		.cfi_startproc
 310              		@ args = 4, pretend = 0, frame = 0
 311              		@ frame_needed = 0, uses_anonymous_args = 0
 312              		.loc 1 50 1 is_stmt 0 view .LVU62
 313 0000 70B5     		push	{r4, r5, r6, lr}
 314              	.LCFI2:
 315              		.cfi_def_cfa_offset 16
 316              		.cfi_offset 4, -16
 317              		.cfi_offset 5, -12
 318              		.cfi_offset 6, -8
 319              		.cfi_offset 14, -4
 320 0002 8446     		mov	ip, r0
 321 0004 0846     		mov	r0, r1
 322              	.LVL34:
 323              		.loc 1 50 1 view .LVU63
 324 0006 049E     		ldr	r6, [sp, #16]
  51:Src/ssd1963_fsmc.c **** 	uint32_t i = 0;
 325              		.loc 1 51 2 is_stmt 1 view .LVU64
 326              	.LVL35:
  52:Src/ssd1963_fsmc.c **** 	uint32_t j = (uint32_t) w * (uint32_t) h;
 327              		.loc 1 52 2 view .LVU65
 328              		.loc 1 52 11 is_stmt 0 view .LVU66
 329 0008 03FB02F5 		mul	r5, r3, r2
 330              	.LVL36:
  53:Src/ssd1963_fsmc.c **** 	LCD_Window(y, x, y + h - 1, x + w - 1);
 331              		.loc 1 53 2 is_stmt 1 view .LVU67
 332              		.loc 1 53 21 is_stmt 0 view .LVU68
 333 000c 0B44     		add	r3, r3, r1
 334              	.LVL37:
 335              		.loc 1 53 21 view .LVU69
 336 000e 9CB2     		uxth	r4, r3
 337              		.loc 1 53 32 view .LVU70
 338 0010 02EB0C03 		add	r3, r2, ip
 339 0014 9BB2     		uxth	r3, r3
 340              		.loc 1 53 2 view .LVU71
 341 0016 013B     		subs	r3, r3, #1
 342 0018 621E     		subs	r2, r4, #1
 343              	.LVL38:
 344              		.loc 1 53 2 view .LVU72
 345 001a 9BB2     		uxth	r3, r3
 346 001c 92B2     		uxth	r2, r2
 347 001e 6146     		mov	r1, ip
 348              	.LVL39:
 349              		.loc 1 53 2 view .LVU73
 350 0020 FFF7FEFF 		bl	LCD_Window
 351              	.LVL40:
  54:Src/ssd1963_fsmc.c **** 	for (i = 0; i < j; i++) LCD_Send_Dat(H24_RGB565(1, color24));
 352              		.loc 1 54 2 is_stmt 1 view .LVU74
 353              		.loc 1 54 9 is_stmt 0 view .LVU75
 354 0024 0024     		movs	r4, #0
 355              		.loc 1 54 2 view .LVU76
 356 0026 06E0     		b	.L14
 357              	.LVL41:
 358              	.L15:
ARM GAS  C:\Users\BLACK_~1\AppData\Local\Temp\ccMgrS3u.s 			page 8


 359              		.loc 1 54 26 is_stmt 1 discriminator 3 view .LVU77
 360 0028 3146     		mov	r1, r6
 361 002a 0120     		movs	r0, #1
 362 002c FFF7FEFF 		bl	H24_RGB565
 363              	.LVL42:
 364 0030 FFF7FEFF 		bl	LCD_Send_Dat
 365              	.LVL43:
 366              		.loc 1 54 21 discriminator 3 view .LVU78
 367              		.loc 1 54 22 is_stmt 0 discriminator 3 view .LVU79
 368 0034 0134     		adds	r4, r4, #1
 369              	.LVL44:
 370              	.L14:
 371              		.loc 1 54 14 is_stmt 1 discriminator 1 view .LVU80
 372              		.loc 1 54 2 is_stmt 0 discriminator 1 view .LVU81
 373 0036 AC42     		cmp	r4, r5
 374 0038 F6D3     		bcc	.L15
  55:Src/ssd1963_fsmc.c **** }
 375              		.loc 1 55 1 view .LVU82
 376 003a 70BD     		pop	{r4, r5, r6, pc}
 377              		.loc 1 55 1 view .LVU83
 378              		.cfi_endproc
 379              	.LFE136:
 381              		.section	.text.LCD_Char,"ax",%progbits
 382              		.align	1
 383              		.syntax unified
 384              		.thumb
 385              		.thumb_func
 387              	LCD_Char:
 388              	.LVL45:
 389              	.LFB147:
  56:Src/ssd1963_fsmc.c **** 
  57:Src/ssd1963_fsmc.c **** void LCD_Line(uint16_t x1, uint16_t y1, uint16_t x2, uint16_t y2, uint8_t size, uint32_t color24)
  58:Src/ssd1963_fsmc.c **** {
  59:Src/ssd1963_fsmc.c **** 	int deltaX = abs(x2 - x1);
  60:Src/ssd1963_fsmc.c **** 	int deltaY = abs(y2 - y1);
  61:Src/ssd1963_fsmc.c **** 	int signX = x1 < x2 ? 1 : -1;
  62:Src/ssd1963_fsmc.c **** 	int signY = y1 < y2 ? 1 : -1;
  63:Src/ssd1963_fsmc.c **** 	int error = deltaX - deltaY;
  64:Src/ssd1963_fsmc.c **** 	int error2 = 0;
  65:Src/ssd1963_fsmc.c **** 	for (;;)
  66:Src/ssd1963_fsmc.c **** 	{
  67:Src/ssd1963_fsmc.c **** 		LCD_Rect_Fill(x1, y1, size, size, color24);
  68:Src/ssd1963_fsmc.c **** 		if (x1 == x2 && y1 == y2)
  69:Src/ssd1963_fsmc.c **** 		break;
  70:Src/ssd1963_fsmc.c **** 		error2 = error * 2;
  71:Src/ssd1963_fsmc.c **** 		if (error2 > -deltaY)
  72:Src/ssd1963_fsmc.c **** 		{
  73:Src/ssd1963_fsmc.c **** 			error -= deltaY;
  74:Src/ssd1963_fsmc.c **** 			x1 += signX;
  75:Src/ssd1963_fsmc.c **** 		}
  76:Src/ssd1963_fsmc.c **** 		if (error2 < deltaX)
  77:Src/ssd1963_fsmc.c **** 		{
  78:Src/ssd1963_fsmc.c **** 			error += deltaX;
  79:Src/ssd1963_fsmc.c **** 			y1 += signY;
  80:Src/ssd1963_fsmc.c **** 		}
  81:Src/ssd1963_fsmc.c **** 	}
  82:Src/ssd1963_fsmc.c **** }
ARM GAS  C:\Users\BLACK_~1\AppData\Local\Temp\ccMgrS3u.s 			page 9


  83:Src/ssd1963_fsmc.c **** 
  84:Src/ssd1963_fsmc.c **** void LCD_Triangle(uint16_t x1, uint16_t y1, uint16_t x2, uint16_t y2, uint16_t x3, uint16_t y3, uin
  85:Src/ssd1963_fsmc.c **** {
  86:Src/ssd1963_fsmc.c **** 	LCD_Line(x1, y1, x2, y2, size, color24);
  87:Src/ssd1963_fsmc.c **** 	LCD_Line(x2, y2, x3, y3, size, color24);
  88:Src/ssd1963_fsmc.c **** 	LCD_Line(x3, y3, x1, y1, size, color24);
  89:Src/ssd1963_fsmc.c **** }
  90:Src/ssd1963_fsmc.c **** 
  91:Src/ssd1963_fsmc.c **** #define ABS(x) ((x) > 0 ? (x) : -(x))
  92:Src/ssd1963_fsmc.c **** 
  93:Src/ssd1963_fsmc.c **** void LCD_Triangle_Fill(uint16_t x1, uint16_t y1, uint16_t x2, uint16_t y2, uint16_t x3, uint16_t y3
  94:Src/ssd1963_fsmc.c **** {
  95:Src/ssd1963_fsmc.c **** 	int16_t deltax = 0, deltay = 0, x = 0, y = 0, xinc1 = 0, xinc2 = 0, 
  96:Src/ssd1963_fsmc.c **** 	yinc1 = 0, yinc2 = 0, den = 0, num = 0, numadd = 0, numpixels = 0, 
  97:Src/ssd1963_fsmc.c **** 	curpixel = 0;
  98:Src/ssd1963_fsmc.c **** 	
  99:Src/ssd1963_fsmc.c **** 	deltax = ABS(x2 - x1);
 100:Src/ssd1963_fsmc.c **** 	deltay = ABS(y2 - y1);
 101:Src/ssd1963_fsmc.c **** 	x = x1;
 102:Src/ssd1963_fsmc.c **** 	y = y1;
 103:Src/ssd1963_fsmc.c **** 
 104:Src/ssd1963_fsmc.c **** 	if (x2 >= x1)
 105:Src/ssd1963_fsmc.c **** 	{
 106:Src/ssd1963_fsmc.c **** 		xinc1 = 1;
 107:Src/ssd1963_fsmc.c **** 		xinc2 = 1;
 108:Src/ssd1963_fsmc.c **** 	}
 109:Src/ssd1963_fsmc.c **** 	else
 110:Src/ssd1963_fsmc.c **** 	{
 111:Src/ssd1963_fsmc.c **** 		xinc1 = -1;
 112:Src/ssd1963_fsmc.c **** 		xinc2 = -1;
 113:Src/ssd1963_fsmc.c **** 	}
 114:Src/ssd1963_fsmc.c **** 
 115:Src/ssd1963_fsmc.c **** 	if (y2 >= y1)
 116:Src/ssd1963_fsmc.c **** 	{
 117:Src/ssd1963_fsmc.c **** 		yinc1 = 1;
 118:Src/ssd1963_fsmc.c **** 		yinc2 = 1;
 119:Src/ssd1963_fsmc.c **** 	}
 120:Src/ssd1963_fsmc.c **** 	else
 121:Src/ssd1963_fsmc.c **** 	{
 122:Src/ssd1963_fsmc.c **** 		yinc1 = -1;
 123:Src/ssd1963_fsmc.c **** 		yinc2 = -1;
 124:Src/ssd1963_fsmc.c **** 	}
 125:Src/ssd1963_fsmc.c **** 
 126:Src/ssd1963_fsmc.c **** 	if (deltax >= deltay)
 127:Src/ssd1963_fsmc.c **** 	{
 128:Src/ssd1963_fsmc.c **** 		xinc1 = 0;
 129:Src/ssd1963_fsmc.c **** 		yinc2 = 0;
 130:Src/ssd1963_fsmc.c **** 		den = deltax;
 131:Src/ssd1963_fsmc.c **** 		num = deltax / 2;
 132:Src/ssd1963_fsmc.c **** 		numadd = deltay;
 133:Src/ssd1963_fsmc.c **** 		numpixels = deltax;
 134:Src/ssd1963_fsmc.c **** 	}
 135:Src/ssd1963_fsmc.c **** 	else
 136:Src/ssd1963_fsmc.c **** 	{
 137:Src/ssd1963_fsmc.c **** 		xinc2 = 0;
 138:Src/ssd1963_fsmc.c **** 		yinc1 = 0;
 139:Src/ssd1963_fsmc.c **** 		den = deltay;
ARM GAS  C:\Users\BLACK_~1\AppData\Local\Temp\ccMgrS3u.s 			page 10


 140:Src/ssd1963_fsmc.c **** 		num = deltay / 2;
 141:Src/ssd1963_fsmc.c **** 		numadd = deltax;
 142:Src/ssd1963_fsmc.c **** 		numpixels = deltay;
 143:Src/ssd1963_fsmc.c **** 	}
 144:Src/ssd1963_fsmc.c **** 
 145:Src/ssd1963_fsmc.c **** 	for (curpixel = 0; curpixel <= numpixels; curpixel++)
 146:Src/ssd1963_fsmc.c **** 	{
 147:Src/ssd1963_fsmc.c **** 		LCD_Line(x, y, x3, y3, 1, color24);
 148:Src/ssd1963_fsmc.c **** 
 149:Src/ssd1963_fsmc.c **** 		num += numadd;
 150:Src/ssd1963_fsmc.c **** 		if (num >= den)
 151:Src/ssd1963_fsmc.c **** 		{
 152:Src/ssd1963_fsmc.c **** 			num -= den;
 153:Src/ssd1963_fsmc.c **** 			x += xinc1;
 154:Src/ssd1963_fsmc.c **** 			y += yinc1;
 155:Src/ssd1963_fsmc.c **** 		}
 156:Src/ssd1963_fsmc.c **** 		x += xinc2;
 157:Src/ssd1963_fsmc.c **** 		y += yinc2;
 158:Src/ssd1963_fsmc.c **** 	}
 159:Src/ssd1963_fsmc.c **** }
 160:Src/ssd1963_fsmc.c **** 
 161:Src/ssd1963_fsmc.c **** void LCD_Rect(uint16_t x, uint16_t y, uint16_t w, uint16_t h, uint8_t size, uint32_t color24)
 162:Src/ssd1963_fsmc.c **** {
 163:Src/ssd1963_fsmc.c **** 	LCD_Line(x, y, x + w, y, size, color24);
 164:Src/ssd1963_fsmc.c **** 	LCD_Line(x, y + h, x + w, y + h, size, color24);
 165:Src/ssd1963_fsmc.c **** 	LCD_Line(x, y, x, y + h, size, color24);
 166:Src/ssd1963_fsmc.c **** 	LCD_Line(x + w, y, x + w, y + h, size, color24);
 167:Src/ssd1963_fsmc.c **** }
 168:Src/ssd1963_fsmc.c **** 
 169:Src/ssd1963_fsmc.c **** void LCD_Ellipse(int16_t x0, int16_t y0, int16_t rx, int16_t ry, uint8_t fill, uint8_t size, uint32
 170:Src/ssd1963_fsmc.c **** {
 171:Src/ssd1963_fsmc.c **** 	int16_t x, y;
 172:Src/ssd1963_fsmc.c **** 	int32_t rx2 = rx * rx;
 173:Src/ssd1963_fsmc.c **** 	int32_t ry2 = ry * ry;
 174:Src/ssd1963_fsmc.c **** 	int32_t fx2 = 4 * rx2;
 175:Src/ssd1963_fsmc.c **** 	int32_t fy2 = 4 * ry2;
 176:Src/ssd1963_fsmc.c **** 	int32_t s;
 177:Src/ssd1963_fsmc.c **** 	if (fill)
 178:Src/ssd1963_fsmc.c **** 	{
 179:Src/ssd1963_fsmc.c **** 		for (x = 0, y = ry, s = 2 * ry2 + rx2 * (1 - 2 * ry); ry2 * x <= rx2 * y; x++)
 180:Src/ssd1963_fsmc.c **** 		{
 181:Src/ssd1963_fsmc.c **** 			LCD_Line(x0 - x, y0 - y, x0 + x + 1 - size, y0 - y, size, color24);
 182:Src/ssd1963_fsmc.c **** 			LCD_Line(x0 - x, y0 + y, x0 + x + 1 - size, y0 + y, size, color24);
 183:Src/ssd1963_fsmc.c **** 			if (s >= 0)
 184:Src/ssd1963_fsmc.c **** 			{
 185:Src/ssd1963_fsmc.c **** 				s += fx2 * (1 - y);
 186:Src/ssd1963_fsmc.c **** 				y--;
 187:Src/ssd1963_fsmc.c **** 			}
 188:Src/ssd1963_fsmc.c **** 			s += ry2 * ((4 * x) + 6);
 189:Src/ssd1963_fsmc.c **** 		}
 190:Src/ssd1963_fsmc.c **** 		for (x = rx, y = 0, s = 2 * rx2 + ry2 * (1-2 * rx); rx2 * y <= ry2 * x; y++)
 191:Src/ssd1963_fsmc.c **** 		{
 192:Src/ssd1963_fsmc.c **** 			LCD_Line(x0 - x, y0 - y, x0 + x + 1 - size, y0 - y, size, color24);
 193:Src/ssd1963_fsmc.c **** 			LCD_Line(x0 - x, y0 + y, x0 + x + 1 - size, y0 + y, size, color24);
 194:Src/ssd1963_fsmc.c **** 			if (s >= 0)
 195:Src/ssd1963_fsmc.c **** 			{
 196:Src/ssd1963_fsmc.c **** 				s += fy2 * (1 - x);
ARM GAS  C:\Users\BLACK_~1\AppData\Local\Temp\ccMgrS3u.s 			page 11


 197:Src/ssd1963_fsmc.c **** 				x--;
 198:Src/ssd1963_fsmc.c **** 			}
 199:Src/ssd1963_fsmc.c **** 			s += rx2 * ((4 * y) + 6);
 200:Src/ssd1963_fsmc.c **** 		}
 201:Src/ssd1963_fsmc.c **** 	}
 202:Src/ssd1963_fsmc.c **** 	else
 203:Src/ssd1963_fsmc.c **** 	{
 204:Src/ssd1963_fsmc.c **** 		for (x = 0, y = ry, s = 2 * ry2 + rx2 * (1 - 2 * ry); ry2 * x <= rx2 * y; x++)
 205:Src/ssd1963_fsmc.c **** 		{
 206:Src/ssd1963_fsmc.c **** 			LCD_Rect_Fill(x0 + x, y0 + y, size, size, color24);
 207:Src/ssd1963_fsmc.c **** 			LCD_Rect_Fill(x0 - x, y0 + y, size, size, color24);
 208:Src/ssd1963_fsmc.c **** 			LCD_Rect_Fill(x0 + x, y0 - y, size, size, color24);
 209:Src/ssd1963_fsmc.c **** 			LCD_Rect_Fill(x0 - x, y0 - y, size, size, color24);
 210:Src/ssd1963_fsmc.c **** 			if (s >= 0)
 211:Src/ssd1963_fsmc.c **** 			{
 212:Src/ssd1963_fsmc.c **** 				s += fx2 * (1 - y);
 213:Src/ssd1963_fsmc.c **** 				y--;
 214:Src/ssd1963_fsmc.c **** 			}
 215:Src/ssd1963_fsmc.c **** 			s += ry2 * ((4 * x) + 6);
 216:Src/ssd1963_fsmc.c **** 		}
 217:Src/ssd1963_fsmc.c **** 		for (x = rx, y = 0, s = 2 * rx2 + ry2 * (1 - 2 * rx); rx2 * y <= ry2 * x; y++)
 218:Src/ssd1963_fsmc.c **** 		{
 219:Src/ssd1963_fsmc.c **** 			LCD_Rect_Fill(x0 + x, y0 + y, size, size, color24);
 220:Src/ssd1963_fsmc.c **** 			LCD_Rect_Fill(x0 - x, y0 + y, size, size, color24);
 221:Src/ssd1963_fsmc.c **** 			LCD_Rect_Fill(x0 + x, y0 - y, size, size, color24);
 222:Src/ssd1963_fsmc.c **** 			LCD_Rect_Fill(x0 - x, y0 - y, size, size, color24);
 223:Src/ssd1963_fsmc.c **** 			if (s >= 0)
 224:Src/ssd1963_fsmc.c **** 			{
 225:Src/ssd1963_fsmc.c **** 				s += fy2 * (1 - x);
 226:Src/ssd1963_fsmc.c **** 				x--;
 227:Src/ssd1963_fsmc.c **** 			}
 228:Src/ssd1963_fsmc.c **** 			s += rx2 * ((4 * y) + 6);
 229:Src/ssd1963_fsmc.c **** 		}
 230:Src/ssd1963_fsmc.c **** 	}
 231:Src/ssd1963_fsmc.c **** }
 232:Src/ssd1963_fsmc.c **** 
 233:Src/ssd1963_fsmc.c **** void LCD_Circle(uint16_t x, uint16_t y, uint8_t radius, uint8_t fill, uint8_t size, uint32_t color2
 234:Src/ssd1963_fsmc.c **** {
 235:Src/ssd1963_fsmc.c **** 	int a_, b_, P;
 236:Src/ssd1963_fsmc.c **** 	a_ = 0;
 237:Src/ssd1963_fsmc.c **** 	b_ = radius;
 238:Src/ssd1963_fsmc.c **** 	P = 1 - radius;
 239:Src/ssd1963_fsmc.c **** 	while (a_ <= b_)
 240:Src/ssd1963_fsmc.c **** 	{
 241:Src/ssd1963_fsmc.c **** 		if (fill == 1)
 242:Src/ssd1963_fsmc.c **** 		{
 243:Src/ssd1963_fsmc.c **** 			LCD_Rect_Fill(x - a_, y - b_, 2 * a_ + 1, 2 * b_ + 1, color24);
 244:Src/ssd1963_fsmc.c **** 			LCD_Rect_Fill(x - b_, y - a_, 2 * b_ + 1, 2 * a_ + 1, color24);
 245:Src/ssd1963_fsmc.c **** 		}
 246:Src/ssd1963_fsmc.c **** 		else
 247:Src/ssd1963_fsmc.c **** 		{
 248:Src/ssd1963_fsmc.c **** 			LCD_Rect_Fill(a_ + x, b_ + y, size, size, color24);
 249:Src/ssd1963_fsmc.c **** 			LCD_Rect_Fill(b_ + x, a_ + y, size, size, color24);
 250:Src/ssd1963_fsmc.c **** 			LCD_Rect_Fill(x - a_, b_ + y, size, size, color24);
 251:Src/ssd1963_fsmc.c **** 			LCD_Rect_Fill(x - b_, a_ + y, size, size, color24);
 252:Src/ssd1963_fsmc.c **** 			LCD_Rect_Fill(b_ + x, y - a_, size, size, color24);
 253:Src/ssd1963_fsmc.c **** 			LCD_Rect_Fill(a_ + x, y - b_, size, size, color24);
ARM GAS  C:\Users\BLACK_~1\AppData\Local\Temp\ccMgrS3u.s 			page 12


 254:Src/ssd1963_fsmc.c **** 			LCD_Rect_Fill(x - a_, y - b_, size, size, color24);
 255:Src/ssd1963_fsmc.c **** 			LCD_Rect_Fill(x - b_, y - a_, size, size, color24);
 256:Src/ssd1963_fsmc.c **** 		}
 257:Src/ssd1963_fsmc.c **** 		if (P < 0)
 258:Src/ssd1963_fsmc.c **** 		{
 259:Src/ssd1963_fsmc.c **** 			P = (P + 3) + (2 * a_);
 260:Src/ssd1963_fsmc.c **** 			a_++;
 261:Src/ssd1963_fsmc.c **** 		}
 262:Src/ssd1963_fsmc.c **** 		else
 263:Src/ssd1963_fsmc.c **** 		{
 264:Src/ssd1963_fsmc.c **** 			P = (P + 5) + (2 * (a_ - b_));
 265:Src/ssd1963_fsmc.c **** 			a_++;
 266:Src/ssd1963_fsmc.c **** 			b_--;
 267:Src/ssd1963_fsmc.c **** 		}
 268:Src/ssd1963_fsmc.c **** 	}
 269:Src/ssd1963_fsmc.c **** }
 270:Src/ssd1963_fsmc.c **** 
 271:Src/ssd1963_fsmc.c **** void LCD_Circle_Helper(int16_t x0, int16_t y0, int16_t r, uint8_t cornername, uint8_t size, uint32_
 272:Src/ssd1963_fsmc.c **** {
 273:Src/ssd1963_fsmc.c **** 	int16_t f = 1 - r;
 274:Src/ssd1963_fsmc.c **** 	int16_t ddF_x = 1;
 275:Src/ssd1963_fsmc.c **** 	int16_t ddF_y = -2 * r;
 276:Src/ssd1963_fsmc.c **** 	int16_t x = 0;
 277:Src/ssd1963_fsmc.c **** 	int16_t y = r;
 278:Src/ssd1963_fsmc.c **** 
 279:Src/ssd1963_fsmc.c **** 	while (x < y) {
 280:Src/ssd1963_fsmc.c **** 		if (f >= 0) {
 281:Src/ssd1963_fsmc.c **** 			y--;
 282:Src/ssd1963_fsmc.c **** 			ddF_y += 2;
 283:Src/ssd1963_fsmc.c **** 			f += ddF_y;
 284:Src/ssd1963_fsmc.c **** 		}
 285:Src/ssd1963_fsmc.c **** 		x++;
 286:Src/ssd1963_fsmc.c **** 		ddF_x += 2;
 287:Src/ssd1963_fsmc.c **** 		f += ddF_x;
 288:Src/ssd1963_fsmc.c **** 		if (cornername & 0x4) {
 289:Src/ssd1963_fsmc.c **** 			LCD_Rect_Fill(x0 + x, y0 + y, size, size, color24);
 290:Src/ssd1963_fsmc.c **** 			LCD_Rect_Fill(x0 + y, y0 + x, size, size, color24);
 291:Src/ssd1963_fsmc.c **** 		}
 292:Src/ssd1963_fsmc.c **** 		if (cornername & 0x2) {
 293:Src/ssd1963_fsmc.c **** 			LCD_Rect_Fill(x0 + x, y0 - y, size, size, color24);
 294:Src/ssd1963_fsmc.c **** 			LCD_Rect_Fill(x0 + y, y0 - x, size, size, color24);
 295:Src/ssd1963_fsmc.c **** 		}
 296:Src/ssd1963_fsmc.c **** 		if (cornername & 0x8) {
 297:Src/ssd1963_fsmc.c **** 			LCD_Rect_Fill(x0 - y, y0 + x, size, size, color24);
 298:Src/ssd1963_fsmc.c **** 			LCD_Rect_Fill(x0 - x, y0 + y, size, size, color24);
 299:Src/ssd1963_fsmc.c **** 		}
 300:Src/ssd1963_fsmc.c **** 		if (cornername & 0x1) {
 301:Src/ssd1963_fsmc.c **** 			LCD_Rect_Fill(x0 - y, y0 - x, size, size, color24);
 302:Src/ssd1963_fsmc.c **** 			LCD_Rect_Fill(x0 - x, y0 - y, size, size, color24);
 303:Src/ssd1963_fsmc.c **** 		}
 304:Src/ssd1963_fsmc.c **** 	}
 305:Src/ssd1963_fsmc.c **** }
 306:Src/ssd1963_fsmc.c **** 
 307:Src/ssd1963_fsmc.c **** void LCD_Rect_Round(uint16_t x, uint16_t y, uint16_t length, uint16_t width, uint16_t r, uint8_t si
 308:Src/ssd1963_fsmc.c **** {
 309:Src/ssd1963_fsmc.c **** 	LCD_Line(x + r, y, x + length + size - r, y, size, color24);
 310:Src/ssd1963_fsmc.c **** 	LCD_Line(x + r, y + width - 1, x + length + size - r, y + width - 1, size, color24);
ARM GAS  C:\Users\BLACK_~1\AppData\Local\Temp\ccMgrS3u.s 			page 13


 311:Src/ssd1963_fsmc.c **** 	LCD_Line(x, y + r, x, y + width - size - r, size, color24);
 312:Src/ssd1963_fsmc.c **** 	LCD_Line(x + length - 1, y + r, x + length - 1, y + width - size - r, size, color24);
 313:Src/ssd1963_fsmc.c **** 
 314:Src/ssd1963_fsmc.c **** 	LCD_Circle_Helper(x + r, y + r, r, 1, size, color24);
 315:Src/ssd1963_fsmc.c **** 	LCD_Circle_Helper(x + length - r - 1, y + r, r, 2, size, color24);
 316:Src/ssd1963_fsmc.c **** 	LCD_Circle_Helper(x + length - r - 1, y + width - r - 1, r, 4, size, color24);
 317:Src/ssd1963_fsmc.c **** 	LCD_Circle_Helper(x + r, y + width - r - 1, r, 8, size, color24);
 318:Src/ssd1963_fsmc.c **** }
 319:Src/ssd1963_fsmc.c **** 
 320:Src/ssd1963_fsmc.c **** void LCD_Circle_Fill_Helper(int16_t x0, int16_t y0, int16_t r, uint8_t cornername, int16_t delta, u
 321:Src/ssd1963_fsmc.c **** {
 322:Src/ssd1963_fsmc.c **** 	int16_t f = 1 - r;
 323:Src/ssd1963_fsmc.c **** 	int16_t ddF_x = 1;
 324:Src/ssd1963_fsmc.c **** 	int16_t ddF_y = -2 * r;
 325:Src/ssd1963_fsmc.c **** 	int16_t x = 0;
 326:Src/ssd1963_fsmc.c **** 	int16_t y = r;
 327:Src/ssd1963_fsmc.c **** 
 328:Src/ssd1963_fsmc.c **** 	while (x < y) {
 329:Src/ssd1963_fsmc.c **** 		if (f >= 0) {
 330:Src/ssd1963_fsmc.c **** 			y--;
 331:Src/ssd1963_fsmc.c **** 			ddF_y += 2;
 332:Src/ssd1963_fsmc.c **** 			f += ddF_y;
 333:Src/ssd1963_fsmc.c **** 		}
 334:Src/ssd1963_fsmc.c **** 		x++;
 335:Src/ssd1963_fsmc.c **** 		ddF_x += 2;
 336:Src/ssd1963_fsmc.c **** 		f += ddF_x;
 337:Src/ssd1963_fsmc.c **** 
 338:Src/ssd1963_fsmc.c **** 		if (cornername & 0x1) {
 339:Src/ssd1963_fsmc.c **** 			LCD_Line(x0 + x, y0 - y, x0 + x, y0 - y + 2 * y + delta, 1, color24);
 340:Src/ssd1963_fsmc.c **** 			LCD_Line(x0 + y, y0 - x, x0 + y, y0 - x + 2 * x + delta, 1, color24);
 341:Src/ssd1963_fsmc.c **** 		}
 342:Src/ssd1963_fsmc.c **** 		if (cornername & 0x2) {
 343:Src/ssd1963_fsmc.c **** 			LCD_Line(x0 - x, y0 - y, x0 - x, y0 - y + 2 * y + delta, 1, color24);
 344:Src/ssd1963_fsmc.c **** 			LCD_Line(x0 - y, y0 - x, x0 - y, y0 - x + 2 * x + delta, 1, color24);
 345:Src/ssd1963_fsmc.c **** 		}
 346:Src/ssd1963_fsmc.c **** 	}
 347:Src/ssd1963_fsmc.c **** }
 348:Src/ssd1963_fsmc.c **** 
 349:Src/ssd1963_fsmc.c **** void LCD_Rect_Round_Fill(uint16_t x, uint16_t y, uint16_t length, uint16_t width, uint16_t r, uint3
 350:Src/ssd1963_fsmc.c **** {
 351:Src/ssd1963_fsmc.c **** 	LCD_Rect_Fill(x + r, y, length - 2 * r, width, color24);
 352:Src/ssd1963_fsmc.c **** 	LCD_Circle_Fill_Helper(x + length - r - 1, y + r, r, 1, width - 2 * r - 1, color24);
 353:Src/ssd1963_fsmc.c **** 	LCD_Circle_Fill_Helper(x + r, y + r, r, 2, width - 2 * r - 1, color24);
 354:Src/ssd1963_fsmc.c **** }
 355:Src/ssd1963_fsmc.c **** 
 356:Src/ssd1963_fsmc.c **** static void LCD_Char(int16_t x, int16_t y, const GFXglyph *glyph, const GFXfont *font, uint8_t size
 357:Src/ssd1963_fsmc.c **** {
 390              		.loc 1 357 1 is_stmt 1 view -0
 391              		.cfi_startproc
 392              		@ args = 8, pretend = 0, frame = 8
 393              		@ frame_needed = 0, uses_anonymous_args = 0
 394              		.loc 1 357 1 is_stmt 0 view .LVU85
 395 0000 2DE9F04F 		push	{r4, r5, r6, r7, r8, r9, r10, fp, lr}
 396              	.LCFI3:
 397              		.cfi_def_cfa_offset 36
 398              		.cfi_offset 4, -36
 399              		.cfi_offset 5, -32
ARM GAS  C:\Users\BLACK_~1\AppData\Local\Temp\ccMgrS3u.s 			page 14


 400              		.cfi_offset 6, -28
 401              		.cfi_offset 7, -24
 402              		.cfi_offset 8, -20
 403              		.cfi_offset 9, -16
 404              		.cfi_offset 10, -12
 405              		.cfi_offset 11, -8
 406              		.cfi_offset 14, -4
 407 0004 85B0     		sub	sp, sp, #20
 408              	.LCFI4:
 409              		.cfi_def_cfa_offset 56
 410 0006 8346     		mov	fp, r0
 411 0008 0291     		str	r1, [sp, #8]
 412 000a 1646     		mov	r6, r2
 413 000c 9DF83820 		ldrb	r2, [sp, #56]	@ zero_extendqisi2
 414              	.LVL46:
 415              		.loc 1 357 1 view .LVU86
 416 0010 0392     		str	r2, [sp, #12]
 358:Src/ssd1963_fsmc.c **** 	uint8_t  *bitmap = font -> bitmap;
 417              		.loc 1 358 2 is_stmt 1 view .LVU87
 418              		.loc 1 358 12 is_stmt 0 view .LVU88
 419 0012 D3F800A0 		ldr	r10, [r3]
 420              	.LVL47:
 359:Src/ssd1963_fsmc.c **** 	uint16_t bo = glyph -> bitmapOffset;
 421              		.loc 1 359 2 is_stmt 1 view .LVU89
 422              		.loc 1 359 11 is_stmt 0 view .LVU90
 423 0016 B6F80080 		ldrh	r8, [r6]
 424              	.LVL48:
 360:Src/ssd1963_fsmc.c **** 	uint8_t bits = 0, bit = 0;
 425              		.loc 1 360 2 is_stmt 1 view .LVU91
 361:Src/ssd1963_fsmc.c **** 	uint16_t set_pixels = 0;
 426              		.loc 1 361 2 view .LVU92
 362:Src/ssd1963_fsmc.c **** 	uint8_t  cur_x, cur_y;
 427              		.loc 1 362 2 view .LVU93
 363:Src/ssd1963_fsmc.c **** 	for(cur_y = 0; cur_y < glyph -> height; cur_y++)
 428              		.loc 1 363 2 view .LVU94
 429              		.loc 1 363 12 is_stmt 0 view .LVU95
 430 001a 4FF00009 		mov	r9, #0
 361:Src/ssd1963_fsmc.c **** 	uint16_t set_pixels = 0;
 431              		.loc 1 361 11 view .LVU96
 432 001e 4A46     		mov	r2, r9
 360:Src/ssd1963_fsmc.c **** 	uint16_t set_pixels = 0;
 433              		.loc 1 360 20 view .LVU97
 434 0020 4D46     		mov	r5, r9
 360:Src/ssd1963_fsmc.c **** 	uint16_t set_pixels = 0;
 435              		.loc 1 360 10 view .LVU98
 436 0022 4F46     		mov	r7, r9
 437              		.loc 1 363 2 view .LVU99
 438 0024 33E0     		b	.L18
 439              	.LVL49:
 440              	.L20:
 364:Src/ssd1963_fsmc.c **** 	{
 365:Src/ssd1963_fsmc.c **** 		for(cur_x = 0; cur_x < glyph -> width; cur_x++)
 366:Src/ssd1963_fsmc.c **** 		{
 367:Src/ssd1963_fsmc.c **** 			if(bit == 0)
 368:Src/ssd1963_fsmc.c **** 			{
 369:Src/ssd1963_fsmc.c **** 				bits = (*(const unsigned char *)(&bitmap[bo++]));
 370:Src/ssd1963_fsmc.c **** 				bit  = 0x80;
ARM GAS  C:\Users\BLACK_~1\AppData\Local\Temp\ccMgrS3u.s 			page 15


 371:Src/ssd1963_fsmc.c **** 			}
 372:Src/ssd1963_fsmc.c **** 			if(bits & bit)
 373:Src/ssd1963_fsmc.c **** 			{
 374:Src/ssd1963_fsmc.c **** 				set_pixels++;
 375:Src/ssd1963_fsmc.c **** 			}
 376:Src/ssd1963_fsmc.c **** 			else if (set_pixels > 0)
 441              		.loc 1 376 9 is_stmt 1 view .LVU100
 442              		.loc 1 376 12 is_stmt 0 view .LVU101
 443 0026 92B9     		cbnz	r2, .L27
 444              	.LVL50:
 445              	.L21:
 377:Src/ssd1963_fsmc.c **** 			{
 378:Src/ssd1963_fsmc.c **** 				LCD_Rect_Fill(x + (glyph -> xOffset + cur_x - set_pixels) * size, y + (glyph -> yOffset + cur_y
 379:Src/ssd1963_fsmc.c **** 				set_pixels = 0;
 380:Src/ssd1963_fsmc.c **** 			}
 381:Src/ssd1963_fsmc.c **** 			bit >>= 1;
 446              		.loc 1 381 4 is_stmt 1 discriminator 2 view .LVU102
 447              		.loc 1 381 8 is_stmt 0 discriminator 2 view .LVU103
 448 0028 6D08     		lsrs	r5, r5, #1
 449              	.LVL51:
 365:Src/ssd1963_fsmc.c **** 		{
 450              		.loc 1 365 42 is_stmt 1 discriminator 2 view .LVU104
 365:Src/ssd1963_fsmc.c **** 		{
 451              		.loc 1 365 47 is_stmt 0 discriminator 2 view .LVU105
 452 002a 0134     		adds	r4, r4, #1
 453              	.LVL52:
 365:Src/ssd1963_fsmc.c **** 		{
 454              		.loc 1 365 47 discriminator 2 view .LVU106
 455 002c E4B2     		uxtb	r4, r4
 456              	.LVL53:
 457              	.L24:
 365:Src/ssd1963_fsmc.c **** 		{
 458              		.loc 1 365 18 is_stmt 1 discriminator 1 view .LVU107
 365:Src/ssd1963_fsmc.c **** 		{
 459              		.loc 1 365 32 is_stmt 0 discriminator 1 view .LVU108
 460 002e B378     		ldrb	r3, [r6, #2]	@ zero_extendqisi2
 365:Src/ssd1963_fsmc.c **** 		{
 461              		.loc 1 365 3 discriminator 1 view .LVU109
 462 0030 A342     		cmp	r3, r4
 463 0032 27D9     		bls	.L28
 367:Src/ssd1963_fsmc.c **** 			{
 464              		.loc 1 367 4 is_stmt 1 view .LVU110
 367:Src/ssd1963_fsmc.c **** 			{
 465              		.loc 1 367 6 is_stmt 0 view .LVU111
 466 0034 35B9     		cbnz	r5, .L19
 369:Src/ssd1963_fsmc.c **** 				bit  = 0x80;
 467              		.loc 1 369 5 is_stmt 1 view .LVU112
 369:Src/ssd1963_fsmc.c **** 				bit  = 0x80;
 468              		.loc 1 369 48 is_stmt 0 view .LVU113
 469 0036 08F10103 		add	r3, r8, #1
 470              	.LVL54:
 369:Src/ssd1963_fsmc.c **** 				bit  = 0x80;
 471              		.loc 1 369 10 view .LVU114
 472 003a 1AF80870 		ldrb	r7, [r10, r8]	@ zero_extendqisi2
 473              	.LVL55:
 370:Src/ssd1963_fsmc.c **** 			}
 474              		.loc 1 370 5 is_stmt 1 view .LVU115
ARM GAS  C:\Users\BLACK_~1\AppData\Local\Temp\ccMgrS3u.s 			page 16


 369:Src/ssd1963_fsmc.c **** 				bit  = 0x80;
 475              		.loc 1 369 48 is_stmt 0 view .LVU116
 476 003e 1FFA83F8 		uxth	r8, r3
 370:Src/ssd1963_fsmc.c **** 			}
 477              		.loc 1 370 10 view .LVU117
 478 0042 8025     		movs	r5, #128
 479              	.LVL56:
 480              	.L19:
 372:Src/ssd1963_fsmc.c **** 			{
 481              		.loc 1 372 4 is_stmt 1 view .LVU118
 372:Src/ssd1963_fsmc.c **** 			{
 482              		.loc 1 372 6 is_stmt 0 view .LVU119
 483 0044 2F42     		tst	r7, r5
 484 0046 EED0     		beq	.L20
 374:Src/ssd1963_fsmc.c **** 			}
 485              		.loc 1 374 5 is_stmt 1 view .LVU120
 374:Src/ssd1963_fsmc.c **** 			}
 486              		.loc 1 374 15 is_stmt 0 view .LVU121
 487 0048 0132     		adds	r2, r2, #1
 488              	.LVL57:
 374:Src/ssd1963_fsmc.c **** 			}
 489              		.loc 1 374 15 view .LVU122
 490 004a 92B2     		uxth	r2, r2
 491              	.LVL58:
 374:Src/ssd1963_fsmc.c **** 			}
 492              		.loc 1 374 15 view .LVU123
 493 004c ECE7     		b	.L21
 494              	.L27:
 378:Src/ssd1963_fsmc.c **** 				set_pixels = 0;
 495              		.loc 1 378 5 is_stmt 1 view .LVU124
 378:Src/ssd1963_fsmc.c **** 				set_pixels = 0;
 496              		.loc 1 378 30 is_stmt 0 view .LVU125
 497 004e 96F90500 		ldrsb	r0, [r6, #5]
 378:Src/ssd1963_fsmc.c **** 				set_pixels = 0;
 498              		.loc 1 378 41 view .LVU126
 499 0052 2044     		add	r0, r0, r4
 378:Src/ssd1963_fsmc.c **** 				set_pixels = 0;
 500              		.loc 1 378 49 view .LVU127
 501 0054 801A     		subs	r0, r0, r2
 378:Src/ssd1963_fsmc.c **** 				set_pixels = 0;
 502              		.loc 1 378 5 view .LVU128
 503 0056 BDF80C30 		ldrh	r3, [sp, #12]
 378:Src/ssd1963_fsmc.c **** 				set_pixels = 0;
 504              		.loc 1 378 82 view .LVU129
 505 005a 96F90610 		ldrsb	r1, [r6, #6]
 378:Src/ssd1963_fsmc.c **** 				set_pixels = 0;
 506              		.loc 1 378 93 view .LVU130
 507 005e 4944     		add	r1, r1, r9
 378:Src/ssd1963_fsmc.c **** 				set_pixels = 0;
 508              		.loc 1 378 5 view .LVU131
 509 0060 13FB02FC 		smulbb	ip, r3, r2
 510 0064 029A     		ldr	r2, [sp, #8]
 511              	.LVL59:
 378:Src/ssd1963_fsmc.c **** 				set_pixels = 0;
 512              		.loc 1 378 5 view .LVU132
 513 0066 01FB0321 		mla	r1, r1, r3, r2
 514 006a 10FB03F0 		smulbb	r0, r0, r3
ARM GAS  C:\Users\BLACK_~1\AppData\Local\Temp\ccMgrS3u.s 			page 17


 515 006e 5844     		add	r0, r0, fp
 516 0070 0F9A     		ldr	r2, [sp, #60]
 517 0072 0092     		str	r2, [sp]
 518 0074 1FFA8CF2 		uxth	r2, ip
 519 0078 89B2     		uxth	r1, r1
 520 007a 80B2     		uxth	r0, r0
 521 007c FFF7FEFF 		bl	LCD_Rect_Fill
 522              	.LVL60:
 379:Src/ssd1963_fsmc.c **** 			}
 523              		.loc 1 379 5 is_stmt 1 view .LVU133
 379:Src/ssd1963_fsmc.c **** 			}
 524              		.loc 1 379 16 is_stmt 0 view .LVU134
 525 0080 0022     		movs	r2, #0
 526 0082 D1E7     		b	.L21
 527              	.LVL61:
 528              	.L28:
 382:Src/ssd1963_fsmc.c **** 		}
 383:Src/ssd1963_fsmc.c **** 		if (set_pixels > 0)
 529              		.loc 1 383 3 is_stmt 1 view .LVU135
 530              		.loc 1 383 6 is_stmt 0 view .LVU136
 531 0084 42B9     		cbnz	r2, .L29
 532              	.LVL62:
 533              	.L23:
 363:Src/ssd1963_fsmc.c **** 	{
 534              		.loc 1 363 42 is_stmt 1 discriminator 2 view .LVU137
 363:Src/ssd1963_fsmc.c **** 	{
 535              		.loc 1 363 47 is_stmt 0 discriminator 2 view .LVU138
 536 0086 09F10109 		add	r9, r9, #1
 537              	.LVL63:
 363:Src/ssd1963_fsmc.c **** 	{
 538              		.loc 1 363 47 discriminator 2 view .LVU139
 539 008a 5FFA89F9 		uxtb	r9, r9
 540              	.LVL64:
 541              	.L18:
 363:Src/ssd1963_fsmc.c **** 	{
 542              		.loc 1 363 17 is_stmt 1 discriminator 1 view .LVU140
 363:Src/ssd1963_fsmc.c **** 	{
 543              		.loc 1 363 31 is_stmt 0 discriminator 1 view .LVU141
 544 008e F378     		ldrb	r3, [r6, #3]	@ zero_extendqisi2
 363:Src/ssd1963_fsmc.c **** 	{
 545              		.loc 1 363 2 discriminator 1 view .LVU142
 546 0090 4B45     		cmp	r3, r9
 547 0092 1BD9     		bls	.L30
 365:Src/ssd1963_fsmc.c **** 		{
 548              		.loc 1 365 13 view .LVU143
 549 0094 0024     		movs	r4, #0
 550 0096 CAE7     		b	.L24
 551              	.LVL65:
 552              	.L29:
 384:Src/ssd1963_fsmc.c **** 		{
 385:Src/ssd1963_fsmc.c **** 			LCD_Rect_Fill(x + (glyph -> xOffset + cur_x-set_pixels) * size, y + (glyph -> yOffset + cur_y) *
 553              		.loc 1 385 4 is_stmt 1 view .LVU144
 554              		.loc 1 385 29 is_stmt 0 view .LVU145
 555 0098 96F90530 		ldrsb	r3, [r6, #5]
 556              		.loc 1 385 40 view .LVU146
 557 009c 1C44     		add	r4, r4, r3
 558              	.LVL66:
ARM GAS  C:\Users\BLACK_~1\AppData\Local\Temp\ccMgrS3u.s 			page 18


 559              		.loc 1 385 47 view .LVU147
 560 009e A01A     		subs	r0, r4, r2
 561              		.loc 1 385 4 view .LVU148
 562 00a0 BDF80C30 		ldrh	r3, [sp, #12]
 563              		.loc 1 385 79 view .LVU149
 564 00a4 96F90610 		ldrsb	r1, [r6, #6]
 565              		.loc 1 385 90 view .LVU150
 566 00a8 4944     		add	r1, r1, r9
 567              		.loc 1 385 4 view .LVU151
 568 00aa 13FB02F2 		smulbb	r2, r3, r2
 569              	.LVL67:
 570              		.loc 1 385 4 view .LVU152
 571 00ae 029C     		ldr	r4, [sp, #8]
 572 00b0 01FB0341 		mla	r1, r1, r3, r4
 573 00b4 10FB03F0 		smulbb	r0, r0, r3
 574 00b8 5844     		add	r0, r0, fp
 575 00ba 0F9C     		ldr	r4, [sp, #60]
 576 00bc 0094     		str	r4, [sp]
 577 00be 92B2     		uxth	r2, r2
 578 00c0 89B2     		uxth	r1, r1
 579 00c2 80B2     		uxth	r0, r0
 580 00c4 FFF7FEFF 		bl	LCD_Rect_Fill
 581              	.LVL68:
 386:Src/ssd1963_fsmc.c **** 			set_pixels = 0;
 582              		.loc 1 386 4 is_stmt 1 view .LVU153
 583              		.loc 1 386 15 is_stmt 0 view .LVU154
 584 00c8 0022     		movs	r2, #0
 585 00ca DCE7     		b	.L23
 586              	.LVL69:
 587              	.L30:
 387:Src/ssd1963_fsmc.c **** 		}
 388:Src/ssd1963_fsmc.c **** 	}
 389:Src/ssd1963_fsmc.c **** }
 588              		.loc 1 389 1 view .LVU155
 589 00cc 05B0     		add	sp, sp, #20
 590              	.LCFI5:
 591              		.cfi_def_cfa_offset 36
 592              		@ sp needed
 593 00ce BDE8F08F 		pop	{r4, r5, r6, r7, r8, r9, r10, fp, pc}
 594              		.loc 1 389 1 view .LVU156
 595              		.cfi_endproc
 596              	.LFE147:
 598              		.section	.text.LCD_Line,"ax",%progbits
 599              		.align	1
 600              		.global	LCD_Line
 601              		.syntax unified
 602              		.thumb
 603              		.thumb_func
 605              	LCD_Line:
 606              	.LVL70:
 607              	.LFB137:
  58:Src/ssd1963_fsmc.c **** 	int deltaX = abs(x2 - x1);
 608              		.loc 1 58 1 is_stmt 1 view -0
 609              		.cfi_startproc
 610              		@ args = 8, pretend = 0, frame = 16
 611              		@ frame_needed = 0, uses_anonymous_args = 0
  58:Src/ssd1963_fsmc.c **** 	int deltaX = abs(x2 - x1);
ARM GAS  C:\Users\BLACK_~1\AppData\Local\Temp\ccMgrS3u.s 			page 19


 612              		.loc 1 58 1 is_stmt 0 view .LVU158
 613 0000 2DE9F04F 		push	{r4, r5, r6, r7, r8, r9, r10, fp, lr}
 614              	.LCFI6:
 615              		.cfi_def_cfa_offset 36
 616              		.cfi_offset 4, -36
 617              		.cfi_offset 5, -32
 618              		.cfi_offset 6, -28
 619              		.cfi_offset 7, -24
 620              		.cfi_offset 8, -20
 621              		.cfi_offset 9, -16
 622              		.cfi_offset 10, -12
 623              		.cfi_offset 11, -8
 624              		.cfi_offset 14, -4
 625 0004 87B0     		sub	sp, sp, #28
 626              	.LCFI7:
 627              		.cfi_def_cfa_offset 64
 628 0006 0446     		mov	r4, r0
 629 0008 0E46     		mov	r6, r1
 630 000a 9146     		mov	r9, r2
 631 000c 0593     		str	r3, [sp, #20]
 632 000e 9DF84020 		ldrb	r2, [sp, #64]	@ zero_extendqisi2
 633              	.LVL71:
  58:Src/ssd1963_fsmc.c **** 	int deltaX = abs(x2 - x1);
 634              		.loc 1 58 1 view .LVU159
 635 0012 0392     		str	r2, [sp, #12]
 636 0014 DDF844A0 		ldr	r10, [sp, #68]
  59:Src/ssd1963_fsmc.c **** 	int deltaY = abs(y2 - y1);
 637              		.loc 1 59 2 is_stmt 1 view .LVU160
  59:Src/ssd1963_fsmc.c **** 	int deltaY = abs(y2 - y1);
 638              		.loc 1 59 22 is_stmt 0 view .LVU161
 639 0018 A9EB0008 		sub	r8, r9, r0
  59:Src/ssd1963_fsmc.c **** 	int deltaY = abs(y2 - y1);
 640              		.loc 1 59 6 view .LVU162
 641 001c B8F1000F 		cmp	r8, #0
 642 0020 B8BF     		it	lt
 643 0022 C8F10008 		rsblt	r8, r8, #0
 644              	.LVL72:
  60:Src/ssd1963_fsmc.c **** 	int signX = x1 < x2 ? 1 : -1;
 645              		.loc 1 60 2 is_stmt 1 view .LVU163
  60:Src/ssd1963_fsmc.c **** 	int signX = x1 < x2 ? 1 : -1;
 646              		.loc 1 60 22 is_stmt 0 view .LVU164
 647 0026 5F1A     		subs	r7, r3, r1
  60:Src/ssd1963_fsmc.c **** 	int signX = x1 < x2 ? 1 : -1;
 648              		.loc 1 60 6 view .LVU165
 649 0028 002F     		cmp	r7, #0
 650 002a B8BF     		it	lt
 651 002c 7F42     		rsblt	r7, r7, #0
 652              	.LVL73:
  61:Src/ssd1963_fsmc.c **** 	int signY = y1 < y2 ? 1 : -1;
 653              		.loc 1 61 2 is_stmt 1 view .LVU166
  61:Src/ssd1963_fsmc.c **** 	int signY = y1 < y2 ? 1 : -1;
 654              		.loc 1 61 26 is_stmt 0 view .LVU167
 655 002e 8145     		cmp	r9, r0
 656 0030 22D9     		bls	.L39
 657 0032 0123     		movs	r3, #1
 658              	.LVL74:
  61:Src/ssd1963_fsmc.c **** 	int signY = y1 < y2 ? 1 : -1;
ARM GAS  C:\Users\BLACK_~1\AppData\Local\Temp\ccMgrS3u.s 			page 20


 659              		.loc 1 61 26 view .LVU168
 660 0034 0493     		str	r3, [sp, #16]
 661              	.L32:
 662              	.LVL75:
  62:Src/ssd1963_fsmc.c **** 	int error = deltaX - deltaY;
 663              		.loc 1 62 2 is_stmt 1 discriminator 4 view .LVU169
  62:Src/ssd1963_fsmc.c **** 	int error = deltaX - deltaY;
 664              		.loc 1 62 26 is_stmt 0 discriminator 4 view .LVU170
 665 0036 059B     		ldr	r3, [sp, #20]
 666 0038 B342     		cmp	r3, r6
 667 003a 21D9     		bls	.L40
  62:Src/ssd1963_fsmc.c **** 	int error = deltaX - deltaY;
 668              		.loc 1 62 26 view .LVU171
 669 003c 4FF0010B 		mov	fp, #1
 670              	.L33:
 671              	.LVL76:
  63:Src/ssd1963_fsmc.c **** 	int error2 = 0;
 672              		.loc 1 63 2 is_stmt 1 discriminator 4 view .LVU172
  63:Src/ssd1963_fsmc.c **** 	int error2 = 0;
 673              		.loc 1 63 6 is_stmt 0 discriminator 4 view .LVU173
 674 0040 A8EB0705 		sub	r5, r8, r7
 675              	.LVL77:
  64:Src/ssd1963_fsmc.c **** 	for (;;)
 676              		.loc 1 64 2 is_stmt 1 discriminator 4 view .LVU174
 677              	.L34:
  65:Src/ssd1963_fsmc.c **** 	{
 678              		.loc 1 65 2 view .LVU175
  67:Src/ssd1963_fsmc.c **** 		if (x1 == x2 && y1 == y2)
 679              		.loc 1 67 3 view .LVU176
 680 0044 BDF80C20 		ldrh	r2, [sp, #12]
 681 0048 CDF800A0 		str	r10, [sp]
 682 004c 1346     		mov	r3, r2
 683 004e 3146     		mov	r1, r6
 684 0050 2046     		mov	r0, r4
 685 0052 FFF7FEFF 		bl	LCD_Rect_Fill
 686              	.LVL78:
  68:Src/ssd1963_fsmc.c **** 		break;
 687              		.loc 1 68 3 view .LVU177
  68:Src/ssd1963_fsmc.c **** 		break;
 688              		.loc 1 68 6 is_stmt 0 view .LVU178
 689 0056 4C45     		cmp	r4, r9
 690 0058 15D0     		beq	.L42
 691              	.L35:
  70:Src/ssd1963_fsmc.c **** 		if (error2 > -deltaY)
 692              		.loc 1 70 3 is_stmt 1 view .LVU179
  70:Src/ssd1963_fsmc.c **** 		if (error2 > -deltaY)
 693              		.loc 1 70 10 is_stmt 0 view .LVU180
 694 005a 6B00     		lsls	r3, r5, #1
 695              	.LVL79:
  71:Src/ssd1963_fsmc.c **** 		{
 696              		.loc 1 71 3 is_stmt 1 view .LVU181
  71:Src/ssd1963_fsmc.c **** 		{
 697              		.loc 1 71 16 is_stmt 0 view .LVU182
 698 005c 7A42     		rsbs	r2, r7, #0
  71:Src/ssd1963_fsmc.c **** 		{
 699              		.loc 1 71 6 view .LVU183
 700 005e B2EB450F 		cmp	r2, r5, lsl #1
ARM GAS  C:\Users\BLACK_~1\AppData\Local\Temp\ccMgrS3u.s 			page 21


 701 0062 03DA     		bge	.L37
  73:Src/ssd1963_fsmc.c **** 			x1 += signX;
 702              		.loc 1 73 4 is_stmt 1 view .LVU184
  73:Src/ssd1963_fsmc.c **** 			x1 += signX;
 703              		.loc 1 73 10 is_stmt 0 view .LVU185
 704 0064 ED1B     		subs	r5, r5, r7
 705              	.LVL80:
  74:Src/ssd1963_fsmc.c **** 		}
 706              		.loc 1 74 4 is_stmt 1 view .LVU186
  74:Src/ssd1963_fsmc.c **** 		}
 707              		.loc 1 74 7 is_stmt 0 view .LVU187
 708 0066 049A     		ldr	r2, [sp, #16]
 709 0068 1444     		add	r4, r4, r2
 710              	.LVL81:
  74:Src/ssd1963_fsmc.c **** 		}
 711              		.loc 1 74 7 view .LVU188
 712 006a A4B2     		uxth	r4, r4
 713              	.LVL82:
 714              	.L37:
  76:Src/ssd1963_fsmc.c **** 		{
 715              		.loc 1 76 3 is_stmt 1 view .LVU189
  76:Src/ssd1963_fsmc.c **** 		{
 716              		.loc 1 76 6 is_stmt 0 view .LVU190
 717 006c 9845     		cmp	r8, r3
 718 006e E9DD     		ble	.L34
  78:Src/ssd1963_fsmc.c **** 			y1 += signY;
 719              		.loc 1 78 4 is_stmt 1 view .LVU191
  78:Src/ssd1963_fsmc.c **** 			y1 += signY;
 720              		.loc 1 78 10 is_stmt 0 view .LVU192
 721 0070 4544     		add	r5, r5, r8
 722              	.LVL83:
  79:Src/ssd1963_fsmc.c **** 		}
 723              		.loc 1 79 4 is_stmt 1 view .LVU193
  79:Src/ssd1963_fsmc.c **** 		}
 724              		.loc 1 79 7 is_stmt 0 view .LVU194
 725 0072 5E44     		add	r6, r6, fp
 726              	.LVL84:
  79:Src/ssd1963_fsmc.c **** 		}
 727              		.loc 1 79 7 view .LVU195
 728 0074 B6B2     		uxth	r6, r6
 729              	.LVL85:
  79:Src/ssd1963_fsmc.c **** 		}
 730              		.loc 1 79 7 view .LVU196
 731 0076 E5E7     		b	.L34
 732              	.LVL86:
 733              	.L39:
  61:Src/ssd1963_fsmc.c **** 	int signY = y1 < y2 ? 1 : -1;
 734              		.loc 1 61 26 view .LVU197
 735 0078 4FF0FF33 		mov	r3, #-1
 736              	.LVL87:
  61:Src/ssd1963_fsmc.c **** 	int signY = y1 < y2 ? 1 : -1;
 737              		.loc 1 61 26 view .LVU198
 738 007c 0493     		str	r3, [sp, #16]
 739 007e DAE7     		b	.L32
 740              	.LVL88:
 741              	.L40:
  62:Src/ssd1963_fsmc.c **** 	int error = deltaX - deltaY;
ARM GAS  C:\Users\BLACK_~1\AppData\Local\Temp\ccMgrS3u.s 			page 22


 742              		.loc 1 62 26 view .LVU199
 743 0080 4FF0FF3B 		mov	fp, #-1
 744 0084 DCE7     		b	.L33
 745              	.LVL89:
 746              	.L42:
  68:Src/ssd1963_fsmc.c **** 		break;
 747              		.loc 1 68 16 discriminator 1 view .LVU200
 748 0086 059B     		ldr	r3, [sp, #20]
 749 0088 9E42     		cmp	r6, r3
 750 008a E6D1     		bne	.L35
  82:Src/ssd1963_fsmc.c **** 
 751              		.loc 1 82 1 view .LVU201
 752 008c 07B0     		add	sp, sp, #28
 753              	.LCFI8:
 754              		.cfi_def_cfa_offset 36
 755              		@ sp needed
 756 008e BDE8F08F 		pop	{r4, r5, r6, r7, r8, r9, r10, fp, pc}
  82:Src/ssd1963_fsmc.c **** 
 757              		.loc 1 82 1 view .LVU202
 758              		.cfi_endproc
 759              	.LFE137:
 761              		.section	.text.LCD_Triangle,"ax",%progbits
 762              		.align	1
 763              		.global	LCD_Triangle
 764              		.syntax unified
 765              		.thumb
 766              		.thumb_func
 768              	LCD_Triangle:
 769              	.LVL90:
 770              	.LFB138:
  85:Src/ssd1963_fsmc.c **** 	LCD_Line(x1, y1, x2, y2, size, color24);
 771              		.loc 1 85 1 is_stmt 1 view -0
 772              		.cfi_startproc
 773              		@ args = 16, pretend = 0, frame = 0
 774              		@ frame_needed = 0, uses_anonymous_args = 0
  85:Src/ssd1963_fsmc.c **** 	LCD_Line(x1, y1, x2, y2, size, color24);
 775              		.loc 1 85 1 is_stmt 0 view .LVU204
 776 0000 2DE9F04F 		push	{r4, r5, r6, r7, r8, r9, r10, fp, lr}
 777              	.LCFI9:
 778              		.cfi_def_cfa_offset 36
 779              		.cfi_offset 4, -36
 780              		.cfi_offset 5, -32
 781              		.cfi_offset 6, -28
 782              		.cfi_offset 7, -24
 783              		.cfi_offset 8, -20
 784              		.cfi_offset 9, -16
 785              		.cfi_offset 10, -12
 786              		.cfi_offset 11, -8
 787              		.cfi_offset 14, -4
 788 0004 83B0     		sub	sp, sp, #12
 789              	.LCFI10:
 790              		.cfi_def_cfa_offset 48
 791 0006 0446     		mov	r4, r0
 792 0008 0D46     		mov	r5, r1
 793 000a 9046     		mov	r8, r2
 794 000c 9946     		mov	r9, r3
 795 000e BDF830A0 		ldrh	r10, [sp, #48]
ARM GAS  C:\Users\BLACK_~1\AppData\Local\Temp\ccMgrS3u.s 			page 23


 796 0012 BDF834B0 		ldrh	fp, [sp, #52]
 797 0016 9DF83860 		ldrb	r6, [sp, #56]	@ zero_extendqisi2
 798 001a 0F9F     		ldr	r7, [sp, #60]
  86:Src/ssd1963_fsmc.c **** 	LCD_Line(x2, y2, x3, y3, size, color24);
 799              		.loc 1 86 2 is_stmt 1 view .LVU205
 800 001c 0197     		str	r7, [sp, #4]
 801 001e 0096     		str	r6, [sp]
 802 0020 FFF7FEFF 		bl	LCD_Line
 803              	.LVL91:
  87:Src/ssd1963_fsmc.c **** 	LCD_Line(x3, y3, x1, y1, size, color24);
 804              		.loc 1 87 2 view .LVU206
 805 0024 0197     		str	r7, [sp, #4]
 806 0026 0096     		str	r6, [sp]
 807 0028 5B46     		mov	r3, fp
 808 002a 5246     		mov	r2, r10
 809 002c 4946     		mov	r1, r9
 810 002e 4046     		mov	r0, r8
 811 0030 FFF7FEFF 		bl	LCD_Line
 812              	.LVL92:
  88:Src/ssd1963_fsmc.c **** }
 813              		.loc 1 88 2 view .LVU207
 814 0034 0197     		str	r7, [sp, #4]
 815 0036 0096     		str	r6, [sp]
 816 0038 2B46     		mov	r3, r5
 817 003a 2246     		mov	r2, r4
 818 003c 5946     		mov	r1, fp
 819 003e 5046     		mov	r0, r10
 820 0040 FFF7FEFF 		bl	LCD_Line
 821              	.LVL93:
  89:Src/ssd1963_fsmc.c **** 
 822              		.loc 1 89 1 is_stmt 0 view .LVU208
 823 0044 03B0     		add	sp, sp, #12
 824              	.LCFI11:
 825              		.cfi_def_cfa_offset 36
 826              		@ sp needed
 827 0046 BDE8F08F 		pop	{r4, r5, r6, r7, r8, r9, r10, fp, pc}
  89:Src/ssd1963_fsmc.c **** 
 828              		.loc 1 89 1 view .LVU209
 829              		.cfi_endproc
 830              	.LFE138:
 832              		.section	.text.LCD_Triangle_Fill,"ax",%progbits
 833              		.align	1
 834              		.global	LCD_Triangle_Fill
 835              		.syntax unified
 836              		.thumb
 837              		.thumb_func
 839              	LCD_Triangle_Fill:
 840              	.LVL94:
 841              	.LFB139:
  94:Src/ssd1963_fsmc.c **** 	int16_t deltax = 0, deltay = 0, x = 0, y = 0, xinc1 = 0, xinc2 = 0, 
 842              		.loc 1 94 1 is_stmt 1 view -0
 843              		.cfi_startproc
 844              		@ args = 12, pretend = 0, frame = 24
 845              		@ frame_needed = 0, uses_anonymous_args = 0
  94:Src/ssd1963_fsmc.c **** 	int16_t deltax = 0, deltay = 0, x = 0, y = 0, xinc1 = 0, xinc2 = 0, 
 846              		.loc 1 94 1 is_stmt 0 view .LVU211
 847 0000 2DE9F04F 		push	{r4, r5, r6, r7, r8, r9, r10, fp, lr}
ARM GAS  C:\Users\BLACK_~1\AppData\Local\Temp\ccMgrS3u.s 			page 24


 848              	.LCFI12:
 849              		.cfi_def_cfa_offset 36
 850              		.cfi_offset 4, -36
 851              		.cfi_offset 5, -32
 852              		.cfi_offset 6, -28
 853              		.cfi_offset 7, -24
 854              		.cfi_offset 8, -20
 855              		.cfi_offset 9, -16
 856              		.cfi_offset 10, -12
 857              		.cfi_offset 11, -8
 858              		.cfi_offset 14, -4
 859 0004 89B0     		sub	sp, sp, #36
 860              	.LCFI13:
 861              		.cfi_def_cfa_offset 72
 862 0006 BDF84840 		ldrh	r4, [sp, #72]
 863 000a 0494     		str	r4, [sp, #16]
 864 000c BDF84C40 		ldrh	r4, [sp, #76]
 865 0010 0594     		str	r4, [sp, #20]
  95:Src/ssd1963_fsmc.c **** 	yinc1 = 0, yinc2 = 0, den = 0, num = 0, numadd = 0, numpixels = 0, 
 866              		.loc 1 95 2 is_stmt 1 view .LVU212
 867              	.LVL95:
  99:Src/ssd1963_fsmc.c **** 	deltay = ABS(y2 - y1);
 868              		.loc 1 99 2 view .LVU213
  99:Src/ssd1963_fsmc.c **** 	deltay = ABS(y2 - y1);
 869              		.loc 1 99 11 is_stmt 0 view .LVU214
 870 0012 A2EB000A 		sub	r10, r2, r0
 871 0016 BAF1000F 		cmp	r10, #0
 872 001a B8BF     		it	lt
 873 001c CAF1000A 		rsblt	r10, r10, #0
  99:Src/ssd1963_fsmc.c **** 	deltay = ABS(y2 - y1);
 874              		.loc 1 99 9 view .LVU215
 875 0020 0FFA8AFA 		sxth	r10, r10
 876              	.LVL96:
 100:Src/ssd1963_fsmc.c **** 	x = x1;
 877              		.loc 1 100 2 is_stmt 1 view .LVU216
 100:Src/ssd1963_fsmc.c **** 	x = x1;
 878              		.loc 1 100 11 is_stmt 0 view .LVU217
 879 0024 A3EB010B 		sub	fp, r3, r1
 880 0028 BBF1000F 		cmp	fp, #0
 881 002c B8BF     		it	lt
 882 002e CBF1000B 		rsblt	fp, fp, #0
 100:Src/ssd1963_fsmc.c **** 	x = x1;
 883              		.loc 1 100 9 view .LVU218
 884 0032 0FFA8BFB 		sxth	fp, fp
 885              	.LVL97:
 101:Src/ssd1963_fsmc.c **** 	y = y1;
 886              		.loc 1 101 2 is_stmt 1 view .LVU219
 101:Src/ssd1963_fsmc.c **** 	y = y1;
 887              		.loc 1 101 4 is_stmt 0 view .LVU220
 888 0036 04B2     		sxth	r4, r0
 889              	.LVL98:
 102:Src/ssd1963_fsmc.c **** 
 890              		.loc 1 102 2 is_stmt 1 view .LVU221
 102:Src/ssd1963_fsmc.c **** 
 891              		.loc 1 102 4 is_stmt 0 view .LVU222
 892 0038 0EB2     		sxth	r6, r1
 893              	.LVL99:
ARM GAS  C:\Users\BLACK_~1\AppData\Local\Temp\ccMgrS3u.s 			page 25


 104:Src/ssd1963_fsmc.c **** 	{
 894              		.loc 1 104 2 is_stmt 1 view .LVU223
 104:Src/ssd1963_fsmc.c **** 	{
 895              		.loc 1 104 5 is_stmt 0 view .LVU224
 896 003a 8242     		cmp	r2, r0
 897 003c 13D3     		bcc	.L53
 106:Src/ssd1963_fsmc.c **** 		xinc2 = 1;
 898              		.loc 1 106 9 view .LVU225
 899 003e 0122     		movs	r2, #1
 900              	.LVL100:
 106:Src/ssd1963_fsmc.c **** 		xinc2 = 1;
 901              		.loc 1 106 9 view .LVU226
 902 0040 0692     		str	r2, [sp, #24]
 903              	.L46:
 904              	.LVL101:
 115:Src/ssd1963_fsmc.c **** 	{
 905              		.loc 1 115 2 is_stmt 1 view .LVU227
 115:Src/ssd1963_fsmc.c **** 	{
 906              		.loc 1 115 5 is_stmt 0 view .LVU228
 907 0042 8B42     		cmp	r3, r1
 908 0044 13D3     		bcc	.L54
 117:Src/ssd1963_fsmc.c **** 		yinc2 = 1;
 909              		.loc 1 117 9 view .LVU229
 910 0046 0123     		movs	r3, #1
 911              	.LVL102:
 117:Src/ssd1963_fsmc.c **** 		yinc2 = 1;
 912              		.loc 1 117 9 view .LVU230
 913 0048 0793     		str	r3, [sp, #28]
 914              	.L47:
 915              	.LVL103:
 126:Src/ssd1963_fsmc.c **** 	{
 916              		.loc 1 126 2 is_stmt 1 view .LVU231
 126:Src/ssd1963_fsmc.c **** 	{
 917              		.loc 1 126 5 is_stmt 0 view .LVU232
 918 004a DA45     		cmp	r10, fp
 919 004c 13DB     		blt	.L48
 128:Src/ssd1963_fsmc.c **** 		yinc2 = 0;
 920              		.loc 1 128 3 is_stmt 1 view .LVU233
 921              	.LVL104:
 129:Src/ssd1963_fsmc.c **** 		den = deltax;
 922              		.loc 1 129 3 view .LVU234
 130:Src/ssd1963_fsmc.c **** 		num = deltax / 2;
 923              		.loc 1 130 3 view .LVU235
 131:Src/ssd1963_fsmc.c **** 		numadd = deltay;
 924              		.loc 1 131 3 view .LVU236
 131:Src/ssd1963_fsmc.c **** 		numadd = deltay;
 925              		.loc 1 131 7 is_stmt 0 view .LVU237
 926 004e 0AEBDA78 		add	r8, r10, r10, lsr #31
 927 0052 48F34F08 		sbfx	r8, r8, #1, #16
 928              	.LVL105:
 132:Src/ssd1963_fsmc.c **** 		numpixels = deltax;
 929              		.loc 1 132 3 is_stmt 1 view .LVU238
 133:Src/ssd1963_fsmc.c **** 	}
 930              		.loc 1 133 3 view .LVU239
 133:Src/ssd1963_fsmc.c **** 	}
 931              		.loc 1 133 3 is_stmt 0 view .LVU240
 932 0056 069B     		ldr	r3, [sp, #24]
ARM GAS  C:\Users\BLACK_~1\AppData\Local\Temp\ccMgrS3u.s 			page 26


 933 0058 0293     		str	r3, [sp, #8]
 129:Src/ssd1963_fsmc.c **** 		den = deltax;
 934              		.loc 1 129 9 view .LVU241
 935 005a 0023     		movs	r3, #0
 936 005c 0693     		str	r3, [sp, #24]
 937              	.LVL106:
 128:Src/ssd1963_fsmc.c **** 		yinc2 = 0;
 938              		.loc 1 128 9 view .LVU242
 939 005e 0393     		str	r3, [sp, #12]
 940              	.LVL107:
 941              	.L49:
 145:Src/ssd1963_fsmc.c **** 	{
 942              		.loc 1 145 2 is_stmt 1 view .LVU243
 145:Src/ssd1963_fsmc.c **** 	{
 943              		.loc 1 145 16 is_stmt 0 view .LVU244
 944 0060 4FF00009 		mov	r9, #0
 145:Src/ssd1963_fsmc.c **** 	{
 945              		.loc 1 145 2 view .LVU245
 946 0064 1EE0     		b	.L50
 947              	.LVL108:
 948              	.L53:
 111:Src/ssd1963_fsmc.c **** 		xinc2 = -1;
 949              		.loc 1 111 9 view .LVU246
 950 0066 4FF0FF32 		mov	r2, #-1
 951              	.LVL109:
 111:Src/ssd1963_fsmc.c **** 		xinc2 = -1;
 952              		.loc 1 111 9 view .LVU247
 953 006a 0692     		str	r2, [sp, #24]
 954 006c E9E7     		b	.L46
 955              	.LVL110:
 956              	.L54:
 122:Src/ssd1963_fsmc.c **** 		yinc2 = -1;
 957              		.loc 1 122 9 view .LVU248
 958 006e 4FF0FF33 		mov	r3, #-1
 959              	.LVL111:
 122:Src/ssd1963_fsmc.c **** 		yinc2 = -1;
 960              		.loc 1 122 9 view .LVU249
 961 0072 0793     		str	r3, [sp, #28]
 962 0074 E9E7     		b	.L47
 963              	.LVL112:
 964              	.L48:
 137:Src/ssd1963_fsmc.c **** 		yinc1 = 0;
 965              		.loc 1 137 3 is_stmt 1 view .LVU250
 138:Src/ssd1963_fsmc.c **** 		den = deltay;
 966              		.loc 1 138 3 view .LVU251
 139:Src/ssd1963_fsmc.c **** 		num = deltay / 2;
 967              		.loc 1 139 3 view .LVU252
 140:Src/ssd1963_fsmc.c **** 		numadd = deltax;
 968              		.loc 1 140 3 view .LVU253
 140:Src/ssd1963_fsmc.c **** 		numadd = deltax;
 969              		.loc 1 140 7 is_stmt 0 view .LVU254
 970 0076 0BEBDB78 		add	r8, fp, fp, lsr #31
 971 007a 48F34F08 		sbfx	r8, r8, #1, #16
 972              	.LVL113:
 141:Src/ssd1963_fsmc.c **** 		numpixels = deltay;
 973              		.loc 1 141 3 is_stmt 1 view .LVU255
 142:Src/ssd1963_fsmc.c **** 	}
ARM GAS  C:\Users\BLACK_~1\AppData\Local\Temp\ccMgrS3u.s 			page 27


 974              		.loc 1 142 3 view .LVU256
 140:Src/ssd1963_fsmc.c **** 		numadd = deltax;
 975              		.loc 1 140 7 is_stmt 0 view .LVU257
 976 007e 5346     		mov	r3, r10
 139:Src/ssd1963_fsmc.c **** 		num = deltay / 2;
 977              		.loc 1 139 7 view .LVU258
 978 0080 DA46     		mov	r10, fp
 979              	.LVL114:
 141:Src/ssd1963_fsmc.c **** 		numpixels = deltay;
 980              		.loc 1 141 10 view .LVU259
 981 0082 9B46     		mov	fp, r3
 982              	.LVL115:
 140:Src/ssd1963_fsmc.c **** 		numadd = deltax;
 983              		.loc 1 140 7 view .LVU260
 984 0084 079B     		ldr	r3, [sp, #28]
 985              	.LVL116:
 140:Src/ssd1963_fsmc.c **** 		numadd = deltax;
 986              		.loc 1 140 7 view .LVU261
 987 0086 0393     		str	r3, [sp, #12]
 138:Src/ssd1963_fsmc.c **** 		den = deltay;
 988              		.loc 1 138 9 view .LVU262
 989 0088 0023     		movs	r3, #0
 990 008a 0793     		str	r3, [sp, #28]
 991              	.LVL117:
 137:Src/ssd1963_fsmc.c **** 		yinc1 = 0;
 992              		.loc 1 137 9 view .LVU263
 993 008c 0293     		str	r3, [sp, #8]
 994 008e E7E7     		b	.L49
 995              	.LVL118:
 996              	.L51:
 156:Src/ssd1963_fsmc.c **** 		y += yinc2;
 997              		.loc 1 156 3 is_stmt 1 discriminator 2 view .LVU264
 156:Src/ssd1963_fsmc.c **** 		y += yinc2;
 998              		.loc 1 156 5 is_stmt 0 discriminator 2 view .LVU265
 999 0090 029B     		ldr	r3, [sp, #8]
 1000 0092 1C44     		add	r4, r4, r3
 1001              	.LVL119:
 156:Src/ssd1963_fsmc.c **** 		y += yinc2;
 1002              		.loc 1 156 5 discriminator 2 view .LVU266
 1003 0094 24B2     		sxth	r4, r4
 1004              	.LVL120:
 157:Src/ssd1963_fsmc.c **** 	}
 1005              		.loc 1 157 3 is_stmt 1 discriminator 2 view .LVU267
 157:Src/ssd1963_fsmc.c **** 	}
 1006              		.loc 1 157 5 is_stmt 0 discriminator 2 view .LVU268
 1007 0096 039B     		ldr	r3, [sp, #12]
 1008 0098 1E44     		add	r6, r6, r3
 1009              	.LVL121:
 157:Src/ssd1963_fsmc.c **** 	}
 1010              		.loc 1 157 5 discriminator 2 view .LVU269
 1011 009a 36B2     		sxth	r6, r6
 1012              	.LVL122:
 145:Src/ssd1963_fsmc.c **** 	{
 1013              		.loc 1 145 44 is_stmt 1 discriminator 2 view .LVU270
 145:Src/ssd1963_fsmc.c **** 	{
 1014              		.loc 1 145 52 is_stmt 0 discriminator 2 view .LVU271
 1015 009c 09F10109 		add	r9, r9, #1
ARM GAS  C:\Users\BLACK_~1\AppData\Local\Temp\ccMgrS3u.s 			page 28


 1016              	.LVL123:
 145:Src/ssd1963_fsmc.c **** 	{
 1017              		.loc 1 145 52 discriminator 2 view .LVU272
 1018 00a0 0FFA89F9 		sxth	r9, r9
 1019              	.LVL124:
 1020              	.L50:
 145:Src/ssd1963_fsmc.c **** 	{
 1021              		.loc 1 145 21 is_stmt 1 discriminator 1 view .LVU273
 145:Src/ssd1963_fsmc.c **** 	{
 1022              		.loc 1 145 2 is_stmt 0 discriminator 1 view .LVU274
 1023 00a4 CA45     		cmp	r10, r9
 1024 00a6 1DDB     		blt	.L56
 147:Src/ssd1963_fsmc.c **** 
 1025              		.loc 1 147 3 is_stmt 1 view .LVU275
 1026 00a8 A7B2     		uxth	r7, r4
 1027 00aa B5B2     		uxth	r5, r6
 1028 00ac 149B     		ldr	r3, [sp, #80]
 1029 00ae 0193     		str	r3, [sp, #4]
 1030 00b0 0123     		movs	r3, #1
 1031 00b2 0093     		str	r3, [sp]
 1032 00b4 059B     		ldr	r3, [sp, #20]
 1033 00b6 049A     		ldr	r2, [sp, #16]
 1034 00b8 2946     		mov	r1, r5
 1035 00ba 3846     		mov	r0, r7
 1036 00bc FFF7FEFF 		bl	LCD_Line
 1037              	.LVL125:
 149:Src/ssd1963_fsmc.c **** 		if (num >= den)
 1038              		.loc 1 149 3 view .LVU276
 149:Src/ssd1963_fsmc.c **** 		if (num >= den)
 1039              		.loc 1 149 7 is_stmt 0 view .LVU277
 1040 00c0 D844     		add	r8, r8, fp
 1041              	.LVL126:
 149:Src/ssd1963_fsmc.c **** 		if (num >= den)
 1042              		.loc 1 149 7 view .LVU278
 1043 00c2 1FFA88F3 		uxth	r3, r8
 1044 00c6 0FFA88F8 		sxth	r8, r8
 1045              	.LVL127:
 150:Src/ssd1963_fsmc.c **** 		{
 1046              		.loc 1 150 3 is_stmt 1 view .LVU279
 150:Src/ssd1963_fsmc.c **** 		{
 1047              		.loc 1 150 6 is_stmt 0 view .LVU280
 1048 00ca C245     		cmp	r10, r8
 1049 00cc E0DC     		bgt	.L51
 152:Src/ssd1963_fsmc.c **** 			x += xinc1;
 1050              		.loc 1 152 4 is_stmt 1 view .LVU281
 152:Src/ssd1963_fsmc.c **** 			x += xinc1;
 1051              		.loc 1 152 8 is_stmt 0 view .LVU282
 1052 00ce A3EB0A03 		sub	r3, r3, r10
 1053 00d2 0FFA83F8 		sxth	r8, r3
 1054              	.LVL128:
 153:Src/ssd1963_fsmc.c **** 			y += yinc1;
 1055              		.loc 1 153 4 is_stmt 1 view .LVU283
 153:Src/ssd1963_fsmc.c **** 			y += yinc1;
 1056              		.loc 1 153 6 is_stmt 0 view .LVU284
 1057 00d6 069B     		ldr	r3, [sp, #24]
 1058 00d8 FC18     		adds	r4, r7, r3
 1059              	.LVL129:
ARM GAS  C:\Users\BLACK_~1\AppData\Local\Temp\ccMgrS3u.s 			page 29


 153:Src/ssd1963_fsmc.c **** 			y += yinc1;
 1060              		.loc 1 153 6 view .LVU285
 1061 00da 24B2     		sxth	r4, r4
 1062              	.LVL130:
 154:Src/ssd1963_fsmc.c **** 		}
 1063              		.loc 1 154 4 is_stmt 1 view .LVU286
 154:Src/ssd1963_fsmc.c **** 		}
 1064              		.loc 1 154 6 is_stmt 0 view .LVU287
 1065 00dc 079B     		ldr	r3, [sp, #28]
 1066 00de 1D44     		add	r5, r5, r3
 1067 00e0 2EB2     		sxth	r6, r5
 1068              	.LVL131:
 154:Src/ssd1963_fsmc.c **** 		}
 1069              		.loc 1 154 6 view .LVU288
 1070 00e2 D5E7     		b	.L51
 1071              	.L56:
 159:Src/ssd1963_fsmc.c **** 
 1072              		.loc 1 159 1 view .LVU289
 1073 00e4 09B0     		add	sp, sp, #36
 1074              	.LCFI14:
 1075              		.cfi_def_cfa_offset 36
 1076              		@ sp needed
 1077 00e6 BDE8F08F 		pop	{r4, r5, r6, r7, r8, r9, r10, fp, pc}
 159:Src/ssd1963_fsmc.c **** 
 1078              		.loc 1 159 1 view .LVU290
 1079              		.cfi_endproc
 1080              	.LFE139:
 1082              		.section	.text.LCD_Rect,"ax",%progbits
 1083              		.align	1
 1084              		.global	LCD_Rect
 1085              		.syntax unified
 1086              		.thumb
 1087              		.thumb_func
 1089              	LCD_Rect:
 1090              	.LVL132:
 1091              	.LFB140:
 162:Src/ssd1963_fsmc.c **** 	LCD_Line(x, y, x + w, y, size, color24);
 1092              		.loc 1 162 1 is_stmt 1 view -0
 1093              		.cfi_startproc
 1094              		@ args = 8, pretend = 0, frame = 0
 1095              		@ frame_needed = 0, uses_anonymous_args = 0
 162:Src/ssd1963_fsmc.c **** 	LCD_Line(x, y, x + w, y, size, color24);
 1096              		.loc 1 162 1 is_stmt 0 view .LVU292
 1097 0000 2DE9F043 		push	{r4, r5, r6, r7, r8, r9, lr}
 1098              	.LCFI15:
 1099              		.cfi_def_cfa_offset 28
 1100              		.cfi_offset 4, -28
 1101              		.cfi_offset 5, -24
 1102              		.cfi_offset 6, -20
 1103              		.cfi_offset 7, -16
 1104              		.cfi_offset 8, -12
 1105              		.cfi_offset 9, -8
 1106              		.cfi_offset 14, -4
 1107 0004 83B0     		sub	sp, sp, #12
 1108              	.LCFI16:
 1109              		.cfi_def_cfa_offset 40
 1110 0006 0746     		mov	r7, r0
ARM GAS  C:\Users\BLACK_~1\AppData\Local\Temp\ccMgrS3u.s 			page 30


 1111 0008 0E46     		mov	r6, r1
 1112 000a 1C46     		mov	r4, r3
 1113 000c 9DF82880 		ldrb	r8, [sp, #40]	@ zero_extendqisi2
 1114 0010 DDF82C90 		ldr	r9, [sp, #44]
 163:Src/ssd1963_fsmc.c **** 	LCD_Line(x, y + h, x + w, y + h, size, color24);
 1115              		.loc 1 163 2 is_stmt 1 view .LVU293
 1116 0014 0244     		add	r2, r2, r0
 1117              	.LVL133:
 163:Src/ssd1963_fsmc.c **** 	LCD_Line(x, y + h, x + w, y + h, size, color24);
 1118              		.loc 1 163 2 is_stmt 0 view .LVU294
 1119 0016 95B2     		uxth	r5, r2
 1120 0018 CDF80490 		str	r9, [sp, #4]
 1121 001c CDF80080 		str	r8, [sp]
 1122 0020 0B46     		mov	r3, r1
 1123              	.LVL134:
 163:Src/ssd1963_fsmc.c **** 	LCD_Line(x, y + h, x + w, y + h, size, color24);
 1124              		.loc 1 163 2 view .LVU295
 1125 0022 2A46     		mov	r2, r5
 1126 0024 FFF7FEFF 		bl	LCD_Line
 1127              	.LVL135:
 164:Src/ssd1963_fsmc.c **** 	LCD_Line(x, y, x, y + h, size, color24);
 1128              		.loc 1 164 2 is_stmt 1 view .LVU296
 1129 0028 3444     		add	r4, r4, r6
 1130 002a A4B2     		uxth	r4, r4
 1131 002c CDF80490 		str	r9, [sp, #4]
 1132 0030 CDF80080 		str	r8, [sp]
 1133 0034 2346     		mov	r3, r4
 1134 0036 2A46     		mov	r2, r5
 1135 0038 2146     		mov	r1, r4
 1136 003a 3846     		mov	r0, r7
 1137 003c FFF7FEFF 		bl	LCD_Line
 1138              	.LVL136:
 165:Src/ssd1963_fsmc.c **** 	LCD_Line(x + w, y, x + w, y + h, size, color24);
 1139              		.loc 1 165 2 view .LVU297
 1140 0040 CDF80490 		str	r9, [sp, #4]
 1141 0044 CDF80080 		str	r8, [sp]
 1142 0048 2346     		mov	r3, r4
 1143 004a 3A46     		mov	r2, r7
 1144 004c 3146     		mov	r1, r6
 1145 004e 3846     		mov	r0, r7
 1146 0050 FFF7FEFF 		bl	LCD_Line
 1147              	.LVL137:
 166:Src/ssd1963_fsmc.c **** }
 1148              		.loc 1 166 2 view .LVU298
 1149 0054 CDF80490 		str	r9, [sp, #4]
 1150 0058 CDF80080 		str	r8, [sp]
 1151 005c 2346     		mov	r3, r4
 1152 005e 2A46     		mov	r2, r5
 1153 0060 3146     		mov	r1, r6
 1154 0062 2846     		mov	r0, r5
 1155 0064 FFF7FEFF 		bl	LCD_Line
 1156              	.LVL138:
 167:Src/ssd1963_fsmc.c **** 
 1157              		.loc 1 167 1 is_stmt 0 view .LVU299
 1158 0068 03B0     		add	sp, sp, #12
 1159              	.LCFI17:
 1160              		.cfi_def_cfa_offset 28
ARM GAS  C:\Users\BLACK_~1\AppData\Local\Temp\ccMgrS3u.s 			page 31


 1161              		@ sp needed
 1162 006a BDE8F083 		pop	{r4, r5, r6, r7, r8, r9, pc}
 167:Src/ssd1963_fsmc.c **** 
 1163              		.loc 1 167 1 view .LVU300
 1164              		.cfi_endproc
 1165              	.LFE140:
 1167              		.section	.text.LCD_Ellipse,"ax",%progbits
 1168              		.align	1
 1169              		.global	LCD_Ellipse
 1170              		.syntax unified
 1171              		.thumb
 1172              		.thumb_func
 1174              	LCD_Ellipse:
 1175              	.LVL139:
 1176              	.LFB141:
 170:Src/ssd1963_fsmc.c **** 	int16_t x, y;
 1177              		.loc 1 170 1 is_stmt 1 view -0
 1178              		.cfi_startproc
 1179              		@ args = 12, pretend = 0, frame = 48
 1180              		@ frame_needed = 0, uses_anonymous_args = 0
 170:Src/ssd1963_fsmc.c **** 	int16_t x, y;
 1181              		.loc 1 170 1 is_stmt 0 view .LVU302
 1182 0000 2DE9F04F 		push	{r4, r5, r6, r7, r8, r9, r10, fp, lr}
 1183              	.LCFI18:
 1184              		.cfi_def_cfa_offset 36
 1185              		.cfi_offset 4, -36
 1186              		.cfi_offset 5, -32
 1187              		.cfi_offset 6, -28
 1188              		.cfi_offset 7, -24
 1189              		.cfi_offset 8, -20
 1190              		.cfi_offset 9, -16
 1191              		.cfi_offset 10, -12
 1192              		.cfi_offset 11, -8
 1193              		.cfi_offset 14, -4
 1194 0004 8FB0     		sub	sp, sp, #60
 1195              	.LCFI19:
 1196              		.cfi_def_cfa_offset 96
 1197 0006 0590     		str	r0, [sp, #20]
 1198 0008 0691     		str	r1, [sp, #24]
 1199 000a 0392     		str	r2, [sp, #12]
 1200 000c 9B46     		mov	fp, r3
 1201 000e 9DF86030 		ldrb	r3, [sp, #96]	@ zero_extendqisi2
 1202              	.LVL140:
 170:Src/ssd1963_fsmc.c **** 	int16_t x, y;
 1203              		.loc 1 170 1 view .LVU303
 1204 0012 9DF86400 		ldrb	r0, [sp, #100]	@ zero_extendqisi2
 1205              	.LVL141:
 170:Src/ssd1963_fsmc.c **** 	int16_t x, y;
 1206              		.loc 1 170 1 view .LVU304
 1207 0016 0890     		str	r0, [sp, #32]
 171:Src/ssd1963_fsmc.c **** 	int32_t rx2 = rx * rx;
 1208              		.loc 1 171 2 is_stmt 1 view .LVU305
 172:Src/ssd1963_fsmc.c **** 	int32_t ry2 = ry * ry;
 1209              		.loc 1 172 2 view .LVU306
 172:Src/ssd1963_fsmc.c **** 	int32_t ry2 = ry * ry;
 1210              		.loc 1 172 19 is_stmt 0 view .LVU307
 1211 0018 0D92     		str	r2, [sp, #52]
ARM GAS  C:\Users\BLACK_~1\AppData\Local\Temp\ccMgrS3u.s 			page 32


 172:Src/ssd1963_fsmc.c **** 	int32_t ry2 = ry * ry;
 1212              		.loc 1 172 10 view .LVU308
 1213 001a 02FB02F2 		mul	r2, r2, r2
 1214              	.LVL142:
 172:Src/ssd1963_fsmc.c **** 	int32_t ry2 = ry * ry;
 1215              		.loc 1 172 10 view .LVU309
 1216 001e 0492     		str	r2, [sp, #16]
 1217              	.LVL143:
 173:Src/ssd1963_fsmc.c **** 	int32_t fx2 = 4 * rx2;
 1218              		.loc 1 173 2 is_stmt 1 view .LVU310
 173:Src/ssd1963_fsmc.c **** 	int32_t fx2 = 4 * rx2;
 1219              		.loc 1 173 10 is_stmt 0 view .LVU311
 1220 0020 0BFB0BF1 		mul	r1, fp, fp
 1221              	.LVL144:
 173:Src/ssd1963_fsmc.c **** 	int32_t fx2 = 4 * rx2;
 1222              		.loc 1 173 10 view .LVU312
 1223 0024 0291     		str	r1, [sp, #8]
 1224              	.LVL145:
 174:Src/ssd1963_fsmc.c **** 	int32_t fy2 = 4 * ry2;
 1225              		.loc 1 174 2 is_stmt 1 view .LVU313
 174:Src/ssd1963_fsmc.c **** 	int32_t fy2 = 4 * ry2;
 1226              		.loc 1 174 10 is_stmt 0 view .LVU314
 1227 0026 9400     		lsls	r4, r2, #2
 1228 0028 0B94     		str	r4, [sp, #44]
 1229              	.LVL146:
 175:Src/ssd1963_fsmc.c **** 	int32_t s;
 1230              		.loc 1 175 2 is_stmt 1 view .LVU315
 175:Src/ssd1963_fsmc.c **** 	int32_t s;
 1231              		.loc 1 175 10 is_stmt 0 view .LVU316
 1232 002a 8C00     		lsls	r4, r1, #2
 1233              	.LVL147:
 175:Src/ssd1963_fsmc.c **** 	int32_t s;
 1234              		.loc 1 175 10 view .LVU317
 1235 002c 0C94     		str	r4, [sp, #48]
 1236              	.LVL148:
 176:Src/ssd1963_fsmc.c **** 	if (fill)
 1237              		.loc 1 176 2 is_stmt 1 view .LVU318
 177:Src/ssd1963_fsmc.c **** 	{
 1238              		.loc 1 177 2 view .LVU319
 177:Src/ssd1963_fsmc.c **** 	{
 1239              		.loc 1 177 5 is_stmt 0 view .LVU320
 1240 002e 002B     		cmp	r3, #0
 1241 0030 00F0AD80 		beq	.L60
 179:Src/ssd1963_fsmc.c **** 		{
 1242              		.loc 1 179 3 is_stmt 1 view .LVU321
 1243              	.LVL149:
 179:Src/ssd1963_fsmc.c **** 		{
 1244              		.loc 1 179 50 is_stmt 0 view .LVU322
 1245 0034 4FEA4B08 		lsl	r8, fp, #1
 179:Src/ssd1963_fsmc.c **** 		{
 1246              		.loc 1 179 46 view .LVU323
 1247 0038 C8F10108 		rsb	r8, r8, #1
 179:Src/ssd1963_fsmc.c **** 		{
 1248              		.loc 1 179 41 view .LVU324
 1249 003c 02FB08F8 		mul	r8, r2, r8
 179:Src/ssd1963_fsmc.c **** 		{
 1250              		.loc 1 179 25 view .LVU325
ARM GAS  C:\Users\BLACK_~1\AppData\Local\Temp\ccMgrS3u.s 			page 33


 1251 0040 08EB4108 		add	r8, r8, r1, lsl #1
 1252              	.LVL150:
 179:Src/ssd1963_fsmc.c **** 		{
 1253              		.loc 1 179 10 view .LVU326
 1254 0044 0025     		movs	r5, #0
 1255 0046 8246     		mov	r10, r0
 179:Src/ssd1963_fsmc.c **** 		{
 1256              		.loc 1 179 3 view .LVU327
 1257 0048 07E0     		b	.L61
 1258              	.LVL151:
 1259              	.L62:
 188:Src/ssd1963_fsmc.c **** 		}
 1260              		.loc 1 188 4 is_stmt 1 discriminator 2 view .LVU328
 188:Src/ssd1963_fsmc.c **** 		}
 1261              		.loc 1 188 19 is_stmt 0 discriminator 2 view .LVU329
 1262 004a 079B     		ldr	r3, [sp, #28]
 1263 004c 9B00     		lsls	r3, r3, #2
 188:Src/ssd1963_fsmc.c **** 		}
 1264              		.loc 1 188 24 discriminator 2 view .LVU330
 1265 004e 0633     		adds	r3, r3, #6
 188:Src/ssd1963_fsmc.c **** 		}
 1266              		.loc 1 188 6 discriminator 2 view .LVU331
 1267 0050 029A     		ldr	r2, [sp, #8]
 1268 0052 02FB0388 		mla	r8, r2, r3, r8
 1269              	.LVL152:
 179:Src/ssd1963_fsmc.c **** 		{
 1270              		.loc 1 179 77 is_stmt 1 discriminator 2 view .LVU332
 179:Src/ssd1963_fsmc.c **** 		{
 1271              		.loc 1 179 78 is_stmt 0 discriminator 2 view .LVU333
 1272 0056 0135     		adds	r5, r5, #1
 1273              	.LVL153:
 179:Src/ssd1963_fsmc.c **** 		{
 1274              		.loc 1 179 78 discriminator 2 view .LVU334
 1275 0058 2DB2     		sxth	r5, r5
 1276              	.LVL154:
 1277              	.L61:
 179:Src/ssd1963_fsmc.c **** 		{
 1278              		.loc 1 179 57 is_stmt 1 discriminator 1 view .LVU335
 179:Src/ssd1963_fsmc.c **** 		{
 1279              		.loc 1 179 61 is_stmt 0 discriminator 1 view .LVU336
 1280 005a 0795     		str	r5, [sp, #28]
 1281 005c 029B     		ldr	r3, [sp, #8]
 1282 005e 03FB05F3 		mul	r3, r3, r5
 179:Src/ssd1963_fsmc.c **** 		{
 1283              		.loc 1 179 72 discriminator 1 view .LVU337
 1284 0062 CDF824B0 		str	fp, [sp, #36]
 1285 0066 049A     		ldr	r2, [sp, #16]
 1286 0068 02FB0BF2 		mul	r2, r2, fp
 179:Src/ssd1963_fsmc.c **** 		{
 1287              		.loc 1 179 3 discriminator 1 view .LVU338
 1288 006c 9342     		cmp	r3, r2
 1289 006e 35DC     		bgt	.L75
 181:Src/ssd1963_fsmc.c **** 			LCD_Line(x0 - x, y0 + y, x0 + x + 1 - size, y0 + y, size, color24);
 1290              		.loc 1 181 4 is_stmt 1 view .LVU339
 1291 0070 BDF81420 		ldrh	r2, [sp, #20]
 1292 0074 ADB2     		uxth	r5, r5
 181:Src/ssd1963_fsmc.c **** 			LCD_Line(x0 - x, y0 + y, x0 + x + 1 - size, y0 + y, size, color24);
ARM GAS  C:\Users\BLACK_~1\AppData\Local\Temp\ccMgrS3u.s 			page 34


 1293              		.loc 1 181 4 is_stmt 0 view .LVU340
 1294 0076 571B     		subs	r7, r2, r5
 1295 0078 BFB2     		uxth	r7, r7
 1296 007a BDF81860 		ldrh	r6, [sp, #24]
 1297 007e 1FFA8BF9 		uxth	r9, fp
 1298 0082 A6EB0901 		sub	r1, r6, r9
 1299 0086 89B2     		uxth	r1, r1
 181:Src/ssd1963_fsmc.c **** 			LCD_Line(x0 - x, y0 + y, x0 + x + 1 - size, y0 + y, size, color24);
 1300              		.loc 1 181 32 view .LVU341
 1301 0088 5419     		adds	r4, r2, r5
 1302 008a A4B2     		uxth	r4, r4
 181:Src/ssd1963_fsmc.c **** 			LCD_Line(x0 - x, y0 + y, x0 + x + 1 - size, y0 + y, size, color24);
 1303              		.loc 1 181 40 view .LVU342
 1304 008c A4EB0A04 		sub	r4, r4, r10
 1305 0090 A4B2     		uxth	r4, r4
 181:Src/ssd1963_fsmc.c **** 			LCD_Line(x0 - x, y0 + y, x0 + x + 1 - size, y0 + y, size, color24);
 1306              		.loc 1 181 4 view .LVU343
 1307 0092 0134     		adds	r4, r4, #1
 1308 0094 A4B2     		uxth	r4, r4
 1309 0096 1A9B     		ldr	r3, [sp, #104]
 1310 0098 0193     		str	r3, [sp, #4]
 1311 009a CDF800A0 		str	r10, [sp]
 1312 009e 0B46     		mov	r3, r1
 1313 00a0 2246     		mov	r2, r4
 1314 00a2 3846     		mov	r0, r7
 1315 00a4 FFF7FEFF 		bl	LCD_Line
 1316              	.LVL155:
 182:Src/ssd1963_fsmc.c **** 			if (s >= 0)
 1317              		.loc 1 182 4 is_stmt 1 view .LVU344
 1318 00a8 06EB0901 		add	r1, r6, r9
 1319 00ac 89B2     		uxth	r1, r1
 1320 00ae 1A9B     		ldr	r3, [sp, #104]
 1321 00b0 0193     		str	r3, [sp, #4]
 1322 00b2 CDF800A0 		str	r10, [sp]
 1323 00b6 0B46     		mov	r3, r1
 1324 00b8 2246     		mov	r2, r4
 1325 00ba 3846     		mov	r0, r7
 1326 00bc FFF7FEFF 		bl	LCD_Line
 1327              	.LVL156:
 183:Src/ssd1963_fsmc.c **** 			{
 1328              		.loc 1 183 4 view .LVU345
 183:Src/ssd1963_fsmc.c **** 			{
 1329              		.loc 1 183 7 is_stmt 0 view .LVU346
 1330 00c0 B8F1000F 		cmp	r8, #0
 1331 00c4 C1DB     		blt	.L62
 185:Src/ssd1963_fsmc.c **** 				y--;
 1332              		.loc 1 185 5 is_stmt 1 view .LVU347
 185:Src/ssd1963_fsmc.c **** 				y--;
 1333              		.loc 1 185 19 is_stmt 0 view .LVU348
 1334 00c6 099B     		ldr	r3, [sp, #36]
 1335 00c8 C3F10103 		rsb	r3, r3, #1
 185:Src/ssd1963_fsmc.c **** 				y--;
 1336              		.loc 1 185 7 view .LVU349
 1337 00cc 0B9A     		ldr	r2, [sp, #44]
 1338 00ce 02FB0388 		mla	r8, r2, r3, r8
 1339              	.LVL157:
 186:Src/ssd1963_fsmc.c **** 			}
ARM GAS  C:\Users\BLACK_~1\AppData\Local\Temp\ccMgrS3u.s 			page 35


 1340              		.loc 1 186 5 is_stmt 1 view .LVU350
 186:Src/ssd1963_fsmc.c **** 			}
 1341              		.loc 1 186 6 is_stmt 0 view .LVU351
 1342 00d2 09F1FF39 		add	r9, r9, #-1
 1343 00d6 0FFA89FB 		sxth	fp, r9
 1344              	.LVL158:
 186:Src/ssd1963_fsmc.c **** 			}
 1345              		.loc 1 186 6 view .LVU352
 1346 00da B6E7     		b	.L62
 1347              	.L75:
 190:Src/ssd1963_fsmc.c **** 		{
 1348              		.loc 1 190 3 is_stmt 1 view .LVU353
 1349              	.LVL159:
 190:Src/ssd1963_fsmc.c **** 		{
 1350              		.loc 1 190 48 is_stmt 0 view .LVU354
 1351 00dc 0D9B     		ldr	r3, [sp, #52]
 1352 00de 4FEA4308 		lsl	r8, r3, #1
 1353              	.LVL160:
 190:Src/ssd1963_fsmc.c **** 		{
 1354              		.loc 1 190 45 view .LVU355
 1355 00e2 C8F10108 		rsb	r8, r8, #1
 190:Src/ssd1963_fsmc.c **** 		{
 1356              		.loc 1 190 41 view .LVU356
 1357 00e6 029B     		ldr	r3, [sp, #8]
 1358 00e8 03FB08F8 		mul	r8, r3, r8
 190:Src/ssd1963_fsmc.c **** 		{
 1359              		.loc 1 190 25 view .LVU357
 1360 00ec 049B     		ldr	r3, [sp, #16]
 1361 00ee 08EB4308 		add	r8, r8, r3, lsl #1
 1362              	.LVL161:
 190:Src/ssd1963_fsmc.c **** 		{
 1363              		.loc 1 190 18 view .LVU358
 1364 00f2 0025     		movs	r5, #0
 1365 00f4 9B46     		mov	fp, r3
 1366 00f6 DDF820A0 		ldr	r10, [sp, #32]
 190:Src/ssd1963_fsmc.c **** 		{
 1367              		.loc 1 190 3 view .LVU359
 1368 00fa 06E0     		b	.L64
 1369              	.LVL162:
 1370              	.L65:
 199:Src/ssd1963_fsmc.c **** 		}
 1371              		.loc 1 199 4 is_stmt 1 discriminator 2 view .LVU360
 199:Src/ssd1963_fsmc.c **** 		}
 1372              		.loc 1 199 19 is_stmt 0 discriminator 2 view .LVU361
 1373 00fc 049B     		ldr	r3, [sp, #16]
 1374 00fe 9B00     		lsls	r3, r3, #2
 199:Src/ssd1963_fsmc.c **** 		}
 1375              		.loc 1 199 24 discriminator 2 view .LVU362
 1376 0100 0633     		adds	r3, r3, #6
 199:Src/ssd1963_fsmc.c **** 		}
 1377              		.loc 1 199 6 discriminator 2 view .LVU363
 1378 0102 0BFB0388 		mla	r8, fp, r3, r8
 1379              	.LVL163:
 190:Src/ssd1963_fsmc.c **** 		{
 1380              		.loc 1 190 75 is_stmt 1 discriminator 2 view .LVU364
 190:Src/ssd1963_fsmc.c **** 		{
 1381              		.loc 1 190 76 is_stmt 0 discriminator 2 view .LVU365
ARM GAS  C:\Users\BLACK_~1\AppData\Local\Temp\ccMgrS3u.s 			page 36


 1382 0106 0135     		adds	r5, r5, #1
 1383              	.LVL164:
 190:Src/ssd1963_fsmc.c **** 		{
 1384              		.loc 1 190 76 discriminator 2 view .LVU366
 1385 0108 2DB2     		sxth	r5, r5
 1386              	.LVL165:
 1387              	.L64:
 190:Src/ssd1963_fsmc.c **** 		{
 1388              		.loc 1 190 55 is_stmt 1 discriminator 1 view .LVU367
 190:Src/ssd1963_fsmc.c **** 		{
 1389              		.loc 1 190 59 is_stmt 0 discriminator 1 view .LVU368
 1390 010a 0495     		str	r5, [sp, #16]
 1391 010c 0BFB05F3 		mul	r3, fp, r5
 190:Src/ssd1963_fsmc.c **** 		{
 1392              		.loc 1 190 70 discriminator 1 view .LVU369
 1393 0110 039A     		ldr	r2, [sp, #12]
 1394 0112 0792     		str	r2, [sp, #28]
 1395 0114 0299     		ldr	r1, [sp, #8]
 1396 0116 01FB02F2 		mul	r2, r1, r2
 190:Src/ssd1963_fsmc.c **** 		{
 1397              		.loc 1 190 3 discriminator 1 view .LVU370
 1398 011a 9342     		cmp	r3, r2
 1399 011c 00F3FF80 		bgt	.L59
 192:Src/ssd1963_fsmc.c **** 			LCD_Line(x0 - x, y0 + y, x0 + x + 1 - size, y0 + y, size, color24);
 1400              		.loc 1 192 4 is_stmt 1 view .LVU371
 1401 0120 BDF81420 		ldrh	r2, [sp, #20]
 1402 0124 BDF80C90 		ldrh	r9, [sp, #12]
 1403 0128 A2EB0907 		sub	r7, r2, r9
 1404 012c BFB2     		uxth	r7, r7
 1405 012e BDF81860 		ldrh	r6, [sp, #24]
 1406 0132 ADB2     		uxth	r5, r5
 192:Src/ssd1963_fsmc.c **** 			LCD_Line(x0 - x, y0 + y, x0 + x + 1 - size, y0 + y, size, color24);
 1407              		.loc 1 192 4 is_stmt 0 view .LVU372
 1408 0134 711B     		subs	r1, r6, r5
 1409 0136 89B2     		uxth	r1, r1
 192:Src/ssd1963_fsmc.c **** 			LCD_Line(x0 - x, y0 + y, x0 + x + 1 - size, y0 + y, size, color24);
 1410              		.loc 1 192 32 view .LVU373
 1411 0138 02EB0904 		add	r4, r2, r9
 1412 013c A4B2     		uxth	r4, r4
 192:Src/ssd1963_fsmc.c **** 			LCD_Line(x0 - x, y0 + y, x0 + x + 1 - size, y0 + y, size, color24);
 1413              		.loc 1 192 40 view .LVU374
 1414 013e A4EB0A04 		sub	r4, r4, r10
 1415 0142 A4B2     		uxth	r4, r4
 192:Src/ssd1963_fsmc.c **** 			LCD_Line(x0 - x, y0 + y, x0 + x + 1 - size, y0 + y, size, color24);
 1416              		.loc 1 192 4 view .LVU375
 1417 0144 0134     		adds	r4, r4, #1
 1418 0146 A4B2     		uxth	r4, r4
 1419 0148 1A9B     		ldr	r3, [sp, #104]
 1420 014a 0193     		str	r3, [sp, #4]
 1421 014c CDF800A0 		str	r10, [sp]
 1422 0150 0B46     		mov	r3, r1
 1423 0152 2246     		mov	r2, r4
 1424 0154 3846     		mov	r0, r7
 1425 0156 FFF7FEFF 		bl	LCD_Line
 1426              	.LVL166:
 193:Src/ssd1963_fsmc.c **** 			if (s >= 0)
 1427              		.loc 1 193 4 is_stmt 1 view .LVU376
ARM GAS  C:\Users\BLACK_~1\AppData\Local\Temp\ccMgrS3u.s 			page 37


 1428 015a 7119     		adds	r1, r6, r5
 1429 015c 89B2     		uxth	r1, r1
 1430 015e 1A9B     		ldr	r3, [sp, #104]
 1431 0160 0193     		str	r3, [sp, #4]
 1432 0162 CDF800A0 		str	r10, [sp]
 1433 0166 0B46     		mov	r3, r1
 1434 0168 2246     		mov	r2, r4
 1435 016a 3846     		mov	r0, r7
 1436 016c FFF7FEFF 		bl	LCD_Line
 1437              	.LVL167:
 194:Src/ssd1963_fsmc.c **** 			{
 1438              		.loc 1 194 4 view .LVU377
 194:Src/ssd1963_fsmc.c **** 			{
 1439              		.loc 1 194 7 is_stmt 0 view .LVU378
 1440 0170 B8F1000F 		cmp	r8, #0
 1441 0174 C2DB     		blt	.L65
 196:Src/ssd1963_fsmc.c **** 				x--;
 1442              		.loc 1 196 5 is_stmt 1 view .LVU379
 196:Src/ssd1963_fsmc.c **** 				x--;
 1443              		.loc 1 196 19 is_stmt 0 view .LVU380
 1444 0176 079B     		ldr	r3, [sp, #28]
 1445 0178 C3F10103 		rsb	r3, r3, #1
 196:Src/ssd1963_fsmc.c **** 				x--;
 1446              		.loc 1 196 7 view .LVU381
 1447 017c 0C9A     		ldr	r2, [sp, #48]
 1448 017e 02FB0388 		mla	r8, r2, r3, r8
 1449              	.LVL168:
 197:Src/ssd1963_fsmc.c **** 			}
 1450              		.loc 1 197 5 is_stmt 1 view .LVU382
 197:Src/ssd1963_fsmc.c **** 			}
 1451              		.loc 1 197 6 is_stmt 0 view .LVU383
 1452 0182 09F1FF39 		add	r9, r9, #-1
 1453 0186 0FFA89F3 		sxth	r3, r9
 1454 018a 0393     		str	r3, [sp, #12]
 1455              	.LVL169:
 197:Src/ssd1963_fsmc.c **** 			}
 1456              		.loc 1 197 6 view .LVU384
 1457 018c B6E7     		b	.L65
 1458              	.LVL170:
 1459              	.L60:
 204:Src/ssd1963_fsmc.c **** 		{
 1460              		.loc 1 204 3 is_stmt 1 view .LVU385
 204:Src/ssd1963_fsmc.c **** 		{
 1461              		.loc 1 204 50 is_stmt 0 view .LVU386
 1462 018e 4FEA4B03 		lsl	r3, fp, #1
 204:Src/ssd1963_fsmc.c **** 		{
 1463              		.loc 1 204 46 view .LVU387
 1464 0192 C3F10103 		rsb	r3, r3, #1
 204:Src/ssd1963_fsmc.c **** 		{
 1465              		.loc 1 204 41 view .LVU388
 1466 0196 049A     		ldr	r2, [sp, #16]
 1467              	.LVL171:
 204:Src/ssd1963_fsmc.c **** 		{
 1468              		.loc 1 204 41 view .LVU389
 1469 0198 02FB03F3 		mul	r3, r2, r3
 204:Src/ssd1963_fsmc.c **** 		{
 1470              		.loc 1 204 25 view .LVU390
ARM GAS  C:\Users\BLACK_~1\AppData\Local\Temp\ccMgrS3u.s 			page 38


 1471 019c 029A     		ldr	r2, [sp, #8]
 1472 019e 03EB4209 		add	r9, r3, r2, lsl #1
 1473              	.LVL172:
 204:Src/ssd1963_fsmc.c **** 		{
 1474              		.loc 1 204 10 view .LVU391
 1475 01a2 0025     		movs	r5, #0
 1476 01a4 CDF81CB0 		str	fp, [sp, #28]
 204:Src/ssd1963_fsmc.c **** 		{
 1477              		.loc 1 204 3 view .LVU392
 1478 01a8 07E0     		b	.L68
 1479              	.LVL173:
 1480              	.L69:
 215:Src/ssd1963_fsmc.c **** 		}
 1481              		.loc 1 215 4 is_stmt 1 discriminator 2 view .LVU393
 215:Src/ssd1963_fsmc.c **** 		}
 1482              		.loc 1 215 19 is_stmt 0 discriminator 2 view .LVU394
 1483 01aa 099B     		ldr	r3, [sp, #36]
 1484 01ac 9B00     		lsls	r3, r3, #2
 215:Src/ssd1963_fsmc.c **** 		}
 1485              		.loc 1 215 24 discriminator 2 view .LVU395
 1486 01ae 0633     		adds	r3, r3, #6
 215:Src/ssd1963_fsmc.c **** 		}
 1487              		.loc 1 215 6 discriminator 2 view .LVU396
 1488 01b0 029A     		ldr	r2, [sp, #8]
 1489 01b2 02FB0399 		mla	r9, r2, r3, r9
 1490              	.LVL174:
 204:Src/ssd1963_fsmc.c **** 		{
 1491              		.loc 1 204 77 is_stmt 1 discriminator 2 view .LVU397
 204:Src/ssd1963_fsmc.c **** 		{
 1492              		.loc 1 204 78 is_stmt 0 discriminator 2 view .LVU398
 1493 01b6 0135     		adds	r5, r5, #1
 1494              	.LVL175:
 204:Src/ssd1963_fsmc.c **** 		{
 1495              		.loc 1 204 78 discriminator 2 view .LVU399
 1496 01b8 2DB2     		sxth	r5, r5
 1497              	.LVL176:
 1498              	.L68:
 204:Src/ssd1963_fsmc.c **** 		{
 1499              		.loc 1 204 57 is_stmt 1 discriminator 1 view .LVU400
 204:Src/ssd1963_fsmc.c **** 		{
 1500              		.loc 1 204 61 is_stmt 0 discriminator 1 view .LVU401
 1501 01ba 0995     		str	r5, [sp, #36]
 1502 01bc 029B     		ldr	r3, [sp, #8]
 1503 01be 03FB05F3 		mul	r3, r3, r5
 204:Src/ssd1963_fsmc.c **** 		{
 1504              		.loc 1 204 72 discriminator 1 view .LVU402
 1505 01c2 079A     		ldr	r2, [sp, #28]
 1506 01c4 0A92     		str	r2, [sp, #40]
 1507 01c6 0499     		ldr	r1, [sp, #16]
 1508 01c8 01FB02F2 		mul	r2, r1, r2
 204:Src/ssd1963_fsmc.c **** 		{
 1509              		.loc 1 204 3 discriminator 1 view .LVU403
 1510 01cc 9342     		cmp	r3, r2
 1511 01ce 44DC     		bgt	.L76
 206:Src/ssd1963_fsmc.c **** 			LCD_Rect_Fill(x0 - x, y0 + y, size, size, color24);
 1512              		.loc 1 206 4 is_stmt 1 view .LVU404
 1513 01d0 BDF81460 		ldrh	r6, [sp, #20]
ARM GAS  C:\Users\BLACK_~1\AppData\Local\Temp\ccMgrS3u.s 			page 39


 1514 01d4 ADB2     		uxth	r5, r5
 206:Src/ssd1963_fsmc.c **** 			LCD_Rect_Fill(x0 - x, y0 + y, size, size, color24);
 1515              		.loc 1 206 4 is_stmt 0 view .LVU405
 1516 01d6 06EB0508 		add	r8, r6, r5
 1517 01da 1FFA88F8 		uxth	r8, r8
 1518 01de BDF81870 		ldrh	r7, [sp, #24]
 1519 01e2 BDF81CB0 		ldrh	fp, [sp, #28]
 1520 01e6 07EB0B0A 		add	r10, r7, fp
 1521 01ea 1FFA8AFA 		uxth	r10, r10
 1522 01ee BDF82040 		ldrh	r4, [sp, #32]
 1523 01f2 1A9B     		ldr	r3, [sp, #104]
 1524 01f4 0093     		str	r3, [sp]
 1525 01f6 2346     		mov	r3, r4
 1526 01f8 2246     		mov	r2, r4
 1527 01fa 5146     		mov	r1, r10
 1528 01fc 4046     		mov	r0, r8
 1529 01fe FFF7FEFF 		bl	LCD_Rect_Fill
 1530              	.LVL177:
 207:Src/ssd1963_fsmc.c **** 			LCD_Rect_Fill(x0 + x, y0 - y, size, size, color24);
 1531              		.loc 1 207 4 is_stmt 1 view .LVU406
 1532 0202 761B     		subs	r6, r6, r5
 1533 0204 B6B2     		uxth	r6, r6
 1534 0206 1A9B     		ldr	r3, [sp, #104]
 1535 0208 0093     		str	r3, [sp]
 1536 020a 2346     		mov	r3, r4
 1537 020c 2246     		mov	r2, r4
 1538 020e 5146     		mov	r1, r10
 1539 0210 3046     		mov	r0, r6
 1540 0212 FFF7FEFF 		bl	LCD_Rect_Fill
 1541              	.LVL178:
 208:Src/ssd1963_fsmc.c **** 			LCD_Rect_Fill(x0 - x, y0 - y, size, size, color24);
 1542              		.loc 1 208 4 view .LVU407
 1543 0216 A7EB0B07 		sub	r7, r7, fp
 1544 021a BFB2     		uxth	r7, r7
 1545 021c 1A9B     		ldr	r3, [sp, #104]
 1546 021e 0093     		str	r3, [sp]
 1547 0220 2346     		mov	r3, r4
 1548 0222 2246     		mov	r2, r4
 1549 0224 3946     		mov	r1, r7
 1550 0226 4046     		mov	r0, r8
 1551 0228 FFF7FEFF 		bl	LCD_Rect_Fill
 1552              	.LVL179:
 209:Src/ssd1963_fsmc.c **** 			if (s >= 0)
 1553              		.loc 1 209 4 view .LVU408
 1554 022c 1A9B     		ldr	r3, [sp, #104]
 1555 022e 0093     		str	r3, [sp]
 1556 0230 2346     		mov	r3, r4
 1557 0232 2246     		mov	r2, r4
 1558 0234 3946     		mov	r1, r7
 1559 0236 3046     		mov	r0, r6
 1560 0238 FFF7FEFF 		bl	LCD_Rect_Fill
 1561              	.LVL180:
 210:Src/ssd1963_fsmc.c **** 			{
 1562              		.loc 1 210 4 view .LVU409
 210:Src/ssd1963_fsmc.c **** 			{
 1563              		.loc 1 210 7 is_stmt 0 view .LVU410
 1564 023c B9F1000F 		cmp	r9, #0
ARM GAS  C:\Users\BLACK_~1\AppData\Local\Temp\ccMgrS3u.s 			page 40


 1565 0240 B3DB     		blt	.L69
 212:Src/ssd1963_fsmc.c **** 				y--;
 1566              		.loc 1 212 5 is_stmt 1 view .LVU411
 212:Src/ssd1963_fsmc.c **** 				y--;
 1567              		.loc 1 212 19 is_stmt 0 view .LVU412
 1568 0242 0A9B     		ldr	r3, [sp, #40]
 1569 0244 C3F10103 		rsb	r3, r3, #1
 212:Src/ssd1963_fsmc.c **** 				y--;
 1570              		.loc 1 212 7 view .LVU413
 1571 0248 0B9A     		ldr	r2, [sp, #44]
 1572 024a 02FB0399 		mla	r9, r2, r3, r9
 1573              	.LVL181:
 213:Src/ssd1963_fsmc.c **** 			}
 1574              		.loc 1 213 5 is_stmt 1 view .LVU414
 213:Src/ssd1963_fsmc.c **** 			}
 1575              		.loc 1 213 6 is_stmt 0 view .LVU415
 1576 024e 0BF1FF3B 		add	fp, fp, #-1
 1577 0252 0FFA8BF3 		sxth	r3, fp
 1578 0256 0793     		str	r3, [sp, #28]
 1579              	.LVL182:
 213:Src/ssd1963_fsmc.c **** 			}
 1580              		.loc 1 213 6 view .LVU416
 1581 0258 A7E7     		b	.L69
 1582              	.L76:
 217:Src/ssd1963_fsmc.c **** 		{
 1583              		.loc 1 217 3 is_stmt 1 view .LVU417
 1584              	.LVL183:
 217:Src/ssd1963_fsmc.c **** 		{
 1585              		.loc 1 217 50 is_stmt 0 view .LVU418
 1586 025a 0D9B     		ldr	r3, [sp, #52]
 1587 025c 5B00     		lsls	r3, r3, #1
 217:Src/ssd1963_fsmc.c **** 		{
 1588              		.loc 1 217 46 view .LVU419
 1589 025e C3F10103 		rsb	r3, r3, #1
 217:Src/ssd1963_fsmc.c **** 		{
 1590              		.loc 1 217 41 view .LVU420
 1591 0262 029A     		ldr	r2, [sp, #8]
 1592 0264 02FB03F3 		mul	r3, r2, r3
 217:Src/ssd1963_fsmc.c **** 		{
 1593              		.loc 1 217 25 view .LVU421
 1594 0268 03EB4109 		add	r9, r3, r1, lsl #1
 1595              	.LVL184:
 217:Src/ssd1963_fsmc.c **** 		{
 1596              		.loc 1 217 18 view .LVU422
 1597 026c 0025     		movs	r5, #0
 217:Src/ssd1963_fsmc.c **** 		{
 1598              		.loc 1 217 3 view .LVU423
 1599 026e 07E0     		b	.L71
 1600              	.LVL185:
 1601              	.L72:
 228:Src/ssd1963_fsmc.c **** 		}
 1602              		.loc 1 228 4 is_stmt 1 discriminator 2 view .LVU424
 228:Src/ssd1963_fsmc.c **** 		}
 1603              		.loc 1 228 19 is_stmt 0 discriminator 2 view .LVU425
 1604 0270 079B     		ldr	r3, [sp, #28]
 1605 0272 9B00     		lsls	r3, r3, #2
 228:Src/ssd1963_fsmc.c **** 		}
ARM GAS  C:\Users\BLACK_~1\AppData\Local\Temp\ccMgrS3u.s 			page 41


 1606              		.loc 1 228 24 discriminator 2 view .LVU426
 1607 0274 0633     		adds	r3, r3, #6
 228:Src/ssd1963_fsmc.c **** 		}
 1608              		.loc 1 228 6 discriminator 2 view .LVU427
 1609 0276 049A     		ldr	r2, [sp, #16]
 1610 0278 02FB0399 		mla	r9, r2, r3, r9
 1611              	.LVL186:
 217:Src/ssd1963_fsmc.c **** 		{
 1612              		.loc 1 217 77 is_stmt 1 discriminator 2 view .LVU428
 217:Src/ssd1963_fsmc.c **** 		{
 1613              		.loc 1 217 78 is_stmt 0 discriminator 2 view .LVU429
 1614 027c 0135     		adds	r5, r5, #1
 1615              	.LVL187:
 217:Src/ssd1963_fsmc.c **** 		{
 1616              		.loc 1 217 78 discriminator 2 view .LVU430
 1617 027e 2DB2     		sxth	r5, r5
 1618              	.LVL188:
 1619              	.L71:
 217:Src/ssd1963_fsmc.c **** 		{
 1620              		.loc 1 217 57 is_stmt 1 discriminator 1 view .LVU431
 217:Src/ssd1963_fsmc.c **** 		{
 1621              		.loc 1 217 61 is_stmt 0 discriminator 1 view .LVU432
 1622 0280 0795     		str	r5, [sp, #28]
 1623 0282 049B     		ldr	r3, [sp, #16]
 1624 0284 03FB05F3 		mul	r3, r3, r5
 217:Src/ssd1963_fsmc.c **** 		{
 1625              		.loc 1 217 72 discriminator 1 view .LVU433
 1626 0288 039A     		ldr	r2, [sp, #12]
 1627 028a 0992     		str	r2, [sp, #36]
 1628 028c 0299     		ldr	r1, [sp, #8]
 1629 028e 01FB02F2 		mul	r2, r1, r2
 217:Src/ssd1963_fsmc.c **** 		{
 1630              		.loc 1 217 3 discriminator 1 view .LVU434
 1631 0292 9342     		cmp	r3, r2
 1632 0294 43DC     		bgt	.L59
 219:Src/ssd1963_fsmc.c **** 			LCD_Rect_Fill(x0 - x, y0 + y, size, size, color24);
 1633              		.loc 1 219 4 is_stmt 1 view .LVU435
 1634 0296 BDF81460 		ldrh	r6, [sp, #20]
 1635 029a BDF80CB0 		ldrh	fp, [sp, #12]
 1636 029e 06EB0B08 		add	r8, r6, fp
 1637 02a2 1FFA88F8 		uxth	r8, r8
 1638 02a6 BDF81870 		ldrh	r7, [sp, #24]
 1639 02aa ADB2     		uxth	r5, r5
 219:Src/ssd1963_fsmc.c **** 			LCD_Rect_Fill(x0 - x, y0 + y, size, size, color24);
 1640              		.loc 1 219 4 is_stmt 0 view .LVU436
 1641 02ac 07EB050A 		add	r10, r7, r5
 1642 02b0 1FFA8AFA 		uxth	r10, r10
 1643 02b4 BDF82040 		ldrh	r4, [sp, #32]
 1644 02b8 1A9B     		ldr	r3, [sp, #104]
 1645 02ba 0093     		str	r3, [sp]
 1646 02bc 2346     		mov	r3, r4
 1647 02be 2246     		mov	r2, r4
 1648 02c0 5146     		mov	r1, r10
 1649 02c2 4046     		mov	r0, r8
 1650 02c4 FFF7FEFF 		bl	LCD_Rect_Fill
 1651              	.LVL189:
 220:Src/ssd1963_fsmc.c **** 			LCD_Rect_Fill(x0 + x, y0 - y, size, size, color24);
ARM GAS  C:\Users\BLACK_~1\AppData\Local\Temp\ccMgrS3u.s 			page 42


 1652              		.loc 1 220 4 is_stmt 1 view .LVU437
 1653 02c8 A6EB0B06 		sub	r6, r6, fp
 1654 02cc B6B2     		uxth	r6, r6
 1655 02ce 1A9B     		ldr	r3, [sp, #104]
 1656 02d0 0093     		str	r3, [sp]
 1657 02d2 2346     		mov	r3, r4
 1658 02d4 2246     		mov	r2, r4
 1659 02d6 5146     		mov	r1, r10
 1660 02d8 3046     		mov	r0, r6
 1661 02da FFF7FEFF 		bl	LCD_Rect_Fill
 1662              	.LVL190:
 221:Src/ssd1963_fsmc.c **** 			LCD_Rect_Fill(x0 - x, y0 - y, size, size, color24);
 1663              		.loc 1 221 4 view .LVU438
 1664 02de 7F1B     		subs	r7, r7, r5
 1665 02e0 BFB2     		uxth	r7, r7
 1666 02e2 1A9B     		ldr	r3, [sp, #104]
 1667 02e4 0093     		str	r3, [sp]
 1668 02e6 2346     		mov	r3, r4
 1669 02e8 2246     		mov	r2, r4
 1670 02ea 3946     		mov	r1, r7
 1671 02ec 4046     		mov	r0, r8
 1672 02ee FFF7FEFF 		bl	LCD_Rect_Fill
 1673              	.LVL191:
 222:Src/ssd1963_fsmc.c **** 			if (s >= 0)
 1674              		.loc 1 222 4 view .LVU439
 1675 02f2 1A9B     		ldr	r3, [sp, #104]
 1676 02f4 0093     		str	r3, [sp]
 1677 02f6 2346     		mov	r3, r4
 1678 02f8 2246     		mov	r2, r4
 1679 02fa 3946     		mov	r1, r7
 1680 02fc 3046     		mov	r0, r6
 1681 02fe FFF7FEFF 		bl	LCD_Rect_Fill
 1682              	.LVL192:
 223:Src/ssd1963_fsmc.c **** 			{
 1683              		.loc 1 223 4 view .LVU440
 223:Src/ssd1963_fsmc.c **** 			{
 1684              		.loc 1 223 7 is_stmt 0 view .LVU441
 1685 0302 B9F1000F 		cmp	r9, #0
 1686 0306 B3DB     		blt	.L72
 225:Src/ssd1963_fsmc.c **** 				x--;
 1687              		.loc 1 225 5 is_stmt 1 view .LVU442
 225:Src/ssd1963_fsmc.c **** 				x--;
 1688              		.loc 1 225 19 is_stmt 0 view .LVU443
 1689 0308 099B     		ldr	r3, [sp, #36]
 1690 030a C3F10103 		rsb	r3, r3, #1
 225:Src/ssd1963_fsmc.c **** 				x--;
 1691              		.loc 1 225 7 view .LVU444
 1692 030e 0C9A     		ldr	r2, [sp, #48]
 1693 0310 02FB0399 		mla	r9, r2, r3, r9
 1694              	.LVL193:
 226:Src/ssd1963_fsmc.c **** 			}
 1695              		.loc 1 226 5 is_stmt 1 view .LVU445
 226:Src/ssd1963_fsmc.c **** 			}
 1696              		.loc 1 226 6 is_stmt 0 view .LVU446
 1697 0314 0BF1FF33 		add	r3, fp, #-1
 1698 0318 1BB2     		sxth	r3, r3
 1699 031a 0393     		str	r3, [sp, #12]
ARM GAS  C:\Users\BLACK_~1\AppData\Local\Temp\ccMgrS3u.s 			page 43


 1700              	.LVL194:
 226:Src/ssd1963_fsmc.c **** 			}
 1701              		.loc 1 226 6 view .LVU447
 1702 031c A8E7     		b	.L72
 1703              	.LVL195:
 1704              	.L59:
 231:Src/ssd1963_fsmc.c **** 
 1705              		.loc 1 231 1 view .LVU448
 1706 031e 0FB0     		add	sp, sp, #60
 1707              	.LCFI20:
 1708              		.cfi_def_cfa_offset 36
 1709              		@ sp needed
 1710 0320 BDE8F08F 		pop	{r4, r5, r6, r7, r8, r9, r10, fp, pc}
 231:Src/ssd1963_fsmc.c **** 
 1711              		.loc 1 231 1 view .LVU449
 1712              		.cfi_endproc
 1713              	.LFE141:
 1715              		.section	.text.LCD_Circle,"ax",%progbits
 1716              		.align	1
 1717              		.global	LCD_Circle
 1718              		.syntax unified
 1719              		.thumb
 1720              		.thumb_func
 1722              	LCD_Circle:
 1723              	.LVL196:
 1724              	.LFB142:
 234:Src/ssd1963_fsmc.c **** 	int a_, b_, P;
 1725              		.loc 1 234 1 is_stmt 1 view -0
 1726              		.cfi_startproc
 1727              		@ args = 8, pretend = 0, frame = 32
 1728              		@ frame_needed = 0, uses_anonymous_args = 0
 234:Src/ssd1963_fsmc.c **** 	int a_, b_, P;
 1729              		.loc 1 234 1 is_stmt 0 view .LVU451
 1730 0000 2DE9F04F 		push	{r4, r5, r6, r7, r8, r9, r10, fp, lr}
 1731              	.LCFI21:
 1732              		.cfi_def_cfa_offset 36
 1733              		.cfi_offset 4, -36
 1734              		.cfi_offset 5, -32
 1735              		.cfi_offset 6, -28
 1736              		.cfi_offset 7, -24
 1737              		.cfi_offset 8, -20
 1738              		.cfi_offset 9, -16
 1739              		.cfi_offset 10, -12
 1740              		.cfi_offset 11, -8
 1741              		.cfi_offset 14, -4
 1742 0004 8BB0     		sub	sp, sp, #44
 1743              	.LCFI22:
 1744              		.cfi_def_cfa_offset 80
 1745 0006 8146     		mov	r9, r0
 1746 0008 8A46     		mov	r10, r1
 1747 000a 0893     		str	r3, [sp, #32]
 1748 000c 9DF85030 		ldrb	r3, [sp, #80]	@ zero_extendqisi2
 1749              	.LVL197:
 234:Src/ssd1963_fsmc.c **** 	int a_, b_, P;
 1750              		.loc 1 234 1 view .LVU452
 1751 0010 0993     		str	r3, [sp, #36]
 1752 0012 DDF854B0 		ldr	fp, [sp, #84]
ARM GAS  C:\Users\BLACK_~1\AppData\Local\Temp\ccMgrS3u.s 			page 44


 235:Src/ssd1963_fsmc.c **** 	a_ = 0;
 1753              		.loc 1 235 2 is_stmt 1 view .LVU453
 236:Src/ssd1963_fsmc.c **** 	b_ = radius;
 1754              		.loc 1 236 2 view .LVU454
 1755              	.LVL198:
 237:Src/ssd1963_fsmc.c **** 	P = 1 - radius;
 1756              		.loc 1 237 2 view .LVU455
 237:Src/ssd1963_fsmc.c **** 	P = 1 - radius;
 1757              		.loc 1 237 5 is_stmt 0 view .LVU456
 1758 0016 0292     		str	r2, [sp, #8]
 1759              	.LVL199:
 238:Src/ssd1963_fsmc.c **** 	while (a_ <= b_)
 1760              		.loc 1 238 2 is_stmt 1 view .LVU457
 238:Src/ssd1963_fsmc.c **** 	while (a_ <= b_)
 1761              		.loc 1 238 4 is_stmt 0 view .LVU458
 1762 0018 C2F10103 		rsb	r3, r2, #1
 1763 001c 0393     		str	r3, [sp, #12]
 1764              	.LVL200:
 239:Src/ssd1963_fsmc.c **** 	{
 1765              		.loc 1 239 2 is_stmt 1 view .LVU459
 236:Src/ssd1963_fsmc.c **** 	b_ = radius;
 1766              		.loc 1 236 5 is_stmt 0 view .LVU460
 1767 001e 4FF00008 		mov	r8, #0
 1768 0022 5E46     		mov	r6, fp
 239:Src/ssd1963_fsmc.c **** 	{
 1769              		.loc 1 239 8 view .LVU461
 1770 0024 29E0     		b	.L78
 1771              	.LVL201:
 1772              	.L86:
 243:Src/ssd1963_fsmc.c **** 			LCD_Rect_Fill(x - b_, y - a_, 2 * b_ + 1, 2 * a_ + 1, color24);
 1773              		.loc 1 243 4 is_stmt 1 view .LVU462
 1774 0026 1FFA88F5 		uxth	r5, r8
 1775 002a BDF80840 		ldrh	r4, [sp, #8]
 1776 002e 4FEA450B 		lsl	fp, r5, #1
 1777 0032 0BF1010B 		add	fp, fp, #1
 1778 0036 1FFA8BFB 		uxth	fp, fp
 1779 003a 6700     		lsls	r7, r4, #1
 1780 003c 0137     		adds	r7, r7, #1
 1781 003e BFB2     		uxth	r7, r7
 1782 0040 AAEB0401 		sub	r1, r10, r4
 1783 0044 A9EB0500 		sub	r0, r9, r5
 1784 0048 0096     		str	r6, [sp]
 1785 004a 3B46     		mov	r3, r7
 1786 004c 5A46     		mov	r2, fp
 1787 004e 89B2     		uxth	r1, r1
 1788 0050 80B2     		uxth	r0, r0
 1789 0052 FFF7FEFF 		bl	LCD_Rect_Fill
 1790              	.LVL202:
 244:Src/ssd1963_fsmc.c **** 		}
 1791              		.loc 1 244 4 view .LVU463
 1792 0056 AAEB0501 		sub	r1, r10, r5
 1793 005a A9EB0400 		sub	r0, r9, r4
 1794 005e 0096     		str	r6, [sp]
 1795 0060 5B46     		mov	r3, fp
 1796 0062 3A46     		mov	r2, r7
 1797 0064 89B2     		uxth	r1, r1
 1798 0066 80B2     		uxth	r0, r0
ARM GAS  C:\Users\BLACK_~1\AppData\Local\Temp\ccMgrS3u.s 			page 45


 1799 0068 FFF7FEFF 		bl	LCD_Rect_Fill
 1800              	.LVL203:
 1801 006c 65E0     		b	.L80
 1802              	.L87:
 259:Src/ssd1963_fsmc.c **** 			a_++;
 1803              		.loc 1 259 4 view .LVU464
 259:Src/ssd1963_fsmc.c **** 			a_++;
 1804              		.loc 1 259 11 is_stmt 0 view .LVU465
 1805 006e 0333     		adds	r3, r3, #3
 259:Src/ssd1963_fsmc.c **** 			a_++;
 1806              		.loc 1 259 6 view .LVU466
 1807 0070 03EB4803 		add	r3, r3, r8, lsl #1
 1808 0074 0393     		str	r3, [sp, #12]
 1809              	.LVL204:
 260:Src/ssd1963_fsmc.c **** 		}
 1810              		.loc 1 260 4 is_stmt 1 view .LVU467
 260:Src/ssd1963_fsmc.c **** 		}
 1811              		.loc 1 260 6 is_stmt 0 view .LVU468
 1812 0076 08F10108 		add	r8, r8, #1
 1813              	.LVL205:
 1814              	.L78:
 239:Src/ssd1963_fsmc.c **** 	{
 1815              		.loc 1 239 8 is_stmt 1 view .LVU469
 1816 007a 029B     		ldr	r3, [sp, #8]
 1817 007c 9845     		cmp	r8, r3
 1818 007e 6CDC     		bgt	.L85
 241:Src/ssd1963_fsmc.c **** 		{
 1819              		.loc 1 241 3 view .LVU470
 241:Src/ssd1963_fsmc.c **** 		{
 1820              		.loc 1 241 6 is_stmt 0 view .LVU471
 1821 0080 089B     		ldr	r3, [sp, #32]
 1822 0082 012B     		cmp	r3, #1
 1823 0084 CFD0     		beq	.L86
 248:Src/ssd1963_fsmc.c **** 			LCD_Rect_Fill(b_ + x, a_ + y, size, size, color24);
 1824              		.loc 1 248 4 is_stmt 1 view .LVU472
 1825 0086 1FFA88F5 		uxth	r5, r8
 1826 008a 05EB0903 		add	r3, r5, r9
 1827 008e 98B2     		uxth	r0, r3
 1828 0090 BDF808B0 		ldrh	fp, [sp, #8]
 1829 0094 0BEB0A07 		add	r7, fp, r10
 1830 0098 BFB2     		uxth	r7, r7
 1831 009a BDF82440 		ldrh	r4, [sp, #36]
 1832 009e 0096     		str	r6, [sp]
 1833 00a0 2346     		mov	r3, r4
 1834 00a2 2246     		mov	r2, r4
 1835 00a4 3946     		mov	r1, r7
 1836 00a6 0490     		str	r0, [sp, #16]
 1837 00a8 FFF7FEFF 		bl	LCD_Rect_Fill
 1838              	.LVL206:
 249:Src/ssd1963_fsmc.c **** 			LCD_Rect_Fill(x - a_, b_ + y, size, size, color24);
 1839              		.loc 1 249 4 view .LVU473
 1840 00ac 0BEB0903 		add	r3, fp, r9
 1841 00b0 9BB2     		uxth	r3, r3
 1842 00b2 1846     		mov	r0, r3
 1843 00b4 05EB0A03 		add	r3, r5, r10
 1844 00b8 9BB2     		uxth	r3, r3
 1845 00ba 1946     		mov	r1, r3
ARM GAS  C:\Users\BLACK_~1\AppData\Local\Temp\ccMgrS3u.s 			page 46


 1846 00bc 0096     		str	r6, [sp]
 1847 00be 2346     		mov	r3, r4
 1848 00c0 2246     		mov	r2, r4
 1849 00c2 0691     		str	r1, [sp, #24]
 1850 00c4 0590     		str	r0, [sp, #20]
 1851 00c6 FFF7FEFF 		bl	LCD_Rect_Fill
 1852              	.LVL207:
 250:Src/ssd1963_fsmc.c **** 			LCD_Rect_Fill(x - b_, a_ + y, size, size, color24);
 1853              		.loc 1 250 4 view .LVU474
 1854 00ca A9EB0503 		sub	r3, r9, r5
 1855 00ce 9AB2     		uxth	r2, r3
 1856 00d0 1046     		mov	r0, r2
 1857 00d2 0096     		str	r6, [sp]
 1858 00d4 2346     		mov	r3, r4
 1859 00d6 2246     		mov	r2, r4
 1860 00d8 3946     		mov	r1, r7
 1861 00da 0790     		str	r0, [sp, #28]
 1862 00dc FFF7FEFF 		bl	LCD_Rect_Fill
 1863              	.LVL208:
 251:Src/ssd1963_fsmc.c **** 			LCD_Rect_Fill(b_ + x, y - a_, size, size, color24);
 1864              		.loc 1 251 4 view .LVU475
 1865 00e0 A9EB0B07 		sub	r7, r9, fp
 1866 00e4 BFB2     		uxth	r7, r7
 1867 00e6 0096     		str	r6, [sp]
 1868 00e8 2346     		mov	r3, r4
 1869 00ea 2246     		mov	r2, r4
 1870 00ec 0699     		ldr	r1, [sp, #24]
 1871 00ee 3846     		mov	r0, r7
 1872 00f0 FFF7FEFF 		bl	LCD_Rect_Fill
 1873              	.LVL209:
 252:Src/ssd1963_fsmc.c **** 			LCD_Rect_Fill(a_ + x, y - b_, size, size, color24);
 1874              		.loc 1 252 4 view .LVU476
 1875 00f4 AAEB0505 		sub	r5, r10, r5
 1876 00f8 ADB2     		uxth	r5, r5
 1877 00fa 0096     		str	r6, [sp]
 1878 00fc 2346     		mov	r3, r4
 1879 00fe 2246     		mov	r2, r4
 1880 0100 2946     		mov	r1, r5
 1881 0102 0598     		ldr	r0, [sp, #20]
 1882 0104 FFF7FEFF 		bl	LCD_Rect_Fill
 1883              	.LVL210:
 253:Src/ssd1963_fsmc.c **** 			LCD_Rect_Fill(x - a_, y - b_, size, size, color24);
 1884              		.loc 1 253 4 view .LVU477
 1885 0108 AAEB0B0B 		sub	fp, r10, fp
 1886 010c 1FFA8BFB 		uxth	fp, fp
 1887 0110 0096     		str	r6, [sp]
 1888 0112 2346     		mov	r3, r4
 1889 0114 2246     		mov	r2, r4
 1890 0116 5946     		mov	r1, fp
 1891 0118 0498     		ldr	r0, [sp, #16]
 1892 011a FFF7FEFF 		bl	LCD_Rect_Fill
 1893              	.LVL211:
 254:Src/ssd1963_fsmc.c **** 			LCD_Rect_Fill(x - b_, y - a_, size, size, color24);
 1894              		.loc 1 254 4 view .LVU478
 1895 011e 0096     		str	r6, [sp]
 1896 0120 2346     		mov	r3, r4
 1897 0122 2246     		mov	r2, r4
ARM GAS  C:\Users\BLACK_~1\AppData\Local\Temp\ccMgrS3u.s 			page 47


 1898 0124 5946     		mov	r1, fp
 1899 0126 0798     		ldr	r0, [sp, #28]
 1900 0128 FFF7FEFF 		bl	LCD_Rect_Fill
 1901              	.LVL212:
 255:Src/ssd1963_fsmc.c **** 		}
 1902              		.loc 1 255 4 view .LVU479
 1903 012c 0096     		str	r6, [sp]
 1904 012e 2346     		mov	r3, r4
 1905 0130 2246     		mov	r2, r4
 1906 0132 2946     		mov	r1, r5
 1907 0134 3846     		mov	r0, r7
 1908 0136 FFF7FEFF 		bl	LCD_Rect_Fill
 1909              	.LVL213:
 1910              	.L80:
 257:Src/ssd1963_fsmc.c **** 		{
 1911              		.loc 1 257 3 view .LVU480
 257:Src/ssd1963_fsmc.c **** 		{
 1912              		.loc 1 257 6 is_stmt 0 view .LVU481
 1913 013a 039B     		ldr	r3, [sp, #12]
 1914 013c 002B     		cmp	r3, #0
 1915 013e 96DB     		blt	.L87
 264:Src/ssd1963_fsmc.c **** 			a_++;
 1916              		.loc 1 264 4 is_stmt 1 view .LVU482
 264:Src/ssd1963_fsmc.c **** 			a_++;
 1917              		.loc 1 264 11 is_stmt 0 view .LVU483
 1918 0140 039B     		ldr	r3, [sp, #12]
 1919 0142 0533     		adds	r3, r3, #5
 264:Src/ssd1963_fsmc.c **** 			a_++;
 1920              		.loc 1 264 27 view .LVU484
 1921 0144 0299     		ldr	r1, [sp, #8]
 1922 0146 A8EB0102 		sub	r2, r8, r1
 264:Src/ssd1963_fsmc.c **** 			a_++;
 1923              		.loc 1 264 6 view .LVU485
 1924 014a 03EB4203 		add	r3, r3, r2, lsl #1
 1925 014e 0393     		str	r3, [sp, #12]
 1926              	.LVL214:
 265:Src/ssd1963_fsmc.c **** 			b_--;
 1927              		.loc 1 265 4 is_stmt 1 view .LVU486
 265:Src/ssd1963_fsmc.c **** 			b_--;
 1928              		.loc 1 265 6 is_stmt 0 view .LVU487
 1929 0150 08F10108 		add	r8, r8, #1
 1930              	.LVL215:
 266:Src/ssd1963_fsmc.c **** 		}
 1931              		.loc 1 266 4 is_stmt 1 view .LVU488
 266:Src/ssd1963_fsmc.c **** 		}
 1932              		.loc 1 266 6 is_stmt 0 view .LVU489
 1933 0154 4B1E     		subs	r3, r1, #1
 1934              	.LVL216:
 266:Src/ssd1963_fsmc.c **** 		}
 1935              		.loc 1 266 6 view .LVU490
 1936 0156 0293     		str	r3, [sp, #8]
 1937              	.LVL217:
 266:Src/ssd1963_fsmc.c **** 		}
 1938              		.loc 1 266 6 view .LVU491
 1939 0158 8FE7     		b	.L78
 1940              	.L85:
 269:Src/ssd1963_fsmc.c **** 
ARM GAS  C:\Users\BLACK_~1\AppData\Local\Temp\ccMgrS3u.s 			page 48


 1941              		.loc 1 269 1 view .LVU492
 1942 015a 0BB0     		add	sp, sp, #44
 1943              	.LCFI23:
 1944              		.cfi_def_cfa_offset 36
 1945              		@ sp needed
 1946 015c BDE8F08F 		pop	{r4, r5, r6, r7, r8, r9, r10, fp, pc}
 269:Src/ssd1963_fsmc.c **** 
 1947              		.loc 1 269 1 view .LVU493
 1948              		.cfi_endproc
 1949              	.LFE142:
 1951              		.section	.text.LCD_Circle_Helper,"ax",%progbits
 1952              		.align	1
 1953              		.global	LCD_Circle_Helper
 1954              		.syntax unified
 1955              		.thumb
 1956              		.thumb_func
 1958              	LCD_Circle_Helper:
 1959              	.LVL218:
 1960              	.LFB143:
 272:Src/ssd1963_fsmc.c **** 	int16_t f = 1 - r;
 1961              		.loc 1 272 1 is_stmt 1 view -0
 1962              		.cfi_startproc
 1963              		@ args = 8, pretend = 0, frame = 24
 1964              		@ frame_needed = 0, uses_anonymous_args = 0
 272:Src/ssd1963_fsmc.c **** 	int16_t f = 1 - r;
 1965              		.loc 1 272 1 is_stmt 0 view .LVU495
 1966 0000 2DE9F04F 		push	{r4, r5, r6, r7, r8, r9, r10, fp, lr}
 1967              	.LCFI24:
 1968              		.cfi_def_cfa_offset 36
 1969              		.cfi_offset 4, -36
 1970              		.cfi_offset 5, -32
 1971              		.cfi_offset 6, -28
 1972              		.cfi_offset 7, -24
 1973              		.cfi_offset 8, -20
 1974              		.cfi_offset 9, -16
 1975              		.cfi_offset 10, -12
 1976              		.cfi_offset 11, -8
 1977              		.cfi_offset 14, -4
 1978 0004 89B0     		sub	sp, sp, #36
 1979              	.LCFI25:
 1980              		.cfi_def_cfa_offset 72
 1981 0006 0490     		str	r0, [sp, #16]
 1982 0008 0591     		str	r1, [sp, #20]
 1983 000a 0292     		str	r2, [sp, #8]
 1984 000c 1E46     		mov	r6, r3
 1985 000e 9DF84830 		ldrb	r3, [sp, #72]	@ zero_extendqisi2
 1986              	.LVL219:
 272:Src/ssd1963_fsmc.c **** 	int16_t f = 1 - r;
 1987              		.loc 1 272 1 view .LVU496
 1988 0012 0693     		str	r3, [sp, #24]
 273:Src/ssd1963_fsmc.c **** 	int16_t ddF_x = 1;
 1989              		.loc 1 273 2 is_stmt 1 view .LVU497
 273:Src/ssd1963_fsmc.c **** 	int16_t ddF_x = 1;
 1990              		.loc 1 273 16 is_stmt 0 view .LVU498
 1991 0014 93B2     		uxth	r3, r2
 1992 0016 C3F10104 		rsb	r4, r3, #1
 273:Src/ssd1963_fsmc.c **** 	int16_t ddF_x = 1;
ARM GAS  C:\Users\BLACK_~1\AppData\Local\Temp\ccMgrS3u.s 			page 49


 1993              		.loc 1 273 10 view .LVU499
 1994 001a 24B2     		sxth	r4, r4
 1995              	.LVL220:
 274:Src/ssd1963_fsmc.c **** 	int16_t ddF_y = -2 * r;
 1996              		.loc 1 274 2 is_stmt 1 view .LVU500
 275:Src/ssd1963_fsmc.c **** 	int16_t x = 0;
 1997              		.loc 1 275 2 view .LVU501
 275:Src/ssd1963_fsmc.c **** 	int16_t x = 0;
 1998              		.loc 1 275 21 is_stmt 0 view .LVU502
 1999 001c C3EBC333 		rsb	r3, r3, r3, lsl #15
 2000 0020 5B00     		lsls	r3, r3, #1
 275:Src/ssd1963_fsmc.c **** 	int16_t x = 0;
 2001              		.loc 1 275 10 view .LVU503
 2002 0022 1BB2     		sxth	r3, r3
 2003 0024 0793     		str	r3, [sp, #28]
 2004              	.LVL221:
 276:Src/ssd1963_fsmc.c **** 	int16_t y = r;
 2005              		.loc 1 276 2 is_stmt 1 view .LVU504
 277:Src/ssd1963_fsmc.c **** 
 2006              		.loc 1 277 2 view .LVU505
 279:Src/ssd1963_fsmc.c **** 		if (f >= 0) {
 2007              		.loc 1 279 2 view .LVU506
 276:Src/ssd1963_fsmc.c **** 	int16_t y = r;
 2008              		.loc 1 276 10 is_stmt 0 view .LVU507
 2009 0026 0025     		movs	r5, #0
 274:Src/ssd1963_fsmc.c **** 	int16_t ddF_y = -2 * r;
 2010              		.loc 1 274 10 view .LVU508
 2011 0028 0123     		movs	r3, #1
 2012 002a 0393     		str	r3, [sp, #12]
 279:Src/ssd1963_fsmc.c **** 		if (f >= 0) {
 2013              		.loc 1 279 8 view .LVU509
 2014 002c 20E0     		b	.L89
 2015              	.LVL222:
 2016              	.L102:
 281:Src/ssd1963_fsmc.c **** 			ddF_y += 2;
 2017              		.loc 1 281 4 is_stmt 1 view .LVU510
 281:Src/ssd1963_fsmc.c **** 			ddF_y += 2;
 2018              		.loc 1 281 5 is_stmt 0 view .LVU511
 2019 002e 029B     		ldr	r3, [sp, #8]
 2020 0030 013B     		subs	r3, r3, #1
 2021 0032 1BB2     		sxth	r3, r3
 2022 0034 0293     		str	r3, [sp, #8]
 2023              	.LVL223:
 282:Src/ssd1963_fsmc.c **** 			f += ddF_y;
 2024              		.loc 1 282 4 is_stmt 1 view .LVU512
 282:Src/ssd1963_fsmc.c **** 			f += ddF_y;
 2025              		.loc 1 282 10 is_stmt 0 view .LVU513
 2026 0036 079B     		ldr	r3, [sp, #28]
 2027 0038 0233     		adds	r3, r3, #2
 2028 003a 1AB2     		sxth	r2, r3
 2029 003c 0792     		str	r2, [sp, #28]
 2030              	.LVL224:
 283:Src/ssd1963_fsmc.c **** 		}
 2031              		.loc 1 283 4 is_stmt 1 view .LVU514
 283:Src/ssd1963_fsmc.c **** 		}
 2032              		.loc 1 283 6 is_stmt 0 view .LVU515
 2033 003e 14FA83F4 		uxtah	r4, r4, r3
ARM GAS  C:\Users\BLACK_~1\AppData\Local\Temp\ccMgrS3u.s 			page 50


 2034              	.LVL225:
 283:Src/ssd1963_fsmc.c **** 		}
 2035              		.loc 1 283 6 view .LVU516
 2036 0042 24B2     		sxth	r4, r4
 2037              	.LVL226:
 2038              	.L90:
 285:Src/ssd1963_fsmc.c **** 		ddF_x += 2;
 2039              		.loc 1 285 3 is_stmt 1 view .LVU517
 285:Src/ssd1963_fsmc.c **** 		ddF_x += 2;
 2040              		.loc 1 285 4 is_stmt 0 view .LVU518
 2041 0044 0135     		adds	r5, r5, #1
 2042              	.LVL227:
 285:Src/ssd1963_fsmc.c **** 		ddF_x += 2;
 2043              		.loc 1 285 4 view .LVU519
 2044 0046 AFB2     		uxth	r7, r5
 2045 0048 2DB2     		sxth	r5, r5
 2046              	.LVL228:
 286:Src/ssd1963_fsmc.c **** 		f += ddF_x;
 2047              		.loc 1 286 3 is_stmt 1 view .LVU520
 286:Src/ssd1963_fsmc.c **** 		f += ddF_x;
 2048              		.loc 1 286 9 is_stmt 0 view .LVU521
 2049 004a 039B     		ldr	r3, [sp, #12]
 2050 004c 0233     		adds	r3, r3, #2
 2051 004e 1AB2     		sxth	r2, r3
 2052 0050 0392     		str	r2, [sp, #12]
 2053              	.LVL229:
 287:Src/ssd1963_fsmc.c **** 		if (cornername & 0x4) {
 2054              		.loc 1 287 3 is_stmt 1 view .LVU522
 287:Src/ssd1963_fsmc.c **** 		if (cornername & 0x4) {
 2055              		.loc 1 287 5 is_stmt 0 view .LVU523
 2056 0052 14FA83F4 		uxtah	r4, r4, r3
 2057              	.LVL230:
 287:Src/ssd1963_fsmc.c **** 		if (cornername & 0x4) {
 2058              		.loc 1 287 5 view .LVU524
 2059 0056 24B2     		sxth	r4, r4
 2060              	.LVL231:
 288:Src/ssd1963_fsmc.c **** 			LCD_Rect_Fill(x0 + x, y0 + y, size, size, color24);
 2061              		.loc 1 288 3 is_stmt 1 view .LVU525
 288:Src/ssd1963_fsmc.c **** 			LCD_Rect_Fill(x0 + x, y0 + y, size, size, color24);
 2062              		.loc 1 288 6 is_stmt 0 view .LVU526
 2063 0058 16F0040F 		tst	r6, #4
 2064 005c 0FD1     		bne	.L97
 2065              	.L91:
 292:Src/ssd1963_fsmc.c **** 			LCD_Rect_Fill(x0 + x, y0 - y, size, size, color24);
 2066              		.loc 1 292 3 is_stmt 1 view .LVU527
 292:Src/ssd1963_fsmc.c **** 			LCD_Rect_Fill(x0 + x, y0 - y, size, size, color24);
 2067              		.loc 1 292 6 is_stmt 0 view .LVU528
 2068 005e 16F0020F 		tst	r6, #2
 2069 0062 2DD1     		bne	.L98
 2070              	.L92:
 296:Src/ssd1963_fsmc.c **** 			LCD_Rect_Fill(x0 - y, y0 + x, size, size, color24);
 2071              		.loc 1 296 3 is_stmt 1 view .LVU529
 296:Src/ssd1963_fsmc.c **** 			LCD_Rect_Fill(x0 - y, y0 + x, size, size, color24);
 2072              		.loc 1 296 6 is_stmt 0 view .LVU530
 2073 0064 16F0080F 		tst	r6, #8
 2074 0068 4BD1     		bne	.L99
 2075              	.L93:
ARM GAS  C:\Users\BLACK_~1\AppData\Local\Temp\ccMgrS3u.s 			page 51


 300:Src/ssd1963_fsmc.c **** 			LCD_Rect_Fill(x0 - y, y0 - x, size, size, color24);
 2076              		.loc 1 300 3 is_stmt 1 view .LVU531
 300:Src/ssd1963_fsmc.c **** 			LCD_Rect_Fill(x0 - y, y0 - x, size, size, color24);
 2077              		.loc 1 300 6 is_stmt 0 view .LVU532
 2078 006a 16F0010F 		tst	r6, #1
 2079 006e 69D1     		bne	.L100
 2080              	.LVL232:
 2081              	.L89:
 279:Src/ssd1963_fsmc.c **** 		if (f >= 0) {
 2082              		.loc 1 279 8 is_stmt 1 view .LVU533
 2083 0070 029B     		ldr	r3, [sp, #8]
 2084 0072 9D42     		cmp	r5, r3
 2085 0074 80F28780 		bge	.L101
 280:Src/ssd1963_fsmc.c **** 			y--;
 2086              		.loc 1 280 3 view .LVU534
 280:Src/ssd1963_fsmc.c **** 			y--;
 2087              		.loc 1 280 6 is_stmt 0 view .LVU535
 2088 0078 002C     		cmp	r4, #0
 2089 007a D8DA     		bge	.L102
 2090 007c E2E7     		b	.L90
 2091              	.L97:
 289:Src/ssd1963_fsmc.c **** 			LCD_Rect_Fill(x0 + y, y0 + x, size, size, color24);
 2092              		.loc 1 289 4 is_stmt 1 view .LVU536
 2093 007e BDF81080 		ldrh	r8, [sp, #16]
 2094 0082 BDF81490 		ldrh	r9, [sp, #20]
 2095 0086 BDF808B0 		ldrh	fp, [sp, #8]
 2096 008a BDF818A0 		ldrh	r10, [sp, #24]
 2097 008e 09EB0B01 		add	r1, r9, fp
 2098 0092 07EB0800 		add	r0, r7, r8
 2099 0096 139B     		ldr	r3, [sp, #76]
 2100 0098 0093     		str	r3, [sp]
 2101 009a 5346     		mov	r3, r10
 2102 009c 5246     		mov	r2, r10
 2103 009e 89B2     		uxth	r1, r1
 2104 00a0 80B2     		uxth	r0, r0
 2105 00a2 FFF7FEFF 		bl	LCD_Rect_Fill
 2106              	.LVL233:
 290:Src/ssd1963_fsmc.c **** 		}
 2107              		.loc 1 290 4 view .LVU537
 2108 00a6 07EB0901 		add	r1, r7, r9
 2109 00aa 08EB0B00 		add	r0, r8, fp
 2110 00ae 139B     		ldr	r3, [sp, #76]
 2111 00b0 0093     		str	r3, [sp]
 2112 00b2 5346     		mov	r3, r10
 2113 00b4 5246     		mov	r2, r10
 2114 00b6 89B2     		uxth	r1, r1
 2115 00b8 80B2     		uxth	r0, r0
 2116 00ba FFF7FEFF 		bl	LCD_Rect_Fill
 2117              	.LVL234:
 2118 00be CEE7     		b	.L91
 2119              	.L98:
 293:Src/ssd1963_fsmc.c **** 			LCD_Rect_Fill(x0 + y, y0 - x, size, size, color24);
 2120              		.loc 1 293 4 view .LVU538
 2121 00c0 BDF81080 		ldrh	r8, [sp, #16]
 2122 00c4 BDF81490 		ldrh	r9, [sp, #20]
 2123 00c8 BDF808B0 		ldrh	fp, [sp, #8]
 2124 00cc BDF818A0 		ldrh	r10, [sp, #24]
ARM GAS  C:\Users\BLACK_~1\AppData\Local\Temp\ccMgrS3u.s 			page 52


 2125 00d0 A9EB0B01 		sub	r1, r9, fp
 2126 00d4 07EB0800 		add	r0, r7, r8
 2127 00d8 139B     		ldr	r3, [sp, #76]
 2128 00da 0093     		str	r3, [sp]
 2129 00dc 5346     		mov	r3, r10
 2130 00de 5246     		mov	r2, r10
 2131 00e0 89B2     		uxth	r1, r1
 2132 00e2 80B2     		uxth	r0, r0
 2133 00e4 FFF7FEFF 		bl	LCD_Rect_Fill
 2134              	.LVL235:
 294:Src/ssd1963_fsmc.c **** 		}
 2135              		.loc 1 294 4 view .LVU539
 2136 00e8 A9EB0701 		sub	r1, r9, r7
 2137 00ec 08EB0B00 		add	r0, r8, fp
 2138 00f0 139B     		ldr	r3, [sp, #76]
 2139 00f2 0093     		str	r3, [sp]
 2140 00f4 5346     		mov	r3, r10
 2141 00f6 5246     		mov	r2, r10
 2142 00f8 89B2     		uxth	r1, r1
 2143 00fa 80B2     		uxth	r0, r0
 2144 00fc FFF7FEFF 		bl	LCD_Rect_Fill
 2145              	.LVL236:
 2146 0100 B0E7     		b	.L92
 2147              	.L99:
 297:Src/ssd1963_fsmc.c **** 			LCD_Rect_Fill(x0 - x, y0 + y, size, size, color24);
 2148              		.loc 1 297 4 view .LVU540
 2149 0102 BDF81080 		ldrh	r8, [sp, #16]
 2150 0106 BDF80890 		ldrh	r9, [sp, #8]
 2151 010a BDF814B0 		ldrh	fp, [sp, #20]
 2152 010e BDF818A0 		ldrh	r10, [sp, #24]
 2153 0112 07EB0B01 		add	r1, r7, fp
 2154 0116 A8EB0900 		sub	r0, r8, r9
 2155 011a 139B     		ldr	r3, [sp, #76]
 2156 011c 0093     		str	r3, [sp]
 2157 011e 5346     		mov	r3, r10
 2158 0120 5246     		mov	r2, r10
 2159 0122 89B2     		uxth	r1, r1
 2160 0124 80B2     		uxth	r0, r0
 2161 0126 FFF7FEFF 		bl	LCD_Rect_Fill
 2162              	.LVL237:
 298:Src/ssd1963_fsmc.c **** 		}
 2163              		.loc 1 298 4 view .LVU541
 2164 012a 09EB0B01 		add	r1, r9, fp
 2165 012e A8EB0700 		sub	r0, r8, r7
 2166 0132 139B     		ldr	r3, [sp, #76]
 2167 0134 0093     		str	r3, [sp]
 2168 0136 5346     		mov	r3, r10
 2169 0138 5246     		mov	r2, r10
 2170 013a 89B2     		uxth	r1, r1
 2171 013c 80B2     		uxth	r0, r0
 2172 013e FFF7FEFF 		bl	LCD_Rect_Fill
 2173              	.LVL238:
 2174 0142 92E7     		b	.L93
 2175              	.L100:
 301:Src/ssd1963_fsmc.c **** 			LCD_Rect_Fill(x0 - x, y0 - y, size, size, color24);
 2176              		.loc 1 301 4 view .LVU542
 2177 0144 BDF81080 		ldrh	r8, [sp, #16]
ARM GAS  C:\Users\BLACK_~1\AppData\Local\Temp\ccMgrS3u.s 			page 53


 2178 0148 BDF808B0 		ldrh	fp, [sp, #8]
 2179 014c BDF81490 		ldrh	r9, [sp, #20]
 2180 0150 BDF818A0 		ldrh	r10, [sp, #24]
 2181 0154 A9EB0701 		sub	r1, r9, r7
 2182 0158 A8EB0B00 		sub	r0, r8, fp
 2183 015c 139B     		ldr	r3, [sp, #76]
 2184 015e 0093     		str	r3, [sp]
 2185 0160 5346     		mov	r3, r10
 2186 0162 5246     		mov	r2, r10
 2187 0164 89B2     		uxth	r1, r1
 2188 0166 80B2     		uxth	r0, r0
 2189 0168 FFF7FEFF 		bl	LCD_Rect_Fill
 2190              	.LVL239:
 302:Src/ssd1963_fsmc.c **** 		}
 2191              		.loc 1 302 4 view .LVU543
 2192 016c A9EB0B01 		sub	r1, r9, fp
 2193 0170 A8EB0700 		sub	r0, r8, r7
 2194 0174 139B     		ldr	r3, [sp, #76]
 2195 0176 0093     		str	r3, [sp]
 2196 0178 5346     		mov	r3, r10
 2197 017a 5246     		mov	r2, r10
 2198 017c 89B2     		uxth	r1, r1
 2199 017e 80B2     		uxth	r0, r0
 2200 0180 FFF7FEFF 		bl	LCD_Rect_Fill
 2201              	.LVL240:
 2202 0184 74E7     		b	.L89
 2203              	.L101:
 305:Src/ssd1963_fsmc.c **** 
 2204              		.loc 1 305 1 is_stmt 0 view .LVU544
 2205 0186 09B0     		add	sp, sp, #36
 2206              	.LCFI26:
 2207              		.cfi_def_cfa_offset 36
 2208              		@ sp needed
 2209 0188 BDE8F08F 		pop	{r4, r5, r6, r7, r8, r9, r10, fp, pc}
 305:Src/ssd1963_fsmc.c **** 
 2210              		.loc 1 305 1 view .LVU545
 2211              		.cfi_endproc
 2212              	.LFE143:
 2214              		.section	.text.LCD_Rect_Round,"ax",%progbits
 2215              		.align	1
 2216              		.global	LCD_Rect_Round
 2217              		.syntax unified
 2218              		.thumb
 2219              		.thumb_func
 2221              	LCD_Rect_Round:
 2222              	.LVL241:
 2223              	.LFB144:
 308:Src/ssd1963_fsmc.c **** 	LCD_Line(x + r, y, x + length + size - r, y, size, color24);
 2224              		.loc 1 308 1 is_stmt 1 view -0
 2225              		.cfi_startproc
 2226              		@ args = 12, pretend = 0, frame = 8
 2227              		@ frame_needed = 0, uses_anonymous_args = 0
 308:Src/ssd1963_fsmc.c **** 	LCD_Line(x + r, y, x + length + size - r, y, size, color24);
 2228              		.loc 1 308 1 is_stmt 0 view .LVU547
 2229 0000 2DE9F04F 		push	{r4, r5, r6, r7, r8, r9, r10, fp, lr}
 2230              	.LCFI27:
 2231              		.cfi_def_cfa_offset 36
ARM GAS  C:\Users\BLACK_~1\AppData\Local\Temp\ccMgrS3u.s 			page 54


 2232              		.cfi_offset 4, -36
 2233              		.cfi_offset 5, -32
 2234              		.cfi_offset 6, -28
 2235              		.cfi_offset 7, -24
 2236              		.cfi_offset 8, -20
 2237              		.cfi_offset 9, -16
 2238              		.cfi_offset 10, -12
 2239              		.cfi_offset 11, -8
 2240              		.cfi_offset 14, -4
 2241 0004 85B0     		sub	sp, sp, #20
 2242              	.LCFI28:
 2243              		.cfi_def_cfa_offset 56
 2244 0006 8246     		mov	r10, r0
 2245 0008 0E46     		mov	r6, r1
 2246 000a 1C46     		mov	r4, r3
 2247 000c BDF83890 		ldrh	r9, [sp, #56]
 2248 0010 9DF83C70 		ldrb	r7, [sp, #60]	@ zero_extendqisi2
 2249 0014 DDF84080 		ldr	r8, [sp, #64]
 309:Src/ssd1963_fsmc.c **** 	LCD_Line(x + r, y + width - 1, x + length + size - r, y + width - 1, size, color24);
 2250              		.loc 1 309 2 is_stmt 1 view .LVU548
 2251 0018 00EB0903 		add	r3, r0, r9
 2252              	.LVL242:
 309:Src/ssd1963_fsmc.c **** 	LCD_Line(x + r, y + width - 1, x + length + size - r, y + width - 1, size, color24);
 2253              		.loc 1 309 2 is_stmt 0 view .LVU549
 2254 001c 98B2     		uxth	r0, r3
 2255              	.LVL243:
 309:Src/ssd1963_fsmc.c **** 	LCD_Line(x + r, y + width - 1, x + length + size - r, y + width - 1, size, color24);
 2256              		.loc 1 309 23 view .LVU550
 2257 001e 5244     		add	r2, r2, r10
 2258              	.LVL244:
 309:Src/ssd1963_fsmc.c **** 	LCD_Line(x + r, y + width - 1, x + length + size - r, y + width - 1, size, color24);
 2259              		.loc 1 309 23 view .LVU551
 2260 0020 95B2     		uxth	r5, r2
 309:Src/ssd1963_fsmc.c **** 	LCD_Line(x + r, y + width - 1, x + length + size - r, y + width - 1, size, color24);
 2261              		.loc 1 309 32 view .LVU552
 2262 0022 BBB2     		uxth	r3, r7
 2263 0024 0393     		str	r3, [sp, #12]
 2264 0026 07EB050B 		add	fp, r7, r5
 2265 002a 1FFA8BFB 		uxth	fp, fp
 309:Src/ssd1963_fsmc.c **** 	LCD_Line(x + r, y + width - 1, x + length + size - r, y + width - 1, size, color24);
 2266              		.loc 1 309 2 view .LVU553
 2267 002e ABEB090B 		sub	fp, fp, r9
 2268 0032 1FFA8BFB 		uxth	fp, fp
 2269 0036 CDF80480 		str	r8, [sp, #4]
 2270 003a 0097     		str	r7, [sp]
 2271 003c 0B46     		mov	r3, r1
 2272 003e 5A46     		mov	r2, fp
 2273 0040 0290     		str	r0, [sp, #8]
 2274 0042 FFF7FEFF 		bl	LCD_Line
 2275              	.LVL245:
 310:Src/ssd1963_fsmc.c **** 	LCD_Line(x, y + r, x, y + width - size - r, size, color24);
 2276              		.loc 1 310 2 is_stmt 1 view .LVU554
 310:Src/ssd1963_fsmc.c **** 	LCD_Line(x, y + r, x, y + width - size - r, size, color24);
 2277              		.loc 1 310 20 is_stmt 0 view .LVU555
 2278 0046 3444     		add	r4, r4, r6
 2279 0048 A4B2     		uxth	r4, r4
 310:Src/ssd1963_fsmc.c **** 	LCD_Line(x, y + r, x, y + width - size - r, size, color24);
ARM GAS  C:\Users\BLACK_~1\AppData\Local\Temp\ccMgrS3u.s 			page 55


 2280              		.loc 1 310 2 view .LVU556
 2281 004a 611E     		subs	r1, r4, #1
 2282 004c 89B2     		uxth	r1, r1
 2283 004e CDF80480 		str	r8, [sp, #4]
 2284 0052 0097     		str	r7, [sp]
 2285 0054 0B46     		mov	r3, r1
 2286 0056 5A46     		mov	r2, fp
 2287 0058 0298     		ldr	r0, [sp, #8]
 2288 005a FFF7FEFF 		bl	LCD_Line
 2289              	.LVL246:
 311:Src/ssd1963_fsmc.c **** 	LCD_Line(x + length - 1, y + r, x + length - 1, y + width - size - r, size, color24);
 2290              		.loc 1 311 2 is_stmt 1 view .LVU557
 2291 005e 4E44     		add	r6, r6, r9
 2292 0060 B6B2     		uxth	r6, r6
 311:Src/ssd1963_fsmc.c **** 	LCD_Line(x + length - 1, y + r, x + length - 1, y + width - size - r, size, color24);
 2293              		.loc 1 311 34 is_stmt 0 view .LVU558
 2294 0062 039B     		ldr	r3, [sp, #12]
 2295 0064 A4EB030B 		sub	fp, r4, r3
 2296 0068 1FFA8BFB 		uxth	fp, fp
 311:Src/ssd1963_fsmc.c **** 	LCD_Line(x + length - 1, y + r, x + length - 1, y + width - size - r, size, color24);
 2297              		.loc 1 311 2 view .LVU559
 2298 006c ABEB090B 		sub	fp, fp, r9
 2299 0070 1FFA8BFB 		uxth	fp, fp
 2300 0074 CDF80480 		str	r8, [sp, #4]
 2301 0078 0097     		str	r7, [sp]
 2302 007a 5B46     		mov	r3, fp
 2303 007c 5246     		mov	r2, r10
 2304 007e 3146     		mov	r1, r6
 2305 0080 5046     		mov	r0, r10
 2306 0082 FFF7FEFF 		bl	LCD_Line
 2307              	.LVL247:
 312:Src/ssd1963_fsmc.c **** 
 2308              		.loc 1 312 2 is_stmt 1 view .LVU560
 2309 0086 681E     		subs	r0, r5, #1
 2310 0088 80B2     		uxth	r0, r0
 2311 008a CDF80480 		str	r8, [sp, #4]
 2312 008e 0097     		str	r7, [sp]
 2313 0090 5B46     		mov	r3, fp
 2314 0092 0246     		mov	r2, r0
 2315 0094 3146     		mov	r1, r6
 2316 0096 FFF7FEFF 		bl	LCD_Line
 2317              	.LVL248:
 314:Src/ssd1963_fsmc.c **** 	LCD_Circle_Helper(x + length - r - 1, y + r, r, 2, size, color24);
 2318              		.loc 1 314 2 view .LVU561
 2319 009a BDF908B0 		ldrsh	fp, [sp, #8]
 2320 009e 36B2     		sxth	r6, r6
 2321 00a0 0FFA89FA 		sxth	r10, r9
 2322 00a4 CDF80480 		str	r8, [sp, #4]
 2323 00a8 0097     		str	r7, [sp]
 2324 00aa 0123     		movs	r3, #1
 2325 00ac 5246     		mov	r2, r10
 2326 00ae 3146     		mov	r1, r6
 2327 00b0 5846     		mov	r0, fp
 2328 00b2 FFF7FEFF 		bl	LCD_Circle_Helper
 2329              	.LVL249:
 315:Src/ssd1963_fsmc.c **** 	LCD_Circle_Helper(x + length - r - 1, y + width - r - 1, r, 4, size, color24);
 2330              		.loc 1 315 2 view .LVU562
ARM GAS  C:\Users\BLACK_~1\AppData\Local\Temp\ccMgrS3u.s 			page 56


 315:Src/ssd1963_fsmc.c **** 	LCD_Circle_Helper(x + length - r - 1, y + width - r - 1, r, 4, size, color24);
 2331              		.loc 1 315 31 is_stmt 0 view .LVU563
 2332 00b6 A5EB0905 		sub	r5, r5, r9
 2333 00ba ADB2     		uxth	r5, r5
 315:Src/ssd1963_fsmc.c **** 	LCD_Circle_Helper(x + length - r - 1, y + width - r - 1, r, 4, size, color24);
 2334              		.loc 1 315 35 view .LVU564
 2335 00bc 013D     		subs	r5, r5, #1
 315:Src/ssd1963_fsmc.c **** 	LCD_Circle_Helper(x + length - r - 1, y + width - r - 1, r, 4, size, color24);
 2336              		.loc 1 315 2 view .LVU565
 2337 00be 2DB2     		sxth	r5, r5
 2338 00c0 CDF80480 		str	r8, [sp, #4]
 2339 00c4 0097     		str	r7, [sp]
 2340 00c6 0223     		movs	r3, #2
 2341 00c8 5246     		mov	r2, r10
 2342 00ca 3146     		mov	r1, r6
 2343 00cc 2846     		mov	r0, r5
 2344 00ce FFF7FEFF 		bl	LCD_Circle_Helper
 2345              	.LVL250:
 316:Src/ssd1963_fsmc.c **** 	LCD_Circle_Helper(x + r, y + width - r - 1, r, 8, size, color24);
 2346              		.loc 1 316 2 is_stmt 1 view .LVU566
 316:Src/ssd1963_fsmc.c **** 	LCD_Circle_Helper(x + r, y + width - r - 1, r, 8, size, color24);
 2347              		.loc 1 316 50 is_stmt 0 view .LVU567
 2348 00d2 A4EB0904 		sub	r4, r4, r9
 2349 00d6 A4B2     		uxth	r4, r4
 316:Src/ssd1963_fsmc.c **** 	LCD_Circle_Helper(x + r, y + width - r - 1, r, 8, size, color24);
 2350              		.loc 1 316 54 view .LVU568
 2351 00d8 013C     		subs	r4, r4, #1
 316:Src/ssd1963_fsmc.c **** 	LCD_Circle_Helper(x + r, y + width - r - 1, r, 8, size, color24);
 2352              		.loc 1 316 2 view .LVU569
 2353 00da 24B2     		sxth	r4, r4
 2354 00dc CDF80480 		str	r8, [sp, #4]
 2355 00e0 0097     		str	r7, [sp]
 2356 00e2 0423     		movs	r3, #4
 2357 00e4 5246     		mov	r2, r10
 2358 00e6 2146     		mov	r1, r4
 2359 00e8 2846     		mov	r0, r5
 2360 00ea FFF7FEFF 		bl	LCD_Circle_Helper
 2361              	.LVL251:
 317:Src/ssd1963_fsmc.c **** }
 2362              		.loc 1 317 2 is_stmt 1 view .LVU570
 2363 00ee CDF80480 		str	r8, [sp, #4]
 2364 00f2 0097     		str	r7, [sp]
 2365 00f4 0823     		movs	r3, #8
 2366 00f6 5246     		mov	r2, r10
 2367 00f8 2146     		mov	r1, r4
 2368 00fa 5846     		mov	r0, fp
 2369 00fc FFF7FEFF 		bl	LCD_Circle_Helper
 2370              	.LVL252:
 318:Src/ssd1963_fsmc.c **** 
 2371              		.loc 1 318 1 is_stmt 0 view .LVU571
 2372 0100 05B0     		add	sp, sp, #20
 2373              	.LCFI29:
 2374              		.cfi_def_cfa_offset 36
 2375              		@ sp needed
 2376 0102 BDE8F08F 		pop	{r4, r5, r6, r7, r8, r9, r10, fp, pc}
 318:Src/ssd1963_fsmc.c **** 
 2377              		.loc 1 318 1 view .LVU572
ARM GAS  C:\Users\BLACK_~1\AppData\Local\Temp\ccMgrS3u.s 			page 57


 2378              		.cfi_endproc
 2379              	.LFE144:
 2381              		.section	.text.LCD_Circle_Fill_Helper,"ax",%progbits
 2382              		.align	1
 2383              		.global	LCD_Circle_Fill_Helper
 2384              		.syntax unified
 2385              		.thumb
 2386              		.thumb_func
 2388              	LCD_Circle_Fill_Helper:
 2389              	.LVL253:
 2390              	.LFB145:
 321:Src/ssd1963_fsmc.c **** 	int16_t f = 1 - r;
 2391              		.loc 1 321 1 is_stmt 1 view -0
 2392              		.cfi_startproc
 2393              		@ args = 8, pretend = 0, frame = 24
 2394              		@ frame_needed = 0, uses_anonymous_args = 0
 321:Src/ssd1963_fsmc.c **** 	int16_t f = 1 - r;
 2395              		.loc 1 321 1 is_stmt 0 view .LVU574
 2396 0000 2DE9F04F 		push	{r4, r5, r6, r7, r8, r9, r10, fp, lr}
 2397              	.LCFI30:
 2398              		.cfi_def_cfa_offset 36
 2399              		.cfi_offset 4, -36
 2400              		.cfi_offset 5, -32
 2401              		.cfi_offset 6, -28
 2402              		.cfi_offset 7, -24
 2403              		.cfi_offset 8, -20
 2404              		.cfi_offset 9, -16
 2405              		.cfi_offset 10, -12
 2406              		.cfi_offset 11, -8
 2407              		.cfi_offset 14, -4
 2408 0004 89B0     		sub	sp, sp, #36
 2409              	.LCFI31:
 2410              		.cfi_def_cfa_offset 72
 2411 0006 0390     		str	r0, [sp, #12]
 2412 0008 0491     		str	r1, [sp, #16]
 2413 000a 9046     		mov	r8, r2
 2414 000c 9B46     		mov	fp, r3
 2415 000e BDF94830 		ldrsh	r3, [sp, #72]
 2416              	.LVL254:
 321:Src/ssd1963_fsmc.c **** 	int16_t f = 1 - r;
 2417              		.loc 1 321 1 view .LVU575
 2418 0012 0593     		str	r3, [sp, #20]
 322:Src/ssd1963_fsmc.c **** 	int16_t ddF_x = 1;
 2419              		.loc 1 322 2 is_stmt 1 view .LVU576
 322:Src/ssd1963_fsmc.c **** 	int16_t ddF_x = 1;
 2420              		.loc 1 322 16 is_stmt 0 view .LVU577
 2421 0014 93B2     		uxth	r3, r2
 2422 0016 C3F10104 		rsb	r4, r3, #1
 322:Src/ssd1963_fsmc.c **** 	int16_t ddF_x = 1;
 2423              		.loc 1 322 10 view .LVU578
 2424 001a 24B2     		sxth	r4, r4
 2425              	.LVL255:
 323:Src/ssd1963_fsmc.c **** 	int16_t ddF_y = -2 * r;
 2426              		.loc 1 323 2 is_stmt 1 view .LVU579
 324:Src/ssd1963_fsmc.c **** 	int16_t x = 0;
 2427              		.loc 1 324 2 view .LVU580
 324:Src/ssd1963_fsmc.c **** 	int16_t x = 0;
ARM GAS  C:\Users\BLACK_~1\AppData\Local\Temp\ccMgrS3u.s 			page 58


 2428              		.loc 1 324 21 is_stmt 0 view .LVU581
 2429 001c C3EBC333 		rsb	r3, r3, r3, lsl #15
 2430 0020 5B00     		lsls	r3, r3, #1
 324:Src/ssd1963_fsmc.c **** 	int16_t x = 0;
 2431              		.loc 1 324 10 view .LVU582
 2432 0022 1BB2     		sxth	r3, r3
 2433 0024 0293     		str	r3, [sp, #8]
 2434              	.LVL256:
 325:Src/ssd1963_fsmc.c **** 	int16_t y = r;
 2435              		.loc 1 325 2 is_stmt 1 view .LVU583
 326:Src/ssd1963_fsmc.c **** 
 2436              		.loc 1 326 2 view .LVU584
 328:Src/ssd1963_fsmc.c **** 		if (f >= 0) {
 2437              		.loc 1 328 2 view .LVU585
 325:Src/ssd1963_fsmc.c **** 	int16_t y = r;
 2438              		.loc 1 325 10 is_stmt 0 view .LVU586
 2439 0026 0025     		movs	r5, #0
 323:Src/ssd1963_fsmc.c **** 	int16_t ddF_y = -2 * r;
 2440              		.loc 1 323 10 view .LVU587
 2441 0028 4FF0010A 		mov	r10, #1
 328:Src/ssd1963_fsmc.c **** 		if (f >= 0) {
 2442              		.loc 1 328 8 view .LVU588
 2443 002c 1AE0     		b	.L106
 2444              	.LVL257:
 2445              	.L115:
 330:Src/ssd1963_fsmc.c **** 			ddF_y += 2;
 2446              		.loc 1 330 4 is_stmt 1 view .LVU589
 330:Src/ssd1963_fsmc.c **** 			ddF_y += 2;
 2447              		.loc 1 330 5 is_stmt 0 view .LVU590
 2448 002e 08F1FF38 		add	r8, r8, #-1
 2449              	.LVL258:
 330:Src/ssd1963_fsmc.c **** 			ddF_y += 2;
 2450              		.loc 1 330 5 view .LVU591
 2451 0032 0FFA88F8 		sxth	r8, r8
 2452              	.LVL259:
 331:Src/ssd1963_fsmc.c **** 			f += ddF_y;
 2453              		.loc 1 331 4 is_stmt 1 view .LVU592
 331:Src/ssd1963_fsmc.c **** 			f += ddF_y;
 2454              		.loc 1 331 10 is_stmt 0 view .LVU593
 2455 0036 029B     		ldr	r3, [sp, #8]
 2456 0038 0233     		adds	r3, r3, #2
 2457 003a 1AB2     		sxth	r2, r3
 2458 003c 0292     		str	r2, [sp, #8]
 2459              	.LVL260:
 332:Src/ssd1963_fsmc.c **** 		}
 2460              		.loc 1 332 4 is_stmt 1 view .LVU594
 332:Src/ssd1963_fsmc.c **** 		}
 2461              		.loc 1 332 6 is_stmt 0 view .LVU595
 2462 003e 14FA83F4 		uxtah	r4, r4, r3
 2463              	.LVL261:
 332:Src/ssd1963_fsmc.c **** 		}
 2464              		.loc 1 332 6 view .LVU596
 2465 0042 24B2     		sxth	r4, r4
 2466              	.LVL262:
 2467              	.L107:
 334:Src/ssd1963_fsmc.c **** 		ddF_x += 2;
 2468              		.loc 1 334 3 is_stmt 1 view .LVU597
ARM GAS  C:\Users\BLACK_~1\AppData\Local\Temp\ccMgrS3u.s 			page 59


 334:Src/ssd1963_fsmc.c **** 		ddF_x += 2;
 2469              		.loc 1 334 4 is_stmt 0 view .LVU598
 2470 0044 0135     		adds	r5, r5, #1
 2471              	.LVL263:
 334:Src/ssd1963_fsmc.c **** 		ddF_x += 2;
 2472              		.loc 1 334 4 view .LVU599
 2473 0046 AEB2     		uxth	r6, r5
 2474 0048 2DB2     		sxth	r5, r5
 2475              	.LVL264:
 335:Src/ssd1963_fsmc.c **** 		f += ddF_x;
 2476              		.loc 1 335 3 is_stmt 1 view .LVU600
 335:Src/ssd1963_fsmc.c **** 		f += ddF_x;
 2477              		.loc 1 335 9 is_stmt 0 view .LVU601
 2478 004a 0AF10203 		add	r3, r10, #2
 2479 004e 0FFA83FA 		sxth	r10, r3
 2480              	.LVL265:
 336:Src/ssd1963_fsmc.c **** 
 2481              		.loc 1 336 3 is_stmt 1 view .LVU602
 336:Src/ssd1963_fsmc.c **** 
 2482              		.loc 1 336 5 is_stmt 0 view .LVU603
 2483 0052 14FA83F4 		uxtah	r4, r4, r3
 2484              	.LVL266:
 336:Src/ssd1963_fsmc.c **** 
 2485              		.loc 1 336 5 view .LVU604
 2486 0056 24B2     		sxth	r4, r4
 2487              	.LVL267:
 338:Src/ssd1963_fsmc.c **** 			LCD_Line(x0 + x, y0 - y, x0 + x, y0 - y + 2 * y + delta, 1, color24);
 2488              		.loc 1 338 3 is_stmt 1 view .LVU605
 338:Src/ssd1963_fsmc.c **** 			LCD_Line(x0 + x, y0 - y, x0 + x, y0 - y + 2 * y + delta, 1, color24);
 2489              		.loc 1 338 6 is_stmt 0 view .LVU606
 2490 0058 1BF0010F 		tst	fp, #1
 2491 005c 07D1     		bne	.L112
 2492              	.L108:
 342:Src/ssd1963_fsmc.c **** 			LCD_Line(x0 - x, y0 - y, x0 - x, y0 - y + 2 * y + delta, 1, color24);
 2493              		.loc 1 342 3 is_stmt 1 view .LVU607
 342:Src/ssd1963_fsmc.c **** 			LCD_Line(x0 - x, y0 - y, x0 - x, y0 - y + 2 * y + delta, 1, color24);
 2494              		.loc 1 342 6 is_stmt 0 view .LVU608
 2495 005e 1BF0020F 		tst	fp, #2
 2496 0062 38D1     		bne	.L113
 2497              	.LVL268:
 2498              	.L106:
 328:Src/ssd1963_fsmc.c **** 		if (f >= 0) {
 2499              		.loc 1 328 8 is_stmt 1 view .LVU609
 2500 0064 4545     		cmp	r5, r8
 2501 0066 67DA     		bge	.L114
 329:Src/ssd1963_fsmc.c **** 			y--;
 2502              		.loc 1 329 3 view .LVU610
 329:Src/ssd1963_fsmc.c **** 			y--;
 2503              		.loc 1 329 6 is_stmt 0 view .LVU611
 2504 0068 002C     		cmp	r4, #0
 2505 006a E0DA     		bge	.L115
 2506 006c EAE7     		b	.L107
 2507              	.L112:
 339:Src/ssd1963_fsmc.c **** 			LCD_Line(x0 + y, y0 - x, x0 + y, y0 - x + 2 * x + delta, 1, color24);
 2508              		.loc 1 339 4 is_stmt 1 view .LVU612
 2509 006e BDF80C70 		ldrh	r7, [sp, #12]
 2510 0072 F019     		adds	r0, r6, r7
ARM GAS  C:\Users\BLACK_~1\AppData\Local\Temp\ccMgrS3u.s 			page 60


 2511 0074 80B2     		uxth	r0, r0
 2512 0076 BDF81010 		ldrh	r1, [sp, #16]
 2513 007a 1FFA88F9 		uxth	r9, r8
 2514 007e 0691     		str	r1, [sp, #24]
 2515 0080 A1EB0901 		sub	r1, r1, r9
 2516 0084 89B2     		uxth	r1, r1
 339:Src/ssd1963_fsmc.c **** 			LCD_Line(x0 + y, y0 - x, x0 + y, y0 - x + 2 * x + delta, 1, color24);
 2517              		.loc 1 339 48 is_stmt 0 view .LVU613
 2518 0086 4FEA4903 		lsl	r3, r9, #1
 2519 008a 9BB2     		uxth	r3, r3
 339:Src/ssd1963_fsmc.c **** 			LCD_Line(x0 + y, y0 - x, x0 + y, y0 - x + 2 * x + delta, 1, color24);
 2520              		.loc 1 339 44 view .LVU614
 2521 008c 0B44     		add	r3, r3, r1
 339:Src/ssd1963_fsmc.c **** 			LCD_Line(x0 + y, y0 - x, x0 + y, y0 - x + 2 * x + delta, 1, color24);
 2522              		.loc 1 339 4 view .LVU615
 2523 008e BDF81420 		ldrh	r2, [sp, #20]
 2524 0092 0792     		str	r2, [sp, #28]
 2525 0094 12FA83F3 		uxtah	r3, r2, r3
 2526 0098 139A     		ldr	r2, [sp, #76]
 2527 009a 0192     		str	r2, [sp, #4]
 2528 009c 4FF0010C 		mov	ip, #1
 2529 00a0 CDF800C0 		str	ip, [sp]
 2530 00a4 9BB2     		uxth	r3, r3
 2531 00a6 0246     		mov	r2, r0
 2532 00a8 FFF7FEFF 		bl	LCD_Line
 2533              	.LVL269:
 340:Src/ssd1963_fsmc.c **** 		}
 2534              		.loc 1 340 4 is_stmt 1 view .LVU616
 2535 00ac 07EB0900 		add	r0, r7, r9
 2536 00b0 80B2     		uxth	r0, r0
 2537 00b2 069B     		ldr	r3, [sp, #24]
 2538 00b4 991B     		subs	r1, r3, r6
 2539 00b6 89B2     		uxth	r1, r1
 340:Src/ssd1963_fsmc.c **** 		}
 2540              		.loc 1 340 48 is_stmt 0 view .LVU617
 2541 00b8 7300     		lsls	r3, r6, #1
 2542 00ba 9BB2     		uxth	r3, r3
 340:Src/ssd1963_fsmc.c **** 		}
 2543              		.loc 1 340 44 view .LVU618
 2544 00bc 0B44     		add	r3, r3, r1
 340:Src/ssd1963_fsmc.c **** 		}
 2545              		.loc 1 340 4 view .LVU619
 2546 00be 079A     		ldr	r2, [sp, #28]
 2547 00c0 12FA83F3 		uxtah	r3, r2, r3
 2548 00c4 139A     		ldr	r2, [sp, #76]
 2549 00c6 0192     		str	r2, [sp, #4]
 2550 00c8 0122     		movs	r2, #1
 2551 00ca 0092     		str	r2, [sp]
 2552 00cc 9BB2     		uxth	r3, r3
 2553 00ce 0246     		mov	r2, r0
 2554 00d0 FFF7FEFF 		bl	LCD_Line
 2555              	.LVL270:
 2556 00d4 C3E7     		b	.L108
 2557              	.L113:
 343:Src/ssd1963_fsmc.c **** 			LCD_Line(x0 - y, y0 - x, x0 - y, y0 - x + 2 * x + delta, 1, color24);
 2558              		.loc 1 343 4 is_stmt 1 view .LVU620
 2559 00d6 BDF80C30 		ldrh	r3, [sp, #12]
ARM GAS  C:\Users\BLACK_~1\AppData\Local\Temp\ccMgrS3u.s 			page 61


 2560 00da 0693     		str	r3, [sp, #24]
 2561 00dc 981B     		subs	r0, r3, r6
 2562 00de 80B2     		uxth	r0, r0
 2563 00e0 BDF81010 		ldrh	r1, [sp, #16]
 2564 00e4 1FFA88F7 		uxth	r7, r8
 2565 00e8 0791     		str	r1, [sp, #28]
 2566 00ea C91B     		subs	r1, r1, r7
 2567 00ec 89B2     		uxth	r1, r1
 343:Src/ssd1963_fsmc.c **** 			LCD_Line(x0 - y, y0 - x, x0 - y, y0 - x + 2 * x + delta, 1, color24);
 2568              		.loc 1 343 48 is_stmt 0 view .LVU621
 2569 00ee 7B00     		lsls	r3, r7, #1
 2570 00f0 9BB2     		uxth	r3, r3
 343:Src/ssd1963_fsmc.c **** 			LCD_Line(x0 - y, y0 - x, x0 - y, y0 - x + 2 * x + delta, 1, color24);
 2571              		.loc 1 343 44 view .LVU622
 2572 00f2 0B44     		add	r3, r3, r1
 343:Src/ssd1963_fsmc.c **** 			LCD_Line(x0 - y, y0 - x, x0 - y, y0 - x + 2 * x + delta, 1, color24);
 2573              		.loc 1 343 4 view .LVU623
 2574 00f4 BDF81490 		ldrh	r9, [sp, #20]
 2575 00f8 19FA83F3 		uxtah	r3, r9, r3
 2576 00fc 139A     		ldr	r2, [sp, #76]
 2577 00fe 0192     		str	r2, [sp, #4]
 2578 0100 4FF0010C 		mov	ip, #1
 2579 0104 CDF800C0 		str	ip, [sp]
 2580 0108 9BB2     		uxth	r3, r3
 2581 010a 0246     		mov	r2, r0
 2582 010c FFF7FEFF 		bl	LCD_Line
 2583              	.LVL271:
 344:Src/ssd1963_fsmc.c **** 		}
 2584              		.loc 1 344 4 is_stmt 1 view .LVU624
 2585 0110 069B     		ldr	r3, [sp, #24]
 2586 0112 D81B     		subs	r0, r3, r7
 2587 0114 80B2     		uxth	r0, r0
 2588 0116 079A     		ldr	r2, [sp, #28]
 2589 0118 911B     		subs	r1, r2, r6
 2590 011a 89B2     		uxth	r1, r1
 344:Src/ssd1963_fsmc.c **** 		}
 2591              		.loc 1 344 48 is_stmt 0 view .LVU625
 2592 011c 7300     		lsls	r3, r6, #1
 2593 011e 9BB2     		uxth	r3, r3
 344:Src/ssd1963_fsmc.c **** 		}
 2594              		.loc 1 344 44 view .LVU626
 2595 0120 0B44     		add	r3, r3, r1
 344:Src/ssd1963_fsmc.c **** 		}
 2596              		.loc 1 344 4 view .LVU627
 2597 0122 19FA83F3 		uxtah	r3, r9, r3
 2598 0126 139A     		ldr	r2, [sp, #76]
 2599 0128 0192     		str	r2, [sp, #4]
 2600 012a 0122     		movs	r2, #1
 2601 012c 0092     		str	r2, [sp]
 2602 012e 9BB2     		uxth	r3, r3
 2603 0130 0246     		mov	r2, r0
 2604 0132 FFF7FEFF 		bl	LCD_Line
 2605              	.LVL272:
 2606 0136 95E7     		b	.L106
 2607              	.L114:
 347:Src/ssd1963_fsmc.c **** 
 2608              		.loc 1 347 1 view .LVU628
ARM GAS  C:\Users\BLACK_~1\AppData\Local\Temp\ccMgrS3u.s 			page 62


 2609 0138 09B0     		add	sp, sp, #36
 2610              	.LCFI32:
 2611              		.cfi_def_cfa_offset 36
 2612              		@ sp needed
 2613 013a BDE8F08F 		pop	{r4, r5, r6, r7, r8, r9, r10, fp, pc}
 347:Src/ssd1963_fsmc.c **** 
 2614              		.loc 1 347 1 view .LVU629
 2615              		.cfi_endproc
 2616              	.LFE145:
 2618              		.section	.text.LCD_Rect_Round_Fill,"ax",%progbits
 2619              		.align	1
 2620              		.global	LCD_Rect_Round_Fill
 2621              		.syntax unified
 2622              		.thumb
 2623              		.thumb_func
 2625              	LCD_Rect_Round_Fill:
 2626              	.LVL273:
 2627              	.LFB146:
 350:Src/ssd1963_fsmc.c **** 	LCD_Rect_Fill(x + r, y, length - 2 * r, width, color24);
 2628              		.loc 1 350 1 is_stmt 1 view -0
 2629              		.cfi_startproc
 2630              		@ args = 8, pretend = 0, frame = 0
 2631              		@ frame_needed = 0, uses_anonymous_args = 0
 350:Src/ssd1963_fsmc.c **** 	LCD_Rect_Fill(x + r, y, length - 2 * r, width, color24);
 2632              		.loc 1 350 1 is_stmt 0 view .LVU631
 2633 0000 2DE9F04F 		push	{r4, r5, r6, r7, r8, r9, r10, fp, lr}
 2634              	.LCFI33:
 2635              		.cfi_def_cfa_offset 36
 2636              		.cfi_offset 4, -36
 2637              		.cfi_offset 5, -32
 2638              		.cfi_offset 6, -28
 2639              		.cfi_offset 7, -24
 2640              		.cfi_offset 8, -20
 2641              		.cfi_offset 9, -16
 2642              		.cfi_offset 10, -12
 2643              		.cfi_offset 11, -8
 2644              		.cfi_offset 14, -4
 2645 0004 83B0     		sub	sp, sp, #12
 2646              	.LCFI34:
 2647              		.cfi_def_cfa_offset 48
 2648 0006 0446     		mov	r4, r0
 2649 0008 0E46     		mov	r6, r1
 2650 000a 9346     		mov	fp, r2
 2651 000c 1D46     		mov	r5, r3
 2652 000e BDF83090 		ldrh	r9, [sp, #48]
 2653 0012 DDF83480 		ldr	r8, [sp, #52]
 351:Src/ssd1963_fsmc.c **** 	LCD_Circle_Fill_Helper(x + length - r - 1, y + r, r, 1, width - 2 * r - 1, color24);
 2654              		.loc 1 351 2 is_stmt 1 view .LVU632
 2655 0016 00EB0907 		add	r7, r0, r9
 2656 001a BFB2     		uxth	r7, r7
 2657 001c 4FEA490A 		lsl	r10, r9, #1
 2658 0020 1FFA8AFA 		uxth	r10, r10
 2659 0024 A2EB0A02 		sub	r2, r2, r10
 2660              	.LVL274:
 351:Src/ssd1963_fsmc.c **** 	LCD_Circle_Fill_Helper(x + length - r - 1, y + r, r, 1, width - 2 * r - 1, color24);
 2661              		.loc 1 351 2 is_stmt 0 view .LVU633
 2662 0028 CDF80080 		str	r8, [sp]
ARM GAS  C:\Users\BLACK_~1\AppData\Local\Temp\ccMgrS3u.s 			page 63


 2663 002c 92B2     		uxth	r2, r2
 2664 002e 3846     		mov	r0, r7
 2665              	.LVL275:
 351:Src/ssd1963_fsmc.c **** 	LCD_Circle_Fill_Helper(x + length - r - 1, y + r, r, 1, width - 2 * r - 1, color24);
 2666              		.loc 1 351 2 view .LVU634
 2667 0030 FFF7FEFF 		bl	LCD_Rect_Fill
 2668              	.LVL276:
 352:Src/ssd1963_fsmc.c **** 	LCD_Circle_Fill_Helper(x + r, y + r, r, 2, width - 2 * r - 1, color24);
 2669              		.loc 1 352 2 is_stmt 1 view .LVU635
 352:Src/ssd1963_fsmc.c **** 	LCD_Circle_Fill_Helper(x + r, y + r, r, 2, width - 2 * r - 1, color24);
 2670              		.loc 1 352 27 is_stmt 0 view .LVU636
 2671 0034 04EB0B00 		add	r0, r4, fp
 2672 0038 80B2     		uxth	r0, r0
 352:Src/ssd1963_fsmc.c **** 	LCD_Circle_Fill_Helper(x + r, y + r, r, 2, width - 2 * r - 1, color24);
 2673              		.loc 1 352 36 view .LVU637
 2674 003a A0EB0900 		sub	r0, r0, r9
 2675 003e 80B2     		uxth	r0, r0
 352:Src/ssd1963_fsmc.c **** 	LCD_Circle_Fill_Helper(x + r, y + r, r, 2, width - 2 * r - 1, color24);
 2676              		.loc 1 352 40 view .LVU638
 2677 0040 0138     		subs	r0, r0, #1
 352:Src/ssd1963_fsmc.c **** 	LCD_Circle_Fill_Helper(x + r, y + r, r, 2, width - 2 * r - 1, color24);
 2678              		.loc 1 352 47 view .LVU639
 2679 0042 4E44     		add	r6, r6, r9
 352:Src/ssd1963_fsmc.c **** 	LCD_Circle_Fill_Helper(x + r, y + r, r, 2, width - 2 * r - 1, color24);
 2680              		.loc 1 352 2 view .LVU640
 2681 0044 36B2     		sxth	r6, r6
 2682 0046 0FFA89F9 		sxth	r9, r9
 352:Src/ssd1963_fsmc.c **** 	LCD_Circle_Fill_Helper(x + r, y + r, r, 2, width - 2 * r - 1, color24);
 2683              		.loc 1 352 64 view .LVU641
 2684 004a A5EB0A04 		sub	r4, r5, r10
 2685 004e A4B2     		uxth	r4, r4
 352:Src/ssd1963_fsmc.c **** 	LCD_Circle_Fill_Helper(x + r, y + r, r, 2, width - 2 * r - 1, color24);
 2686              		.loc 1 352 72 view .LVU642
 2687 0050 013C     		subs	r4, r4, #1
 352:Src/ssd1963_fsmc.c **** 	LCD_Circle_Fill_Helper(x + r, y + r, r, 2, width - 2 * r - 1, color24);
 2688              		.loc 1 352 2 view .LVU643
 2689 0052 24B2     		sxth	r4, r4
 2690 0054 CDF80480 		str	r8, [sp, #4]
 2691 0058 0094     		str	r4, [sp]
 2692 005a 0123     		movs	r3, #1
 2693 005c 4A46     		mov	r2, r9
 2694 005e 3146     		mov	r1, r6
 2695 0060 00B2     		sxth	r0, r0
 2696 0062 FFF7FEFF 		bl	LCD_Circle_Fill_Helper
 2697              	.LVL277:
 353:Src/ssd1963_fsmc.c **** }
 2698              		.loc 1 353 2 is_stmt 1 view .LVU644
 2699 0066 CDF80480 		str	r8, [sp, #4]
 2700 006a 0094     		str	r4, [sp]
 2701 006c 0223     		movs	r3, #2
 2702 006e 4A46     		mov	r2, r9
 2703 0070 3146     		mov	r1, r6
 2704 0072 38B2     		sxth	r0, r7
 2705 0074 FFF7FEFF 		bl	LCD_Circle_Fill_Helper
 2706              	.LVL278:
 354:Src/ssd1963_fsmc.c **** 
 2707              		.loc 1 354 1 is_stmt 0 view .LVU645
ARM GAS  C:\Users\BLACK_~1\AppData\Local\Temp\ccMgrS3u.s 			page 64


 2708 0078 03B0     		add	sp, sp, #12
 2709              	.LCFI35:
 2710              		.cfi_def_cfa_offset 36
 2711              		@ sp needed
 2712 007a BDE8F08F 		pop	{r4, r5, r6, r7, r8, r9, r10, fp, pc}
 354:Src/ssd1963_fsmc.c **** 
 2713              		.loc 1 354 1 view .LVU646
 2714              		.cfi_endproc
 2715              	.LFE146:
 2717              		.section	.text.LCD_Font,"ax",%progbits
 2718              		.align	1
 2719              		.global	LCD_Font
 2720              		.syntax unified
 2721              		.thumb
 2722              		.thumb_func
 2724              	LCD_Font:
 2725              	.LVL279:
 2726              	.LFB148:
 390:Src/ssd1963_fsmc.c **** 
 391:Src/ssd1963_fsmc.c **** void LCD_Font(uint16_t x, uint16_t y, char *text, const GFXfont *p_font, uint8_t size, uint32_t col
 392:Src/ssd1963_fsmc.c **** {
 2727              		.loc 1 392 1 is_stmt 1 view -0
 2728              		.cfi_startproc
 2729              		@ args = 8, pretend = 0, frame = 24
 2730              		@ frame_needed = 0, uses_anonymous_args = 0
 2731              		.loc 1 392 1 is_stmt 0 view .LVU648
 2732 0000 2DE9F043 		push	{r4, r5, r6, r7, r8, r9, lr}
 2733              	.LCFI36:
 2734              		.cfi_def_cfa_offset 28
 2735              		.cfi_offset 4, -28
 2736              		.cfi_offset 5, -24
 2737              		.cfi_offset 6, -20
 2738              		.cfi_offset 7, -16
 2739              		.cfi_offset 8, -12
 2740              		.cfi_offset 9, -8
 2741              		.cfi_offset 14, -4
 2742 0004 89B0     		sub	sp, sp, #36
 2743              	.LCFI37:
 2744              		.cfi_def_cfa_offset 64
 2745 0006 1546     		mov	r5, r2
 2746 0008 9DF84090 		ldrb	r9, [sp, #64]	@ zero_extendqisi2
 393:Src/ssd1963_fsmc.c **** 	int16_t cursor_x = x;
 2747              		.loc 1 393 2 is_stmt 1 view .LVU649
 2748              		.loc 1 393 10 is_stmt 0 view .LVU650
 2749 000c 07B2     		sxth	r7, r0
 2750              	.LVL280:
 394:Src/ssd1963_fsmc.c **** 	int16_t cursor_y = y;
 2751              		.loc 1 394 2 is_stmt 1 view .LVU651
 2752              		.loc 1 394 10 is_stmt 0 view .LVU652
 2753 000e 0EB2     		sxth	r6, r1
 2754              	.LVL281:
 395:Src/ssd1963_fsmc.c **** 	GFXfont font;
 2755              		.loc 1 395 2 is_stmt 1 view .LVU653
 396:Src/ssd1963_fsmc.c **** 	memcpy((&font), (p_font), (sizeof(GFXfont)));
 2756              		.loc 1 396 2 view .LVU654
 2757 0010 05AC     		add	r4, sp, #20
 2758 0012 1868     		ldr	r0, [r3]	@ unaligned
ARM GAS  C:\Users\BLACK_~1\AppData\Local\Temp\ccMgrS3u.s 			page 65


 2759              	.LVL282:
 2760              		.loc 1 396 2 is_stmt 0 view .LVU655
 2761 0014 5968     		ldr	r1, [r3, #4]	@ unaligned
 2762              	.LVL283:
 2763              		.loc 1 396 2 view .LVU656
 2764 0016 9A68     		ldr	r2, [r3, #8]	@ unaligned
 2765              	.LVL284:
 2766              		.loc 1 396 2 view .LVU657
 2767 0018 07C4     		stmia	r4!, {r0, r1, r2}
 397:Src/ssd1963_fsmc.c **** 	for(uint16_t text_pos = 0; text_pos < strlen(text); text_pos++)
 2768              		.loc 1 397 2 is_stmt 1 view .LVU658
 2769              	.LBB2:
 2770              		.loc 1 397 6 view .LVU659
 2771              	.LVL285:
 2772              		.loc 1 397 6 is_stmt 0 view .LVU660
 2773              	.LBE2:
 393:Src/ssd1963_fsmc.c **** 	int16_t cursor_y = y;
 2774              		.loc 1 393 10 view .LVU661
 2775 001a B846     		mov	r8, r7
 2776              	.LBB6:
 2777              		.loc 1 397 15 view .LVU662
 2778 001c 0024     		movs	r4, #0
 2779              		.loc 1 397 2 view .LVU663
 2780 001e 07E0     		b	.L119
 2781              	.LVL286:
 2782              	.L125:
 2783              	.LBB3:
 398:Src/ssd1963_fsmc.c **** 	{
 399:Src/ssd1963_fsmc.c **** 		char c = text[text_pos];
 400:Src/ssd1963_fsmc.c **** 		if(c == '\n')
 401:Src/ssd1963_fsmc.c **** 		{
 402:Src/ssd1963_fsmc.c **** 			cursor_x = x;
 2784              		.loc 1 402 4 is_stmt 1 view .LVU664
 403:Src/ssd1963_fsmc.c **** 			cursor_y += font.yAdvance * size;
 2785              		.loc 1 403 4 view .LVU665
 2786              		.loc 1 403 20 is_stmt 0 view .LVU666
 2787 0020 9DF81E10 		ldrb	r1, [sp, #30]	@ zero_extendqisi2
 2788              		.loc 1 403 13 view .LVU667
 2789 0024 09FB0166 		mla	r6, r9, r1, r6
 2790              	.LVL287:
 2791              		.loc 1 403 13 view .LVU668
 2792 0028 36B2     		sxth	r6, r6
 2793              	.LVL288:
 402:Src/ssd1963_fsmc.c **** 			cursor_y += font.yAdvance * size;
 2794              		.loc 1 402 13 view .LVU669
 2795 002a B846     		mov	r8, r7
 2796              	.LVL289:
 2797              	.L121:
 402:Src/ssd1963_fsmc.c **** 			cursor_y += font.yAdvance * size;
 2798              		.loc 1 402 13 view .LVU670
 2799              	.LBE3:
 397:Src/ssd1963_fsmc.c **** 	{
 2800              		.loc 1 397 54 is_stmt 1 discriminator 2 view .LVU671
 397:Src/ssd1963_fsmc.c **** 	{
 2801              		.loc 1 397 62 is_stmt 0 discriminator 2 view .LVU672
 2802 002c 0134     		adds	r4, r4, #1
 2803              	.LVL290:
ARM GAS  C:\Users\BLACK_~1\AppData\Local\Temp\ccMgrS3u.s 			page 66


 397:Src/ssd1963_fsmc.c **** 	{
 2804              		.loc 1 397 62 discriminator 2 view .LVU673
 2805 002e A4B2     		uxth	r4, r4
 2806              	.LVL291:
 2807              	.L119:
 397:Src/ssd1963_fsmc.c **** 	{
 2808              		.loc 1 397 29 is_stmt 1 discriminator 1 view .LVU674
 397:Src/ssd1963_fsmc.c **** 	{
 2809              		.loc 1 397 40 is_stmt 0 discriminator 1 view .LVU675
 2810 0030 2846     		mov	r0, r5
 2811 0032 FFF7FEFF 		bl	strlen
 2812              	.LVL292:
 397:Src/ssd1963_fsmc.c **** 	{
 2813              		.loc 1 397 2 discriminator 1 view .LVU676
 2814 0036 8442     		cmp	r4, r0
 2815 0038 27D2     		bcs	.L124
 2816              	.LBB5:
 399:Src/ssd1963_fsmc.c **** 		if(c == '\n')
 2817              		.loc 1 399 3 is_stmt 1 view .LVU677
 399:Src/ssd1963_fsmc.c **** 		if(c == '\n')
 2818              		.loc 1 399 8 is_stmt 0 view .LVU678
 2819 003a 2B5D     		ldrb	r3, [r5, r4]	@ zero_extendqisi2
 2820              	.LVL293:
 400:Src/ssd1963_fsmc.c **** 		{
 2821              		.loc 1 400 3 is_stmt 1 view .LVU679
 400:Src/ssd1963_fsmc.c **** 		{
 2822              		.loc 1 400 5 is_stmt 0 view .LVU680
 2823 003c 0A2B     		cmp	r3, #10
 2824 003e EFD0     		beq	.L125
 404:Src/ssd1963_fsmc.c **** 		}
 405:Src/ssd1963_fsmc.c **** 		else if(c >= font.first && c <= font.last && c != '\r')
 2825              		.loc 1 405 8 is_stmt 1 view .LVU681
 2826              		.loc 1 405 20 is_stmt 0 view .LVU682
 2827 0040 9DF81C20 		ldrb	r2, [sp, #28]	@ zero_extendqisi2
 2828              		.loc 1 405 10 view .LVU683
 2829 0044 9A42     		cmp	r2, r3
 2830 0046 F1D8     		bhi	.L121
 2831              		.loc 1 405 39 discriminator 1 view .LVU684
 2832 0048 9DF81D10 		ldrb	r1, [sp, #29]	@ zero_extendqisi2
 2833              		.loc 1 405 27 discriminator 1 view .LVU685
 2834 004c 9942     		cmp	r1, r3
 2835 004e EDD3     		bcc	.L121
 2836              		.loc 1 405 45 discriminator 2 view .LVU686
 2837 0050 0D2B     		cmp	r3, #13
 2838 0052 EBD0     		beq	.L121
 2839              	.LBB4:
 406:Src/ssd1963_fsmc.c **** 		{
 407:Src/ssd1963_fsmc.c **** 			GFXglyph glyph;
 2840              		.loc 1 407 4 is_stmt 1 view .LVU687
 408:Src/ssd1963_fsmc.c **** 			memcpy((&glyph), (&font.glyph[c - font.first]), (sizeof(GFXglyph)));
 2841              		.loc 1 408 4 view .LVU688
 2842              		.loc 1 408 27 is_stmt 0 view .LVU689
 2843 0054 0699     		ldr	r1, [sp, #24]
 2844              		.loc 1 408 36 view .LVU690
 2845 0056 9B1A     		subs	r3, r3, r2
 2846              	.LVL294:
 2847              		.loc 1 408 22 view .LVU691
ARM GAS  C:\Users\BLACK_~1\AppData\Local\Temp\ccMgrS3u.s 			page 67


 2848 0058 01EBC30C 		add	ip, r1, r3, lsl #3
 2849              		.loc 1 408 4 view .LVU692
 2850 005c 03AA     		add	r2, sp, #12
 2851 005e 51F83300 		ldr	r0, [r1, r3, lsl #3]	@ unaligned
 2852 0062 DCF80410 		ldr	r1, [ip, #4]	@ unaligned
 2853 0066 03C2     		stmia	r2!, {r0, r1}
 2854              	.LVL295:
 409:Src/ssd1963_fsmc.c **** 			LCD_Char(cursor_x, cursor_y, &glyph, &font, size, color24);
 2855              		.loc 1 409 4 is_stmt 1 view .LVU693
 2856 0068 119B     		ldr	r3, [sp, #68]
 2857 006a 0193     		str	r3, [sp, #4]
 2858 006c CDF80090 		str	r9, [sp]
 2859 0070 1346     		mov	r3, r2
 2860 0072 03AA     		add	r2, sp, #12
 2861 0074 3146     		mov	r1, r6
 2862 0076 4046     		mov	r0, r8
 2863 0078 FFF7FEFF 		bl	LCD_Char
 2864              	.LVL296:
 410:Src/ssd1963_fsmc.c **** 			cursor_x += glyph.xAdvance * size;
 2865              		.loc 1 410 4 view .LVU694
 2866              		.loc 1 410 21 is_stmt 0 view .LVU695
 2867 007c 9DF81030 		ldrb	r3, [sp, #16]	@ zero_extendqisi2
 2868              		.loc 1 410 13 view .LVU696
 2869 0080 09FB0388 		mla	r8, r9, r3, r8
 2870              	.LVL297:
 2871              		.loc 1 410 13 view .LVU697
 2872 0084 0FFA88F8 		sxth	r8, r8
 2873              	.LVL298:
 2874              		.loc 1 410 13 view .LVU698
 2875 0088 D0E7     		b	.L121
 2876              	.L124:
 2877              		.loc 1 410 13 view .LVU699
 2878              	.LBE4:
 2879              	.LBE5:
 2880              	.LBE6:
 411:Src/ssd1963_fsmc.c **** 		}
 412:Src/ssd1963_fsmc.c **** 	}
 413:Src/ssd1963_fsmc.c **** }
 2881              		.loc 1 413 1 view .LVU700
 2882 008a 09B0     		add	sp, sp, #36
 2883              	.LCFI38:
 2884              		.cfi_def_cfa_offset 28
 2885              		@ sp needed
 2886 008c BDE8F083 		pop	{r4, r5, r6, r7, r8, r9, pc}
 2887              		.loc 1 413 1 view .LVU701
 2888              		.cfi_endproc
 2889              	.LFE148:
 2891              		.section	.text.LCD_Bright,"ax",%progbits
 2892              		.align	1
 2893              		.global	LCD_Bright
 2894              		.syntax unified
 2895              		.thumb
 2896              		.thumb_func
 2898              	LCD_Bright:
 2899              	.LVL299:
 2900              	.LFB150:
 414:Src/ssd1963_fsmc.c **** 
ARM GAS  C:\Users\BLACK_~1\AppData\Local\Temp\ccMgrS3u.s 			page 68


 415:Src/ssd1963_fsmc.c **** void LCD_Init(void)
 416:Src/ssd1963_fsmc.c **** {
 417:Src/ssd1963_fsmc.c **** 	//1. Power up the system platform and assert the RESET# signal (L state) for a minimum of 10
 418:Src/ssd1963_fsmc.c **** 	//		LCD_RST_SET
 419:Src/ssd1963_fsmc.c **** //	    HAL_Delay (100);
 420:Src/ssd1963_fsmc.c **** 	//   LCD_RST_SET;
 421:Src/ssd1963_fsmc.c **** 	//    LCD_RST_RESET;
 422:Src/ssd1963_fsmc.c **** //  HAL_GPIO_WritePin(GPIOD, GPIO_PIN_13, GPIO_PIN_SET);
 423:Src/ssd1963_fsmc.c **** //  HAL_GPIO_WritePin(GPIOD, GPIO_PIN_13, GPIO_PIN_RESET);
 424:Src/ssd1963_fsmc.c **** //	    HAL_Delay (100);
 425:Src/ssd1963_fsmc.c **** //  HAL_GPIO_WritePin(GPIOD, GPIO_PIN_13, GPIO_PIN_SET);
 426:Src/ssd1963_fsmc.c **** 
 427:Src/ssd1963_fsmc.c **** 	// LCD_RST_SET;
 428:Src/ssd1963_fsmc.c **** 	//    HAL_Delay(300);
 429:Src/ssd1963_fsmc.c **** 	/*	2. Configure SSD1961s PLL frequency
 430:Src/ssd1963_fsmc.c **** 	VCO = Input clock x (M + 1)
 431:Src/ssd1963_fsmc.c **** 	PLL frequency  = VCO / (N + 1)
 432:Src/ssd1963_fsmc.c **** 	* Note :
 433:Src/ssd1963_fsmc.c **** 	1.  250MHz < VCO < 800MHz
 434:Src/ssd1963_fsmc.c **** 	PLL frequency < 110MHz
 435:Src/ssd1963_fsmc.c **** 	2.  For a 10MHz input clock to obtain 100MHz PLL frequency, user cannot program M = 19 and N = 1. 
 436:Src/ssd1963_fsmc.c **** 	closet setting in this situation is setting M=29 and N=2, where 10 x 30 / 3 = 100MHz.
 437:Src/ssd1963_fsmc.c **** 	3.  Before PLL is locked, SSD1961/2/3 is operating at input clock frequency (e.g. 10MHz), register
 438:Src/ssd1963_fsmc.c **** 	programming cannot be set faster than half of the input clock frequency (5M words/s in this exampl
 439:Src/ssd1963_fsmc.c **** 	Example to program SSD1961 with M = 29, N = 2, VCO = 10M x 30 = 300 MHz, PLL frequency = 300M / 3 
 440:Src/ssd1963_fsmc.c **** 	MHz
 441:Src/ssd1963_fsmc.c **** 	******************************/
 442:Src/ssd1963_fsmc.c **** 				//set turn on back light 
 443:Src/ssd1963_fsmc.c **** 
 444:Src/ssd1963_fsmc.c **** 	LCD_Send_Cmd(LCD_RESET);
 445:Src/ssd1963_fsmc.c **** 	LCD_Send_Cmd(LCD_DISPLAY_ON); 		
 446:Src/ssd1963_fsmc.c **** 
 447:Src/ssd1963_fsmc.c **** 	
 448:Src/ssd1963_fsmc.c **** 	LCD_Send_Cmd(0xE2);//set frequency
 449:Src/ssd1963_fsmc.c **** 	LCD_Send_Dat(0x1D);  // presceller(M=46) 
 450:Src/ssd1963_fsmc.c **** 	LCD_Send_Dat(0x02);  //multiplier(N=2) 
 451:Src/ssd1963_fsmc.c **** 	LCD_Send_Dat(0x04);  //on-off multiplier and presceller
 452:Src/ssd1963_fsmc.c **** 	//3. Turn on the PLL 
 453:Src/ssd1963_fsmc.c **** 	LCD_Send_Cmd(0xE0);
 454:Src/ssd1963_fsmc.c **** 	LCD_Send_Dat(0x01);
 455:Src/ssd1963_fsmc.c **** 	HAL_Delay(120); // Wait for 100us to let the PLL stable and read the PLL lock status bit. 
 456:Src/ssd1963_fsmc.c **** 	LCD_Send_Cmd(0xE0);
 457:Src/ssd1963_fsmc.c **** 	//READ COMMAND 0xE4);   (Bit 2 = 1 if PLL locked) 
 458:Src/ssd1963_fsmc.c **** 	LCD_Send_Dat(0x03); // 5. Switch the clock source to PLL 
 459:Src/ssd1963_fsmc.c **** 	HAL_Delay(120);
 460:Src/ssd1963_fsmc.c **** 	LCD_Send_Cmd(0x01); //6. Software Reset
 461:Src/ssd1963_fsmc.c **** 	HAL_Delay(120);
 462:Src/ssd1963_fsmc.c **** 	/*************
 463:Src/ssd1963_fsmc.c **** 	Dot clock Freq = PLL Freq x (LCDC_FPR + 1) / 2^20
 464:Src/ssd1963_fsmc.c **** 	For example,  22MHz = 100MHz * (LCDC_FPR+1) / 2^20
 465:Src/ssd1963_fsmc.c **** 	LCDC_FPR = 230685 = 0x3851D
 466:Src/ssd1963_fsmc.c **** 	********************/
 467:Src/ssd1963_fsmc.c **** 	// LCD_Send_Cmd(0xE6);  // 7. Configure the dot clock frequency
 468:Src/ssd1963_fsmc.c **** 	// LCD_Send_Dat(0x03);
 469:Src/ssd1963_fsmc.c **** 	// LCD_Send_Dat(0x85);
 470:Src/ssd1963_fsmc.c **** 	// LCD_Send_Dat(0x1D);
 471:Src/ssd1963_fsmc.c **** 
ARM GAS  C:\Users\BLACK_~1\AppData\Local\Temp\ccMgrS3u.s 			page 69


 472:Src/ssd1963_fsmc.c **** 	LCD_Send_Cmd(0xE6);  // 7. Configure the dot clock frequency
 473:Src/ssd1963_fsmc.c **** 	LCD_Send_Dat(0x01);
 474:Src/ssd1963_fsmc.c **** 	LCD_Send_Dat(0xEB);
 475:Src/ssd1963_fsmc.c **** 	LCD_Send_Dat(0x84);
 476:Src/ssd1963_fsmc.c **** 	//8. Configure the LCD panel  
 477:Src/ssd1963_fsmc.c **** 	//a. Set the panel size to 480 x 800 and polarity of LSHIFT, LLINE and LFRAME to active low 
 478:Src/ssd1963_fsmc.c **** 	LCD_Send_Cmd(0xB0);
 479:Src/ssd1963_fsmc.c **** 	//if (LSHIFT) LCD_Send_Dat(0x0C); /* 0x08 0x0C 0xAE(5') */else LCD_Send_Dat(0xAE); //18bit panel, 
 480:Src/ssd1963_fsmc.c **** 	LCD_Send_Dat(0x20);
 481:Src/ssd1963_fsmc.c **** 	
 482:Src/ssd1963_fsmc.c **** 	LCD_Send_Dat(0x20);  /* 0x00 0x80 0x20(5') */    // TFT type 
 483:Src/ssd1963_fsmc.c **** 	LCD_Send_Dat(0x01);     // Horizontal Width:  480 - 1 = 0x031F 
 484:Src/ssd1963_fsmc.c **** 	LCD_Send_Dat(0xDF);
 485:Src/ssd1963_fsmc.c **** 	LCD_Send_Dat(0x01);     // Vertical Width :  800 -1 = 0x01DF
 486:Src/ssd1963_fsmc.c **** 	LCD_Send_Dat(0x0F);
 487:Src/ssd1963_fsmc.c **** 	LCD_Send_Dat(0x2D);  /* 0x00 0x2d */   // 000 =  RGB
 488:Src/ssd1963_fsmc.c **** 											 //b. Set the horizontal period 
 489:Src/ssd1963_fsmc.c **** 	LCD_Send_Cmd(0xB4); // Horizontal Display Period  
 490:Src/ssd1963_fsmc.c **** 	LCD_Send_Dat(0x02);    // HT: horizontal total period (display + non-display)  1 = 520-1 =  519
 491:Src/ssd1963_fsmc.c **** 	LCD_Send_Dat(0x13);
 492:Src/ssd1963_fsmc.c **** 	LCD_Send_Dat(0x00);    // HPS: Horizontal Sync Pulse Start Position = Horizontal Pulse Width + Hor
 493:Src/ssd1963_fsmc.c **** 	LCD_Send_Dat(0x08);
 494:Src/ssd1963_fsmc.c **** 	LCD_Send_Dat(0x2B);     // HPW: Horizontal Sync Pulse Width - 1=8-1=7 
 495:Src/ssd1963_fsmc.c **** 	LCD_Send_Dat(0x00);    // LPS: Horizontal Display Period Start Position = 0x0000 
 496:Src/ssd1963_fsmc.c **** 	LCD_Send_Dat(0x02);
 497:Src/ssd1963_fsmc.c **** 	LCD_Send_Dat(0x00);    // LPSPP: Horizontal Sync Pulse Subpixel Start Position(for serial TFT inte
 498:Src/ssd1963_fsmc.c **** 							 //c. Set the vertical period 
 499:Src/ssd1963_fsmc.c **** 	LCD_Send_Cmd(0xB6);    // Vertical Display Period  
 500:Src/ssd1963_fsmc.c **** 	LCD_Send_Dat(0x01);     // VT: Vertical Total (display + non-display) Period  1  =647=0x287 
 501:Src/ssd1963_fsmc.c **** 	LCD_Send_Dat(0x20);
 502:Src/ssd1963_fsmc.c **** 	LCD_Send_Dat(0x00);     // VPS: Vertical Sync Pulse Start Position  =     Vertical Pulse Width + V
 503:Src/ssd1963_fsmc.c **** 	LCD_Send_Dat(0x04);
 504:Src/ssd1963_fsmc.c **** 	LCD_Send_Dat(0x0C);     //VPW: Vertical Sync Pulse Width  1 =1 
 505:Src/ssd1963_fsmc.c **** 	LCD_Send_Dat(0x00);     //FPS: Vertical Display Period Start Position = 0 
 506:Src/ssd1963_fsmc.c **** 	LCD_Send_Dat(0x02);
 507:Src/ssd1963_fsmc.c **** //	LCD_Send_Cmd(LCD_DISPLAY_ON);     // display on 
 508:Src/ssd1963_fsmc.c **** 	LCD_Send_Cmd(0xB8);
 509:Src/ssd1963_fsmc.c **** 	LCD_Send_Dat(0x0f);
 510:Src/ssd1963_fsmc.c **** 	LCD_Send_Dat(0x01);
 511:Src/ssd1963_fsmc.c **** 	LCD_Send_Cmd(0xBA);
 512:Src/ssd1963_fsmc.c **** 	LCD_Send_Dat(0x01);
 513:Src/ssd1963_fsmc.c **** 	LCD_Send_Cmd(0xBA);
 514:Src/ssd1963_fsmc.c **** 	LCD_Send_Dat(0x03);
 515:Src/ssd1963_fsmc.c **** //	LCD_Send_Dat(0x01);	
 516:Src/ssd1963_fsmc.c **** 	//9. Set the back light control PWM clock frequency
 517:Src/ssd1963_fsmc.c **** 	//PWM signal frequency = PLL clock / (256 * (PWMF[7:0] + 1)) / 256
 518:Src/ssd1963_fsmc.c **** 	LCD_Send_Cmd(0xBE);    // PWM configuration 
 519:Src/ssd1963_fsmc.c **** 	LCD_Send_Dat(0x05);     // set PWM signal frequency to 170Hz when PLL frequency is 100MHz 
 520:Src/ssd1963_fsmc.c **** 	LCD_Send_Dat(0xFF);     // PWM duty cycle  (50%) 
 521:Src/ssd1963_fsmc.c **** 	LCD_Send_Dat(0x01);     // 0x09 = enable DBC, 0x01 = disable DBC  //on
 522:Src/ssd1963_fsmc.c **** 	LCD_Send_Cmd(0x36);     // set address_mode
 523:Src/ssd1963_fsmc.c **** 	LCD_Send_Cmd(0xBC);
 524:Src/ssd1963_fsmc.c ****   	LCD_Send_Dat(0x40); 
 525:Src/ssd1963_fsmc.c **** 	LCD_Send_Dat(0x80); 
 526:Src/ssd1963_fsmc.c **** 	LCD_Send_Dat(0x40); 
 527:Src/ssd1963_fsmc.c **** 	LCD_Send_Dat(0x01); 
 528:Src/ssd1963_fsmc.c **** 	//LCD_Send_Dat(0x31);
ARM GAS  C:\Users\BLACK_~1\AppData\Local\Temp\ccMgrS3u.s 			page 70


 529:Src/ssd1963_fsmc.c **** 	if (MIRROR_H) LCD_Send_Dat(0x02); else if (MIRROR_V) LCD_Send_Dat(0x03);
 530:Src/ssd1963_fsmc.c **** 	//13. Setup the MCU interface for 16-bit data write (565 RGB)
 531:Src/ssd1963_fsmc.c **** 	LCD_Send_Cmd(0xF0);     // mcu interface config 
 532:Src/ssd1963_fsmc.c **** 	LCD_Send_Dat(0x03);     // 16 bit interface (565)
 533:Src/ssd1963_fsmc.c **** 							//10. Turn on the display 
 534:Src/ssd1963_fsmc.c ****   	LCD_Bright(255);							
 535:Src/ssd1963_fsmc.c **** 	LCD_Send_Cmd(LCD_DISPLAY_ON);     // display on 
 536:Src/ssd1963_fsmc.c **** }
 537:Src/ssd1963_fsmc.c **** 
 538:Src/ssd1963_fsmc.c **** // void LCD_Init(void)
 539:Src/ssd1963_fsmc.c **** // {
 540:Src/ssd1963_fsmc.c **** // 	//1. Power up the system platform and assert the RESET# signal (L state) for a minimum of
 541:Src/ssd1963_fsmc.c **** // 	//		LCD_RST_SET
 542:Src/ssd1963_fsmc.c **** // 	//    HAL_Delay (100);
 543:Src/ssd1963_fsmc.c **** // 	//    LCD_RST_RESET
 544:Src/ssd1963_fsmc.c **** // 	//    HAL_Delay (120);
 545:Src/ssd1963_fsmc.c **** // 	//    LCD_RST_SET
 546:Src/ssd1963_fsmc.c **** // 	HAL_Delay(150);
 547:Src/ssd1963_fsmc.c **** // 	/*	2. Configure SSD1961s PLL frequency
 548:Src/ssd1963_fsmc.c **** // 	VCO = Input clock x (M + 1)
 549:Src/ssd1963_fsmc.c **** // 	PLL frequency  = VCO / (N + 1)
 550:Src/ssd1963_fsmc.c **** // 	* Note :
 551:Src/ssd1963_fsmc.c **** // 	1.  250MHz < VCO < 800MHz
 552:Src/ssd1963_fsmc.c **** // 	PLL frequency < 110MHz
 553:Src/ssd1963_fsmc.c **** // 	2.  For a 10MHz input clock to obtain 100MHz PLL frequency, user cannot program M = 19 and N = 
 554:Src/ssd1963_fsmc.c **** // 	closet setting in this situation is setting M=29 and N=2, where 10 x 30 / 3 = 100MHz.
 555:Src/ssd1963_fsmc.c **** // 	3.  Before PLL is locked, SSD1961/2/3 is operating at input clock frequency (e.g. 10MHz), regis
 556:Src/ssd1963_fsmc.c **** // 	programming cannot be set faster than half of the input clock frequency (5M words/s in this exa
 557:Src/ssd1963_fsmc.c **** // 	Example to program SSD1961 with M = 29, N = 2, VCO = 10M x 30 = 300 MHz, PLL frequency = 300M /
 558:Src/ssd1963_fsmc.c **** // 	MHz
 559:Src/ssd1963_fsmc.c **** // 	******************************/
 560:Src/ssd1963_fsmc.c **** // 	LCD_Send_Cmd(LCD_RESET);
 561:Src/ssd1963_fsmc.c **** // 	LCD_Send_Cmd(LCD_DISPLAY_ON); 		
 562:Src/ssd1963_fsmc.c **** // 	LCD_Send_Cmd(0xE2);//set frequency
 563:Src/ssd1963_fsmc.c **** // 	LCD_Send_Dat(0x1D);  // presceller(M=29) 
 564:Src/ssd1963_fsmc.c **** // 	//LCD_Send_Dat(0x02);  //multiplier(N=2) 
 565:Src/ssd1963_fsmc.c **** // 	LCD_Send_Dat(0x09);
 566:Src/ssd1963_fsmc.c **** // 	//LCD_Send_Dat(0xFF);  //on-off multiplier and presceller
 567:Src/ssd1963_fsmc.c **** // 	LCD_Send_Dat(0x04);
 568:Src/ssd1963_fsmc.c **** // 	//3. Turn on the PLL 
 569:Src/ssd1963_fsmc.c **** // 	LCD_Send_Cmd(0xE0);
 570:Src/ssd1963_fsmc.c **** // 	LCD_Send_Dat(0x00);
 571:Src/ssd1963_fsmc.c **** // 	HAL_Delay(120); // Wait for 100us to let the PLL stable and read the PLL lock status bit. 
 572:Src/ssd1963_fsmc.c **** // 	LCD_Send_Cmd(0xE0);
 573:Src/ssd1963_fsmc.c **** // 	//READ COMMAND 0xE4);   (Bit 2 = 1 if PLL locked) 
 574:Src/ssd1963_fsmc.c **** // 	LCD_Send_Dat(0x03); // 5. Switch the clock source to PLL 
 575:Src/ssd1963_fsmc.c **** // 	HAL_Delay(120);
 576:Src/ssd1963_fsmc.c **** // 	LCD_Send_Cmd(0x01); //6. Software Reset
 577:Src/ssd1963_fsmc.c **** // 	HAL_Delay(120);
 578:Src/ssd1963_fsmc.c **** // 	/*************
 579:Src/ssd1963_fsmc.c **** // 	Dot clock Freq = PLL Freq x (LCDC_FPR + 1) / 2^20
 580:Src/ssd1963_fsmc.c **** // 	For example,  22MHz = 100MHz * (LCDC_FPR+1) / 2^20
 581:Src/ssd1963_fsmc.c **** // 	LCDC_FPR = 230685 = 0x3851D
 582:Src/ssd1963_fsmc.c **** // 	********************/
 583:Src/ssd1963_fsmc.c **** // 	LCD_Send_Cmd(0xE6);  // 7. Configure the dot clock frequency
 584:Src/ssd1963_fsmc.c **** // 	LCD_Send_Dat(0x03);
 585:Src/ssd1963_fsmc.c **** // 	LCD_Send_Dat(0x85);
ARM GAS  C:\Users\BLACK_~1\AppData\Local\Temp\ccMgrS3u.s 			page 71


 586:Src/ssd1963_fsmc.c **** // 	LCD_Send_Dat(0x1D);
 587:Src/ssd1963_fsmc.c **** // 	//8. Configure the LCD panel  
 588:Src/ssd1963_fsmc.c **** // 	//a. Set the panel size to 480 x 800 and polarity of LSHIFT, LLINE and LFRAME to active low 
 589:Src/ssd1963_fsmc.c **** // 	LCD_Send_Cmd(0xB0);
 590:Src/ssd1963_fsmc.c **** // 	if (LSHIFT) LCD_Send_Dat(0x0C); /* 0x08 0x0C 0xAE(5') */else LCD_Send_Dat(0xAE); //18bit panel,
 591:Src/ssd1963_fsmc.c **** // 	LCD_Send_Dat(0x20);  /* 0x00 0x80 0x20(5') */    // TFT type 
 592:Src/ssd1963_fsmc.c **** // 	LCD_Send_Dat(0x01);     // Horizontal Width:  480 - 1 = 0x031F 
 593:Src/ssd1963_fsmc.c **** // 	LCD_Send_Dat(0xDF);
 594:Src/ssd1963_fsmc.c **** // 	LCD_Send_Dat(0x01);     // Vertical Width :  800 -1 = 0x01DF
 595:Src/ssd1963_fsmc.c **** // 	LCD_Send_Dat(0x0F);
 596:Src/ssd1963_fsmc.c **** // 	LCD_Send_Dat(0x2D);  /* 0x00 0x2d */   // 000 =  RGB
 597:Src/ssd1963_fsmc.c **** // 											 //b. Set the horizontal period 
 598:Src/ssd1963_fsmc.c **** // 	LCD_Send_Cmd(0xB4); // Horizontal Display Period  
 599:Src/ssd1963_fsmc.c **** // 	LCD_Send_Dat(0x02);    // HT: horizontal total period (display + non-display)  1 = 520-1 =  
 600:Src/ssd1963_fsmc.c **** // 	LCD_Send_Dat(0x13);
 601:Src/ssd1963_fsmc.c **** // 	LCD_Send_Dat(0x00);    // HPS: Horizontal Sync Pulse Start Position = Horizontal Pulse Width + 
 602:Src/ssd1963_fsmc.c **** // 	LCD_Send_Dat(0x08);
 603:Src/ssd1963_fsmc.c **** // 	LCD_Send_Dat(0x2B);     // HPW: Horizontal Sync Pulse Width - 1=8-1=7 
 604:Src/ssd1963_fsmc.c **** // 	LCD_Send_Dat(0x00);    // LPS: Horizontal Display Period Start Position = 0x0000 
 605:Src/ssd1963_fsmc.c **** // 	LCD_Send_Dat(0x02);
 606:Src/ssd1963_fsmc.c **** // 	LCD_Send_Dat(0x00);    // LPSPP: Horizontal Sync Pulse Subpixel Start Position(for serial TFT i
 607:Src/ssd1963_fsmc.c **** // 							 //c. Set the vertical period 
 608:Src/ssd1963_fsmc.c **** // 	LCD_Send_Cmd(0xB6);    // Vertical Display Period  
 609:Src/ssd1963_fsmc.c **** // 	LCD_Send_Dat(0x01);     // VT: Vertical Total (display + non-display) Period  1  =647=0x287 
 610:Src/ssd1963_fsmc.c **** // 	LCD_Send_Dat(0x20);
 611:Src/ssd1963_fsmc.c **** // 	LCD_Send_Dat(0x00);     // VPS: Vertical Sync Pulse Start Position  =     Vertical Pulse Width 
 612:Src/ssd1963_fsmc.c **** // 	LCD_Send_Dat(0x04);
 613:Src/ssd1963_fsmc.c **** // 	LCD_Send_Dat(0x0C);     //VPW: Vertical Sync Pulse Width  1 =1 
 614:Src/ssd1963_fsmc.c **** // 	LCD_Send_Dat(0x00);     //FPS: Vertical Display Period Start Position = 0 
 615:Src/ssd1963_fsmc.c **** // 	LCD_Send_Dat(0x02);
 616:Src/ssd1963_fsmc.c **** // 	//9. Set the back light control PWM clock frequency
 617:Src/ssd1963_fsmc.c **** // 	//PWM signal frequency = PLL clock / (256 * (PWMF[7:0] + 1)) / 256
 618:Src/ssd1963_fsmc.c **** // 	LCD_Send_Cmd(0xBE);    // PWM configuration 
 619:Src/ssd1963_fsmc.c **** // 	LCD_Send_Dat(0x06);     // set PWM signal frequency to 170Hz when PLL frequency is 100MHz 
 620:Src/ssd1963_fsmc.c **** // 	LCD_Send_Dat(0xFF);     // PWM duty cycle  (50%) 
 621:Src/ssd1963_fsmc.c **** // 	LCD_Send_Dat(0x01);     // 0x09 = enable DBC, 0x01 = disable DBC  //on
 622:Src/ssd1963_fsmc.c **** // 	LCD_Send_Cmd(0x36);     // set address_mode
 623:Src/ssd1963_fsmc.c **** // 	//LCD_Send_Dat(0x31);
 624:Src/ssd1963_fsmc.c **** // 	if (MIRROR_H) LCD_Send_Dat(0x02); else if (MIRROR_V) LCD_Send_Dat(0x03);
 625:Src/ssd1963_fsmc.c **** // 	//13. Setup the MCU interface for 16-bit data write (565 RGB)
 626:Src/ssd1963_fsmc.c **** // 	LCD_Send_Cmd(0xF0);     // mcu interface config 
 627:Src/ssd1963_fsmc.c **** // 	LCD_Send_Dat(0x03);     // 16 bit interface (565)
 628:Src/ssd1963_fsmc.c **** // 							//10. Turn on the display 						
 629:Src/ssd1963_fsmc.c **** // 	LCD_Send_Cmd(LCD_DISPLAY_ON);     // display on 
 630:Src/ssd1963_fsmc.c **** // }
 631:Src/ssd1963_fsmc.c **** 
 632:Src/ssd1963_fsmc.c **** void LCD_Bright(uint8_t bright)
 633:Src/ssd1963_fsmc.c **** {
 2901              		.loc 1 633 1 is_stmt 1 view -0
 2902              		.cfi_startproc
 2903              		@ args = 0, pretend = 0, frame = 0
 2904              		@ frame_needed = 0, uses_anonymous_args = 0
 2905              		.loc 1 633 1 is_stmt 0 view .LVU703
 2906 0000 10B5     		push	{r4, lr}
 2907              	.LCFI39:
 2908              		.cfi_def_cfa_offset 8
 2909              		.cfi_offset 4, -8
ARM GAS  C:\Users\BLACK_~1\AppData\Local\Temp\ccMgrS3u.s 			page 72


 2910              		.cfi_offset 14, -4
 2911 0002 0446     		mov	r4, r0
 634:Src/ssd1963_fsmc.c **** 	LCD_Send_Cmd(0xBE);  // PWM configuration 
 2912              		.loc 1 634 2 is_stmt 1 view .LVU704
 2913 0004 BE20     		movs	r0, #190
 2914              	.LVL300:
 2915              		.loc 1 634 2 is_stmt 0 view .LVU705
 2916 0006 FFF7FEFF 		bl	LCD_Send_Cmd
 2917              	.LVL301:
 635:Src/ssd1963_fsmc.c **** 	LCD_Send_Dat(0x06);     // set PWM signal frequency to 170Hz when PLL frequency is 100MHz 
 2918              		.loc 1 635 2 is_stmt 1 view .LVU706
 2919 000a 0620     		movs	r0, #6
 2920 000c FFF7FEFF 		bl	LCD_Send_Dat
 2921              	.LVL302:
 636:Src/ssd1963_fsmc.c **** 	LCD_Send_Dat(bright);   // PWM duty cycle  
 2922              		.loc 1 636 2 view .LVU707
 2923 0010 2046     		mov	r0, r4
 2924 0012 FFF7FEFF 		bl	LCD_Send_Dat
 2925              	.LVL303:
 637:Src/ssd1963_fsmc.c **** 	LCD_Send_Dat(0x01);
 2926              		.loc 1 637 2 view .LVU708
 2927 0016 0120     		movs	r0, #1
 2928 0018 FFF7FEFF 		bl	LCD_Send_Dat
 2929              	.LVL304:
 638:Src/ssd1963_fsmc.c **** }
 2930              		.loc 1 638 1 is_stmt 0 view .LVU709
 2931 001c 10BD     		pop	{r4, pc}
 2932              		.cfi_endproc
 2933              	.LFE150:
 2935              		.section	.text.LCD_Init,"ax",%progbits
 2936              		.align	1
 2937              		.global	LCD_Init
 2938              		.syntax unified
 2939              		.thumb
 2940              		.thumb_func
 2942              	LCD_Init:
 2943              	.LFB149:
 416:Src/ssd1963_fsmc.c **** 	//1. Power up the system platform and assert the RESET# signal (L state) for a minimum of 10
 2944              		.loc 1 416 1 is_stmt 1 view -0
 2945              		.cfi_startproc
 2946              		@ args = 0, pretend = 0, frame = 0
 2947              		@ frame_needed = 0, uses_anonymous_args = 0
 2948 0000 08B5     		push	{r3, lr}
 2949              	.LCFI40:
 2950              		.cfi_def_cfa_offset 8
 2951              		.cfi_offset 3, -8
 2952              		.cfi_offset 14, -4
 444:Src/ssd1963_fsmc.c **** 	LCD_Send_Cmd(LCD_DISPLAY_ON); 		
 2953              		.loc 1 444 2 view .LVU711
 2954 0002 0120     		movs	r0, #1
 2955 0004 FFF7FEFF 		bl	LCD_Send_Cmd
 2956              	.LVL305:
 445:Src/ssd1963_fsmc.c **** 
 2957              		.loc 1 445 2 view .LVU712
 2958 0008 2920     		movs	r0, #41
 2959 000a FFF7FEFF 		bl	LCD_Send_Cmd
 2960              	.LVL306:
ARM GAS  C:\Users\BLACK_~1\AppData\Local\Temp\ccMgrS3u.s 			page 73


 448:Src/ssd1963_fsmc.c **** 	LCD_Send_Dat(0x1D);  // presceller(M=46) 
 2961              		.loc 1 448 2 view .LVU713
 2962 000e E220     		movs	r0, #226
 2963 0010 FFF7FEFF 		bl	LCD_Send_Cmd
 2964              	.LVL307:
 449:Src/ssd1963_fsmc.c **** 	LCD_Send_Dat(0x02);  //multiplier(N=2) 
 2965              		.loc 1 449 2 view .LVU714
 2966 0014 1D20     		movs	r0, #29
 2967 0016 FFF7FEFF 		bl	LCD_Send_Dat
 2968              	.LVL308:
 450:Src/ssd1963_fsmc.c **** 	LCD_Send_Dat(0x04);  //on-off multiplier and presceller
 2969              		.loc 1 450 2 view .LVU715
 2970 001a 0220     		movs	r0, #2
 2971 001c FFF7FEFF 		bl	LCD_Send_Dat
 2972              	.LVL309:
 451:Src/ssd1963_fsmc.c **** 	//3. Turn on the PLL 
 2973              		.loc 1 451 2 view .LVU716
 2974 0020 0420     		movs	r0, #4
 2975 0022 FFF7FEFF 		bl	LCD_Send_Dat
 2976              	.LVL310:
 453:Src/ssd1963_fsmc.c **** 	LCD_Send_Dat(0x01);
 2977              		.loc 1 453 2 view .LVU717
 2978 0026 E020     		movs	r0, #224
 2979 0028 FFF7FEFF 		bl	LCD_Send_Cmd
 2980              	.LVL311:
 454:Src/ssd1963_fsmc.c **** 	HAL_Delay(120); // Wait for 100us to let the PLL stable and read the PLL lock status bit. 
 2981              		.loc 1 454 2 view .LVU718
 2982 002c 0120     		movs	r0, #1
 2983 002e FFF7FEFF 		bl	LCD_Send_Dat
 2984              	.LVL312:
 455:Src/ssd1963_fsmc.c **** 	LCD_Send_Cmd(0xE0);
 2985              		.loc 1 455 2 view .LVU719
 2986 0032 7820     		movs	r0, #120
 2987 0034 FFF7FEFF 		bl	HAL_Delay
 2988              	.LVL313:
 456:Src/ssd1963_fsmc.c **** 	//READ COMMAND 0xE4);   (Bit 2 = 1 if PLL locked) 
 2989              		.loc 1 456 2 view .LVU720
 2990 0038 E020     		movs	r0, #224
 2991 003a FFF7FEFF 		bl	LCD_Send_Cmd
 2992              	.LVL314:
 458:Src/ssd1963_fsmc.c **** 	HAL_Delay(120);
 2993              		.loc 1 458 2 view .LVU721
 2994 003e 0320     		movs	r0, #3
 2995 0040 FFF7FEFF 		bl	LCD_Send_Dat
 2996              	.LVL315:
 459:Src/ssd1963_fsmc.c **** 	LCD_Send_Cmd(0x01); //6. Software Reset
 2997              		.loc 1 459 2 view .LVU722
 2998 0044 7820     		movs	r0, #120
 2999 0046 FFF7FEFF 		bl	HAL_Delay
 3000              	.LVL316:
 460:Src/ssd1963_fsmc.c **** 	HAL_Delay(120);
 3001              		.loc 1 460 2 view .LVU723
 3002 004a 0120     		movs	r0, #1
 3003 004c FFF7FEFF 		bl	LCD_Send_Cmd
 3004              	.LVL317:
 461:Src/ssd1963_fsmc.c **** 	/*************
 3005              		.loc 1 461 2 view .LVU724
ARM GAS  C:\Users\BLACK_~1\AppData\Local\Temp\ccMgrS3u.s 			page 74


 3006 0050 7820     		movs	r0, #120
 3007 0052 FFF7FEFF 		bl	HAL_Delay
 3008              	.LVL318:
 472:Src/ssd1963_fsmc.c **** 	LCD_Send_Dat(0x01);
 3009              		.loc 1 472 2 view .LVU725
 3010 0056 E620     		movs	r0, #230
 3011 0058 FFF7FEFF 		bl	LCD_Send_Cmd
 3012              	.LVL319:
 473:Src/ssd1963_fsmc.c **** 	LCD_Send_Dat(0xEB);
 3013              		.loc 1 473 2 view .LVU726
 3014 005c 0120     		movs	r0, #1
 3015 005e FFF7FEFF 		bl	LCD_Send_Dat
 3016              	.LVL320:
 474:Src/ssd1963_fsmc.c **** 	LCD_Send_Dat(0x84);
 3017              		.loc 1 474 2 view .LVU727
 3018 0062 EB20     		movs	r0, #235
 3019 0064 FFF7FEFF 		bl	LCD_Send_Dat
 3020              	.LVL321:
 475:Src/ssd1963_fsmc.c **** 	//8. Configure the LCD panel  
 3021              		.loc 1 475 2 view .LVU728
 3022 0068 8420     		movs	r0, #132
 3023 006a FFF7FEFF 		bl	LCD_Send_Dat
 3024              	.LVL322:
 478:Src/ssd1963_fsmc.c **** 	//if (LSHIFT) LCD_Send_Dat(0x0C); /* 0x08 0x0C 0xAE(5') */else LCD_Send_Dat(0xAE); //18bit panel, 
 3025              		.loc 1 478 2 view .LVU729
 3026 006e B020     		movs	r0, #176
 3027 0070 FFF7FEFF 		bl	LCD_Send_Cmd
 3028              	.LVL323:
 480:Src/ssd1963_fsmc.c **** 	
 3029              		.loc 1 480 2 view .LVU730
 3030 0074 2020     		movs	r0, #32
 3031 0076 FFF7FEFF 		bl	LCD_Send_Dat
 3032              	.LVL324:
 482:Src/ssd1963_fsmc.c **** 	LCD_Send_Dat(0x01);     // Horizontal Width:  480 - 1 = 0x031F 
 3033              		.loc 1 482 2 view .LVU731
 3034 007a 2020     		movs	r0, #32
 3035 007c FFF7FEFF 		bl	LCD_Send_Dat
 3036              	.LVL325:
 483:Src/ssd1963_fsmc.c **** 	LCD_Send_Dat(0xDF);
 3037              		.loc 1 483 2 view .LVU732
 3038 0080 0120     		movs	r0, #1
 3039 0082 FFF7FEFF 		bl	LCD_Send_Dat
 3040              	.LVL326:
 484:Src/ssd1963_fsmc.c **** 	LCD_Send_Dat(0x01);     // Vertical Width :  800 -1 = 0x01DF
 3041              		.loc 1 484 2 view .LVU733
 3042 0086 DF20     		movs	r0, #223
 3043 0088 FFF7FEFF 		bl	LCD_Send_Dat
 3044              	.LVL327:
 485:Src/ssd1963_fsmc.c **** 	LCD_Send_Dat(0x0F);
 3045              		.loc 1 485 2 view .LVU734
 3046 008c 0120     		movs	r0, #1
 3047 008e FFF7FEFF 		bl	LCD_Send_Dat
 3048              	.LVL328:
 486:Src/ssd1963_fsmc.c **** 	LCD_Send_Dat(0x2D);  /* 0x00 0x2d */   // 000 =  RGB
 3049              		.loc 1 486 2 view .LVU735
 3050 0092 0F20     		movs	r0, #15
 3051 0094 FFF7FEFF 		bl	LCD_Send_Dat
ARM GAS  C:\Users\BLACK_~1\AppData\Local\Temp\ccMgrS3u.s 			page 75


 3052              	.LVL329:
 487:Src/ssd1963_fsmc.c **** 											 //b. Set the horizontal period 
 3053              		.loc 1 487 2 view .LVU736
 3054 0098 2D20     		movs	r0, #45
 3055 009a FFF7FEFF 		bl	LCD_Send_Dat
 3056              	.LVL330:
 489:Src/ssd1963_fsmc.c **** 	LCD_Send_Dat(0x02);    // HT: horizontal total period (display + non-display)  1 = 520-1 =  519
 3057              		.loc 1 489 2 view .LVU737
 3058 009e B420     		movs	r0, #180
 3059 00a0 FFF7FEFF 		bl	LCD_Send_Cmd
 3060              	.LVL331:
 490:Src/ssd1963_fsmc.c **** 	LCD_Send_Dat(0x13);
 3061              		.loc 1 490 2 view .LVU738
 3062 00a4 0220     		movs	r0, #2
 3063 00a6 FFF7FEFF 		bl	LCD_Send_Dat
 3064              	.LVL332:
 491:Src/ssd1963_fsmc.c **** 	LCD_Send_Dat(0x00);    // HPS: Horizontal Sync Pulse Start Position = Horizontal Pulse Width + Hor
 3065              		.loc 1 491 2 view .LVU739
 3066 00aa 1320     		movs	r0, #19
 3067 00ac FFF7FEFF 		bl	LCD_Send_Dat
 3068              	.LVL333:
 492:Src/ssd1963_fsmc.c **** 	LCD_Send_Dat(0x08);
 3069              		.loc 1 492 2 view .LVU740
 3070 00b0 0020     		movs	r0, #0
 3071 00b2 FFF7FEFF 		bl	LCD_Send_Dat
 3072              	.LVL334:
 493:Src/ssd1963_fsmc.c **** 	LCD_Send_Dat(0x2B);     // HPW: Horizontal Sync Pulse Width - 1=8-1=7 
 3073              		.loc 1 493 2 view .LVU741
 3074 00b6 0820     		movs	r0, #8
 3075 00b8 FFF7FEFF 		bl	LCD_Send_Dat
 3076              	.LVL335:
 494:Src/ssd1963_fsmc.c **** 	LCD_Send_Dat(0x00);    // LPS: Horizontal Display Period Start Position = 0x0000 
 3077              		.loc 1 494 2 view .LVU742
 3078 00bc 2B20     		movs	r0, #43
 3079 00be FFF7FEFF 		bl	LCD_Send_Dat
 3080              	.LVL336:
 495:Src/ssd1963_fsmc.c **** 	LCD_Send_Dat(0x02);
 3081              		.loc 1 495 2 view .LVU743
 3082 00c2 0020     		movs	r0, #0
 3083 00c4 FFF7FEFF 		bl	LCD_Send_Dat
 3084              	.LVL337:
 496:Src/ssd1963_fsmc.c **** 	LCD_Send_Dat(0x00);    // LPSPP: Horizontal Sync Pulse Subpixel Start Position(for serial TFT inte
 3085              		.loc 1 496 2 view .LVU744
 3086 00c8 0220     		movs	r0, #2
 3087 00ca FFF7FEFF 		bl	LCD_Send_Dat
 3088              	.LVL338:
 497:Src/ssd1963_fsmc.c **** 							 //c. Set the vertical period 
 3089              		.loc 1 497 2 view .LVU745
 3090 00ce 0020     		movs	r0, #0
 3091 00d0 FFF7FEFF 		bl	LCD_Send_Dat
 3092              	.LVL339:
 499:Src/ssd1963_fsmc.c **** 	LCD_Send_Dat(0x01);     // VT: Vertical Total (display + non-display) Period  1  =647=0x287 
 3093              		.loc 1 499 2 view .LVU746
 3094 00d4 B620     		movs	r0, #182
 3095 00d6 FFF7FEFF 		bl	LCD_Send_Cmd
 3096              	.LVL340:
 500:Src/ssd1963_fsmc.c **** 	LCD_Send_Dat(0x20);
ARM GAS  C:\Users\BLACK_~1\AppData\Local\Temp\ccMgrS3u.s 			page 76


 3097              		.loc 1 500 2 view .LVU747
 3098 00da 0120     		movs	r0, #1
 3099 00dc FFF7FEFF 		bl	LCD_Send_Dat
 3100              	.LVL341:
 501:Src/ssd1963_fsmc.c **** 	LCD_Send_Dat(0x00);     // VPS: Vertical Sync Pulse Start Position  =     Vertical Pulse Width + V
 3101              		.loc 1 501 2 view .LVU748
 3102 00e0 2020     		movs	r0, #32
 3103 00e2 FFF7FEFF 		bl	LCD_Send_Dat
 3104              	.LVL342:
 502:Src/ssd1963_fsmc.c **** 	LCD_Send_Dat(0x04);
 3105              		.loc 1 502 2 view .LVU749
 3106 00e6 0020     		movs	r0, #0
 3107 00e8 FFF7FEFF 		bl	LCD_Send_Dat
 3108              	.LVL343:
 503:Src/ssd1963_fsmc.c **** 	LCD_Send_Dat(0x0C);     //VPW: Vertical Sync Pulse Width  1 =1 
 3109              		.loc 1 503 2 view .LVU750
 3110 00ec 0420     		movs	r0, #4
 3111 00ee FFF7FEFF 		bl	LCD_Send_Dat
 3112              	.LVL344:
 504:Src/ssd1963_fsmc.c **** 	LCD_Send_Dat(0x00);     //FPS: Vertical Display Period Start Position = 0 
 3113              		.loc 1 504 2 view .LVU751
 3114 00f2 0C20     		movs	r0, #12
 3115 00f4 FFF7FEFF 		bl	LCD_Send_Dat
 3116              	.LVL345:
 505:Src/ssd1963_fsmc.c **** 	LCD_Send_Dat(0x02);
 3117              		.loc 1 505 2 view .LVU752
 3118 00f8 0020     		movs	r0, #0
 3119 00fa FFF7FEFF 		bl	LCD_Send_Dat
 3120              	.LVL346:
 506:Src/ssd1963_fsmc.c **** //	LCD_Send_Cmd(LCD_DISPLAY_ON);     // display on 
 3121              		.loc 1 506 2 view .LVU753
 3122 00fe 0220     		movs	r0, #2
 3123 0100 FFF7FEFF 		bl	LCD_Send_Dat
 3124              	.LVL347:
 508:Src/ssd1963_fsmc.c **** 	LCD_Send_Dat(0x0f);
 3125              		.loc 1 508 2 view .LVU754
 3126 0104 B820     		movs	r0, #184
 3127 0106 FFF7FEFF 		bl	LCD_Send_Cmd
 3128              	.LVL348:
 509:Src/ssd1963_fsmc.c **** 	LCD_Send_Dat(0x01);
 3129              		.loc 1 509 2 view .LVU755
 3130 010a 0F20     		movs	r0, #15
 3131 010c FFF7FEFF 		bl	LCD_Send_Dat
 3132              	.LVL349:
 510:Src/ssd1963_fsmc.c **** 	LCD_Send_Cmd(0xBA);
 3133              		.loc 1 510 2 view .LVU756
 3134 0110 0120     		movs	r0, #1
 3135 0112 FFF7FEFF 		bl	LCD_Send_Dat
 3136              	.LVL350:
 511:Src/ssd1963_fsmc.c **** 	LCD_Send_Dat(0x01);
 3137              		.loc 1 511 2 view .LVU757
 3138 0116 BA20     		movs	r0, #186
 3139 0118 FFF7FEFF 		bl	LCD_Send_Cmd
 3140              	.LVL351:
 512:Src/ssd1963_fsmc.c **** 	LCD_Send_Cmd(0xBA);
 3141              		.loc 1 512 2 view .LVU758
 3142 011c 0120     		movs	r0, #1
ARM GAS  C:\Users\BLACK_~1\AppData\Local\Temp\ccMgrS3u.s 			page 77


 3143 011e FFF7FEFF 		bl	LCD_Send_Dat
 3144              	.LVL352:
 513:Src/ssd1963_fsmc.c **** 	LCD_Send_Dat(0x03);
 3145              		.loc 1 513 2 view .LVU759
 3146 0122 BA20     		movs	r0, #186
 3147 0124 FFF7FEFF 		bl	LCD_Send_Cmd
 3148              	.LVL353:
 514:Src/ssd1963_fsmc.c **** //	LCD_Send_Dat(0x01);	
 3149              		.loc 1 514 2 view .LVU760
 3150 0128 0320     		movs	r0, #3
 3151 012a FFF7FEFF 		bl	LCD_Send_Dat
 3152              	.LVL354:
 518:Src/ssd1963_fsmc.c **** 	LCD_Send_Dat(0x05);     // set PWM signal frequency to 170Hz when PLL frequency is 100MHz 
 3153              		.loc 1 518 2 view .LVU761
 3154 012e BE20     		movs	r0, #190
 3155 0130 FFF7FEFF 		bl	LCD_Send_Cmd
 3156              	.LVL355:
 519:Src/ssd1963_fsmc.c **** 	LCD_Send_Dat(0xFF);     // PWM duty cycle  (50%) 
 3157              		.loc 1 519 2 view .LVU762
 3158 0134 0520     		movs	r0, #5
 3159 0136 FFF7FEFF 		bl	LCD_Send_Dat
 3160              	.LVL356:
 520:Src/ssd1963_fsmc.c **** 	LCD_Send_Dat(0x01);     // 0x09 = enable DBC, 0x01 = disable DBC  //on
 3161              		.loc 1 520 2 view .LVU763
 3162 013a FF20     		movs	r0, #255
 3163 013c FFF7FEFF 		bl	LCD_Send_Dat
 3164              	.LVL357:
 521:Src/ssd1963_fsmc.c **** 	LCD_Send_Cmd(0x36);     // set address_mode
 3165              		.loc 1 521 2 view .LVU764
 3166 0140 0120     		movs	r0, #1
 3167 0142 FFF7FEFF 		bl	LCD_Send_Dat
 3168              	.LVL358:
 522:Src/ssd1963_fsmc.c **** 	LCD_Send_Cmd(0xBC);
 3169              		.loc 1 522 2 view .LVU765
 3170 0146 3620     		movs	r0, #54
 3171 0148 FFF7FEFF 		bl	LCD_Send_Cmd
 3172              	.LVL359:
 523:Src/ssd1963_fsmc.c ****   	LCD_Send_Dat(0x40); 
 3173              		.loc 1 523 2 view .LVU766
 3174 014c BC20     		movs	r0, #188
 3175 014e FFF7FEFF 		bl	LCD_Send_Cmd
 3176              	.LVL360:
 524:Src/ssd1963_fsmc.c **** 	LCD_Send_Dat(0x80); 
 3177              		.loc 1 524 4 view .LVU767
 3178 0152 4020     		movs	r0, #64
 3179 0154 FFF7FEFF 		bl	LCD_Send_Dat
 3180              	.LVL361:
 525:Src/ssd1963_fsmc.c **** 	LCD_Send_Dat(0x40); 
 3181              		.loc 1 525 2 view .LVU768
 3182 0158 8020     		movs	r0, #128
 3183 015a FFF7FEFF 		bl	LCD_Send_Dat
 3184              	.LVL362:
 526:Src/ssd1963_fsmc.c **** 	LCD_Send_Dat(0x01); 
 3185              		.loc 1 526 2 view .LVU769
 3186 015e 4020     		movs	r0, #64
 3187 0160 FFF7FEFF 		bl	LCD_Send_Dat
 3188              	.LVL363:
ARM GAS  C:\Users\BLACK_~1\AppData\Local\Temp\ccMgrS3u.s 			page 78


 527:Src/ssd1963_fsmc.c **** 	//LCD_Send_Dat(0x31);
 3189              		.loc 1 527 2 view .LVU770
 3190 0164 0120     		movs	r0, #1
 3191 0166 FFF7FEFF 		bl	LCD_Send_Dat
 3192              	.LVL364:
 529:Src/ssd1963_fsmc.c **** 	//13. Setup the MCU interface for 16-bit data write (565 RGB)
 3193              		.loc 1 529 2 view .LVU771
 529:Src/ssd1963_fsmc.c **** 	//13. Setup the MCU interface for 16-bit data write (565 RGB)
 3194              		.loc 1 529 41 view .LVU772
 529:Src/ssd1963_fsmc.c **** 	//13. Setup the MCU interface for 16-bit data write (565 RGB)
 3195              		.loc 1 529 55 view .LVU773
 3196 016a 0320     		movs	r0, #3
 3197 016c FFF7FEFF 		bl	LCD_Send_Dat
 3198              	.LVL365:
 531:Src/ssd1963_fsmc.c **** 	LCD_Send_Dat(0x03);     // 16 bit interface (565)
 3199              		.loc 1 531 2 view .LVU774
 3200 0170 F020     		movs	r0, #240
 3201 0172 FFF7FEFF 		bl	LCD_Send_Cmd
 3202              	.LVL366:
 532:Src/ssd1963_fsmc.c **** 							//10. Turn on the display 
 3203              		.loc 1 532 2 view .LVU775
 3204 0176 0320     		movs	r0, #3
 3205 0178 FFF7FEFF 		bl	LCD_Send_Dat
 3206              	.LVL367:
 534:Src/ssd1963_fsmc.c **** 	LCD_Send_Cmd(LCD_DISPLAY_ON);     // display on 
 3207              		.loc 1 534 4 view .LVU776
 3208 017c FF20     		movs	r0, #255
 3209 017e FFF7FEFF 		bl	LCD_Bright
 3210              	.LVL368:
 535:Src/ssd1963_fsmc.c **** }
 3211              		.loc 1 535 2 view .LVU777
 3212 0182 2920     		movs	r0, #41
 3213 0184 FFF7FEFF 		bl	LCD_Send_Cmd
 3214              	.LVL369:
 536:Src/ssd1963_fsmc.c **** 
 3215              		.loc 1 536 1 is_stmt 0 view .LVU778
 3216 0188 08BD     		pop	{r3, pc}
 3217              		.cfi_endproc
 3218              	.LFE149:
 3220              		.text
 3221              	.Letext0:
 3222              		.file 2 "e:\\gnu arm embedded toolchain\\10 2021.10\\arm-none-eabi\\include\\machine\\_default_typ
 3223              		.file 3 "e:\\gnu arm embedded toolchain\\10 2021.10\\arm-none-eabi\\include\\sys\\_stdint.h"
 3224              		.file 4 "Inc/ssd1963_fsmc.h"
 3225              		.file 5 "c:/Users/Black_Life/STM32Cube/Repository/STM32Cube_FW_F4_V1.26.2/Drivers/STM32F4xx_HAL_Dr
 3226              		.file 6 "e:\\gnu arm embedded toolchain\\10 2021.10\\arm-none-eabi\\include\\string.h"
ARM GAS  C:\Users\BLACK_~1\AppData\Local\Temp\ccMgrS3u.s 			page 79

