ARM GAS  /var/folders/k2/cd9bl_j17z77g23y6ffqb_400000gn/T//cc1RoL2B.s 			page 1


   1              		.cpu cortex-m4
   2              		.eabi_attribute 27, 1
   3              		.eabi_attribute 28, 1
   4              		.eabi_attribute 20, 1
   5              		.eabi_attribute 21, 1
   6              		.eabi_attribute 23, 3
   7              		.eabi_attribute 24, 1
   8              		.eabi_attribute 25, 1
   9              		.eabi_attribute 26, 1
  10              		.eabi_attribute 30, 1
  11              		.eabi_attribute 34, 1
  12              		.eabi_attribute 18, 4
  13              		.file	"stm32f4xx_hal_pcd_ex.c"
  14              		.text
  15              	.Ltext0:
  16              		.cfi_sections	.debug_frame
  17              		.section	.text.HAL_PCDEx_SetTxFiFo,"ax",%progbits
  18              		.align	1
  19              		.global	HAL_PCDEx_SetTxFiFo
  20              		.arch armv7e-m
  21              		.syntax unified
  22              		.thumb
  23              		.thumb_func
  24              		.fpu fpv4-sp-d16
  26              	HAL_PCDEx_SetTxFiFo:
  27              	.LVL0:
  28              	.LFB130:
  29              		.file 1 "/Users/nhantt/STM32Cube/Repository/STM32Cube_FW_F4_V1.26.0/Drivers/STM32F4xx_HAL_Driver/S
   1:/Users/nhantt/STM32Cube/Repository/STM32Cube_FW_F4_V1.26.0/Drivers/STM32F4xx_HAL_Driver/Src/stm32f4xx_hal_pcd_ex.c **** /**
   2:/Users/nhantt/STM32Cube/Repository/STM32Cube_FW_F4_V1.26.0/Drivers/STM32F4xx_HAL_Driver/Src/stm32f4xx_hal_pcd_ex.c ****   ******************************************************************************
   3:/Users/nhantt/STM32Cube/Repository/STM32Cube_FW_F4_V1.26.0/Drivers/STM32F4xx_HAL_Driver/Src/stm32f4xx_hal_pcd_ex.c ****   * @file    stm32f4xx_hal_pcd_ex.c
   4:/Users/nhantt/STM32Cube/Repository/STM32Cube_FW_F4_V1.26.0/Drivers/STM32F4xx_HAL_Driver/Src/stm32f4xx_hal_pcd_ex.c ****   * @author  MCD Application Team
   5:/Users/nhantt/STM32Cube/Repository/STM32Cube_FW_F4_V1.26.0/Drivers/STM32F4xx_HAL_Driver/Src/stm32f4xx_hal_pcd_ex.c ****   * @brief   PCD Extended HAL module driver.
   6:/Users/nhantt/STM32Cube/Repository/STM32Cube_FW_F4_V1.26.0/Drivers/STM32F4xx_HAL_Driver/Src/stm32f4xx_hal_pcd_ex.c ****   *          This file provides firmware functions to manage the following
   7:/Users/nhantt/STM32Cube/Repository/STM32Cube_FW_F4_V1.26.0/Drivers/STM32F4xx_HAL_Driver/Src/stm32f4xx_hal_pcd_ex.c ****   *          functionalities of the USB Peripheral Controller:
   8:/Users/nhantt/STM32Cube/Repository/STM32Cube_FW_F4_V1.26.0/Drivers/STM32F4xx_HAL_Driver/Src/stm32f4xx_hal_pcd_ex.c ****   *           + Extended features functions
   9:/Users/nhantt/STM32Cube/Repository/STM32Cube_FW_F4_V1.26.0/Drivers/STM32F4xx_HAL_Driver/Src/stm32f4xx_hal_pcd_ex.c ****   *
  10:/Users/nhantt/STM32Cube/Repository/STM32Cube_FW_F4_V1.26.0/Drivers/STM32F4xx_HAL_Driver/Src/stm32f4xx_hal_pcd_ex.c ****   ******************************************************************************
  11:/Users/nhantt/STM32Cube/Repository/STM32Cube_FW_F4_V1.26.0/Drivers/STM32F4xx_HAL_Driver/Src/stm32f4xx_hal_pcd_ex.c ****   * @attention
  12:/Users/nhantt/STM32Cube/Repository/STM32Cube_FW_F4_V1.26.0/Drivers/STM32F4xx_HAL_Driver/Src/stm32f4xx_hal_pcd_ex.c ****   *
  13:/Users/nhantt/STM32Cube/Repository/STM32Cube_FW_F4_V1.26.0/Drivers/STM32F4xx_HAL_Driver/Src/stm32f4xx_hal_pcd_ex.c ****   * <h2><center>&copy; Copyright (c) 2016 STMicroelectronics.
  14:/Users/nhantt/STM32Cube/Repository/STM32Cube_FW_F4_V1.26.0/Drivers/STM32F4xx_HAL_Driver/Src/stm32f4xx_hal_pcd_ex.c ****   * All rights reserved.</center></h2>
  15:/Users/nhantt/STM32Cube/Repository/STM32Cube_FW_F4_V1.26.0/Drivers/STM32F4xx_HAL_Driver/Src/stm32f4xx_hal_pcd_ex.c ****   *
  16:/Users/nhantt/STM32Cube/Repository/STM32Cube_FW_F4_V1.26.0/Drivers/STM32F4xx_HAL_Driver/Src/stm32f4xx_hal_pcd_ex.c ****   * This software component is licensed by ST under BSD 3-Clause license,
  17:/Users/nhantt/STM32Cube/Repository/STM32Cube_FW_F4_V1.26.0/Drivers/STM32F4xx_HAL_Driver/Src/stm32f4xx_hal_pcd_ex.c ****   * the "License"; You may not use this file except in compliance with the
  18:/Users/nhantt/STM32Cube/Repository/STM32Cube_FW_F4_V1.26.0/Drivers/STM32F4xx_HAL_Driver/Src/stm32f4xx_hal_pcd_ex.c ****   * License. You may obtain a copy of the License at:
  19:/Users/nhantt/STM32Cube/Repository/STM32Cube_FW_F4_V1.26.0/Drivers/STM32F4xx_HAL_Driver/Src/stm32f4xx_hal_pcd_ex.c ****   *                        opensource.org/licenses/BSD-3-Clause
  20:/Users/nhantt/STM32Cube/Repository/STM32Cube_FW_F4_V1.26.0/Drivers/STM32F4xx_HAL_Driver/Src/stm32f4xx_hal_pcd_ex.c ****   *
  21:/Users/nhantt/STM32Cube/Repository/STM32Cube_FW_F4_V1.26.0/Drivers/STM32F4xx_HAL_Driver/Src/stm32f4xx_hal_pcd_ex.c ****   ******************************************************************************
  22:/Users/nhantt/STM32Cube/Repository/STM32Cube_FW_F4_V1.26.0/Drivers/STM32F4xx_HAL_Driver/Src/stm32f4xx_hal_pcd_ex.c ****   */
  23:/Users/nhantt/STM32Cube/Repository/STM32Cube_FW_F4_V1.26.0/Drivers/STM32F4xx_HAL_Driver/Src/stm32f4xx_hal_pcd_ex.c **** 
  24:/Users/nhantt/STM32Cube/Repository/STM32Cube_FW_F4_V1.26.0/Drivers/STM32F4xx_HAL_Driver/Src/stm32f4xx_hal_pcd_ex.c **** /* Includes ------------------------------------------------------------------*/
  25:/Users/nhantt/STM32Cube/Repository/STM32Cube_FW_F4_V1.26.0/Drivers/STM32F4xx_HAL_Driver/Src/stm32f4xx_hal_pcd_ex.c **** #include "stm32f4xx_hal.h"
  26:/Users/nhantt/STM32Cube/Repository/STM32Cube_FW_F4_V1.26.0/Drivers/STM32F4xx_HAL_Driver/Src/stm32f4xx_hal_pcd_ex.c **** 
  27:/Users/nhantt/STM32Cube/Repository/STM32Cube_FW_F4_V1.26.0/Drivers/STM32F4xx_HAL_Driver/Src/stm32f4xx_hal_pcd_ex.c **** /** @addtogroup STM32F4xx_HAL_Driver
  28:/Users/nhantt/STM32Cube/Repository/STM32Cube_FW_F4_V1.26.0/Drivers/STM32F4xx_HAL_Driver/Src/stm32f4xx_hal_pcd_ex.c ****   * @{
  29:/Users/nhantt/STM32Cube/Repository/STM32Cube_FW_F4_V1.26.0/Drivers/STM32F4xx_HAL_Driver/Src/stm32f4xx_hal_pcd_ex.c ****   */
ARM GAS  /var/folders/k2/cd9bl_j17z77g23y6ffqb_400000gn/T//cc1RoL2B.s 			page 2


  30:/Users/nhantt/STM32Cube/Repository/STM32Cube_FW_F4_V1.26.0/Drivers/STM32F4xx_HAL_Driver/Src/stm32f4xx_hal_pcd_ex.c **** 
  31:/Users/nhantt/STM32Cube/Repository/STM32Cube_FW_F4_V1.26.0/Drivers/STM32F4xx_HAL_Driver/Src/stm32f4xx_hal_pcd_ex.c **** /** @defgroup PCDEx PCDEx
  32:/Users/nhantt/STM32Cube/Repository/STM32Cube_FW_F4_V1.26.0/Drivers/STM32F4xx_HAL_Driver/Src/stm32f4xx_hal_pcd_ex.c ****   * @brief PCD Extended HAL module driver
  33:/Users/nhantt/STM32Cube/Repository/STM32Cube_FW_F4_V1.26.0/Drivers/STM32F4xx_HAL_Driver/Src/stm32f4xx_hal_pcd_ex.c ****   * @{
  34:/Users/nhantt/STM32Cube/Repository/STM32Cube_FW_F4_V1.26.0/Drivers/STM32F4xx_HAL_Driver/Src/stm32f4xx_hal_pcd_ex.c ****   */
  35:/Users/nhantt/STM32Cube/Repository/STM32Cube_FW_F4_V1.26.0/Drivers/STM32F4xx_HAL_Driver/Src/stm32f4xx_hal_pcd_ex.c **** 
  36:/Users/nhantt/STM32Cube/Repository/STM32Cube_FW_F4_V1.26.0/Drivers/STM32F4xx_HAL_Driver/Src/stm32f4xx_hal_pcd_ex.c **** #ifdef HAL_PCD_MODULE_ENABLED
  37:/Users/nhantt/STM32Cube/Repository/STM32Cube_FW_F4_V1.26.0/Drivers/STM32F4xx_HAL_Driver/Src/stm32f4xx_hal_pcd_ex.c **** 
  38:/Users/nhantt/STM32Cube/Repository/STM32Cube_FW_F4_V1.26.0/Drivers/STM32F4xx_HAL_Driver/Src/stm32f4xx_hal_pcd_ex.c **** #if defined (USB_OTG_FS) || defined (USB_OTG_HS)
  39:/Users/nhantt/STM32Cube/Repository/STM32Cube_FW_F4_V1.26.0/Drivers/STM32F4xx_HAL_Driver/Src/stm32f4xx_hal_pcd_ex.c **** /* Private types -------------------------------------------------------------*/
  40:/Users/nhantt/STM32Cube/Repository/STM32Cube_FW_F4_V1.26.0/Drivers/STM32F4xx_HAL_Driver/Src/stm32f4xx_hal_pcd_ex.c **** /* Private variables ---------------------------------------------------------*/
  41:/Users/nhantt/STM32Cube/Repository/STM32Cube_FW_F4_V1.26.0/Drivers/STM32F4xx_HAL_Driver/Src/stm32f4xx_hal_pcd_ex.c **** /* Private constants ---------------------------------------------------------*/
  42:/Users/nhantt/STM32Cube/Repository/STM32Cube_FW_F4_V1.26.0/Drivers/STM32F4xx_HAL_Driver/Src/stm32f4xx_hal_pcd_ex.c **** /* Private macros ------------------------------------------------------------*/
  43:/Users/nhantt/STM32Cube/Repository/STM32Cube_FW_F4_V1.26.0/Drivers/STM32F4xx_HAL_Driver/Src/stm32f4xx_hal_pcd_ex.c **** /* Private functions ---------------------------------------------------------*/
  44:/Users/nhantt/STM32Cube/Repository/STM32Cube_FW_F4_V1.26.0/Drivers/STM32F4xx_HAL_Driver/Src/stm32f4xx_hal_pcd_ex.c **** /* Exported functions --------------------------------------------------------*/
  45:/Users/nhantt/STM32Cube/Repository/STM32Cube_FW_F4_V1.26.0/Drivers/STM32F4xx_HAL_Driver/Src/stm32f4xx_hal_pcd_ex.c **** 
  46:/Users/nhantt/STM32Cube/Repository/STM32Cube_FW_F4_V1.26.0/Drivers/STM32F4xx_HAL_Driver/Src/stm32f4xx_hal_pcd_ex.c **** /** @defgroup PCDEx_Exported_Functions PCDEx Exported Functions
  47:/Users/nhantt/STM32Cube/Repository/STM32Cube_FW_F4_V1.26.0/Drivers/STM32F4xx_HAL_Driver/Src/stm32f4xx_hal_pcd_ex.c ****   * @{
  48:/Users/nhantt/STM32Cube/Repository/STM32Cube_FW_F4_V1.26.0/Drivers/STM32F4xx_HAL_Driver/Src/stm32f4xx_hal_pcd_ex.c ****   */
  49:/Users/nhantt/STM32Cube/Repository/STM32Cube_FW_F4_V1.26.0/Drivers/STM32F4xx_HAL_Driver/Src/stm32f4xx_hal_pcd_ex.c **** 
  50:/Users/nhantt/STM32Cube/Repository/STM32Cube_FW_F4_V1.26.0/Drivers/STM32F4xx_HAL_Driver/Src/stm32f4xx_hal_pcd_ex.c **** /** @defgroup PCDEx_Exported_Functions_Group1 Peripheral Control functions
  51:/Users/nhantt/STM32Cube/Repository/STM32Cube_FW_F4_V1.26.0/Drivers/STM32F4xx_HAL_Driver/Src/stm32f4xx_hal_pcd_ex.c ****   * @brief    PCDEx control functions
  52:/Users/nhantt/STM32Cube/Repository/STM32Cube_FW_F4_V1.26.0/Drivers/STM32F4xx_HAL_Driver/Src/stm32f4xx_hal_pcd_ex.c ****   *
  53:/Users/nhantt/STM32Cube/Repository/STM32Cube_FW_F4_V1.26.0/Drivers/STM32F4xx_HAL_Driver/Src/stm32f4xx_hal_pcd_ex.c **** @verbatim
  54:/Users/nhantt/STM32Cube/Repository/STM32Cube_FW_F4_V1.26.0/Drivers/STM32F4xx_HAL_Driver/Src/stm32f4xx_hal_pcd_ex.c ****  ===============================================================================
  55:/Users/nhantt/STM32Cube/Repository/STM32Cube_FW_F4_V1.26.0/Drivers/STM32F4xx_HAL_Driver/Src/stm32f4xx_hal_pcd_ex.c ****                  ##### Extended features functions #####
  56:/Users/nhantt/STM32Cube/Repository/STM32Cube_FW_F4_V1.26.0/Drivers/STM32F4xx_HAL_Driver/Src/stm32f4xx_hal_pcd_ex.c ****  ===============================================================================
  57:/Users/nhantt/STM32Cube/Repository/STM32Cube_FW_F4_V1.26.0/Drivers/STM32F4xx_HAL_Driver/Src/stm32f4xx_hal_pcd_ex.c ****     [..]  This section provides functions allowing to:
  58:/Users/nhantt/STM32Cube/Repository/STM32Cube_FW_F4_V1.26.0/Drivers/STM32F4xx_HAL_Driver/Src/stm32f4xx_hal_pcd_ex.c ****       (+) Update FIFO configuration
  59:/Users/nhantt/STM32Cube/Repository/STM32Cube_FW_F4_V1.26.0/Drivers/STM32F4xx_HAL_Driver/Src/stm32f4xx_hal_pcd_ex.c **** 
  60:/Users/nhantt/STM32Cube/Repository/STM32Cube_FW_F4_V1.26.0/Drivers/STM32F4xx_HAL_Driver/Src/stm32f4xx_hal_pcd_ex.c **** @endverbatim
  61:/Users/nhantt/STM32Cube/Repository/STM32Cube_FW_F4_V1.26.0/Drivers/STM32F4xx_HAL_Driver/Src/stm32f4xx_hal_pcd_ex.c ****   * @{
  62:/Users/nhantt/STM32Cube/Repository/STM32Cube_FW_F4_V1.26.0/Drivers/STM32F4xx_HAL_Driver/Src/stm32f4xx_hal_pcd_ex.c ****   */
  63:/Users/nhantt/STM32Cube/Repository/STM32Cube_FW_F4_V1.26.0/Drivers/STM32F4xx_HAL_Driver/Src/stm32f4xx_hal_pcd_ex.c **** #if defined (USB_OTG_FS) || defined (USB_OTG_HS)
  64:/Users/nhantt/STM32Cube/Repository/STM32Cube_FW_F4_V1.26.0/Drivers/STM32F4xx_HAL_Driver/Src/stm32f4xx_hal_pcd_ex.c **** /**
  65:/Users/nhantt/STM32Cube/Repository/STM32Cube_FW_F4_V1.26.0/Drivers/STM32F4xx_HAL_Driver/Src/stm32f4xx_hal_pcd_ex.c ****   * @brief  Set Tx FIFO
  66:/Users/nhantt/STM32Cube/Repository/STM32Cube_FW_F4_V1.26.0/Drivers/STM32F4xx_HAL_Driver/Src/stm32f4xx_hal_pcd_ex.c ****   * @param  hpcd PCD handle
  67:/Users/nhantt/STM32Cube/Repository/STM32Cube_FW_F4_V1.26.0/Drivers/STM32F4xx_HAL_Driver/Src/stm32f4xx_hal_pcd_ex.c ****   * @param  fifo The number of Tx fifo
  68:/Users/nhantt/STM32Cube/Repository/STM32Cube_FW_F4_V1.26.0/Drivers/STM32F4xx_HAL_Driver/Src/stm32f4xx_hal_pcd_ex.c ****   * @param  size Fifo size
  69:/Users/nhantt/STM32Cube/Repository/STM32Cube_FW_F4_V1.26.0/Drivers/STM32F4xx_HAL_Driver/Src/stm32f4xx_hal_pcd_ex.c ****   * @retval HAL status
  70:/Users/nhantt/STM32Cube/Repository/STM32Cube_FW_F4_V1.26.0/Drivers/STM32F4xx_HAL_Driver/Src/stm32f4xx_hal_pcd_ex.c ****   */
  71:/Users/nhantt/STM32Cube/Repository/STM32Cube_FW_F4_V1.26.0/Drivers/STM32F4xx_HAL_Driver/Src/stm32f4xx_hal_pcd_ex.c **** HAL_StatusTypeDef HAL_PCDEx_SetTxFiFo(PCD_HandleTypeDef *hpcd, uint8_t fifo, uint16_t size)
  72:/Users/nhantt/STM32Cube/Repository/STM32Cube_FW_F4_V1.26.0/Drivers/STM32F4xx_HAL_Driver/Src/stm32f4xx_hal_pcd_ex.c **** {
  30              		.loc 1 72 1 view -0
  31              		.cfi_startproc
  32              		@ args = 0, pretend = 0, frame = 0
  33              		@ frame_needed = 0, uses_anonymous_args = 0
  34              		@ link register save eliminated.
  35              		.loc 1 72 1 is_stmt 0 view .LVU1
  36 0000 10B4     		push	{r4}
  37              	.LCFI0:
  38              		.cfi_def_cfa_offset 4
  39              		.cfi_offset 4, -4
  73:/Users/nhantt/STM32Cube/Repository/STM32Cube_FW_F4_V1.26.0/Drivers/STM32F4xx_HAL_Driver/Src/stm32f4xx_hal_pcd_ex.c ****   uint8_t i;
  40              		.loc 1 73 3 is_stmt 1 view .LVU2
  74:/Users/nhantt/STM32Cube/Repository/STM32Cube_FW_F4_V1.26.0/Drivers/STM32F4xx_HAL_Driver/Src/stm32f4xx_hal_pcd_ex.c ****   uint32_t Tx_Offset;
  41              		.loc 1 74 3 view .LVU3
ARM GAS  /var/folders/k2/cd9bl_j17z77g23y6ffqb_400000gn/T//cc1RoL2B.s 			page 3


  75:/Users/nhantt/STM32Cube/Repository/STM32Cube_FW_F4_V1.26.0/Drivers/STM32F4xx_HAL_Driver/Src/stm32f4xx_hal_pcd_ex.c **** 
  76:/Users/nhantt/STM32Cube/Repository/STM32Cube_FW_F4_V1.26.0/Drivers/STM32F4xx_HAL_Driver/Src/stm32f4xx_hal_pcd_ex.c ****   /*  TXn min size = 16 words. (n  : Transmit FIFO index)
  77:/Users/nhantt/STM32Cube/Repository/STM32Cube_FW_F4_V1.26.0/Drivers/STM32F4xx_HAL_Driver/Src/stm32f4xx_hal_pcd_ex.c ****       When a TxFIFO is not used, the Configuration should be as follows:
  78:/Users/nhantt/STM32Cube/Repository/STM32Cube_FW_F4_V1.26.0/Drivers/STM32F4xx_HAL_Driver/Src/stm32f4xx_hal_pcd_ex.c ****           case 1 :  n > m    and Txn is not used    (n,m  : Transmit FIFO indexes)
  79:/Users/nhantt/STM32Cube/Repository/STM32Cube_FW_F4_V1.26.0/Drivers/STM32F4xx_HAL_Driver/Src/stm32f4xx_hal_pcd_ex.c ****          --> Txm can use the space allocated for Txn.
  80:/Users/nhantt/STM32Cube/Repository/STM32Cube_FW_F4_V1.26.0/Drivers/STM32F4xx_HAL_Driver/Src/stm32f4xx_hal_pcd_ex.c ****          case2  :  n < m    and Txn is not used    (n,m  : Transmit FIFO indexes)
  81:/Users/nhantt/STM32Cube/Repository/STM32Cube_FW_F4_V1.26.0/Drivers/STM32F4xx_HAL_Driver/Src/stm32f4xx_hal_pcd_ex.c ****          --> Txn should be configured with the minimum space of 16 words
  82:/Users/nhantt/STM32Cube/Repository/STM32Cube_FW_F4_V1.26.0/Drivers/STM32F4xx_HAL_Driver/Src/stm32f4xx_hal_pcd_ex.c ****      The FIFO is used optimally when used TxFIFOs are allocated in the top
  83:/Users/nhantt/STM32Cube/Repository/STM32Cube_FW_F4_V1.26.0/Drivers/STM32F4xx_HAL_Driver/Src/stm32f4xx_hal_pcd_ex.c ****          of the FIFO.Ex: use EP1 and EP2 as IN instead of EP1 and EP3 as IN ones.
  84:/Users/nhantt/STM32Cube/Repository/STM32Cube_FW_F4_V1.26.0/Drivers/STM32F4xx_HAL_Driver/Src/stm32f4xx_hal_pcd_ex.c ****      When DMA is used 3n * FIFO locations should be reserved for internal DMA registers */
  85:/Users/nhantt/STM32Cube/Repository/STM32Cube_FW_F4_V1.26.0/Drivers/STM32F4xx_HAL_Driver/Src/stm32f4xx_hal_pcd_ex.c **** 
  86:/Users/nhantt/STM32Cube/Repository/STM32Cube_FW_F4_V1.26.0/Drivers/STM32F4xx_HAL_Driver/Src/stm32f4xx_hal_pcd_ex.c ****   Tx_Offset = hpcd->Instance->GRXFSIZ;
  42              		.loc 1 86 3 view .LVU4
  43              		.loc 1 86 19 is_stmt 0 view .LVU5
  44 0002 0468     		ldr	r4, [r0]
  45              		.loc 1 86 13 view .LVU6
  46 0004 606A     		ldr	r0, [r4, #36]
  47              	.LVL1:
  87:/Users/nhantt/STM32Cube/Repository/STM32Cube_FW_F4_V1.26.0/Drivers/STM32F4xx_HAL_Driver/Src/stm32f4xx_hal_pcd_ex.c **** 
  88:/Users/nhantt/STM32Cube/Repository/STM32Cube_FW_F4_V1.26.0/Drivers/STM32F4xx_HAL_Driver/Src/stm32f4xx_hal_pcd_ex.c ****   if (fifo == 0U)
  48              		.loc 1 88 3 is_stmt 1 view .LVU7
  49              		.loc 1 88 6 is_stmt 0 view .LVU8
  50 0006 31B9     		cbnz	r1, .L2
  89:/Users/nhantt/STM32Cube/Repository/STM32Cube_FW_F4_V1.26.0/Drivers/STM32F4xx_HAL_Driver/Src/stm32f4xx_hal_pcd_ex.c ****   {
  90:/Users/nhantt/STM32Cube/Repository/STM32Cube_FW_F4_V1.26.0/Drivers/STM32F4xx_HAL_Driver/Src/stm32f4xx_hal_pcd_ex.c ****     hpcd->Instance->DIEPTXF0_HNPTXFSIZ = ((uint32_t)size << 16) | Tx_Offset;
  51              		.loc 1 90 5 is_stmt 1 view .LVU9
  52              		.loc 1 90 65 is_stmt 0 view .LVU10
  53 0008 40EA0240 		orr	r0, r0, r2, lsl #16
  54              	.LVL2:
  55              		.loc 1 90 40 view .LVU11
  56 000c A062     		str	r0, [r4, #40]
  57              	.LVL3:
  58              	.L3:
  91:/Users/nhantt/STM32Cube/Repository/STM32Cube_FW_F4_V1.26.0/Drivers/STM32F4xx_HAL_Driver/Src/stm32f4xx_hal_pcd_ex.c ****   }
  92:/Users/nhantt/STM32Cube/Repository/STM32Cube_FW_F4_V1.26.0/Drivers/STM32F4xx_HAL_Driver/Src/stm32f4xx_hal_pcd_ex.c ****   else
  93:/Users/nhantt/STM32Cube/Repository/STM32Cube_FW_F4_V1.26.0/Drivers/STM32F4xx_HAL_Driver/Src/stm32f4xx_hal_pcd_ex.c ****   {
  94:/Users/nhantt/STM32Cube/Repository/STM32Cube_FW_F4_V1.26.0/Drivers/STM32F4xx_HAL_Driver/Src/stm32f4xx_hal_pcd_ex.c ****     Tx_Offset += (hpcd->Instance->DIEPTXF0_HNPTXFSIZ) >> 16;
  95:/Users/nhantt/STM32Cube/Repository/STM32Cube_FW_F4_V1.26.0/Drivers/STM32F4xx_HAL_Driver/Src/stm32f4xx_hal_pcd_ex.c ****     for (i = 0U; i < (fifo - 1U); i++)
  96:/Users/nhantt/STM32Cube/Repository/STM32Cube_FW_F4_V1.26.0/Drivers/STM32F4xx_HAL_Driver/Src/stm32f4xx_hal_pcd_ex.c ****     {
  97:/Users/nhantt/STM32Cube/Repository/STM32Cube_FW_F4_V1.26.0/Drivers/STM32F4xx_HAL_Driver/Src/stm32f4xx_hal_pcd_ex.c ****       Tx_Offset += (hpcd->Instance->DIEPTXF[i] >> 16);
  98:/Users/nhantt/STM32Cube/Repository/STM32Cube_FW_F4_V1.26.0/Drivers/STM32F4xx_HAL_Driver/Src/stm32f4xx_hal_pcd_ex.c ****     }
  99:/Users/nhantt/STM32Cube/Repository/STM32Cube_FW_F4_V1.26.0/Drivers/STM32F4xx_HAL_Driver/Src/stm32f4xx_hal_pcd_ex.c **** 
 100:/Users/nhantt/STM32Cube/Repository/STM32Cube_FW_F4_V1.26.0/Drivers/STM32F4xx_HAL_Driver/Src/stm32f4xx_hal_pcd_ex.c ****     /* Multiply Tx_Size by 2 to get higher performance */
 101:/Users/nhantt/STM32Cube/Repository/STM32Cube_FW_F4_V1.26.0/Drivers/STM32F4xx_HAL_Driver/Src/stm32f4xx_hal_pcd_ex.c ****     hpcd->Instance->DIEPTXF[fifo - 1U] = ((uint32_t)size << 16) | Tx_Offset;
 102:/Users/nhantt/STM32Cube/Repository/STM32Cube_FW_F4_V1.26.0/Drivers/STM32F4xx_HAL_Driver/Src/stm32f4xx_hal_pcd_ex.c ****   }
 103:/Users/nhantt/STM32Cube/Repository/STM32Cube_FW_F4_V1.26.0/Drivers/STM32F4xx_HAL_Driver/Src/stm32f4xx_hal_pcd_ex.c **** 
 104:/Users/nhantt/STM32Cube/Repository/STM32Cube_FW_F4_V1.26.0/Drivers/STM32F4xx_HAL_Driver/Src/stm32f4xx_hal_pcd_ex.c ****   return HAL_OK;
  59              		.loc 1 104 3 is_stmt 1 view .LVU12
 105:/Users/nhantt/STM32Cube/Repository/STM32Cube_FW_F4_V1.26.0/Drivers/STM32F4xx_HAL_Driver/Src/stm32f4xx_hal_pcd_ex.c **** }
  60              		.loc 1 105 1 is_stmt 0 view .LVU13
  61 000e 0020     		movs	r0, #0
  62 0010 5DF8044B 		ldr	r4, [sp], #4
  63              	.LCFI1:
  64              		.cfi_remember_state
  65              		.cfi_restore 4
  66              		.cfi_def_cfa_offset 0
  67 0014 7047     		bx	lr
ARM GAS  /var/folders/k2/cd9bl_j17z77g23y6ffqb_400000gn/T//cc1RoL2B.s 			page 4


  68              	.LVL4:
  69              	.L2:
  70              	.LCFI2:
  71              		.cfi_restore_state
  72              		.loc 1 105 1 view .LVU14
  73 0016 8C46     		mov	ip, r1
  94:/Users/nhantt/STM32Cube/Repository/STM32Cube_FW_F4_V1.26.0/Drivers/STM32F4xx_HAL_Driver/Src/stm32f4xx_hal_pcd_ex.c ****     for (i = 0U; i < (fifo - 1U); i++)
  74              		.loc 1 94 5 is_stmt 1 view .LVU15
  94:/Users/nhantt/STM32Cube/Repository/STM32Cube_FW_F4_V1.26.0/Drivers/STM32F4xx_HAL_Driver/Src/stm32f4xx_hal_pcd_ex.c ****     for (i = 0U; i < (fifo - 1U); i++)
  75              		.loc 1 94 33 is_stmt 0 view .LVU16
  76 0018 A36A     		ldr	r3, [r4, #40]
  94:/Users/nhantt/STM32Cube/Repository/STM32Cube_FW_F4_V1.26.0/Drivers/STM32F4xx_HAL_Driver/Src/stm32f4xx_hal_pcd_ex.c ****     for (i = 0U; i < (fifo - 1U); i++)
  77              		.loc 1 94 15 view .LVU17
  78 001a 00EB1340 		add	r0, r0, r3, lsr #16
  79              	.LVL5:
  95:/Users/nhantt/STM32Cube/Repository/STM32Cube_FW_F4_V1.26.0/Drivers/STM32F4xx_HAL_Driver/Src/stm32f4xx_hal_pcd_ex.c ****     {
  80              		.loc 1 95 5 is_stmt 1 view .LVU18
  95:/Users/nhantt/STM32Cube/Repository/STM32Cube_FW_F4_V1.26.0/Drivers/STM32F4xx_HAL_Driver/Src/stm32f4xx_hal_pcd_ex.c ****     {
  81              		.loc 1 95 12 is_stmt 0 view .LVU19
  82 001e 0023     		movs	r3, #0
  95:/Users/nhantt/STM32Cube/Repository/STM32Cube_FW_F4_V1.26.0/Drivers/STM32F4xx_HAL_Driver/Src/stm32f4xx_hal_pcd_ex.c ****     {
  83              		.loc 1 95 5 view .LVU20
  84 0020 08E0     		b	.L4
  85              	.LVL6:
  86              	.L5:
  97:/Users/nhantt/STM32Cube/Repository/STM32Cube_FW_F4_V1.26.0/Drivers/STM32F4xx_HAL_Driver/Src/stm32f4xx_hal_pcd_ex.c ****     }
  87              		.loc 1 97 7 is_stmt 1 discriminator 3 view .LVU21
  97:/Users/nhantt/STM32Cube/Repository/STM32Cube_FW_F4_V1.26.0/Drivers/STM32F4xx_HAL_Driver/Src/stm32f4xx_hal_pcd_ex.c ****     }
  88              		.loc 1 97 44 is_stmt 0 discriminator 3 view .LVU22
  89 0022 03F14001 		add	r1, r3, #64
  90 0026 04EB8101 		add	r1, r4, r1, lsl #2
  91 002a 4968     		ldr	r1, [r1, #4]
  97:/Users/nhantt/STM32Cube/Repository/STM32Cube_FW_F4_V1.26.0/Drivers/STM32F4xx_HAL_Driver/Src/stm32f4xx_hal_pcd_ex.c ****     }
  92              		.loc 1 97 17 discriminator 3 view .LVU23
  93 002c 00EB1140 		add	r0, r0, r1, lsr #16
  94              	.LVL7:
  95:/Users/nhantt/STM32Cube/Repository/STM32Cube_FW_F4_V1.26.0/Drivers/STM32F4xx_HAL_Driver/Src/stm32f4xx_hal_pcd_ex.c ****     {
  95              		.loc 1 95 35 is_stmt 1 discriminator 3 view .LVU24
  95:/Users/nhantt/STM32Cube/Repository/STM32Cube_FW_F4_V1.26.0/Drivers/STM32F4xx_HAL_Driver/Src/stm32f4xx_hal_pcd_ex.c ****     {
  96              		.loc 1 95 36 is_stmt 0 discriminator 3 view .LVU25
  97 0030 0133     		adds	r3, r3, #1
  98              	.LVL8:
  95:/Users/nhantt/STM32Cube/Repository/STM32Cube_FW_F4_V1.26.0/Drivers/STM32F4xx_HAL_Driver/Src/stm32f4xx_hal_pcd_ex.c ****     {
  99              		.loc 1 95 36 discriminator 3 view .LVU26
 100 0032 DBB2     		uxtb	r3, r3
 101              	.LVL9:
 102              	.L4:
  95:/Users/nhantt/STM32Cube/Repository/STM32Cube_FW_F4_V1.26.0/Drivers/STM32F4xx_HAL_Driver/Src/stm32f4xx_hal_pcd_ex.c ****     {
 103              		.loc 1 95 18 is_stmt 1 discriminator 1 view .LVU27
  95:/Users/nhantt/STM32Cube/Repository/STM32Cube_FW_F4_V1.26.0/Drivers/STM32F4xx_HAL_Driver/Src/stm32f4xx_hal_pcd_ex.c ****     {
 104              		.loc 1 95 28 is_stmt 0 discriminator 1 view .LVU28
 105 0034 0CF1FF31 		add	r1, ip, #-1
  95:/Users/nhantt/STM32Cube/Repository/STM32Cube_FW_F4_V1.26.0/Drivers/STM32F4xx_HAL_Driver/Src/stm32f4xx_hal_pcd_ex.c ****     {
 106              		.loc 1 95 5 discriminator 1 view .LVU29
 107 0038 8B42     		cmp	r3, r1
 108 003a F2D3     		bcc	.L5
 101:/Users/nhantt/STM32Cube/Repository/STM32Cube_FW_F4_V1.26.0/Drivers/STM32F4xx_HAL_Driver/Src/stm32f4xx_hal_pcd_ex.c ****   }
ARM GAS  /var/folders/k2/cd9bl_j17z77g23y6ffqb_400000gn/T//cc1RoL2B.s 			page 5


 109              		.loc 1 101 5 is_stmt 1 view .LVU30
 101:/Users/nhantt/STM32Cube/Repository/STM32Cube_FW_F4_V1.26.0/Drivers/STM32F4xx_HAL_Driver/Src/stm32f4xx_hal_pcd_ex.c ****   }
 110              		.loc 1 101 65 is_stmt 0 view .LVU31
 111 003c 40EA0240 		orr	r0, r0, r2, lsl #16
 112              	.LVL10:
 101:/Users/nhantt/STM32Cube/Repository/STM32Cube_FW_F4_V1.26.0/Drivers/STM32F4xx_HAL_Driver/Src/stm32f4xx_hal_pcd_ex.c ****   }
 113              		.loc 1 101 40 view .LVU32
 114 0040 0CF13F01 		add	r1, ip, #63
 115 0044 04EB8101 		add	r1, r4, r1, lsl #2
 116 0048 4860     		str	r0, [r1, #4]
 117 004a E0E7     		b	.L3
 118              		.cfi_endproc
 119              	.LFE130:
 121              		.section	.text.HAL_PCDEx_SetRxFiFo,"ax",%progbits
 122              		.align	1
 123              		.global	HAL_PCDEx_SetRxFiFo
 124              		.syntax unified
 125              		.thumb
 126              		.thumb_func
 127              		.fpu fpv4-sp-d16
 129              	HAL_PCDEx_SetRxFiFo:
 130              	.LVL11:
 131              	.LFB131:
 106:/Users/nhantt/STM32Cube/Repository/STM32Cube_FW_F4_V1.26.0/Drivers/STM32F4xx_HAL_Driver/Src/stm32f4xx_hal_pcd_ex.c **** 
 107:/Users/nhantt/STM32Cube/Repository/STM32Cube_FW_F4_V1.26.0/Drivers/STM32F4xx_HAL_Driver/Src/stm32f4xx_hal_pcd_ex.c **** /**
 108:/Users/nhantt/STM32Cube/Repository/STM32Cube_FW_F4_V1.26.0/Drivers/STM32F4xx_HAL_Driver/Src/stm32f4xx_hal_pcd_ex.c ****   * @brief  Set Rx FIFO
 109:/Users/nhantt/STM32Cube/Repository/STM32Cube_FW_F4_V1.26.0/Drivers/STM32F4xx_HAL_Driver/Src/stm32f4xx_hal_pcd_ex.c ****   * @param  hpcd PCD handle
 110:/Users/nhantt/STM32Cube/Repository/STM32Cube_FW_F4_V1.26.0/Drivers/STM32F4xx_HAL_Driver/Src/stm32f4xx_hal_pcd_ex.c ****   * @param  size Size of Rx fifo
 111:/Users/nhantt/STM32Cube/Repository/STM32Cube_FW_F4_V1.26.0/Drivers/STM32F4xx_HAL_Driver/Src/stm32f4xx_hal_pcd_ex.c ****   * @retval HAL status
 112:/Users/nhantt/STM32Cube/Repository/STM32Cube_FW_F4_V1.26.0/Drivers/STM32F4xx_HAL_Driver/Src/stm32f4xx_hal_pcd_ex.c ****   */
 113:/Users/nhantt/STM32Cube/Repository/STM32Cube_FW_F4_V1.26.0/Drivers/STM32F4xx_HAL_Driver/Src/stm32f4xx_hal_pcd_ex.c **** HAL_StatusTypeDef HAL_PCDEx_SetRxFiFo(PCD_HandleTypeDef *hpcd, uint16_t size)
 114:/Users/nhantt/STM32Cube/Repository/STM32Cube_FW_F4_V1.26.0/Drivers/STM32F4xx_HAL_Driver/Src/stm32f4xx_hal_pcd_ex.c **** {
 132              		.loc 1 114 1 is_stmt 1 view -0
 133              		.cfi_startproc
 134              		@ args = 0, pretend = 0, frame = 0
 135              		@ frame_needed = 0, uses_anonymous_args = 0
 136              		@ link register save eliminated.
 115:/Users/nhantt/STM32Cube/Repository/STM32Cube_FW_F4_V1.26.0/Drivers/STM32F4xx_HAL_Driver/Src/stm32f4xx_hal_pcd_ex.c ****   hpcd->Instance->GRXFSIZ = size;
 137              		.loc 1 115 3 view .LVU34
 138              		.loc 1 115 7 is_stmt 0 view .LVU35
 139 0000 0368     		ldr	r3, [r0]
 140              		.loc 1 115 27 view .LVU36
 141 0002 5962     		str	r1, [r3, #36]
 116:/Users/nhantt/STM32Cube/Repository/STM32Cube_FW_F4_V1.26.0/Drivers/STM32F4xx_HAL_Driver/Src/stm32f4xx_hal_pcd_ex.c **** 
 117:/Users/nhantt/STM32Cube/Repository/STM32Cube_FW_F4_V1.26.0/Drivers/STM32F4xx_HAL_Driver/Src/stm32f4xx_hal_pcd_ex.c ****   return HAL_OK;
 142              		.loc 1 117 3 is_stmt 1 view .LVU37
 118:/Users/nhantt/STM32Cube/Repository/STM32Cube_FW_F4_V1.26.0/Drivers/STM32F4xx_HAL_Driver/Src/stm32f4xx_hal_pcd_ex.c **** }
 143              		.loc 1 118 1 is_stmt 0 view .LVU38
 144 0004 0020     		movs	r0, #0
 145              	.LVL12:
 146              		.loc 1 118 1 view .LVU39
 147 0006 7047     		bx	lr
 148              		.cfi_endproc
 149              	.LFE131:
 151              		.section	.text.HAL_PCDEx_LPM_Callback,"ax",%progbits
 152              		.align	1
 153              		.weak	HAL_PCDEx_LPM_Callback
ARM GAS  /var/folders/k2/cd9bl_j17z77g23y6ffqb_400000gn/T//cc1RoL2B.s 			page 6


 154              		.syntax unified
 155              		.thumb
 156              		.thumb_func
 157              		.fpu fpv4-sp-d16
 159              	HAL_PCDEx_LPM_Callback:
 160              	.LVL13:
 161              	.LFB132:
 119:/Users/nhantt/STM32Cube/Repository/STM32Cube_FW_F4_V1.26.0/Drivers/STM32F4xx_HAL_Driver/Src/stm32f4xx_hal_pcd_ex.c **** #if defined(STM32F446xx) || defined(STM32F469xx) || defined(STM32F479xx) || defined(STM32F412Zx) ||
 120:/Users/nhantt/STM32Cube/Repository/STM32Cube_FW_F4_V1.26.0/Drivers/STM32F4xx_HAL_Driver/Src/stm32f4xx_hal_pcd_ex.c **** /**
 121:/Users/nhantt/STM32Cube/Repository/STM32Cube_FW_F4_V1.26.0/Drivers/STM32F4xx_HAL_Driver/Src/stm32f4xx_hal_pcd_ex.c ****   * @brief  Activate LPM feature.
 122:/Users/nhantt/STM32Cube/Repository/STM32Cube_FW_F4_V1.26.0/Drivers/STM32F4xx_HAL_Driver/Src/stm32f4xx_hal_pcd_ex.c ****   * @param  hpcd PCD handle
 123:/Users/nhantt/STM32Cube/Repository/STM32Cube_FW_F4_V1.26.0/Drivers/STM32F4xx_HAL_Driver/Src/stm32f4xx_hal_pcd_ex.c ****   * @retval HAL status
 124:/Users/nhantt/STM32Cube/Repository/STM32Cube_FW_F4_V1.26.0/Drivers/STM32F4xx_HAL_Driver/Src/stm32f4xx_hal_pcd_ex.c ****   */
 125:/Users/nhantt/STM32Cube/Repository/STM32Cube_FW_F4_V1.26.0/Drivers/STM32F4xx_HAL_Driver/Src/stm32f4xx_hal_pcd_ex.c **** HAL_StatusTypeDef HAL_PCDEx_ActivateLPM(PCD_HandleTypeDef *hpcd)
 126:/Users/nhantt/STM32Cube/Repository/STM32Cube_FW_F4_V1.26.0/Drivers/STM32F4xx_HAL_Driver/Src/stm32f4xx_hal_pcd_ex.c **** {
 127:/Users/nhantt/STM32Cube/Repository/STM32Cube_FW_F4_V1.26.0/Drivers/STM32F4xx_HAL_Driver/Src/stm32f4xx_hal_pcd_ex.c ****   USB_OTG_GlobalTypeDef *USBx = hpcd->Instance;
 128:/Users/nhantt/STM32Cube/Repository/STM32Cube_FW_F4_V1.26.0/Drivers/STM32F4xx_HAL_Driver/Src/stm32f4xx_hal_pcd_ex.c **** 
 129:/Users/nhantt/STM32Cube/Repository/STM32Cube_FW_F4_V1.26.0/Drivers/STM32F4xx_HAL_Driver/Src/stm32f4xx_hal_pcd_ex.c ****   hpcd->lpm_active = 1U;
 130:/Users/nhantt/STM32Cube/Repository/STM32Cube_FW_F4_V1.26.0/Drivers/STM32F4xx_HAL_Driver/Src/stm32f4xx_hal_pcd_ex.c ****   hpcd->LPM_State = LPM_L0;
 131:/Users/nhantt/STM32Cube/Repository/STM32Cube_FW_F4_V1.26.0/Drivers/STM32F4xx_HAL_Driver/Src/stm32f4xx_hal_pcd_ex.c ****   USBx->GINTMSK |= USB_OTG_GINTMSK_LPMINTM;
 132:/Users/nhantt/STM32Cube/Repository/STM32Cube_FW_F4_V1.26.0/Drivers/STM32F4xx_HAL_Driver/Src/stm32f4xx_hal_pcd_ex.c ****   USBx->GLPMCFG |= (USB_OTG_GLPMCFG_LPMEN | USB_OTG_GLPMCFG_LPMACK | USB_OTG_GLPMCFG_ENBESL);
 133:/Users/nhantt/STM32Cube/Repository/STM32Cube_FW_F4_V1.26.0/Drivers/STM32F4xx_HAL_Driver/Src/stm32f4xx_hal_pcd_ex.c **** 
 134:/Users/nhantt/STM32Cube/Repository/STM32Cube_FW_F4_V1.26.0/Drivers/STM32F4xx_HAL_Driver/Src/stm32f4xx_hal_pcd_ex.c ****   return HAL_OK;
 135:/Users/nhantt/STM32Cube/Repository/STM32Cube_FW_F4_V1.26.0/Drivers/STM32F4xx_HAL_Driver/Src/stm32f4xx_hal_pcd_ex.c **** }
 136:/Users/nhantt/STM32Cube/Repository/STM32Cube_FW_F4_V1.26.0/Drivers/STM32F4xx_HAL_Driver/Src/stm32f4xx_hal_pcd_ex.c **** 
 137:/Users/nhantt/STM32Cube/Repository/STM32Cube_FW_F4_V1.26.0/Drivers/STM32F4xx_HAL_Driver/Src/stm32f4xx_hal_pcd_ex.c **** /**
 138:/Users/nhantt/STM32Cube/Repository/STM32Cube_FW_F4_V1.26.0/Drivers/STM32F4xx_HAL_Driver/Src/stm32f4xx_hal_pcd_ex.c ****   * @brief  Deactivate LPM feature.
 139:/Users/nhantt/STM32Cube/Repository/STM32Cube_FW_F4_V1.26.0/Drivers/STM32F4xx_HAL_Driver/Src/stm32f4xx_hal_pcd_ex.c ****   * @param  hpcd PCD handle
 140:/Users/nhantt/STM32Cube/Repository/STM32Cube_FW_F4_V1.26.0/Drivers/STM32F4xx_HAL_Driver/Src/stm32f4xx_hal_pcd_ex.c ****   * @retval HAL status
 141:/Users/nhantt/STM32Cube/Repository/STM32Cube_FW_F4_V1.26.0/Drivers/STM32F4xx_HAL_Driver/Src/stm32f4xx_hal_pcd_ex.c ****   */
 142:/Users/nhantt/STM32Cube/Repository/STM32Cube_FW_F4_V1.26.0/Drivers/STM32F4xx_HAL_Driver/Src/stm32f4xx_hal_pcd_ex.c **** HAL_StatusTypeDef HAL_PCDEx_DeActivateLPM(PCD_HandleTypeDef *hpcd)
 143:/Users/nhantt/STM32Cube/Repository/STM32Cube_FW_F4_V1.26.0/Drivers/STM32F4xx_HAL_Driver/Src/stm32f4xx_hal_pcd_ex.c **** {
 144:/Users/nhantt/STM32Cube/Repository/STM32Cube_FW_F4_V1.26.0/Drivers/STM32F4xx_HAL_Driver/Src/stm32f4xx_hal_pcd_ex.c ****   USB_OTG_GlobalTypeDef *USBx = hpcd->Instance;
 145:/Users/nhantt/STM32Cube/Repository/STM32Cube_FW_F4_V1.26.0/Drivers/STM32F4xx_HAL_Driver/Src/stm32f4xx_hal_pcd_ex.c **** 
 146:/Users/nhantt/STM32Cube/Repository/STM32Cube_FW_F4_V1.26.0/Drivers/STM32F4xx_HAL_Driver/Src/stm32f4xx_hal_pcd_ex.c ****   hpcd->lpm_active = 0U;
 147:/Users/nhantt/STM32Cube/Repository/STM32Cube_FW_F4_V1.26.0/Drivers/STM32F4xx_HAL_Driver/Src/stm32f4xx_hal_pcd_ex.c ****   USBx->GINTMSK &= ~USB_OTG_GINTMSK_LPMINTM;
 148:/Users/nhantt/STM32Cube/Repository/STM32Cube_FW_F4_V1.26.0/Drivers/STM32F4xx_HAL_Driver/Src/stm32f4xx_hal_pcd_ex.c ****   USBx->GLPMCFG &= ~(USB_OTG_GLPMCFG_LPMEN | USB_OTG_GLPMCFG_LPMACK | USB_OTG_GLPMCFG_ENBESL);
 149:/Users/nhantt/STM32Cube/Repository/STM32Cube_FW_F4_V1.26.0/Drivers/STM32F4xx_HAL_Driver/Src/stm32f4xx_hal_pcd_ex.c **** 
 150:/Users/nhantt/STM32Cube/Repository/STM32Cube_FW_F4_V1.26.0/Drivers/STM32F4xx_HAL_Driver/Src/stm32f4xx_hal_pcd_ex.c ****   return HAL_OK;
 151:/Users/nhantt/STM32Cube/Repository/STM32Cube_FW_F4_V1.26.0/Drivers/STM32F4xx_HAL_Driver/Src/stm32f4xx_hal_pcd_ex.c **** }
 152:/Users/nhantt/STM32Cube/Repository/STM32Cube_FW_F4_V1.26.0/Drivers/STM32F4xx_HAL_Driver/Src/stm32f4xx_hal_pcd_ex.c **** #endif /* defined(STM32F446xx) || defined(STM32F469xx) || defined(STM32F479xx) || defined(STM32F412
 153:/Users/nhantt/STM32Cube/Repository/STM32Cube_FW_F4_V1.26.0/Drivers/STM32F4xx_HAL_Driver/Src/stm32f4xx_hal_pcd_ex.c **** #if defined(STM32F412Zx) || defined(STM32F412Vx) || defined(STM32F412Rx) || defined(STM32F412Cx) ||
 154:/Users/nhantt/STM32Cube/Repository/STM32Cube_FW_F4_V1.26.0/Drivers/STM32F4xx_HAL_Driver/Src/stm32f4xx_hal_pcd_ex.c **** /**
 155:/Users/nhantt/STM32Cube/Repository/STM32Cube_FW_F4_V1.26.0/Drivers/STM32F4xx_HAL_Driver/Src/stm32f4xx_hal_pcd_ex.c ****   * @brief  Handle BatteryCharging Process.
 156:/Users/nhantt/STM32Cube/Repository/STM32Cube_FW_F4_V1.26.0/Drivers/STM32F4xx_HAL_Driver/Src/stm32f4xx_hal_pcd_ex.c ****   * @param  hpcd PCD handle
 157:/Users/nhantt/STM32Cube/Repository/STM32Cube_FW_F4_V1.26.0/Drivers/STM32F4xx_HAL_Driver/Src/stm32f4xx_hal_pcd_ex.c ****   * @retval HAL status
 158:/Users/nhantt/STM32Cube/Repository/STM32Cube_FW_F4_V1.26.0/Drivers/STM32F4xx_HAL_Driver/Src/stm32f4xx_hal_pcd_ex.c ****   */
 159:/Users/nhantt/STM32Cube/Repository/STM32Cube_FW_F4_V1.26.0/Drivers/STM32F4xx_HAL_Driver/Src/stm32f4xx_hal_pcd_ex.c **** void HAL_PCDEx_BCD_VBUSDetect(PCD_HandleTypeDef *hpcd)
 160:/Users/nhantt/STM32Cube/Repository/STM32Cube_FW_F4_V1.26.0/Drivers/STM32F4xx_HAL_Driver/Src/stm32f4xx_hal_pcd_ex.c **** {
 161:/Users/nhantt/STM32Cube/Repository/STM32Cube_FW_F4_V1.26.0/Drivers/STM32F4xx_HAL_Driver/Src/stm32f4xx_hal_pcd_ex.c ****   USB_OTG_GlobalTypeDef *USBx = hpcd->Instance;
 162:/Users/nhantt/STM32Cube/Repository/STM32Cube_FW_F4_V1.26.0/Drivers/STM32F4xx_HAL_Driver/Src/stm32f4xx_hal_pcd_ex.c ****   uint32_t tickstart = HAL_GetTick();
 163:/Users/nhantt/STM32Cube/Repository/STM32Cube_FW_F4_V1.26.0/Drivers/STM32F4xx_HAL_Driver/Src/stm32f4xx_hal_pcd_ex.c **** 
 164:/Users/nhantt/STM32Cube/Repository/STM32Cube_FW_F4_V1.26.0/Drivers/STM32F4xx_HAL_Driver/Src/stm32f4xx_hal_pcd_ex.c ****   /* Enable DCD : Data Contact Detect */
 165:/Users/nhantt/STM32Cube/Repository/STM32Cube_FW_F4_V1.26.0/Drivers/STM32F4xx_HAL_Driver/Src/stm32f4xx_hal_pcd_ex.c ****   USBx->GCCFG |= USB_OTG_GCCFG_DCDEN;
 166:/Users/nhantt/STM32Cube/Repository/STM32Cube_FW_F4_V1.26.0/Drivers/STM32F4xx_HAL_Driver/Src/stm32f4xx_hal_pcd_ex.c **** 
 167:/Users/nhantt/STM32Cube/Repository/STM32Cube_FW_F4_V1.26.0/Drivers/STM32F4xx_HAL_Driver/Src/stm32f4xx_hal_pcd_ex.c ****   /* Wait Detect flag or a timeout is happen*/
 168:/Users/nhantt/STM32Cube/Repository/STM32Cube_FW_F4_V1.26.0/Drivers/STM32F4xx_HAL_Driver/Src/stm32f4xx_hal_pcd_ex.c ****   while ((USBx->GCCFG & USB_OTG_GCCFG_DCDET) == 0U)
ARM GAS  /var/folders/k2/cd9bl_j17z77g23y6ffqb_400000gn/T//cc1RoL2B.s 			page 7


 169:/Users/nhantt/STM32Cube/Repository/STM32Cube_FW_F4_V1.26.0/Drivers/STM32F4xx_HAL_Driver/Src/stm32f4xx_hal_pcd_ex.c ****   {
 170:/Users/nhantt/STM32Cube/Repository/STM32Cube_FW_F4_V1.26.0/Drivers/STM32F4xx_HAL_Driver/Src/stm32f4xx_hal_pcd_ex.c ****     /* Check for the Timeout */
 171:/Users/nhantt/STM32Cube/Repository/STM32Cube_FW_F4_V1.26.0/Drivers/STM32F4xx_HAL_Driver/Src/stm32f4xx_hal_pcd_ex.c ****     if ((HAL_GetTick() - tickstart) > 1000U)
 172:/Users/nhantt/STM32Cube/Repository/STM32Cube_FW_F4_V1.26.0/Drivers/STM32F4xx_HAL_Driver/Src/stm32f4xx_hal_pcd_ex.c ****     {
 173:/Users/nhantt/STM32Cube/Repository/STM32Cube_FW_F4_V1.26.0/Drivers/STM32F4xx_HAL_Driver/Src/stm32f4xx_hal_pcd_ex.c **** #if (USE_HAL_PCD_REGISTER_CALLBACKS == 1U)
 174:/Users/nhantt/STM32Cube/Repository/STM32Cube_FW_F4_V1.26.0/Drivers/STM32F4xx_HAL_Driver/Src/stm32f4xx_hal_pcd_ex.c ****       hpcd->BCDCallback(hpcd, PCD_BCD_ERROR);
 175:/Users/nhantt/STM32Cube/Repository/STM32Cube_FW_F4_V1.26.0/Drivers/STM32F4xx_HAL_Driver/Src/stm32f4xx_hal_pcd_ex.c **** #else
 176:/Users/nhantt/STM32Cube/Repository/STM32Cube_FW_F4_V1.26.0/Drivers/STM32F4xx_HAL_Driver/Src/stm32f4xx_hal_pcd_ex.c ****       HAL_PCDEx_BCD_Callback(hpcd, PCD_BCD_ERROR);
 177:/Users/nhantt/STM32Cube/Repository/STM32Cube_FW_F4_V1.26.0/Drivers/STM32F4xx_HAL_Driver/Src/stm32f4xx_hal_pcd_ex.c **** #endif /* USE_HAL_PCD_REGISTER_CALLBACKS */
 178:/Users/nhantt/STM32Cube/Repository/STM32Cube_FW_F4_V1.26.0/Drivers/STM32F4xx_HAL_Driver/Src/stm32f4xx_hal_pcd_ex.c **** 
 179:/Users/nhantt/STM32Cube/Repository/STM32Cube_FW_F4_V1.26.0/Drivers/STM32F4xx_HAL_Driver/Src/stm32f4xx_hal_pcd_ex.c ****       return;
 180:/Users/nhantt/STM32Cube/Repository/STM32Cube_FW_F4_V1.26.0/Drivers/STM32F4xx_HAL_Driver/Src/stm32f4xx_hal_pcd_ex.c ****     }
 181:/Users/nhantt/STM32Cube/Repository/STM32Cube_FW_F4_V1.26.0/Drivers/STM32F4xx_HAL_Driver/Src/stm32f4xx_hal_pcd_ex.c ****   }
 182:/Users/nhantt/STM32Cube/Repository/STM32Cube_FW_F4_V1.26.0/Drivers/STM32F4xx_HAL_Driver/Src/stm32f4xx_hal_pcd_ex.c **** 
 183:/Users/nhantt/STM32Cube/Repository/STM32Cube_FW_F4_V1.26.0/Drivers/STM32F4xx_HAL_Driver/Src/stm32f4xx_hal_pcd_ex.c ****   /* Right response got */
 184:/Users/nhantt/STM32Cube/Repository/STM32Cube_FW_F4_V1.26.0/Drivers/STM32F4xx_HAL_Driver/Src/stm32f4xx_hal_pcd_ex.c ****   HAL_Delay(200U);
 185:/Users/nhantt/STM32Cube/Repository/STM32Cube_FW_F4_V1.26.0/Drivers/STM32F4xx_HAL_Driver/Src/stm32f4xx_hal_pcd_ex.c **** 
 186:/Users/nhantt/STM32Cube/Repository/STM32Cube_FW_F4_V1.26.0/Drivers/STM32F4xx_HAL_Driver/Src/stm32f4xx_hal_pcd_ex.c ****   /* Check Detect flag*/
 187:/Users/nhantt/STM32Cube/Repository/STM32Cube_FW_F4_V1.26.0/Drivers/STM32F4xx_HAL_Driver/Src/stm32f4xx_hal_pcd_ex.c ****   if ((USBx->GCCFG & USB_OTG_GCCFG_DCDET) == USB_OTG_GCCFG_DCDET)
 188:/Users/nhantt/STM32Cube/Repository/STM32Cube_FW_F4_V1.26.0/Drivers/STM32F4xx_HAL_Driver/Src/stm32f4xx_hal_pcd_ex.c ****   {
 189:/Users/nhantt/STM32Cube/Repository/STM32Cube_FW_F4_V1.26.0/Drivers/STM32F4xx_HAL_Driver/Src/stm32f4xx_hal_pcd_ex.c **** #if (USE_HAL_PCD_REGISTER_CALLBACKS == 1U)
 190:/Users/nhantt/STM32Cube/Repository/STM32Cube_FW_F4_V1.26.0/Drivers/STM32F4xx_HAL_Driver/Src/stm32f4xx_hal_pcd_ex.c ****     hpcd->BCDCallback(hpcd, PCD_BCD_CONTACT_DETECTION);
 191:/Users/nhantt/STM32Cube/Repository/STM32Cube_FW_F4_V1.26.0/Drivers/STM32F4xx_HAL_Driver/Src/stm32f4xx_hal_pcd_ex.c **** #else
 192:/Users/nhantt/STM32Cube/Repository/STM32Cube_FW_F4_V1.26.0/Drivers/STM32F4xx_HAL_Driver/Src/stm32f4xx_hal_pcd_ex.c ****     HAL_PCDEx_BCD_Callback(hpcd, PCD_BCD_CONTACT_DETECTION);
 193:/Users/nhantt/STM32Cube/Repository/STM32Cube_FW_F4_V1.26.0/Drivers/STM32F4xx_HAL_Driver/Src/stm32f4xx_hal_pcd_ex.c **** #endif /* USE_HAL_PCD_REGISTER_CALLBACKS */
 194:/Users/nhantt/STM32Cube/Repository/STM32Cube_FW_F4_V1.26.0/Drivers/STM32F4xx_HAL_Driver/Src/stm32f4xx_hal_pcd_ex.c ****   }
 195:/Users/nhantt/STM32Cube/Repository/STM32Cube_FW_F4_V1.26.0/Drivers/STM32F4xx_HAL_Driver/Src/stm32f4xx_hal_pcd_ex.c **** 
 196:/Users/nhantt/STM32Cube/Repository/STM32Cube_FW_F4_V1.26.0/Drivers/STM32F4xx_HAL_Driver/Src/stm32f4xx_hal_pcd_ex.c ****   /*Primary detection: checks if connected to Standard Downstream Port
 197:/Users/nhantt/STM32Cube/Repository/STM32Cube_FW_F4_V1.26.0/Drivers/STM32F4xx_HAL_Driver/Src/stm32f4xx_hal_pcd_ex.c ****   (without charging capability) */
 198:/Users/nhantt/STM32Cube/Repository/STM32Cube_FW_F4_V1.26.0/Drivers/STM32F4xx_HAL_Driver/Src/stm32f4xx_hal_pcd_ex.c ****   USBx->GCCFG &= ~ USB_OTG_GCCFG_DCDEN;
 199:/Users/nhantt/STM32Cube/Repository/STM32Cube_FW_F4_V1.26.0/Drivers/STM32F4xx_HAL_Driver/Src/stm32f4xx_hal_pcd_ex.c ****   HAL_Delay(50U);
 200:/Users/nhantt/STM32Cube/Repository/STM32Cube_FW_F4_V1.26.0/Drivers/STM32F4xx_HAL_Driver/Src/stm32f4xx_hal_pcd_ex.c ****   USBx->GCCFG |=  USB_OTG_GCCFG_PDEN;
 201:/Users/nhantt/STM32Cube/Repository/STM32Cube_FW_F4_V1.26.0/Drivers/STM32F4xx_HAL_Driver/Src/stm32f4xx_hal_pcd_ex.c ****   HAL_Delay(50U);
 202:/Users/nhantt/STM32Cube/Repository/STM32Cube_FW_F4_V1.26.0/Drivers/STM32F4xx_HAL_Driver/Src/stm32f4xx_hal_pcd_ex.c **** 
 203:/Users/nhantt/STM32Cube/Repository/STM32Cube_FW_F4_V1.26.0/Drivers/STM32F4xx_HAL_Driver/Src/stm32f4xx_hal_pcd_ex.c ****   if ((USBx->GCCFG & USB_OTG_GCCFG_PDET) == 0U)
 204:/Users/nhantt/STM32Cube/Repository/STM32Cube_FW_F4_V1.26.0/Drivers/STM32F4xx_HAL_Driver/Src/stm32f4xx_hal_pcd_ex.c ****   {
 205:/Users/nhantt/STM32Cube/Repository/STM32Cube_FW_F4_V1.26.0/Drivers/STM32F4xx_HAL_Driver/Src/stm32f4xx_hal_pcd_ex.c ****     /* Case of Standard Downstream Port */
 206:/Users/nhantt/STM32Cube/Repository/STM32Cube_FW_F4_V1.26.0/Drivers/STM32F4xx_HAL_Driver/Src/stm32f4xx_hal_pcd_ex.c **** #if (USE_HAL_PCD_REGISTER_CALLBACKS == 1U)
 207:/Users/nhantt/STM32Cube/Repository/STM32Cube_FW_F4_V1.26.0/Drivers/STM32F4xx_HAL_Driver/Src/stm32f4xx_hal_pcd_ex.c ****     hpcd->BCDCallback(hpcd, PCD_BCD_STD_DOWNSTREAM_PORT);
 208:/Users/nhantt/STM32Cube/Repository/STM32Cube_FW_F4_V1.26.0/Drivers/STM32F4xx_HAL_Driver/Src/stm32f4xx_hal_pcd_ex.c **** #else
 209:/Users/nhantt/STM32Cube/Repository/STM32Cube_FW_F4_V1.26.0/Drivers/STM32F4xx_HAL_Driver/Src/stm32f4xx_hal_pcd_ex.c ****     HAL_PCDEx_BCD_Callback(hpcd, PCD_BCD_STD_DOWNSTREAM_PORT);
 210:/Users/nhantt/STM32Cube/Repository/STM32Cube_FW_F4_V1.26.0/Drivers/STM32F4xx_HAL_Driver/Src/stm32f4xx_hal_pcd_ex.c **** #endif /* USE_HAL_PCD_REGISTER_CALLBACKS */
 211:/Users/nhantt/STM32Cube/Repository/STM32Cube_FW_F4_V1.26.0/Drivers/STM32F4xx_HAL_Driver/Src/stm32f4xx_hal_pcd_ex.c ****   }
 212:/Users/nhantt/STM32Cube/Repository/STM32Cube_FW_F4_V1.26.0/Drivers/STM32F4xx_HAL_Driver/Src/stm32f4xx_hal_pcd_ex.c ****   else
 213:/Users/nhantt/STM32Cube/Repository/STM32Cube_FW_F4_V1.26.0/Drivers/STM32F4xx_HAL_Driver/Src/stm32f4xx_hal_pcd_ex.c ****   {
 214:/Users/nhantt/STM32Cube/Repository/STM32Cube_FW_F4_V1.26.0/Drivers/STM32F4xx_HAL_Driver/Src/stm32f4xx_hal_pcd_ex.c ****     /* start secondary detection to check connection to Charging Downstream
 215:/Users/nhantt/STM32Cube/Repository/STM32Cube_FW_F4_V1.26.0/Drivers/STM32F4xx_HAL_Driver/Src/stm32f4xx_hal_pcd_ex.c ****     Port or Dedicated Charging Port */
 216:/Users/nhantt/STM32Cube/Repository/STM32Cube_FW_F4_V1.26.0/Drivers/STM32F4xx_HAL_Driver/Src/stm32f4xx_hal_pcd_ex.c ****     USBx->GCCFG &= ~ USB_OTG_GCCFG_PDEN;
 217:/Users/nhantt/STM32Cube/Repository/STM32Cube_FW_F4_V1.26.0/Drivers/STM32F4xx_HAL_Driver/Src/stm32f4xx_hal_pcd_ex.c ****     HAL_Delay(50U);
 218:/Users/nhantt/STM32Cube/Repository/STM32Cube_FW_F4_V1.26.0/Drivers/STM32F4xx_HAL_Driver/Src/stm32f4xx_hal_pcd_ex.c ****     USBx->GCCFG |=  USB_OTG_GCCFG_SDEN;
 219:/Users/nhantt/STM32Cube/Repository/STM32Cube_FW_F4_V1.26.0/Drivers/STM32F4xx_HAL_Driver/Src/stm32f4xx_hal_pcd_ex.c ****     HAL_Delay(50U);
 220:/Users/nhantt/STM32Cube/Repository/STM32Cube_FW_F4_V1.26.0/Drivers/STM32F4xx_HAL_Driver/Src/stm32f4xx_hal_pcd_ex.c **** 
 221:/Users/nhantt/STM32Cube/Repository/STM32Cube_FW_F4_V1.26.0/Drivers/STM32F4xx_HAL_Driver/Src/stm32f4xx_hal_pcd_ex.c ****     if ((USBx->GCCFG & USB_OTG_GCCFG_SDET) == USB_OTG_GCCFG_SDET)
 222:/Users/nhantt/STM32Cube/Repository/STM32Cube_FW_F4_V1.26.0/Drivers/STM32F4xx_HAL_Driver/Src/stm32f4xx_hal_pcd_ex.c ****     {
 223:/Users/nhantt/STM32Cube/Repository/STM32Cube_FW_F4_V1.26.0/Drivers/STM32F4xx_HAL_Driver/Src/stm32f4xx_hal_pcd_ex.c ****       /* case Dedicated Charging Port  */
 224:/Users/nhantt/STM32Cube/Repository/STM32Cube_FW_F4_V1.26.0/Drivers/STM32F4xx_HAL_Driver/Src/stm32f4xx_hal_pcd_ex.c **** #if (USE_HAL_PCD_REGISTER_CALLBACKS == 1U)
 225:/Users/nhantt/STM32Cube/Repository/STM32Cube_FW_F4_V1.26.0/Drivers/STM32F4xx_HAL_Driver/Src/stm32f4xx_hal_pcd_ex.c ****       hpcd->BCDCallback(hpcd, PCD_BCD_DEDICATED_CHARGING_PORT);
ARM GAS  /var/folders/k2/cd9bl_j17z77g23y6ffqb_400000gn/T//cc1RoL2B.s 			page 8


 226:/Users/nhantt/STM32Cube/Repository/STM32Cube_FW_F4_V1.26.0/Drivers/STM32F4xx_HAL_Driver/Src/stm32f4xx_hal_pcd_ex.c **** #else
 227:/Users/nhantt/STM32Cube/Repository/STM32Cube_FW_F4_V1.26.0/Drivers/STM32F4xx_HAL_Driver/Src/stm32f4xx_hal_pcd_ex.c ****       HAL_PCDEx_BCD_Callback(hpcd, PCD_BCD_DEDICATED_CHARGING_PORT);
 228:/Users/nhantt/STM32Cube/Repository/STM32Cube_FW_F4_V1.26.0/Drivers/STM32F4xx_HAL_Driver/Src/stm32f4xx_hal_pcd_ex.c **** #endif /* USE_HAL_PCD_REGISTER_CALLBACKS */
 229:/Users/nhantt/STM32Cube/Repository/STM32Cube_FW_F4_V1.26.0/Drivers/STM32F4xx_HAL_Driver/Src/stm32f4xx_hal_pcd_ex.c ****     }
 230:/Users/nhantt/STM32Cube/Repository/STM32Cube_FW_F4_V1.26.0/Drivers/STM32F4xx_HAL_Driver/Src/stm32f4xx_hal_pcd_ex.c ****     else
 231:/Users/nhantt/STM32Cube/Repository/STM32Cube_FW_F4_V1.26.0/Drivers/STM32F4xx_HAL_Driver/Src/stm32f4xx_hal_pcd_ex.c ****     {
 232:/Users/nhantt/STM32Cube/Repository/STM32Cube_FW_F4_V1.26.0/Drivers/STM32F4xx_HAL_Driver/Src/stm32f4xx_hal_pcd_ex.c ****       /* case Charging Downstream Port  */
 233:/Users/nhantt/STM32Cube/Repository/STM32Cube_FW_F4_V1.26.0/Drivers/STM32F4xx_HAL_Driver/Src/stm32f4xx_hal_pcd_ex.c **** #if (USE_HAL_PCD_REGISTER_CALLBACKS == 1U)
 234:/Users/nhantt/STM32Cube/Repository/STM32Cube_FW_F4_V1.26.0/Drivers/STM32F4xx_HAL_Driver/Src/stm32f4xx_hal_pcd_ex.c ****       hpcd->BCDCallback(hpcd, PCD_BCD_CHARGING_DOWNSTREAM_PORT);
 235:/Users/nhantt/STM32Cube/Repository/STM32Cube_FW_F4_V1.26.0/Drivers/STM32F4xx_HAL_Driver/Src/stm32f4xx_hal_pcd_ex.c **** #else
 236:/Users/nhantt/STM32Cube/Repository/STM32Cube_FW_F4_V1.26.0/Drivers/STM32F4xx_HAL_Driver/Src/stm32f4xx_hal_pcd_ex.c ****       HAL_PCDEx_BCD_Callback(hpcd, PCD_BCD_CHARGING_DOWNSTREAM_PORT);
 237:/Users/nhantt/STM32Cube/Repository/STM32Cube_FW_F4_V1.26.0/Drivers/STM32F4xx_HAL_Driver/Src/stm32f4xx_hal_pcd_ex.c **** #endif /* USE_HAL_PCD_REGISTER_CALLBACKS */
 238:/Users/nhantt/STM32Cube/Repository/STM32Cube_FW_F4_V1.26.0/Drivers/STM32F4xx_HAL_Driver/Src/stm32f4xx_hal_pcd_ex.c ****     }
 239:/Users/nhantt/STM32Cube/Repository/STM32Cube_FW_F4_V1.26.0/Drivers/STM32F4xx_HAL_Driver/Src/stm32f4xx_hal_pcd_ex.c ****   }
 240:/Users/nhantt/STM32Cube/Repository/STM32Cube_FW_F4_V1.26.0/Drivers/STM32F4xx_HAL_Driver/Src/stm32f4xx_hal_pcd_ex.c **** 
 241:/Users/nhantt/STM32Cube/Repository/STM32Cube_FW_F4_V1.26.0/Drivers/STM32F4xx_HAL_Driver/Src/stm32f4xx_hal_pcd_ex.c ****   /* Battery Charging capability discovery finished */
 242:/Users/nhantt/STM32Cube/Repository/STM32Cube_FW_F4_V1.26.0/Drivers/STM32F4xx_HAL_Driver/Src/stm32f4xx_hal_pcd_ex.c ****   (void)HAL_PCDEx_DeActivateBCD(hpcd);
 243:/Users/nhantt/STM32Cube/Repository/STM32Cube_FW_F4_V1.26.0/Drivers/STM32F4xx_HAL_Driver/Src/stm32f4xx_hal_pcd_ex.c **** 
 244:/Users/nhantt/STM32Cube/Repository/STM32Cube_FW_F4_V1.26.0/Drivers/STM32F4xx_HAL_Driver/Src/stm32f4xx_hal_pcd_ex.c **** #if (USE_HAL_PCD_REGISTER_CALLBACKS == 1U)
 245:/Users/nhantt/STM32Cube/Repository/STM32Cube_FW_F4_V1.26.0/Drivers/STM32F4xx_HAL_Driver/Src/stm32f4xx_hal_pcd_ex.c ****   hpcd->BCDCallback(hpcd, PCD_BCD_DISCOVERY_COMPLETED);
 246:/Users/nhantt/STM32Cube/Repository/STM32Cube_FW_F4_V1.26.0/Drivers/STM32F4xx_HAL_Driver/Src/stm32f4xx_hal_pcd_ex.c **** #else
 247:/Users/nhantt/STM32Cube/Repository/STM32Cube_FW_F4_V1.26.0/Drivers/STM32F4xx_HAL_Driver/Src/stm32f4xx_hal_pcd_ex.c ****   HAL_PCDEx_BCD_Callback(hpcd, PCD_BCD_DISCOVERY_COMPLETED);
 248:/Users/nhantt/STM32Cube/Repository/STM32Cube_FW_F4_V1.26.0/Drivers/STM32F4xx_HAL_Driver/Src/stm32f4xx_hal_pcd_ex.c **** #endif /* USE_HAL_PCD_REGISTER_CALLBACKS */
 249:/Users/nhantt/STM32Cube/Repository/STM32Cube_FW_F4_V1.26.0/Drivers/STM32F4xx_HAL_Driver/Src/stm32f4xx_hal_pcd_ex.c **** }
 250:/Users/nhantt/STM32Cube/Repository/STM32Cube_FW_F4_V1.26.0/Drivers/STM32F4xx_HAL_Driver/Src/stm32f4xx_hal_pcd_ex.c **** 
 251:/Users/nhantt/STM32Cube/Repository/STM32Cube_FW_F4_V1.26.0/Drivers/STM32F4xx_HAL_Driver/Src/stm32f4xx_hal_pcd_ex.c **** /**
 252:/Users/nhantt/STM32Cube/Repository/STM32Cube_FW_F4_V1.26.0/Drivers/STM32F4xx_HAL_Driver/Src/stm32f4xx_hal_pcd_ex.c ****   * @brief  Activate BatteryCharging feature.
 253:/Users/nhantt/STM32Cube/Repository/STM32Cube_FW_F4_V1.26.0/Drivers/STM32F4xx_HAL_Driver/Src/stm32f4xx_hal_pcd_ex.c ****   * @param  hpcd PCD handle
 254:/Users/nhantt/STM32Cube/Repository/STM32Cube_FW_F4_V1.26.0/Drivers/STM32F4xx_HAL_Driver/Src/stm32f4xx_hal_pcd_ex.c ****   * @retval HAL status
 255:/Users/nhantt/STM32Cube/Repository/STM32Cube_FW_F4_V1.26.0/Drivers/STM32F4xx_HAL_Driver/Src/stm32f4xx_hal_pcd_ex.c ****   */
 256:/Users/nhantt/STM32Cube/Repository/STM32Cube_FW_F4_V1.26.0/Drivers/STM32F4xx_HAL_Driver/Src/stm32f4xx_hal_pcd_ex.c **** HAL_StatusTypeDef HAL_PCDEx_ActivateBCD(PCD_HandleTypeDef *hpcd)
 257:/Users/nhantt/STM32Cube/Repository/STM32Cube_FW_F4_V1.26.0/Drivers/STM32F4xx_HAL_Driver/Src/stm32f4xx_hal_pcd_ex.c **** {
 258:/Users/nhantt/STM32Cube/Repository/STM32Cube_FW_F4_V1.26.0/Drivers/STM32F4xx_HAL_Driver/Src/stm32f4xx_hal_pcd_ex.c ****   USB_OTG_GlobalTypeDef *USBx = hpcd->Instance;
 259:/Users/nhantt/STM32Cube/Repository/STM32Cube_FW_F4_V1.26.0/Drivers/STM32F4xx_HAL_Driver/Src/stm32f4xx_hal_pcd_ex.c **** 
 260:/Users/nhantt/STM32Cube/Repository/STM32Cube_FW_F4_V1.26.0/Drivers/STM32F4xx_HAL_Driver/Src/stm32f4xx_hal_pcd_ex.c ****   USBx->GCCFG &= ~(USB_OTG_GCCFG_PDEN);
 261:/Users/nhantt/STM32Cube/Repository/STM32Cube_FW_F4_V1.26.0/Drivers/STM32F4xx_HAL_Driver/Src/stm32f4xx_hal_pcd_ex.c ****   USBx->GCCFG &= ~(USB_OTG_GCCFG_SDEN);
 262:/Users/nhantt/STM32Cube/Repository/STM32Cube_FW_F4_V1.26.0/Drivers/STM32F4xx_HAL_Driver/Src/stm32f4xx_hal_pcd_ex.c **** 
 263:/Users/nhantt/STM32Cube/Repository/STM32Cube_FW_F4_V1.26.0/Drivers/STM32F4xx_HAL_Driver/Src/stm32f4xx_hal_pcd_ex.c ****   /* Power Down USB transceiver  */
 264:/Users/nhantt/STM32Cube/Repository/STM32Cube_FW_F4_V1.26.0/Drivers/STM32F4xx_HAL_Driver/Src/stm32f4xx_hal_pcd_ex.c ****   USBx->GCCFG &= ~(USB_OTG_GCCFG_PWRDWN);
 265:/Users/nhantt/STM32Cube/Repository/STM32Cube_FW_F4_V1.26.0/Drivers/STM32F4xx_HAL_Driver/Src/stm32f4xx_hal_pcd_ex.c **** 
 266:/Users/nhantt/STM32Cube/Repository/STM32Cube_FW_F4_V1.26.0/Drivers/STM32F4xx_HAL_Driver/Src/stm32f4xx_hal_pcd_ex.c ****   /* Enable Battery charging */
 267:/Users/nhantt/STM32Cube/Repository/STM32Cube_FW_F4_V1.26.0/Drivers/STM32F4xx_HAL_Driver/Src/stm32f4xx_hal_pcd_ex.c ****   USBx->GCCFG |= USB_OTG_GCCFG_BCDEN;
 268:/Users/nhantt/STM32Cube/Repository/STM32Cube_FW_F4_V1.26.0/Drivers/STM32F4xx_HAL_Driver/Src/stm32f4xx_hal_pcd_ex.c **** 
 269:/Users/nhantt/STM32Cube/Repository/STM32Cube_FW_F4_V1.26.0/Drivers/STM32F4xx_HAL_Driver/Src/stm32f4xx_hal_pcd_ex.c ****   hpcd->battery_charging_active = 1U;
 270:/Users/nhantt/STM32Cube/Repository/STM32Cube_FW_F4_V1.26.0/Drivers/STM32F4xx_HAL_Driver/Src/stm32f4xx_hal_pcd_ex.c **** 
 271:/Users/nhantt/STM32Cube/Repository/STM32Cube_FW_F4_V1.26.0/Drivers/STM32F4xx_HAL_Driver/Src/stm32f4xx_hal_pcd_ex.c ****   return HAL_OK;
 272:/Users/nhantt/STM32Cube/Repository/STM32Cube_FW_F4_V1.26.0/Drivers/STM32F4xx_HAL_Driver/Src/stm32f4xx_hal_pcd_ex.c **** }
 273:/Users/nhantt/STM32Cube/Repository/STM32Cube_FW_F4_V1.26.0/Drivers/STM32F4xx_HAL_Driver/Src/stm32f4xx_hal_pcd_ex.c **** 
 274:/Users/nhantt/STM32Cube/Repository/STM32Cube_FW_F4_V1.26.0/Drivers/STM32F4xx_HAL_Driver/Src/stm32f4xx_hal_pcd_ex.c **** /**
 275:/Users/nhantt/STM32Cube/Repository/STM32Cube_FW_F4_V1.26.0/Drivers/STM32F4xx_HAL_Driver/Src/stm32f4xx_hal_pcd_ex.c ****   * @brief  Deactivate BatteryCharging feature.
 276:/Users/nhantt/STM32Cube/Repository/STM32Cube_FW_F4_V1.26.0/Drivers/STM32F4xx_HAL_Driver/Src/stm32f4xx_hal_pcd_ex.c ****   * @param  hpcd PCD handle
 277:/Users/nhantt/STM32Cube/Repository/STM32Cube_FW_F4_V1.26.0/Drivers/STM32F4xx_HAL_Driver/Src/stm32f4xx_hal_pcd_ex.c ****   * @retval HAL status
 278:/Users/nhantt/STM32Cube/Repository/STM32Cube_FW_F4_V1.26.0/Drivers/STM32F4xx_HAL_Driver/Src/stm32f4xx_hal_pcd_ex.c ****   */
 279:/Users/nhantt/STM32Cube/Repository/STM32Cube_FW_F4_V1.26.0/Drivers/STM32F4xx_HAL_Driver/Src/stm32f4xx_hal_pcd_ex.c **** HAL_StatusTypeDef HAL_PCDEx_DeActivateBCD(PCD_HandleTypeDef *hpcd)
 280:/Users/nhantt/STM32Cube/Repository/STM32Cube_FW_F4_V1.26.0/Drivers/STM32F4xx_HAL_Driver/Src/stm32f4xx_hal_pcd_ex.c **** {
 281:/Users/nhantt/STM32Cube/Repository/STM32Cube_FW_F4_V1.26.0/Drivers/STM32F4xx_HAL_Driver/Src/stm32f4xx_hal_pcd_ex.c ****   USB_OTG_GlobalTypeDef *USBx = hpcd->Instance;
 282:/Users/nhantt/STM32Cube/Repository/STM32Cube_FW_F4_V1.26.0/Drivers/STM32F4xx_HAL_Driver/Src/stm32f4xx_hal_pcd_ex.c **** 
ARM GAS  /var/folders/k2/cd9bl_j17z77g23y6ffqb_400000gn/T//cc1RoL2B.s 			page 9


 283:/Users/nhantt/STM32Cube/Repository/STM32Cube_FW_F4_V1.26.0/Drivers/STM32F4xx_HAL_Driver/Src/stm32f4xx_hal_pcd_ex.c ****   USBx->GCCFG &= ~(USB_OTG_GCCFG_SDEN);
 284:/Users/nhantt/STM32Cube/Repository/STM32Cube_FW_F4_V1.26.0/Drivers/STM32F4xx_HAL_Driver/Src/stm32f4xx_hal_pcd_ex.c ****   USBx->GCCFG &= ~(USB_OTG_GCCFG_PDEN);
 285:/Users/nhantt/STM32Cube/Repository/STM32Cube_FW_F4_V1.26.0/Drivers/STM32F4xx_HAL_Driver/Src/stm32f4xx_hal_pcd_ex.c **** 
 286:/Users/nhantt/STM32Cube/Repository/STM32Cube_FW_F4_V1.26.0/Drivers/STM32F4xx_HAL_Driver/Src/stm32f4xx_hal_pcd_ex.c ****   /* Disable Battery charging */
 287:/Users/nhantt/STM32Cube/Repository/STM32Cube_FW_F4_V1.26.0/Drivers/STM32F4xx_HAL_Driver/Src/stm32f4xx_hal_pcd_ex.c ****   USBx->GCCFG &= ~(USB_OTG_GCCFG_BCDEN);
 288:/Users/nhantt/STM32Cube/Repository/STM32Cube_FW_F4_V1.26.0/Drivers/STM32F4xx_HAL_Driver/Src/stm32f4xx_hal_pcd_ex.c **** 
 289:/Users/nhantt/STM32Cube/Repository/STM32Cube_FW_F4_V1.26.0/Drivers/STM32F4xx_HAL_Driver/Src/stm32f4xx_hal_pcd_ex.c ****   hpcd->battery_charging_active = 0U;
 290:/Users/nhantt/STM32Cube/Repository/STM32Cube_FW_F4_V1.26.0/Drivers/STM32F4xx_HAL_Driver/Src/stm32f4xx_hal_pcd_ex.c **** 
 291:/Users/nhantt/STM32Cube/Repository/STM32Cube_FW_F4_V1.26.0/Drivers/STM32F4xx_HAL_Driver/Src/stm32f4xx_hal_pcd_ex.c ****   return HAL_OK;
 292:/Users/nhantt/STM32Cube/Repository/STM32Cube_FW_F4_V1.26.0/Drivers/STM32F4xx_HAL_Driver/Src/stm32f4xx_hal_pcd_ex.c **** }
 293:/Users/nhantt/STM32Cube/Repository/STM32Cube_FW_F4_V1.26.0/Drivers/STM32F4xx_HAL_Driver/Src/stm32f4xx_hal_pcd_ex.c **** #endif /* defined(STM32F412Zx) || defined(STM32F412Vx) || defined(STM32F412Rx) || defined(STM32F412
 294:/Users/nhantt/STM32Cube/Repository/STM32Cube_FW_F4_V1.26.0/Drivers/STM32F4xx_HAL_Driver/Src/stm32f4xx_hal_pcd_ex.c **** #endif /* defined (USB_OTG_FS) || defined (USB_OTG_HS) */
 295:/Users/nhantt/STM32Cube/Repository/STM32Cube_FW_F4_V1.26.0/Drivers/STM32F4xx_HAL_Driver/Src/stm32f4xx_hal_pcd_ex.c **** 
 296:/Users/nhantt/STM32Cube/Repository/STM32Cube_FW_F4_V1.26.0/Drivers/STM32F4xx_HAL_Driver/Src/stm32f4xx_hal_pcd_ex.c **** /**
 297:/Users/nhantt/STM32Cube/Repository/STM32Cube_FW_F4_V1.26.0/Drivers/STM32F4xx_HAL_Driver/Src/stm32f4xx_hal_pcd_ex.c ****   * @brief  Send LPM message to user layer callback.
 298:/Users/nhantt/STM32Cube/Repository/STM32Cube_FW_F4_V1.26.0/Drivers/STM32F4xx_HAL_Driver/Src/stm32f4xx_hal_pcd_ex.c ****   * @param  hpcd PCD handle
 299:/Users/nhantt/STM32Cube/Repository/STM32Cube_FW_F4_V1.26.0/Drivers/STM32F4xx_HAL_Driver/Src/stm32f4xx_hal_pcd_ex.c ****   * @param  msg LPM message
 300:/Users/nhantt/STM32Cube/Repository/STM32Cube_FW_F4_V1.26.0/Drivers/STM32F4xx_HAL_Driver/Src/stm32f4xx_hal_pcd_ex.c ****   * @retval HAL status
 301:/Users/nhantt/STM32Cube/Repository/STM32Cube_FW_F4_V1.26.0/Drivers/STM32F4xx_HAL_Driver/Src/stm32f4xx_hal_pcd_ex.c ****   */
 302:/Users/nhantt/STM32Cube/Repository/STM32Cube_FW_F4_V1.26.0/Drivers/STM32F4xx_HAL_Driver/Src/stm32f4xx_hal_pcd_ex.c **** __weak void HAL_PCDEx_LPM_Callback(PCD_HandleTypeDef *hpcd, PCD_LPM_MsgTypeDef msg)
 303:/Users/nhantt/STM32Cube/Repository/STM32Cube_FW_F4_V1.26.0/Drivers/STM32F4xx_HAL_Driver/Src/stm32f4xx_hal_pcd_ex.c **** {
 162              		.loc 1 303 1 is_stmt 1 view -0
 163              		.cfi_startproc
 164              		@ args = 0, pretend = 0, frame = 0
 165              		@ frame_needed = 0, uses_anonymous_args = 0
 166              		@ link register save eliminated.
 304:/Users/nhantt/STM32Cube/Repository/STM32Cube_FW_F4_V1.26.0/Drivers/STM32F4xx_HAL_Driver/Src/stm32f4xx_hal_pcd_ex.c ****   /* Prevent unused argument(s) compilation warning */
 305:/Users/nhantt/STM32Cube/Repository/STM32Cube_FW_F4_V1.26.0/Drivers/STM32F4xx_HAL_Driver/Src/stm32f4xx_hal_pcd_ex.c ****   UNUSED(hpcd);
 167              		.loc 1 305 3 view .LVU41
 306:/Users/nhantt/STM32Cube/Repository/STM32Cube_FW_F4_V1.26.0/Drivers/STM32F4xx_HAL_Driver/Src/stm32f4xx_hal_pcd_ex.c ****   UNUSED(msg);
 168              		.loc 1 306 3 view .LVU42
 307:/Users/nhantt/STM32Cube/Repository/STM32Cube_FW_F4_V1.26.0/Drivers/STM32F4xx_HAL_Driver/Src/stm32f4xx_hal_pcd_ex.c **** 
 308:/Users/nhantt/STM32Cube/Repository/STM32Cube_FW_F4_V1.26.0/Drivers/STM32F4xx_HAL_Driver/Src/stm32f4xx_hal_pcd_ex.c ****   /* NOTE : This function should not be modified, when the callback is needed,
 309:/Users/nhantt/STM32Cube/Repository/STM32Cube_FW_F4_V1.26.0/Drivers/STM32F4xx_HAL_Driver/Src/stm32f4xx_hal_pcd_ex.c ****             the HAL_PCDEx_LPM_Callback could be implemented in the user file
 310:/Users/nhantt/STM32Cube/Repository/STM32Cube_FW_F4_V1.26.0/Drivers/STM32F4xx_HAL_Driver/Src/stm32f4xx_hal_pcd_ex.c ****    */
 311:/Users/nhantt/STM32Cube/Repository/STM32Cube_FW_F4_V1.26.0/Drivers/STM32F4xx_HAL_Driver/Src/stm32f4xx_hal_pcd_ex.c **** }
 169              		.loc 1 311 1 is_stmt 0 view .LVU43
 170 0000 7047     		bx	lr
 171              		.cfi_endproc
 172              	.LFE132:
 174              		.section	.text.HAL_PCDEx_BCD_Callback,"ax",%progbits
 175              		.align	1
 176              		.weak	HAL_PCDEx_BCD_Callback
 177              		.syntax unified
 178              		.thumb
 179              		.thumb_func
 180              		.fpu fpv4-sp-d16
 182              	HAL_PCDEx_BCD_Callback:
 183              	.LVL14:
 184              	.LFB133:
 312:/Users/nhantt/STM32Cube/Repository/STM32Cube_FW_F4_V1.26.0/Drivers/STM32F4xx_HAL_Driver/Src/stm32f4xx_hal_pcd_ex.c **** 
 313:/Users/nhantt/STM32Cube/Repository/STM32Cube_FW_F4_V1.26.0/Drivers/STM32F4xx_HAL_Driver/Src/stm32f4xx_hal_pcd_ex.c **** /**
 314:/Users/nhantt/STM32Cube/Repository/STM32Cube_FW_F4_V1.26.0/Drivers/STM32F4xx_HAL_Driver/Src/stm32f4xx_hal_pcd_ex.c ****   * @brief  Send BatteryCharging message to user layer callback.
 315:/Users/nhantt/STM32Cube/Repository/STM32Cube_FW_F4_V1.26.0/Drivers/STM32F4xx_HAL_Driver/Src/stm32f4xx_hal_pcd_ex.c ****   * @param  hpcd PCD handle
 316:/Users/nhantt/STM32Cube/Repository/STM32Cube_FW_F4_V1.26.0/Drivers/STM32F4xx_HAL_Driver/Src/stm32f4xx_hal_pcd_ex.c ****   * @param  msg LPM message
 317:/Users/nhantt/STM32Cube/Repository/STM32Cube_FW_F4_V1.26.0/Drivers/STM32F4xx_HAL_Driver/Src/stm32f4xx_hal_pcd_ex.c ****   * @retval HAL status
 318:/Users/nhantt/STM32Cube/Repository/STM32Cube_FW_F4_V1.26.0/Drivers/STM32F4xx_HAL_Driver/Src/stm32f4xx_hal_pcd_ex.c ****   */
ARM GAS  /var/folders/k2/cd9bl_j17z77g23y6ffqb_400000gn/T//cc1RoL2B.s 			page 10


 319:/Users/nhantt/STM32Cube/Repository/STM32Cube_FW_F4_V1.26.0/Drivers/STM32F4xx_HAL_Driver/Src/stm32f4xx_hal_pcd_ex.c **** __weak void HAL_PCDEx_BCD_Callback(PCD_HandleTypeDef *hpcd, PCD_BCD_MsgTypeDef msg)
 320:/Users/nhantt/STM32Cube/Repository/STM32Cube_FW_F4_V1.26.0/Drivers/STM32F4xx_HAL_Driver/Src/stm32f4xx_hal_pcd_ex.c **** {
 185              		.loc 1 320 1 is_stmt 1 view -0
 186              		.cfi_startproc
 187              		@ args = 0, pretend = 0, frame = 0
 188              		@ frame_needed = 0, uses_anonymous_args = 0
 189              		@ link register save eliminated.
 321:/Users/nhantt/STM32Cube/Repository/STM32Cube_FW_F4_V1.26.0/Drivers/STM32F4xx_HAL_Driver/Src/stm32f4xx_hal_pcd_ex.c ****   /* Prevent unused argument(s) compilation warning */
 322:/Users/nhantt/STM32Cube/Repository/STM32Cube_FW_F4_V1.26.0/Drivers/STM32F4xx_HAL_Driver/Src/stm32f4xx_hal_pcd_ex.c ****   UNUSED(hpcd);
 190              		.loc 1 322 3 view .LVU45
 323:/Users/nhantt/STM32Cube/Repository/STM32Cube_FW_F4_V1.26.0/Drivers/STM32F4xx_HAL_Driver/Src/stm32f4xx_hal_pcd_ex.c ****   UNUSED(msg);
 191              		.loc 1 323 3 view .LVU46
 324:/Users/nhantt/STM32Cube/Repository/STM32Cube_FW_F4_V1.26.0/Drivers/STM32F4xx_HAL_Driver/Src/stm32f4xx_hal_pcd_ex.c **** 
 325:/Users/nhantt/STM32Cube/Repository/STM32Cube_FW_F4_V1.26.0/Drivers/STM32F4xx_HAL_Driver/Src/stm32f4xx_hal_pcd_ex.c ****   /* NOTE : This function should not be modified, when the callback is needed,
 326:/Users/nhantt/STM32Cube/Repository/STM32Cube_FW_F4_V1.26.0/Drivers/STM32F4xx_HAL_Driver/Src/stm32f4xx_hal_pcd_ex.c ****             the HAL_PCDEx_BCD_Callback could be implemented in the user file
 327:/Users/nhantt/STM32Cube/Repository/STM32Cube_FW_F4_V1.26.0/Drivers/STM32F4xx_HAL_Driver/Src/stm32f4xx_hal_pcd_ex.c ****    */
 328:/Users/nhantt/STM32Cube/Repository/STM32Cube_FW_F4_V1.26.0/Drivers/STM32F4xx_HAL_Driver/Src/stm32f4xx_hal_pcd_ex.c **** }
 192              		.loc 1 328 1 is_stmt 0 view .LVU47
 193 0000 7047     		bx	lr
 194              		.cfi_endproc
 195              	.LFE133:
 197              		.text
 198              	.Letext0:
 199              		.file 2 "/Users/nhantt/tools/stm32/gcc-arm-none-eabi-10-2020-q4-major/arm-none-eabi/include/machin
 200              		.file 3 "/Users/nhantt/tools/stm32/gcc-arm-none-eabi-10-2020-q4-major/arm-none-eabi/include/sys/_s
 201              		.file 4 "/Users/nhantt/STM32Cube/Repository/STM32Cube_FW_F4_V1.26.0/Drivers/CMSIS/Device/ST/STM32F
 202              		.file 5 "/Users/nhantt/STM32Cube/Repository/STM32Cube_FW_F4_V1.26.0/Drivers/STM32F4xx_HAL_Driver/I
 203              		.file 6 "/Users/nhantt/STM32Cube/Repository/STM32Cube_FW_F4_V1.26.0/Drivers/STM32F4xx_HAL_Driver/I
 204              		.file 7 "/Users/nhantt/STM32Cube/Repository/STM32Cube_FW_F4_V1.26.0/Drivers/STM32F4xx_HAL_Driver/I
ARM GAS  /var/folders/k2/cd9bl_j17z77g23y6ffqb_400000gn/T//cc1RoL2B.s 			page 11


DEFINED SYMBOLS
                            *ABS*:0000000000000000 stm32f4xx_hal_pcd_ex.c
/var/folders/k2/cd9bl_j17z77g23y6ffqb_400000gn/T//cc1RoL2B.s:18     .text.HAL_PCDEx_SetTxFiFo:0000000000000000 $t
/var/folders/k2/cd9bl_j17z77g23y6ffqb_400000gn/T//cc1RoL2B.s:26     .text.HAL_PCDEx_SetTxFiFo:0000000000000000 HAL_PCDEx_SetTxFiFo
/var/folders/k2/cd9bl_j17z77g23y6ffqb_400000gn/T//cc1RoL2B.s:122    .text.HAL_PCDEx_SetRxFiFo:0000000000000000 $t
/var/folders/k2/cd9bl_j17z77g23y6ffqb_400000gn/T//cc1RoL2B.s:129    .text.HAL_PCDEx_SetRxFiFo:0000000000000000 HAL_PCDEx_SetRxFiFo
/var/folders/k2/cd9bl_j17z77g23y6ffqb_400000gn/T//cc1RoL2B.s:152    .text.HAL_PCDEx_LPM_Callback:0000000000000000 $t
/var/folders/k2/cd9bl_j17z77g23y6ffqb_400000gn/T//cc1RoL2B.s:159    .text.HAL_PCDEx_LPM_Callback:0000000000000000 HAL_PCDEx_LPM_Callback
/var/folders/k2/cd9bl_j17z77g23y6ffqb_400000gn/T//cc1RoL2B.s:175    .text.HAL_PCDEx_BCD_Callback:0000000000000000 $t
/var/folders/k2/cd9bl_j17z77g23y6ffqb_400000gn/T//cc1RoL2B.s:182    .text.HAL_PCDEx_BCD_Callback:0000000000000000 HAL_PCDEx_BCD_Callback

NO UNDEFINED SYMBOLS
