ARM GAS  C:\Users\BLACK_~1\AppData\Local\Temp\ccRovO0r.s 			page 1


   1              		.cpu cortex-m4
   2              		.arch armv7e-m
   3              		.fpu fpv4-sp-d16
   4              		.eabi_attribute 27, 1
   5              		.eabi_attribute 28, 1
   6              		.eabi_attribute 20, 1
   7              		.eabi_attribute 21, 1
   8              		.eabi_attribute 23, 3
   9              		.eabi_attribute 24, 1
  10              		.eabi_attribute 25, 1
  11              		.eabi_attribute 26, 1
  12              		.eabi_attribute 30, 1
  13              		.eabi_attribute 34, 1
  14              		.eabi_attribute 18, 4
  15              		.file	"tcp.c"
  16              		.text
  17              	.Ltext0:
  18              		.cfi_sections	.debug_frame
  19              		.section	.text.tcp_new_port,"ax",%progbits
  20              		.align	1
  21              		.syntax unified
  22              		.thumb
  23              		.thumb_func
  25              	tcp_new_port:
  26              	.LFB175:
  27              		.file 1 "c:/Users/Black_Life/STM32Cube/Repository/STM32Cube_FW_F4_V1.26.2/Middlewares/Third_Party/
   1:c:/Users/Black_Life/STM32Cube/Repository/STM32Cube_FW_F4_V1.26.2/Middlewares/Third_Party/LwIP/src/core\tcp.c **** /**
   2:c:/Users/Black_Life/STM32Cube/Repository/STM32Cube_FW_F4_V1.26.2/Middlewares/Third_Party/LwIP/src/core\tcp.c ****  * @file
   3:c:/Users/Black_Life/STM32Cube/Repository/STM32Cube_FW_F4_V1.26.2/Middlewares/Third_Party/LwIP/src/core\tcp.c ****  * Transmission Control Protocol for IP
   4:c:/Users/Black_Life/STM32Cube/Repository/STM32Cube_FW_F4_V1.26.2/Middlewares/Third_Party/LwIP/src/core\tcp.c ****  * See also @ref tcp_raw
   5:c:/Users/Black_Life/STM32Cube/Repository/STM32Cube_FW_F4_V1.26.2/Middlewares/Third_Party/LwIP/src/core\tcp.c ****  *
   6:c:/Users/Black_Life/STM32Cube/Repository/STM32Cube_FW_F4_V1.26.2/Middlewares/Third_Party/LwIP/src/core\tcp.c ****  * @defgroup tcp_raw TCP
   7:c:/Users/Black_Life/STM32Cube/Repository/STM32Cube_FW_F4_V1.26.2/Middlewares/Third_Party/LwIP/src/core\tcp.c ****  * @ingroup callbackstyle_api
   8:c:/Users/Black_Life/STM32Cube/Repository/STM32Cube_FW_F4_V1.26.2/Middlewares/Third_Party/LwIP/src/core\tcp.c ****  * Transmission Control Protocol for IP\n
   9:c:/Users/Black_Life/STM32Cube/Repository/STM32Cube_FW_F4_V1.26.2/Middlewares/Third_Party/LwIP/src/core\tcp.c ****  * @see @ref api
  10:c:/Users/Black_Life/STM32Cube/Repository/STM32Cube_FW_F4_V1.26.2/Middlewares/Third_Party/LwIP/src/core\tcp.c ****  *
  11:c:/Users/Black_Life/STM32Cube/Repository/STM32Cube_FW_F4_V1.26.2/Middlewares/Third_Party/LwIP/src/core\tcp.c ****  * Common functions for the TCP implementation, such as functions
  12:c:/Users/Black_Life/STM32Cube/Repository/STM32Cube_FW_F4_V1.26.2/Middlewares/Third_Party/LwIP/src/core\tcp.c ****  * for manipulating the data structures and the TCP timer functions. TCP functions
  13:c:/Users/Black_Life/STM32Cube/Repository/STM32Cube_FW_F4_V1.26.2/Middlewares/Third_Party/LwIP/src/core\tcp.c ****  * related to input and output is found in tcp_in.c and tcp_out.c respectively.\n
  14:c:/Users/Black_Life/STM32Cube/Repository/STM32Cube_FW_F4_V1.26.2/Middlewares/Third_Party/LwIP/src/core\tcp.c ****  * 
  15:c:/Users/Black_Life/STM32Cube/Repository/STM32Cube_FW_F4_V1.26.2/Middlewares/Third_Party/LwIP/src/core\tcp.c ****  * TCP connection setup
  16:c:/Users/Black_Life/STM32Cube/Repository/STM32Cube_FW_F4_V1.26.2/Middlewares/Third_Party/LwIP/src/core\tcp.c ****  * --------------------
  17:c:/Users/Black_Life/STM32Cube/Repository/STM32Cube_FW_F4_V1.26.2/Middlewares/Third_Party/LwIP/src/core\tcp.c ****  * The functions used for setting up connections is similar to that of
  18:c:/Users/Black_Life/STM32Cube/Repository/STM32Cube_FW_F4_V1.26.2/Middlewares/Third_Party/LwIP/src/core\tcp.c ****  * the sequential API and of the BSD socket API. A new TCP connection
  19:c:/Users/Black_Life/STM32Cube/Repository/STM32Cube_FW_F4_V1.26.2/Middlewares/Third_Party/LwIP/src/core\tcp.c ****  * identifier (i.e., a protocol control block - PCB) is created with the
  20:c:/Users/Black_Life/STM32Cube/Repository/STM32Cube_FW_F4_V1.26.2/Middlewares/Third_Party/LwIP/src/core\tcp.c ****  * tcp_new() function. This PCB can then be either set to listen for new
  21:c:/Users/Black_Life/STM32Cube/Repository/STM32Cube_FW_F4_V1.26.2/Middlewares/Third_Party/LwIP/src/core\tcp.c ****  * incoming connections or be explicitly connected to another host.
  22:c:/Users/Black_Life/STM32Cube/Repository/STM32Cube_FW_F4_V1.26.2/Middlewares/Third_Party/LwIP/src/core\tcp.c ****  * - tcp_new()
  23:c:/Users/Black_Life/STM32Cube/Repository/STM32Cube_FW_F4_V1.26.2/Middlewares/Third_Party/LwIP/src/core\tcp.c ****  * - tcp_bind()
  24:c:/Users/Black_Life/STM32Cube/Repository/STM32Cube_FW_F4_V1.26.2/Middlewares/Third_Party/LwIP/src/core\tcp.c ****  * - tcp_listen() and tcp_listen_with_backlog()
  25:c:/Users/Black_Life/STM32Cube/Repository/STM32Cube_FW_F4_V1.26.2/Middlewares/Third_Party/LwIP/src/core\tcp.c ****  * - tcp_accept()
  26:c:/Users/Black_Life/STM32Cube/Repository/STM32Cube_FW_F4_V1.26.2/Middlewares/Third_Party/LwIP/src/core\tcp.c ****  * - tcp_connect()
  27:c:/Users/Black_Life/STM32Cube/Repository/STM32Cube_FW_F4_V1.26.2/Middlewares/Third_Party/LwIP/src/core\tcp.c ****  * 
  28:c:/Users/Black_Life/STM32Cube/Repository/STM32Cube_FW_F4_V1.26.2/Middlewares/Third_Party/LwIP/src/core\tcp.c ****  * Sending TCP data
  29:c:/Users/Black_Life/STM32Cube/Repository/STM32Cube_FW_F4_V1.26.2/Middlewares/Third_Party/LwIP/src/core\tcp.c ****  * ----------------
  30:c:/Users/Black_Life/STM32Cube/Repository/STM32Cube_FW_F4_V1.26.2/Middlewares/Third_Party/LwIP/src/core\tcp.c ****  * TCP data is sent by enqueueing the data with a call to tcp_write() and
  31:c:/Users/Black_Life/STM32Cube/Repository/STM32Cube_FW_F4_V1.26.2/Middlewares/Third_Party/LwIP/src/core\tcp.c ****  * triggering to send by calling tcp_output(). When the data is successfully
ARM GAS  C:\Users\BLACK_~1\AppData\Local\Temp\ccRovO0r.s 			page 2


  32:c:/Users/Black_Life/STM32Cube/Repository/STM32Cube_FW_F4_V1.26.2/Middlewares/Third_Party/LwIP/src/core\tcp.c ****  * transmitted to the remote host, the application will be notified with a
  33:c:/Users/Black_Life/STM32Cube/Repository/STM32Cube_FW_F4_V1.26.2/Middlewares/Third_Party/LwIP/src/core\tcp.c ****  * call to a specified callback function.
  34:c:/Users/Black_Life/STM32Cube/Repository/STM32Cube_FW_F4_V1.26.2/Middlewares/Third_Party/LwIP/src/core\tcp.c ****  * - tcp_write()
  35:c:/Users/Black_Life/STM32Cube/Repository/STM32Cube_FW_F4_V1.26.2/Middlewares/Third_Party/LwIP/src/core\tcp.c ****  * - tcp_output()
  36:c:/Users/Black_Life/STM32Cube/Repository/STM32Cube_FW_F4_V1.26.2/Middlewares/Third_Party/LwIP/src/core\tcp.c ****  * - tcp_sent()
  37:c:/Users/Black_Life/STM32Cube/Repository/STM32Cube_FW_F4_V1.26.2/Middlewares/Third_Party/LwIP/src/core\tcp.c ****  * 
  38:c:/Users/Black_Life/STM32Cube/Repository/STM32Cube_FW_F4_V1.26.2/Middlewares/Third_Party/LwIP/src/core\tcp.c ****  * Receiving TCP data
  39:c:/Users/Black_Life/STM32Cube/Repository/STM32Cube_FW_F4_V1.26.2/Middlewares/Third_Party/LwIP/src/core\tcp.c ****  * ------------------
  40:c:/Users/Black_Life/STM32Cube/Repository/STM32Cube_FW_F4_V1.26.2/Middlewares/Third_Party/LwIP/src/core\tcp.c ****  * TCP data reception is callback based - an application specified
  41:c:/Users/Black_Life/STM32Cube/Repository/STM32Cube_FW_F4_V1.26.2/Middlewares/Third_Party/LwIP/src/core\tcp.c ****  * callback function is called when new data arrives. When the
  42:c:/Users/Black_Life/STM32Cube/Repository/STM32Cube_FW_F4_V1.26.2/Middlewares/Third_Party/LwIP/src/core\tcp.c ****  * application has taken the data, it has to call the tcp_recved()
  43:c:/Users/Black_Life/STM32Cube/Repository/STM32Cube_FW_F4_V1.26.2/Middlewares/Third_Party/LwIP/src/core\tcp.c ****  * function to indicate that TCP can advertise increase the receive
  44:c:/Users/Black_Life/STM32Cube/Repository/STM32Cube_FW_F4_V1.26.2/Middlewares/Third_Party/LwIP/src/core\tcp.c ****  * window.
  45:c:/Users/Black_Life/STM32Cube/Repository/STM32Cube_FW_F4_V1.26.2/Middlewares/Third_Party/LwIP/src/core\tcp.c ****  * - tcp_recv()
  46:c:/Users/Black_Life/STM32Cube/Repository/STM32Cube_FW_F4_V1.26.2/Middlewares/Third_Party/LwIP/src/core\tcp.c ****  * - tcp_recved()
  47:c:/Users/Black_Life/STM32Cube/Repository/STM32Cube_FW_F4_V1.26.2/Middlewares/Third_Party/LwIP/src/core\tcp.c ****  * 
  48:c:/Users/Black_Life/STM32Cube/Repository/STM32Cube_FW_F4_V1.26.2/Middlewares/Third_Party/LwIP/src/core\tcp.c ****  * Application polling
  49:c:/Users/Black_Life/STM32Cube/Repository/STM32Cube_FW_F4_V1.26.2/Middlewares/Third_Party/LwIP/src/core\tcp.c ****  * -------------------
  50:c:/Users/Black_Life/STM32Cube/Repository/STM32Cube_FW_F4_V1.26.2/Middlewares/Third_Party/LwIP/src/core\tcp.c ****  * When a connection is idle (i.e., no data is either transmitted or
  51:c:/Users/Black_Life/STM32Cube/Repository/STM32Cube_FW_F4_V1.26.2/Middlewares/Third_Party/LwIP/src/core\tcp.c ****  * received), lwIP will repeatedly poll the application by calling a
  52:c:/Users/Black_Life/STM32Cube/Repository/STM32Cube_FW_F4_V1.26.2/Middlewares/Third_Party/LwIP/src/core\tcp.c ****  * specified callback function. This can be used either as a watchdog
  53:c:/Users/Black_Life/STM32Cube/Repository/STM32Cube_FW_F4_V1.26.2/Middlewares/Third_Party/LwIP/src/core\tcp.c ****  * timer for killing connections that have stayed idle for too long, or
  54:c:/Users/Black_Life/STM32Cube/Repository/STM32Cube_FW_F4_V1.26.2/Middlewares/Third_Party/LwIP/src/core\tcp.c ****  * as a method of waiting for memory to become available. For instance,
  55:c:/Users/Black_Life/STM32Cube/Repository/STM32Cube_FW_F4_V1.26.2/Middlewares/Third_Party/LwIP/src/core\tcp.c ****  * if a call to tcp_write() has failed because memory wasn't available,
  56:c:/Users/Black_Life/STM32Cube/Repository/STM32Cube_FW_F4_V1.26.2/Middlewares/Third_Party/LwIP/src/core\tcp.c ****  * the application may use the polling functionality to call tcp_write()
  57:c:/Users/Black_Life/STM32Cube/Repository/STM32Cube_FW_F4_V1.26.2/Middlewares/Third_Party/LwIP/src/core\tcp.c ****  * again when the connection has been idle for a while.
  58:c:/Users/Black_Life/STM32Cube/Repository/STM32Cube_FW_F4_V1.26.2/Middlewares/Third_Party/LwIP/src/core\tcp.c ****  * - tcp_poll()
  59:c:/Users/Black_Life/STM32Cube/Repository/STM32Cube_FW_F4_V1.26.2/Middlewares/Third_Party/LwIP/src/core\tcp.c ****  *
  60:c:/Users/Black_Life/STM32Cube/Repository/STM32Cube_FW_F4_V1.26.2/Middlewares/Third_Party/LwIP/src/core\tcp.c ****  * Closing and aborting connections
  61:c:/Users/Black_Life/STM32Cube/Repository/STM32Cube_FW_F4_V1.26.2/Middlewares/Third_Party/LwIP/src/core\tcp.c ****  * --------------------------------
  62:c:/Users/Black_Life/STM32Cube/Repository/STM32Cube_FW_F4_V1.26.2/Middlewares/Third_Party/LwIP/src/core\tcp.c ****  * - tcp_close()
  63:c:/Users/Black_Life/STM32Cube/Repository/STM32Cube_FW_F4_V1.26.2/Middlewares/Third_Party/LwIP/src/core\tcp.c ****  * - tcp_abort()
  64:c:/Users/Black_Life/STM32Cube/Repository/STM32Cube_FW_F4_V1.26.2/Middlewares/Third_Party/LwIP/src/core\tcp.c ****  * - tcp_err()
  65:c:/Users/Black_Life/STM32Cube/Repository/STM32Cube_FW_F4_V1.26.2/Middlewares/Third_Party/LwIP/src/core\tcp.c ****  * 
  66:c:/Users/Black_Life/STM32Cube/Repository/STM32Cube_FW_F4_V1.26.2/Middlewares/Third_Party/LwIP/src/core\tcp.c ****  */
  67:c:/Users/Black_Life/STM32Cube/Repository/STM32Cube_FW_F4_V1.26.2/Middlewares/Third_Party/LwIP/src/core\tcp.c **** 
  68:c:/Users/Black_Life/STM32Cube/Repository/STM32Cube_FW_F4_V1.26.2/Middlewares/Third_Party/LwIP/src/core\tcp.c **** /*
  69:c:/Users/Black_Life/STM32Cube/Repository/STM32Cube_FW_F4_V1.26.2/Middlewares/Third_Party/LwIP/src/core\tcp.c ****  * Copyright (c) 2001-2004 Swedish Institute of Computer Science.
  70:c:/Users/Black_Life/STM32Cube/Repository/STM32Cube_FW_F4_V1.26.2/Middlewares/Third_Party/LwIP/src/core\tcp.c ****  * All rights reserved.
  71:c:/Users/Black_Life/STM32Cube/Repository/STM32Cube_FW_F4_V1.26.2/Middlewares/Third_Party/LwIP/src/core\tcp.c ****  *
  72:c:/Users/Black_Life/STM32Cube/Repository/STM32Cube_FW_F4_V1.26.2/Middlewares/Third_Party/LwIP/src/core\tcp.c ****  * Redistribution and use in source and binary forms, with or without modification,
  73:c:/Users/Black_Life/STM32Cube/Repository/STM32Cube_FW_F4_V1.26.2/Middlewares/Third_Party/LwIP/src/core\tcp.c ****  * are permitted provided that the following conditions are met:
  74:c:/Users/Black_Life/STM32Cube/Repository/STM32Cube_FW_F4_V1.26.2/Middlewares/Third_Party/LwIP/src/core\tcp.c ****  *
  75:c:/Users/Black_Life/STM32Cube/Repository/STM32Cube_FW_F4_V1.26.2/Middlewares/Third_Party/LwIP/src/core\tcp.c ****  * 1. Redistributions of source code must retain the above copyright notice,
  76:c:/Users/Black_Life/STM32Cube/Repository/STM32Cube_FW_F4_V1.26.2/Middlewares/Third_Party/LwIP/src/core\tcp.c ****  *    this list of conditions and the following disclaimer.
  77:c:/Users/Black_Life/STM32Cube/Repository/STM32Cube_FW_F4_V1.26.2/Middlewares/Third_Party/LwIP/src/core\tcp.c ****  * 2. Redistributions in binary form must reproduce the above copyright notice,
  78:c:/Users/Black_Life/STM32Cube/Repository/STM32Cube_FW_F4_V1.26.2/Middlewares/Third_Party/LwIP/src/core\tcp.c ****  *    this list of conditions and the following disclaimer in the documentation
  79:c:/Users/Black_Life/STM32Cube/Repository/STM32Cube_FW_F4_V1.26.2/Middlewares/Third_Party/LwIP/src/core\tcp.c ****  *    and/or other materials provided with the distribution.
  80:c:/Users/Black_Life/STM32Cube/Repository/STM32Cube_FW_F4_V1.26.2/Middlewares/Third_Party/LwIP/src/core\tcp.c ****  * 3. The name of the author may not be used to endorse or promote products
  81:c:/Users/Black_Life/STM32Cube/Repository/STM32Cube_FW_F4_V1.26.2/Middlewares/Third_Party/LwIP/src/core\tcp.c ****  *    derived from this software without specific prior written permission.
  82:c:/Users/Black_Life/STM32Cube/Repository/STM32Cube_FW_F4_V1.26.2/Middlewares/Third_Party/LwIP/src/core\tcp.c ****  *
  83:c:/Users/Black_Life/STM32Cube/Repository/STM32Cube_FW_F4_V1.26.2/Middlewares/Third_Party/LwIP/src/core\tcp.c ****  * THIS SOFTWARE IS PROVIDED BY THE AUTHOR ``AS IS'' AND ANY EXPRESS OR IMPLIED
  84:c:/Users/Black_Life/STM32Cube/Repository/STM32Cube_FW_F4_V1.26.2/Middlewares/Third_Party/LwIP/src/core\tcp.c ****  * WARRANTIES, INCLUDING, BUT NOT LIMITED TO, THE IMPLIED WARRANTIES OF
  85:c:/Users/Black_Life/STM32Cube/Repository/STM32Cube_FW_F4_V1.26.2/Middlewares/Third_Party/LwIP/src/core\tcp.c ****  * MERCHANTABILITY AND FITNESS FOR A PARTICULAR PURPOSE ARE DISCLAIMED. IN NO EVENT
  86:c:/Users/Black_Life/STM32Cube/Repository/STM32Cube_FW_F4_V1.26.2/Middlewares/Third_Party/LwIP/src/core\tcp.c ****  * SHALL THE AUTHOR BE LIABLE FOR ANY DIRECT, INDIRECT, INCIDENTAL, SPECIAL,
  87:c:/Users/Black_Life/STM32Cube/Repository/STM32Cube_FW_F4_V1.26.2/Middlewares/Third_Party/LwIP/src/core\tcp.c ****  * EXEMPLARY, OR CONSEQUENTIAL DAMAGES (INCLUDING, BUT NOT LIMITED TO, PROCUREMENT
  88:c:/Users/Black_Life/STM32Cube/Repository/STM32Cube_FW_F4_V1.26.2/Middlewares/Third_Party/LwIP/src/core\tcp.c ****  * OF SUBSTITUTE GOODS OR SERVICES; LOSS OF USE, DATA, OR PROFITS; OR BUSINESS
ARM GAS  C:\Users\BLACK_~1\AppData\Local\Temp\ccRovO0r.s 			page 3


  89:c:/Users/Black_Life/STM32Cube/Repository/STM32Cube_FW_F4_V1.26.2/Middlewares/Third_Party/LwIP/src/core\tcp.c ****  * INTERRUPTION) HOWEVER CAUSED AND ON ANY THEORY OF LIABILITY, WHETHER IN
  90:c:/Users/Black_Life/STM32Cube/Repository/STM32Cube_FW_F4_V1.26.2/Middlewares/Third_Party/LwIP/src/core\tcp.c ****  * CONTRACT, STRICT LIABILITY, OR TORT (INCLUDING NEGLIGENCE OR OTHERWISE) ARISING
  91:c:/Users/Black_Life/STM32Cube/Repository/STM32Cube_FW_F4_V1.26.2/Middlewares/Third_Party/LwIP/src/core\tcp.c ****  * IN ANY WAY OUT OF THE USE OF THIS SOFTWARE, EVEN IF ADVISED OF THE POSSIBILITY
  92:c:/Users/Black_Life/STM32Cube/Repository/STM32Cube_FW_F4_V1.26.2/Middlewares/Third_Party/LwIP/src/core\tcp.c ****  * OF SUCH DAMAGE.
  93:c:/Users/Black_Life/STM32Cube/Repository/STM32Cube_FW_F4_V1.26.2/Middlewares/Third_Party/LwIP/src/core\tcp.c ****  *
  94:c:/Users/Black_Life/STM32Cube/Repository/STM32Cube_FW_F4_V1.26.2/Middlewares/Third_Party/LwIP/src/core\tcp.c ****  * This file is part of the lwIP TCP/IP stack.
  95:c:/Users/Black_Life/STM32Cube/Repository/STM32Cube_FW_F4_V1.26.2/Middlewares/Third_Party/LwIP/src/core\tcp.c ****  *
  96:c:/Users/Black_Life/STM32Cube/Repository/STM32Cube_FW_F4_V1.26.2/Middlewares/Third_Party/LwIP/src/core\tcp.c ****  * Author: Adam Dunkels <adam@sics.se>
  97:c:/Users/Black_Life/STM32Cube/Repository/STM32Cube_FW_F4_V1.26.2/Middlewares/Third_Party/LwIP/src/core\tcp.c ****  *
  98:c:/Users/Black_Life/STM32Cube/Repository/STM32Cube_FW_F4_V1.26.2/Middlewares/Third_Party/LwIP/src/core\tcp.c ****  */
  99:c:/Users/Black_Life/STM32Cube/Repository/STM32Cube_FW_F4_V1.26.2/Middlewares/Third_Party/LwIP/src/core\tcp.c **** 
 100:c:/Users/Black_Life/STM32Cube/Repository/STM32Cube_FW_F4_V1.26.2/Middlewares/Third_Party/LwIP/src/core\tcp.c **** #include "lwip/opt.h"
 101:c:/Users/Black_Life/STM32Cube/Repository/STM32Cube_FW_F4_V1.26.2/Middlewares/Third_Party/LwIP/src/core\tcp.c **** 
 102:c:/Users/Black_Life/STM32Cube/Repository/STM32Cube_FW_F4_V1.26.2/Middlewares/Third_Party/LwIP/src/core\tcp.c **** #if LWIP_TCP /* don't build if not configured for use in lwipopts.h */
 103:c:/Users/Black_Life/STM32Cube/Repository/STM32Cube_FW_F4_V1.26.2/Middlewares/Third_Party/LwIP/src/core\tcp.c **** 
 104:c:/Users/Black_Life/STM32Cube/Repository/STM32Cube_FW_F4_V1.26.2/Middlewares/Third_Party/LwIP/src/core\tcp.c **** #include "lwip/def.h"
 105:c:/Users/Black_Life/STM32Cube/Repository/STM32Cube_FW_F4_V1.26.2/Middlewares/Third_Party/LwIP/src/core\tcp.c **** #include "lwip/mem.h"
 106:c:/Users/Black_Life/STM32Cube/Repository/STM32Cube_FW_F4_V1.26.2/Middlewares/Third_Party/LwIP/src/core\tcp.c **** #include "lwip/memp.h"
 107:c:/Users/Black_Life/STM32Cube/Repository/STM32Cube_FW_F4_V1.26.2/Middlewares/Third_Party/LwIP/src/core\tcp.c **** #include "lwip/tcp.h"
 108:c:/Users/Black_Life/STM32Cube/Repository/STM32Cube_FW_F4_V1.26.2/Middlewares/Third_Party/LwIP/src/core\tcp.c **** #include "lwip/priv/tcp_priv.h"
 109:c:/Users/Black_Life/STM32Cube/Repository/STM32Cube_FW_F4_V1.26.2/Middlewares/Third_Party/LwIP/src/core\tcp.c **** #include "lwip/debug.h"
 110:c:/Users/Black_Life/STM32Cube/Repository/STM32Cube_FW_F4_V1.26.2/Middlewares/Third_Party/LwIP/src/core\tcp.c **** #include "lwip/stats.h"
 111:c:/Users/Black_Life/STM32Cube/Repository/STM32Cube_FW_F4_V1.26.2/Middlewares/Third_Party/LwIP/src/core\tcp.c **** #include "lwip/ip6.h"
 112:c:/Users/Black_Life/STM32Cube/Repository/STM32Cube_FW_F4_V1.26.2/Middlewares/Third_Party/LwIP/src/core\tcp.c **** #include "lwip/ip6_addr.h"
 113:c:/Users/Black_Life/STM32Cube/Repository/STM32Cube_FW_F4_V1.26.2/Middlewares/Third_Party/LwIP/src/core\tcp.c **** #include "lwip/nd6.h"
 114:c:/Users/Black_Life/STM32Cube/Repository/STM32Cube_FW_F4_V1.26.2/Middlewares/Third_Party/LwIP/src/core\tcp.c **** 
 115:c:/Users/Black_Life/STM32Cube/Repository/STM32Cube_FW_F4_V1.26.2/Middlewares/Third_Party/LwIP/src/core\tcp.c **** #include <string.h>
 116:c:/Users/Black_Life/STM32Cube/Repository/STM32Cube_FW_F4_V1.26.2/Middlewares/Third_Party/LwIP/src/core\tcp.c **** 
 117:c:/Users/Black_Life/STM32Cube/Repository/STM32Cube_FW_F4_V1.26.2/Middlewares/Third_Party/LwIP/src/core\tcp.c **** #ifdef LWIP_HOOK_FILENAME
 118:c:/Users/Black_Life/STM32Cube/Repository/STM32Cube_FW_F4_V1.26.2/Middlewares/Third_Party/LwIP/src/core\tcp.c **** #include LWIP_HOOK_FILENAME
 119:c:/Users/Black_Life/STM32Cube/Repository/STM32Cube_FW_F4_V1.26.2/Middlewares/Third_Party/LwIP/src/core\tcp.c **** #endif
 120:c:/Users/Black_Life/STM32Cube/Repository/STM32Cube_FW_F4_V1.26.2/Middlewares/Third_Party/LwIP/src/core\tcp.c **** 
 121:c:/Users/Black_Life/STM32Cube/Repository/STM32Cube_FW_F4_V1.26.2/Middlewares/Third_Party/LwIP/src/core\tcp.c **** #ifndef TCP_LOCAL_PORT_RANGE_START
 122:c:/Users/Black_Life/STM32Cube/Repository/STM32Cube_FW_F4_V1.26.2/Middlewares/Third_Party/LwIP/src/core\tcp.c **** /* From http://www.iana.org/assignments/port-numbers:
 123:c:/Users/Black_Life/STM32Cube/Repository/STM32Cube_FW_F4_V1.26.2/Middlewares/Third_Party/LwIP/src/core\tcp.c ****    "The Dynamic and/or Private Ports are those from 49152 through 65535" */
 124:c:/Users/Black_Life/STM32Cube/Repository/STM32Cube_FW_F4_V1.26.2/Middlewares/Third_Party/LwIP/src/core\tcp.c **** #define TCP_LOCAL_PORT_RANGE_START        0xc000
 125:c:/Users/Black_Life/STM32Cube/Repository/STM32Cube_FW_F4_V1.26.2/Middlewares/Third_Party/LwIP/src/core\tcp.c **** #define TCP_LOCAL_PORT_RANGE_END          0xffff
 126:c:/Users/Black_Life/STM32Cube/Repository/STM32Cube_FW_F4_V1.26.2/Middlewares/Third_Party/LwIP/src/core\tcp.c **** #define TCP_ENSURE_LOCAL_PORT_RANGE(port) ((u16_t)(((port) & (u16_t)~TCP_LOCAL_PORT_RANGE_START) + 
 127:c:/Users/Black_Life/STM32Cube/Repository/STM32Cube_FW_F4_V1.26.2/Middlewares/Third_Party/LwIP/src/core\tcp.c **** #endif
 128:c:/Users/Black_Life/STM32Cube/Repository/STM32Cube_FW_F4_V1.26.2/Middlewares/Third_Party/LwIP/src/core\tcp.c **** 
 129:c:/Users/Black_Life/STM32Cube/Repository/STM32Cube_FW_F4_V1.26.2/Middlewares/Third_Party/LwIP/src/core\tcp.c **** #if LWIP_TCP_KEEPALIVE
 130:c:/Users/Black_Life/STM32Cube/Repository/STM32Cube_FW_F4_V1.26.2/Middlewares/Third_Party/LwIP/src/core\tcp.c **** #define TCP_KEEP_DUR(pcb)   ((pcb)->keep_cnt * (pcb)->keep_intvl)
 131:c:/Users/Black_Life/STM32Cube/Repository/STM32Cube_FW_F4_V1.26.2/Middlewares/Third_Party/LwIP/src/core\tcp.c **** #define TCP_KEEP_INTVL(pcb) ((pcb)->keep_intvl)
 132:c:/Users/Black_Life/STM32Cube/Repository/STM32Cube_FW_F4_V1.26.2/Middlewares/Third_Party/LwIP/src/core\tcp.c **** #else /* LWIP_TCP_KEEPALIVE */
 133:c:/Users/Black_Life/STM32Cube/Repository/STM32Cube_FW_F4_V1.26.2/Middlewares/Third_Party/LwIP/src/core\tcp.c **** #define TCP_KEEP_DUR(pcb)   TCP_MAXIDLE
 134:c:/Users/Black_Life/STM32Cube/Repository/STM32Cube_FW_F4_V1.26.2/Middlewares/Third_Party/LwIP/src/core\tcp.c **** #define TCP_KEEP_INTVL(pcb) TCP_KEEPINTVL_DEFAULT
 135:c:/Users/Black_Life/STM32Cube/Repository/STM32Cube_FW_F4_V1.26.2/Middlewares/Third_Party/LwIP/src/core\tcp.c **** #endif /* LWIP_TCP_KEEPALIVE */
 136:c:/Users/Black_Life/STM32Cube/Repository/STM32Cube_FW_F4_V1.26.2/Middlewares/Third_Party/LwIP/src/core\tcp.c **** 
 137:c:/Users/Black_Life/STM32Cube/Repository/STM32Cube_FW_F4_V1.26.2/Middlewares/Third_Party/LwIP/src/core\tcp.c **** /* As initial send MSS, we use TCP_MSS but limit it to 536. */
 138:c:/Users/Black_Life/STM32Cube/Repository/STM32Cube_FW_F4_V1.26.2/Middlewares/Third_Party/LwIP/src/core\tcp.c **** #if TCP_MSS > 536
 139:c:/Users/Black_Life/STM32Cube/Repository/STM32Cube_FW_F4_V1.26.2/Middlewares/Third_Party/LwIP/src/core\tcp.c **** #define INITIAL_MSS 536
 140:c:/Users/Black_Life/STM32Cube/Repository/STM32Cube_FW_F4_V1.26.2/Middlewares/Third_Party/LwIP/src/core\tcp.c **** #else
 141:c:/Users/Black_Life/STM32Cube/Repository/STM32Cube_FW_F4_V1.26.2/Middlewares/Third_Party/LwIP/src/core\tcp.c **** #define INITIAL_MSS TCP_MSS
 142:c:/Users/Black_Life/STM32Cube/Repository/STM32Cube_FW_F4_V1.26.2/Middlewares/Third_Party/LwIP/src/core\tcp.c **** #endif
 143:c:/Users/Black_Life/STM32Cube/Repository/STM32Cube_FW_F4_V1.26.2/Middlewares/Third_Party/LwIP/src/core\tcp.c **** 
 144:c:/Users/Black_Life/STM32Cube/Repository/STM32Cube_FW_F4_V1.26.2/Middlewares/Third_Party/LwIP/src/core\tcp.c **** static const char *const tcp_state_str[] = {
 145:c:/Users/Black_Life/STM32Cube/Repository/STM32Cube_FW_F4_V1.26.2/Middlewares/Third_Party/LwIP/src/core\tcp.c ****   "CLOSED",
ARM GAS  C:\Users\BLACK_~1\AppData\Local\Temp\ccRovO0r.s 			page 4


 146:c:/Users/Black_Life/STM32Cube/Repository/STM32Cube_FW_F4_V1.26.2/Middlewares/Third_Party/LwIP/src/core\tcp.c ****   "LISTEN",
 147:c:/Users/Black_Life/STM32Cube/Repository/STM32Cube_FW_F4_V1.26.2/Middlewares/Third_Party/LwIP/src/core\tcp.c ****   "SYN_SENT",
 148:c:/Users/Black_Life/STM32Cube/Repository/STM32Cube_FW_F4_V1.26.2/Middlewares/Third_Party/LwIP/src/core\tcp.c ****   "SYN_RCVD",
 149:c:/Users/Black_Life/STM32Cube/Repository/STM32Cube_FW_F4_V1.26.2/Middlewares/Third_Party/LwIP/src/core\tcp.c ****   "ESTABLISHED",
 150:c:/Users/Black_Life/STM32Cube/Repository/STM32Cube_FW_F4_V1.26.2/Middlewares/Third_Party/LwIP/src/core\tcp.c ****   "FIN_WAIT_1",
 151:c:/Users/Black_Life/STM32Cube/Repository/STM32Cube_FW_F4_V1.26.2/Middlewares/Third_Party/LwIP/src/core\tcp.c ****   "FIN_WAIT_2",
 152:c:/Users/Black_Life/STM32Cube/Repository/STM32Cube_FW_F4_V1.26.2/Middlewares/Third_Party/LwIP/src/core\tcp.c ****   "CLOSE_WAIT",
 153:c:/Users/Black_Life/STM32Cube/Repository/STM32Cube_FW_F4_V1.26.2/Middlewares/Third_Party/LwIP/src/core\tcp.c ****   "CLOSING",
 154:c:/Users/Black_Life/STM32Cube/Repository/STM32Cube_FW_F4_V1.26.2/Middlewares/Third_Party/LwIP/src/core\tcp.c ****   "LAST_ACK",
 155:c:/Users/Black_Life/STM32Cube/Repository/STM32Cube_FW_F4_V1.26.2/Middlewares/Third_Party/LwIP/src/core\tcp.c ****   "TIME_WAIT"
 156:c:/Users/Black_Life/STM32Cube/Repository/STM32Cube_FW_F4_V1.26.2/Middlewares/Third_Party/LwIP/src/core\tcp.c **** };
 157:c:/Users/Black_Life/STM32Cube/Repository/STM32Cube_FW_F4_V1.26.2/Middlewares/Third_Party/LwIP/src/core\tcp.c **** 
 158:c:/Users/Black_Life/STM32Cube/Repository/STM32Cube_FW_F4_V1.26.2/Middlewares/Third_Party/LwIP/src/core\tcp.c **** /* last local TCP port */
 159:c:/Users/Black_Life/STM32Cube/Repository/STM32Cube_FW_F4_V1.26.2/Middlewares/Third_Party/LwIP/src/core\tcp.c **** static u16_t tcp_port = TCP_LOCAL_PORT_RANGE_START;
 160:c:/Users/Black_Life/STM32Cube/Repository/STM32Cube_FW_F4_V1.26.2/Middlewares/Third_Party/LwIP/src/core\tcp.c **** 
 161:c:/Users/Black_Life/STM32Cube/Repository/STM32Cube_FW_F4_V1.26.2/Middlewares/Third_Party/LwIP/src/core\tcp.c **** /* Incremented every coarse grained timer shot (typically every 500 ms). */
 162:c:/Users/Black_Life/STM32Cube/Repository/STM32Cube_FW_F4_V1.26.2/Middlewares/Third_Party/LwIP/src/core\tcp.c **** u32_t tcp_ticks;
 163:c:/Users/Black_Life/STM32Cube/Repository/STM32Cube_FW_F4_V1.26.2/Middlewares/Third_Party/LwIP/src/core\tcp.c **** static const u8_t tcp_backoff[13] =
 164:c:/Users/Black_Life/STM32Cube/Repository/STM32Cube_FW_F4_V1.26.2/Middlewares/Third_Party/LwIP/src/core\tcp.c **** { 1, 2, 3, 4, 5, 6, 7, 7, 7, 7, 7, 7, 7};
 165:c:/Users/Black_Life/STM32Cube/Repository/STM32Cube_FW_F4_V1.26.2/Middlewares/Third_Party/LwIP/src/core\tcp.c **** /* Times per slowtmr hits */
 166:c:/Users/Black_Life/STM32Cube/Repository/STM32Cube_FW_F4_V1.26.2/Middlewares/Third_Party/LwIP/src/core\tcp.c **** static const u8_t tcp_persist_backoff[7] = { 3, 6, 12, 24, 48, 96, 120 };
 167:c:/Users/Black_Life/STM32Cube/Repository/STM32Cube_FW_F4_V1.26.2/Middlewares/Third_Party/LwIP/src/core\tcp.c **** 
 168:c:/Users/Black_Life/STM32Cube/Repository/STM32Cube_FW_F4_V1.26.2/Middlewares/Third_Party/LwIP/src/core\tcp.c **** /* The TCP PCB lists. */
 169:c:/Users/Black_Life/STM32Cube/Repository/STM32Cube_FW_F4_V1.26.2/Middlewares/Third_Party/LwIP/src/core\tcp.c **** 
 170:c:/Users/Black_Life/STM32Cube/Repository/STM32Cube_FW_F4_V1.26.2/Middlewares/Third_Party/LwIP/src/core\tcp.c **** /** List of all TCP PCBs bound but not yet (connected || listening) */
 171:c:/Users/Black_Life/STM32Cube/Repository/STM32Cube_FW_F4_V1.26.2/Middlewares/Third_Party/LwIP/src/core\tcp.c **** struct tcp_pcb *tcp_bound_pcbs;
 172:c:/Users/Black_Life/STM32Cube/Repository/STM32Cube_FW_F4_V1.26.2/Middlewares/Third_Party/LwIP/src/core\tcp.c **** /** List of all TCP PCBs in LISTEN state */
 173:c:/Users/Black_Life/STM32Cube/Repository/STM32Cube_FW_F4_V1.26.2/Middlewares/Third_Party/LwIP/src/core\tcp.c **** union tcp_listen_pcbs_t tcp_listen_pcbs;
 174:c:/Users/Black_Life/STM32Cube/Repository/STM32Cube_FW_F4_V1.26.2/Middlewares/Third_Party/LwIP/src/core\tcp.c **** /** List of all TCP PCBs that are in a state in which
 175:c:/Users/Black_Life/STM32Cube/Repository/STM32Cube_FW_F4_V1.26.2/Middlewares/Third_Party/LwIP/src/core\tcp.c ****  * they accept or send data. */
 176:c:/Users/Black_Life/STM32Cube/Repository/STM32Cube_FW_F4_V1.26.2/Middlewares/Third_Party/LwIP/src/core\tcp.c **** struct tcp_pcb *tcp_active_pcbs;
 177:c:/Users/Black_Life/STM32Cube/Repository/STM32Cube_FW_F4_V1.26.2/Middlewares/Third_Party/LwIP/src/core\tcp.c **** /** List of all TCP PCBs in TIME-WAIT state */
 178:c:/Users/Black_Life/STM32Cube/Repository/STM32Cube_FW_F4_V1.26.2/Middlewares/Third_Party/LwIP/src/core\tcp.c **** struct tcp_pcb *tcp_tw_pcbs;
 179:c:/Users/Black_Life/STM32Cube/Repository/STM32Cube_FW_F4_V1.26.2/Middlewares/Third_Party/LwIP/src/core\tcp.c **** 
 180:c:/Users/Black_Life/STM32Cube/Repository/STM32Cube_FW_F4_V1.26.2/Middlewares/Third_Party/LwIP/src/core\tcp.c **** /** An array with all (non-temporary) PCB lists, mainly used for smaller code size */
 181:c:/Users/Black_Life/STM32Cube/Repository/STM32Cube_FW_F4_V1.26.2/Middlewares/Third_Party/LwIP/src/core\tcp.c **** struct tcp_pcb **const tcp_pcb_lists[] = {&tcp_listen_pcbs.pcbs, &tcp_bound_pcbs,
 182:c:/Users/Black_Life/STM32Cube/Repository/STM32Cube_FW_F4_V1.26.2/Middlewares/Third_Party/LwIP/src/core\tcp.c ****          &tcp_active_pcbs, &tcp_tw_pcbs
 183:c:/Users/Black_Life/STM32Cube/Repository/STM32Cube_FW_F4_V1.26.2/Middlewares/Third_Party/LwIP/src/core\tcp.c **** };
 184:c:/Users/Black_Life/STM32Cube/Repository/STM32Cube_FW_F4_V1.26.2/Middlewares/Third_Party/LwIP/src/core\tcp.c **** 
 185:c:/Users/Black_Life/STM32Cube/Repository/STM32Cube_FW_F4_V1.26.2/Middlewares/Third_Party/LwIP/src/core\tcp.c **** u8_t tcp_active_pcbs_changed;
 186:c:/Users/Black_Life/STM32Cube/Repository/STM32Cube_FW_F4_V1.26.2/Middlewares/Third_Party/LwIP/src/core\tcp.c **** 
 187:c:/Users/Black_Life/STM32Cube/Repository/STM32Cube_FW_F4_V1.26.2/Middlewares/Third_Party/LwIP/src/core\tcp.c **** /** Timer counter to handle calling slow-timer from tcp_tmr() */
 188:c:/Users/Black_Life/STM32Cube/Repository/STM32Cube_FW_F4_V1.26.2/Middlewares/Third_Party/LwIP/src/core\tcp.c **** static u8_t tcp_timer;
 189:c:/Users/Black_Life/STM32Cube/Repository/STM32Cube_FW_F4_V1.26.2/Middlewares/Third_Party/LwIP/src/core\tcp.c **** static u8_t tcp_timer_ctr;
 190:c:/Users/Black_Life/STM32Cube/Repository/STM32Cube_FW_F4_V1.26.2/Middlewares/Third_Party/LwIP/src/core\tcp.c **** static u16_t tcp_new_port(void);
 191:c:/Users/Black_Life/STM32Cube/Repository/STM32Cube_FW_F4_V1.26.2/Middlewares/Third_Party/LwIP/src/core\tcp.c **** 
 192:c:/Users/Black_Life/STM32Cube/Repository/STM32Cube_FW_F4_V1.26.2/Middlewares/Third_Party/LwIP/src/core\tcp.c **** static err_t tcp_close_shutdown_fin(struct tcp_pcb *pcb);
 193:c:/Users/Black_Life/STM32Cube/Repository/STM32Cube_FW_F4_V1.26.2/Middlewares/Third_Party/LwIP/src/core\tcp.c **** #if LWIP_TCP_PCB_NUM_EXT_ARGS
 194:c:/Users/Black_Life/STM32Cube/Repository/STM32Cube_FW_F4_V1.26.2/Middlewares/Third_Party/LwIP/src/core\tcp.c **** static void tcp_ext_arg_invoke_callbacks_destroyed(struct tcp_pcb_ext_args *ext_args);
 195:c:/Users/Black_Life/STM32Cube/Repository/STM32Cube_FW_F4_V1.26.2/Middlewares/Third_Party/LwIP/src/core\tcp.c **** #endif
 196:c:/Users/Black_Life/STM32Cube/Repository/STM32Cube_FW_F4_V1.26.2/Middlewares/Third_Party/LwIP/src/core\tcp.c **** 
 197:c:/Users/Black_Life/STM32Cube/Repository/STM32Cube_FW_F4_V1.26.2/Middlewares/Third_Party/LwIP/src/core\tcp.c **** /**
 198:c:/Users/Black_Life/STM32Cube/Repository/STM32Cube_FW_F4_V1.26.2/Middlewares/Third_Party/LwIP/src/core\tcp.c ****  * Initialize this module.
 199:c:/Users/Black_Life/STM32Cube/Repository/STM32Cube_FW_F4_V1.26.2/Middlewares/Third_Party/LwIP/src/core\tcp.c ****  */
 200:c:/Users/Black_Life/STM32Cube/Repository/STM32Cube_FW_F4_V1.26.2/Middlewares/Third_Party/LwIP/src/core\tcp.c **** void
 201:c:/Users/Black_Life/STM32Cube/Repository/STM32Cube_FW_F4_V1.26.2/Middlewares/Third_Party/LwIP/src/core\tcp.c **** tcp_init(void)
 202:c:/Users/Black_Life/STM32Cube/Repository/STM32Cube_FW_F4_V1.26.2/Middlewares/Third_Party/LwIP/src/core\tcp.c **** {
ARM GAS  C:\Users\BLACK_~1\AppData\Local\Temp\ccRovO0r.s 			page 5


 203:c:/Users/Black_Life/STM32Cube/Repository/STM32Cube_FW_F4_V1.26.2/Middlewares/Third_Party/LwIP/src/core\tcp.c **** #ifdef LWIP_RAND
 204:c:/Users/Black_Life/STM32Cube/Repository/STM32Cube_FW_F4_V1.26.2/Middlewares/Third_Party/LwIP/src/core\tcp.c ****   tcp_port = TCP_ENSURE_LOCAL_PORT_RANGE(LWIP_RAND());
 205:c:/Users/Black_Life/STM32Cube/Repository/STM32Cube_FW_F4_V1.26.2/Middlewares/Third_Party/LwIP/src/core\tcp.c **** #endif /* LWIP_RAND */
 206:c:/Users/Black_Life/STM32Cube/Repository/STM32Cube_FW_F4_V1.26.2/Middlewares/Third_Party/LwIP/src/core\tcp.c **** }
 207:c:/Users/Black_Life/STM32Cube/Repository/STM32Cube_FW_F4_V1.26.2/Middlewares/Third_Party/LwIP/src/core\tcp.c **** 
 208:c:/Users/Black_Life/STM32Cube/Repository/STM32Cube_FW_F4_V1.26.2/Middlewares/Third_Party/LwIP/src/core\tcp.c **** /** Free a tcp pcb */
 209:c:/Users/Black_Life/STM32Cube/Repository/STM32Cube_FW_F4_V1.26.2/Middlewares/Third_Party/LwIP/src/core\tcp.c **** void
 210:c:/Users/Black_Life/STM32Cube/Repository/STM32Cube_FW_F4_V1.26.2/Middlewares/Third_Party/LwIP/src/core\tcp.c **** tcp_free(struct tcp_pcb *pcb)
 211:c:/Users/Black_Life/STM32Cube/Repository/STM32Cube_FW_F4_V1.26.2/Middlewares/Third_Party/LwIP/src/core\tcp.c **** {
 212:c:/Users/Black_Life/STM32Cube/Repository/STM32Cube_FW_F4_V1.26.2/Middlewares/Third_Party/LwIP/src/core\tcp.c ****   LWIP_ASSERT("tcp_free: LISTEN", pcb->state != LISTEN);
 213:c:/Users/Black_Life/STM32Cube/Repository/STM32Cube_FW_F4_V1.26.2/Middlewares/Third_Party/LwIP/src/core\tcp.c **** #if LWIP_TCP_PCB_NUM_EXT_ARGS
 214:c:/Users/Black_Life/STM32Cube/Repository/STM32Cube_FW_F4_V1.26.2/Middlewares/Third_Party/LwIP/src/core\tcp.c ****   tcp_ext_arg_invoke_callbacks_destroyed(pcb->ext_args);
 215:c:/Users/Black_Life/STM32Cube/Repository/STM32Cube_FW_F4_V1.26.2/Middlewares/Third_Party/LwIP/src/core\tcp.c **** #endif
 216:c:/Users/Black_Life/STM32Cube/Repository/STM32Cube_FW_F4_V1.26.2/Middlewares/Third_Party/LwIP/src/core\tcp.c ****   memp_free(MEMP_TCP_PCB, pcb);
 217:c:/Users/Black_Life/STM32Cube/Repository/STM32Cube_FW_F4_V1.26.2/Middlewares/Third_Party/LwIP/src/core\tcp.c **** }
 218:c:/Users/Black_Life/STM32Cube/Repository/STM32Cube_FW_F4_V1.26.2/Middlewares/Third_Party/LwIP/src/core\tcp.c **** 
 219:c:/Users/Black_Life/STM32Cube/Repository/STM32Cube_FW_F4_V1.26.2/Middlewares/Third_Party/LwIP/src/core\tcp.c **** /** Free a tcp listen pcb */
 220:c:/Users/Black_Life/STM32Cube/Repository/STM32Cube_FW_F4_V1.26.2/Middlewares/Third_Party/LwIP/src/core\tcp.c **** static void
 221:c:/Users/Black_Life/STM32Cube/Repository/STM32Cube_FW_F4_V1.26.2/Middlewares/Third_Party/LwIP/src/core\tcp.c **** tcp_free_listen(struct tcp_pcb *pcb)
 222:c:/Users/Black_Life/STM32Cube/Repository/STM32Cube_FW_F4_V1.26.2/Middlewares/Third_Party/LwIP/src/core\tcp.c **** {
 223:c:/Users/Black_Life/STM32Cube/Repository/STM32Cube_FW_F4_V1.26.2/Middlewares/Third_Party/LwIP/src/core\tcp.c ****   LWIP_ASSERT("tcp_free_listen: !LISTEN", pcb->state != LISTEN);
 224:c:/Users/Black_Life/STM32Cube/Repository/STM32Cube_FW_F4_V1.26.2/Middlewares/Third_Party/LwIP/src/core\tcp.c **** #if LWIP_TCP_PCB_NUM_EXT_ARGS
 225:c:/Users/Black_Life/STM32Cube/Repository/STM32Cube_FW_F4_V1.26.2/Middlewares/Third_Party/LwIP/src/core\tcp.c ****   tcp_ext_arg_invoke_callbacks_destroyed(pcb->ext_args);
 226:c:/Users/Black_Life/STM32Cube/Repository/STM32Cube_FW_F4_V1.26.2/Middlewares/Third_Party/LwIP/src/core\tcp.c **** #endif
 227:c:/Users/Black_Life/STM32Cube/Repository/STM32Cube_FW_F4_V1.26.2/Middlewares/Third_Party/LwIP/src/core\tcp.c ****   memp_free(MEMP_TCP_PCB_LISTEN, pcb);
 228:c:/Users/Black_Life/STM32Cube/Repository/STM32Cube_FW_F4_V1.26.2/Middlewares/Third_Party/LwIP/src/core\tcp.c **** }
 229:c:/Users/Black_Life/STM32Cube/Repository/STM32Cube_FW_F4_V1.26.2/Middlewares/Third_Party/LwIP/src/core\tcp.c **** 
 230:c:/Users/Black_Life/STM32Cube/Repository/STM32Cube_FW_F4_V1.26.2/Middlewares/Third_Party/LwIP/src/core\tcp.c **** /**
 231:c:/Users/Black_Life/STM32Cube/Repository/STM32Cube_FW_F4_V1.26.2/Middlewares/Third_Party/LwIP/src/core\tcp.c ****  * Called periodically to dispatch TCP timers.
 232:c:/Users/Black_Life/STM32Cube/Repository/STM32Cube_FW_F4_V1.26.2/Middlewares/Third_Party/LwIP/src/core\tcp.c ****  */
 233:c:/Users/Black_Life/STM32Cube/Repository/STM32Cube_FW_F4_V1.26.2/Middlewares/Third_Party/LwIP/src/core\tcp.c **** void
 234:c:/Users/Black_Life/STM32Cube/Repository/STM32Cube_FW_F4_V1.26.2/Middlewares/Third_Party/LwIP/src/core\tcp.c **** tcp_tmr(void)
 235:c:/Users/Black_Life/STM32Cube/Repository/STM32Cube_FW_F4_V1.26.2/Middlewares/Third_Party/LwIP/src/core\tcp.c **** {
 236:c:/Users/Black_Life/STM32Cube/Repository/STM32Cube_FW_F4_V1.26.2/Middlewares/Third_Party/LwIP/src/core\tcp.c ****   /* Call tcp_fasttmr() every 250 ms */
 237:c:/Users/Black_Life/STM32Cube/Repository/STM32Cube_FW_F4_V1.26.2/Middlewares/Third_Party/LwIP/src/core\tcp.c ****   tcp_fasttmr();
 238:c:/Users/Black_Life/STM32Cube/Repository/STM32Cube_FW_F4_V1.26.2/Middlewares/Third_Party/LwIP/src/core\tcp.c **** 
 239:c:/Users/Black_Life/STM32Cube/Repository/STM32Cube_FW_F4_V1.26.2/Middlewares/Third_Party/LwIP/src/core\tcp.c ****   if (++tcp_timer & 1) {
 240:c:/Users/Black_Life/STM32Cube/Repository/STM32Cube_FW_F4_V1.26.2/Middlewares/Third_Party/LwIP/src/core\tcp.c ****     /* Call tcp_slowtmr() every 500 ms, i.e., every other timer
 241:c:/Users/Black_Life/STM32Cube/Repository/STM32Cube_FW_F4_V1.26.2/Middlewares/Third_Party/LwIP/src/core\tcp.c ****        tcp_tmr() is called. */
 242:c:/Users/Black_Life/STM32Cube/Repository/STM32Cube_FW_F4_V1.26.2/Middlewares/Third_Party/LwIP/src/core\tcp.c ****     tcp_slowtmr();
 243:c:/Users/Black_Life/STM32Cube/Repository/STM32Cube_FW_F4_V1.26.2/Middlewares/Third_Party/LwIP/src/core\tcp.c ****   }
 244:c:/Users/Black_Life/STM32Cube/Repository/STM32Cube_FW_F4_V1.26.2/Middlewares/Third_Party/LwIP/src/core\tcp.c **** }
 245:c:/Users/Black_Life/STM32Cube/Repository/STM32Cube_FW_F4_V1.26.2/Middlewares/Third_Party/LwIP/src/core\tcp.c **** 
 246:c:/Users/Black_Life/STM32Cube/Repository/STM32Cube_FW_F4_V1.26.2/Middlewares/Third_Party/LwIP/src/core\tcp.c **** #if LWIP_CALLBACK_API || TCP_LISTEN_BACKLOG
 247:c:/Users/Black_Life/STM32Cube/Repository/STM32Cube_FW_F4_V1.26.2/Middlewares/Third_Party/LwIP/src/core\tcp.c **** /** Called when a listen pcb is closed. Iterates one pcb list and removes the
 248:c:/Users/Black_Life/STM32Cube/Repository/STM32Cube_FW_F4_V1.26.2/Middlewares/Third_Party/LwIP/src/core\tcp.c ****  * closed listener pcb from pcb->listener if matching.
 249:c:/Users/Black_Life/STM32Cube/Repository/STM32Cube_FW_F4_V1.26.2/Middlewares/Third_Party/LwIP/src/core\tcp.c ****  */
 250:c:/Users/Black_Life/STM32Cube/Repository/STM32Cube_FW_F4_V1.26.2/Middlewares/Third_Party/LwIP/src/core\tcp.c **** static void
 251:c:/Users/Black_Life/STM32Cube/Repository/STM32Cube_FW_F4_V1.26.2/Middlewares/Third_Party/LwIP/src/core\tcp.c **** tcp_remove_listener(struct tcp_pcb *list, struct tcp_pcb_listen *lpcb)
 252:c:/Users/Black_Life/STM32Cube/Repository/STM32Cube_FW_F4_V1.26.2/Middlewares/Third_Party/LwIP/src/core\tcp.c **** {
 253:c:/Users/Black_Life/STM32Cube/Repository/STM32Cube_FW_F4_V1.26.2/Middlewares/Third_Party/LwIP/src/core\tcp.c ****   struct tcp_pcb *pcb;
 254:c:/Users/Black_Life/STM32Cube/Repository/STM32Cube_FW_F4_V1.26.2/Middlewares/Third_Party/LwIP/src/core\tcp.c **** 
 255:c:/Users/Black_Life/STM32Cube/Repository/STM32Cube_FW_F4_V1.26.2/Middlewares/Third_Party/LwIP/src/core\tcp.c ****   LWIP_ASSERT("tcp_remove_listener: invalid listener", lpcb != NULL);
 256:c:/Users/Black_Life/STM32Cube/Repository/STM32Cube_FW_F4_V1.26.2/Middlewares/Third_Party/LwIP/src/core\tcp.c **** 
 257:c:/Users/Black_Life/STM32Cube/Repository/STM32Cube_FW_F4_V1.26.2/Middlewares/Third_Party/LwIP/src/core\tcp.c ****   for (pcb = list; pcb != NULL; pcb = pcb->next) {
 258:c:/Users/Black_Life/STM32Cube/Repository/STM32Cube_FW_F4_V1.26.2/Middlewares/Third_Party/LwIP/src/core\tcp.c ****     if (pcb->listener == lpcb) {
 259:c:/Users/Black_Life/STM32Cube/Repository/STM32Cube_FW_F4_V1.26.2/Middlewares/Third_Party/LwIP/src/core\tcp.c ****       pcb->listener = NULL;
ARM GAS  C:\Users\BLACK_~1\AppData\Local\Temp\ccRovO0r.s 			page 6


 260:c:/Users/Black_Life/STM32Cube/Repository/STM32Cube_FW_F4_V1.26.2/Middlewares/Third_Party/LwIP/src/core\tcp.c ****     }
 261:c:/Users/Black_Life/STM32Cube/Repository/STM32Cube_FW_F4_V1.26.2/Middlewares/Third_Party/LwIP/src/core\tcp.c ****   }
 262:c:/Users/Black_Life/STM32Cube/Repository/STM32Cube_FW_F4_V1.26.2/Middlewares/Third_Party/LwIP/src/core\tcp.c **** }
 263:c:/Users/Black_Life/STM32Cube/Repository/STM32Cube_FW_F4_V1.26.2/Middlewares/Third_Party/LwIP/src/core\tcp.c **** #endif
 264:c:/Users/Black_Life/STM32Cube/Repository/STM32Cube_FW_F4_V1.26.2/Middlewares/Third_Party/LwIP/src/core\tcp.c **** 
 265:c:/Users/Black_Life/STM32Cube/Repository/STM32Cube_FW_F4_V1.26.2/Middlewares/Third_Party/LwIP/src/core\tcp.c **** /** Called when a listen pcb is closed. Iterates all pcb lists and removes the
 266:c:/Users/Black_Life/STM32Cube/Repository/STM32Cube_FW_F4_V1.26.2/Middlewares/Third_Party/LwIP/src/core\tcp.c ****  * closed listener pcb from pcb->listener if matching.
 267:c:/Users/Black_Life/STM32Cube/Repository/STM32Cube_FW_F4_V1.26.2/Middlewares/Third_Party/LwIP/src/core\tcp.c ****  */
 268:c:/Users/Black_Life/STM32Cube/Repository/STM32Cube_FW_F4_V1.26.2/Middlewares/Third_Party/LwIP/src/core\tcp.c **** static void
 269:c:/Users/Black_Life/STM32Cube/Repository/STM32Cube_FW_F4_V1.26.2/Middlewares/Third_Party/LwIP/src/core\tcp.c **** tcp_listen_closed(struct tcp_pcb *pcb)
 270:c:/Users/Black_Life/STM32Cube/Repository/STM32Cube_FW_F4_V1.26.2/Middlewares/Third_Party/LwIP/src/core\tcp.c **** {
 271:c:/Users/Black_Life/STM32Cube/Repository/STM32Cube_FW_F4_V1.26.2/Middlewares/Third_Party/LwIP/src/core\tcp.c **** #if LWIP_CALLBACK_API || TCP_LISTEN_BACKLOG
 272:c:/Users/Black_Life/STM32Cube/Repository/STM32Cube_FW_F4_V1.26.2/Middlewares/Third_Party/LwIP/src/core\tcp.c ****   size_t i;
 273:c:/Users/Black_Life/STM32Cube/Repository/STM32Cube_FW_F4_V1.26.2/Middlewares/Third_Party/LwIP/src/core\tcp.c ****   LWIP_ASSERT("pcb != NULL", pcb != NULL);
 274:c:/Users/Black_Life/STM32Cube/Repository/STM32Cube_FW_F4_V1.26.2/Middlewares/Third_Party/LwIP/src/core\tcp.c ****   LWIP_ASSERT("pcb->state == LISTEN", pcb->state == LISTEN);
 275:c:/Users/Black_Life/STM32Cube/Repository/STM32Cube_FW_F4_V1.26.2/Middlewares/Third_Party/LwIP/src/core\tcp.c ****   for (i = 1; i < LWIP_ARRAYSIZE(tcp_pcb_lists); i++) {
 276:c:/Users/Black_Life/STM32Cube/Repository/STM32Cube_FW_F4_V1.26.2/Middlewares/Third_Party/LwIP/src/core\tcp.c ****     tcp_remove_listener(*tcp_pcb_lists[i], (struct tcp_pcb_listen *)pcb);
 277:c:/Users/Black_Life/STM32Cube/Repository/STM32Cube_FW_F4_V1.26.2/Middlewares/Third_Party/LwIP/src/core\tcp.c ****   }
 278:c:/Users/Black_Life/STM32Cube/Repository/STM32Cube_FW_F4_V1.26.2/Middlewares/Third_Party/LwIP/src/core\tcp.c **** #endif
 279:c:/Users/Black_Life/STM32Cube/Repository/STM32Cube_FW_F4_V1.26.2/Middlewares/Third_Party/LwIP/src/core\tcp.c ****   LWIP_UNUSED_ARG(pcb);
 280:c:/Users/Black_Life/STM32Cube/Repository/STM32Cube_FW_F4_V1.26.2/Middlewares/Third_Party/LwIP/src/core\tcp.c **** }
 281:c:/Users/Black_Life/STM32Cube/Repository/STM32Cube_FW_F4_V1.26.2/Middlewares/Third_Party/LwIP/src/core\tcp.c **** 
 282:c:/Users/Black_Life/STM32Cube/Repository/STM32Cube_FW_F4_V1.26.2/Middlewares/Third_Party/LwIP/src/core\tcp.c **** #if TCP_LISTEN_BACKLOG
 283:c:/Users/Black_Life/STM32Cube/Repository/STM32Cube_FW_F4_V1.26.2/Middlewares/Third_Party/LwIP/src/core\tcp.c **** /** @ingroup tcp_raw
 284:c:/Users/Black_Life/STM32Cube/Repository/STM32Cube_FW_F4_V1.26.2/Middlewares/Third_Party/LwIP/src/core\tcp.c ****  * Delay accepting a connection in respect to the listen backlog:
 285:c:/Users/Black_Life/STM32Cube/Repository/STM32Cube_FW_F4_V1.26.2/Middlewares/Third_Party/LwIP/src/core\tcp.c ****  * the number of outstanding connections is increased until
 286:c:/Users/Black_Life/STM32Cube/Repository/STM32Cube_FW_F4_V1.26.2/Middlewares/Third_Party/LwIP/src/core\tcp.c ****  * tcp_backlog_accepted() is called.
 287:c:/Users/Black_Life/STM32Cube/Repository/STM32Cube_FW_F4_V1.26.2/Middlewares/Third_Party/LwIP/src/core\tcp.c ****  *
 288:c:/Users/Black_Life/STM32Cube/Repository/STM32Cube_FW_F4_V1.26.2/Middlewares/Third_Party/LwIP/src/core\tcp.c ****  * ATTENTION: the caller is responsible for calling tcp_backlog_accepted()
 289:c:/Users/Black_Life/STM32Cube/Repository/STM32Cube_FW_F4_V1.26.2/Middlewares/Third_Party/LwIP/src/core\tcp.c ****  * or else the backlog feature will get out of sync!
 290:c:/Users/Black_Life/STM32Cube/Repository/STM32Cube_FW_F4_V1.26.2/Middlewares/Third_Party/LwIP/src/core\tcp.c ****  *
 291:c:/Users/Black_Life/STM32Cube/Repository/STM32Cube_FW_F4_V1.26.2/Middlewares/Third_Party/LwIP/src/core\tcp.c ****  * @param pcb the connection pcb which is not fully accepted yet
 292:c:/Users/Black_Life/STM32Cube/Repository/STM32Cube_FW_F4_V1.26.2/Middlewares/Third_Party/LwIP/src/core\tcp.c ****  */
 293:c:/Users/Black_Life/STM32Cube/Repository/STM32Cube_FW_F4_V1.26.2/Middlewares/Third_Party/LwIP/src/core\tcp.c **** void
 294:c:/Users/Black_Life/STM32Cube/Repository/STM32Cube_FW_F4_V1.26.2/Middlewares/Third_Party/LwIP/src/core\tcp.c **** tcp_backlog_delayed(struct tcp_pcb *pcb)
 295:c:/Users/Black_Life/STM32Cube/Repository/STM32Cube_FW_F4_V1.26.2/Middlewares/Third_Party/LwIP/src/core\tcp.c **** {
 296:c:/Users/Black_Life/STM32Cube/Repository/STM32Cube_FW_F4_V1.26.2/Middlewares/Third_Party/LwIP/src/core\tcp.c ****   LWIP_ASSERT("pcb != NULL", pcb != NULL);
 297:c:/Users/Black_Life/STM32Cube/Repository/STM32Cube_FW_F4_V1.26.2/Middlewares/Third_Party/LwIP/src/core\tcp.c ****   LWIP_ASSERT_CORE_LOCKED();
 298:c:/Users/Black_Life/STM32Cube/Repository/STM32Cube_FW_F4_V1.26.2/Middlewares/Third_Party/LwIP/src/core\tcp.c ****   if ((pcb->flags & TF_BACKLOGPEND) == 0) {
 299:c:/Users/Black_Life/STM32Cube/Repository/STM32Cube_FW_F4_V1.26.2/Middlewares/Third_Party/LwIP/src/core\tcp.c ****     if (pcb->listener != NULL) {
 300:c:/Users/Black_Life/STM32Cube/Repository/STM32Cube_FW_F4_V1.26.2/Middlewares/Third_Party/LwIP/src/core\tcp.c ****       pcb->listener->accepts_pending++;
 301:c:/Users/Black_Life/STM32Cube/Repository/STM32Cube_FW_F4_V1.26.2/Middlewares/Third_Party/LwIP/src/core\tcp.c ****       LWIP_ASSERT("accepts_pending != 0", pcb->listener->accepts_pending != 0);
 302:c:/Users/Black_Life/STM32Cube/Repository/STM32Cube_FW_F4_V1.26.2/Middlewares/Third_Party/LwIP/src/core\tcp.c ****       tcp_set_flags(pcb, TF_BACKLOGPEND);
 303:c:/Users/Black_Life/STM32Cube/Repository/STM32Cube_FW_F4_V1.26.2/Middlewares/Third_Party/LwIP/src/core\tcp.c ****     }
 304:c:/Users/Black_Life/STM32Cube/Repository/STM32Cube_FW_F4_V1.26.2/Middlewares/Third_Party/LwIP/src/core\tcp.c ****   }
 305:c:/Users/Black_Life/STM32Cube/Repository/STM32Cube_FW_F4_V1.26.2/Middlewares/Third_Party/LwIP/src/core\tcp.c **** }
 306:c:/Users/Black_Life/STM32Cube/Repository/STM32Cube_FW_F4_V1.26.2/Middlewares/Third_Party/LwIP/src/core\tcp.c **** 
 307:c:/Users/Black_Life/STM32Cube/Repository/STM32Cube_FW_F4_V1.26.2/Middlewares/Third_Party/LwIP/src/core\tcp.c **** /** @ingroup tcp_raw
 308:c:/Users/Black_Life/STM32Cube/Repository/STM32Cube_FW_F4_V1.26.2/Middlewares/Third_Party/LwIP/src/core\tcp.c ****  * A delayed-accept a connection is accepted (or closed/aborted): decreases
 309:c:/Users/Black_Life/STM32Cube/Repository/STM32Cube_FW_F4_V1.26.2/Middlewares/Third_Party/LwIP/src/core\tcp.c ****  * the number of outstanding connections after calling tcp_backlog_delayed().
 310:c:/Users/Black_Life/STM32Cube/Repository/STM32Cube_FW_F4_V1.26.2/Middlewares/Third_Party/LwIP/src/core\tcp.c ****  *
 311:c:/Users/Black_Life/STM32Cube/Repository/STM32Cube_FW_F4_V1.26.2/Middlewares/Third_Party/LwIP/src/core\tcp.c ****  * ATTENTION: the caller is responsible for calling tcp_backlog_accepted()
 312:c:/Users/Black_Life/STM32Cube/Repository/STM32Cube_FW_F4_V1.26.2/Middlewares/Third_Party/LwIP/src/core\tcp.c ****  * or else the backlog feature will get out of sync!
 313:c:/Users/Black_Life/STM32Cube/Repository/STM32Cube_FW_F4_V1.26.2/Middlewares/Third_Party/LwIP/src/core\tcp.c ****  *
 314:c:/Users/Black_Life/STM32Cube/Repository/STM32Cube_FW_F4_V1.26.2/Middlewares/Third_Party/LwIP/src/core\tcp.c ****  * @param pcb the connection pcb which is now fully accepted (or closed/aborted)
 315:c:/Users/Black_Life/STM32Cube/Repository/STM32Cube_FW_F4_V1.26.2/Middlewares/Third_Party/LwIP/src/core\tcp.c ****  */
 316:c:/Users/Black_Life/STM32Cube/Repository/STM32Cube_FW_F4_V1.26.2/Middlewares/Third_Party/LwIP/src/core\tcp.c **** void
ARM GAS  C:\Users\BLACK_~1\AppData\Local\Temp\ccRovO0r.s 			page 7


 317:c:/Users/Black_Life/STM32Cube/Repository/STM32Cube_FW_F4_V1.26.2/Middlewares/Third_Party/LwIP/src/core\tcp.c **** tcp_backlog_accepted(struct tcp_pcb *pcb)
 318:c:/Users/Black_Life/STM32Cube/Repository/STM32Cube_FW_F4_V1.26.2/Middlewares/Third_Party/LwIP/src/core\tcp.c **** {
 319:c:/Users/Black_Life/STM32Cube/Repository/STM32Cube_FW_F4_V1.26.2/Middlewares/Third_Party/LwIP/src/core\tcp.c ****   LWIP_ASSERT("pcb != NULL", pcb != NULL);
 320:c:/Users/Black_Life/STM32Cube/Repository/STM32Cube_FW_F4_V1.26.2/Middlewares/Third_Party/LwIP/src/core\tcp.c ****   LWIP_ASSERT_CORE_LOCKED();
 321:c:/Users/Black_Life/STM32Cube/Repository/STM32Cube_FW_F4_V1.26.2/Middlewares/Third_Party/LwIP/src/core\tcp.c ****   if ((pcb->flags & TF_BACKLOGPEND) != 0) {
 322:c:/Users/Black_Life/STM32Cube/Repository/STM32Cube_FW_F4_V1.26.2/Middlewares/Third_Party/LwIP/src/core\tcp.c ****     if (pcb->listener != NULL) {
 323:c:/Users/Black_Life/STM32Cube/Repository/STM32Cube_FW_F4_V1.26.2/Middlewares/Third_Party/LwIP/src/core\tcp.c ****       LWIP_ASSERT("accepts_pending != 0", pcb->listener->accepts_pending != 0);
 324:c:/Users/Black_Life/STM32Cube/Repository/STM32Cube_FW_F4_V1.26.2/Middlewares/Third_Party/LwIP/src/core\tcp.c ****       pcb->listener->accepts_pending--;
 325:c:/Users/Black_Life/STM32Cube/Repository/STM32Cube_FW_F4_V1.26.2/Middlewares/Third_Party/LwIP/src/core\tcp.c ****       tcp_clear_flags(pcb, TF_BACKLOGPEND);
 326:c:/Users/Black_Life/STM32Cube/Repository/STM32Cube_FW_F4_V1.26.2/Middlewares/Third_Party/LwIP/src/core\tcp.c ****     }
 327:c:/Users/Black_Life/STM32Cube/Repository/STM32Cube_FW_F4_V1.26.2/Middlewares/Third_Party/LwIP/src/core\tcp.c ****   }
 328:c:/Users/Black_Life/STM32Cube/Repository/STM32Cube_FW_F4_V1.26.2/Middlewares/Third_Party/LwIP/src/core\tcp.c **** }
 329:c:/Users/Black_Life/STM32Cube/Repository/STM32Cube_FW_F4_V1.26.2/Middlewares/Third_Party/LwIP/src/core\tcp.c **** #endif /* TCP_LISTEN_BACKLOG */
 330:c:/Users/Black_Life/STM32Cube/Repository/STM32Cube_FW_F4_V1.26.2/Middlewares/Third_Party/LwIP/src/core\tcp.c **** 
 331:c:/Users/Black_Life/STM32Cube/Repository/STM32Cube_FW_F4_V1.26.2/Middlewares/Third_Party/LwIP/src/core\tcp.c **** /**
 332:c:/Users/Black_Life/STM32Cube/Repository/STM32Cube_FW_F4_V1.26.2/Middlewares/Third_Party/LwIP/src/core\tcp.c ****  * Closes the TX side of a connection held by the PCB.
 333:c:/Users/Black_Life/STM32Cube/Repository/STM32Cube_FW_F4_V1.26.2/Middlewares/Third_Party/LwIP/src/core\tcp.c ****  * For tcp_close(), a RST is sent if the application didn't receive all data
 334:c:/Users/Black_Life/STM32Cube/Repository/STM32Cube_FW_F4_V1.26.2/Middlewares/Third_Party/LwIP/src/core\tcp.c ****  * (tcp_recved() not called for all data passed to recv callback).
 335:c:/Users/Black_Life/STM32Cube/Repository/STM32Cube_FW_F4_V1.26.2/Middlewares/Third_Party/LwIP/src/core\tcp.c ****  *
 336:c:/Users/Black_Life/STM32Cube/Repository/STM32Cube_FW_F4_V1.26.2/Middlewares/Third_Party/LwIP/src/core\tcp.c ****  * Listening pcbs are freed and may not be referenced any more.
 337:c:/Users/Black_Life/STM32Cube/Repository/STM32Cube_FW_F4_V1.26.2/Middlewares/Third_Party/LwIP/src/core\tcp.c ****  * Connection pcbs are freed if not yet connected and may not be referenced
 338:c:/Users/Black_Life/STM32Cube/Repository/STM32Cube_FW_F4_V1.26.2/Middlewares/Third_Party/LwIP/src/core\tcp.c ****  * any more. If a connection is established (at least SYN received or in
 339:c:/Users/Black_Life/STM32Cube/Repository/STM32Cube_FW_F4_V1.26.2/Middlewares/Third_Party/LwIP/src/core\tcp.c ****  * a closing state), the connection is closed, and put in a closing state.
 340:c:/Users/Black_Life/STM32Cube/Repository/STM32Cube_FW_F4_V1.26.2/Middlewares/Third_Party/LwIP/src/core\tcp.c ****  * The pcb is then automatically freed in tcp_slowtmr(). It is therefore
 341:c:/Users/Black_Life/STM32Cube/Repository/STM32Cube_FW_F4_V1.26.2/Middlewares/Third_Party/LwIP/src/core\tcp.c ****  * unsafe to reference it.
 342:c:/Users/Black_Life/STM32Cube/Repository/STM32Cube_FW_F4_V1.26.2/Middlewares/Third_Party/LwIP/src/core\tcp.c ****  *
 343:c:/Users/Black_Life/STM32Cube/Repository/STM32Cube_FW_F4_V1.26.2/Middlewares/Third_Party/LwIP/src/core\tcp.c ****  * @param pcb the tcp_pcb to close
 344:c:/Users/Black_Life/STM32Cube/Repository/STM32Cube_FW_F4_V1.26.2/Middlewares/Third_Party/LwIP/src/core\tcp.c ****  * @return ERR_OK if connection has been closed
 345:c:/Users/Black_Life/STM32Cube/Repository/STM32Cube_FW_F4_V1.26.2/Middlewares/Third_Party/LwIP/src/core\tcp.c ****  *         another err_t if closing failed and pcb is not freed
 346:c:/Users/Black_Life/STM32Cube/Repository/STM32Cube_FW_F4_V1.26.2/Middlewares/Third_Party/LwIP/src/core\tcp.c ****  */
 347:c:/Users/Black_Life/STM32Cube/Repository/STM32Cube_FW_F4_V1.26.2/Middlewares/Third_Party/LwIP/src/core\tcp.c **** static err_t
 348:c:/Users/Black_Life/STM32Cube/Repository/STM32Cube_FW_F4_V1.26.2/Middlewares/Third_Party/LwIP/src/core\tcp.c **** tcp_close_shutdown(struct tcp_pcb *pcb, u8_t rst_on_unacked_data)
 349:c:/Users/Black_Life/STM32Cube/Repository/STM32Cube_FW_F4_V1.26.2/Middlewares/Third_Party/LwIP/src/core\tcp.c **** {
 350:c:/Users/Black_Life/STM32Cube/Repository/STM32Cube_FW_F4_V1.26.2/Middlewares/Third_Party/LwIP/src/core\tcp.c ****   LWIP_ASSERT("tcp_close_shutdown: invalid pcb", pcb != NULL);
 351:c:/Users/Black_Life/STM32Cube/Repository/STM32Cube_FW_F4_V1.26.2/Middlewares/Third_Party/LwIP/src/core\tcp.c **** 
 352:c:/Users/Black_Life/STM32Cube/Repository/STM32Cube_FW_F4_V1.26.2/Middlewares/Third_Party/LwIP/src/core\tcp.c ****   if (rst_on_unacked_data && ((pcb->state == ESTABLISHED) || (pcb->state == CLOSE_WAIT))) {
 353:c:/Users/Black_Life/STM32Cube/Repository/STM32Cube_FW_F4_V1.26.2/Middlewares/Third_Party/LwIP/src/core\tcp.c ****     if ((pcb->refused_data != NULL) || (pcb->rcv_wnd != TCP_WND_MAX(pcb))) {
 354:c:/Users/Black_Life/STM32Cube/Repository/STM32Cube_FW_F4_V1.26.2/Middlewares/Third_Party/LwIP/src/core\tcp.c ****       /* Not all data received by application, send RST to tell the remote
 355:c:/Users/Black_Life/STM32Cube/Repository/STM32Cube_FW_F4_V1.26.2/Middlewares/Third_Party/LwIP/src/core\tcp.c ****          side about this. */
 356:c:/Users/Black_Life/STM32Cube/Repository/STM32Cube_FW_F4_V1.26.2/Middlewares/Third_Party/LwIP/src/core\tcp.c ****       LWIP_ASSERT("pcb->flags & TF_RXCLOSED", pcb->flags & TF_RXCLOSED);
 357:c:/Users/Black_Life/STM32Cube/Repository/STM32Cube_FW_F4_V1.26.2/Middlewares/Third_Party/LwIP/src/core\tcp.c **** 
 358:c:/Users/Black_Life/STM32Cube/Repository/STM32Cube_FW_F4_V1.26.2/Middlewares/Third_Party/LwIP/src/core\tcp.c ****       /* don't call tcp_abort here: we must not deallocate the pcb since
 359:c:/Users/Black_Life/STM32Cube/Repository/STM32Cube_FW_F4_V1.26.2/Middlewares/Third_Party/LwIP/src/core\tcp.c ****          that might not be expected when calling tcp_close */
 360:c:/Users/Black_Life/STM32Cube/Repository/STM32Cube_FW_F4_V1.26.2/Middlewares/Third_Party/LwIP/src/core\tcp.c ****       tcp_rst(pcb, pcb->snd_nxt, pcb->rcv_nxt, &pcb->local_ip, &pcb->remote_ip,
 361:c:/Users/Black_Life/STM32Cube/Repository/STM32Cube_FW_F4_V1.26.2/Middlewares/Third_Party/LwIP/src/core\tcp.c ****               pcb->local_port, pcb->remote_port);
 362:c:/Users/Black_Life/STM32Cube/Repository/STM32Cube_FW_F4_V1.26.2/Middlewares/Third_Party/LwIP/src/core\tcp.c **** 
 363:c:/Users/Black_Life/STM32Cube/Repository/STM32Cube_FW_F4_V1.26.2/Middlewares/Third_Party/LwIP/src/core\tcp.c ****       tcp_pcb_purge(pcb);
 364:c:/Users/Black_Life/STM32Cube/Repository/STM32Cube_FW_F4_V1.26.2/Middlewares/Third_Party/LwIP/src/core\tcp.c ****       TCP_RMV_ACTIVE(pcb);
 365:c:/Users/Black_Life/STM32Cube/Repository/STM32Cube_FW_F4_V1.26.2/Middlewares/Third_Party/LwIP/src/core\tcp.c ****       /* Deallocate the pcb since we already sent a RST for it */
 366:c:/Users/Black_Life/STM32Cube/Repository/STM32Cube_FW_F4_V1.26.2/Middlewares/Third_Party/LwIP/src/core\tcp.c ****       if (tcp_input_pcb == pcb) {
 367:c:/Users/Black_Life/STM32Cube/Repository/STM32Cube_FW_F4_V1.26.2/Middlewares/Third_Party/LwIP/src/core\tcp.c ****         /* prevent using a deallocated pcb: free it from tcp_input later */
 368:c:/Users/Black_Life/STM32Cube/Repository/STM32Cube_FW_F4_V1.26.2/Middlewares/Third_Party/LwIP/src/core\tcp.c ****         tcp_trigger_input_pcb_close();
 369:c:/Users/Black_Life/STM32Cube/Repository/STM32Cube_FW_F4_V1.26.2/Middlewares/Third_Party/LwIP/src/core\tcp.c ****       } else {
 370:c:/Users/Black_Life/STM32Cube/Repository/STM32Cube_FW_F4_V1.26.2/Middlewares/Third_Party/LwIP/src/core\tcp.c ****         tcp_free(pcb);
 371:c:/Users/Black_Life/STM32Cube/Repository/STM32Cube_FW_F4_V1.26.2/Middlewares/Third_Party/LwIP/src/core\tcp.c ****       }
 372:c:/Users/Black_Life/STM32Cube/Repository/STM32Cube_FW_F4_V1.26.2/Middlewares/Third_Party/LwIP/src/core\tcp.c ****       return ERR_OK;
 373:c:/Users/Black_Life/STM32Cube/Repository/STM32Cube_FW_F4_V1.26.2/Middlewares/Third_Party/LwIP/src/core\tcp.c ****     }
ARM GAS  C:\Users\BLACK_~1\AppData\Local\Temp\ccRovO0r.s 			page 8


 374:c:/Users/Black_Life/STM32Cube/Repository/STM32Cube_FW_F4_V1.26.2/Middlewares/Third_Party/LwIP/src/core\tcp.c ****   }
 375:c:/Users/Black_Life/STM32Cube/Repository/STM32Cube_FW_F4_V1.26.2/Middlewares/Third_Party/LwIP/src/core\tcp.c **** 
 376:c:/Users/Black_Life/STM32Cube/Repository/STM32Cube_FW_F4_V1.26.2/Middlewares/Third_Party/LwIP/src/core\tcp.c ****   /* - states which free the pcb are handled here,
 377:c:/Users/Black_Life/STM32Cube/Repository/STM32Cube_FW_F4_V1.26.2/Middlewares/Third_Party/LwIP/src/core\tcp.c ****      - states which send FIN and change state are handled in tcp_close_shutdown_fin() */
 378:c:/Users/Black_Life/STM32Cube/Repository/STM32Cube_FW_F4_V1.26.2/Middlewares/Third_Party/LwIP/src/core\tcp.c ****   switch (pcb->state) {
 379:c:/Users/Black_Life/STM32Cube/Repository/STM32Cube_FW_F4_V1.26.2/Middlewares/Third_Party/LwIP/src/core\tcp.c ****     case CLOSED:
 380:c:/Users/Black_Life/STM32Cube/Repository/STM32Cube_FW_F4_V1.26.2/Middlewares/Third_Party/LwIP/src/core\tcp.c ****       /* Closing a pcb in the CLOSED state might seem erroneous,
 381:c:/Users/Black_Life/STM32Cube/Repository/STM32Cube_FW_F4_V1.26.2/Middlewares/Third_Party/LwIP/src/core\tcp.c ****        * however, it is in this state once allocated and as yet unused
 382:c:/Users/Black_Life/STM32Cube/Repository/STM32Cube_FW_F4_V1.26.2/Middlewares/Third_Party/LwIP/src/core\tcp.c ****        * and the user needs some way to free it should the need arise.
 383:c:/Users/Black_Life/STM32Cube/Repository/STM32Cube_FW_F4_V1.26.2/Middlewares/Third_Party/LwIP/src/core\tcp.c ****        * Calling tcp_close() with a pcb that has already been closed, (i.e. twice)
 384:c:/Users/Black_Life/STM32Cube/Repository/STM32Cube_FW_F4_V1.26.2/Middlewares/Third_Party/LwIP/src/core\tcp.c ****        * or for a pcb that has been used and then entered the CLOSED state
 385:c:/Users/Black_Life/STM32Cube/Repository/STM32Cube_FW_F4_V1.26.2/Middlewares/Third_Party/LwIP/src/core\tcp.c ****        * is erroneous, but this should never happen as the pcb has in those cases
 386:c:/Users/Black_Life/STM32Cube/Repository/STM32Cube_FW_F4_V1.26.2/Middlewares/Third_Party/LwIP/src/core\tcp.c ****        * been freed, and so any remaining handles are bogus. */
 387:c:/Users/Black_Life/STM32Cube/Repository/STM32Cube_FW_F4_V1.26.2/Middlewares/Third_Party/LwIP/src/core\tcp.c ****       if (pcb->local_port != 0) {
 388:c:/Users/Black_Life/STM32Cube/Repository/STM32Cube_FW_F4_V1.26.2/Middlewares/Third_Party/LwIP/src/core\tcp.c ****         TCP_RMV(&tcp_bound_pcbs, pcb);
 389:c:/Users/Black_Life/STM32Cube/Repository/STM32Cube_FW_F4_V1.26.2/Middlewares/Third_Party/LwIP/src/core\tcp.c ****       }
 390:c:/Users/Black_Life/STM32Cube/Repository/STM32Cube_FW_F4_V1.26.2/Middlewares/Third_Party/LwIP/src/core\tcp.c ****       tcp_free(pcb);
 391:c:/Users/Black_Life/STM32Cube/Repository/STM32Cube_FW_F4_V1.26.2/Middlewares/Third_Party/LwIP/src/core\tcp.c ****       break;
 392:c:/Users/Black_Life/STM32Cube/Repository/STM32Cube_FW_F4_V1.26.2/Middlewares/Third_Party/LwIP/src/core\tcp.c ****     case LISTEN:
 393:c:/Users/Black_Life/STM32Cube/Repository/STM32Cube_FW_F4_V1.26.2/Middlewares/Third_Party/LwIP/src/core\tcp.c ****       tcp_listen_closed(pcb);
 394:c:/Users/Black_Life/STM32Cube/Repository/STM32Cube_FW_F4_V1.26.2/Middlewares/Third_Party/LwIP/src/core\tcp.c ****       tcp_pcb_remove(&tcp_listen_pcbs.pcbs, pcb);
 395:c:/Users/Black_Life/STM32Cube/Repository/STM32Cube_FW_F4_V1.26.2/Middlewares/Third_Party/LwIP/src/core\tcp.c ****       tcp_free_listen(pcb);
 396:c:/Users/Black_Life/STM32Cube/Repository/STM32Cube_FW_F4_V1.26.2/Middlewares/Third_Party/LwIP/src/core\tcp.c ****       break;
 397:c:/Users/Black_Life/STM32Cube/Repository/STM32Cube_FW_F4_V1.26.2/Middlewares/Third_Party/LwIP/src/core\tcp.c ****     case SYN_SENT:
 398:c:/Users/Black_Life/STM32Cube/Repository/STM32Cube_FW_F4_V1.26.2/Middlewares/Third_Party/LwIP/src/core\tcp.c ****       TCP_PCB_REMOVE_ACTIVE(pcb);
 399:c:/Users/Black_Life/STM32Cube/Repository/STM32Cube_FW_F4_V1.26.2/Middlewares/Third_Party/LwIP/src/core\tcp.c ****       tcp_free(pcb);
 400:c:/Users/Black_Life/STM32Cube/Repository/STM32Cube_FW_F4_V1.26.2/Middlewares/Third_Party/LwIP/src/core\tcp.c ****       MIB2_STATS_INC(mib2.tcpattemptfails);
 401:c:/Users/Black_Life/STM32Cube/Repository/STM32Cube_FW_F4_V1.26.2/Middlewares/Third_Party/LwIP/src/core\tcp.c ****       break;
 402:c:/Users/Black_Life/STM32Cube/Repository/STM32Cube_FW_F4_V1.26.2/Middlewares/Third_Party/LwIP/src/core\tcp.c ****     default:
 403:c:/Users/Black_Life/STM32Cube/Repository/STM32Cube_FW_F4_V1.26.2/Middlewares/Third_Party/LwIP/src/core\tcp.c ****       return tcp_close_shutdown_fin(pcb);
 404:c:/Users/Black_Life/STM32Cube/Repository/STM32Cube_FW_F4_V1.26.2/Middlewares/Third_Party/LwIP/src/core\tcp.c ****   }
 405:c:/Users/Black_Life/STM32Cube/Repository/STM32Cube_FW_F4_V1.26.2/Middlewares/Third_Party/LwIP/src/core\tcp.c ****   return ERR_OK;
 406:c:/Users/Black_Life/STM32Cube/Repository/STM32Cube_FW_F4_V1.26.2/Middlewares/Third_Party/LwIP/src/core\tcp.c **** }
 407:c:/Users/Black_Life/STM32Cube/Repository/STM32Cube_FW_F4_V1.26.2/Middlewares/Third_Party/LwIP/src/core\tcp.c **** 
 408:c:/Users/Black_Life/STM32Cube/Repository/STM32Cube_FW_F4_V1.26.2/Middlewares/Third_Party/LwIP/src/core\tcp.c **** static err_t
 409:c:/Users/Black_Life/STM32Cube/Repository/STM32Cube_FW_F4_V1.26.2/Middlewares/Third_Party/LwIP/src/core\tcp.c **** tcp_close_shutdown_fin(struct tcp_pcb *pcb)
 410:c:/Users/Black_Life/STM32Cube/Repository/STM32Cube_FW_F4_V1.26.2/Middlewares/Third_Party/LwIP/src/core\tcp.c **** {
 411:c:/Users/Black_Life/STM32Cube/Repository/STM32Cube_FW_F4_V1.26.2/Middlewares/Third_Party/LwIP/src/core\tcp.c ****   err_t err;
 412:c:/Users/Black_Life/STM32Cube/Repository/STM32Cube_FW_F4_V1.26.2/Middlewares/Third_Party/LwIP/src/core\tcp.c ****   LWIP_ASSERT("pcb != NULL", pcb != NULL);
 413:c:/Users/Black_Life/STM32Cube/Repository/STM32Cube_FW_F4_V1.26.2/Middlewares/Third_Party/LwIP/src/core\tcp.c **** 
 414:c:/Users/Black_Life/STM32Cube/Repository/STM32Cube_FW_F4_V1.26.2/Middlewares/Third_Party/LwIP/src/core\tcp.c ****   switch (pcb->state) {
 415:c:/Users/Black_Life/STM32Cube/Repository/STM32Cube_FW_F4_V1.26.2/Middlewares/Third_Party/LwIP/src/core\tcp.c ****     case SYN_RCVD:
 416:c:/Users/Black_Life/STM32Cube/Repository/STM32Cube_FW_F4_V1.26.2/Middlewares/Third_Party/LwIP/src/core\tcp.c ****       err = tcp_send_fin(pcb);
 417:c:/Users/Black_Life/STM32Cube/Repository/STM32Cube_FW_F4_V1.26.2/Middlewares/Third_Party/LwIP/src/core\tcp.c ****       if (err == ERR_OK) {
 418:c:/Users/Black_Life/STM32Cube/Repository/STM32Cube_FW_F4_V1.26.2/Middlewares/Third_Party/LwIP/src/core\tcp.c ****         tcp_backlog_accepted(pcb);
 419:c:/Users/Black_Life/STM32Cube/Repository/STM32Cube_FW_F4_V1.26.2/Middlewares/Third_Party/LwIP/src/core\tcp.c ****         MIB2_STATS_INC(mib2.tcpattemptfails);
 420:c:/Users/Black_Life/STM32Cube/Repository/STM32Cube_FW_F4_V1.26.2/Middlewares/Third_Party/LwIP/src/core\tcp.c ****         pcb->state = FIN_WAIT_1;
 421:c:/Users/Black_Life/STM32Cube/Repository/STM32Cube_FW_F4_V1.26.2/Middlewares/Third_Party/LwIP/src/core\tcp.c ****       }
 422:c:/Users/Black_Life/STM32Cube/Repository/STM32Cube_FW_F4_V1.26.2/Middlewares/Third_Party/LwIP/src/core\tcp.c ****       break;
 423:c:/Users/Black_Life/STM32Cube/Repository/STM32Cube_FW_F4_V1.26.2/Middlewares/Third_Party/LwIP/src/core\tcp.c ****     case ESTABLISHED:
 424:c:/Users/Black_Life/STM32Cube/Repository/STM32Cube_FW_F4_V1.26.2/Middlewares/Third_Party/LwIP/src/core\tcp.c ****       err = tcp_send_fin(pcb);
 425:c:/Users/Black_Life/STM32Cube/Repository/STM32Cube_FW_F4_V1.26.2/Middlewares/Third_Party/LwIP/src/core\tcp.c ****       if (err == ERR_OK) {
 426:c:/Users/Black_Life/STM32Cube/Repository/STM32Cube_FW_F4_V1.26.2/Middlewares/Third_Party/LwIP/src/core\tcp.c ****         MIB2_STATS_INC(mib2.tcpestabresets);
 427:c:/Users/Black_Life/STM32Cube/Repository/STM32Cube_FW_F4_V1.26.2/Middlewares/Third_Party/LwIP/src/core\tcp.c ****         pcb->state = FIN_WAIT_1;
 428:c:/Users/Black_Life/STM32Cube/Repository/STM32Cube_FW_F4_V1.26.2/Middlewares/Third_Party/LwIP/src/core\tcp.c ****       }
 429:c:/Users/Black_Life/STM32Cube/Repository/STM32Cube_FW_F4_V1.26.2/Middlewares/Third_Party/LwIP/src/core\tcp.c ****       break;
 430:c:/Users/Black_Life/STM32Cube/Repository/STM32Cube_FW_F4_V1.26.2/Middlewares/Third_Party/LwIP/src/core\tcp.c ****     case CLOSE_WAIT:
ARM GAS  C:\Users\BLACK_~1\AppData\Local\Temp\ccRovO0r.s 			page 9


 431:c:/Users/Black_Life/STM32Cube/Repository/STM32Cube_FW_F4_V1.26.2/Middlewares/Third_Party/LwIP/src/core\tcp.c ****       err = tcp_send_fin(pcb);
 432:c:/Users/Black_Life/STM32Cube/Repository/STM32Cube_FW_F4_V1.26.2/Middlewares/Third_Party/LwIP/src/core\tcp.c ****       if (err == ERR_OK) {
 433:c:/Users/Black_Life/STM32Cube/Repository/STM32Cube_FW_F4_V1.26.2/Middlewares/Third_Party/LwIP/src/core\tcp.c ****         MIB2_STATS_INC(mib2.tcpestabresets);
 434:c:/Users/Black_Life/STM32Cube/Repository/STM32Cube_FW_F4_V1.26.2/Middlewares/Third_Party/LwIP/src/core\tcp.c ****         pcb->state = LAST_ACK;
 435:c:/Users/Black_Life/STM32Cube/Repository/STM32Cube_FW_F4_V1.26.2/Middlewares/Third_Party/LwIP/src/core\tcp.c ****       }
 436:c:/Users/Black_Life/STM32Cube/Repository/STM32Cube_FW_F4_V1.26.2/Middlewares/Third_Party/LwIP/src/core\tcp.c ****       break;
 437:c:/Users/Black_Life/STM32Cube/Repository/STM32Cube_FW_F4_V1.26.2/Middlewares/Third_Party/LwIP/src/core\tcp.c ****     default:
 438:c:/Users/Black_Life/STM32Cube/Repository/STM32Cube_FW_F4_V1.26.2/Middlewares/Third_Party/LwIP/src/core\tcp.c ****       /* Has already been closed, do nothing. */
 439:c:/Users/Black_Life/STM32Cube/Repository/STM32Cube_FW_F4_V1.26.2/Middlewares/Third_Party/LwIP/src/core\tcp.c ****       return ERR_OK;
 440:c:/Users/Black_Life/STM32Cube/Repository/STM32Cube_FW_F4_V1.26.2/Middlewares/Third_Party/LwIP/src/core\tcp.c ****   }
 441:c:/Users/Black_Life/STM32Cube/Repository/STM32Cube_FW_F4_V1.26.2/Middlewares/Third_Party/LwIP/src/core\tcp.c **** 
 442:c:/Users/Black_Life/STM32Cube/Repository/STM32Cube_FW_F4_V1.26.2/Middlewares/Third_Party/LwIP/src/core\tcp.c ****   if (err == ERR_OK) {
 443:c:/Users/Black_Life/STM32Cube/Repository/STM32Cube_FW_F4_V1.26.2/Middlewares/Third_Party/LwIP/src/core\tcp.c ****     /* To ensure all data has been sent when tcp_close returns, we have
 444:c:/Users/Black_Life/STM32Cube/Repository/STM32Cube_FW_F4_V1.26.2/Middlewares/Third_Party/LwIP/src/core\tcp.c ****        to make sure tcp_output doesn't fail.
 445:c:/Users/Black_Life/STM32Cube/Repository/STM32Cube_FW_F4_V1.26.2/Middlewares/Third_Party/LwIP/src/core\tcp.c ****        Since we don't really have to ensure all data has been sent when tcp_close
 446:c:/Users/Black_Life/STM32Cube/Repository/STM32Cube_FW_F4_V1.26.2/Middlewares/Third_Party/LwIP/src/core\tcp.c ****        returns (unsent data is sent from tcp timer functions, also), we don't care
 447:c:/Users/Black_Life/STM32Cube/Repository/STM32Cube_FW_F4_V1.26.2/Middlewares/Third_Party/LwIP/src/core\tcp.c ****        for the return value of tcp_output for now. */
 448:c:/Users/Black_Life/STM32Cube/Repository/STM32Cube_FW_F4_V1.26.2/Middlewares/Third_Party/LwIP/src/core\tcp.c ****     tcp_output(pcb);
 449:c:/Users/Black_Life/STM32Cube/Repository/STM32Cube_FW_F4_V1.26.2/Middlewares/Third_Party/LwIP/src/core\tcp.c ****   } else if (err == ERR_MEM) {
 450:c:/Users/Black_Life/STM32Cube/Repository/STM32Cube_FW_F4_V1.26.2/Middlewares/Third_Party/LwIP/src/core\tcp.c ****     /* Mark this pcb for closing. Closing is retried from tcp_tmr. */
 451:c:/Users/Black_Life/STM32Cube/Repository/STM32Cube_FW_F4_V1.26.2/Middlewares/Third_Party/LwIP/src/core\tcp.c ****     tcp_set_flags(pcb, TF_CLOSEPEND);
 452:c:/Users/Black_Life/STM32Cube/Repository/STM32Cube_FW_F4_V1.26.2/Middlewares/Third_Party/LwIP/src/core\tcp.c ****     /* We have to return ERR_OK from here to indicate to the callers that this
 453:c:/Users/Black_Life/STM32Cube/Repository/STM32Cube_FW_F4_V1.26.2/Middlewares/Third_Party/LwIP/src/core\tcp.c ****        pcb should not be used any more as it will be freed soon via tcp_tmr.
 454:c:/Users/Black_Life/STM32Cube/Repository/STM32Cube_FW_F4_V1.26.2/Middlewares/Third_Party/LwIP/src/core\tcp.c ****        This is OK here since sending FIN does not guarantee a time frime for
 455:c:/Users/Black_Life/STM32Cube/Repository/STM32Cube_FW_F4_V1.26.2/Middlewares/Third_Party/LwIP/src/core\tcp.c ****        actually freeing the pcb, either (it is left in closure states for
 456:c:/Users/Black_Life/STM32Cube/Repository/STM32Cube_FW_F4_V1.26.2/Middlewares/Third_Party/LwIP/src/core\tcp.c ****        remote ACK or timeout) */
 457:c:/Users/Black_Life/STM32Cube/Repository/STM32Cube_FW_F4_V1.26.2/Middlewares/Third_Party/LwIP/src/core\tcp.c ****     return ERR_OK;
 458:c:/Users/Black_Life/STM32Cube/Repository/STM32Cube_FW_F4_V1.26.2/Middlewares/Third_Party/LwIP/src/core\tcp.c ****   }
 459:c:/Users/Black_Life/STM32Cube/Repository/STM32Cube_FW_F4_V1.26.2/Middlewares/Third_Party/LwIP/src/core\tcp.c ****   return err;
 460:c:/Users/Black_Life/STM32Cube/Repository/STM32Cube_FW_F4_V1.26.2/Middlewares/Third_Party/LwIP/src/core\tcp.c **** }
 461:c:/Users/Black_Life/STM32Cube/Repository/STM32Cube_FW_F4_V1.26.2/Middlewares/Third_Party/LwIP/src/core\tcp.c **** 
 462:c:/Users/Black_Life/STM32Cube/Repository/STM32Cube_FW_F4_V1.26.2/Middlewares/Third_Party/LwIP/src/core\tcp.c **** /**
 463:c:/Users/Black_Life/STM32Cube/Repository/STM32Cube_FW_F4_V1.26.2/Middlewares/Third_Party/LwIP/src/core\tcp.c ****  * @ingroup tcp_raw
 464:c:/Users/Black_Life/STM32Cube/Repository/STM32Cube_FW_F4_V1.26.2/Middlewares/Third_Party/LwIP/src/core\tcp.c ****  * Closes the connection held by the PCB.
 465:c:/Users/Black_Life/STM32Cube/Repository/STM32Cube_FW_F4_V1.26.2/Middlewares/Third_Party/LwIP/src/core\tcp.c ****  *
 466:c:/Users/Black_Life/STM32Cube/Repository/STM32Cube_FW_F4_V1.26.2/Middlewares/Third_Party/LwIP/src/core\tcp.c ****  * Listening pcbs are freed and may not be referenced any more.
 467:c:/Users/Black_Life/STM32Cube/Repository/STM32Cube_FW_F4_V1.26.2/Middlewares/Third_Party/LwIP/src/core\tcp.c ****  * Connection pcbs are freed if not yet connected and may not be referenced
 468:c:/Users/Black_Life/STM32Cube/Repository/STM32Cube_FW_F4_V1.26.2/Middlewares/Third_Party/LwIP/src/core\tcp.c ****  * any more. If a connection is established (at least SYN received or in
 469:c:/Users/Black_Life/STM32Cube/Repository/STM32Cube_FW_F4_V1.26.2/Middlewares/Third_Party/LwIP/src/core\tcp.c ****  * a closing state), the connection is closed, and put in a closing state.
 470:c:/Users/Black_Life/STM32Cube/Repository/STM32Cube_FW_F4_V1.26.2/Middlewares/Third_Party/LwIP/src/core\tcp.c ****  * The pcb is then automatically freed in tcp_slowtmr(). It is therefore
 471:c:/Users/Black_Life/STM32Cube/Repository/STM32Cube_FW_F4_V1.26.2/Middlewares/Third_Party/LwIP/src/core\tcp.c ****  * unsafe to reference it (unless an error is returned).
 472:c:/Users/Black_Life/STM32Cube/Repository/STM32Cube_FW_F4_V1.26.2/Middlewares/Third_Party/LwIP/src/core\tcp.c ****  * 
 473:c:/Users/Black_Life/STM32Cube/Repository/STM32Cube_FW_F4_V1.26.2/Middlewares/Third_Party/LwIP/src/core\tcp.c ****  * The function may return ERR_MEM if no memory
 474:c:/Users/Black_Life/STM32Cube/Repository/STM32Cube_FW_F4_V1.26.2/Middlewares/Third_Party/LwIP/src/core\tcp.c ****  * was available for closing the connection. If so, the application
 475:c:/Users/Black_Life/STM32Cube/Repository/STM32Cube_FW_F4_V1.26.2/Middlewares/Third_Party/LwIP/src/core\tcp.c ****  * should wait and try again either by using the acknowledgment
 476:c:/Users/Black_Life/STM32Cube/Repository/STM32Cube_FW_F4_V1.26.2/Middlewares/Third_Party/LwIP/src/core\tcp.c ****  * callback or the polling functionality. If the close succeeds, the
 477:c:/Users/Black_Life/STM32Cube/Repository/STM32Cube_FW_F4_V1.26.2/Middlewares/Third_Party/LwIP/src/core\tcp.c ****  * function returns ERR_OK.
 478:c:/Users/Black_Life/STM32Cube/Repository/STM32Cube_FW_F4_V1.26.2/Middlewares/Third_Party/LwIP/src/core\tcp.c ****  *
 479:c:/Users/Black_Life/STM32Cube/Repository/STM32Cube_FW_F4_V1.26.2/Middlewares/Third_Party/LwIP/src/core\tcp.c ****  * @param pcb the tcp_pcb to close
 480:c:/Users/Black_Life/STM32Cube/Repository/STM32Cube_FW_F4_V1.26.2/Middlewares/Third_Party/LwIP/src/core\tcp.c ****  * @return ERR_OK if connection has been closed
 481:c:/Users/Black_Life/STM32Cube/Repository/STM32Cube_FW_F4_V1.26.2/Middlewares/Third_Party/LwIP/src/core\tcp.c ****  *         another err_t if closing failed and pcb is not freed
 482:c:/Users/Black_Life/STM32Cube/Repository/STM32Cube_FW_F4_V1.26.2/Middlewares/Third_Party/LwIP/src/core\tcp.c ****  */
 483:c:/Users/Black_Life/STM32Cube/Repository/STM32Cube_FW_F4_V1.26.2/Middlewares/Third_Party/LwIP/src/core\tcp.c **** err_t
 484:c:/Users/Black_Life/STM32Cube/Repository/STM32Cube_FW_F4_V1.26.2/Middlewares/Third_Party/LwIP/src/core\tcp.c **** tcp_close(struct tcp_pcb *pcb)
 485:c:/Users/Black_Life/STM32Cube/Repository/STM32Cube_FW_F4_V1.26.2/Middlewares/Third_Party/LwIP/src/core\tcp.c **** {
 486:c:/Users/Black_Life/STM32Cube/Repository/STM32Cube_FW_F4_V1.26.2/Middlewares/Third_Party/LwIP/src/core\tcp.c ****   LWIP_ASSERT_CORE_LOCKED();
 487:c:/Users/Black_Life/STM32Cube/Repository/STM32Cube_FW_F4_V1.26.2/Middlewares/Third_Party/LwIP/src/core\tcp.c **** 
ARM GAS  C:\Users\BLACK_~1\AppData\Local\Temp\ccRovO0r.s 			page 10


 488:c:/Users/Black_Life/STM32Cube/Repository/STM32Cube_FW_F4_V1.26.2/Middlewares/Third_Party/LwIP/src/core\tcp.c ****   LWIP_ERROR("tcp_close: invalid pcb", pcb != NULL, return ERR_ARG);
 489:c:/Users/Black_Life/STM32Cube/Repository/STM32Cube_FW_F4_V1.26.2/Middlewares/Third_Party/LwIP/src/core\tcp.c ****   LWIP_DEBUGF(TCP_DEBUG, ("tcp_close: closing in "));
 490:c:/Users/Black_Life/STM32Cube/Repository/STM32Cube_FW_F4_V1.26.2/Middlewares/Third_Party/LwIP/src/core\tcp.c **** 
 491:c:/Users/Black_Life/STM32Cube/Repository/STM32Cube_FW_F4_V1.26.2/Middlewares/Third_Party/LwIP/src/core\tcp.c ****   tcp_debug_print_state(pcb->state);
 492:c:/Users/Black_Life/STM32Cube/Repository/STM32Cube_FW_F4_V1.26.2/Middlewares/Third_Party/LwIP/src/core\tcp.c **** 
 493:c:/Users/Black_Life/STM32Cube/Repository/STM32Cube_FW_F4_V1.26.2/Middlewares/Third_Party/LwIP/src/core\tcp.c ****   if (pcb->state != LISTEN) {
 494:c:/Users/Black_Life/STM32Cube/Repository/STM32Cube_FW_F4_V1.26.2/Middlewares/Third_Party/LwIP/src/core\tcp.c ****     /* Set a flag not to receive any more data... */
 495:c:/Users/Black_Life/STM32Cube/Repository/STM32Cube_FW_F4_V1.26.2/Middlewares/Third_Party/LwIP/src/core\tcp.c ****     tcp_set_flags(pcb, TF_RXCLOSED);
 496:c:/Users/Black_Life/STM32Cube/Repository/STM32Cube_FW_F4_V1.26.2/Middlewares/Third_Party/LwIP/src/core\tcp.c ****   }
 497:c:/Users/Black_Life/STM32Cube/Repository/STM32Cube_FW_F4_V1.26.2/Middlewares/Third_Party/LwIP/src/core\tcp.c ****   /* ... and close */
 498:c:/Users/Black_Life/STM32Cube/Repository/STM32Cube_FW_F4_V1.26.2/Middlewares/Third_Party/LwIP/src/core\tcp.c ****   return tcp_close_shutdown(pcb, 1);
 499:c:/Users/Black_Life/STM32Cube/Repository/STM32Cube_FW_F4_V1.26.2/Middlewares/Third_Party/LwIP/src/core\tcp.c **** }
 500:c:/Users/Black_Life/STM32Cube/Repository/STM32Cube_FW_F4_V1.26.2/Middlewares/Third_Party/LwIP/src/core\tcp.c **** 
 501:c:/Users/Black_Life/STM32Cube/Repository/STM32Cube_FW_F4_V1.26.2/Middlewares/Third_Party/LwIP/src/core\tcp.c **** /**
 502:c:/Users/Black_Life/STM32Cube/Repository/STM32Cube_FW_F4_V1.26.2/Middlewares/Third_Party/LwIP/src/core\tcp.c ****  * @ingroup tcp_raw
 503:c:/Users/Black_Life/STM32Cube/Repository/STM32Cube_FW_F4_V1.26.2/Middlewares/Third_Party/LwIP/src/core\tcp.c ****  * Causes all or part of a full-duplex connection of this PCB to be shut down.
 504:c:/Users/Black_Life/STM32Cube/Repository/STM32Cube_FW_F4_V1.26.2/Middlewares/Third_Party/LwIP/src/core\tcp.c ****  * This doesn't deallocate the PCB unless shutting down both sides!
 505:c:/Users/Black_Life/STM32Cube/Repository/STM32Cube_FW_F4_V1.26.2/Middlewares/Third_Party/LwIP/src/core\tcp.c ****  * Shutting down both sides is the same as calling tcp_close, so if it succeds
 506:c:/Users/Black_Life/STM32Cube/Repository/STM32Cube_FW_F4_V1.26.2/Middlewares/Third_Party/LwIP/src/core\tcp.c ****  * (i.e. returns ER_OK), the PCB must not be referenced any more!
 507:c:/Users/Black_Life/STM32Cube/Repository/STM32Cube_FW_F4_V1.26.2/Middlewares/Third_Party/LwIP/src/core\tcp.c ****  *
 508:c:/Users/Black_Life/STM32Cube/Repository/STM32Cube_FW_F4_V1.26.2/Middlewares/Third_Party/LwIP/src/core\tcp.c ****  * @param pcb PCB to shutdown
 509:c:/Users/Black_Life/STM32Cube/Repository/STM32Cube_FW_F4_V1.26.2/Middlewares/Third_Party/LwIP/src/core\tcp.c ****  * @param shut_rx shut down receive side if this is != 0
 510:c:/Users/Black_Life/STM32Cube/Repository/STM32Cube_FW_F4_V1.26.2/Middlewares/Third_Party/LwIP/src/core\tcp.c ****  * @param shut_tx shut down send side if this is != 0
 511:c:/Users/Black_Life/STM32Cube/Repository/STM32Cube_FW_F4_V1.26.2/Middlewares/Third_Party/LwIP/src/core\tcp.c ****  * @return ERR_OK if shutdown succeeded (or the PCB has already been shut down)
 512:c:/Users/Black_Life/STM32Cube/Repository/STM32Cube_FW_F4_V1.26.2/Middlewares/Third_Party/LwIP/src/core\tcp.c ****  *         another err_t on error.
 513:c:/Users/Black_Life/STM32Cube/Repository/STM32Cube_FW_F4_V1.26.2/Middlewares/Third_Party/LwIP/src/core\tcp.c ****  */
 514:c:/Users/Black_Life/STM32Cube/Repository/STM32Cube_FW_F4_V1.26.2/Middlewares/Third_Party/LwIP/src/core\tcp.c **** err_t
 515:c:/Users/Black_Life/STM32Cube/Repository/STM32Cube_FW_F4_V1.26.2/Middlewares/Third_Party/LwIP/src/core\tcp.c **** tcp_shutdown(struct tcp_pcb *pcb, int shut_rx, int shut_tx)
 516:c:/Users/Black_Life/STM32Cube/Repository/STM32Cube_FW_F4_V1.26.2/Middlewares/Third_Party/LwIP/src/core\tcp.c **** {
 517:c:/Users/Black_Life/STM32Cube/Repository/STM32Cube_FW_F4_V1.26.2/Middlewares/Third_Party/LwIP/src/core\tcp.c ****   LWIP_ASSERT_CORE_LOCKED();
 518:c:/Users/Black_Life/STM32Cube/Repository/STM32Cube_FW_F4_V1.26.2/Middlewares/Third_Party/LwIP/src/core\tcp.c **** 
 519:c:/Users/Black_Life/STM32Cube/Repository/STM32Cube_FW_F4_V1.26.2/Middlewares/Third_Party/LwIP/src/core\tcp.c ****   LWIP_ERROR("tcp_shutdown: invalid pcb", pcb != NULL, return ERR_ARG);
 520:c:/Users/Black_Life/STM32Cube/Repository/STM32Cube_FW_F4_V1.26.2/Middlewares/Third_Party/LwIP/src/core\tcp.c **** 
 521:c:/Users/Black_Life/STM32Cube/Repository/STM32Cube_FW_F4_V1.26.2/Middlewares/Third_Party/LwIP/src/core\tcp.c ****   if (pcb->state == LISTEN) {
 522:c:/Users/Black_Life/STM32Cube/Repository/STM32Cube_FW_F4_V1.26.2/Middlewares/Third_Party/LwIP/src/core\tcp.c ****     return ERR_CONN;
 523:c:/Users/Black_Life/STM32Cube/Repository/STM32Cube_FW_F4_V1.26.2/Middlewares/Third_Party/LwIP/src/core\tcp.c ****   }
 524:c:/Users/Black_Life/STM32Cube/Repository/STM32Cube_FW_F4_V1.26.2/Middlewares/Third_Party/LwIP/src/core\tcp.c ****   if (shut_rx) {
 525:c:/Users/Black_Life/STM32Cube/Repository/STM32Cube_FW_F4_V1.26.2/Middlewares/Third_Party/LwIP/src/core\tcp.c ****     /* shut down the receive side: set a flag not to receive any more data... */
 526:c:/Users/Black_Life/STM32Cube/Repository/STM32Cube_FW_F4_V1.26.2/Middlewares/Third_Party/LwIP/src/core\tcp.c ****     tcp_set_flags(pcb, TF_RXCLOSED);
 527:c:/Users/Black_Life/STM32Cube/Repository/STM32Cube_FW_F4_V1.26.2/Middlewares/Third_Party/LwIP/src/core\tcp.c ****     if (shut_tx) {
 528:c:/Users/Black_Life/STM32Cube/Repository/STM32Cube_FW_F4_V1.26.2/Middlewares/Third_Party/LwIP/src/core\tcp.c ****       /* shutting down the tx AND rx side is the same as closing for the raw API */
 529:c:/Users/Black_Life/STM32Cube/Repository/STM32Cube_FW_F4_V1.26.2/Middlewares/Third_Party/LwIP/src/core\tcp.c ****       return tcp_close_shutdown(pcb, 1);
 530:c:/Users/Black_Life/STM32Cube/Repository/STM32Cube_FW_F4_V1.26.2/Middlewares/Third_Party/LwIP/src/core\tcp.c ****     }
 531:c:/Users/Black_Life/STM32Cube/Repository/STM32Cube_FW_F4_V1.26.2/Middlewares/Third_Party/LwIP/src/core\tcp.c ****     /* ... and free buffered data */
 532:c:/Users/Black_Life/STM32Cube/Repository/STM32Cube_FW_F4_V1.26.2/Middlewares/Third_Party/LwIP/src/core\tcp.c ****     if (pcb->refused_data != NULL) {
 533:c:/Users/Black_Life/STM32Cube/Repository/STM32Cube_FW_F4_V1.26.2/Middlewares/Third_Party/LwIP/src/core\tcp.c ****       pbuf_free(pcb->refused_data);
 534:c:/Users/Black_Life/STM32Cube/Repository/STM32Cube_FW_F4_V1.26.2/Middlewares/Third_Party/LwIP/src/core\tcp.c ****       pcb->refused_data = NULL;
 535:c:/Users/Black_Life/STM32Cube/Repository/STM32Cube_FW_F4_V1.26.2/Middlewares/Third_Party/LwIP/src/core\tcp.c ****     }
 536:c:/Users/Black_Life/STM32Cube/Repository/STM32Cube_FW_F4_V1.26.2/Middlewares/Third_Party/LwIP/src/core\tcp.c ****   }
 537:c:/Users/Black_Life/STM32Cube/Repository/STM32Cube_FW_F4_V1.26.2/Middlewares/Third_Party/LwIP/src/core\tcp.c ****   if (shut_tx) {
 538:c:/Users/Black_Life/STM32Cube/Repository/STM32Cube_FW_F4_V1.26.2/Middlewares/Third_Party/LwIP/src/core\tcp.c ****     /* This can't happen twice since if it succeeds, the pcb's state is changed.
 539:c:/Users/Black_Life/STM32Cube/Repository/STM32Cube_FW_F4_V1.26.2/Middlewares/Third_Party/LwIP/src/core\tcp.c ****        Only close in these states as the others directly deallocate the PCB */
 540:c:/Users/Black_Life/STM32Cube/Repository/STM32Cube_FW_F4_V1.26.2/Middlewares/Third_Party/LwIP/src/core\tcp.c ****     switch (pcb->state) {
 541:c:/Users/Black_Life/STM32Cube/Repository/STM32Cube_FW_F4_V1.26.2/Middlewares/Third_Party/LwIP/src/core\tcp.c ****       case SYN_RCVD:
 542:c:/Users/Black_Life/STM32Cube/Repository/STM32Cube_FW_F4_V1.26.2/Middlewares/Third_Party/LwIP/src/core\tcp.c ****       case ESTABLISHED:
 543:c:/Users/Black_Life/STM32Cube/Repository/STM32Cube_FW_F4_V1.26.2/Middlewares/Third_Party/LwIP/src/core\tcp.c ****       case CLOSE_WAIT:
 544:c:/Users/Black_Life/STM32Cube/Repository/STM32Cube_FW_F4_V1.26.2/Middlewares/Third_Party/LwIP/src/core\tcp.c ****         return tcp_close_shutdown(pcb, (u8_t)shut_rx);
ARM GAS  C:\Users\BLACK_~1\AppData\Local\Temp\ccRovO0r.s 			page 11


 545:c:/Users/Black_Life/STM32Cube/Repository/STM32Cube_FW_F4_V1.26.2/Middlewares/Third_Party/LwIP/src/core\tcp.c ****       default:
 546:c:/Users/Black_Life/STM32Cube/Repository/STM32Cube_FW_F4_V1.26.2/Middlewares/Third_Party/LwIP/src/core\tcp.c ****         /* Not (yet?) connected, cannot shutdown the TX side as that would bring us
 547:c:/Users/Black_Life/STM32Cube/Repository/STM32Cube_FW_F4_V1.26.2/Middlewares/Third_Party/LwIP/src/core\tcp.c ****           into CLOSED state, where the PCB is deallocated. */
 548:c:/Users/Black_Life/STM32Cube/Repository/STM32Cube_FW_F4_V1.26.2/Middlewares/Third_Party/LwIP/src/core\tcp.c ****         return ERR_CONN;
 549:c:/Users/Black_Life/STM32Cube/Repository/STM32Cube_FW_F4_V1.26.2/Middlewares/Third_Party/LwIP/src/core\tcp.c ****     }
 550:c:/Users/Black_Life/STM32Cube/Repository/STM32Cube_FW_F4_V1.26.2/Middlewares/Third_Party/LwIP/src/core\tcp.c ****   }
 551:c:/Users/Black_Life/STM32Cube/Repository/STM32Cube_FW_F4_V1.26.2/Middlewares/Third_Party/LwIP/src/core\tcp.c ****   return ERR_OK;
 552:c:/Users/Black_Life/STM32Cube/Repository/STM32Cube_FW_F4_V1.26.2/Middlewares/Third_Party/LwIP/src/core\tcp.c **** }
 553:c:/Users/Black_Life/STM32Cube/Repository/STM32Cube_FW_F4_V1.26.2/Middlewares/Third_Party/LwIP/src/core\tcp.c **** 
 554:c:/Users/Black_Life/STM32Cube/Repository/STM32Cube_FW_F4_V1.26.2/Middlewares/Third_Party/LwIP/src/core\tcp.c **** /**
 555:c:/Users/Black_Life/STM32Cube/Repository/STM32Cube_FW_F4_V1.26.2/Middlewares/Third_Party/LwIP/src/core\tcp.c ****  * Abandons a connection and optionally sends a RST to the remote
 556:c:/Users/Black_Life/STM32Cube/Repository/STM32Cube_FW_F4_V1.26.2/Middlewares/Third_Party/LwIP/src/core\tcp.c ****  * host.  Deletes the local protocol control block. This is done when
 557:c:/Users/Black_Life/STM32Cube/Repository/STM32Cube_FW_F4_V1.26.2/Middlewares/Third_Party/LwIP/src/core\tcp.c ****  * a connection is killed because of shortage of memory.
 558:c:/Users/Black_Life/STM32Cube/Repository/STM32Cube_FW_F4_V1.26.2/Middlewares/Third_Party/LwIP/src/core\tcp.c ****  *
 559:c:/Users/Black_Life/STM32Cube/Repository/STM32Cube_FW_F4_V1.26.2/Middlewares/Third_Party/LwIP/src/core\tcp.c ****  * @param pcb the tcp_pcb to abort
 560:c:/Users/Black_Life/STM32Cube/Repository/STM32Cube_FW_F4_V1.26.2/Middlewares/Third_Party/LwIP/src/core\tcp.c ****  * @param reset boolean to indicate whether a reset should be sent
 561:c:/Users/Black_Life/STM32Cube/Repository/STM32Cube_FW_F4_V1.26.2/Middlewares/Third_Party/LwIP/src/core\tcp.c ****  */
 562:c:/Users/Black_Life/STM32Cube/Repository/STM32Cube_FW_F4_V1.26.2/Middlewares/Third_Party/LwIP/src/core\tcp.c **** void
 563:c:/Users/Black_Life/STM32Cube/Repository/STM32Cube_FW_F4_V1.26.2/Middlewares/Third_Party/LwIP/src/core\tcp.c **** tcp_abandon(struct tcp_pcb *pcb, int reset)
 564:c:/Users/Black_Life/STM32Cube/Repository/STM32Cube_FW_F4_V1.26.2/Middlewares/Third_Party/LwIP/src/core\tcp.c **** {
 565:c:/Users/Black_Life/STM32Cube/Repository/STM32Cube_FW_F4_V1.26.2/Middlewares/Third_Party/LwIP/src/core\tcp.c ****   u32_t seqno, ackno;
 566:c:/Users/Black_Life/STM32Cube/Repository/STM32Cube_FW_F4_V1.26.2/Middlewares/Third_Party/LwIP/src/core\tcp.c **** #if LWIP_CALLBACK_API
 567:c:/Users/Black_Life/STM32Cube/Repository/STM32Cube_FW_F4_V1.26.2/Middlewares/Third_Party/LwIP/src/core\tcp.c ****   tcp_err_fn errf;
 568:c:/Users/Black_Life/STM32Cube/Repository/STM32Cube_FW_F4_V1.26.2/Middlewares/Third_Party/LwIP/src/core\tcp.c **** #endif /* LWIP_CALLBACK_API */
 569:c:/Users/Black_Life/STM32Cube/Repository/STM32Cube_FW_F4_V1.26.2/Middlewares/Third_Party/LwIP/src/core\tcp.c ****   void *errf_arg;
 570:c:/Users/Black_Life/STM32Cube/Repository/STM32Cube_FW_F4_V1.26.2/Middlewares/Third_Party/LwIP/src/core\tcp.c **** 
 571:c:/Users/Black_Life/STM32Cube/Repository/STM32Cube_FW_F4_V1.26.2/Middlewares/Third_Party/LwIP/src/core\tcp.c ****   LWIP_ASSERT_CORE_LOCKED();
 572:c:/Users/Black_Life/STM32Cube/Repository/STM32Cube_FW_F4_V1.26.2/Middlewares/Third_Party/LwIP/src/core\tcp.c **** 
 573:c:/Users/Black_Life/STM32Cube/Repository/STM32Cube_FW_F4_V1.26.2/Middlewares/Third_Party/LwIP/src/core\tcp.c ****   LWIP_ERROR("tcp_abandon: invalid pcb", pcb != NULL, return);
 574:c:/Users/Black_Life/STM32Cube/Repository/STM32Cube_FW_F4_V1.26.2/Middlewares/Third_Party/LwIP/src/core\tcp.c **** 
 575:c:/Users/Black_Life/STM32Cube/Repository/STM32Cube_FW_F4_V1.26.2/Middlewares/Third_Party/LwIP/src/core\tcp.c ****   /* pcb->state LISTEN not allowed here */
 576:c:/Users/Black_Life/STM32Cube/Repository/STM32Cube_FW_F4_V1.26.2/Middlewares/Third_Party/LwIP/src/core\tcp.c ****   LWIP_ASSERT("don't call tcp_abort/tcp_abandon for listen-pcbs",
 577:c:/Users/Black_Life/STM32Cube/Repository/STM32Cube_FW_F4_V1.26.2/Middlewares/Third_Party/LwIP/src/core\tcp.c ****               pcb->state != LISTEN);
 578:c:/Users/Black_Life/STM32Cube/Repository/STM32Cube_FW_F4_V1.26.2/Middlewares/Third_Party/LwIP/src/core\tcp.c ****   /* Figure out on which TCP PCB list we are, and remove us. If we
 579:c:/Users/Black_Life/STM32Cube/Repository/STM32Cube_FW_F4_V1.26.2/Middlewares/Third_Party/LwIP/src/core\tcp.c ****      are in an active state, call the receive function associated with
 580:c:/Users/Black_Life/STM32Cube/Repository/STM32Cube_FW_F4_V1.26.2/Middlewares/Third_Party/LwIP/src/core\tcp.c ****      the PCB with a NULL argument, and send an RST to the remote end. */
 581:c:/Users/Black_Life/STM32Cube/Repository/STM32Cube_FW_F4_V1.26.2/Middlewares/Third_Party/LwIP/src/core\tcp.c ****   if (pcb->state == TIME_WAIT) {
 582:c:/Users/Black_Life/STM32Cube/Repository/STM32Cube_FW_F4_V1.26.2/Middlewares/Third_Party/LwIP/src/core\tcp.c ****     tcp_pcb_remove(&tcp_tw_pcbs, pcb);
 583:c:/Users/Black_Life/STM32Cube/Repository/STM32Cube_FW_F4_V1.26.2/Middlewares/Third_Party/LwIP/src/core\tcp.c ****     tcp_free(pcb);
 584:c:/Users/Black_Life/STM32Cube/Repository/STM32Cube_FW_F4_V1.26.2/Middlewares/Third_Party/LwIP/src/core\tcp.c ****   } else {
 585:c:/Users/Black_Life/STM32Cube/Repository/STM32Cube_FW_F4_V1.26.2/Middlewares/Third_Party/LwIP/src/core\tcp.c ****     int send_rst = 0;
 586:c:/Users/Black_Life/STM32Cube/Repository/STM32Cube_FW_F4_V1.26.2/Middlewares/Third_Party/LwIP/src/core\tcp.c ****     u16_t local_port = 0;
 587:c:/Users/Black_Life/STM32Cube/Repository/STM32Cube_FW_F4_V1.26.2/Middlewares/Third_Party/LwIP/src/core\tcp.c ****     enum tcp_state last_state;
 588:c:/Users/Black_Life/STM32Cube/Repository/STM32Cube_FW_F4_V1.26.2/Middlewares/Third_Party/LwIP/src/core\tcp.c ****     seqno = pcb->snd_nxt;
 589:c:/Users/Black_Life/STM32Cube/Repository/STM32Cube_FW_F4_V1.26.2/Middlewares/Third_Party/LwIP/src/core\tcp.c ****     ackno = pcb->rcv_nxt;
 590:c:/Users/Black_Life/STM32Cube/Repository/STM32Cube_FW_F4_V1.26.2/Middlewares/Third_Party/LwIP/src/core\tcp.c **** #if LWIP_CALLBACK_API
 591:c:/Users/Black_Life/STM32Cube/Repository/STM32Cube_FW_F4_V1.26.2/Middlewares/Third_Party/LwIP/src/core\tcp.c ****     errf = pcb->errf;
 592:c:/Users/Black_Life/STM32Cube/Repository/STM32Cube_FW_F4_V1.26.2/Middlewares/Third_Party/LwIP/src/core\tcp.c **** #endif /* LWIP_CALLBACK_API */
 593:c:/Users/Black_Life/STM32Cube/Repository/STM32Cube_FW_F4_V1.26.2/Middlewares/Third_Party/LwIP/src/core\tcp.c ****     errf_arg = pcb->callback_arg;
 594:c:/Users/Black_Life/STM32Cube/Repository/STM32Cube_FW_F4_V1.26.2/Middlewares/Third_Party/LwIP/src/core\tcp.c ****     if (pcb->state == CLOSED) {
 595:c:/Users/Black_Life/STM32Cube/Repository/STM32Cube_FW_F4_V1.26.2/Middlewares/Third_Party/LwIP/src/core\tcp.c ****       if (pcb->local_port != 0) {
 596:c:/Users/Black_Life/STM32Cube/Repository/STM32Cube_FW_F4_V1.26.2/Middlewares/Third_Party/LwIP/src/core\tcp.c ****         /* bound, not yet opened */
 597:c:/Users/Black_Life/STM32Cube/Repository/STM32Cube_FW_F4_V1.26.2/Middlewares/Third_Party/LwIP/src/core\tcp.c ****         TCP_RMV(&tcp_bound_pcbs, pcb);
 598:c:/Users/Black_Life/STM32Cube/Repository/STM32Cube_FW_F4_V1.26.2/Middlewares/Third_Party/LwIP/src/core\tcp.c ****       }
 599:c:/Users/Black_Life/STM32Cube/Repository/STM32Cube_FW_F4_V1.26.2/Middlewares/Third_Party/LwIP/src/core\tcp.c ****     } else {
 600:c:/Users/Black_Life/STM32Cube/Repository/STM32Cube_FW_F4_V1.26.2/Middlewares/Third_Party/LwIP/src/core\tcp.c ****       send_rst = reset;
 601:c:/Users/Black_Life/STM32Cube/Repository/STM32Cube_FW_F4_V1.26.2/Middlewares/Third_Party/LwIP/src/core\tcp.c ****       local_port = pcb->local_port;
ARM GAS  C:\Users\BLACK_~1\AppData\Local\Temp\ccRovO0r.s 			page 12


 602:c:/Users/Black_Life/STM32Cube/Repository/STM32Cube_FW_F4_V1.26.2/Middlewares/Third_Party/LwIP/src/core\tcp.c ****       TCP_PCB_REMOVE_ACTIVE(pcb);
 603:c:/Users/Black_Life/STM32Cube/Repository/STM32Cube_FW_F4_V1.26.2/Middlewares/Third_Party/LwIP/src/core\tcp.c ****     }
 604:c:/Users/Black_Life/STM32Cube/Repository/STM32Cube_FW_F4_V1.26.2/Middlewares/Third_Party/LwIP/src/core\tcp.c ****     if (pcb->unacked != NULL) {
 605:c:/Users/Black_Life/STM32Cube/Repository/STM32Cube_FW_F4_V1.26.2/Middlewares/Third_Party/LwIP/src/core\tcp.c ****       tcp_segs_free(pcb->unacked);
 606:c:/Users/Black_Life/STM32Cube/Repository/STM32Cube_FW_F4_V1.26.2/Middlewares/Third_Party/LwIP/src/core\tcp.c ****     }
 607:c:/Users/Black_Life/STM32Cube/Repository/STM32Cube_FW_F4_V1.26.2/Middlewares/Third_Party/LwIP/src/core\tcp.c ****     if (pcb->unsent != NULL) {
 608:c:/Users/Black_Life/STM32Cube/Repository/STM32Cube_FW_F4_V1.26.2/Middlewares/Third_Party/LwIP/src/core\tcp.c ****       tcp_segs_free(pcb->unsent);
 609:c:/Users/Black_Life/STM32Cube/Repository/STM32Cube_FW_F4_V1.26.2/Middlewares/Third_Party/LwIP/src/core\tcp.c ****     }
 610:c:/Users/Black_Life/STM32Cube/Repository/STM32Cube_FW_F4_V1.26.2/Middlewares/Third_Party/LwIP/src/core\tcp.c **** #if TCP_QUEUE_OOSEQ
 611:c:/Users/Black_Life/STM32Cube/Repository/STM32Cube_FW_F4_V1.26.2/Middlewares/Third_Party/LwIP/src/core\tcp.c ****     if (pcb->ooseq != NULL) {
 612:c:/Users/Black_Life/STM32Cube/Repository/STM32Cube_FW_F4_V1.26.2/Middlewares/Third_Party/LwIP/src/core\tcp.c ****       tcp_segs_free(pcb->ooseq);
 613:c:/Users/Black_Life/STM32Cube/Repository/STM32Cube_FW_F4_V1.26.2/Middlewares/Third_Party/LwIP/src/core\tcp.c ****     }
 614:c:/Users/Black_Life/STM32Cube/Repository/STM32Cube_FW_F4_V1.26.2/Middlewares/Third_Party/LwIP/src/core\tcp.c **** #endif /* TCP_QUEUE_OOSEQ */
 615:c:/Users/Black_Life/STM32Cube/Repository/STM32Cube_FW_F4_V1.26.2/Middlewares/Third_Party/LwIP/src/core\tcp.c ****     tcp_backlog_accepted(pcb);
 616:c:/Users/Black_Life/STM32Cube/Repository/STM32Cube_FW_F4_V1.26.2/Middlewares/Third_Party/LwIP/src/core\tcp.c ****     if (send_rst) {
 617:c:/Users/Black_Life/STM32Cube/Repository/STM32Cube_FW_F4_V1.26.2/Middlewares/Third_Party/LwIP/src/core\tcp.c ****       LWIP_DEBUGF(TCP_RST_DEBUG, ("tcp_abandon: sending RST\n"));
 618:c:/Users/Black_Life/STM32Cube/Repository/STM32Cube_FW_F4_V1.26.2/Middlewares/Third_Party/LwIP/src/core\tcp.c ****       tcp_rst(pcb, seqno, ackno, &pcb->local_ip, &pcb->remote_ip, local_port, pcb->remote_port);
 619:c:/Users/Black_Life/STM32Cube/Repository/STM32Cube_FW_F4_V1.26.2/Middlewares/Third_Party/LwIP/src/core\tcp.c ****     }
 620:c:/Users/Black_Life/STM32Cube/Repository/STM32Cube_FW_F4_V1.26.2/Middlewares/Third_Party/LwIP/src/core\tcp.c ****     last_state = pcb->state;
 621:c:/Users/Black_Life/STM32Cube/Repository/STM32Cube_FW_F4_V1.26.2/Middlewares/Third_Party/LwIP/src/core\tcp.c ****     tcp_free(pcb);
 622:c:/Users/Black_Life/STM32Cube/Repository/STM32Cube_FW_F4_V1.26.2/Middlewares/Third_Party/LwIP/src/core\tcp.c ****     TCP_EVENT_ERR(last_state, errf, errf_arg, ERR_ABRT);
 623:c:/Users/Black_Life/STM32Cube/Repository/STM32Cube_FW_F4_V1.26.2/Middlewares/Third_Party/LwIP/src/core\tcp.c ****   }
 624:c:/Users/Black_Life/STM32Cube/Repository/STM32Cube_FW_F4_V1.26.2/Middlewares/Third_Party/LwIP/src/core\tcp.c **** }
 625:c:/Users/Black_Life/STM32Cube/Repository/STM32Cube_FW_F4_V1.26.2/Middlewares/Third_Party/LwIP/src/core\tcp.c **** 
 626:c:/Users/Black_Life/STM32Cube/Repository/STM32Cube_FW_F4_V1.26.2/Middlewares/Third_Party/LwIP/src/core\tcp.c **** /**
 627:c:/Users/Black_Life/STM32Cube/Repository/STM32Cube_FW_F4_V1.26.2/Middlewares/Third_Party/LwIP/src/core\tcp.c ****  * @ingroup tcp_raw
 628:c:/Users/Black_Life/STM32Cube/Repository/STM32Cube_FW_F4_V1.26.2/Middlewares/Third_Party/LwIP/src/core\tcp.c ****  * Aborts the connection by sending a RST (reset) segment to the remote
 629:c:/Users/Black_Life/STM32Cube/Repository/STM32Cube_FW_F4_V1.26.2/Middlewares/Third_Party/LwIP/src/core\tcp.c ****  * host. The pcb is deallocated. This function never fails.
 630:c:/Users/Black_Life/STM32Cube/Repository/STM32Cube_FW_F4_V1.26.2/Middlewares/Third_Party/LwIP/src/core\tcp.c ****  *
 631:c:/Users/Black_Life/STM32Cube/Repository/STM32Cube_FW_F4_V1.26.2/Middlewares/Third_Party/LwIP/src/core\tcp.c ****  * ATTENTION: When calling this from one of the TCP callbacks, make
 632:c:/Users/Black_Life/STM32Cube/Repository/STM32Cube_FW_F4_V1.26.2/Middlewares/Third_Party/LwIP/src/core\tcp.c ****  * sure you always return ERR_ABRT (and never return ERR_ABRT otherwise
 633:c:/Users/Black_Life/STM32Cube/Repository/STM32Cube_FW_F4_V1.26.2/Middlewares/Third_Party/LwIP/src/core\tcp.c ****  * or you will risk accessing deallocated memory or memory leaks!
 634:c:/Users/Black_Life/STM32Cube/Repository/STM32Cube_FW_F4_V1.26.2/Middlewares/Third_Party/LwIP/src/core\tcp.c ****  *
 635:c:/Users/Black_Life/STM32Cube/Repository/STM32Cube_FW_F4_V1.26.2/Middlewares/Third_Party/LwIP/src/core\tcp.c ****  * @param pcb the tcp pcb to abort
 636:c:/Users/Black_Life/STM32Cube/Repository/STM32Cube_FW_F4_V1.26.2/Middlewares/Third_Party/LwIP/src/core\tcp.c ****  */
 637:c:/Users/Black_Life/STM32Cube/Repository/STM32Cube_FW_F4_V1.26.2/Middlewares/Third_Party/LwIP/src/core\tcp.c **** void
 638:c:/Users/Black_Life/STM32Cube/Repository/STM32Cube_FW_F4_V1.26.2/Middlewares/Third_Party/LwIP/src/core\tcp.c **** tcp_abort(struct tcp_pcb *pcb)
 639:c:/Users/Black_Life/STM32Cube/Repository/STM32Cube_FW_F4_V1.26.2/Middlewares/Third_Party/LwIP/src/core\tcp.c **** {
 640:c:/Users/Black_Life/STM32Cube/Repository/STM32Cube_FW_F4_V1.26.2/Middlewares/Third_Party/LwIP/src/core\tcp.c ****   tcp_abandon(pcb, 1);
 641:c:/Users/Black_Life/STM32Cube/Repository/STM32Cube_FW_F4_V1.26.2/Middlewares/Third_Party/LwIP/src/core\tcp.c **** }
 642:c:/Users/Black_Life/STM32Cube/Repository/STM32Cube_FW_F4_V1.26.2/Middlewares/Third_Party/LwIP/src/core\tcp.c **** 
 643:c:/Users/Black_Life/STM32Cube/Repository/STM32Cube_FW_F4_V1.26.2/Middlewares/Third_Party/LwIP/src/core\tcp.c **** /**
 644:c:/Users/Black_Life/STM32Cube/Repository/STM32Cube_FW_F4_V1.26.2/Middlewares/Third_Party/LwIP/src/core\tcp.c ****  * @ingroup tcp_raw
 645:c:/Users/Black_Life/STM32Cube/Repository/STM32Cube_FW_F4_V1.26.2/Middlewares/Third_Party/LwIP/src/core\tcp.c ****  * Binds the connection to a local port number and IP address. If the
 646:c:/Users/Black_Life/STM32Cube/Repository/STM32Cube_FW_F4_V1.26.2/Middlewares/Third_Party/LwIP/src/core\tcp.c ****  * IP address is not given (i.e., ipaddr == IP_ANY_TYPE), the connection is
 647:c:/Users/Black_Life/STM32Cube/Repository/STM32Cube_FW_F4_V1.26.2/Middlewares/Third_Party/LwIP/src/core\tcp.c ****  * bound to all local IP addresses.
 648:c:/Users/Black_Life/STM32Cube/Repository/STM32Cube_FW_F4_V1.26.2/Middlewares/Third_Party/LwIP/src/core\tcp.c ****  * If another connection is bound to the same port, the function will
 649:c:/Users/Black_Life/STM32Cube/Repository/STM32Cube_FW_F4_V1.26.2/Middlewares/Third_Party/LwIP/src/core\tcp.c ****  * return ERR_USE, otherwise ERR_OK is returned.
 650:c:/Users/Black_Life/STM32Cube/Repository/STM32Cube_FW_F4_V1.26.2/Middlewares/Third_Party/LwIP/src/core\tcp.c ****  *
 651:c:/Users/Black_Life/STM32Cube/Repository/STM32Cube_FW_F4_V1.26.2/Middlewares/Third_Party/LwIP/src/core\tcp.c ****  * @param pcb the tcp_pcb to bind (no check is done whether this pcb is
 652:c:/Users/Black_Life/STM32Cube/Repository/STM32Cube_FW_F4_V1.26.2/Middlewares/Third_Party/LwIP/src/core\tcp.c ****  *        already bound!)
 653:c:/Users/Black_Life/STM32Cube/Repository/STM32Cube_FW_F4_V1.26.2/Middlewares/Third_Party/LwIP/src/core\tcp.c ****  * @param ipaddr the local ip address to bind to (use IPx_ADDR_ANY to bind
 654:c:/Users/Black_Life/STM32Cube/Repository/STM32Cube_FW_F4_V1.26.2/Middlewares/Third_Party/LwIP/src/core\tcp.c ****  *        to any local address
 655:c:/Users/Black_Life/STM32Cube/Repository/STM32Cube_FW_F4_V1.26.2/Middlewares/Third_Party/LwIP/src/core\tcp.c ****  * @param port the local port to bind to
 656:c:/Users/Black_Life/STM32Cube/Repository/STM32Cube_FW_F4_V1.26.2/Middlewares/Third_Party/LwIP/src/core\tcp.c ****  * @return ERR_USE if the port is already in use
 657:c:/Users/Black_Life/STM32Cube/Repository/STM32Cube_FW_F4_V1.26.2/Middlewares/Third_Party/LwIP/src/core\tcp.c ****  *         ERR_VAL if bind failed because the PCB is not in a valid state
 658:c:/Users/Black_Life/STM32Cube/Repository/STM32Cube_FW_F4_V1.26.2/Middlewares/Third_Party/LwIP/src/core\tcp.c ****  *         ERR_OK if bound
ARM GAS  C:\Users\BLACK_~1\AppData\Local\Temp\ccRovO0r.s 			page 13


 659:c:/Users/Black_Life/STM32Cube/Repository/STM32Cube_FW_F4_V1.26.2/Middlewares/Third_Party/LwIP/src/core\tcp.c ****  */
 660:c:/Users/Black_Life/STM32Cube/Repository/STM32Cube_FW_F4_V1.26.2/Middlewares/Third_Party/LwIP/src/core\tcp.c **** err_t
 661:c:/Users/Black_Life/STM32Cube/Repository/STM32Cube_FW_F4_V1.26.2/Middlewares/Third_Party/LwIP/src/core\tcp.c **** tcp_bind(struct tcp_pcb *pcb, const ip_addr_t *ipaddr, u16_t port)
 662:c:/Users/Black_Life/STM32Cube/Repository/STM32Cube_FW_F4_V1.26.2/Middlewares/Third_Party/LwIP/src/core\tcp.c **** {
 663:c:/Users/Black_Life/STM32Cube/Repository/STM32Cube_FW_F4_V1.26.2/Middlewares/Third_Party/LwIP/src/core\tcp.c ****   int i;
 664:c:/Users/Black_Life/STM32Cube/Repository/STM32Cube_FW_F4_V1.26.2/Middlewares/Third_Party/LwIP/src/core\tcp.c ****   int max_pcb_list = NUM_TCP_PCB_LISTS;
 665:c:/Users/Black_Life/STM32Cube/Repository/STM32Cube_FW_F4_V1.26.2/Middlewares/Third_Party/LwIP/src/core\tcp.c ****   struct tcp_pcb *cpcb;
 666:c:/Users/Black_Life/STM32Cube/Repository/STM32Cube_FW_F4_V1.26.2/Middlewares/Third_Party/LwIP/src/core\tcp.c **** #if LWIP_IPV6 && LWIP_IPV6_SCOPES
 667:c:/Users/Black_Life/STM32Cube/Repository/STM32Cube_FW_F4_V1.26.2/Middlewares/Third_Party/LwIP/src/core\tcp.c ****   ip_addr_t zoned_ipaddr;
 668:c:/Users/Black_Life/STM32Cube/Repository/STM32Cube_FW_F4_V1.26.2/Middlewares/Third_Party/LwIP/src/core\tcp.c **** #endif /* LWIP_IPV6 && LWIP_IPV6_SCOPES */
 669:c:/Users/Black_Life/STM32Cube/Repository/STM32Cube_FW_F4_V1.26.2/Middlewares/Third_Party/LwIP/src/core\tcp.c **** 
 670:c:/Users/Black_Life/STM32Cube/Repository/STM32Cube_FW_F4_V1.26.2/Middlewares/Third_Party/LwIP/src/core\tcp.c ****   LWIP_ASSERT_CORE_LOCKED();
 671:c:/Users/Black_Life/STM32Cube/Repository/STM32Cube_FW_F4_V1.26.2/Middlewares/Third_Party/LwIP/src/core\tcp.c **** 
 672:c:/Users/Black_Life/STM32Cube/Repository/STM32Cube_FW_F4_V1.26.2/Middlewares/Third_Party/LwIP/src/core\tcp.c **** #if LWIP_IPV4
 673:c:/Users/Black_Life/STM32Cube/Repository/STM32Cube_FW_F4_V1.26.2/Middlewares/Third_Party/LwIP/src/core\tcp.c ****   /* Don't propagate NULL pointer (IPv4 ANY) to subsequent functions */
 674:c:/Users/Black_Life/STM32Cube/Repository/STM32Cube_FW_F4_V1.26.2/Middlewares/Third_Party/LwIP/src/core\tcp.c ****   if (ipaddr == NULL) {
 675:c:/Users/Black_Life/STM32Cube/Repository/STM32Cube_FW_F4_V1.26.2/Middlewares/Third_Party/LwIP/src/core\tcp.c ****     ipaddr = IP4_ADDR_ANY;
 676:c:/Users/Black_Life/STM32Cube/Repository/STM32Cube_FW_F4_V1.26.2/Middlewares/Third_Party/LwIP/src/core\tcp.c ****   }
 677:c:/Users/Black_Life/STM32Cube/Repository/STM32Cube_FW_F4_V1.26.2/Middlewares/Third_Party/LwIP/src/core\tcp.c **** #else /* LWIP_IPV4 */
 678:c:/Users/Black_Life/STM32Cube/Repository/STM32Cube_FW_F4_V1.26.2/Middlewares/Third_Party/LwIP/src/core\tcp.c ****   LWIP_ERROR("tcp_bind: invalid ipaddr", ipaddr != NULL, return ERR_ARG);
 679:c:/Users/Black_Life/STM32Cube/Repository/STM32Cube_FW_F4_V1.26.2/Middlewares/Third_Party/LwIP/src/core\tcp.c **** #endif /* LWIP_IPV4 */
 680:c:/Users/Black_Life/STM32Cube/Repository/STM32Cube_FW_F4_V1.26.2/Middlewares/Third_Party/LwIP/src/core\tcp.c **** 
 681:c:/Users/Black_Life/STM32Cube/Repository/STM32Cube_FW_F4_V1.26.2/Middlewares/Third_Party/LwIP/src/core\tcp.c ****   LWIP_ERROR("tcp_bind: invalid pcb", pcb != NULL, return ERR_ARG);
 682:c:/Users/Black_Life/STM32Cube/Repository/STM32Cube_FW_F4_V1.26.2/Middlewares/Third_Party/LwIP/src/core\tcp.c **** 
 683:c:/Users/Black_Life/STM32Cube/Repository/STM32Cube_FW_F4_V1.26.2/Middlewares/Third_Party/LwIP/src/core\tcp.c ****   LWIP_ERROR("tcp_bind: can only bind in state CLOSED", pcb->state == CLOSED, return ERR_VAL);
 684:c:/Users/Black_Life/STM32Cube/Repository/STM32Cube_FW_F4_V1.26.2/Middlewares/Third_Party/LwIP/src/core\tcp.c **** 
 685:c:/Users/Black_Life/STM32Cube/Repository/STM32Cube_FW_F4_V1.26.2/Middlewares/Third_Party/LwIP/src/core\tcp.c **** #if SO_REUSE
 686:c:/Users/Black_Life/STM32Cube/Repository/STM32Cube_FW_F4_V1.26.2/Middlewares/Third_Party/LwIP/src/core\tcp.c ****   /* Unless the REUSEADDR flag is set,
 687:c:/Users/Black_Life/STM32Cube/Repository/STM32Cube_FW_F4_V1.26.2/Middlewares/Third_Party/LwIP/src/core\tcp.c ****      we have to check the pcbs in TIME-WAIT state, also.
 688:c:/Users/Black_Life/STM32Cube/Repository/STM32Cube_FW_F4_V1.26.2/Middlewares/Third_Party/LwIP/src/core\tcp.c ****      We do not dump TIME_WAIT pcb's; they can still be matched by incoming
 689:c:/Users/Black_Life/STM32Cube/Repository/STM32Cube_FW_F4_V1.26.2/Middlewares/Third_Party/LwIP/src/core\tcp.c ****      packets using both local and remote IP addresses and ports to distinguish.
 690:c:/Users/Black_Life/STM32Cube/Repository/STM32Cube_FW_F4_V1.26.2/Middlewares/Third_Party/LwIP/src/core\tcp.c ****    */
 691:c:/Users/Black_Life/STM32Cube/Repository/STM32Cube_FW_F4_V1.26.2/Middlewares/Third_Party/LwIP/src/core\tcp.c ****   if (ip_get_option(pcb, SOF_REUSEADDR)) {
 692:c:/Users/Black_Life/STM32Cube/Repository/STM32Cube_FW_F4_V1.26.2/Middlewares/Third_Party/LwIP/src/core\tcp.c ****     max_pcb_list = NUM_TCP_PCB_LISTS_NO_TIME_WAIT;
 693:c:/Users/Black_Life/STM32Cube/Repository/STM32Cube_FW_F4_V1.26.2/Middlewares/Third_Party/LwIP/src/core\tcp.c ****   }
 694:c:/Users/Black_Life/STM32Cube/Repository/STM32Cube_FW_F4_V1.26.2/Middlewares/Third_Party/LwIP/src/core\tcp.c **** #endif /* SO_REUSE */
 695:c:/Users/Black_Life/STM32Cube/Repository/STM32Cube_FW_F4_V1.26.2/Middlewares/Third_Party/LwIP/src/core\tcp.c **** 
 696:c:/Users/Black_Life/STM32Cube/Repository/STM32Cube_FW_F4_V1.26.2/Middlewares/Third_Party/LwIP/src/core\tcp.c **** #if LWIP_IPV6 && LWIP_IPV6_SCOPES
 697:c:/Users/Black_Life/STM32Cube/Repository/STM32Cube_FW_F4_V1.26.2/Middlewares/Third_Party/LwIP/src/core\tcp.c ****   /* If the given IP address should have a zone but doesn't, assign one now.
 698:c:/Users/Black_Life/STM32Cube/Repository/STM32Cube_FW_F4_V1.26.2/Middlewares/Third_Party/LwIP/src/core\tcp.c ****    * This is legacy support: scope-aware callers should always provide properly
 699:c:/Users/Black_Life/STM32Cube/Repository/STM32Cube_FW_F4_V1.26.2/Middlewares/Third_Party/LwIP/src/core\tcp.c ****    * zoned source addresses. Do the zone selection before the address-in-use
 700:c:/Users/Black_Life/STM32Cube/Repository/STM32Cube_FW_F4_V1.26.2/Middlewares/Third_Party/LwIP/src/core\tcp.c ****    * check below; as such we have to make a temporary copy of the address. */
 701:c:/Users/Black_Life/STM32Cube/Repository/STM32Cube_FW_F4_V1.26.2/Middlewares/Third_Party/LwIP/src/core\tcp.c ****   if (IP_IS_V6(ipaddr) && ip6_addr_lacks_zone(ip_2_ip6(ipaddr), IP6_UNICAST)) {
 702:c:/Users/Black_Life/STM32Cube/Repository/STM32Cube_FW_F4_V1.26.2/Middlewares/Third_Party/LwIP/src/core\tcp.c ****     ip_addr_copy(zoned_ipaddr, *ipaddr);
 703:c:/Users/Black_Life/STM32Cube/Repository/STM32Cube_FW_F4_V1.26.2/Middlewares/Third_Party/LwIP/src/core\tcp.c ****     ip6_addr_select_zone(ip_2_ip6(&zoned_ipaddr), ip_2_ip6(&zoned_ipaddr));
 704:c:/Users/Black_Life/STM32Cube/Repository/STM32Cube_FW_F4_V1.26.2/Middlewares/Third_Party/LwIP/src/core\tcp.c ****     ipaddr = &zoned_ipaddr;
 705:c:/Users/Black_Life/STM32Cube/Repository/STM32Cube_FW_F4_V1.26.2/Middlewares/Third_Party/LwIP/src/core\tcp.c ****   }
 706:c:/Users/Black_Life/STM32Cube/Repository/STM32Cube_FW_F4_V1.26.2/Middlewares/Third_Party/LwIP/src/core\tcp.c **** #endif /* LWIP_IPV6 && LWIP_IPV6_SCOPES */
 707:c:/Users/Black_Life/STM32Cube/Repository/STM32Cube_FW_F4_V1.26.2/Middlewares/Third_Party/LwIP/src/core\tcp.c **** 
 708:c:/Users/Black_Life/STM32Cube/Repository/STM32Cube_FW_F4_V1.26.2/Middlewares/Third_Party/LwIP/src/core\tcp.c ****   if (port == 0) {
 709:c:/Users/Black_Life/STM32Cube/Repository/STM32Cube_FW_F4_V1.26.2/Middlewares/Third_Party/LwIP/src/core\tcp.c ****     port = tcp_new_port();
 710:c:/Users/Black_Life/STM32Cube/Repository/STM32Cube_FW_F4_V1.26.2/Middlewares/Third_Party/LwIP/src/core\tcp.c ****     if (port == 0) {
 711:c:/Users/Black_Life/STM32Cube/Repository/STM32Cube_FW_F4_V1.26.2/Middlewares/Third_Party/LwIP/src/core\tcp.c ****       return ERR_BUF;
 712:c:/Users/Black_Life/STM32Cube/Repository/STM32Cube_FW_F4_V1.26.2/Middlewares/Third_Party/LwIP/src/core\tcp.c ****     }
 713:c:/Users/Black_Life/STM32Cube/Repository/STM32Cube_FW_F4_V1.26.2/Middlewares/Third_Party/LwIP/src/core\tcp.c ****   } else {
 714:c:/Users/Black_Life/STM32Cube/Repository/STM32Cube_FW_F4_V1.26.2/Middlewares/Third_Party/LwIP/src/core\tcp.c ****     /* Check if the address already is in use (on all lists) */
 715:c:/Users/Black_Life/STM32Cube/Repository/STM32Cube_FW_F4_V1.26.2/Middlewares/Third_Party/LwIP/src/core\tcp.c ****     for (i = 0; i < max_pcb_list; i++) {
ARM GAS  C:\Users\BLACK_~1\AppData\Local\Temp\ccRovO0r.s 			page 14


 716:c:/Users/Black_Life/STM32Cube/Repository/STM32Cube_FW_F4_V1.26.2/Middlewares/Third_Party/LwIP/src/core\tcp.c ****       for (cpcb = *tcp_pcb_lists[i]; cpcb != NULL; cpcb = cpcb->next) {
 717:c:/Users/Black_Life/STM32Cube/Repository/STM32Cube_FW_F4_V1.26.2/Middlewares/Third_Party/LwIP/src/core\tcp.c ****         if (cpcb->local_port == port) {
 718:c:/Users/Black_Life/STM32Cube/Repository/STM32Cube_FW_F4_V1.26.2/Middlewares/Third_Party/LwIP/src/core\tcp.c **** #if SO_REUSE
 719:c:/Users/Black_Life/STM32Cube/Repository/STM32Cube_FW_F4_V1.26.2/Middlewares/Third_Party/LwIP/src/core\tcp.c ****           /* Omit checking for the same port if both pcbs have REUSEADDR set.
 720:c:/Users/Black_Life/STM32Cube/Repository/STM32Cube_FW_F4_V1.26.2/Middlewares/Third_Party/LwIP/src/core\tcp.c ****              For SO_REUSEADDR, the duplicate-check for a 5-tuple is done in
 721:c:/Users/Black_Life/STM32Cube/Repository/STM32Cube_FW_F4_V1.26.2/Middlewares/Third_Party/LwIP/src/core\tcp.c ****              tcp_connect. */
 722:c:/Users/Black_Life/STM32Cube/Repository/STM32Cube_FW_F4_V1.26.2/Middlewares/Third_Party/LwIP/src/core\tcp.c ****           if (!ip_get_option(pcb, SOF_REUSEADDR) ||
 723:c:/Users/Black_Life/STM32Cube/Repository/STM32Cube_FW_F4_V1.26.2/Middlewares/Third_Party/LwIP/src/core\tcp.c ****               !ip_get_option(cpcb, SOF_REUSEADDR))
 724:c:/Users/Black_Life/STM32Cube/Repository/STM32Cube_FW_F4_V1.26.2/Middlewares/Third_Party/LwIP/src/core\tcp.c **** #endif /* SO_REUSE */
 725:c:/Users/Black_Life/STM32Cube/Repository/STM32Cube_FW_F4_V1.26.2/Middlewares/Third_Party/LwIP/src/core\tcp.c ****           {
 726:c:/Users/Black_Life/STM32Cube/Repository/STM32Cube_FW_F4_V1.26.2/Middlewares/Third_Party/LwIP/src/core\tcp.c ****             /* @todo: check accept_any_ip_version */
 727:c:/Users/Black_Life/STM32Cube/Repository/STM32Cube_FW_F4_V1.26.2/Middlewares/Third_Party/LwIP/src/core\tcp.c ****             if ((IP_IS_V6(ipaddr) == IP_IS_V6_VAL(cpcb->local_ip)) &&
 728:c:/Users/Black_Life/STM32Cube/Repository/STM32Cube_FW_F4_V1.26.2/Middlewares/Third_Party/LwIP/src/core\tcp.c ****                 (ip_addr_isany(&cpcb->local_ip) ||
 729:c:/Users/Black_Life/STM32Cube/Repository/STM32Cube_FW_F4_V1.26.2/Middlewares/Third_Party/LwIP/src/core\tcp.c ****                  ip_addr_isany(ipaddr) ||
 730:c:/Users/Black_Life/STM32Cube/Repository/STM32Cube_FW_F4_V1.26.2/Middlewares/Third_Party/LwIP/src/core\tcp.c ****                  ip_addr_cmp(&cpcb->local_ip, ipaddr))) {
 731:c:/Users/Black_Life/STM32Cube/Repository/STM32Cube_FW_F4_V1.26.2/Middlewares/Third_Party/LwIP/src/core\tcp.c ****               return ERR_USE;
 732:c:/Users/Black_Life/STM32Cube/Repository/STM32Cube_FW_F4_V1.26.2/Middlewares/Third_Party/LwIP/src/core\tcp.c ****             }
 733:c:/Users/Black_Life/STM32Cube/Repository/STM32Cube_FW_F4_V1.26.2/Middlewares/Third_Party/LwIP/src/core\tcp.c ****           }
 734:c:/Users/Black_Life/STM32Cube/Repository/STM32Cube_FW_F4_V1.26.2/Middlewares/Third_Party/LwIP/src/core\tcp.c ****         }
 735:c:/Users/Black_Life/STM32Cube/Repository/STM32Cube_FW_F4_V1.26.2/Middlewares/Third_Party/LwIP/src/core\tcp.c ****       }
 736:c:/Users/Black_Life/STM32Cube/Repository/STM32Cube_FW_F4_V1.26.2/Middlewares/Third_Party/LwIP/src/core\tcp.c ****     }
 737:c:/Users/Black_Life/STM32Cube/Repository/STM32Cube_FW_F4_V1.26.2/Middlewares/Third_Party/LwIP/src/core\tcp.c ****   }
 738:c:/Users/Black_Life/STM32Cube/Repository/STM32Cube_FW_F4_V1.26.2/Middlewares/Third_Party/LwIP/src/core\tcp.c **** 
 739:c:/Users/Black_Life/STM32Cube/Repository/STM32Cube_FW_F4_V1.26.2/Middlewares/Third_Party/LwIP/src/core\tcp.c ****   if (!ip_addr_isany(ipaddr)
 740:c:/Users/Black_Life/STM32Cube/Repository/STM32Cube_FW_F4_V1.26.2/Middlewares/Third_Party/LwIP/src/core\tcp.c **** #if LWIP_IPV4 && LWIP_IPV6
 741:c:/Users/Black_Life/STM32Cube/Repository/STM32Cube_FW_F4_V1.26.2/Middlewares/Third_Party/LwIP/src/core\tcp.c ****       || (IP_GET_TYPE(ipaddr) != IP_GET_TYPE(&pcb->local_ip))
 742:c:/Users/Black_Life/STM32Cube/Repository/STM32Cube_FW_F4_V1.26.2/Middlewares/Third_Party/LwIP/src/core\tcp.c **** #endif /* LWIP_IPV4 && LWIP_IPV6 */
 743:c:/Users/Black_Life/STM32Cube/Repository/STM32Cube_FW_F4_V1.26.2/Middlewares/Third_Party/LwIP/src/core\tcp.c ****      ) {
 744:c:/Users/Black_Life/STM32Cube/Repository/STM32Cube_FW_F4_V1.26.2/Middlewares/Third_Party/LwIP/src/core\tcp.c ****     ip_addr_set(&pcb->local_ip, ipaddr);
 745:c:/Users/Black_Life/STM32Cube/Repository/STM32Cube_FW_F4_V1.26.2/Middlewares/Third_Party/LwIP/src/core\tcp.c ****   }
 746:c:/Users/Black_Life/STM32Cube/Repository/STM32Cube_FW_F4_V1.26.2/Middlewares/Third_Party/LwIP/src/core\tcp.c ****   pcb->local_port = port;
 747:c:/Users/Black_Life/STM32Cube/Repository/STM32Cube_FW_F4_V1.26.2/Middlewares/Third_Party/LwIP/src/core\tcp.c ****   TCP_REG(&tcp_bound_pcbs, pcb);
 748:c:/Users/Black_Life/STM32Cube/Repository/STM32Cube_FW_F4_V1.26.2/Middlewares/Third_Party/LwIP/src/core\tcp.c ****   LWIP_DEBUGF(TCP_DEBUG, ("tcp_bind: bind to port %"U16_F"\n", port));
 749:c:/Users/Black_Life/STM32Cube/Repository/STM32Cube_FW_F4_V1.26.2/Middlewares/Third_Party/LwIP/src/core\tcp.c ****   return ERR_OK;
 750:c:/Users/Black_Life/STM32Cube/Repository/STM32Cube_FW_F4_V1.26.2/Middlewares/Third_Party/LwIP/src/core\tcp.c **** }
 751:c:/Users/Black_Life/STM32Cube/Repository/STM32Cube_FW_F4_V1.26.2/Middlewares/Third_Party/LwIP/src/core\tcp.c **** 
 752:c:/Users/Black_Life/STM32Cube/Repository/STM32Cube_FW_F4_V1.26.2/Middlewares/Third_Party/LwIP/src/core\tcp.c **** /**
 753:c:/Users/Black_Life/STM32Cube/Repository/STM32Cube_FW_F4_V1.26.2/Middlewares/Third_Party/LwIP/src/core\tcp.c ****  * @ingroup tcp_raw
 754:c:/Users/Black_Life/STM32Cube/Repository/STM32Cube_FW_F4_V1.26.2/Middlewares/Third_Party/LwIP/src/core\tcp.c ****  * Binds the connection to a netif and IP address.
 755:c:/Users/Black_Life/STM32Cube/Repository/STM32Cube_FW_F4_V1.26.2/Middlewares/Third_Party/LwIP/src/core\tcp.c ****  * After calling this function, all packets received via this PCB
 756:c:/Users/Black_Life/STM32Cube/Repository/STM32Cube_FW_F4_V1.26.2/Middlewares/Third_Party/LwIP/src/core\tcp.c ****  * are guaranteed to have come in via the specified netif, and all
 757:c:/Users/Black_Life/STM32Cube/Repository/STM32Cube_FW_F4_V1.26.2/Middlewares/Third_Party/LwIP/src/core\tcp.c ****  * outgoing packets will go out via the specified netif.
 758:c:/Users/Black_Life/STM32Cube/Repository/STM32Cube_FW_F4_V1.26.2/Middlewares/Third_Party/LwIP/src/core\tcp.c ****  *
 759:c:/Users/Black_Life/STM32Cube/Repository/STM32Cube_FW_F4_V1.26.2/Middlewares/Third_Party/LwIP/src/core\tcp.c ****  * @param pcb the tcp_pcb to bind.
 760:c:/Users/Black_Life/STM32Cube/Repository/STM32Cube_FW_F4_V1.26.2/Middlewares/Third_Party/LwIP/src/core\tcp.c ****  * @param netif the netif to bind to. Can be NULL.
 761:c:/Users/Black_Life/STM32Cube/Repository/STM32Cube_FW_F4_V1.26.2/Middlewares/Third_Party/LwIP/src/core\tcp.c ****  */
 762:c:/Users/Black_Life/STM32Cube/Repository/STM32Cube_FW_F4_V1.26.2/Middlewares/Third_Party/LwIP/src/core\tcp.c **** void
 763:c:/Users/Black_Life/STM32Cube/Repository/STM32Cube_FW_F4_V1.26.2/Middlewares/Third_Party/LwIP/src/core\tcp.c **** tcp_bind_netif(struct tcp_pcb *pcb, const struct netif *netif)
 764:c:/Users/Black_Life/STM32Cube/Repository/STM32Cube_FW_F4_V1.26.2/Middlewares/Third_Party/LwIP/src/core\tcp.c **** {
 765:c:/Users/Black_Life/STM32Cube/Repository/STM32Cube_FW_F4_V1.26.2/Middlewares/Third_Party/LwIP/src/core\tcp.c ****   LWIP_ASSERT_CORE_LOCKED();
 766:c:/Users/Black_Life/STM32Cube/Repository/STM32Cube_FW_F4_V1.26.2/Middlewares/Third_Party/LwIP/src/core\tcp.c ****   if (netif != NULL) {
 767:c:/Users/Black_Life/STM32Cube/Repository/STM32Cube_FW_F4_V1.26.2/Middlewares/Third_Party/LwIP/src/core\tcp.c ****     pcb->netif_idx = netif_get_index(netif);
 768:c:/Users/Black_Life/STM32Cube/Repository/STM32Cube_FW_F4_V1.26.2/Middlewares/Third_Party/LwIP/src/core\tcp.c ****   } else {
 769:c:/Users/Black_Life/STM32Cube/Repository/STM32Cube_FW_F4_V1.26.2/Middlewares/Third_Party/LwIP/src/core\tcp.c ****     pcb->netif_idx = NETIF_NO_INDEX;
 770:c:/Users/Black_Life/STM32Cube/Repository/STM32Cube_FW_F4_V1.26.2/Middlewares/Third_Party/LwIP/src/core\tcp.c ****   }
 771:c:/Users/Black_Life/STM32Cube/Repository/STM32Cube_FW_F4_V1.26.2/Middlewares/Third_Party/LwIP/src/core\tcp.c **** }
 772:c:/Users/Black_Life/STM32Cube/Repository/STM32Cube_FW_F4_V1.26.2/Middlewares/Third_Party/LwIP/src/core\tcp.c **** 
ARM GAS  C:\Users\BLACK_~1\AppData\Local\Temp\ccRovO0r.s 			page 15


 773:c:/Users/Black_Life/STM32Cube/Repository/STM32Cube_FW_F4_V1.26.2/Middlewares/Third_Party/LwIP/src/core\tcp.c **** #if LWIP_CALLBACK_API
 774:c:/Users/Black_Life/STM32Cube/Repository/STM32Cube_FW_F4_V1.26.2/Middlewares/Third_Party/LwIP/src/core\tcp.c **** /**
 775:c:/Users/Black_Life/STM32Cube/Repository/STM32Cube_FW_F4_V1.26.2/Middlewares/Third_Party/LwIP/src/core\tcp.c ****  * Default accept callback if no accept callback is specified by the user.
 776:c:/Users/Black_Life/STM32Cube/Repository/STM32Cube_FW_F4_V1.26.2/Middlewares/Third_Party/LwIP/src/core\tcp.c ****  */
 777:c:/Users/Black_Life/STM32Cube/Repository/STM32Cube_FW_F4_V1.26.2/Middlewares/Third_Party/LwIP/src/core\tcp.c **** static err_t
 778:c:/Users/Black_Life/STM32Cube/Repository/STM32Cube_FW_F4_V1.26.2/Middlewares/Third_Party/LwIP/src/core\tcp.c **** tcp_accept_null(void *arg, struct tcp_pcb *pcb, err_t err)
 779:c:/Users/Black_Life/STM32Cube/Repository/STM32Cube_FW_F4_V1.26.2/Middlewares/Third_Party/LwIP/src/core\tcp.c **** {
 780:c:/Users/Black_Life/STM32Cube/Repository/STM32Cube_FW_F4_V1.26.2/Middlewares/Third_Party/LwIP/src/core\tcp.c ****   LWIP_UNUSED_ARG(arg);
 781:c:/Users/Black_Life/STM32Cube/Repository/STM32Cube_FW_F4_V1.26.2/Middlewares/Third_Party/LwIP/src/core\tcp.c ****   LWIP_UNUSED_ARG(err);
 782:c:/Users/Black_Life/STM32Cube/Repository/STM32Cube_FW_F4_V1.26.2/Middlewares/Third_Party/LwIP/src/core\tcp.c **** 
 783:c:/Users/Black_Life/STM32Cube/Repository/STM32Cube_FW_F4_V1.26.2/Middlewares/Third_Party/LwIP/src/core\tcp.c ****   LWIP_ASSERT("tcp_accept_null: invalid pcb", pcb != NULL);
 784:c:/Users/Black_Life/STM32Cube/Repository/STM32Cube_FW_F4_V1.26.2/Middlewares/Third_Party/LwIP/src/core\tcp.c **** 
 785:c:/Users/Black_Life/STM32Cube/Repository/STM32Cube_FW_F4_V1.26.2/Middlewares/Third_Party/LwIP/src/core\tcp.c ****   tcp_abort(pcb);
 786:c:/Users/Black_Life/STM32Cube/Repository/STM32Cube_FW_F4_V1.26.2/Middlewares/Third_Party/LwIP/src/core\tcp.c **** 
 787:c:/Users/Black_Life/STM32Cube/Repository/STM32Cube_FW_F4_V1.26.2/Middlewares/Third_Party/LwIP/src/core\tcp.c ****   return ERR_ABRT;
 788:c:/Users/Black_Life/STM32Cube/Repository/STM32Cube_FW_F4_V1.26.2/Middlewares/Third_Party/LwIP/src/core\tcp.c **** }
 789:c:/Users/Black_Life/STM32Cube/Repository/STM32Cube_FW_F4_V1.26.2/Middlewares/Third_Party/LwIP/src/core\tcp.c **** #endif /* LWIP_CALLBACK_API */
 790:c:/Users/Black_Life/STM32Cube/Repository/STM32Cube_FW_F4_V1.26.2/Middlewares/Third_Party/LwIP/src/core\tcp.c **** 
 791:c:/Users/Black_Life/STM32Cube/Repository/STM32Cube_FW_F4_V1.26.2/Middlewares/Third_Party/LwIP/src/core\tcp.c **** /**
 792:c:/Users/Black_Life/STM32Cube/Repository/STM32Cube_FW_F4_V1.26.2/Middlewares/Third_Party/LwIP/src/core\tcp.c ****  * @ingroup tcp_raw
 793:c:/Users/Black_Life/STM32Cube/Repository/STM32Cube_FW_F4_V1.26.2/Middlewares/Third_Party/LwIP/src/core\tcp.c ****  * Set the state of the connection to be LISTEN, which means that it
 794:c:/Users/Black_Life/STM32Cube/Repository/STM32Cube_FW_F4_V1.26.2/Middlewares/Third_Party/LwIP/src/core\tcp.c ****  * is able to accept incoming connections. The protocol control block
 795:c:/Users/Black_Life/STM32Cube/Repository/STM32Cube_FW_F4_V1.26.2/Middlewares/Third_Party/LwIP/src/core\tcp.c ****  * is reallocated in order to consume less memory. Setting the
 796:c:/Users/Black_Life/STM32Cube/Repository/STM32Cube_FW_F4_V1.26.2/Middlewares/Third_Party/LwIP/src/core\tcp.c ****  * connection to LISTEN is an irreversible process.
 797:c:/Users/Black_Life/STM32Cube/Repository/STM32Cube_FW_F4_V1.26.2/Middlewares/Third_Party/LwIP/src/core\tcp.c ****  * When an incoming connection is accepted, the function specified with
 798:c:/Users/Black_Life/STM32Cube/Repository/STM32Cube_FW_F4_V1.26.2/Middlewares/Third_Party/LwIP/src/core\tcp.c ****  * the tcp_accept() function will be called. The pcb has to be bound
 799:c:/Users/Black_Life/STM32Cube/Repository/STM32Cube_FW_F4_V1.26.2/Middlewares/Third_Party/LwIP/src/core\tcp.c ****  * to a local port with the tcp_bind() function.
 800:c:/Users/Black_Life/STM32Cube/Repository/STM32Cube_FW_F4_V1.26.2/Middlewares/Third_Party/LwIP/src/core\tcp.c ****  * 
 801:c:/Users/Black_Life/STM32Cube/Repository/STM32Cube_FW_F4_V1.26.2/Middlewares/Third_Party/LwIP/src/core\tcp.c ****  * The tcp_listen() function returns a new connection identifier, and
 802:c:/Users/Black_Life/STM32Cube/Repository/STM32Cube_FW_F4_V1.26.2/Middlewares/Third_Party/LwIP/src/core\tcp.c ****  * the one passed as an argument to the function will be
 803:c:/Users/Black_Life/STM32Cube/Repository/STM32Cube_FW_F4_V1.26.2/Middlewares/Third_Party/LwIP/src/core\tcp.c ****  * deallocated. The reason for this behavior is that less memory is
 804:c:/Users/Black_Life/STM32Cube/Repository/STM32Cube_FW_F4_V1.26.2/Middlewares/Third_Party/LwIP/src/core\tcp.c ****  * needed for a connection that is listening, so tcp_listen() will
 805:c:/Users/Black_Life/STM32Cube/Repository/STM32Cube_FW_F4_V1.26.2/Middlewares/Third_Party/LwIP/src/core\tcp.c ****  * reclaim the memory needed for the original connection and allocate a
 806:c:/Users/Black_Life/STM32Cube/Repository/STM32Cube_FW_F4_V1.26.2/Middlewares/Third_Party/LwIP/src/core\tcp.c ****  * new smaller memory block for the listening connection.
 807:c:/Users/Black_Life/STM32Cube/Repository/STM32Cube_FW_F4_V1.26.2/Middlewares/Third_Party/LwIP/src/core\tcp.c ****  *
 808:c:/Users/Black_Life/STM32Cube/Repository/STM32Cube_FW_F4_V1.26.2/Middlewares/Third_Party/LwIP/src/core\tcp.c ****  * tcp_listen() may return NULL if no memory was available for the
 809:c:/Users/Black_Life/STM32Cube/Repository/STM32Cube_FW_F4_V1.26.2/Middlewares/Third_Party/LwIP/src/core\tcp.c ****  * listening connection. If so, the memory associated with the pcb
 810:c:/Users/Black_Life/STM32Cube/Repository/STM32Cube_FW_F4_V1.26.2/Middlewares/Third_Party/LwIP/src/core\tcp.c ****  * passed as an argument to tcp_listen() will not be deallocated.
 811:c:/Users/Black_Life/STM32Cube/Repository/STM32Cube_FW_F4_V1.26.2/Middlewares/Third_Party/LwIP/src/core\tcp.c ****  *
 812:c:/Users/Black_Life/STM32Cube/Repository/STM32Cube_FW_F4_V1.26.2/Middlewares/Third_Party/LwIP/src/core\tcp.c ****  * The backlog limits the number of outstanding connections
 813:c:/Users/Black_Life/STM32Cube/Repository/STM32Cube_FW_F4_V1.26.2/Middlewares/Third_Party/LwIP/src/core\tcp.c ****  * in the listen queue to the value specified by the backlog argument.
 814:c:/Users/Black_Life/STM32Cube/Repository/STM32Cube_FW_F4_V1.26.2/Middlewares/Third_Party/LwIP/src/core\tcp.c ****  * To use it, your need to set TCP_LISTEN_BACKLOG=1 in your lwipopts.h.
 815:c:/Users/Black_Life/STM32Cube/Repository/STM32Cube_FW_F4_V1.26.2/Middlewares/Third_Party/LwIP/src/core\tcp.c ****  * 
 816:c:/Users/Black_Life/STM32Cube/Repository/STM32Cube_FW_F4_V1.26.2/Middlewares/Third_Party/LwIP/src/core\tcp.c ****  * @param pcb the original tcp_pcb
 817:c:/Users/Black_Life/STM32Cube/Repository/STM32Cube_FW_F4_V1.26.2/Middlewares/Third_Party/LwIP/src/core\tcp.c ****  * @param backlog the incoming connections queue limit
 818:c:/Users/Black_Life/STM32Cube/Repository/STM32Cube_FW_F4_V1.26.2/Middlewares/Third_Party/LwIP/src/core\tcp.c ****  * @return tcp_pcb used for listening, consumes less memory.
 819:c:/Users/Black_Life/STM32Cube/Repository/STM32Cube_FW_F4_V1.26.2/Middlewares/Third_Party/LwIP/src/core\tcp.c ****  *
 820:c:/Users/Black_Life/STM32Cube/Repository/STM32Cube_FW_F4_V1.26.2/Middlewares/Third_Party/LwIP/src/core\tcp.c ****  * @note The original tcp_pcb is freed. This function therefore has to be
 821:c:/Users/Black_Life/STM32Cube/Repository/STM32Cube_FW_F4_V1.26.2/Middlewares/Third_Party/LwIP/src/core\tcp.c ****  *       called like this:
 822:c:/Users/Black_Life/STM32Cube/Repository/STM32Cube_FW_F4_V1.26.2/Middlewares/Third_Party/LwIP/src/core\tcp.c ****  *             tpcb = tcp_listen_with_backlog(tpcb, backlog);
 823:c:/Users/Black_Life/STM32Cube/Repository/STM32Cube_FW_F4_V1.26.2/Middlewares/Third_Party/LwIP/src/core\tcp.c ****  */
 824:c:/Users/Black_Life/STM32Cube/Repository/STM32Cube_FW_F4_V1.26.2/Middlewares/Third_Party/LwIP/src/core\tcp.c **** struct tcp_pcb *
 825:c:/Users/Black_Life/STM32Cube/Repository/STM32Cube_FW_F4_V1.26.2/Middlewares/Third_Party/LwIP/src/core\tcp.c **** tcp_listen_with_backlog(struct tcp_pcb *pcb, u8_t backlog)
 826:c:/Users/Black_Life/STM32Cube/Repository/STM32Cube_FW_F4_V1.26.2/Middlewares/Third_Party/LwIP/src/core\tcp.c **** {
 827:c:/Users/Black_Life/STM32Cube/Repository/STM32Cube_FW_F4_V1.26.2/Middlewares/Third_Party/LwIP/src/core\tcp.c ****   LWIP_ASSERT_CORE_LOCKED();
 828:c:/Users/Black_Life/STM32Cube/Repository/STM32Cube_FW_F4_V1.26.2/Middlewares/Third_Party/LwIP/src/core\tcp.c ****   return tcp_listen_with_backlog_and_err(pcb, backlog, NULL);
 829:c:/Users/Black_Life/STM32Cube/Repository/STM32Cube_FW_F4_V1.26.2/Middlewares/Third_Party/LwIP/src/core\tcp.c **** }
ARM GAS  C:\Users\BLACK_~1\AppData\Local\Temp\ccRovO0r.s 			page 16


 830:c:/Users/Black_Life/STM32Cube/Repository/STM32Cube_FW_F4_V1.26.2/Middlewares/Third_Party/LwIP/src/core\tcp.c **** 
 831:c:/Users/Black_Life/STM32Cube/Repository/STM32Cube_FW_F4_V1.26.2/Middlewares/Third_Party/LwIP/src/core\tcp.c **** /**
 832:c:/Users/Black_Life/STM32Cube/Repository/STM32Cube_FW_F4_V1.26.2/Middlewares/Third_Party/LwIP/src/core\tcp.c ****  * @ingroup tcp_raw
 833:c:/Users/Black_Life/STM32Cube/Repository/STM32Cube_FW_F4_V1.26.2/Middlewares/Third_Party/LwIP/src/core\tcp.c ****  * Set the state of the connection to be LISTEN, which means that it
 834:c:/Users/Black_Life/STM32Cube/Repository/STM32Cube_FW_F4_V1.26.2/Middlewares/Third_Party/LwIP/src/core\tcp.c ****  * is able to accept incoming connections. The protocol control block
 835:c:/Users/Black_Life/STM32Cube/Repository/STM32Cube_FW_F4_V1.26.2/Middlewares/Third_Party/LwIP/src/core\tcp.c ****  * is reallocated in order to consume less memory. Setting the
 836:c:/Users/Black_Life/STM32Cube/Repository/STM32Cube_FW_F4_V1.26.2/Middlewares/Third_Party/LwIP/src/core\tcp.c ****  * connection to LISTEN is an irreversible process.
 837:c:/Users/Black_Life/STM32Cube/Repository/STM32Cube_FW_F4_V1.26.2/Middlewares/Third_Party/LwIP/src/core\tcp.c ****  *
 838:c:/Users/Black_Life/STM32Cube/Repository/STM32Cube_FW_F4_V1.26.2/Middlewares/Third_Party/LwIP/src/core\tcp.c ****  * @param pcb the original tcp_pcb
 839:c:/Users/Black_Life/STM32Cube/Repository/STM32Cube_FW_F4_V1.26.2/Middlewares/Third_Party/LwIP/src/core\tcp.c ****  * @param backlog the incoming connections queue limit
 840:c:/Users/Black_Life/STM32Cube/Repository/STM32Cube_FW_F4_V1.26.2/Middlewares/Third_Party/LwIP/src/core\tcp.c ****  * @param err when NULL is returned, this contains the error reason
 841:c:/Users/Black_Life/STM32Cube/Repository/STM32Cube_FW_F4_V1.26.2/Middlewares/Third_Party/LwIP/src/core\tcp.c ****  * @return tcp_pcb used for listening, consumes less memory.
 842:c:/Users/Black_Life/STM32Cube/Repository/STM32Cube_FW_F4_V1.26.2/Middlewares/Third_Party/LwIP/src/core\tcp.c ****  *
 843:c:/Users/Black_Life/STM32Cube/Repository/STM32Cube_FW_F4_V1.26.2/Middlewares/Third_Party/LwIP/src/core\tcp.c ****  * @note The original tcp_pcb is freed. This function therefore has to be
 844:c:/Users/Black_Life/STM32Cube/Repository/STM32Cube_FW_F4_V1.26.2/Middlewares/Third_Party/LwIP/src/core\tcp.c ****  *       called like this:
 845:c:/Users/Black_Life/STM32Cube/Repository/STM32Cube_FW_F4_V1.26.2/Middlewares/Third_Party/LwIP/src/core\tcp.c ****  *             tpcb = tcp_listen_with_backlog_and_err(tpcb, backlog, &err);
 846:c:/Users/Black_Life/STM32Cube/Repository/STM32Cube_FW_F4_V1.26.2/Middlewares/Third_Party/LwIP/src/core\tcp.c ****  */
 847:c:/Users/Black_Life/STM32Cube/Repository/STM32Cube_FW_F4_V1.26.2/Middlewares/Third_Party/LwIP/src/core\tcp.c **** struct tcp_pcb *
 848:c:/Users/Black_Life/STM32Cube/Repository/STM32Cube_FW_F4_V1.26.2/Middlewares/Third_Party/LwIP/src/core\tcp.c **** tcp_listen_with_backlog_and_err(struct tcp_pcb *pcb, u8_t backlog, err_t *err)
 849:c:/Users/Black_Life/STM32Cube/Repository/STM32Cube_FW_F4_V1.26.2/Middlewares/Third_Party/LwIP/src/core\tcp.c **** {
 850:c:/Users/Black_Life/STM32Cube/Repository/STM32Cube_FW_F4_V1.26.2/Middlewares/Third_Party/LwIP/src/core\tcp.c ****   struct tcp_pcb_listen *lpcb = NULL;
 851:c:/Users/Black_Life/STM32Cube/Repository/STM32Cube_FW_F4_V1.26.2/Middlewares/Third_Party/LwIP/src/core\tcp.c ****   err_t res;
 852:c:/Users/Black_Life/STM32Cube/Repository/STM32Cube_FW_F4_V1.26.2/Middlewares/Third_Party/LwIP/src/core\tcp.c **** 
 853:c:/Users/Black_Life/STM32Cube/Repository/STM32Cube_FW_F4_V1.26.2/Middlewares/Third_Party/LwIP/src/core\tcp.c ****   LWIP_UNUSED_ARG(backlog);
 854:c:/Users/Black_Life/STM32Cube/Repository/STM32Cube_FW_F4_V1.26.2/Middlewares/Third_Party/LwIP/src/core\tcp.c **** 
 855:c:/Users/Black_Life/STM32Cube/Repository/STM32Cube_FW_F4_V1.26.2/Middlewares/Third_Party/LwIP/src/core\tcp.c ****   LWIP_ASSERT_CORE_LOCKED();
 856:c:/Users/Black_Life/STM32Cube/Repository/STM32Cube_FW_F4_V1.26.2/Middlewares/Third_Party/LwIP/src/core\tcp.c **** 
 857:c:/Users/Black_Life/STM32Cube/Repository/STM32Cube_FW_F4_V1.26.2/Middlewares/Third_Party/LwIP/src/core\tcp.c ****   LWIP_ERROR("tcp_listen_with_backlog_and_err: invalid pcb", pcb != NULL, res = ERR_ARG; goto done)
 858:c:/Users/Black_Life/STM32Cube/Repository/STM32Cube_FW_F4_V1.26.2/Middlewares/Third_Party/LwIP/src/core\tcp.c ****   LWIP_ERROR("tcp_listen_with_backlog_and_err: pcb already connected", pcb->state == CLOSED, res = 
 859:c:/Users/Black_Life/STM32Cube/Repository/STM32Cube_FW_F4_V1.26.2/Middlewares/Third_Party/LwIP/src/core\tcp.c **** 
 860:c:/Users/Black_Life/STM32Cube/Repository/STM32Cube_FW_F4_V1.26.2/Middlewares/Third_Party/LwIP/src/core\tcp.c ****   /* already listening? */
 861:c:/Users/Black_Life/STM32Cube/Repository/STM32Cube_FW_F4_V1.26.2/Middlewares/Third_Party/LwIP/src/core\tcp.c ****   if (pcb->state == LISTEN) {
 862:c:/Users/Black_Life/STM32Cube/Repository/STM32Cube_FW_F4_V1.26.2/Middlewares/Third_Party/LwIP/src/core\tcp.c ****     lpcb = (struct tcp_pcb_listen *)pcb;
 863:c:/Users/Black_Life/STM32Cube/Repository/STM32Cube_FW_F4_V1.26.2/Middlewares/Third_Party/LwIP/src/core\tcp.c ****     res = ERR_ALREADY;
 864:c:/Users/Black_Life/STM32Cube/Repository/STM32Cube_FW_F4_V1.26.2/Middlewares/Third_Party/LwIP/src/core\tcp.c ****     goto done;
 865:c:/Users/Black_Life/STM32Cube/Repository/STM32Cube_FW_F4_V1.26.2/Middlewares/Third_Party/LwIP/src/core\tcp.c ****   }
 866:c:/Users/Black_Life/STM32Cube/Repository/STM32Cube_FW_F4_V1.26.2/Middlewares/Third_Party/LwIP/src/core\tcp.c **** #if SO_REUSE
 867:c:/Users/Black_Life/STM32Cube/Repository/STM32Cube_FW_F4_V1.26.2/Middlewares/Third_Party/LwIP/src/core\tcp.c ****   if (ip_get_option(pcb, SOF_REUSEADDR)) {
 868:c:/Users/Black_Life/STM32Cube/Repository/STM32Cube_FW_F4_V1.26.2/Middlewares/Third_Party/LwIP/src/core\tcp.c ****     /* Since SOF_REUSEADDR allows reusing a local address before the pcb's usage
 869:c:/Users/Black_Life/STM32Cube/Repository/STM32Cube_FW_F4_V1.26.2/Middlewares/Third_Party/LwIP/src/core\tcp.c ****        is declared (listen-/connection-pcb), we have to make sure now that
 870:c:/Users/Black_Life/STM32Cube/Repository/STM32Cube_FW_F4_V1.26.2/Middlewares/Third_Party/LwIP/src/core\tcp.c ****        this port is only used once for every local IP. */
 871:c:/Users/Black_Life/STM32Cube/Repository/STM32Cube_FW_F4_V1.26.2/Middlewares/Third_Party/LwIP/src/core\tcp.c ****     for (lpcb = tcp_listen_pcbs.listen_pcbs; lpcb != NULL; lpcb = lpcb->next) {
 872:c:/Users/Black_Life/STM32Cube/Repository/STM32Cube_FW_F4_V1.26.2/Middlewares/Third_Party/LwIP/src/core\tcp.c ****       if ((lpcb->local_port == pcb->local_port) &&
 873:c:/Users/Black_Life/STM32Cube/Repository/STM32Cube_FW_F4_V1.26.2/Middlewares/Third_Party/LwIP/src/core\tcp.c ****           ip_addr_cmp(&lpcb->local_ip, &pcb->local_ip)) {
 874:c:/Users/Black_Life/STM32Cube/Repository/STM32Cube_FW_F4_V1.26.2/Middlewares/Third_Party/LwIP/src/core\tcp.c ****         /* this address/port is already used */
 875:c:/Users/Black_Life/STM32Cube/Repository/STM32Cube_FW_F4_V1.26.2/Middlewares/Third_Party/LwIP/src/core\tcp.c ****         lpcb = NULL;
 876:c:/Users/Black_Life/STM32Cube/Repository/STM32Cube_FW_F4_V1.26.2/Middlewares/Third_Party/LwIP/src/core\tcp.c ****         res = ERR_USE;
 877:c:/Users/Black_Life/STM32Cube/Repository/STM32Cube_FW_F4_V1.26.2/Middlewares/Third_Party/LwIP/src/core\tcp.c ****         goto done;
 878:c:/Users/Black_Life/STM32Cube/Repository/STM32Cube_FW_F4_V1.26.2/Middlewares/Third_Party/LwIP/src/core\tcp.c ****       }
 879:c:/Users/Black_Life/STM32Cube/Repository/STM32Cube_FW_F4_V1.26.2/Middlewares/Third_Party/LwIP/src/core\tcp.c ****     }
 880:c:/Users/Black_Life/STM32Cube/Repository/STM32Cube_FW_F4_V1.26.2/Middlewares/Third_Party/LwIP/src/core\tcp.c ****   }
 881:c:/Users/Black_Life/STM32Cube/Repository/STM32Cube_FW_F4_V1.26.2/Middlewares/Third_Party/LwIP/src/core\tcp.c **** #endif /* SO_REUSE */
 882:c:/Users/Black_Life/STM32Cube/Repository/STM32Cube_FW_F4_V1.26.2/Middlewares/Third_Party/LwIP/src/core\tcp.c ****   lpcb = (struct tcp_pcb_listen *)memp_malloc(MEMP_TCP_PCB_LISTEN);
 883:c:/Users/Black_Life/STM32Cube/Repository/STM32Cube_FW_F4_V1.26.2/Middlewares/Third_Party/LwIP/src/core\tcp.c ****   if (lpcb == NULL) {
 884:c:/Users/Black_Life/STM32Cube/Repository/STM32Cube_FW_F4_V1.26.2/Middlewares/Third_Party/LwIP/src/core\tcp.c ****     res = ERR_MEM;
 885:c:/Users/Black_Life/STM32Cube/Repository/STM32Cube_FW_F4_V1.26.2/Middlewares/Third_Party/LwIP/src/core\tcp.c ****     goto done;
 886:c:/Users/Black_Life/STM32Cube/Repository/STM32Cube_FW_F4_V1.26.2/Middlewares/Third_Party/LwIP/src/core\tcp.c ****   }
ARM GAS  C:\Users\BLACK_~1\AppData\Local\Temp\ccRovO0r.s 			page 17


 887:c:/Users/Black_Life/STM32Cube/Repository/STM32Cube_FW_F4_V1.26.2/Middlewares/Third_Party/LwIP/src/core\tcp.c ****   lpcb->callback_arg = pcb->callback_arg;
 888:c:/Users/Black_Life/STM32Cube/Repository/STM32Cube_FW_F4_V1.26.2/Middlewares/Third_Party/LwIP/src/core\tcp.c ****   lpcb->local_port = pcb->local_port;
 889:c:/Users/Black_Life/STM32Cube/Repository/STM32Cube_FW_F4_V1.26.2/Middlewares/Third_Party/LwIP/src/core\tcp.c ****   lpcb->state = LISTEN;
 890:c:/Users/Black_Life/STM32Cube/Repository/STM32Cube_FW_F4_V1.26.2/Middlewares/Third_Party/LwIP/src/core\tcp.c ****   lpcb->prio = pcb->prio;
 891:c:/Users/Black_Life/STM32Cube/Repository/STM32Cube_FW_F4_V1.26.2/Middlewares/Third_Party/LwIP/src/core\tcp.c ****   lpcb->so_options = pcb->so_options;
 892:c:/Users/Black_Life/STM32Cube/Repository/STM32Cube_FW_F4_V1.26.2/Middlewares/Third_Party/LwIP/src/core\tcp.c ****   lpcb->netif_idx = NETIF_NO_INDEX;
 893:c:/Users/Black_Life/STM32Cube/Repository/STM32Cube_FW_F4_V1.26.2/Middlewares/Third_Party/LwIP/src/core\tcp.c ****   lpcb->ttl = pcb->ttl;
 894:c:/Users/Black_Life/STM32Cube/Repository/STM32Cube_FW_F4_V1.26.2/Middlewares/Third_Party/LwIP/src/core\tcp.c ****   lpcb->tos = pcb->tos;
 895:c:/Users/Black_Life/STM32Cube/Repository/STM32Cube_FW_F4_V1.26.2/Middlewares/Third_Party/LwIP/src/core\tcp.c **** #if LWIP_IPV4 && LWIP_IPV6
 896:c:/Users/Black_Life/STM32Cube/Repository/STM32Cube_FW_F4_V1.26.2/Middlewares/Third_Party/LwIP/src/core\tcp.c ****   IP_SET_TYPE_VAL(lpcb->remote_ip, pcb->local_ip.type);
 897:c:/Users/Black_Life/STM32Cube/Repository/STM32Cube_FW_F4_V1.26.2/Middlewares/Third_Party/LwIP/src/core\tcp.c **** #endif /* LWIP_IPV4 && LWIP_IPV6 */
 898:c:/Users/Black_Life/STM32Cube/Repository/STM32Cube_FW_F4_V1.26.2/Middlewares/Third_Party/LwIP/src/core\tcp.c ****   ip_addr_copy(lpcb->local_ip, pcb->local_ip);
 899:c:/Users/Black_Life/STM32Cube/Repository/STM32Cube_FW_F4_V1.26.2/Middlewares/Third_Party/LwIP/src/core\tcp.c ****   if (pcb->local_port != 0) {
 900:c:/Users/Black_Life/STM32Cube/Repository/STM32Cube_FW_F4_V1.26.2/Middlewares/Third_Party/LwIP/src/core\tcp.c ****     TCP_RMV(&tcp_bound_pcbs, pcb);
 901:c:/Users/Black_Life/STM32Cube/Repository/STM32Cube_FW_F4_V1.26.2/Middlewares/Third_Party/LwIP/src/core\tcp.c ****   }
 902:c:/Users/Black_Life/STM32Cube/Repository/STM32Cube_FW_F4_V1.26.2/Middlewares/Third_Party/LwIP/src/core\tcp.c **** #if LWIP_TCP_PCB_NUM_EXT_ARGS
 903:c:/Users/Black_Life/STM32Cube/Repository/STM32Cube_FW_F4_V1.26.2/Middlewares/Third_Party/LwIP/src/core\tcp.c ****   /* copy over ext_args to listening pcb  */
 904:c:/Users/Black_Life/STM32Cube/Repository/STM32Cube_FW_F4_V1.26.2/Middlewares/Third_Party/LwIP/src/core\tcp.c ****   memcpy(&lpcb->ext_args, &pcb->ext_args, sizeof(pcb->ext_args));
 905:c:/Users/Black_Life/STM32Cube/Repository/STM32Cube_FW_F4_V1.26.2/Middlewares/Third_Party/LwIP/src/core\tcp.c **** #endif
 906:c:/Users/Black_Life/STM32Cube/Repository/STM32Cube_FW_F4_V1.26.2/Middlewares/Third_Party/LwIP/src/core\tcp.c ****   tcp_free(pcb);
 907:c:/Users/Black_Life/STM32Cube/Repository/STM32Cube_FW_F4_V1.26.2/Middlewares/Third_Party/LwIP/src/core\tcp.c **** #if LWIP_CALLBACK_API
 908:c:/Users/Black_Life/STM32Cube/Repository/STM32Cube_FW_F4_V1.26.2/Middlewares/Third_Party/LwIP/src/core\tcp.c ****   lpcb->accept = tcp_accept_null;
 909:c:/Users/Black_Life/STM32Cube/Repository/STM32Cube_FW_F4_V1.26.2/Middlewares/Third_Party/LwIP/src/core\tcp.c **** #endif /* LWIP_CALLBACK_API */
 910:c:/Users/Black_Life/STM32Cube/Repository/STM32Cube_FW_F4_V1.26.2/Middlewares/Third_Party/LwIP/src/core\tcp.c **** #if TCP_LISTEN_BACKLOG
 911:c:/Users/Black_Life/STM32Cube/Repository/STM32Cube_FW_F4_V1.26.2/Middlewares/Third_Party/LwIP/src/core\tcp.c ****   lpcb->accepts_pending = 0;
 912:c:/Users/Black_Life/STM32Cube/Repository/STM32Cube_FW_F4_V1.26.2/Middlewares/Third_Party/LwIP/src/core\tcp.c ****   tcp_backlog_set(lpcb, backlog);
 913:c:/Users/Black_Life/STM32Cube/Repository/STM32Cube_FW_F4_V1.26.2/Middlewares/Third_Party/LwIP/src/core\tcp.c **** #endif /* TCP_LISTEN_BACKLOG */
 914:c:/Users/Black_Life/STM32Cube/Repository/STM32Cube_FW_F4_V1.26.2/Middlewares/Third_Party/LwIP/src/core\tcp.c ****   TCP_REG(&tcp_listen_pcbs.pcbs, (struct tcp_pcb *)lpcb);
 915:c:/Users/Black_Life/STM32Cube/Repository/STM32Cube_FW_F4_V1.26.2/Middlewares/Third_Party/LwIP/src/core\tcp.c ****   res = ERR_OK;
 916:c:/Users/Black_Life/STM32Cube/Repository/STM32Cube_FW_F4_V1.26.2/Middlewares/Third_Party/LwIP/src/core\tcp.c **** done:
 917:c:/Users/Black_Life/STM32Cube/Repository/STM32Cube_FW_F4_V1.26.2/Middlewares/Third_Party/LwIP/src/core\tcp.c ****   if (err != NULL) {
 918:c:/Users/Black_Life/STM32Cube/Repository/STM32Cube_FW_F4_V1.26.2/Middlewares/Third_Party/LwIP/src/core\tcp.c ****     *err = res;
 919:c:/Users/Black_Life/STM32Cube/Repository/STM32Cube_FW_F4_V1.26.2/Middlewares/Third_Party/LwIP/src/core\tcp.c ****   }
 920:c:/Users/Black_Life/STM32Cube/Repository/STM32Cube_FW_F4_V1.26.2/Middlewares/Third_Party/LwIP/src/core\tcp.c ****   return (struct tcp_pcb *)lpcb;
 921:c:/Users/Black_Life/STM32Cube/Repository/STM32Cube_FW_F4_V1.26.2/Middlewares/Third_Party/LwIP/src/core\tcp.c **** }
 922:c:/Users/Black_Life/STM32Cube/Repository/STM32Cube_FW_F4_V1.26.2/Middlewares/Third_Party/LwIP/src/core\tcp.c **** 
 923:c:/Users/Black_Life/STM32Cube/Repository/STM32Cube_FW_F4_V1.26.2/Middlewares/Third_Party/LwIP/src/core\tcp.c **** /**
 924:c:/Users/Black_Life/STM32Cube/Repository/STM32Cube_FW_F4_V1.26.2/Middlewares/Third_Party/LwIP/src/core\tcp.c ****  * Update the state that tracks the available window space to advertise.
 925:c:/Users/Black_Life/STM32Cube/Repository/STM32Cube_FW_F4_V1.26.2/Middlewares/Third_Party/LwIP/src/core\tcp.c ****  *
 926:c:/Users/Black_Life/STM32Cube/Repository/STM32Cube_FW_F4_V1.26.2/Middlewares/Third_Party/LwIP/src/core\tcp.c ****  * Returns how much extra window would be advertised if we sent an
 927:c:/Users/Black_Life/STM32Cube/Repository/STM32Cube_FW_F4_V1.26.2/Middlewares/Third_Party/LwIP/src/core\tcp.c ****  * update now.
 928:c:/Users/Black_Life/STM32Cube/Repository/STM32Cube_FW_F4_V1.26.2/Middlewares/Third_Party/LwIP/src/core\tcp.c ****  */
 929:c:/Users/Black_Life/STM32Cube/Repository/STM32Cube_FW_F4_V1.26.2/Middlewares/Third_Party/LwIP/src/core\tcp.c **** u32_t
 930:c:/Users/Black_Life/STM32Cube/Repository/STM32Cube_FW_F4_V1.26.2/Middlewares/Third_Party/LwIP/src/core\tcp.c **** tcp_update_rcv_ann_wnd(struct tcp_pcb *pcb)
 931:c:/Users/Black_Life/STM32Cube/Repository/STM32Cube_FW_F4_V1.26.2/Middlewares/Third_Party/LwIP/src/core\tcp.c **** {
 932:c:/Users/Black_Life/STM32Cube/Repository/STM32Cube_FW_F4_V1.26.2/Middlewares/Third_Party/LwIP/src/core\tcp.c ****   u32_t new_right_edge;
 933:c:/Users/Black_Life/STM32Cube/Repository/STM32Cube_FW_F4_V1.26.2/Middlewares/Third_Party/LwIP/src/core\tcp.c **** 
 934:c:/Users/Black_Life/STM32Cube/Repository/STM32Cube_FW_F4_V1.26.2/Middlewares/Third_Party/LwIP/src/core\tcp.c ****   LWIP_ASSERT("tcp_update_rcv_ann_wnd: invalid pcb", pcb != NULL);
 935:c:/Users/Black_Life/STM32Cube/Repository/STM32Cube_FW_F4_V1.26.2/Middlewares/Third_Party/LwIP/src/core\tcp.c ****   new_right_edge = pcb->rcv_nxt + pcb->rcv_wnd;
 936:c:/Users/Black_Life/STM32Cube/Repository/STM32Cube_FW_F4_V1.26.2/Middlewares/Third_Party/LwIP/src/core\tcp.c **** 
 937:c:/Users/Black_Life/STM32Cube/Repository/STM32Cube_FW_F4_V1.26.2/Middlewares/Third_Party/LwIP/src/core\tcp.c ****   if (TCP_SEQ_GEQ(new_right_edge, pcb->rcv_ann_right_edge + LWIP_MIN((TCP_WND / 2), pcb->mss))) {
 938:c:/Users/Black_Life/STM32Cube/Repository/STM32Cube_FW_F4_V1.26.2/Middlewares/Third_Party/LwIP/src/core\tcp.c ****     /* we can advertise more window */
 939:c:/Users/Black_Life/STM32Cube/Repository/STM32Cube_FW_F4_V1.26.2/Middlewares/Third_Party/LwIP/src/core\tcp.c ****     pcb->rcv_ann_wnd = pcb->rcv_wnd;
 940:c:/Users/Black_Life/STM32Cube/Repository/STM32Cube_FW_F4_V1.26.2/Middlewares/Third_Party/LwIP/src/core\tcp.c ****     return new_right_edge - pcb->rcv_ann_right_edge;
 941:c:/Users/Black_Life/STM32Cube/Repository/STM32Cube_FW_F4_V1.26.2/Middlewares/Third_Party/LwIP/src/core\tcp.c ****   } else {
 942:c:/Users/Black_Life/STM32Cube/Repository/STM32Cube_FW_F4_V1.26.2/Middlewares/Third_Party/LwIP/src/core\tcp.c ****     if (TCP_SEQ_GT(pcb->rcv_nxt, pcb->rcv_ann_right_edge)) {
 943:c:/Users/Black_Life/STM32Cube/Repository/STM32Cube_FW_F4_V1.26.2/Middlewares/Third_Party/LwIP/src/core\tcp.c ****       /* Can happen due to other end sending out of advertised window,
ARM GAS  C:\Users\BLACK_~1\AppData\Local\Temp\ccRovO0r.s 			page 18


 944:c:/Users/Black_Life/STM32Cube/Repository/STM32Cube_FW_F4_V1.26.2/Middlewares/Third_Party/LwIP/src/core\tcp.c ****        * but within actual available (but not yet advertised) window */
 945:c:/Users/Black_Life/STM32Cube/Repository/STM32Cube_FW_F4_V1.26.2/Middlewares/Third_Party/LwIP/src/core\tcp.c ****       pcb->rcv_ann_wnd = 0;
 946:c:/Users/Black_Life/STM32Cube/Repository/STM32Cube_FW_F4_V1.26.2/Middlewares/Third_Party/LwIP/src/core\tcp.c ****     } else {
 947:c:/Users/Black_Life/STM32Cube/Repository/STM32Cube_FW_F4_V1.26.2/Middlewares/Third_Party/LwIP/src/core\tcp.c ****       /* keep the right edge of window constant */
 948:c:/Users/Black_Life/STM32Cube/Repository/STM32Cube_FW_F4_V1.26.2/Middlewares/Third_Party/LwIP/src/core\tcp.c ****       u32_t new_rcv_ann_wnd = pcb->rcv_ann_right_edge - pcb->rcv_nxt;
 949:c:/Users/Black_Life/STM32Cube/Repository/STM32Cube_FW_F4_V1.26.2/Middlewares/Third_Party/LwIP/src/core\tcp.c **** #if !LWIP_WND_SCALE
 950:c:/Users/Black_Life/STM32Cube/Repository/STM32Cube_FW_F4_V1.26.2/Middlewares/Third_Party/LwIP/src/core\tcp.c ****       LWIP_ASSERT("new_rcv_ann_wnd <= 0xffff", new_rcv_ann_wnd <= 0xffff);
 951:c:/Users/Black_Life/STM32Cube/Repository/STM32Cube_FW_F4_V1.26.2/Middlewares/Third_Party/LwIP/src/core\tcp.c **** #endif
 952:c:/Users/Black_Life/STM32Cube/Repository/STM32Cube_FW_F4_V1.26.2/Middlewares/Third_Party/LwIP/src/core\tcp.c ****       pcb->rcv_ann_wnd = (tcpwnd_size_t)new_rcv_ann_wnd;
 953:c:/Users/Black_Life/STM32Cube/Repository/STM32Cube_FW_F4_V1.26.2/Middlewares/Third_Party/LwIP/src/core\tcp.c ****     }
 954:c:/Users/Black_Life/STM32Cube/Repository/STM32Cube_FW_F4_V1.26.2/Middlewares/Third_Party/LwIP/src/core\tcp.c ****     return 0;
 955:c:/Users/Black_Life/STM32Cube/Repository/STM32Cube_FW_F4_V1.26.2/Middlewares/Third_Party/LwIP/src/core\tcp.c ****   }
 956:c:/Users/Black_Life/STM32Cube/Repository/STM32Cube_FW_F4_V1.26.2/Middlewares/Third_Party/LwIP/src/core\tcp.c **** }
 957:c:/Users/Black_Life/STM32Cube/Repository/STM32Cube_FW_F4_V1.26.2/Middlewares/Third_Party/LwIP/src/core\tcp.c **** 
 958:c:/Users/Black_Life/STM32Cube/Repository/STM32Cube_FW_F4_V1.26.2/Middlewares/Third_Party/LwIP/src/core\tcp.c **** /**
 959:c:/Users/Black_Life/STM32Cube/Repository/STM32Cube_FW_F4_V1.26.2/Middlewares/Third_Party/LwIP/src/core\tcp.c ****  * @ingroup tcp_raw
 960:c:/Users/Black_Life/STM32Cube/Repository/STM32Cube_FW_F4_V1.26.2/Middlewares/Third_Party/LwIP/src/core\tcp.c ****  * This function should be called by the application when it has
 961:c:/Users/Black_Life/STM32Cube/Repository/STM32Cube_FW_F4_V1.26.2/Middlewares/Third_Party/LwIP/src/core\tcp.c ****  * processed the data. The purpose is to advertise a larger window
 962:c:/Users/Black_Life/STM32Cube/Repository/STM32Cube_FW_F4_V1.26.2/Middlewares/Third_Party/LwIP/src/core\tcp.c ****  * when the data has been processed.
 963:c:/Users/Black_Life/STM32Cube/Repository/STM32Cube_FW_F4_V1.26.2/Middlewares/Third_Party/LwIP/src/core\tcp.c ****  *
 964:c:/Users/Black_Life/STM32Cube/Repository/STM32Cube_FW_F4_V1.26.2/Middlewares/Third_Party/LwIP/src/core\tcp.c ****  * @param pcb the tcp_pcb for which data is read
 965:c:/Users/Black_Life/STM32Cube/Repository/STM32Cube_FW_F4_V1.26.2/Middlewares/Third_Party/LwIP/src/core\tcp.c ****  * @param len the amount of bytes that have been read by the application
 966:c:/Users/Black_Life/STM32Cube/Repository/STM32Cube_FW_F4_V1.26.2/Middlewares/Third_Party/LwIP/src/core\tcp.c ****  */
 967:c:/Users/Black_Life/STM32Cube/Repository/STM32Cube_FW_F4_V1.26.2/Middlewares/Third_Party/LwIP/src/core\tcp.c **** void
 968:c:/Users/Black_Life/STM32Cube/Repository/STM32Cube_FW_F4_V1.26.2/Middlewares/Third_Party/LwIP/src/core\tcp.c **** tcp_recved(struct tcp_pcb *pcb, u16_t len)
 969:c:/Users/Black_Life/STM32Cube/Repository/STM32Cube_FW_F4_V1.26.2/Middlewares/Third_Party/LwIP/src/core\tcp.c **** {
 970:c:/Users/Black_Life/STM32Cube/Repository/STM32Cube_FW_F4_V1.26.2/Middlewares/Third_Party/LwIP/src/core\tcp.c ****   u32_t wnd_inflation;
 971:c:/Users/Black_Life/STM32Cube/Repository/STM32Cube_FW_F4_V1.26.2/Middlewares/Third_Party/LwIP/src/core\tcp.c ****   tcpwnd_size_t rcv_wnd;
 972:c:/Users/Black_Life/STM32Cube/Repository/STM32Cube_FW_F4_V1.26.2/Middlewares/Third_Party/LwIP/src/core\tcp.c **** 
 973:c:/Users/Black_Life/STM32Cube/Repository/STM32Cube_FW_F4_V1.26.2/Middlewares/Third_Party/LwIP/src/core\tcp.c ****   LWIP_ASSERT_CORE_LOCKED();
 974:c:/Users/Black_Life/STM32Cube/Repository/STM32Cube_FW_F4_V1.26.2/Middlewares/Third_Party/LwIP/src/core\tcp.c **** 
 975:c:/Users/Black_Life/STM32Cube/Repository/STM32Cube_FW_F4_V1.26.2/Middlewares/Third_Party/LwIP/src/core\tcp.c ****   LWIP_ERROR("tcp_recved: invalid pcb", pcb != NULL, return);
 976:c:/Users/Black_Life/STM32Cube/Repository/STM32Cube_FW_F4_V1.26.2/Middlewares/Third_Party/LwIP/src/core\tcp.c **** 
 977:c:/Users/Black_Life/STM32Cube/Repository/STM32Cube_FW_F4_V1.26.2/Middlewares/Third_Party/LwIP/src/core\tcp.c ****   /* pcb->state LISTEN not allowed here */
 978:c:/Users/Black_Life/STM32Cube/Repository/STM32Cube_FW_F4_V1.26.2/Middlewares/Third_Party/LwIP/src/core\tcp.c ****   LWIP_ASSERT("don't call tcp_recved for listen-pcbs",
 979:c:/Users/Black_Life/STM32Cube/Repository/STM32Cube_FW_F4_V1.26.2/Middlewares/Third_Party/LwIP/src/core\tcp.c ****               pcb->state != LISTEN);
 980:c:/Users/Black_Life/STM32Cube/Repository/STM32Cube_FW_F4_V1.26.2/Middlewares/Third_Party/LwIP/src/core\tcp.c **** 
 981:c:/Users/Black_Life/STM32Cube/Repository/STM32Cube_FW_F4_V1.26.2/Middlewares/Third_Party/LwIP/src/core\tcp.c ****   rcv_wnd = (tcpwnd_size_t)(pcb->rcv_wnd + len);
 982:c:/Users/Black_Life/STM32Cube/Repository/STM32Cube_FW_F4_V1.26.2/Middlewares/Third_Party/LwIP/src/core\tcp.c ****   if ((rcv_wnd > TCP_WND_MAX(pcb)) || (rcv_wnd < pcb->rcv_wnd)) {
 983:c:/Users/Black_Life/STM32Cube/Repository/STM32Cube_FW_F4_V1.26.2/Middlewares/Third_Party/LwIP/src/core\tcp.c ****     /* window got too big or tcpwnd_size_t overflow */
 984:c:/Users/Black_Life/STM32Cube/Repository/STM32Cube_FW_F4_V1.26.2/Middlewares/Third_Party/LwIP/src/core\tcp.c ****     LWIP_DEBUGF(TCP_DEBUG, ("tcp_recved: window got too big or tcpwnd_size_t overflow\n"));
 985:c:/Users/Black_Life/STM32Cube/Repository/STM32Cube_FW_F4_V1.26.2/Middlewares/Third_Party/LwIP/src/core\tcp.c ****     pcb->rcv_wnd = TCP_WND_MAX(pcb);
 986:c:/Users/Black_Life/STM32Cube/Repository/STM32Cube_FW_F4_V1.26.2/Middlewares/Third_Party/LwIP/src/core\tcp.c ****   } else  {
 987:c:/Users/Black_Life/STM32Cube/Repository/STM32Cube_FW_F4_V1.26.2/Middlewares/Third_Party/LwIP/src/core\tcp.c ****     pcb->rcv_wnd = rcv_wnd;
 988:c:/Users/Black_Life/STM32Cube/Repository/STM32Cube_FW_F4_V1.26.2/Middlewares/Third_Party/LwIP/src/core\tcp.c ****   }
 989:c:/Users/Black_Life/STM32Cube/Repository/STM32Cube_FW_F4_V1.26.2/Middlewares/Third_Party/LwIP/src/core\tcp.c **** 
 990:c:/Users/Black_Life/STM32Cube/Repository/STM32Cube_FW_F4_V1.26.2/Middlewares/Third_Party/LwIP/src/core\tcp.c ****   wnd_inflation = tcp_update_rcv_ann_wnd(pcb);
 991:c:/Users/Black_Life/STM32Cube/Repository/STM32Cube_FW_F4_V1.26.2/Middlewares/Third_Party/LwIP/src/core\tcp.c **** 
 992:c:/Users/Black_Life/STM32Cube/Repository/STM32Cube_FW_F4_V1.26.2/Middlewares/Third_Party/LwIP/src/core\tcp.c ****   /* If the change in the right edge of window is significant (default
 993:c:/Users/Black_Life/STM32Cube/Repository/STM32Cube_FW_F4_V1.26.2/Middlewares/Third_Party/LwIP/src/core\tcp.c ****    * watermark is TCP_WND/4), then send an explicit update now.
 994:c:/Users/Black_Life/STM32Cube/Repository/STM32Cube_FW_F4_V1.26.2/Middlewares/Third_Party/LwIP/src/core\tcp.c ****    * Otherwise wait for a packet to be sent in the normal course of
 995:c:/Users/Black_Life/STM32Cube/Repository/STM32Cube_FW_F4_V1.26.2/Middlewares/Third_Party/LwIP/src/core\tcp.c ****    * events (or more window to be available later) */
 996:c:/Users/Black_Life/STM32Cube/Repository/STM32Cube_FW_F4_V1.26.2/Middlewares/Third_Party/LwIP/src/core\tcp.c ****   if (wnd_inflation >= TCP_WND_UPDATE_THRESHOLD) {
 997:c:/Users/Black_Life/STM32Cube/Repository/STM32Cube_FW_F4_V1.26.2/Middlewares/Third_Party/LwIP/src/core\tcp.c ****     tcp_ack_now(pcb);
 998:c:/Users/Black_Life/STM32Cube/Repository/STM32Cube_FW_F4_V1.26.2/Middlewares/Third_Party/LwIP/src/core\tcp.c ****     tcp_output(pcb);
 999:c:/Users/Black_Life/STM32Cube/Repository/STM32Cube_FW_F4_V1.26.2/Middlewares/Third_Party/LwIP/src/core\tcp.c ****   }
1000:c:/Users/Black_Life/STM32Cube/Repository/STM32Cube_FW_F4_V1.26.2/Middlewares/Third_Party/LwIP/src/core\tcp.c **** 
ARM GAS  C:\Users\BLACK_~1\AppData\Local\Temp\ccRovO0r.s 			page 19


1001:c:/Users/Black_Life/STM32Cube/Repository/STM32Cube_FW_F4_V1.26.2/Middlewares/Third_Party/LwIP/src/core\tcp.c ****   LWIP_DEBUGF(TCP_DEBUG, ("tcp_recved: received %"U16_F" bytes, wnd %"TCPWNDSIZE_F" (%"TCPWNDSIZE_F
1002:c:/Users/Black_Life/STM32Cube/Repository/STM32Cube_FW_F4_V1.26.2/Middlewares/Third_Party/LwIP/src/core\tcp.c ****                           len, pcb->rcv_wnd, (u16_t)(TCP_WND_MAX(pcb) - pcb->rcv_wnd)));
1003:c:/Users/Black_Life/STM32Cube/Repository/STM32Cube_FW_F4_V1.26.2/Middlewares/Third_Party/LwIP/src/core\tcp.c **** }
1004:c:/Users/Black_Life/STM32Cube/Repository/STM32Cube_FW_F4_V1.26.2/Middlewares/Third_Party/LwIP/src/core\tcp.c **** 
1005:c:/Users/Black_Life/STM32Cube/Repository/STM32Cube_FW_F4_V1.26.2/Middlewares/Third_Party/LwIP/src/core\tcp.c **** /**
1006:c:/Users/Black_Life/STM32Cube/Repository/STM32Cube_FW_F4_V1.26.2/Middlewares/Third_Party/LwIP/src/core\tcp.c ****  * Allocate a new local TCP port.
1007:c:/Users/Black_Life/STM32Cube/Repository/STM32Cube_FW_F4_V1.26.2/Middlewares/Third_Party/LwIP/src/core\tcp.c ****  *
1008:c:/Users/Black_Life/STM32Cube/Repository/STM32Cube_FW_F4_V1.26.2/Middlewares/Third_Party/LwIP/src/core\tcp.c ****  * @return a new (free) local TCP port number
1009:c:/Users/Black_Life/STM32Cube/Repository/STM32Cube_FW_F4_V1.26.2/Middlewares/Third_Party/LwIP/src/core\tcp.c ****  */
1010:c:/Users/Black_Life/STM32Cube/Repository/STM32Cube_FW_F4_V1.26.2/Middlewares/Third_Party/LwIP/src/core\tcp.c **** static u16_t
1011:c:/Users/Black_Life/STM32Cube/Repository/STM32Cube_FW_F4_V1.26.2/Middlewares/Third_Party/LwIP/src/core\tcp.c **** tcp_new_port(void)
1012:c:/Users/Black_Life/STM32Cube/Repository/STM32Cube_FW_F4_V1.26.2/Middlewares/Third_Party/LwIP/src/core\tcp.c **** {
  28              		.loc 1 1012 1 view -0
  29              		.cfi_startproc
  30              		@ args = 0, pretend = 0, frame = 0
  31              		@ frame_needed = 0, uses_anonymous_args = 0
  32              		@ link register save eliminated.
1013:c:/Users/Black_Life/STM32Cube/Repository/STM32Cube_FW_F4_V1.26.2/Middlewares/Third_Party/LwIP/src/core\tcp.c ****   u8_t i;
  33              		.loc 1 1013 3 view .LVU1
1014:c:/Users/Black_Life/STM32Cube/Repository/STM32Cube_FW_F4_V1.26.2/Middlewares/Third_Party/LwIP/src/core\tcp.c ****   u16_t n = 0;
  34              		.loc 1 1014 3 view .LVU2
  35              	.LVL0:
  36              		.loc 1 1014 9 is_stmt 0 view .LVU3
  37 0000 4FF0000C 		mov	ip, #0
  38 0004 0BE0     		b	.L2
  39              	.LVL1:
  40              	.L12:
1015:c:/Users/Black_Life/STM32Cube/Repository/STM32Cube_FW_F4_V1.26.2/Middlewares/Third_Party/LwIP/src/core\tcp.c ****   struct tcp_pcb *pcb;
1016:c:/Users/Black_Life/STM32Cube/Repository/STM32Cube_FW_F4_V1.26.2/Middlewares/Third_Party/LwIP/src/core\tcp.c **** 
1017:c:/Users/Black_Life/STM32Cube/Repository/STM32Cube_FW_F4_V1.26.2/Middlewares/Third_Party/LwIP/src/core\tcp.c **** again:
1018:c:/Users/Black_Life/STM32Cube/Repository/STM32Cube_FW_F4_V1.26.2/Middlewares/Third_Party/LwIP/src/core\tcp.c ****   tcp_port++;
1019:c:/Users/Black_Life/STM32Cube/Repository/STM32Cube_FW_F4_V1.26.2/Middlewares/Third_Party/LwIP/src/core\tcp.c ****   if (tcp_port == TCP_LOCAL_PORT_RANGE_END) {
1020:c:/Users/Black_Life/STM32Cube/Repository/STM32Cube_FW_F4_V1.26.2/Middlewares/Third_Party/LwIP/src/core\tcp.c ****     tcp_port = TCP_LOCAL_PORT_RANGE_START;
  41              		.loc 1 1020 5 is_stmt 1 view .LVU4
  42              		.loc 1 1020 14 is_stmt 0 view .LVU5
  43 0006 164B     		ldr	r3, .L16
  44 0008 4FF44042 		mov	r2, #49152
  45 000c 1A80     		strh	r2, [r3]	@ movhi
  46 000e 0FE0     		b	.L3
  47              	.LVL2:
  48              	.L15:
1021:c:/Users/Black_Life/STM32Cube/Repository/STM32Cube_FW_F4_V1.26.2/Middlewares/Third_Party/LwIP/src/core\tcp.c ****   }
1022:c:/Users/Black_Life/STM32Cube/Repository/STM32Cube_FW_F4_V1.26.2/Middlewares/Third_Party/LwIP/src/core\tcp.c ****   /* Check all PCB lists. */
1023:c:/Users/Black_Life/STM32Cube/Repository/STM32Cube_FW_F4_V1.26.2/Middlewares/Third_Party/LwIP/src/core\tcp.c ****   for (i = 0; i < NUM_TCP_PCB_LISTS; i++) {
1024:c:/Users/Black_Life/STM32Cube/Repository/STM32Cube_FW_F4_V1.26.2/Middlewares/Third_Party/LwIP/src/core\tcp.c ****     for (pcb = *tcp_pcb_lists[i]; pcb != NULL; pcb = pcb->next) {
1025:c:/Users/Black_Life/STM32Cube/Repository/STM32Cube_FW_F4_V1.26.2/Middlewares/Third_Party/LwIP/src/core\tcp.c ****       if (pcb->local_port == tcp_port) {
1026:c:/Users/Black_Life/STM32Cube/Repository/STM32Cube_FW_F4_V1.26.2/Middlewares/Third_Party/LwIP/src/core\tcp.c ****         n++;
  49              		.loc 1 1026 9 is_stmt 1 view .LVU6
  50              		.loc 1 1026 10 is_stmt 0 view .LVU7
  51 0010 0CF1010C 		add	ip, ip, #1
  52              	.LVL3:
  53              		.loc 1 1026 10 view .LVU8
  54 0014 1FFA8CFC 		uxth	ip, ip
  55              	.LVL4:
1027:c:/Users/Black_Life/STM32Cube/Repository/STM32Cube_FW_F4_V1.26.2/Middlewares/Third_Party/LwIP/src/core\tcp.c ****         if (n > (TCP_LOCAL_PORT_RANGE_END - TCP_LOCAL_PORT_RANGE_START)) {
  56              		.loc 1 1027 9 is_stmt 1 view .LVU9
  57              		.loc 1 1027 12 is_stmt 0 view .LVU10
ARM GAS  C:\Users\BLACK_~1\AppData\Local\Temp\ccRovO0r.s 			page 20


  58 0018 BCF5804F 		cmp	ip, #16384
  59 001c 1DD2     		bcs	.L11
  60              	.LVL5:
  61              	.L2:
1015:c:/Users/Black_Life/STM32Cube/Repository/STM32Cube_FW_F4_V1.26.2/Middlewares/Third_Party/LwIP/src/core\tcp.c ****   struct tcp_pcb *pcb;
  62              		.loc 1 1015 3 is_stmt 1 view .LVU11
1018:c:/Users/Black_Life/STM32Cube/Repository/STM32Cube_FW_F4_V1.26.2/Middlewares/Third_Party/LwIP/src/core\tcp.c ****   if (tcp_port == TCP_LOCAL_PORT_RANGE_END) {
  63              		.loc 1 1018 3 view .LVU12
1018:c:/Users/Black_Life/STM32Cube/Repository/STM32Cube_FW_F4_V1.26.2/Middlewares/Third_Party/LwIP/src/core\tcp.c ****   if (tcp_port == TCP_LOCAL_PORT_RANGE_END) {
  64              		.loc 1 1018 11 is_stmt 0 view .LVU13
  65 001e 104A     		ldr	r2, .L16
  66 0020 1388     		ldrh	r3, [r2]
  67 0022 0133     		adds	r3, r3, #1
  68 0024 9BB2     		uxth	r3, r3
  69 0026 1380     		strh	r3, [r2]	@ movhi
1019:c:/Users/Black_Life/STM32Cube/Repository/STM32Cube_FW_F4_V1.26.2/Middlewares/Third_Party/LwIP/src/core\tcp.c ****     tcp_port = TCP_LOCAL_PORT_RANGE_START;
  70              		.loc 1 1019 3 is_stmt 1 view .LVU14
1019:c:/Users/Black_Life/STM32Cube/Repository/STM32Cube_FW_F4_V1.26.2/Middlewares/Third_Party/LwIP/src/core\tcp.c ****     tcp_port = TCP_LOCAL_PORT_RANGE_START;
  71              		.loc 1 1019 6 is_stmt 0 view .LVU15
  72 0028 4FF6FF72 		movw	r2, #65535
  73 002c 9342     		cmp	r3, r2
  74 002e EAD0     		beq	.L12
  75              	.L3:
1023:c:/Users/Black_Life/STM32Cube/Repository/STM32Cube_FW_F4_V1.26.2/Middlewares/Third_Party/LwIP/src/core\tcp.c ****     for (pcb = *tcp_pcb_lists[i]; pcb != NULL; pcb = pcb->next) {
  76              		.loc 1 1023 3 is_stmt 1 view .LVU16
  77              	.LVL6:
1023:c:/Users/Black_Life/STM32Cube/Repository/STM32Cube_FW_F4_V1.26.2/Middlewares/Third_Party/LwIP/src/core\tcp.c ****     for (pcb = *tcp_pcb_lists[i]; pcb != NULL; pcb = pcb->next) {
  78              		.loc 1 1023 10 is_stmt 0 view .LVU17
  79 0030 0020     		movs	r0, #0
  80              	.LVL7:
  81              	.L4:
1023:c:/Users/Black_Life/STM32Cube/Repository/STM32Cube_FW_F4_V1.26.2/Middlewares/Third_Party/LwIP/src/core\tcp.c ****     for (pcb = *tcp_pcb_lists[i]; pcb != NULL; pcb = pcb->next) {
  82              		.loc 1 1023 15 is_stmt 1 discriminator 1 view .LVU18
1023:c:/Users/Black_Life/STM32Cube/Repository/STM32Cube_FW_F4_V1.26.2/Middlewares/Third_Party/LwIP/src/core\tcp.c ****     for (pcb = *tcp_pcb_lists[i]; pcb != NULL; pcb = pcb->next) {
  83              		.loc 1 1023 3 is_stmt 0 discriminator 1 view .LVU19
  84 0032 0328     		cmp	r0, #3
  85 0034 0ED8     		bhi	.L13
1024:c:/Users/Black_Life/STM32Cube/Repository/STM32Cube_FW_F4_V1.26.2/Middlewares/Third_Party/LwIP/src/core\tcp.c ****       if (pcb->local_port == tcp_port) {
  86              		.loc 1 1024 5 is_stmt 1 view .LVU20
1024:c:/Users/Black_Life/STM32Cube/Repository/STM32Cube_FW_F4_V1.26.2/Middlewares/Third_Party/LwIP/src/core\tcp.c ****       if (pcb->local_port == tcp_port) {
  87              		.loc 1 1024 30 is_stmt 0 view .LVU21
  88 0036 0B4B     		ldr	r3, .L16+4
  89 0038 53F82030 		ldr	r3, [r3, r0, lsl #2]
1024:c:/Users/Black_Life/STM32Cube/Repository/STM32Cube_FW_F4_V1.26.2/Middlewares/Third_Party/LwIP/src/core\tcp.c ****       if (pcb->local_port == tcp_port) {
  90              		.loc 1 1024 14 view .LVU22
  91 003c 1B68     		ldr	r3, [r3]
  92              	.LVL8:
  93              	.L5:
1024:c:/Users/Black_Life/STM32Cube/Repository/STM32Cube_FW_F4_V1.26.2/Middlewares/Third_Party/LwIP/src/core\tcp.c ****       if (pcb->local_port == tcp_port) {
  94              		.loc 1 1024 35 is_stmt 1 discriminator 1 view .LVU23
1024:c:/Users/Black_Life/STM32Cube/Repository/STM32Cube_FW_F4_V1.26.2/Middlewares/Third_Party/LwIP/src/core\tcp.c ****       if (pcb->local_port == tcp_port) {
  95              		.loc 1 1024 5 is_stmt 0 discriminator 1 view .LVU24
  96 003e 33B1     		cbz	r3, .L14
1025:c:/Users/Black_Life/STM32Cube/Repository/STM32Cube_FW_F4_V1.26.2/Middlewares/Third_Party/LwIP/src/core\tcp.c ****         n++;
  97              		.loc 1 1025 7 is_stmt 1 view .LVU25
1025:c:/Users/Black_Life/STM32Cube/Repository/STM32Cube_FW_F4_V1.26.2/Middlewares/Third_Party/LwIP/src/core\tcp.c ****         n++;
  98              		.loc 1 1025 14 is_stmt 0 view .LVU26
ARM GAS  C:\Users\BLACK_~1\AppData\Local\Temp\ccRovO0r.s 			page 21


  99 0040 D98A     		ldrh	r1, [r3, #22]
1025:c:/Users/Black_Life/STM32Cube/Repository/STM32Cube_FW_F4_V1.26.2/Middlewares/Third_Party/LwIP/src/core\tcp.c ****         n++;
 100              		.loc 1 1025 27 view .LVU27
 101 0042 074A     		ldr	r2, .L16
 102 0044 1288     		ldrh	r2, [r2]
1025:c:/Users/Black_Life/STM32Cube/Repository/STM32Cube_FW_F4_V1.26.2/Middlewares/Third_Party/LwIP/src/core\tcp.c ****         n++;
 103              		.loc 1 1025 10 view .LVU28
 104 0046 9142     		cmp	r1, r2
 105 0048 E2D0     		beq	.L15
1024:c:/Users/Black_Life/STM32Cube/Repository/STM32Cube_FW_F4_V1.26.2/Middlewares/Third_Party/LwIP/src/core\tcp.c ****       if (pcb->local_port == tcp_port) {
 106              		.loc 1 1024 48 is_stmt 1 discriminator 2 view .LVU29
1024:c:/Users/Black_Life/STM32Cube/Repository/STM32Cube_FW_F4_V1.26.2/Middlewares/Third_Party/LwIP/src/core\tcp.c ****       if (pcb->local_port == tcp_port) {
 107              		.loc 1 1024 52 is_stmt 0 discriminator 2 view .LVU30
 108 004a DB68     		ldr	r3, [r3, #12]
 109              	.LVL9:
1024:c:/Users/Black_Life/STM32Cube/Repository/STM32Cube_FW_F4_V1.26.2/Middlewares/Third_Party/LwIP/src/core\tcp.c ****       if (pcb->local_port == tcp_port) {
 110              		.loc 1 1024 52 discriminator 2 view .LVU31
 111 004c F7E7     		b	.L5
 112              	.L14:
1023:c:/Users/Black_Life/STM32Cube/Repository/STM32Cube_FW_F4_V1.26.2/Middlewares/Third_Party/LwIP/src/core\tcp.c ****     for (pcb = *tcp_pcb_lists[i]; pcb != NULL; pcb = pcb->next) {
 113              		.loc 1 1023 38 is_stmt 1 discriminator 2 view .LVU32
1023:c:/Users/Black_Life/STM32Cube/Repository/STM32Cube_FW_F4_V1.26.2/Middlewares/Third_Party/LwIP/src/core\tcp.c ****     for (pcb = *tcp_pcb_lists[i]; pcb != NULL; pcb = pcb->next) {
 114              		.loc 1 1023 39 is_stmt 0 discriminator 2 view .LVU33
 115 004e 0130     		adds	r0, r0, #1
 116              	.LVL10:
1023:c:/Users/Black_Life/STM32Cube/Repository/STM32Cube_FW_F4_V1.26.2/Middlewares/Third_Party/LwIP/src/core\tcp.c ****     for (pcb = *tcp_pcb_lists[i]; pcb != NULL; pcb = pcb->next) {
 117              		.loc 1 1023 39 discriminator 2 view .LVU34
 118 0050 C0B2     		uxtb	r0, r0
 119              	.LVL11:
1023:c:/Users/Black_Life/STM32Cube/Repository/STM32Cube_FW_F4_V1.26.2/Middlewares/Third_Party/LwIP/src/core\tcp.c ****     for (pcb = *tcp_pcb_lists[i]; pcb != NULL; pcb = pcb->next) {
 120              		.loc 1 1023 39 discriminator 2 view .LVU35
 121 0052 EEE7     		b	.L4
 122              	.LVL12:
 123              	.L13:
1028:c:/Users/Black_Life/STM32Cube/Repository/STM32Cube_FW_F4_V1.26.2/Middlewares/Third_Party/LwIP/src/core\tcp.c ****           return 0;
1029:c:/Users/Black_Life/STM32Cube/Repository/STM32Cube_FW_F4_V1.26.2/Middlewares/Third_Party/LwIP/src/core\tcp.c ****         }
1030:c:/Users/Black_Life/STM32Cube/Repository/STM32Cube_FW_F4_V1.26.2/Middlewares/Third_Party/LwIP/src/core\tcp.c ****         goto again;
1031:c:/Users/Black_Life/STM32Cube/Repository/STM32Cube_FW_F4_V1.26.2/Middlewares/Third_Party/LwIP/src/core\tcp.c ****       }
1032:c:/Users/Black_Life/STM32Cube/Repository/STM32Cube_FW_F4_V1.26.2/Middlewares/Third_Party/LwIP/src/core\tcp.c ****     }
1033:c:/Users/Black_Life/STM32Cube/Repository/STM32Cube_FW_F4_V1.26.2/Middlewares/Third_Party/LwIP/src/core\tcp.c ****   }
1034:c:/Users/Black_Life/STM32Cube/Repository/STM32Cube_FW_F4_V1.26.2/Middlewares/Third_Party/LwIP/src/core\tcp.c ****   return tcp_port;
 124              		.loc 1 1034 3 is_stmt 1 view .LVU36
 125              		.loc 1 1034 10 is_stmt 0 view .LVU37
 126 0054 024B     		ldr	r3, .L16
 127 0056 1888     		ldrh	r0, [r3]
 128              	.LVL13:
 129              		.loc 1 1034 10 view .LVU38
 130 0058 7047     		bx	lr
 131              	.LVL14:
 132              	.L11:
1028:c:/Users/Black_Life/STM32Cube/Repository/STM32Cube_FW_F4_V1.26.2/Middlewares/Third_Party/LwIP/src/core\tcp.c ****           return 0;
 133              		.loc 1 1028 18 view .LVU39
 134 005a 0020     		movs	r0, #0
 135              	.LVL15:
1035:c:/Users/Black_Life/STM32Cube/Repository/STM32Cube_FW_F4_V1.26.2/Middlewares/Third_Party/LwIP/src/core\tcp.c **** }
 136              		.loc 1 1035 1 view .LVU40
 137 005c 7047     		bx	lr
ARM GAS  C:\Users\BLACK_~1\AppData\Local\Temp\ccRovO0r.s 			page 22


 138              	.L17:
 139 005e 00BF     		.align	2
 140              	.L16:
 141 0060 00000000 		.word	.LANCHOR0
 142 0064 00000000 		.word	.LANCHOR1
 143              		.cfi_endproc
 144              	.LFE175:
 146              		.section	.rodata.tcp_remove_listener.str1.4,"aMS",%progbits,1
 147              		.align	2
 148              	.LC0:
 149 0000 633A2F55 		.ascii	"c:/Users/Black_Life/STM32Cube/Repository/STM32Cube_"
 149      73657273 
 149      2F426C61 
 149      636B5F4C 
 149      6966652F 
 150 0033 46575F46 		.ascii	"FW_F4_V1.26.2/Middlewares/Third_Party/LwIP/src/core"
 150      345F5631 
 150      2E32362E 
 150      322F4D69 
 150      64646C65 
 151 0066 2F746370 		.ascii	"/tcp.c\000"
 151      2E6300
 152 006d 000000   		.align	2
 153              	.LC1:
 154 0070 7463705F 		.ascii	"tcp_remove_listener: invalid listener\000"
 154      72656D6F 
 154      76655F6C 
 154      69737465 
 154      6E65723A 
 155 0096 0000     		.align	2
 156              	.LC2:
 157 0098 41737365 		.ascii	"Assertion \"%s\" failed at line %d in %s\012\000"
 157      7274696F 
 157      6E202225 
 157      73222066 
 157      61696C65 
 158              		.section	.text.tcp_remove_listener,"ax",%progbits
 159              		.align	1
 160              		.syntax unified
 161              		.thumb
 162              		.thumb_func
 164              	tcp_remove_listener:
 165              	.LVL16:
 166              	.LFB160:
 252:c:/Users/Black_Life/STM32Cube/Repository/STM32Cube_FW_F4_V1.26.2/Middlewares/Third_Party/LwIP/src/core\tcp.c ****   struct tcp_pcb *pcb;
 167              		.loc 1 252 1 is_stmt 1 view -0
 168              		.cfi_startproc
 169              		@ args = 0, pretend = 0, frame = 0
 170              		@ frame_needed = 0, uses_anonymous_args = 0
 252:c:/Users/Black_Life/STM32Cube/Repository/STM32Cube_FW_F4_V1.26.2/Middlewares/Third_Party/LwIP/src/core\tcp.c ****   struct tcp_pcb *pcb;
 171              		.loc 1 252 1 is_stmt 0 view .LVU42
 172 0000 38B5     		push	{r3, r4, r5, lr}
 173              	.LCFI0:
 174              		.cfi_def_cfa_offset 16
 175              		.cfi_offset 3, -16
 176              		.cfi_offset 4, -12
 177              		.cfi_offset 5, -8
ARM GAS  C:\Users\BLACK_~1\AppData\Local\Temp\ccRovO0r.s 			page 23


 178              		.cfi_offset 14, -4
 179 0002 0446     		mov	r4, r0
 253:c:/Users/Black_Life/STM32Cube/Repository/STM32Cube_FW_F4_V1.26.2/Middlewares/Third_Party/LwIP/src/core\tcp.c **** 
 180              		.loc 1 253 3 is_stmt 1 view .LVU43
 255:c:/Users/Black_Life/STM32Cube/Repository/STM32Cube_FW_F4_V1.26.2/Middlewares/Third_Party/LwIP/src/core\tcp.c **** 
 181              		.loc 1 255 3 view .LVU44
 255:c:/Users/Black_Life/STM32Cube/Repository/STM32Cube_FW_F4_V1.26.2/Middlewares/Third_Party/LwIP/src/core\tcp.c **** 
 182              		.loc 1 255 3 view .LVU45
 183 0004 0D46     		mov	r5, r1
 184 0006 39B9     		cbnz	r1, .L20
 255:c:/Users/Black_Life/STM32Cube/Repository/STM32Cube_FW_F4_V1.26.2/Middlewares/Third_Party/LwIP/src/core\tcp.c **** 
 185              		.loc 1 255 3 discriminator 1 view .LVU46
 255:c:/Users/Black_Life/STM32Cube/Repository/STM32Cube_FW_F4_V1.26.2/Middlewares/Third_Party/LwIP/src/core\tcp.c **** 
 186              		.loc 1 255 3 discriminator 1 view .LVU47
 187 0008 074B     		ldr	r3, .L25
 188 000a FF22     		movs	r2, #255
 189 000c 0749     		ldr	r1, .L25+4
 190              	.LVL17:
 255:c:/Users/Black_Life/STM32Cube/Repository/STM32Cube_FW_F4_V1.26.2/Middlewares/Third_Party/LwIP/src/core\tcp.c **** 
 191              		.loc 1 255 3 is_stmt 0 discriminator 1 view .LVU48
 192 000e 0848     		ldr	r0, .L25+8
 193              	.LVL18:
 255:c:/Users/Black_Life/STM32Cube/Repository/STM32Cube_FW_F4_V1.26.2/Middlewares/Third_Party/LwIP/src/core\tcp.c **** 
 194              		.loc 1 255 3 discriminator 1 view .LVU49
 195 0010 FFF7FEFF 		bl	printf
 196              	.LVL19:
 197 0014 00E0     		b	.L20
 198              	.LVL20:
 199              	.L21:
 257:c:/Users/Black_Life/STM32Cube/Repository/STM32Cube_FW_F4_V1.26.2/Middlewares/Third_Party/LwIP/src/core\tcp.c ****     if (pcb->listener == lpcb) {
 200              		.loc 1 257 33 is_stmt 1 discriminator 2 view .LVU50
 257:c:/Users/Black_Life/STM32Cube/Repository/STM32Cube_FW_F4_V1.26.2/Middlewares/Third_Party/LwIP/src/core\tcp.c ****     if (pcb->listener == lpcb) {
 201              		.loc 1 257 37 is_stmt 0 discriminator 2 view .LVU51
 202 0016 E468     		ldr	r4, [r4, #12]
 203              	.LVL21:
 204              	.L20:
 257:c:/Users/Black_Life/STM32Cube/Repository/STM32Cube_FW_F4_V1.26.2/Middlewares/Third_Party/LwIP/src/core\tcp.c ****     if (pcb->listener == lpcb) {
 205              		.loc 1 257 20 is_stmt 1 discriminator 1 view .LVU52
 257:c:/Users/Black_Life/STM32Cube/Repository/STM32Cube_FW_F4_V1.26.2/Middlewares/Third_Party/LwIP/src/core\tcp.c ****     if (pcb->listener == lpcb) {
 206              		.loc 1 257 3 is_stmt 0 discriminator 1 view .LVU53
 207 0018 2CB1     		cbz	r4, .L24
 258:c:/Users/Black_Life/STM32Cube/Repository/STM32Cube_FW_F4_V1.26.2/Middlewares/Third_Party/LwIP/src/core\tcp.c ****       pcb->listener = NULL;
 208              		.loc 1 258 5 is_stmt 1 view .LVU54
 258:c:/Users/Black_Life/STM32Cube/Repository/STM32Cube_FW_F4_V1.26.2/Middlewares/Third_Party/LwIP/src/core\tcp.c ****       pcb->listener = NULL;
 209              		.loc 1 258 12 is_stmt 0 view .LVU55
 210 001a E36F     		ldr	r3, [r4, #124]
 258:c:/Users/Black_Life/STM32Cube/Repository/STM32Cube_FW_F4_V1.26.2/Middlewares/Third_Party/LwIP/src/core\tcp.c ****       pcb->listener = NULL;
 211              		.loc 1 258 8 view .LVU56
 212 001c AB42     		cmp	r3, r5
 213 001e FAD1     		bne	.L21
 259:c:/Users/Black_Life/STM32Cube/Repository/STM32Cube_FW_F4_V1.26.2/Middlewares/Third_Party/LwIP/src/core\tcp.c ****     }
 214              		.loc 1 259 7 is_stmt 1 view .LVU57
 259:c:/Users/Black_Life/STM32Cube/Repository/STM32Cube_FW_F4_V1.26.2/Middlewares/Third_Party/LwIP/src/core\tcp.c ****     }
 215              		.loc 1 259 21 is_stmt 0 view .LVU58
 216 0020 0023     		movs	r3, #0
 217 0022 E367     		str	r3, [r4, #124]
 218 0024 F7E7     		b	.L21
ARM GAS  C:\Users\BLACK_~1\AppData\Local\Temp\ccRovO0r.s 			page 24


 219              	.L24:
 262:c:/Users/Black_Life/STM32Cube/Repository/STM32Cube_FW_F4_V1.26.2/Middlewares/Third_Party/LwIP/src/core\tcp.c **** #endif
 220              		.loc 1 262 1 view .LVU59
 221 0026 38BD     		pop	{r3, r4, r5, pc}
 222              	.LVL22:
 223              	.L26:
 262:c:/Users/Black_Life/STM32Cube/Repository/STM32Cube_FW_F4_V1.26.2/Middlewares/Third_Party/LwIP/src/core\tcp.c **** #endif
 224              		.loc 1 262 1 view .LVU60
 225              		.align	2
 226              	.L25:
 227 0028 00000000 		.word	.LC0
 228 002c 70000000 		.word	.LC1
 229 0030 98000000 		.word	.LC2
 230              		.cfi_endproc
 231              	.LFE160:
 233              		.section	.rodata.tcp_listen_closed.str1.4,"aMS",%progbits,1
 234              		.align	2
 235              	.LC3:
 236 0000 70636220 		.ascii	"pcb != NULL\000"
 236      213D204E 
 236      554C4C00 
 237              		.align	2
 238              	.LC4:
 239 000c 7063622D 		.ascii	"pcb->state == LISTEN\000"
 239      3E737461 
 239      7465203D 
 239      3D204C49 
 239      5354454E 
 240              		.section	.text.tcp_listen_closed,"ax",%progbits
 241              		.align	1
 242              		.syntax unified
 243              		.thumb
 244              		.thumb_func
 246              	tcp_listen_closed:
 247              	.LVL23:
 248              	.LFB161:
 270:c:/Users/Black_Life/STM32Cube/Repository/STM32Cube_FW_F4_V1.26.2/Middlewares/Third_Party/LwIP/src/core\tcp.c **** #if LWIP_CALLBACK_API || TCP_LISTEN_BACKLOG
 249              		.loc 1 270 1 is_stmt 1 view -0
 250              		.cfi_startproc
 251              		@ args = 0, pretend = 0, frame = 0
 252              		@ frame_needed = 0, uses_anonymous_args = 0
 270:c:/Users/Black_Life/STM32Cube/Repository/STM32Cube_FW_F4_V1.26.2/Middlewares/Third_Party/LwIP/src/core\tcp.c **** #if LWIP_CALLBACK_API || TCP_LISTEN_BACKLOG
 253              		.loc 1 270 1 is_stmt 0 view .LVU62
 254 0000 38B5     		push	{r3, r4, r5, lr}
 255              	.LCFI1:
 256              		.cfi_def_cfa_offset 16
 257              		.cfi_offset 3, -16
 258              		.cfi_offset 4, -12
 259              		.cfi_offset 5, -8
 260              		.cfi_offset 14, -4
 272:c:/Users/Black_Life/STM32Cube/Repository/STM32Cube_FW_F4_V1.26.2/Middlewares/Third_Party/LwIP/src/core\tcp.c ****   LWIP_ASSERT("pcb != NULL", pcb != NULL);
 261              		.loc 1 272 3 is_stmt 1 view .LVU63
 273:c:/Users/Black_Life/STM32Cube/Repository/STM32Cube_FW_F4_V1.26.2/Middlewares/Third_Party/LwIP/src/core\tcp.c ****   LWIP_ASSERT("pcb->state == LISTEN", pcb->state == LISTEN);
 262              		.loc 1 273 3 view .LVU64
 273:c:/Users/Black_Life/STM32Cube/Repository/STM32Cube_FW_F4_V1.26.2/Middlewares/Third_Party/LwIP/src/core\tcp.c ****   LWIP_ASSERT("pcb->state == LISTEN", pcb->state == LISTEN);
 263              		.loc 1 273 3 view .LVU65
 264 0002 0546     		mov	r5, r0
ARM GAS  C:\Users\BLACK_~1\AppData\Local\Temp\ccRovO0r.s 			page 25


 265 0004 20B1     		cbz	r0, .L33
 266              	.LVL24:
 267              	.L28:
 273:c:/Users/Black_Life/STM32Cube/Repository/STM32Cube_FW_F4_V1.26.2/Middlewares/Third_Party/LwIP/src/core\tcp.c ****   LWIP_ASSERT("pcb->state == LISTEN", pcb->state == LISTEN);
 268              		.loc 1 273 3 discriminator 3 view .LVU66
 273:c:/Users/Black_Life/STM32Cube/Repository/STM32Cube_FW_F4_V1.26.2/Middlewares/Third_Party/LwIP/src/core\tcp.c ****   LWIP_ASSERT("pcb->state == LISTEN", pcb->state == LISTEN);
 269              		.loc 1 273 3 discriminator 3 view .LVU67
 274:c:/Users/Black_Life/STM32Cube/Repository/STM32Cube_FW_F4_V1.26.2/Middlewares/Third_Party/LwIP/src/core\tcp.c ****   for (i = 1; i < LWIP_ARRAYSIZE(tcp_pcb_lists); i++) {
 270              		.loc 1 274 3 discriminator 3 view .LVU68
 274:c:/Users/Black_Life/STM32Cube/Repository/STM32Cube_FW_F4_V1.26.2/Middlewares/Third_Party/LwIP/src/core\tcp.c ****   for (i = 1; i < LWIP_ARRAYSIZE(tcp_pcb_lists); i++) {
 271              		.loc 1 274 3 discriminator 3 view .LVU69
 272 0006 2B7D     		ldrb	r3, [r5, #20]	@ zero_extendqisi2
 273 0008 012B     		cmp	r3, #1
 274 000a 09D1     		bne	.L34
 275              	.L29:
 270:c:/Users/Black_Life/STM32Cube/Repository/STM32Cube_FW_F4_V1.26.2/Middlewares/Third_Party/LwIP/src/core\tcp.c **** #if LWIP_CALLBACK_API || TCP_LISTEN_BACKLOG
 276              		.loc 1 270 1 is_stmt 0 discriminator 1 view .LVU70
 277 000c 0124     		movs	r4, #1
 278 000e 17E0     		b	.L30
 279              	.LVL25:
 280              	.L33:
 273:c:/Users/Black_Life/STM32Cube/Repository/STM32Cube_FW_F4_V1.26.2/Middlewares/Third_Party/LwIP/src/core\tcp.c ****   LWIP_ASSERT("pcb->state == LISTEN", pcb->state == LISTEN);
 281              		.loc 1 273 3 is_stmt 1 discriminator 1 view .LVU71
 273:c:/Users/Black_Life/STM32Cube/Repository/STM32Cube_FW_F4_V1.26.2/Middlewares/Third_Party/LwIP/src/core\tcp.c ****   LWIP_ASSERT("pcb->state == LISTEN", pcb->state == LISTEN);
 282              		.loc 1 273 3 discriminator 1 view .LVU72
 283 0010 0D4B     		ldr	r3, .L35
 284 0012 40F21112 		movw	r2, #273
 285 0016 0D49     		ldr	r1, .L35+4
 286 0018 0D48     		ldr	r0, .L35+8
 287              	.LVL26:
 273:c:/Users/Black_Life/STM32Cube/Repository/STM32Cube_FW_F4_V1.26.2/Middlewares/Third_Party/LwIP/src/core\tcp.c ****   LWIP_ASSERT("pcb->state == LISTEN", pcb->state == LISTEN);
 288              		.loc 1 273 3 is_stmt 0 discriminator 1 view .LVU73
 289 001a FFF7FEFF 		bl	printf
 290              	.LVL27:
 291 001e F2E7     		b	.L28
 292              	.L34:
 274:c:/Users/Black_Life/STM32Cube/Repository/STM32Cube_FW_F4_V1.26.2/Middlewares/Third_Party/LwIP/src/core\tcp.c ****   for (i = 1; i < LWIP_ARRAYSIZE(tcp_pcb_lists); i++) {
 293              		.loc 1 274 3 is_stmt 1 discriminator 1 view .LVU74
 274:c:/Users/Black_Life/STM32Cube/Repository/STM32Cube_FW_F4_V1.26.2/Middlewares/Third_Party/LwIP/src/core\tcp.c ****   for (i = 1; i < LWIP_ARRAYSIZE(tcp_pcb_lists); i++) {
 294              		.loc 1 274 3 discriminator 1 view .LVU75
 295 0020 094B     		ldr	r3, .L35
 296 0022 4FF48972 		mov	r2, #274
 297 0026 0B49     		ldr	r1, .L35+12
 298 0028 0948     		ldr	r0, .L35+8
 299 002a FFF7FEFF 		bl	printf
 300              	.LVL28:
 301 002e EDE7     		b	.L29
 302              	.LVL29:
 303              	.L31:
 276:c:/Users/Black_Life/STM32Cube/Repository/STM32Cube_FW_F4_V1.26.2/Middlewares/Third_Party/LwIP/src/core\tcp.c ****   }
 304              		.loc 1 276 5 discriminator 3 view .LVU76
 276:c:/Users/Black_Life/STM32Cube/Repository/STM32Cube_FW_F4_V1.26.2/Middlewares/Third_Party/LwIP/src/core\tcp.c ****   }
 305              		.loc 1 276 39 is_stmt 0 discriminator 3 view .LVU77
 306 0030 094B     		ldr	r3, .L35+16
 307 0032 53F82430 		ldr	r3, [r3, r4, lsl #2]
 276:c:/Users/Black_Life/STM32Cube/Repository/STM32Cube_FW_F4_V1.26.2/Middlewares/Third_Party/LwIP/src/core\tcp.c ****   }
 308              		.loc 1 276 5 discriminator 3 view .LVU78
ARM GAS  C:\Users\BLACK_~1\AppData\Local\Temp\ccRovO0r.s 			page 26


 309 0036 2946     		mov	r1, r5
 310 0038 1868     		ldr	r0, [r3]
 311 003a FFF7FEFF 		bl	tcp_remove_listener
 312              	.LVL30:
 275:c:/Users/Black_Life/STM32Cube/Repository/STM32Cube_FW_F4_V1.26.2/Middlewares/Third_Party/LwIP/src/core\tcp.c ****     tcp_remove_listener(*tcp_pcb_lists[i], (struct tcp_pcb_listen *)pcb);
 313              		.loc 1 275 50 is_stmt 1 discriminator 3 view .LVU79
 275:c:/Users/Black_Life/STM32Cube/Repository/STM32Cube_FW_F4_V1.26.2/Middlewares/Third_Party/LwIP/src/core\tcp.c ****     tcp_remove_listener(*tcp_pcb_lists[i], (struct tcp_pcb_listen *)pcb);
 314              		.loc 1 275 51 is_stmt 0 discriminator 3 view .LVU80
 315 003e 0134     		adds	r4, r4, #1
 316              	.LVL31:
 317              	.L30:
 275:c:/Users/Black_Life/STM32Cube/Repository/STM32Cube_FW_F4_V1.26.2/Middlewares/Third_Party/LwIP/src/core\tcp.c ****     tcp_remove_listener(*tcp_pcb_lists[i], (struct tcp_pcb_listen *)pcb);
 318              		.loc 1 275 15 is_stmt 1 discriminator 1 view .LVU81
 275:c:/Users/Black_Life/STM32Cube/Repository/STM32Cube_FW_F4_V1.26.2/Middlewares/Third_Party/LwIP/src/core\tcp.c ****     tcp_remove_listener(*tcp_pcb_lists[i], (struct tcp_pcb_listen *)pcb);
 319              		.loc 1 275 3 is_stmt 0 discriminator 1 view .LVU82
 320 0040 032C     		cmp	r4, #3
 321 0042 F5D9     		bls	.L31
 280:c:/Users/Black_Life/STM32Cube/Repository/STM32Cube_FW_F4_V1.26.2/Middlewares/Third_Party/LwIP/src/core\tcp.c **** 
 322              		.loc 1 280 1 view .LVU83
 323 0044 38BD     		pop	{r3, r4, r5, pc}
 324              	.LVL32:
 325              	.L36:
 280:c:/Users/Black_Life/STM32Cube/Repository/STM32Cube_FW_F4_V1.26.2/Middlewares/Third_Party/LwIP/src/core\tcp.c **** 
 326              		.loc 1 280 1 view .LVU84
 327 0046 00BF     		.align	2
 328              	.L35:
 329 0048 00000000 		.word	.LC0
 330 004c 00000000 		.word	.LC3
 331 0050 98000000 		.word	.LC2
 332 0054 0C000000 		.word	.LC4
 333 0058 00000000 		.word	.LANCHOR1
 334              		.cfi_endproc
 335              	.LFE161:
 337              		.section	.rodata.tcp_free_listen.str1.4,"aMS",%progbits,1
 338              		.align	2
 339              	.LC5:
 340 0000 7463705F 		.ascii	"tcp_free_listen: !LISTEN\000"
 340      66726565 
 340      5F6C6973 
 340      74656E3A 
 340      20214C49 
 341              		.section	.text.tcp_free_listen,"ax",%progbits
 342              		.align	1
 343              		.syntax unified
 344              		.thumb
 345              		.thumb_func
 347              	tcp_free_listen:
 348              	.LVL33:
 349              	.LFB158:
 222:c:/Users/Black_Life/STM32Cube/Repository/STM32Cube_FW_F4_V1.26.2/Middlewares/Third_Party/LwIP/src/core\tcp.c ****   LWIP_ASSERT("tcp_free_listen: !LISTEN", pcb->state != LISTEN);
 350              		.loc 1 222 1 is_stmt 1 view -0
 351              		.cfi_startproc
 352              		@ args = 0, pretend = 0, frame = 0
 353              		@ frame_needed = 0, uses_anonymous_args = 0
 222:c:/Users/Black_Life/STM32Cube/Repository/STM32Cube_FW_F4_V1.26.2/Middlewares/Third_Party/LwIP/src/core\tcp.c ****   LWIP_ASSERT("tcp_free_listen: !LISTEN", pcb->state != LISTEN);
 354              		.loc 1 222 1 is_stmt 0 view .LVU86
 355 0000 10B5     		push	{r4, lr}
ARM GAS  C:\Users\BLACK_~1\AppData\Local\Temp\ccRovO0r.s 			page 27


 356              	.LCFI2:
 357              		.cfi_def_cfa_offset 8
 358              		.cfi_offset 4, -8
 359              		.cfi_offset 14, -4
 360 0002 0446     		mov	r4, r0
 223:c:/Users/Black_Life/STM32Cube/Repository/STM32Cube_FW_F4_V1.26.2/Middlewares/Third_Party/LwIP/src/core\tcp.c **** #if LWIP_TCP_PCB_NUM_EXT_ARGS
 361              		.loc 1 223 3 is_stmt 1 view .LVU87
 223:c:/Users/Black_Life/STM32Cube/Repository/STM32Cube_FW_F4_V1.26.2/Middlewares/Third_Party/LwIP/src/core\tcp.c **** #if LWIP_TCP_PCB_NUM_EXT_ARGS
 362              		.loc 1 223 3 view .LVU88
 363 0004 037D     		ldrb	r3, [r0, #20]	@ zero_extendqisi2
 364 0006 012B     		cmp	r3, #1
 365 0008 04D0     		beq	.L40
 366              	.LVL34:
 367              	.L38:
 223:c:/Users/Black_Life/STM32Cube/Repository/STM32Cube_FW_F4_V1.26.2/Middlewares/Third_Party/LwIP/src/core\tcp.c **** #if LWIP_TCP_PCB_NUM_EXT_ARGS
 368              		.loc 1 223 3 discriminator 3 view .LVU89
 223:c:/Users/Black_Life/STM32Cube/Repository/STM32Cube_FW_F4_V1.26.2/Middlewares/Third_Party/LwIP/src/core\tcp.c **** #if LWIP_TCP_PCB_NUM_EXT_ARGS
 369              		.loc 1 223 3 discriminator 3 view .LVU90
 227:c:/Users/Black_Life/STM32Cube/Repository/STM32Cube_FW_F4_V1.26.2/Middlewares/Third_Party/LwIP/src/core\tcp.c **** }
 370              		.loc 1 227 3 discriminator 3 view .LVU91
 371 000a 2146     		mov	r1, r4
 372 000c 0220     		movs	r0, #2
 373 000e FFF7FEFF 		bl	memp_free
 374              	.LVL35:
 228:c:/Users/Black_Life/STM32Cube/Repository/STM32Cube_FW_F4_V1.26.2/Middlewares/Third_Party/LwIP/src/core\tcp.c **** 
 375              		.loc 1 228 1 is_stmt 0 discriminator 3 view .LVU92
 376 0012 10BD     		pop	{r4, pc}
 377              	.LVL36:
 378              	.L40:
 223:c:/Users/Black_Life/STM32Cube/Repository/STM32Cube_FW_F4_V1.26.2/Middlewares/Third_Party/LwIP/src/core\tcp.c **** #if LWIP_TCP_PCB_NUM_EXT_ARGS
 379              		.loc 1 223 3 is_stmt 1 discriminator 1 view .LVU93
 223:c:/Users/Black_Life/STM32Cube/Repository/STM32Cube_FW_F4_V1.26.2/Middlewares/Third_Party/LwIP/src/core\tcp.c **** #if LWIP_TCP_PCB_NUM_EXT_ARGS
 380              		.loc 1 223 3 discriminator 1 view .LVU94
 381 0014 034B     		ldr	r3, .L41
 382 0016 DF22     		movs	r2, #223
 383 0018 0349     		ldr	r1, .L41+4
 384 001a 0448     		ldr	r0, .L41+8
 385              	.LVL37:
 223:c:/Users/Black_Life/STM32Cube/Repository/STM32Cube_FW_F4_V1.26.2/Middlewares/Third_Party/LwIP/src/core\tcp.c **** #if LWIP_TCP_PCB_NUM_EXT_ARGS
 386              		.loc 1 223 3 is_stmt 0 discriminator 1 view .LVU95
 387 001c FFF7FEFF 		bl	printf
 388              	.LVL38:
 389 0020 F3E7     		b	.L38
 390              	.L42:
 391 0022 00BF     		.align	2
 392              	.L41:
 393 0024 00000000 		.word	.LC0
 394 0028 00000000 		.word	.LC5
 395 002c 98000000 		.word	.LC2
 396              		.cfi_endproc
 397              	.LFE158:
 399              		.section	.text.tcp_close_shutdown_fin,"ax",%progbits
 400              		.align	1
 401              		.syntax unified
 402              		.thumb
 403              		.thumb_func
 405              	tcp_close_shutdown_fin:
ARM GAS  C:\Users\BLACK_~1\AppData\Local\Temp\ccRovO0r.s 			page 28


 406              	.LVL39:
 407              	.LFB163:
 410:c:/Users/Black_Life/STM32Cube/Repository/STM32Cube_FW_F4_V1.26.2/Middlewares/Third_Party/LwIP/src/core\tcp.c ****   err_t err;
 408              		.loc 1 410 1 is_stmt 1 view -0
 409              		.cfi_startproc
 410              		@ args = 0, pretend = 0, frame = 0
 411              		@ frame_needed = 0, uses_anonymous_args = 0
 410:c:/Users/Black_Life/STM32Cube/Repository/STM32Cube_FW_F4_V1.26.2/Middlewares/Third_Party/LwIP/src/core\tcp.c ****   err_t err;
 412              		.loc 1 410 1 is_stmt 0 view .LVU97
 413 0000 38B5     		push	{r3, r4, r5, lr}
 414              	.LCFI3:
 415              		.cfi_def_cfa_offset 16
 416              		.cfi_offset 3, -16
 417              		.cfi_offset 4, -12
 418              		.cfi_offset 5, -8
 419              		.cfi_offset 14, -4
 411:c:/Users/Black_Life/STM32Cube/Repository/STM32Cube_FW_F4_V1.26.2/Middlewares/Third_Party/LwIP/src/core\tcp.c ****   LWIP_ASSERT("pcb != NULL", pcb != NULL);
 420              		.loc 1 411 3 is_stmt 1 view .LVU98
 412:c:/Users/Black_Life/STM32Cube/Repository/STM32Cube_FW_F4_V1.26.2/Middlewares/Third_Party/LwIP/src/core\tcp.c **** 
 421              		.loc 1 412 3 view .LVU99
 412:c:/Users/Black_Life/STM32Cube/Repository/STM32Cube_FW_F4_V1.26.2/Middlewares/Third_Party/LwIP/src/core\tcp.c **** 
 422              		.loc 1 412 3 view .LVU100
 423 0002 0546     		mov	r5, r0
 424 0004 48B1     		cbz	r0, .L52
 425              	.LVL40:
 426              	.L44:
 412:c:/Users/Black_Life/STM32Cube/Repository/STM32Cube_FW_F4_V1.26.2/Middlewares/Third_Party/LwIP/src/core\tcp.c **** 
 427              		.loc 1 412 3 discriminator 3 view .LVU101
 412:c:/Users/Black_Life/STM32Cube/Repository/STM32Cube_FW_F4_V1.26.2/Middlewares/Third_Party/LwIP/src/core\tcp.c **** 
 428              		.loc 1 412 3 discriminator 3 view .LVU102
 414:c:/Users/Black_Life/STM32Cube/Repository/STM32Cube_FW_F4_V1.26.2/Middlewares/Third_Party/LwIP/src/core\tcp.c ****     case SYN_RCVD:
 429              		.loc 1 414 3 discriminator 3 view .LVU103
 414:c:/Users/Black_Life/STM32Cube/Repository/STM32Cube_FW_F4_V1.26.2/Middlewares/Third_Party/LwIP/src/core\tcp.c ****     case SYN_RCVD:
 430              		.loc 1 414 14 is_stmt 0 discriminator 3 view .LVU104
 431 0006 2B7D     		ldrb	r3, [r5, #20]	@ zero_extendqisi2
 414:c:/Users/Black_Life/STM32Cube/Repository/STM32Cube_FW_F4_V1.26.2/Middlewares/Third_Party/LwIP/src/core\tcp.c ****     case SYN_RCVD:
 432              		.loc 1 414 3 discriminator 3 view .LVU105
 433 0008 042B     		cmp	r3, #4
 434 000a 1FD0     		beq	.L45
 414:c:/Users/Black_Life/STM32Cube/Repository/STM32Cube_FW_F4_V1.26.2/Middlewares/Third_Party/LwIP/src/core\tcp.c ****     case SYN_RCVD:
 435              		.loc 1 414 3 view .LVU106
 436 000c 072B     		cmp	r3, #7
 437 000e 26D0     		beq	.L46
 438 0010 032B     		cmp	r3, #3
 439 0012 0AD0     		beq	.L53
 440 0014 0024     		movs	r4, #0
 441              	.L47:
 460:c:/Users/Black_Life/STM32Cube/Repository/STM32Cube_FW_F4_V1.26.2/Middlewares/Third_Party/LwIP/src/core\tcp.c **** 
 442              		.loc 1 460 1 view .LVU107
 443 0016 2046     		mov	r0, r4
 444 0018 38BD     		pop	{r3, r4, r5, pc}
 445              	.LVL41:
 446              	.L52:
 412:c:/Users/Black_Life/STM32Cube/Repository/STM32Cube_FW_F4_V1.26.2/Middlewares/Third_Party/LwIP/src/core\tcp.c **** 
 447              		.loc 1 412 3 is_stmt 1 discriminator 1 view .LVU108
 412:c:/Users/Black_Life/STM32Cube/Repository/STM32Cube_FW_F4_V1.26.2/Middlewares/Third_Party/LwIP/src/core\tcp.c **** 
 448              		.loc 1 412 3 discriminator 1 view .LVU109
ARM GAS  C:\Users\BLACK_~1\AppData\Local\Temp\ccRovO0r.s 			page 29


 449 001a 174B     		ldr	r3, .L55
 450 001c 4FF4CE72 		mov	r2, #412
 451 0020 1649     		ldr	r1, .L55+4
 452 0022 1748     		ldr	r0, .L55+8
 453              	.LVL42:
 412:c:/Users/Black_Life/STM32Cube/Repository/STM32Cube_FW_F4_V1.26.2/Middlewares/Third_Party/LwIP/src/core\tcp.c **** 
 454              		.loc 1 412 3 is_stmt 0 discriminator 1 view .LVU110
 455 0024 FFF7FEFF 		bl	printf
 456              	.LVL43:
 457 0028 EDE7     		b	.L44
 458              	.L53:
 416:c:/Users/Black_Life/STM32Cube/Repository/STM32Cube_FW_F4_V1.26.2/Middlewares/Third_Party/LwIP/src/core\tcp.c ****       if (err == ERR_OK) {
 459              		.loc 1 416 7 is_stmt 1 view .LVU111
 416:c:/Users/Black_Life/STM32Cube/Repository/STM32Cube_FW_F4_V1.26.2/Middlewares/Third_Party/LwIP/src/core\tcp.c ****       if (err == ERR_OK) {
 460              		.loc 1 416 13 is_stmt 0 view .LVU112
 461 002a 2846     		mov	r0, r5
 462 002c FFF7FEFF 		bl	tcp_send_fin
 463              	.LVL44:
 417:c:/Users/Black_Life/STM32Cube/Repository/STM32Cube_FW_F4_V1.26.2/Middlewares/Third_Party/LwIP/src/core\tcp.c ****         tcp_backlog_accepted(pcb);
 464              		.loc 1 417 7 is_stmt 1 view .LVU113
 417:c:/Users/Black_Life/STM32Cube/Repository/STM32Cube_FW_F4_V1.26.2/Middlewares/Third_Party/LwIP/src/core\tcp.c ****         tcp_backlog_accepted(pcb);
 465              		.loc 1 417 10 is_stmt 0 view .LVU114
 466 0030 0446     		mov	r4, r0
 467 0032 08B9     		cbnz	r0, .L48
 418:c:/Users/Black_Life/STM32Cube/Repository/STM32Cube_FW_F4_V1.26.2/Middlewares/Third_Party/LwIP/src/core\tcp.c ****         MIB2_STATS_INC(mib2.tcpattemptfails);
 468              		.loc 1 418 34 is_stmt 1 view .LVU115
 419:c:/Users/Black_Life/STM32Cube/Repository/STM32Cube_FW_F4_V1.26.2/Middlewares/Third_Party/LwIP/src/core\tcp.c ****         pcb->state = FIN_WAIT_1;
 469              		.loc 1 419 45 view .LVU116
 420:c:/Users/Black_Life/STM32Cube/Repository/STM32Cube_FW_F4_V1.26.2/Middlewares/Third_Party/LwIP/src/core\tcp.c ****       }
 470              		.loc 1 420 9 view .LVU117
 420:c:/Users/Black_Life/STM32Cube/Repository/STM32Cube_FW_F4_V1.26.2/Middlewares/Third_Party/LwIP/src/core\tcp.c ****       }
 471              		.loc 1 420 20 is_stmt 0 view .LVU118
 472 0034 0523     		movs	r3, #5
 473 0036 2B75     		strb	r3, [r5, #20]
 474              	.L48:
 475              	.LVL45:
 442:c:/Users/Black_Life/STM32Cube/Repository/STM32Cube_FW_F4_V1.26.2/Middlewares/Third_Party/LwIP/src/core\tcp.c ****     /* To ensure all data has been sent when tcp_close returns, we have
 476              		.loc 1 442 3 is_stmt 1 view .LVU119
 442:c:/Users/Black_Life/STM32Cube/Repository/STM32Cube_FW_F4_V1.26.2/Middlewares/Third_Party/LwIP/src/core\tcp.c ****     /* To ensure all data has been sent when tcp_close returns, we have
 477              		.loc 1 442 6 is_stmt 0 view .LVU120
 478 0038 D4B1     		cbz	r4, .L54
 449:c:/Users/Black_Life/STM32Cube/Repository/STM32Cube_FW_F4_V1.26.2/Middlewares/Third_Party/LwIP/src/core\tcp.c ****     /* Mark this pcb for closing. Closing is retried from tcp_tmr. */
 479              		.loc 1 449 10 is_stmt 1 view .LVU121
 449:c:/Users/Black_Life/STM32Cube/Repository/STM32Cube_FW_F4_V1.26.2/Middlewares/Third_Party/LwIP/src/core\tcp.c ****     /* Mark this pcb for closing. Closing is retried from tcp_tmr. */
 480              		.loc 1 449 13 is_stmt 0 view .LVU122
 481 003a B4F1FF3F 		cmp	r4, #-1
 482 003e EAD1     		bne	.L47
 451:c:/Users/Black_Life/STM32Cube/Repository/STM32Cube_FW_F4_V1.26.2/Middlewares/Third_Party/LwIP/src/core\tcp.c ****     /* We have to return ERR_OK from here to indicate to the callers that this
 483              		.loc 1 451 5 is_stmt 1 view .LVU123
 451:c:/Users/Black_Life/STM32Cube/Repository/STM32Cube_FW_F4_V1.26.2/Middlewares/Third_Party/LwIP/src/core\tcp.c ****     /* We have to return ERR_OK from here to indicate to the callers that this
 484              		.loc 1 451 5 view .LVU124
 485 0040 6B8B     		ldrh	r3, [r5, #26]
 486 0042 43F00803 		orr	r3, r3, #8
 487 0046 6B83     		strh	r3, [r5, #26]	@ movhi
 451:c:/Users/Black_Life/STM32Cube/Repository/STM32Cube_FW_F4_V1.26.2/Middlewares/Third_Party/LwIP/src/core\tcp.c ****     /* We have to return ERR_OK from here to indicate to the callers that this
 488              		.loc 1 451 5 view .LVU125
 457:c:/Users/Black_Life/STM32Cube/Repository/STM32Cube_FW_F4_V1.26.2/Middlewares/Third_Party/LwIP/src/core\tcp.c ****   }
ARM GAS  C:\Users\BLACK_~1\AppData\Local\Temp\ccRovO0r.s 			page 30


 489              		.loc 1 457 5 view .LVU126
 457:c:/Users/Black_Life/STM32Cube/Repository/STM32Cube_FW_F4_V1.26.2/Middlewares/Third_Party/LwIP/src/core\tcp.c ****   }
 490              		.loc 1 457 12 is_stmt 0 view .LVU127
 491 0048 0024     		movs	r4, #0
 492              	.LVL46:
 457:c:/Users/Black_Life/STM32Cube/Repository/STM32Cube_FW_F4_V1.26.2/Middlewares/Third_Party/LwIP/src/core\tcp.c ****   }
 493              		.loc 1 457 12 view .LVU128
 494 004a E4E7     		b	.L47
 495              	.L45:
 424:c:/Users/Black_Life/STM32Cube/Repository/STM32Cube_FW_F4_V1.26.2/Middlewares/Third_Party/LwIP/src/core\tcp.c ****       if (err == ERR_OK) {
 496              		.loc 1 424 7 is_stmt 1 view .LVU129
 424:c:/Users/Black_Life/STM32Cube/Repository/STM32Cube_FW_F4_V1.26.2/Middlewares/Third_Party/LwIP/src/core\tcp.c ****       if (err == ERR_OK) {
 497              		.loc 1 424 13 is_stmt 0 view .LVU130
 498 004c 2846     		mov	r0, r5
 499 004e FFF7FEFF 		bl	tcp_send_fin
 500              	.LVL47:
 425:c:/Users/Black_Life/STM32Cube/Repository/STM32Cube_FW_F4_V1.26.2/Middlewares/Third_Party/LwIP/src/core\tcp.c ****         MIB2_STATS_INC(mib2.tcpestabresets);
 501              		.loc 1 425 7 is_stmt 1 view .LVU131
 425:c:/Users/Black_Life/STM32Cube/Repository/STM32Cube_FW_F4_V1.26.2/Middlewares/Third_Party/LwIP/src/core\tcp.c ****         MIB2_STATS_INC(mib2.tcpestabresets);
 502              		.loc 1 425 10 is_stmt 0 view .LVU132
 503 0052 0446     		mov	r4, r0
 504 0054 0028     		cmp	r0, #0
 505 0056 EFD1     		bne	.L48
 426:c:/Users/Black_Life/STM32Cube/Repository/STM32Cube_FW_F4_V1.26.2/Middlewares/Third_Party/LwIP/src/core\tcp.c ****         pcb->state = FIN_WAIT_1;
 506              		.loc 1 426 44 is_stmt 1 view .LVU133
 427:c:/Users/Black_Life/STM32Cube/Repository/STM32Cube_FW_F4_V1.26.2/Middlewares/Third_Party/LwIP/src/core\tcp.c ****       }
 507              		.loc 1 427 9 view .LVU134
 427:c:/Users/Black_Life/STM32Cube/Repository/STM32Cube_FW_F4_V1.26.2/Middlewares/Third_Party/LwIP/src/core\tcp.c ****       }
 508              		.loc 1 427 20 is_stmt 0 view .LVU135
 509 0058 0523     		movs	r3, #5
 510 005a 2B75     		strb	r3, [r5, #20]
 511 005c ECE7     		b	.L48
 512              	.LVL48:
 513              	.L46:
 431:c:/Users/Black_Life/STM32Cube/Repository/STM32Cube_FW_F4_V1.26.2/Middlewares/Third_Party/LwIP/src/core\tcp.c ****       if (err == ERR_OK) {
 514              		.loc 1 431 7 is_stmt 1 view .LVU136
 431:c:/Users/Black_Life/STM32Cube/Repository/STM32Cube_FW_F4_V1.26.2/Middlewares/Third_Party/LwIP/src/core\tcp.c ****       if (err == ERR_OK) {
 515              		.loc 1 431 13 is_stmt 0 view .LVU137
 516 005e 2846     		mov	r0, r5
 517 0060 FFF7FEFF 		bl	tcp_send_fin
 518              	.LVL49:
 432:c:/Users/Black_Life/STM32Cube/Repository/STM32Cube_FW_F4_V1.26.2/Middlewares/Third_Party/LwIP/src/core\tcp.c ****         MIB2_STATS_INC(mib2.tcpestabresets);
 519              		.loc 1 432 7 is_stmt 1 view .LVU138
 432:c:/Users/Black_Life/STM32Cube/Repository/STM32Cube_FW_F4_V1.26.2/Middlewares/Third_Party/LwIP/src/core\tcp.c ****         MIB2_STATS_INC(mib2.tcpestabresets);
 520              		.loc 1 432 10 is_stmt 0 view .LVU139
 521 0064 0446     		mov	r4, r0
 522 0066 0028     		cmp	r0, #0
 523 0068 E6D1     		bne	.L48
 433:c:/Users/Black_Life/STM32Cube/Repository/STM32Cube_FW_F4_V1.26.2/Middlewares/Third_Party/LwIP/src/core\tcp.c ****         pcb->state = LAST_ACK;
 524              		.loc 1 433 44 is_stmt 1 view .LVU140
 434:c:/Users/Black_Life/STM32Cube/Repository/STM32Cube_FW_F4_V1.26.2/Middlewares/Third_Party/LwIP/src/core\tcp.c ****       }
 525              		.loc 1 434 9 view .LVU141
 434:c:/Users/Black_Life/STM32Cube/Repository/STM32Cube_FW_F4_V1.26.2/Middlewares/Third_Party/LwIP/src/core\tcp.c ****       }
 526              		.loc 1 434 20 is_stmt 0 view .LVU142
 527 006a 0923     		movs	r3, #9
 528 006c 2B75     		strb	r3, [r5, #20]
 529 006e E3E7     		b	.L48
ARM GAS  C:\Users\BLACK_~1\AppData\Local\Temp\ccRovO0r.s 			page 31


 530              	.LVL50:
 531              	.L54:
 448:c:/Users/Black_Life/STM32Cube/Repository/STM32Cube_FW_F4_V1.26.2/Middlewares/Third_Party/LwIP/src/core\tcp.c ****   } else if (err == ERR_MEM) {
 532              		.loc 1 448 5 is_stmt 1 view .LVU143
 533 0070 2846     		mov	r0, r5
 534 0072 FFF7FEFF 		bl	tcp_output
 535              	.LVL51:
 536 0076 CEE7     		b	.L47
 537              	.L56:
 538              		.align	2
 539              	.L55:
 540 0078 00000000 		.word	.LC0
 541 007c 00000000 		.word	.LC3
 542 0080 98000000 		.word	.LC2
 543              		.cfi_endproc
 544              	.LFE163:
 546              		.section	.text.tcp_handle_closepend,"ax",%progbits
 547              		.align	1
 548              		.syntax unified
 549              		.thumb
 550              		.thumb_func
 552              	tcp_handle_closepend:
 553              	.LFB189:
1036:c:/Users/Black_Life/STM32Cube/Repository/STM32Cube_FW_F4_V1.26.2/Middlewares/Third_Party/LwIP/src/core\tcp.c **** 
1037:c:/Users/Black_Life/STM32Cube/Repository/STM32Cube_FW_F4_V1.26.2/Middlewares/Third_Party/LwIP/src/core\tcp.c **** /**
1038:c:/Users/Black_Life/STM32Cube/Repository/STM32Cube_FW_F4_V1.26.2/Middlewares/Third_Party/LwIP/src/core\tcp.c ****  * @ingroup tcp_raw
1039:c:/Users/Black_Life/STM32Cube/Repository/STM32Cube_FW_F4_V1.26.2/Middlewares/Third_Party/LwIP/src/core\tcp.c ****  * Connects to another host. The function given as the "connected"
1040:c:/Users/Black_Life/STM32Cube/Repository/STM32Cube_FW_F4_V1.26.2/Middlewares/Third_Party/LwIP/src/core\tcp.c ****  * argument will be called when the connection has been established.
1041:c:/Users/Black_Life/STM32Cube/Repository/STM32Cube_FW_F4_V1.26.2/Middlewares/Third_Party/LwIP/src/core\tcp.c ****  *  Sets up the pcb to connect to the remote host and sends the
1042:c:/Users/Black_Life/STM32Cube/Repository/STM32Cube_FW_F4_V1.26.2/Middlewares/Third_Party/LwIP/src/core\tcp.c ****  * initial SYN segment which opens the connection. 
1043:c:/Users/Black_Life/STM32Cube/Repository/STM32Cube_FW_F4_V1.26.2/Middlewares/Third_Party/LwIP/src/core\tcp.c ****  *
1044:c:/Users/Black_Life/STM32Cube/Repository/STM32Cube_FW_F4_V1.26.2/Middlewares/Third_Party/LwIP/src/core\tcp.c ****  * The tcp_connect() function returns immediately; it does not wait for
1045:c:/Users/Black_Life/STM32Cube/Repository/STM32Cube_FW_F4_V1.26.2/Middlewares/Third_Party/LwIP/src/core\tcp.c ****  * the connection to be properly setup. Instead, it will call the
1046:c:/Users/Black_Life/STM32Cube/Repository/STM32Cube_FW_F4_V1.26.2/Middlewares/Third_Party/LwIP/src/core\tcp.c ****  * function specified as the fourth argument (the "connected" argument)
1047:c:/Users/Black_Life/STM32Cube/Repository/STM32Cube_FW_F4_V1.26.2/Middlewares/Third_Party/LwIP/src/core\tcp.c ****  * when the connection is established. If the connection could not be
1048:c:/Users/Black_Life/STM32Cube/Repository/STM32Cube_FW_F4_V1.26.2/Middlewares/Third_Party/LwIP/src/core\tcp.c ****  * properly established, either because the other host refused the
1049:c:/Users/Black_Life/STM32Cube/Repository/STM32Cube_FW_F4_V1.26.2/Middlewares/Third_Party/LwIP/src/core\tcp.c ****  * connection or because the other host didn't answer, the "err"
1050:c:/Users/Black_Life/STM32Cube/Repository/STM32Cube_FW_F4_V1.26.2/Middlewares/Third_Party/LwIP/src/core\tcp.c ****  * callback function of this pcb (registered with tcp_err, see below)
1051:c:/Users/Black_Life/STM32Cube/Repository/STM32Cube_FW_F4_V1.26.2/Middlewares/Third_Party/LwIP/src/core\tcp.c ****  * will be called.
1052:c:/Users/Black_Life/STM32Cube/Repository/STM32Cube_FW_F4_V1.26.2/Middlewares/Third_Party/LwIP/src/core\tcp.c ****  *
1053:c:/Users/Black_Life/STM32Cube/Repository/STM32Cube_FW_F4_V1.26.2/Middlewares/Third_Party/LwIP/src/core\tcp.c ****  * The tcp_connect() function can return ERR_MEM if no memory is
1054:c:/Users/Black_Life/STM32Cube/Repository/STM32Cube_FW_F4_V1.26.2/Middlewares/Third_Party/LwIP/src/core\tcp.c ****  * available for enqueueing the SYN segment. If the SYN indeed was
1055:c:/Users/Black_Life/STM32Cube/Repository/STM32Cube_FW_F4_V1.26.2/Middlewares/Third_Party/LwIP/src/core\tcp.c ****  * enqueued successfully, the tcp_connect() function returns ERR_OK.
1056:c:/Users/Black_Life/STM32Cube/Repository/STM32Cube_FW_F4_V1.26.2/Middlewares/Third_Party/LwIP/src/core\tcp.c ****  *
1057:c:/Users/Black_Life/STM32Cube/Repository/STM32Cube_FW_F4_V1.26.2/Middlewares/Third_Party/LwIP/src/core\tcp.c ****  * @param pcb the tcp_pcb used to establish the connection
1058:c:/Users/Black_Life/STM32Cube/Repository/STM32Cube_FW_F4_V1.26.2/Middlewares/Third_Party/LwIP/src/core\tcp.c ****  * @param ipaddr the remote ip address to connect to
1059:c:/Users/Black_Life/STM32Cube/Repository/STM32Cube_FW_F4_V1.26.2/Middlewares/Third_Party/LwIP/src/core\tcp.c ****  * @param port the remote tcp port to connect to
1060:c:/Users/Black_Life/STM32Cube/Repository/STM32Cube_FW_F4_V1.26.2/Middlewares/Third_Party/LwIP/src/core\tcp.c ****  * @param connected callback function to call when connected (on error,
1061:c:/Users/Black_Life/STM32Cube/Repository/STM32Cube_FW_F4_V1.26.2/Middlewares/Third_Party/LwIP/src/core\tcp.c ****                     the err calback will be called)
1062:c:/Users/Black_Life/STM32Cube/Repository/STM32Cube_FW_F4_V1.26.2/Middlewares/Third_Party/LwIP/src/core\tcp.c ****  * @return ERR_VAL if invalid arguments are given
1063:c:/Users/Black_Life/STM32Cube/Repository/STM32Cube_FW_F4_V1.26.2/Middlewares/Third_Party/LwIP/src/core\tcp.c ****  *         ERR_OK if connect request has been sent
1064:c:/Users/Black_Life/STM32Cube/Repository/STM32Cube_FW_F4_V1.26.2/Middlewares/Third_Party/LwIP/src/core\tcp.c ****  *         other err_t values if connect request couldn't be sent
1065:c:/Users/Black_Life/STM32Cube/Repository/STM32Cube_FW_F4_V1.26.2/Middlewares/Third_Party/LwIP/src/core\tcp.c ****  */
1066:c:/Users/Black_Life/STM32Cube/Repository/STM32Cube_FW_F4_V1.26.2/Middlewares/Third_Party/LwIP/src/core\tcp.c **** err_t
1067:c:/Users/Black_Life/STM32Cube/Repository/STM32Cube_FW_F4_V1.26.2/Middlewares/Third_Party/LwIP/src/core\tcp.c **** tcp_connect(struct tcp_pcb *pcb, const ip_addr_t *ipaddr, u16_t port,
1068:c:/Users/Black_Life/STM32Cube/Repository/STM32Cube_FW_F4_V1.26.2/Middlewares/Third_Party/LwIP/src/core\tcp.c ****             tcp_connected_fn connected)
1069:c:/Users/Black_Life/STM32Cube/Repository/STM32Cube_FW_F4_V1.26.2/Middlewares/Third_Party/LwIP/src/core\tcp.c **** {
ARM GAS  C:\Users\BLACK_~1\AppData\Local\Temp\ccRovO0r.s 			page 32


1070:c:/Users/Black_Life/STM32Cube/Repository/STM32Cube_FW_F4_V1.26.2/Middlewares/Third_Party/LwIP/src/core\tcp.c ****   struct netif *netif = NULL;
1071:c:/Users/Black_Life/STM32Cube/Repository/STM32Cube_FW_F4_V1.26.2/Middlewares/Third_Party/LwIP/src/core\tcp.c ****   err_t ret;
1072:c:/Users/Black_Life/STM32Cube/Repository/STM32Cube_FW_F4_V1.26.2/Middlewares/Third_Party/LwIP/src/core\tcp.c ****   u32_t iss;
1073:c:/Users/Black_Life/STM32Cube/Repository/STM32Cube_FW_F4_V1.26.2/Middlewares/Third_Party/LwIP/src/core\tcp.c ****   u16_t old_local_port;
1074:c:/Users/Black_Life/STM32Cube/Repository/STM32Cube_FW_F4_V1.26.2/Middlewares/Third_Party/LwIP/src/core\tcp.c **** 
1075:c:/Users/Black_Life/STM32Cube/Repository/STM32Cube_FW_F4_V1.26.2/Middlewares/Third_Party/LwIP/src/core\tcp.c ****   LWIP_ASSERT_CORE_LOCKED();
1076:c:/Users/Black_Life/STM32Cube/Repository/STM32Cube_FW_F4_V1.26.2/Middlewares/Third_Party/LwIP/src/core\tcp.c **** 
1077:c:/Users/Black_Life/STM32Cube/Repository/STM32Cube_FW_F4_V1.26.2/Middlewares/Third_Party/LwIP/src/core\tcp.c ****   LWIP_ERROR("tcp_connect: invalid pcb", pcb != NULL, return ERR_ARG);
1078:c:/Users/Black_Life/STM32Cube/Repository/STM32Cube_FW_F4_V1.26.2/Middlewares/Third_Party/LwIP/src/core\tcp.c ****   LWIP_ERROR("tcp_connect: invalid ipaddr", ipaddr != NULL, return ERR_ARG);
1079:c:/Users/Black_Life/STM32Cube/Repository/STM32Cube_FW_F4_V1.26.2/Middlewares/Third_Party/LwIP/src/core\tcp.c **** 
1080:c:/Users/Black_Life/STM32Cube/Repository/STM32Cube_FW_F4_V1.26.2/Middlewares/Third_Party/LwIP/src/core\tcp.c ****   LWIP_ERROR("tcp_connect: can only connect from state CLOSED", pcb->state == CLOSED, return ERR_IS
1081:c:/Users/Black_Life/STM32Cube/Repository/STM32Cube_FW_F4_V1.26.2/Middlewares/Third_Party/LwIP/src/core\tcp.c **** 
1082:c:/Users/Black_Life/STM32Cube/Repository/STM32Cube_FW_F4_V1.26.2/Middlewares/Third_Party/LwIP/src/core\tcp.c ****   LWIP_DEBUGF(TCP_DEBUG, ("tcp_connect to port %"U16_F"\n", port));
1083:c:/Users/Black_Life/STM32Cube/Repository/STM32Cube_FW_F4_V1.26.2/Middlewares/Third_Party/LwIP/src/core\tcp.c ****   ip_addr_set(&pcb->remote_ip, ipaddr);
1084:c:/Users/Black_Life/STM32Cube/Repository/STM32Cube_FW_F4_V1.26.2/Middlewares/Third_Party/LwIP/src/core\tcp.c ****   pcb->remote_port = port;
1085:c:/Users/Black_Life/STM32Cube/Repository/STM32Cube_FW_F4_V1.26.2/Middlewares/Third_Party/LwIP/src/core\tcp.c **** 
1086:c:/Users/Black_Life/STM32Cube/Repository/STM32Cube_FW_F4_V1.26.2/Middlewares/Third_Party/LwIP/src/core\tcp.c ****   if (pcb->netif_idx != NETIF_NO_INDEX) {
1087:c:/Users/Black_Life/STM32Cube/Repository/STM32Cube_FW_F4_V1.26.2/Middlewares/Third_Party/LwIP/src/core\tcp.c ****     netif = netif_get_by_index(pcb->netif_idx);
1088:c:/Users/Black_Life/STM32Cube/Repository/STM32Cube_FW_F4_V1.26.2/Middlewares/Third_Party/LwIP/src/core\tcp.c ****   } else {
1089:c:/Users/Black_Life/STM32Cube/Repository/STM32Cube_FW_F4_V1.26.2/Middlewares/Third_Party/LwIP/src/core\tcp.c ****     /* check if we have a route to the remote host */
1090:c:/Users/Black_Life/STM32Cube/Repository/STM32Cube_FW_F4_V1.26.2/Middlewares/Third_Party/LwIP/src/core\tcp.c ****     netif = ip_route(&pcb->local_ip, &pcb->remote_ip);
1091:c:/Users/Black_Life/STM32Cube/Repository/STM32Cube_FW_F4_V1.26.2/Middlewares/Third_Party/LwIP/src/core\tcp.c ****   }
1092:c:/Users/Black_Life/STM32Cube/Repository/STM32Cube_FW_F4_V1.26.2/Middlewares/Third_Party/LwIP/src/core\tcp.c ****   if (netif == NULL) {
1093:c:/Users/Black_Life/STM32Cube/Repository/STM32Cube_FW_F4_V1.26.2/Middlewares/Third_Party/LwIP/src/core\tcp.c ****     /* Don't even try to send a SYN packet if we have no route since that will fail. */
1094:c:/Users/Black_Life/STM32Cube/Repository/STM32Cube_FW_F4_V1.26.2/Middlewares/Third_Party/LwIP/src/core\tcp.c ****     return ERR_RTE;
1095:c:/Users/Black_Life/STM32Cube/Repository/STM32Cube_FW_F4_V1.26.2/Middlewares/Third_Party/LwIP/src/core\tcp.c ****   }
1096:c:/Users/Black_Life/STM32Cube/Repository/STM32Cube_FW_F4_V1.26.2/Middlewares/Third_Party/LwIP/src/core\tcp.c **** 
1097:c:/Users/Black_Life/STM32Cube/Repository/STM32Cube_FW_F4_V1.26.2/Middlewares/Third_Party/LwIP/src/core\tcp.c ****   /* check if local IP has been assigned to pcb, if not, get one */
1098:c:/Users/Black_Life/STM32Cube/Repository/STM32Cube_FW_F4_V1.26.2/Middlewares/Third_Party/LwIP/src/core\tcp.c ****   if (ip_addr_isany(&pcb->local_ip)) {
1099:c:/Users/Black_Life/STM32Cube/Repository/STM32Cube_FW_F4_V1.26.2/Middlewares/Third_Party/LwIP/src/core\tcp.c ****     const ip_addr_t *local_ip = ip_netif_get_local_ip(netif, ipaddr);
1100:c:/Users/Black_Life/STM32Cube/Repository/STM32Cube_FW_F4_V1.26.2/Middlewares/Third_Party/LwIP/src/core\tcp.c ****     if (local_ip == NULL) {
1101:c:/Users/Black_Life/STM32Cube/Repository/STM32Cube_FW_F4_V1.26.2/Middlewares/Third_Party/LwIP/src/core\tcp.c ****       return ERR_RTE;
1102:c:/Users/Black_Life/STM32Cube/Repository/STM32Cube_FW_F4_V1.26.2/Middlewares/Third_Party/LwIP/src/core\tcp.c ****     }
1103:c:/Users/Black_Life/STM32Cube/Repository/STM32Cube_FW_F4_V1.26.2/Middlewares/Third_Party/LwIP/src/core\tcp.c ****     ip_addr_copy(pcb->local_ip, *local_ip);
1104:c:/Users/Black_Life/STM32Cube/Repository/STM32Cube_FW_F4_V1.26.2/Middlewares/Third_Party/LwIP/src/core\tcp.c ****   }
1105:c:/Users/Black_Life/STM32Cube/Repository/STM32Cube_FW_F4_V1.26.2/Middlewares/Third_Party/LwIP/src/core\tcp.c **** 
1106:c:/Users/Black_Life/STM32Cube/Repository/STM32Cube_FW_F4_V1.26.2/Middlewares/Third_Party/LwIP/src/core\tcp.c **** #if LWIP_IPV6 && LWIP_IPV6_SCOPES
1107:c:/Users/Black_Life/STM32Cube/Repository/STM32Cube_FW_F4_V1.26.2/Middlewares/Third_Party/LwIP/src/core\tcp.c ****   /* If the given IP address should have a zone but doesn't, assign one now.
1108:c:/Users/Black_Life/STM32Cube/Repository/STM32Cube_FW_F4_V1.26.2/Middlewares/Third_Party/LwIP/src/core\tcp.c ****    * Given that we already have the target netif, this is easy and cheap. */
1109:c:/Users/Black_Life/STM32Cube/Repository/STM32Cube_FW_F4_V1.26.2/Middlewares/Third_Party/LwIP/src/core\tcp.c ****   if (IP_IS_V6(&pcb->remote_ip) &&
1110:c:/Users/Black_Life/STM32Cube/Repository/STM32Cube_FW_F4_V1.26.2/Middlewares/Third_Party/LwIP/src/core\tcp.c ****       ip6_addr_lacks_zone(ip_2_ip6(&pcb->remote_ip), IP6_UNICAST)) {
1111:c:/Users/Black_Life/STM32Cube/Repository/STM32Cube_FW_F4_V1.26.2/Middlewares/Third_Party/LwIP/src/core\tcp.c ****     ip6_addr_assign_zone(ip_2_ip6(&pcb->remote_ip), IP6_UNICAST, netif);
1112:c:/Users/Black_Life/STM32Cube/Repository/STM32Cube_FW_F4_V1.26.2/Middlewares/Third_Party/LwIP/src/core\tcp.c ****   }
1113:c:/Users/Black_Life/STM32Cube/Repository/STM32Cube_FW_F4_V1.26.2/Middlewares/Third_Party/LwIP/src/core\tcp.c **** #endif /* LWIP_IPV6 && LWIP_IPV6_SCOPES */
1114:c:/Users/Black_Life/STM32Cube/Repository/STM32Cube_FW_F4_V1.26.2/Middlewares/Third_Party/LwIP/src/core\tcp.c **** 
1115:c:/Users/Black_Life/STM32Cube/Repository/STM32Cube_FW_F4_V1.26.2/Middlewares/Third_Party/LwIP/src/core\tcp.c ****   old_local_port = pcb->local_port;
1116:c:/Users/Black_Life/STM32Cube/Repository/STM32Cube_FW_F4_V1.26.2/Middlewares/Third_Party/LwIP/src/core\tcp.c ****   if (pcb->local_port == 0) {
1117:c:/Users/Black_Life/STM32Cube/Repository/STM32Cube_FW_F4_V1.26.2/Middlewares/Third_Party/LwIP/src/core\tcp.c ****     pcb->local_port = tcp_new_port();
1118:c:/Users/Black_Life/STM32Cube/Repository/STM32Cube_FW_F4_V1.26.2/Middlewares/Third_Party/LwIP/src/core\tcp.c ****     if (pcb->local_port == 0) {
1119:c:/Users/Black_Life/STM32Cube/Repository/STM32Cube_FW_F4_V1.26.2/Middlewares/Third_Party/LwIP/src/core\tcp.c ****       return ERR_BUF;
1120:c:/Users/Black_Life/STM32Cube/Repository/STM32Cube_FW_F4_V1.26.2/Middlewares/Third_Party/LwIP/src/core\tcp.c ****     }
1121:c:/Users/Black_Life/STM32Cube/Repository/STM32Cube_FW_F4_V1.26.2/Middlewares/Third_Party/LwIP/src/core\tcp.c ****   } else {
1122:c:/Users/Black_Life/STM32Cube/Repository/STM32Cube_FW_F4_V1.26.2/Middlewares/Third_Party/LwIP/src/core\tcp.c **** #if SO_REUSE
1123:c:/Users/Black_Life/STM32Cube/Repository/STM32Cube_FW_F4_V1.26.2/Middlewares/Third_Party/LwIP/src/core\tcp.c ****     if (ip_get_option(pcb, SOF_REUSEADDR)) {
1124:c:/Users/Black_Life/STM32Cube/Repository/STM32Cube_FW_F4_V1.26.2/Middlewares/Third_Party/LwIP/src/core\tcp.c ****       /* Since SOF_REUSEADDR allows reusing a local address, we have to make sure
1125:c:/Users/Black_Life/STM32Cube/Repository/STM32Cube_FW_F4_V1.26.2/Middlewares/Third_Party/LwIP/src/core\tcp.c ****          now that the 5-tuple is unique. */
1126:c:/Users/Black_Life/STM32Cube/Repository/STM32Cube_FW_F4_V1.26.2/Middlewares/Third_Party/LwIP/src/core\tcp.c ****       struct tcp_pcb *cpcb;
ARM GAS  C:\Users\BLACK_~1\AppData\Local\Temp\ccRovO0r.s 			page 33


1127:c:/Users/Black_Life/STM32Cube/Repository/STM32Cube_FW_F4_V1.26.2/Middlewares/Third_Party/LwIP/src/core\tcp.c ****       int i;
1128:c:/Users/Black_Life/STM32Cube/Repository/STM32Cube_FW_F4_V1.26.2/Middlewares/Third_Party/LwIP/src/core\tcp.c ****       /* Don't check listen- and bound-PCBs, check active- and TIME-WAIT PCBs. */
1129:c:/Users/Black_Life/STM32Cube/Repository/STM32Cube_FW_F4_V1.26.2/Middlewares/Third_Party/LwIP/src/core\tcp.c ****       for (i = 2; i < NUM_TCP_PCB_LISTS; i++) {
1130:c:/Users/Black_Life/STM32Cube/Repository/STM32Cube_FW_F4_V1.26.2/Middlewares/Third_Party/LwIP/src/core\tcp.c ****         for (cpcb = *tcp_pcb_lists[i]; cpcb != NULL; cpcb = cpcb->next) {
1131:c:/Users/Black_Life/STM32Cube/Repository/STM32Cube_FW_F4_V1.26.2/Middlewares/Third_Party/LwIP/src/core\tcp.c ****           if ((cpcb->local_port == pcb->local_port) &&
1132:c:/Users/Black_Life/STM32Cube/Repository/STM32Cube_FW_F4_V1.26.2/Middlewares/Third_Party/LwIP/src/core\tcp.c ****               (cpcb->remote_port == port) &&
1133:c:/Users/Black_Life/STM32Cube/Repository/STM32Cube_FW_F4_V1.26.2/Middlewares/Third_Party/LwIP/src/core\tcp.c ****               ip_addr_cmp(&cpcb->local_ip, &pcb->local_ip) &&
1134:c:/Users/Black_Life/STM32Cube/Repository/STM32Cube_FW_F4_V1.26.2/Middlewares/Third_Party/LwIP/src/core\tcp.c ****               ip_addr_cmp(&cpcb->remote_ip, ipaddr)) {
1135:c:/Users/Black_Life/STM32Cube/Repository/STM32Cube_FW_F4_V1.26.2/Middlewares/Third_Party/LwIP/src/core\tcp.c ****             /* linux returns EISCONN here, but ERR_USE should be OK for us */
1136:c:/Users/Black_Life/STM32Cube/Repository/STM32Cube_FW_F4_V1.26.2/Middlewares/Third_Party/LwIP/src/core\tcp.c ****             return ERR_USE;
1137:c:/Users/Black_Life/STM32Cube/Repository/STM32Cube_FW_F4_V1.26.2/Middlewares/Third_Party/LwIP/src/core\tcp.c ****           }
1138:c:/Users/Black_Life/STM32Cube/Repository/STM32Cube_FW_F4_V1.26.2/Middlewares/Third_Party/LwIP/src/core\tcp.c ****         }
1139:c:/Users/Black_Life/STM32Cube/Repository/STM32Cube_FW_F4_V1.26.2/Middlewares/Third_Party/LwIP/src/core\tcp.c ****       }
1140:c:/Users/Black_Life/STM32Cube/Repository/STM32Cube_FW_F4_V1.26.2/Middlewares/Third_Party/LwIP/src/core\tcp.c ****     }
1141:c:/Users/Black_Life/STM32Cube/Repository/STM32Cube_FW_F4_V1.26.2/Middlewares/Third_Party/LwIP/src/core\tcp.c **** #endif /* SO_REUSE */
1142:c:/Users/Black_Life/STM32Cube/Repository/STM32Cube_FW_F4_V1.26.2/Middlewares/Third_Party/LwIP/src/core\tcp.c ****   }
1143:c:/Users/Black_Life/STM32Cube/Repository/STM32Cube_FW_F4_V1.26.2/Middlewares/Third_Party/LwIP/src/core\tcp.c **** 
1144:c:/Users/Black_Life/STM32Cube/Repository/STM32Cube_FW_F4_V1.26.2/Middlewares/Third_Party/LwIP/src/core\tcp.c ****   iss = tcp_next_iss(pcb);
1145:c:/Users/Black_Life/STM32Cube/Repository/STM32Cube_FW_F4_V1.26.2/Middlewares/Third_Party/LwIP/src/core\tcp.c ****   pcb->rcv_nxt = 0;
1146:c:/Users/Black_Life/STM32Cube/Repository/STM32Cube_FW_F4_V1.26.2/Middlewares/Third_Party/LwIP/src/core\tcp.c ****   pcb->snd_nxt = iss;
1147:c:/Users/Black_Life/STM32Cube/Repository/STM32Cube_FW_F4_V1.26.2/Middlewares/Third_Party/LwIP/src/core\tcp.c ****   pcb->lastack = iss - 1;
1148:c:/Users/Black_Life/STM32Cube/Repository/STM32Cube_FW_F4_V1.26.2/Middlewares/Third_Party/LwIP/src/core\tcp.c ****   pcb->snd_wl2 = iss - 1;
1149:c:/Users/Black_Life/STM32Cube/Repository/STM32Cube_FW_F4_V1.26.2/Middlewares/Third_Party/LwIP/src/core\tcp.c ****   pcb->snd_lbb = iss - 1;
1150:c:/Users/Black_Life/STM32Cube/Repository/STM32Cube_FW_F4_V1.26.2/Middlewares/Third_Party/LwIP/src/core\tcp.c ****   /* Start with a window that does not need scaling. When window scaling is
1151:c:/Users/Black_Life/STM32Cube/Repository/STM32Cube_FW_F4_V1.26.2/Middlewares/Third_Party/LwIP/src/core\tcp.c ****      enabled and used, the window is enlarged when both sides agree on scaling. */
1152:c:/Users/Black_Life/STM32Cube/Repository/STM32Cube_FW_F4_V1.26.2/Middlewares/Third_Party/LwIP/src/core\tcp.c ****   pcb->rcv_wnd = pcb->rcv_ann_wnd = TCPWND_MIN16(TCP_WND);
1153:c:/Users/Black_Life/STM32Cube/Repository/STM32Cube_FW_F4_V1.26.2/Middlewares/Third_Party/LwIP/src/core\tcp.c ****   pcb->rcv_ann_right_edge = pcb->rcv_nxt;
1154:c:/Users/Black_Life/STM32Cube/Repository/STM32Cube_FW_F4_V1.26.2/Middlewares/Third_Party/LwIP/src/core\tcp.c ****   pcb->snd_wnd = TCP_WND;
1155:c:/Users/Black_Life/STM32Cube/Repository/STM32Cube_FW_F4_V1.26.2/Middlewares/Third_Party/LwIP/src/core\tcp.c ****   /* As initial send MSS, we use TCP_MSS but limit it to 536.
1156:c:/Users/Black_Life/STM32Cube/Repository/STM32Cube_FW_F4_V1.26.2/Middlewares/Third_Party/LwIP/src/core\tcp.c ****      The send MSS is updated when an MSS option is received. */
1157:c:/Users/Black_Life/STM32Cube/Repository/STM32Cube_FW_F4_V1.26.2/Middlewares/Third_Party/LwIP/src/core\tcp.c ****   pcb->mss = INITIAL_MSS;
1158:c:/Users/Black_Life/STM32Cube/Repository/STM32Cube_FW_F4_V1.26.2/Middlewares/Third_Party/LwIP/src/core\tcp.c **** #if TCP_CALCULATE_EFF_SEND_MSS
1159:c:/Users/Black_Life/STM32Cube/Repository/STM32Cube_FW_F4_V1.26.2/Middlewares/Third_Party/LwIP/src/core\tcp.c ****   pcb->mss = tcp_eff_send_mss_netif(pcb->mss, netif, &pcb->remote_ip);
1160:c:/Users/Black_Life/STM32Cube/Repository/STM32Cube_FW_F4_V1.26.2/Middlewares/Third_Party/LwIP/src/core\tcp.c **** #endif /* TCP_CALCULATE_EFF_SEND_MSS */
1161:c:/Users/Black_Life/STM32Cube/Repository/STM32Cube_FW_F4_V1.26.2/Middlewares/Third_Party/LwIP/src/core\tcp.c ****   pcb->cwnd = 1;
1162:c:/Users/Black_Life/STM32Cube/Repository/STM32Cube_FW_F4_V1.26.2/Middlewares/Third_Party/LwIP/src/core\tcp.c **** #if LWIP_CALLBACK_API
1163:c:/Users/Black_Life/STM32Cube/Repository/STM32Cube_FW_F4_V1.26.2/Middlewares/Third_Party/LwIP/src/core\tcp.c ****   pcb->connected = connected;
1164:c:/Users/Black_Life/STM32Cube/Repository/STM32Cube_FW_F4_V1.26.2/Middlewares/Third_Party/LwIP/src/core\tcp.c **** #else /* LWIP_CALLBACK_API */
1165:c:/Users/Black_Life/STM32Cube/Repository/STM32Cube_FW_F4_V1.26.2/Middlewares/Third_Party/LwIP/src/core\tcp.c ****   LWIP_UNUSED_ARG(connected);
1166:c:/Users/Black_Life/STM32Cube/Repository/STM32Cube_FW_F4_V1.26.2/Middlewares/Third_Party/LwIP/src/core\tcp.c **** #endif /* LWIP_CALLBACK_API */
1167:c:/Users/Black_Life/STM32Cube/Repository/STM32Cube_FW_F4_V1.26.2/Middlewares/Third_Party/LwIP/src/core\tcp.c **** 
1168:c:/Users/Black_Life/STM32Cube/Repository/STM32Cube_FW_F4_V1.26.2/Middlewares/Third_Party/LwIP/src/core\tcp.c ****   /* Send a SYN together with the MSS option. */
1169:c:/Users/Black_Life/STM32Cube/Repository/STM32Cube_FW_F4_V1.26.2/Middlewares/Third_Party/LwIP/src/core\tcp.c ****   ret = tcp_enqueue_flags(pcb, TCP_SYN);
1170:c:/Users/Black_Life/STM32Cube/Repository/STM32Cube_FW_F4_V1.26.2/Middlewares/Third_Party/LwIP/src/core\tcp.c ****   if (ret == ERR_OK) {
1171:c:/Users/Black_Life/STM32Cube/Repository/STM32Cube_FW_F4_V1.26.2/Middlewares/Third_Party/LwIP/src/core\tcp.c ****     /* SYN segment was enqueued, changed the pcbs state now */
1172:c:/Users/Black_Life/STM32Cube/Repository/STM32Cube_FW_F4_V1.26.2/Middlewares/Third_Party/LwIP/src/core\tcp.c ****     pcb->state = SYN_SENT;
1173:c:/Users/Black_Life/STM32Cube/Repository/STM32Cube_FW_F4_V1.26.2/Middlewares/Third_Party/LwIP/src/core\tcp.c ****     if (old_local_port != 0) {
1174:c:/Users/Black_Life/STM32Cube/Repository/STM32Cube_FW_F4_V1.26.2/Middlewares/Third_Party/LwIP/src/core\tcp.c ****       TCP_RMV(&tcp_bound_pcbs, pcb);
1175:c:/Users/Black_Life/STM32Cube/Repository/STM32Cube_FW_F4_V1.26.2/Middlewares/Third_Party/LwIP/src/core\tcp.c ****     }
1176:c:/Users/Black_Life/STM32Cube/Repository/STM32Cube_FW_F4_V1.26.2/Middlewares/Third_Party/LwIP/src/core\tcp.c ****     TCP_REG_ACTIVE(pcb);
1177:c:/Users/Black_Life/STM32Cube/Repository/STM32Cube_FW_F4_V1.26.2/Middlewares/Third_Party/LwIP/src/core\tcp.c ****     MIB2_STATS_INC(mib2.tcpactiveopens);
1178:c:/Users/Black_Life/STM32Cube/Repository/STM32Cube_FW_F4_V1.26.2/Middlewares/Third_Party/LwIP/src/core\tcp.c **** 
1179:c:/Users/Black_Life/STM32Cube/Repository/STM32Cube_FW_F4_V1.26.2/Middlewares/Third_Party/LwIP/src/core\tcp.c ****     tcp_output(pcb);
1180:c:/Users/Black_Life/STM32Cube/Repository/STM32Cube_FW_F4_V1.26.2/Middlewares/Third_Party/LwIP/src/core\tcp.c ****   }
1181:c:/Users/Black_Life/STM32Cube/Repository/STM32Cube_FW_F4_V1.26.2/Middlewares/Third_Party/LwIP/src/core\tcp.c ****   return ret;
1182:c:/Users/Black_Life/STM32Cube/Repository/STM32Cube_FW_F4_V1.26.2/Middlewares/Third_Party/LwIP/src/core\tcp.c **** }
1183:c:/Users/Black_Life/STM32Cube/Repository/STM32Cube_FW_F4_V1.26.2/Middlewares/Third_Party/LwIP/src/core\tcp.c **** 
ARM GAS  C:\Users\BLACK_~1\AppData\Local\Temp\ccRovO0r.s 			page 34


1184:c:/Users/Black_Life/STM32Cube/Repository/STM32Cube_FW_F4_V1.26.2/Middlewares/Third_Party/LwIP/src/core\tcp.c **** /**
1185:c:/Users/Black_Life/STM32Cube/Repository/STM32Cube_FW_F4_V1.26.2/Middlewares/Third_Party/LwIP/src/core\tcp.c ****  * Called every 500 ms and implements the retransmission timer and the timer that
1186:c:/Users/Black_Life/STM32Cube/Repository/STM32Cube_FW_F4_V1.26.2/Middlewares/Third_Party/LwIP/src/core\tcp.c ****  * removes PCBs that have been in TIME-WAIT for enough time. It also increments
1187:c:/Users/Black_Life/STM32Cube/Repository/STM32Cube_FW_F4_V1.26.2/Middlewares/Third_Party/LwIP/src/core\tcp.c ****  * various timers such as the inactivity timer in each PCB.
1188:c:/Users/Black_Life/STM32Cube/Repository/STM32Cube_FW_F4_V1.26.2/Middlewares/Third_Party/LwIP/src/core\tcp.c ****  *
1189:c:/Users/Black_Life/STM32Cube/Repository/STM32Cube_FW_F4_V1.26.2/Middlewares/Third_Party/LwIP/src/core\tcp.c ****  * Automatically called from tcp_tmr().
1190:c:/Users/Black_Life/STM32Cube/Repository/STM32Cube_FW_F4_V1.26.2/Middlewares/Third_Party/LwIP/src/core\tcp.c ****  */
1191:c:/Users/Black_Life/STM32Cube/Repository/STM32Cube_FW_F4_V1.26.2/Middlewares/Third_Party/LwIP/src/core\tcp.c **** void
1192:c:/Users/Black_Life/STM32Cube/Repository/STM32Cube_FW_F4_V1.26.2/Middlewares/Third_Party/LwIP/src/core\tcp.c **** tcp_slowtmr(void)
1193:c:/Users/Black_Life/STM32Cube/Repository/STM32Cube_FW_F4_V1.26.2/Middlewares/Third_Party/LwIP/src/core\tcp.c **** {
1194:c:/Users/Black_Life/STM32Cube/Repository/STM32Cube_FW_F4_V1.26.2/Middlewares/Third_Party/LwIP/src/core\tcp.c ****   struct tcp_pcb *pcb, *prev;
1195:c:/Users/Black_Life/STM32Cube/Repository/STM32Cube_FW_F4_V1.26.2/Middlewares/Third_Party/LwIP/src/core\tcp.c ****   tcpwnd_size_t eff_wnd;
1196:c:/Users/Black_Life/STM32Cube/Repository/STM32Cube_FW_F4_V1.26.2/Middlewares/Third_Party/LwIP/src/core\tcp.c ****   u8_t pcb_remove;      /* flag if a PCB should be removed */
1197:c:/Users/Black_Life/STM32Cube/Repository/STM32Cube_FW_F4_V1.26.2/Middlewares/Third_Party/LwIP/src/core\tcp.c ****   u8_t pcb_reset;       /* flag if a RST should be sent when removing */
1198:c:/Users/Black_Life/STM32Cube/Repository/STM32Cube_FW_F4_V1.26.2/Middlewares/Third_Party/LwIP/src/core\tcp.c ****   err_t err;
1199:c:/Users/Black_Life/STM32Cube/Repository/STM32Cube_FW_F4_V1.26.2/Middlewares/Third_Party/LwIP/src/core\tcp.c **** 
1200:c:/Users/Black_Life/STM32Cube/Repository/STM32Cube_FW_F4_V1.26.2/Middlewares/Third_Party/LwIP/src/core\tcp.c ****   err = ERR_OK;
1201:c:/Users/Black_Life/STM32Cube/Repository/STM32Cube_FW_F4_V1.26.2/Middlewares/Third_Party/LwIP/src/core\tcp.c **** 
1202:c:/Users/Black_Life/STM32Cube/Repository/STM32Cube_FW_F4_V1.26.2/Middlewares/Third_Party/LwIP/src/core\tcp.c ****   ++tcp_ticks;
1203:c:/Users/Black_Life/STM32Cube/Repository/STM32Cube_FW_F4_V1.26.2/Middlewares/Third_Party/LwIP/src/core\tcp.c ****   ++tcp_timer_ctr;
1204:c:/Users/Black_Life/STM32Cube/Repository/STM32Cube_FW_F4_V1.26.2/Middlewares/Third_Party/LwIP/src/core\tcp.c **** 
1205:c:/Users/Black_Life/STM32Cube/Repository/STM32Cube_FW_F4_V1.26.2/Middlewares/Third_Party/LwIP/src/core\tcp.c **** tcp_slowtmr_start:
1206:c:/Users/Black_Life/STM32Cube/Repository/STM32Cube_FW_F4_V1.26.2/Middlewares/Third_Party/LwIP/src/core\tcp.c ****   /* Steps through all of the active PCBs. */
1207:c:/Users/Black_Life/STM32Cube/Repository/STM32Cube_FW_F4_V1.26.2/Middlewares/Third_Party/LwIP/src/core\tcp.c ****   prev = NULL;
1208:c:/Users/Black_Life/STM32Cube/Repository/STM32Cube_FW_F4_V1.26.2/Middlewares/Third_Party/LwIP/src/core\tcp.c ****   pcb = tcp_active_pcbs;
1209:c:/Users/Black_Life/STM32Cube/Repository/STM32Cube_FW_F4_V1.26.2/Middlewares/Third_Party/LwIP/src/core\tcp.c ****   if (pcb == NULL) {
1210:c:/Users/Black_Life/STM32Cube/Repository/STM32Cube_FW_F4_V1.26.2/Middlewares/Third_Party/LwIP/src/core\tcp.c ****     LWIP_DEBUGF(TCP_DEBUG, ("tcp_slowtmr: no active pcbs\n"));
1211:c:/Users/Black_Life/STM32Cube/Repository/STM32Cube_FW_F4_V1.26.2/Middlewares/Third_Party/LwIP/src/core\tcp.c ****   }
1212:c:/Users/Black_Life/STM32Cube/Repository/STM32Cube_FW_F4_V1.26.2/Middlewares/Third_Party/LwIP/src/core\tcp.c ****   while (pcb != NULL) {
1213:c:/Users/Black_Life/STM32Cube/Repository/STM32Cube_FW_F4_V1.26.2/Middlewares/Third_Party/LwIP/src/core\tcp.c ****     LWIP_DEBUGF(TCP_DEBUG, ("tcp_slowtmr: processing active pcb\n"));
1214:c:/Users/Black_Life/STM32Cube/Repository/STM32Cube_FW_F4_V1.26.2/Middlewares/Third_Party/LwIP/src/core\tcp.c ****     LWIP_ASSERT("tcp_slowtmr: active pcb->state != CLOSED\n", pcb->state != CLOSED);
1215:c:/Users/Black_Life/STM32Cube/Repository/STM32Cube_FW_F4_V1.26.2/Middlewares/Third_Party/LwIP/src/core\tcp.c ****     LWIP_ASSERT("tcp_slowtmr: active pcb->state != LISTEN\n", pcb->state != LISTEN);
1216:c:/Users/Black_Life/STM32Cube/Repository/STM32Cube_FW_F4_V1.26.2/Middlewares/Third_Party/LwIP/src/core\tcp.c ****     LWIP_ASSERT("tcp_slowtmr: active pcb->state != TIME-WAIT\n", pcb->state != TIME_WAIT);
1217:c:/Users/Black_Life/STM32Cube/Repository/STM32Cube_FW_F4_V1.26.2/Middlewares/Third_Party/LwIP/src/core\tcp.c ****     if (pcb->last_timer == tcp_timer_ctr) {
1218:c:/Users/Black_Life/STM32Cube/Repository/STM32Cube_FW_F4_V1.26.2/Middlewares/Third_Party/LwIP/src/core\tcp.c ****       /* skip this pcb, we have already processed it */
1219:c:/Users/Black_Life/STM32Cube/Repository/STM32Cube_FW_F4_V1.26.2/Middlewares/Third_Party/LwIP/src/core\tcp.c ****       prev = pcb;
1220:c:/Users/Black_Life/STM32Cube/Repository/STM32Cube_FW_F4_V1.26.2/Middlewares/Third_Party/LwIP/src/core\tcp.c ****       pcb = pcb->next;
1221:c:/Users/Black_Life/STM32Cube/Repository/STM32Cube_FW_F4_V1.26.2/Middlewares/Third_Party/LwIP/src/core\tcp.c ****       continue;
1222:c:/Users/Black_Life/STM32Cube/Repository/STM32Cube_FW_F4_V1.26.2/Middlewares/Third_Party/LwIP/src/core\tcp.c ****     }
1223:c:/Users/Black_Life/STM32Cube/Repository/STM32Cube_FW_F4_V1.26.2/Middlewares/Third_Party/LwIP/src/core\tcp.c ****     pcb->last_timer = tcp_timer_ctr;
1224:c:/Users/Black_Life/STM32Cube/Repository/STM32Cube_FW_F4_V1.26.2/Middlewares/Third_Party/LwIP/src/core\tcp.c **** 
1225:c:/Users/Black_Life/STM32Cube/Repository/STM32Cube_FW_F4_V1.26.2/Middlewares/Third_Party/LwIP/src/core\tcp.c ****     pcb_remove = 0;
1226:c:/Users/Black_Life/STM32Cube/Repository/STM32Cube_FW_F4_V1.26.2/Middlewares/Third_Party/LwIP/src/core\tcp.c ****     pcb_reset = 0;
1227:c:/Users/Black_Life/STM32Cube/Repository/STM32Cube_FW_F4_V1.26.2/Middlewares/Third_Party/LwIP/src/core\tcp.c **** 
1228:c:/Users/Black_Life/STM32Cube/Repository/STM32Cube_FW_F4_V1.26.2/Middlewares/Third_Party/LwIP/src/core\tcp.c ****     if (pcb->state == SYN_SENT && pcb->nrtx >= TCP_SYNMAXRTX) {
1229:c:/Users/Black_Life/STM32Cube/Repository/STM32Cube_FW_F4_V1.26.2/Middlewares/Third_Party/LwIP/src/core\tcp.c ****       ++pcb_remove;
1230:c:/Users/Black_Life/STM32Cube/Repository/STM32Cube_FW_F4_V1.26.2/Middlewares/Third_Party/LwIP/src/core\tcp.c ****       LWIP_DEBUGF(TCP_DEBUG, ("tcp_slowtmr: max SYN retries reached\n"));
1231:c:/Users/Black_Life/STM32Cube/Repository/STM32Cube_FW_F4_V1.26.2/Middlewares/Third_Party/LwIP/src/core\tcp.c ****     } else if (pcb->nrtx >= TCP_MAXRTX) {
1232:c:/Users/Black_Life/STM32Cube/Repository/STM32Cube_FW_F4_V1.26.2/Middlewares/Third_Party/LwIP/src/core\tcp.c ****       ++pcb_remove;
1233:c:/Users/Black_Life/STM32Cube/Repository/STM32Cube_FW_F4_V1.26.2/Middlewares/Third_Party/LwIP/src/core\tcp.c ****       LWIP_DEBUGF(TCP_DEBUG, ("tcp_slowtmr: max DATA retries reached\n"));
1234:c:/Users/Black_Life/STM32Cube/Repository/STM32Cube_FW_F4_V1.26.2/Middlewares/Third_Party/LwIP/src/core\tcp.c ****     } else {
1235:c:/Users/Black_Life/STM32Cube/Repository/STM32Cube_FW_F4_V1.26.2/Middlewares/Third_Party/LwIP/src/core\tcp.c ****       if (pcb->persist_backoff > 0) {
1236:c:/Users/Black_Life/STM32Cube/Repository/STM32Cube_FW_F4_V1.26.2/Middlewares/Third_Party/LwIP/src/core\tcp.c ****         LWIP_ASSERT("tcp_slowtimr: persist ticking with in-flight data", pcb->unacked == NULL);
1237:c:/Users/Black_Life/STM32Cube/Repository/STM32Cube_FW_F4_V1.26.2/Middlewares/Third_Party/LwIP/src/core\tcp.c ****         LWIP_ASSERT("tcp_slowtimr: persist ticking with empty send buffer", pcb->unsent != NULL);
1238:c:/Users/Black_Life/STM32Cube/Repository/STM32Cube_FW_F4_V1.26.2/Middlewares/Third_Party/LwIP/src/core\tcp.c ****         if (pcb->persist_probe >= TCP_MAXRTX) {
1239:c:/Users/Black_Life/STM32Cube/Repository/STM32Cube_FW_F4_V1.26.2/Middlewares/Third_Party/LwIP/src/core\tcp.c ****           ++pcb_remove; /* max probes reached */
1240:c:/Users/Black_Life/STM32Cube/Repository/STM32Cube_FW_F4_V1.26.2/Middlewares/Third_Party/LwIP/src/core\tcp.c ****         } else {
ARM GAS  C:\Users\BLACK_~1\AppData\Local\Temp\ccRovO0r.s 			page 35


1241:c:/Users/Black_Life/STM32Cube/Repository/STM32Cube_FW_F4_V1.26.2/Middlewares/Third_Party/LwIP/src/core\tcp.c ****           u8_t backoff_cnt = tcp_persist_backoff[pcb->persist_backoff - 1];
1242:c:/Users/Black_Life/STM32Cube/Repository/STM32Cube_FW_F4_V1.26.2/Middlewares/Third_Party/LwIP/src/core\tcp.c ****           if (pcb->persist_cnt < backoff_cnt) {
1243:c:/Users/Black_Life/STM32Cube/Repository/STM32Cube_FW_F4_V1.26.2/Middlewares/Third_Party/LwIP/src/core\tcp.c ****             pcb->persist_cnt++;
1244:c:/Users/Black_Life/STM32Cube/Repository/STM32Cube_FW_F4_V1.26.2/Middlewares/Third_Party/LwIP/src/core\tcp.c ****           }
1245:c:/Users/Black_Life/STM32Cube/Repository/STM32Cube_FW_F4_V1.26.2/Middlewares/Third_Party/LwIP/src/core\tcp.c ****           if (pcb->persist_cnt >= backoff_cnt) {
1246:c:/Users/Black_Life/STM32Cube/Repository/STM32Cube_FW_F4_V1.26.2/Middlewares/Third_Party/LwIP/src/core\tcp.c ****             int next_slot = 1; /* increment timer to next slot */
1247:c:/Users/Black_Life/STM32Cube/Repository/STM32Cube_FW_F4_V1.26.2/Middlewares/Third_Party/LwIP/src/core\tcp.c ****             /* If snd_wnd is zero, send 1 byte probes */
1248:c:/Users/Black_Life/STM32Cube/Repository/STM32Cube_FW_F4_V1.26.2/Middlewares/Third_Party/LwIP/src/core\tcp.c ****             if (pcb->snd_wnd == 0) {
1249:c:/Users/Black_Life/STM32Cube/Repository/STM32Cube_FW_F4_V1.26.2/Middlewares/Third_Party/LwIP/src/core\tcp.c ****               if (tcp_zero_window_probe(pcb) != ERR_OK) {
1250:c:/Users/Black_Life/STM32Cube/Repository/STM32Cube_FW_F4_V1.26.2/Middlewares/Third_Party/LwIP/src/core\tcp.c ****                 next_slot = 0; /* try probe again with current slot */
1251:c:/Users/Black_Life/STM32Cube/Repository/STM32Cube_FW_F4_V1.26.2/Middlewares/Third_Party/LwIP/src/core\tcp.c ****               }
1252:c:/Users/Black_Life/STM32Cube/Repository/STM32Cube_FW_F4_V1.26.2/Middlewares/Third_Party/LwIP/src/core\tcp.c ****               /* snd_wnd not fully closed, split unsent head and fill window */
1253:c:/Users/Black_Life/STM32Cube/Repository/STM32Cube_FW_F4_V1.26.2/Middlewares/Third_Party/LwIP/src/core\tcp.c ****             } else {
1254:c:/Users/Black_Life/STM32Cube/Repository/STM32Cube_FW_F4_V1.26.2/Middlewares/Third_Party/LwIP/src/core\tcp.c ****               if (tcp_split_unsent_seg(pcb, (u16_t)pcb->snd_wnd) == ERR_OK) {
1255:c:/Users/Black_Life/STM32Cube/Repository/STM32Cube_FW_F4_V1.26.2/Middlewares/Third_Party/LwIP/src/core\tcp.c ****                 if (tcp_output(pcb) == ERR_OK) {
1256:c:/Users/Black_Life/STM32Cube/Repository/STM32Cube_FW_F4_V1.26.2/Middlewares/Third_Party/LwIP/src/core\tcp.c ****                   /* sending will cancel persist timer, else retry with current slot */
1257:c:/Users/Black_Life/STM32Cube/Repository/STM32Cube_FW_F4_V1.26.2/Middlewares/Third_Party/LwIP/src/core\tcp.c ****                   next_slot = 0;
1258:c:/Users/Black_Life/STM32Cube/Repository/STM32Cube_FW_F4_V1.26.2/Middlewares/Third_Party/LwIP/src/core\tcp.c ****                 }
1259:c:/Users/Black_Life/STM32Cube/Repository/STM32Cube_FW_F4_V1.26.2/Middlewares/Third_Party/LwIP/src/core\tcp.c ****               }
1260:c:/Users/Black_Life/STM32Cube/Repository/STM32Cube_FW_F4_V1.26.2/Middlewares/Third_Party/LwIP/src/core\tcp.c ****             }
1261:c:/Users/Black_Life/STM32Cube/Repository/STM32Cube_FW_F4_V1.26.2/Middlewares/Third_Party/LwIP/src/core\tcp.c ****             if (next_slot) {
1262:c:/Users/Black_Life/STM32Cube/Repository/STM32Cube_FW_F4_V1.26.2/Middlewares/Third_Party/LwIP/src/core\tcp.c ****               pcb->persist_cnt = 0;
1263:c:/Users/Black_Life/STM32Cube/Repository/STM32Cube_FW_F4_V1.26.2/Middlewares/Third_Party/LwIP/src/core\tcp.c ****               if (pcb->persist_backoff < sizeof(tcp_persist_backoff)) {
1264:c:/Users/Black_Life/STM32Cube/Repository/STM32Cube_FW_F4_V1.26.2/Middlewares/Third_Party/LwIP/src/core\tcp.c ****                 pcb->persist_backoff++;
1265:c:/Users/Black_Life/STM32Cube/Repository/STM32Cube_FW_F4_V1.26.2/Middlewares/Third_Party/LwIP/src/core\tcp.c ****               }
1266:c:/Users/Black_Life/STM32Cube/Repository/STM32Cube_FW_F4_V1.26.2/Middlewares/Third_Party/LwIP/src/core\tcp.c ****             }
1267:c:/Users/Black_Life/STM32Cube/Repository/STM32Cube_FW_F4_V1.26.2/Middlewares/Third_Party/LwIP/src/core\tcp.c ****           }
1268:c:/Users/Black_Life/STM32Cube/Repository/STM32Cube_FW_F4_V1.26.2/Middlewares/Third_Party/LwIP/src/core\tcp.c ****         }
1269:c:/Users/Black_Life/STM32Cube/Repository/STM32Cube_FW_F4_V1.26.2/Middlewares/Third_Party/LwIP/src/core\tcp.c ****       } else {
1270:c:/Users/Black_Life/STM32Cube/Repository/STM32Cube_FW_F4_V1.26.2/Middlewares/Third_Party/LwIP/src/core\tcp.c ****         /* Increase the retransmission timer if it is running */
1271:c:/Users/Black_Life/STM32Cube/Repository/STM32Cube_FW_F4_V1.26.2/Middlewares/Third_Party/LwIP/src/core\tcp.c ****         if ((pcb->rtime >= 0) && (pcb->rtime < 0x7FFF)) {
1272:c:/Users/Black_Life/STM32Cube/Repository/STM32Cube_FW_F4_V1.26.2/Middlewares/Third_Party/LwIP/src/core\tcp.c ****           ++pcb->rtime;
1273:c:/Users/Black_Life/STM32Cube/Repository/STM32Cube_FW_F4_V1.26.2/Middlewares/Third_Party/LwIP/src/core\tcp.c ****         }
1274:c:/Users/Black_Life/STM32Cube/Repository/STM32Cube_FW_F4_V1.26.2/Middlewares/Third_Party/LwIP/src/core\tcp.c **** 
1275:c:/Users/Black_Life/STM32Cube/Repository/STM32Cube_FW_F4_V1.26.2/Middlewares/Third_Party/LwIP/src/core\tcp.c ****         if (pcb->rtime >= pcb->rto) {
1276:c:/Users/Black_Life/STM32Cube/Repository/STM32Cube_FW_F4_V1.26.2/Middlewares/Third_Party/LwIP/src/core\tcp.c ****           /* Time for a retransmission. */
1277:c:/Users/Black_Life/STM32Cube/Repository/STM32Cube_FW_F4_V1.26.2/Middlewares/Third_Party/LwIP/src/core\tcp.c ****           LWIP_DEBUGF(TCP_RTO_DEBUG, ("tcp_slowtmr: rtime %"S16_F
1278:c:/Users/Black_Life/STM32Cube/Repository/STM32Cube_FW_F4_V1.26.2/Middlewares/Third_Party/LwIP/src/core\tcp.c ****                                       " pcb->rto %"S16_F"\n",
1279:c:/Users/Black_Life/STM32Cube/Repository/STM32Cube_FW_F4_V1.26.2/Middlewares/Third_Party/LwIP/src/core\tcp.c ****                                       pcb->rtime, pcb->rto));
1280:c:/Users/Black_Life/STM32Cube/Repository/STM32Cube_FW_F4_V1.26.2/Middlewares/Third_Party/LwIP/src/core\tcp.c ****           /* If prepare phase fails but we have unsent data but no unacked data,
1281:c:/Users/Black_Life/STM32Cube/Repository/STM32Cube_FW_F4_V1.26.2/Middlewares/Third_Party/LwIP/src/core\tcp.c ****              still execute the backoff calculations below, as this means we somehow
1282:c:/Users/Black_Life/STM32Cube/Repository/STM32Cube_FW_F4_V1.26.2/Middlewares/Third_Party/LwIP/src/core\tcp.c ****              failed to send segment. */
1283:c:/Users/Black_Life/STM32Cube/Repository/STM32Cube_FW_F4_V1.26.2/Middlewares/Third_Party/LwIP/src/core\tcp.c ****           if ((tcp_rexmit_rto_prepare(pcb) == ERR_OK) || ((pcb->unacked == NULL) && (pcb->unsent !=
1284:c:/Users/Black_Life/STM32Cube/Repository/STM32Cube_FW_F4_V1.26.2/Middlewares/Third_Party/LwIP/src/core\tcp.c ****             /* Double retransmission time-out unless we are trying to
1285:c:/Users/Black_Life/STM32Cube/Repository/STM32Cube_FW_F4_V1.26.2/Middlewares/Third_Party/LwIP/src/core\tcp.c ****              * connect to somebody (i.e., we are in SYN_SENT). */
1286:c:/Users/Black_Life/STM32Cube/Repository/STM32Cube_FW_F4_V1.26.2/Middlewares/Third_Party/LwIP/src/core\tcp.c ****             if (pcb->state != SYN_SENT) {
1287:c:/Users/Black_Life/STM32Cube/Repository/STM32Cube_FW_F4_V1.26.2/Middlewares/Third_Party/LwIP/src/core\tcp.c ****               u8_t backoff_idx = LWIP_MIN(pcb->nrtx, sizeof(tcp_backoff) - 1);
1288:c:/Users/Black_Life/STM32Cube/Repository/STM32Cube_FW_F4_V1.26.2/Middlewares/Third_Party/LwIP/src/core\tcp.c ****               int calc_rto = ((pcb->sa >> 3) + pcb->sv) << tcp_backoff[backoff_idx];
1289:c:/Users/Black_Life/STM32Cube/Repository/STM32Cube_FW_F4_V1.26.2/Middlewares/Third_Party/LwIP/src/core\tcp.c ****               pcb->rto = (s16_t)LWIP_MIN(calc_rto, 0x7FFF);
1290:c:/Users/Black_Life/STM32Cube/Repository/STM32Cube_FW_F4_V1.26.2/Middlewares/Third_Party/LwIP/src/core\tcp.c ****             }
1291:c:/Users/Black_Life/STM32Cube/Repository/STM32Cube_FW_F4_V1.26.2/Middlewares/Third_Party/LwIP/src/core\tcp.c **** 
1292:c:/Users/Black_Life/STM32Cube/Repository/STM32Cube_FW_F4_V1.26.2/Middlewares/Third_Party/LwIP/src/core\tcp.c ****             /* Reset the retransmission timer. */
1293:c:/Users/Black_Life/STM32Cube/Repository/STM32Cube_FW_F4_V1.26.2/Middlewares/Third_Party/LwIP/src/core\tcp.c ****             pcb->rtime = 0;
1294:c:/Users/Black_Life/STM32Cube/Repository/STM32Cube_FW_F4_V1.26.2/Middlewares/Third_Party/LwIP/src/core\tcp.c **** 
1295:c:/Users/Black_Life/STM32Cube/Repository/STM32Cube_FW_F4_V1.26.2/Middlewares/Third_Party/LwIP/src/core\tcp.c ****             /* Reduce congestion window and ssthresh. */
1296:c:/Users/Black_Life/STM32Cube/Repository/STM32Cube_FW_F4_V1.26.2/Middlewares/Third_Party/LwIP/src/core\tcp.c ****             eff_wnd = LWIP_MIN(pcb->cwnd, pcb->snd_wnd);
1297:c:/Users/Black_Life/STM32Cube/Repository/STM32Cube_FW_F4_V1.26.2/Middlewares/Third_Party/LwIP/src/core\tcp.c ****             pcb->ssthresh = eff_wnd >> 1;
ARM GAS  C:\Users\BLACK_~1\AppData\Local\Temp\ccRovO0r.s 			page 36


1298:c:/Users/Black_Life/STM32Cube/Repository/STM32Cube_FW_F4_V1.26.2/Middlewares/Third_Party/LwIP/src/core\tcp.c ****             if (pcb->ssthresh < (tcpwnd_size_t)(pcb->mss << 1)) {
1299:c:/Users/Black_Life/STM32Cube/Repository/STM32Cube_FW_F4_V1.26.2/Middlewares/Third_Party/LwIP/src/core\tcp.c ****               pcb->ssthresh = (tcpwnd_size_t)(pcb->mss << 1);
1300:c:/Users/Black_Life/STM32Cube/Repository/STM32Cube_FW_F4_V1.26.2/Middlewares/Third_Party/LwIP/src/core\tcp.c ****             }
1301:c:/Users/Black_Life/STM32Cube/Repository/STM32Cube_FW_F4_V1.26.2/Middlewares/Third_Party/LwIP/src/core\tcp.c ****             pcb->cwnd = pcb->mss;
1302:c:/Users/Black_Life/STM32Cube/Repository/STM32Cube_FW_F4_V1.26.2/Middlewares/Third_Party/LwIP/src/core\tcp.c ****             LWIP_DEBUGF(TCP_CWND_DEBUG, ("tcp_slowtmr: cwnd %"TCPWNDSIZE_F
1303:c:/Users/Black_Life/STM32Cube/Repository/STM32Cube_FW_F4_V1.26.2/Middlewares/Third_Party/LwIP/src/core\tcp.c ****                                          " ssthresh %"TCPWNDSIZE_F"\n",
1304:c:/Users/Black_Life/STM32Cube/Repository/STM32Cube_FW_F4_V1.26.2/Middlewares/Third_Party/LwIP/src/core\tcp.c ****                                          pcb->cwnd, pcb->ssthresh));
1305:c:/Users/Black_Life/STM32Cube/Repository/STM32Cube_FW_F4_V1.26.2/Middlewares/Third_Party/LwIP/src/core\tcp.c ****             pcb->bytes_acked = 0;
1306:c:/Users/Black_Life/STM32Cube/Repository/STM32Cube_FW_F4_V1.26.2/Middlewares/Third_Party/LwIP/src/core\tcp.c **** 
1307:c:/Users/Black_Life/STM32Cube/Repository/STM32Cube_FW_F4_V1.26.2/Middlewares/Third_Party/LwIP/src/core\tcp.c ****             /* The following needs to be called AFTER cwnd is set to one
1308:c:/Users/Black_Life/STM32Cube/Repository/STM32Cube_FW_F4_V1.26.2/Middlewares/Third_Party/LwIP/src/core\tcp.c ****                mss - STJ */
1309:c:/Users/Black_Life/STM32Cube/Repository/STM32Cube_FW_F4_V1.26.2/Middlewares/Third_Party/LwIP/src/core\tcp.c ****             tcp_rexmit_rto_commit(pcb);
1310:c:/Users/Black_Life/STM32Cube/Repository/STM32Cube_FW_F4_V1.26.2/Middlewares/Third_Party/LwIP/src/core\tcp.c ****           }
1311:c:/Users/Black_Life/STM32Cube/Repository/STM32Cube_FW_F4_V1.26.2/Middlewares/Third_Party/LwIP/src/core\tcp.c ****         }
1312:c:/Users/Black_Life/STM32Cube/Repository/STM32Cube_FW_F4_V1.26.2/Middlewares/Third_Party/LwIP/src/core\tcp.c ****       }
1313:c:/Users/Black_Life/STM32Cube/Repository/STM32Cube_FW_F4_V1.26.2/Middlewares/Third_Party/LwIP/src/core\tcp.c ****     }
1314:c:/Users/Black_Life/STM32Cube/Repository/STM32Cube_FW_F4_V1.26.2/Middlewares/Third_Party/LwIP/src/core\tcp.c ****     /* Check if this PCB has stayed too long in FIN-WAIT-2 */
1315:c:/Users/Black_Life/STM32Cube/Repository/STM32Cube_FW_F4_V1.26.2/Middlewares/Third_Party/LwIP/src/core\tcp.c ****     if (pcb->state == FIN_WAIT_2) {
1316:c:/Users/Black_Life/STM32Cube/Repository/STM32Cube_FW_F4_V1.26.2/Middlewares/Third_Party/LwIP/src/core\tcp.c ****       /* If this PCB is in FIN_WAIT_2 because of SHUT_WR don't let it time out. */
1317:c:/Users/Black_Life/STM32Cube/Repository/STM32Cube_FW_F4_V1.26.2/Middlewares/Third_Party/LwIP/src/core\tcp.c ****       if (pcb->flags & TF_RXCLOSED) {
1318:c:/Users/Black_Life/STM32Cube/Repository/STM32Cube_FW_F4_V1.26.2/Middlewares/Third_Party/LwIP/src/core\tcp.c ****         /* PCB was fully closed (either through close() or SHUT_RDWR):
1319:c:/Users/Black_Life/STM32Cube/Repository/STM32Cube_FW_F4_V1.26.2/Middlewares/Third_Party/LwIP/src/core\tcp.c ****            normal FIN-WAIT timeout handling. */
1320:c:/Users/Black_Life/STM32Cube/Repository/STM32Cube_FW_F4_V1.26.2/Middlewares/Third_Party/LwIP/src/core\tcp.c ****         if ((u32_t)(tcp_ticks - pcb->tmr) >
1321:c:/Users/Black_Life/STM32Cube/Repository/STM32Cube_FW_F4_V1.26.2/Middlewares/Third_Party/LwIP/src/core\tcp.c ****             TCP_FIN_WAIT_TIMEOUT / TCP_SLOW_INTERVAL) {
1322:c:/Users/Black_Life/STM32Cube/Repository/STM32Cube_FW_F4_V1.26.2/Middlewares/Third_Party/LwIP/src/core\tcp.c ****           ++pcb_remove;
1323:c:/Users/Black_Life/STM32Cube/Repository/STM32Cube_FW_F4_V1.26.2/Middlewares/Third_Party/LwIP/src/core\tcp.c ****           LWIP_DEBUGF(TCP_DEBUG, ("tcp_slowtmr: removing pcb stuck in FIN-WAIT-2\n"));
1324:c:/Users/Black_Life/STM32Cube/Repository/STM32Cube_FW_F4_V1.26.2/Middlewares/Third_Party/LwIP/src/core\tcp.c ****         }
1325:c:/Users/Black_Life/STM32Cube/Repository/STM32Cube_FW_F4_V1.26.2/Middlewares/Third_Party/LwIP/src/core\tcp.c ****       }
1326:c:/Users/Black_Life/STM32Cube/Repository/STM32Cube_FW_F4_V1.26.2/Middlewares/Third_Party/LwIP/src/core\tcp.c ****     }
1327:c:/Users/Black_Life/STM32Cube/Repository/STM32Cube_FW_F4_V1.26.2/Middlewares/Third_Party/LwIP/src/core\tcp.c **** 
1328:c:/Users/Black_Life/STM32Cube/Repository/STM32Cube_FW_F4_V1.26.2/Middlewares/Third_Party/LwIP/src/core\tcp.c ****     /* Check if KEEPALIVE should be sent */
1329:c:/Users/Black_Life/STM32Cube/Repository/STM32Cube_FW_F4_V1.26.2/Middlewares/Third_Party/LwIP/src/core\tcp.c ****     if (ip_get_option(pcb, SOF_KEEPALIVE) &&
1330:c:/Users/Black_Life/STM32Cube/Repository/STM32Cube_FW_F4_V1.26.2/Middlewares/Third_Party/LwIP/src/core\tcp.c ****         ((pcb->state == ESTABLISHED) ||
1331:c:/Users/Black_Life/STM32Cube/Repository/STM32Cube_FW_F4_V1.26.2/Middlewares/Third_Party/LwIP/src/core\tcp.c ****          (pcb->state == CLOSE_WAIT))) {
1332:c:/Users/Black_Life/STM32Cube/Repository/STM32Cube_FW_F4_V1.26.2/Middlewares/Third_Party/LwIP/src/core\tcp.c ****       if ((u32_t)(tcp_ticks - pcb->tmr) >
1333:c:/Users/Black_Life/STM32Cube/Repository/STM32Cube_FW_F4_V1.26.2/Middlewares/Third_Party/LwIP/src/core\tcp.c ****           (pcb->keep_idle + TCP_KEEP_DUR(pcb)) / TCP_SLOW_INTERVAL) {
1334:c:/Users/Black_Life/STM32Cube/Repository/STM32Cube_FW_F4_V1.26.2/Middlewares/Third_Party/LwIP/src/core\tcp.c ****         LWIP_DEBUGF(TCP_DEBUG, ("tcp_slowtmr: KEEPALIVE timeout. Aborting connection to "));
1335:c:/Users/Black_Life/STM32Cube/Repository/STM32Cube_FW_F4_V1.26.2/Middlewares/Third_Party/LwIP/src/core\tcp.c ****         ip_addr_debug_print_val(TCP_DEBUG, pcb->remote_ip);
1336:c:/Users/Black_Life/STM32Cube/Repository/STM32Cube_FW_F4_V1.26.2/Middlewares/Third_Party/LwIP/src/core\tcp.c ****         LWIP_DEBUGF(TCP_DEBUG, ("\n"));
1337:c:/Users/Black_Life/STM32Cube/Repository/STM32Cube_FW_F4_V1.26.2/Middlewares/Third_Party/LwIP/src/core\tcp.c **** 
1338:c:/Users/Black_Life/STM32Cube/Repository/STM32Cube_FW_F4_V1.26.2/Middlewares/Third_Party/LwIP/src/core\tcp.c ****         ++pcb_remove;
1339:c:/Users/Black_Life/STM32Cube/Repository/STM32Cube_FW_F4_V1.26.2/Middlewares/Third_Party/LwIP/src/core\tcp.c ****         ++pcb_reset;
1340:c:/Users/Black_Life/STM32Cube/Repository/STM32Cube_FW_F4_V1.26.2/Middlewares/Third_Party/LwIP/src/core\tcp.c ****       } else if ((u32_t)(tcp_ticks - pcb->tmr) >
1341:c:/Users/Black_Life/STM32Cube/Repository/STM32Cube_FW_F4_V1.26.2/Middlewares/Third_Party/LwIP/src/core\tcp.c ****                  (pcb->keep_idle + pcb->keep_cnt_sent * TCP_KEEP_INTVL(pcb))
1342:c:/Users/Black_Life/STM32Cube/Repository/STM32Cube_FW_F4_V1.26.2/Middlewares/Third_Party/LwIP/src/core\tcp.c ****                  / TCP_SLOW_INTERVAL) {
1343:c:/Users/Black_Life/STM32Cube/Repository/STM32Cube_FW_F4_V1.26.2/Middlewares/Third_Party/LwIP/src/core\tcp.c ****         err = tcp_keepalive(pcb);
1344:c:/Users/Black_Life/STM32Cube/Repository/STM32Cube_FW_F4_V1.26.2/Middlewares/Third_Party/LwIP/src/core\tcp.c ****         if (err == ERR_OK) {
1345:c:/Users/Black_Life/STM32Cube/Repository/STM32Cube_FW_F4_V1.26.2/Middlewares/Third_Party/LwIP/src/core\tcp.c ****           pcb->keep_cnt_sent++;
1346:c:/Users/Black_Life/STM32Cube/Repository/STM32Cube_FW_F4_V1.26.2/Middlewares/Third_Party/LwIP/src/core\tcp.c ****         }
1347:c:/Users/Black_Life/STM32Cube/Repository/STM32Cube_FW_F4_V1.26.2/Middlewares/Third_Party/LwIP/src/core\tcp.c ****       }
1348:c:/Users/Black_Life/STM32Cube/Repository/STM32Cube_FW_F4_V1.26.2/Middlewares/Third_Party/LwIP/src/core\tcp.c ****     }
1349:c:/Users/Black_Life/STM32Cube/Repository/STM32Cube_FW_F4_V1.26.2/Middlewares/Third_Party/LwIP/src/core\tcp.c **** 
1350:c:/Users/Black_Life/STM32Cube/Repository/STM32Cube_FW_F4_V1.26.2/Middlewares/Third_Party/LwIP/src/core\tcp.c ****     /* If this PCB has queued out of sequence data, but has been
1351:c:/Users/Black_Life/STM32Cube/Repository/STM32Cube_FW_F4_V1.26.2/Middlewares/Third_Party/LwIP/src/core\tcp.c ****        inactive for too long, will drop the data (it will eventually
1352:c:/Users/Black_Life/STM32Cube/Repository/STM32Cube_FW_F4_V1.26.2/Middlewares/Third_Party/LwIP/src/core\tcp.c ****        be retransmitted). */
1353:c:/Users/Black_Life/STM32Cube/Repository/STM32Cube_FW_F4_V1.26.2/Middlewares/Third_Party/LwIP/src/core\tcp.c **** #if TCP_QUEUE_OOSEQ
1354:c:/Users/Black_Life/STM32Cube/Repository/STM32Cube_FW_F4_V1.26.2/Middlewares/Third_Party/LwIP/src/core\tcp.c ****     if (pcb->ooseq != NULL &&
ARM GAS  C:\Users\BLACK_~1\AppData\Local\Temp\ccRovO0r.s 			page 37


1355:c:/Users/Black_Life/STM32Cube/Repository/STM32Cube_FW_F4_V1.26.2/Middlewares/Third_Party/LwIP/src/core\tcp.c ****         (tcp_ticks - pcb->tmr >= (u32_t)pcb->rto * TCP_OOSEQ_TIMEOUT)) {
1356:c:/Users/Black_Life/STM32Cube/Repository/STM32Cube_FW_F4_V1.26.2/Middlewares/Third_Party/LwIP/src/core\tcp.c ****       LWIP_DEBUGF(TCP_CWND_DEBUG, ("tcp_slowtmr: dropping OOSEQ queued data\n"));
1357:c:/Users/Black_Life/STM32Cube/Repository/STM32Cube_FW_F4_V1.26.2/Middlewares/Third_Party/LwIP/src/core\tcp.c ****       tcp_free_ooseq(pcb);
1358:c:/Users/Black_Life/STM32Cube/Repository/STM32Cube_FW_F4_V1.26.2/Middlewares/Third_Party/LwIP/src/core\tcp.c ****     }
1359:c:/Users/Black_Life/STM32Cube/Repository/STM32Cube_FW_F4_V1.26.2/Middlewares/Third_Party/LwIP/src/core\tcp.c **** #endif /* TCP_QUEUE_OOSEQ */
1360:c:/Users/Black_Life/STM32Cube/Repository/STM32Cube_FW_F4_V1.26.2/Middlewares/Third_Party/LwIP/src/core\tcp.c **** 
1361:c:/Users/Black_Life/STM32Cube/Repository/STM32Cube_FW_F4_V1.26.2/Middlewares/Third_Party/LwIP/src/core\tcp.c ****     /* Check if this PCB has stayed too long in SYN-RCVD */
1362:c:/Users/Black_Life/STM32Cube/Repository/STM32Cube_FW_F4_V1.26.2/Middlewares/Third_Party/LwIP/src/core\tcp.c ****     if (pcb->state == SYN_RCVD) {
1363:c:/Users/Black_Life/STM32Cube/Repository/STM32Cube_FW_F4_V1.26.2/Middlewares/Third_Party/LwIP/src/core\tcp.c ****       if ((u32_t)(tcp_ticks - pcb->tmr) >
1364:c:/Users/Black_Life/STM32Cube/Repository/STM32Cube_FW_F4_V1.26.2/Middlewares/Third_Party/LwIP/src/core\tcp.c ****           TCP_SYN_RCVD_TIMEOUT / TCP_SLOW_INTERVAL) {
1365:c:/Users/Black_Life/STM32Cube/Repository/STM32Cube_FW_F4_V1.26.2/Middlewares/Third_Party/LwIP/src/core\tcp.c ****         ++pcb_remove;
1366:c:/Users/Black_Life/STM32Cube/Repository/STM32Cube_FW_F4_V1.26.2/Middlewares/Third_Party/LwIP/src/core\tcp.c ****         LWIP_DEBUGF(TCP_DEBUG, ("tcp_slowtmr: removing pcb stuck in SYN-RCVD\n"));
1367:c:/Users/Black_Life/STM32Cube/Repository/STM32Cube_FW_F4_V1.26.2/Middlewares/Third_Party/LwIP/src/core\tcp.c ****       }
1368:c:/Users/Black_Life/STM32Cube/Repository/STM32Cube_FW_F4_V1.26.2/Middlewares/Third_Party/LwIP/src/core\tcp.c ****     }
1369:c:/Users/Black_Life/STM32Cube/Repository/STM32Cube_FW_F4_V1.26.2/Middlewares/Third_Party/LwIP/src/core\tcp.c **** 
1370:c:/Users/Black_Life/STM32Cube/Repository/STM32Cube_FW_F4_V1.26.2/Middlewares/Third_Party/LwIP/src/core\tcp.c ****     /* Check if this PCB has stayed too long in LAST-ACK */
1371:c:/Users/Black_Life/STM32Cube/Repository/STM32Cube_FW_F4_V1.26.2/Middlewares/Third_Party/LwIP/src/core\tcp.c ****     if (pcb->state == LAST_ACK) {
1372:c:/Users/Black_Life/STM32Cube/Repository/STM32Cube_FW_F4_V1.26.2/Middlewares/Third_Party/LwIP/src/core\tcp.c ****       if ((u32_t)(tcp_ticks - pcb->tmr) > 2 * TCP_MSL / TCP_SLOW_INTERVAL) {
1373:c:/Users/Black_Life/STM32Cube/Repository/STM32Cube_FW_F4_V1.26.2/Middlewares/Third_Party/LwIP/src/core\tcp.c ****         ++pcb_remove;
1374:c:/Users/Black_Life/STM32Cube/Repository/STM32Cube_FW_F4_V1.26.2/Middlewares/Third_Party/LwIP/src/core\tcp.c ****         LWIP_DEBUGF(TCP_DEBUG, ("tcp_slowtmr: removing pcb stuck in LAST-ACK\n"));
1375:c:/Users/Black_Life/STM32Cube/Repository/STM32Cube_FW_F4_V1.26.2/Middlewares/Third_Party/LwIP/src/core\tcp.c ****       }
1376:c:/Users/Black_Life/STM32Cube/Repository/STM32Cube_FW_F4_V1.26.2/Middlewares/Third_Party/LwIP/src/core\tcp.c ****     }
1377:c:/Users/Black_Life/STM32Cube/Repository/STM32Cube_FW_F4_V1.26.2/Middlewares/Third_Party/LwIP/src/core\tcp.c **** 
1378:c:/Users/Black_Life/STM32Cube/Repository/STM32Cube_FW_F4_V1.26.2/Middlewares/Third_Party/LwIP/src/core\tcp.c ****     /* If the PCB should be removed, do it. */
1379:c:/Users/Black_Life/STM32Cube/Repository/STM32Cube_FW_F4_V1.26.2/Middlewares/Third_Party/LwIP/src/core\tcp.c ****     if (pcb_remove) {
1380:c:/Users/Black_Life/STM32Cube/Repository/STM32Cube_FW_F4_V1.26.2/Middlewares/Third_Party/LwIP/src/core\tcp.c ****       struct tcp_pcb *pcb2;
1381:c:/Users/Black_Life/STM32Cube/Repository/STM32Cube_FW_F4_V1.26.2/Middlewares/Third_Party/LwIP/src/core\tcp.c **** #if LWIP_CALLBACK_API
1382:c:/Users/Black_Life/STM32Cube/Repository/STM32Cube_FW_F4_V1.26.2/Middlewares/Third_Party/LwIP/src/core\tcp.c ****       tcp_err_fn err_fn = pcb->errf;
1383:c:/Users/Black_Life/STM32Cube/Repository/STM32Cube_FW_F4_V1.26.2/Middlewares/Third_Party/LwIP/src/core\tcp.c **** #endif /* LWIP_CALLBACK_API */
1384:c:/Users/Black_Life/STM32Cube/Repository/STM32Cube_FW_F4_V1.26.2/Middlewares/Third_Party/LwIP/src/core\tcp.c ****       void *err_arg;
1385:c:/Users/Black_Life/STM32Cube/Repository/STM32Cube_FW_F4_V1.26.2/Middlewares/Third_Party/LwIP/src/core\tcp.c ****       enum tcp_state last_state;
1386:c:/Users/Black_Life/STM32Cube/Repository/STM32Cube_FW_F4_V1.26.2/Middlewares/Third_Party/LwIP/src/core\tcp.c ****       tcp_pcb_purge(pcb);
1387:c:/Users/Black_Life/STM32Cube/Repository/STM32Cube_FW_F4_V1.26.2/Middlewares/Third_Party/LwIP/src/core\tcp.c ****       /* Remove PCB from tcp_active_pcbs list. */
1388:c:/Users/Black_Life/STM32Cube/Repository/STM32Cube_FW_F4_V1.26.2/Middlewares/Third_Party/LwIP/src/core\tcp.c ****       if (prev != NULL) {
1389:c:/Users/Black_Life/STM32Cube/Repository/STM32Cube_FW_F4_V1.26.2/Middlewares/Third_Party/LwIP/src/core\tcp.c ****         LWIP_ASSERT("tcp_slowtmr: middle tcp != tcp_active_pcbs", pcb != tcp_active_pcbs);
1390:c:/Users/Black_Life/STM32Cube/Repository/STM32Cube_FW_F4_V1.26.2/Middlewares/Third_Party/LwIP/src/core\tcp.c ****         prev->next = pcb->next;
1391:c:/Users/Black_Life/STM32Cube/Repository/STM32Cube_FW_F4_V1.26.2/Middlewares/Third_Party/LwIP/src/core\tcp.c ****       } else {
1392:c:/Users/Black_Life/STM32Cube/Repository/STM32Cube_FW_F4_V1.26.2/Middlewares/Third_Party/LwIP/src/core\tcp.c ****         /* This PCB was the first. */
1393:c:/Users/Black_Life/STM32Cube/Repository/STM32Cube_FW_F4_V1.26.2/Middlewares/Third_Party/LwIP/src/core\tcp.c ****         LWIP_ASSERT("tcp_slowtmr: first pcb == tcp_active_pcbs", tcp_active_pcbs == pcb);
1394:c:/Users/Black_Life/STM32Cube/Repository/STM32Cube_FW_F4_V1.26.2/Middlewares/Third_Party/LwIP/src/core\tcp.c ****         tcp_active_pcbs = pcb->next;
1395:c:/Users/Black_Life/STM32Cube/Repository/STM32Cube_FW_F4_V1.26.2/Middlewares/Third_Party/LwIP/src/core\tcp.c ****       }
1396:c:/Users/Black_Life/STM32Cube/Repository/STM32Cube_FW_F4_V1.26.2/Middlewares/Third_Party/LwIP/src/core\tcp.c **** 
1397:c:/Users/Black_Life/STM32Cube/Repository/STM32Cube_FW_F4_V1.26.2/Middlewares/Third_Party/LwIP/src/core\tcp.c ****       if (pcb_reset) {
1398:c:/Users/Black_Life/STM32Cube/Repository/STM32Cube_FW_F4_V1.26.2/Middlewares/Third_Party/LwIP/src/core\tcp.c ****         tcp_rst(pcb, pcb->snd_nxt, pcb->rcv_nxt, &pcb->local_ip, &pcb->remote_ip,
1399:c:/Users/Black_Life/STM32Cube/Repository/STM32Cube_FW_F4_V1.26.2/Middlewares/Third_Party/LwIP/src/core\tcp.c ****                 pcb->local_port, pcb->remote_port);
1400:c:/Users/Black_Life/STM32Cube/Repository/STM32Cube_FW_F4_V1.26.2/Middlewares/Third_Party/LwIP/src/core\tcp.c ****       }
1401:c:/Users/Black_Life/STM32Cube/Repository/STM32Cube_FW_F4_V1.26.2/Middlewares/Third_Party/LwIP/src/core\tcp.c **** 
1402:c:/Users/Black_Life/STM32Cube/Repository/STM32Cube_FW_F4_V1.26.2/Middlewares/Third_Party/LwIP/src/core\tcp.c ****       err_arg = pcb->callback_arg;
1403:c:/Users/Black_Life/STM32Cube/Repository/STM32Cube_FW_F4_V1.26.2/Middlewares/Third_Party/LwIP/src/core\tcp.c ****       last_state = pcb->state;
1404:c:/Users/Black_Life/STM32Cube/Repository/STM32Cube_FW_F4_V1.26.2/Middlewares/Third_Party/LwIP/src/core\tcp.c ****       pcb2 = pcb;
1405:c:/Users/Black_Life/STM32Cube/Repository/STM32Cube_FW_F4_V1.26.2/Middlewares/Third_Party/LwIP/src/core\tcp.c ****       pcb = pcb->next;
1406:c:/Users/Black_Life/STM32Cube/Repository/STM32Cube_FW_F4_V1.26.2/Middlewares/Third_Party/LwIP/src/core\tcp.c ****       tcp_free(pcb2);
1407:c:/Users/Black_Life/STM32Cube/Repository/STM32Cube_FW_F4_V1.26.2/Middlewares/Third_Party/LwIP/src/core\tcp.c **** 
1408:c:/Users/Black_Life/STM32Cube/Repository/STM32Cube_FW_F4_V1.26.2/Middlewares/Third_Party/LwIP/src/core\tcp.c ****       tcp_active_pcbs_changed = 0;
1409:c:/Users/Black_Life/STM32Cube/Repository/STM32Cube_FW_F4_V1.26.2/Middlewares/Third_Party/LwIP/src/core\tcp.c ****       TCP_EVENT_ERR(last_state, err_fn, err_arg, ERR_ABRT);
1410:c:/Users/Black_Life/STM32Cube/Repository/STM32Cube_FW_F4_V1.26.2/Middlewares/Third_Party/LwIP/src/core\tcp.c ****       if (tcp_active_pcbs_changed) {
1411:c:/Users/Black_Life/STM32Cube/Repository/STM32Cube_FW_F4_V1.26.2/Middlewares/Third_Party/LwIP/src/core\tcp.c ****         goto tcp_slowtmr_start;
ARM GAS  C:\Users\BLACK_~1\AppData\Local\Temp\ccRovO0r.s 			page 38


1412:c:/Users/Black_Life/STM32Cube/Repository/STM32Cube_FW_F4_V1.26.2/Middlewares/Third_Party/LwIP/src/core\tcp.c ****       }
1413:c:/Users/Black_Life/STM32Cube/Repository/STM32Cube_FW_F4_V1.26.2/Middlewares/Third_Party/LwIP/src/core\tcp.c ****     } else {
1414:c:/Users/Black_Life/STM32Cube/Repository/STM32Cube_FW_F4_V1.26.2/Middlewares/Third_Party/LwIP/src/core\tcp.c ****       /* get the 'next' element now and work with 'prev' below (in case of abort) */
1415:c:/Users/Black_Life/STM32Cube/Repository/STM32Cube_FW_F4_V1.26.2/Middlewares/Third_Party/LwIP/src/core\tcp.c ****       prev = pcb;
1416:c:/Users/Black_Life/STM32Cube/Repository/STM32Cube_FW_F4_V1.26.2/Middlewares/Third_Party/LwIP/src/core\tcp.c ****       pcb = pcb->next;
1417:c:/Users/Black_Life/STM32Cube/Repository/STM32Cube_FW_F4_V1.26.2/Middlewares/Third_Party/LwIP/src/core\tcp.c **** 
1418:c:/Users/Black_Life/STM32Cube/Repository/STM32Cube_FW_F4_V1.26.2/Middlewares/Third_Party/LwIP/src/core\tcp.c ****       /* We check if we should poll the connection. */
1419:c:/Users/Black_Life/STM32Cube/Repository/STM32Cube_FW_F4_V1.26.2/Middlewares/Third_Party/LwIP/src/core\tcp.c ****       ++prev->polltmr;
1420:c:/Users/Black_Life/STM32Cube/Repository/STM32Cube_FW_F4_V1.26.2/Middlewares/Third_Party/LwIP/src/core\tcp.c ****       if (prev->polltmr >= prev->pollinterval) {
1421:c:/Users/Black_Life/STM32Cube/Repository/STM32Cube_FW_F4_V1.26.2/Middlewares/Third_Party/LwIP/src/core\tcp.c ****         prev->polltmr = 0;
1422:c:/Users/Black_Life/STM32Cube/Repository/STM32Cube_FW_F4_V1.26.2/Middlewares/Third_Party/LwIP/src/core\tcp.c ****         LWIP_DEBUGF(TCP_DEBUG, ("tcp_slowtmr: polling application\n"));
1423:c:/Users/Black_Life/STM32Cube/Repository/STM32Cube_FW_F4_V1.26.2/Middlewares/Third_Party/LwIP/src/core\tcp.c ****         tcp_active_pcbs_changed = 0;
1424:c:/Users/Black_Life/STM32Cube/Repository/STM32Cube_FW_F4_V1.26.2/Middlewares/Third_Party/LwIP/src/core\tcp.c ****         TCP_EVENT_POLL(prev, err);
1425:c:/Users/Black_Life/STM32Cube/Repository/STM32Cube_FW_F4_V1.26.2/Middlewares/Third_Party/LwIP/src/core\tcp.c ****         if (tcp_active_pcbs_changed) {
1426:c:/Users/Black_Life/STM32Cube/Repository/STM32Cube_FW_F4_V1.26.2/Middlewares/Third_Party/LwIP/src/core\tcp.c ****           goto tcp_slowtmr_start;
1427:c:/Users/Black_Life/STM32Cube/Repository/STM32Cube_FW_F4_V1.26.2/Middlewares/Third_Party/LwIP/src/core\tcp.c ****         }
1428:c:/Users/Black_Life/STM32Cube/Repository/STM32Cube_FW_F4_V1.26.2/Middlewares/Third_Party/LwIP/src/core\tcp.c ****         /* if err == ERR_ABRT, 'prev' is already deallocated */
1429:c:/Users/Black_Life/STM32Cube/Repository/STM32Cube_FW_F4_V1.26.2/Middlewares/Third_Party/LwIP/src/core\tcp.c ****         if (err == ERR_OK) {
1430:c:/Users/Black_Life/STM32Cube/Repository/STM32Cube_FW_F4_V1.26.2/Middlewares/Third_Party/LwIP/src/core\tcp.c ****           tcp_output(prev);
1431:c:/Users/Black_Life/STM32Cube/Repository/STM32Cube_FW_F4_V1.26.2/Middlewares/Third_Party/LwIP/src/core\tcp.c ****         }
1432:c:/Users/Black_Life/STM32Cube/Repository/STM32Cube_FW_F4_V1.26.2/Middlewares/Third_Party/LwIP/src/core\tcp.c ****       }
1433:c:/Users/Black_Life/STM32Cube/Repository/STM32Cube_FW_F4_V1.26.2/Middlewares/Third_Party/LwIP/src/core\tcp.c ****     }
1434:c:/Users/Black_Life/STM32Cube/Repository/STM32Cube_FW_F4_V1.26.2/Middlewares/Third_Party/LwIP/src/core\tcp.c ****   }
1435:c:/Users/Black_Life/STM32Cube/Repository/STM32Cube_FW_F4_V1.26.2/Middlewares/Third_Party/LwIP/src/core\tcp.c **** 
1436:c:/Users/Black_Life/STM32Cube/Repository/STM32Cube_FW_F4_V1.26.2/Middlewares/Third_Party/LwIP/src/core\tcp.c **** 
1437:c:/Users/Black_Life/STM32Cube/Repository/STM32Cube_FW_F4_V1.26.2/Middlewares/Third_Party/LwIP/src/core\tcp.c ****   /* Steps through all of the TIME-WAIT PCBs. */
1438:c:/Users/Black_Life/STM32Cube/Repository/STM32Cube_FW_F4_V1.26.2/Middlewares/Third_Party/LwIP/src/core\tcp.c ****   prev = NULL;
1439:c:/Users/Black_Life/STM32Cube/Repository/STM32Cube_FW_F4_V1.26.2/Middlewares/Third_Party/LwIP/src/core\tcp.c ****   pcb = tcp_tw_pcbs;
1440:c:/Users/Black_Life/STM32Cube/Repository/STM32Cube_FW_F4_V1.26.2/Middlewares/Third_Party/LwIP/src/core\tcp.c ****   while (pcb != NULL) {
1441:c:/Users/Black_Life/STM32Cube/Repository/STM32Cube_FW_F4_V1.26.2/Middlewares/Third_Party/LwIP/src/core\tcp.c ****     LWIP_ASSERT("tcp_slowtmr: TIME-WAIT pcb->state == TIME-WAIT", pcb->state == TIME_WAIT);
1442:c:/Users/Black_Life/STM32Cube/Repository/STM32Cube_FW_F4_V1.26.2/Middlewares/Third_Party/LwIP/src/core\tcp.c ****     pcb_remove = 0;
1443:c:/Users/Black_Life/STM32Cube/Repository/STM32Cube_FW_F4_V1.26.2/Middlewares/Third_Party/LwIP/src/core\tcp.c **** 
1444:c:/Users/Black_Life/STM32Cube/Repository/STM32Cube_FW_F4_V1.26.2/Middlewares/Third_Party/LwIP/src/core\tcp.c ****     /* Check if this PCB has stayed long enough in TIME-WAIT */
1445:c:/Users/Black_Life/STM32Cube/Repository/STM32Cube_FW_F4_V1.26.2/Middlewares/Third_Party/LwIP/src/core\tcp.c ****     if ((u32_t)(tcp_ticks - pcb->tmr) > 2 * TCP_MSL / TCP_SLOW_INTERVAL) {
1446:c:/Users/Black_Life/STM32Cube/Repository/STM32Cube_FW_F4_V1.26.2/Middlewares/Third_Party/LwIP/src/core\tcp.c ****       ++pcb_remove;
1447:c:/Users/Black_Life/STM32Cube/Repository/STM32Cube_FW_F4_V1.26.2/Middlewares/Third_Party/LwIP/src/core\tcp.c ****     }
1448:c:/Users/Black_Life/STM32Cube/Repository/STM32Cube_FW_F4_V1.26.2/Middlewares/Third_Party/LwIP/src/core\tcp.c **** 
1449:c:/Users/Black_Life/STM32Cube/Repository/STM32Cube_FW_F4_V1.26.2/Middlewares/Third_Party/LwIP/src/core\tcp.c ****     /* If the PCB should be removed, do it. */
1450:c:/Users/Black_Life/STM32Cube/Repository/STM32Cube_FW_F4_V1.26.2/Middlewares/Third_Party/LwIP/src/core\tcp.c ****     if (pcb_remove) {
1451:c:/Users/Black_Life/STM32Cube/Repository/STM32Cube_FW_F4_V1.26.2/Middlewares/Third_Party/LwIP/src/core\tcp.c ****       struct tcp_pcb *pcb2;
1452:c:/Users/Black_Life/STM32Cube/Repository/STM32Cube_FW_F4_V1.26.2/Middlewares/Third_Party/LwIP/src/core\tcp.c ****       tcp_pcb_purge(pcb);
1453:c:/Users/Black_Life/STM32Cube/Repository/STM32Cube_FW_F4_V1.26.2/Middlewares/Third_Party/LwIP/src/core\tcp.c ****       /* Remove PCB from tcp_tw_pcbs list. */
1454:c:/Users/Black_Life/STM32Cube/Repository/STM32Cube_FW_F4_V1.26.2/Middlewares/Third_Party/LwIP/src/core\tcp.c ****       if (prev != NULL) {
1455:c:/Users/Black_Life/STM32Cube/Repository/STM32Cube_FW_F4_V1.26.2/Middlewares/Third_Party/LwIP/src/core\tcp.c ****         LWIP_ASSERT("tcp_slowtmr: middle tcp != tcp_tw_pcbs", pcb != tcp_tw_pcbs);
1456:c:/Users/Black_Life/STM32Cube/Repository/STM32Cube_FW_F4_V1.26.2/Middlewares/Third_Party/LwIP/src/core\tcp.c ****         prev->next = pcb->next;
1457:c:/Users/Black_Life/STM32Cube/Repository/STM32Cube_FW_F4_V1.26.2/Middlewares/Third_Party/LwIP/src/core\tcp.c ****       } else {
1458:c:/Users/Black_Life/STM32Cube/Repository/STM32Cube_FW_F4_V1.26.2/Middlewares/Third_Party/LwIP/src/core\tcp.c ****         /* This PCB was the first. */
1459:c:/Users/Black_Life/STM32Cube/Repository/STM32Cube_FW_F4_V1.26.2/Middlewares/Third_Party/LwIP/src/core\tcp.c ****         LWIP_ASSERT("tcp_slowtmr: first pcb == tcp_tw_pcbs", tcp_tw_pcbs == pcb);
1460:c:/Users/Black_Life/STM32Cube/Repository/STM32Cube_FW_F4_V1.26.2/Middlewares/Third_Party/LwIP/src/core\tcp.c ****         tcp_tw_pcbs = pcb->next;
1461:c:/Users/Black_Life/STM32Cube/Repository/STM32Cube_FW_F4_V1.26.2/Middlewares/Third_Party/LwIP/src/core\tcp.c ****       }
1462:c:/Users/Black_Life/STM32Cube/Repository/STM32Cube_FW_F4_V1.26.2/Middlewares/Third_Party/LwIP/src/core\tcp.c ****       pcb2 = pcb;
1463:c:/Users/Black_Life/STM32Cube/Repository/STM32Cube_FW_F4_V1.26.2/Middlewares/Third_Party/LwIP/src/core\tcp.c ****       pcb = pcb->next;
1464:c:/Users/Black_Life/STM32Cube/Repository/STM32Cube_FW_F4_V1.26.2/Middlewares/Third_Party/LwIP/src/core\tcp.c ****       tcp_free(pcb2);
1465:c:/Users/Black_Life/STM32Cube/Repository/STM32Cube_FW_F4_V1.26.2/Middlewares/Third_Party/LwIP/src/core\tcp.c ****     } else {
1466:c:/Users/Black_Life/STM32Cube/Repository/STM32Cube_FW_F4_V1.26.2/Middlewares/Third_Party/LwIP/src/core\tcp.c ****       prev = pcb;
1467:c:/Users/Black_Life/STM32Cube/Repository/STM32Cube_FW_F4_V1.26.2/Middlewares/Third_Party/LwIP/src/core\tcp.c ****       pcb = pcb->next;
1468:c:/Users/Black_Life/STM32Cube/Repository/STM32Cube_FW_F4_V1.26.2/Middlewares/Third_Party/LwIP/src/core\tcp.c ****     }
ARM GAS  C:\Users\BLACK_~1\AppData\Local\Temp\ccRovO0r.s 			page 39


1469:c:/Users/Black_Life/STM32Cube/Repository/STM32Cube_FW_F4_V1.26.2/Middlewares/Third_Party/LwIP/src/core\tcp.c ****   }
1470:c:/Users/Black_Life/STM32Cube/Repository/STM32Cube_FW_F4_V1.26.2/Middlewares/Third_Party/LwIP/src/core\tcp.c **** }
1471:c:/Users/Black_Life/STM32Cube/Repository/STM32Cube_FW_F4_V1.26.2/Middlewares/Third_Party/LwIP/src/core\tcp.c **** 
1472:c:/Users/Black_Life/STM32Cube/Repository/STM32Cube_FW_F4_V1.26.2/Middlewares/Third_Party/LwIP/src/core\tcp.c **** /**
1473:c:/Users/Black_Life/STM32Cube/Repository/STM32Cube_FW_F4_V1.26.2/Middlewares/Third_Party/LwIP/src/core\tcp.c ****  * Is called every TCP_FAST_INTERVAL (250 ms) and process data previously
1474:c:/Users/Black_Life/STM32Cube/Repository/STM32Cube_FW_F4_V1.26.2/Middlewares/Third_Party/LwIP/src/core\tcp.c ****  * "refused" by upper layer (application) and sends delayed ACKs or pending FINs.
1475:c:/Users/Black_Life/STM32Cube/Repository/STM32Cube_FW_F4_V1.26.2/Middlewares/Third_Party/LwIP/src/core\tcp.c ****  *
1476:c:/Users/Black_Life/STM32Cube/Repository/STM32Cube_FW_F4_V1.26.2/Middlewares/Third_Party/LwIP/src/core\tcp.c ****  * Automatically called from tcp_tmr().
1477:c:/Users/Black_Life/STM32Cube/Repository/STM32Cube_FW_F4_V1.26.2/Middlewares/Third_Party/LwIP/src/core\tcp.c ****  */
1478:c:/Users/Black_Life/STM32Cube/Repository/STM32Cube_FW_F4_V1.26.2/Middlewares/Third_Party/LwIP/src/core\tcp.c **** void
1479:c:/Users/Black_Life/STM32Cube/Repository/STM32Cube_FW_F4_V1.26.2/Middlewares/Third_Party/LwIP/src/core\tcp.c **** tcp_fasttmr(void)
1480:c:/Users/Black_Life/STM32Cube/Repository/STM32Cube_FW_F4_V1.26.2/Middlewares/Third_Party/LwIP/src/core\tcp.c **** {
1481:c:/Users/Black_Life/STM32Cube/Repository/STM32Cube_FW_F4_V1.26.2/Middlewares/Third_Party/LwIP/src/core\tcp.c ****   struct tcp_pcb *pcb;
1482:c:/Users/Black_Life/STM32Cube/Repository/STM32Cube_FW_F4_V1.26.2/Middlewares/Third_Party/LwIP/src/core\tcp.c **** 
1483:c:/Users/Black_Life/STM32Cube/Repository/STM32Cube_FW_F4_V1.26.2/Middlewares/Third_Party/LwIP/src/core\tcp.c ****   ++tcp_timer_ctr;
1484:c:/Users/Black_Life/STM32Cube/Repository/STM32Cube_FW_F4_V1.26.2/Middlewares/Third_Party/LwIP/src/core\tcp.c **** 
1485:c:/Users/Black_Life/STM32Cube/Repository/STM32Cube_FW_F4_V1.26.2/Middlewares/Third_Party/LwIP/src/core\tcp.c **** tcp_fasttmr_start:
1486:c:/Users/Black_Life/STM32Cube/Repository/STM32Cube_FW_F4_V1.26.2/Middlewares/Third_Party/LwIP/src/core\tcp.c ****   pcb = tcp_active_pcbs;
1487:c:/Users/Black_Life/STM32Cube/Repository/STM32Cube_FW_F4_V1.26.2/Middlewares/Third_Party/LwIP/src/core\tcp.c **** 
1488:c:/Users/Black_Life/STM32Cube/Repository/STM32Cube_FW_F4_V1.26.2/Middlewares/Third_Party/LwIP/src/core\tcp.c ****   while (pcb != NULL) {
1489:c:/Users/Black_Life/STM32Cube/Repository/STM32Cube_FW_F4_V1.26.2/Middlewares/Third_Party/LwIP/src/core\tcp.c ****     if (pcb->last_timer != tcp_timer_ctr) {
1490:c:/Users/Black_Life/STM32Cube/Repository/STM32Cube_FW_F4_V1.26.2/Middlewares/Third_Party/LwIP/src/core\tcp.c ****       struct tcp_pcb *next;
1491:c:/Users/Black_Life/STM32Cube/Repository/STM32Cube_FW_F4_V1.26.2/Middlewares/Third_Party/LwIP/src/core\tcp.c ****       pcb->last_timer = tcp_timer_ctr;
1492:c:/Users/Black_Life/STM32Cube/Repository/STM32Cube_FW_F4_V1.26.2/Middlewares/Third_Party/LwIP/src/core\tcp.c ****       /* send delayed ACKs */
1493:c:/Users/Black_Life/STM32Cube/Repository/STM32Cube_FW_F4_V1.26.2/Middlewares/Third_Party/LwIP/src/core\tcp.c ****       if (pcb->flags & TF_ACK_DELAY) {
1494:c:/Users/Black_Life/STM32Cube/Repository/STM32Cube_FW_F4_V1.26.2/Middlewares/Third_Party/LwIP/src/core\tcp.c ****         LWIP_DEBUGF(TCP_DEBUG, ("tcp_fasttmr: delayed ACK\n"));
1495:c:/Users/Black_Life/STM32Cube/Repository/STM32Cube_FW_F4_V1.26.2/Middlewares/Third_Party/LwIP/src/core\tcp.c ****         tcp_ack_now(pcb);
1496:c:/Users/Black_Life/STM32Cube/Repository/STM32Cube_FW_F4_V1.26.2/Middlewares/Third_Party/LwIP/src/core\tcp.c ****         tcp_output(pcb);
1497:c:/Users/Black_Life/STM32Cube/Repository/STM32Cube_FW_F4_V1.26.2/Middlewares/Third_Party/LwIP/src/core\tcp.c ****         tcp_clear_flags(pcb, TF_ACK_DELAY | TF_ACK_NOW);
1498:c:/Users/Black_Life/STM32Cube/Repository/STM32Cube_FW_F4_V1.26.2/Middlewares/Third_Party/LwIP/src/core\tcp.c ****       }
1499:c:/Users/Black_Life/STM32Cube/Repository/STM32Cube_FW_F4_V1.26.2/Middlewares/Third_Party/LwIP/src/core\tcp.c ****       /* send pending FIN */
1500:c:/Users/Black_Life/STM32Cube/Repository/STM32Cube_FW_F4_V1.26.2/Middlewares/Third_Party/LwIP/src/core\tcp.c ****       if (pcb->flags & TF_CLOSEPEND) {
1501:c:/Users/Black_Life/STM32Cube/Repository/STM32Cube_FW_F4_V1.26.2/Middlewares/Third_Party/LwIP/src/core\tcp.c ****         LWIP_DEBUGF(TCP_DEBUG, ("tcp_fasttmr: pending FIN\n"));
1502:c:/Users/Black_Life/STM32Cube/Repository/STM32Cube_FW_F4_V1.26.2/Middlewares/Third_Party/LwIP/src/core\tcp.c ****         tcp_clear_flags(pcb, TF_CLOSEPEND);
1503:c:/Users/Black_Life/STM32Cube/Repository/STM32Cube_FW_F4_V1.26.2/Middlewares/Third_Party/LwIP/src/core\tcp.c ****         tcp_close_shutdown_fin(pcb);
1504:c:/Users/Black_Life/STM32Cube/Repository/STM32Cube_FW_F4_V1.26.2/Middlewares/Third_Party/LwIP/src/core\tcp.c ****       }
1505:c:/Users/Black_Life/STM32Cube/Repository/STM32Cube_FW_F4_V1.26.2/Middlewares/Third_Party/LwIP/src/core\tcp.c **** 
1506:c:/Users/Black_Life/STM32Cube/Repository/STM32Cube_FW_F4_V1.26.2/Middlewares/Third_Party/LwIP/src/core\tcp.c ****       next = pcb->next;
1507:c:/Users/Black_Life/STM32Cube/Repository/STM32Cube_FW_F4_V1.26.2/Middlewares/Third_Party/LwIP/src/core\tcp.c **** 
1508:c:/Users/Black_Life/STM32Cube/Repository/STM32Cube_FW_F4_V1.26.2/Middlewares/Third_Party/LwIP/src/core\tcp.c ****       /* If there is data which was previously "refused" by upper layer */
1509:c:/Users/Black_Life/STM32Cube/Repository/STM32Cube_FW_F4_V1.26.2/Middlewares/Third_Party/LwIP/src/core\tcp.c ****       if (pcb->refused_data != NULL) {
1510:c:/Users/Black_Life/STM32Cube/Repository/STM32Cube_FW_F4_V1.26.2/Middlewares/Third_Party/LwIP/src/core\tcp.c ****         tcp_active_pcbs_changed = 0;
1511:c:/Users/Black_Life/STM32Cube/Repository/STM32Cube_FW_F4_V1.26.2/Middlewares/Third_Party/LwIP/src/core\tcp.c ****         tcp_process_refused_data(pcb);
1512:c:/Users/Black_Life/STM32Cube/Repository/STM32Cube_FW_F4_V1.26.2/Middlewares/Third_Party/LwIP/src/core\tcp.c ****         if (tcp_active_pcbs_changed) {
1513:c:/Users/Black_Life/STM32Cube/Repository/STM32Cube_FW_F4_V1.26.2/Middlewares/Third_Party/LwIP/src/core\tcp.c ****           /* application callback has changed the pcb list: restart the loop */
1514:c:/Users/Black_Life/STM32Cube/Repository/STM32Cube_FW_F4_V1.26.2/Middlewares/Third_Party/LwIP/src/core\tcp.c ****           goto tcp_fasttmr_start;
1515:c:/Users/Black_Life/STM32Cube/Repository/STM32Cube_FW_F4_V1.26.2/Middlewares/Third_Party/LwIP/src/core\tcp.c ****         }
1516:c:/Users/Black_Life/STM32Cube/Repository/STM32Cube_FW_F4_V1.26.2/Middlewares/Third_Party/LwIP/src/core\tcp.c ****       }
1517:c:/Users/Black_Life/STM32Cube/Repository/STM32Cube_FW_F4_V1.26.2/Middlewares/Third_Party/LwIP/src/core\tcp.c ****       pcb = next;
1518:c:/Users/Black_Life/STM32Cube/Repository/STM32Cube_FW_F4_V1.26.2/Middlewares/Third_Party/LwIP/src/core\tcp.c ****     } else {
1519:c:/Users/Black_Life/STM32Cube/Repository/STM32Cube_FW_F4_V1.26.2/Middlewares/Third_Party/LwIP/src/core\tcp.c ****       pcb = pcb->next;
1520:c:/Users/Black_Life/STM32Cube/Repository/STM32Cube_FW_F4_V1.26.2/Middlewares/Third_Party/LwIP/src/core\tcp.c ****     }
1521:c:/Users/Black_Life/STM32Cube/Repository/STM32Cube_FW_F4_V1.26.2/Middlewares/Third_Party/LwIP/src/core\tcp.c ****   }
1522:c:/Users/Black_Life/STM32Cube/Repository/STM32Cube_FW_F4_V1.26.2/Middlewares/Third_Party/LwIP/src/core\tcp.c **** }
1523:c:/Users/Black_Life/STM32Cube/Repository/STM32Cube_FW_F4_V1.26.2/Middlewares/Third_Party/LwIP/src/core\tcp.c **** 
1524:c:/Users/Black_Life/STM32Cube/Repository/STM32Cube_FW_F4_V1.26.2/Middlewares/Third_Party/LwIP/src/core\tcp.c **** /** Call tcp_output for all active pcbs that have TF_NAGLEMEMERR set */
1525:c:/Users/Black_Life/STM32Cube/Repository/STM32Cube_FW_F4_V1.26.2/Middlewares/Third_Party/LwIP/src/core\tcp.c **** void
ARM GAS  C:\Users\BLACK_~1\AppData\Local\Temp\ccRovO0r.s 			page 40


1526:c:/Users/Black_Life/STM32Cube/Repository/STM32Cube_FW_F4_V1.26.2/Middlewares/Third_Party/LwIP/src/core\tcp.c **** tcp_txnow(void)
1527:c:/Users/Black_Life/STM32Cube/Repository/STM32Cube_FW_F4_V1.26.2/Middlewares/Third_Party/LwIP/src/core\tcp.c **** {
1528:c:/Users/Black_Life/STM32Cube/Repository/STM32Cube_FW_F4_V1.26.2/Middlewares/Third_Party/LwIP/src/core\tcp.c ****   struct tcp_pcb *pcb;
1529:c:/Users/Black_Life/STM32Cube/Repository/STM32Cube_FW_F4_V1.26.2/Middlewares/Third_Party/LwIP/src/core\tcp.c **** 
1530:c:/Users/Black_Life/STM32Cube/Repository/STM32Cube_FW_F4_V1.26.2/Middlewares/Third_Party/LwIP/src/core\tcp.c ****   for (pcb = tcp_active_pcbs; pcb != NULL; pcb = pcb->next) {
1531:c:/Users/Black_Life/STM32Cube/Repository/STM32Cube_FW_F4_V1.26.2/Middlewares/Third_Party/LwIP/src/core\tcp.c ****     if (pcb->flags & TF_NAGLEMEMERR) {
1532:c:/Users/Black_Life/STM32Cube/Repository/STM32Cube_FW_F4_V1.26.2/Middlewares/Third_Party/LwIP/src/core\tcp.c ****       tcp_output(pcb);
1533:c:/Users/Black_Life/STM32Cube/Repository/STM32Cube_FW_F4_V1.26.2/Middlewares/Third_Party/LwIP/src/core\tcp.c ****     }
1534:c:/Users/Black_Life/STM32Cube/Repository/STM32Cube_FW_F4_V1.26.2/Middlewares/Third_Party/LwIP/src/core\tcp.c ****   }
1535:c:/Users/Black_Life/STM32Cube/Repository/STM32Cube_FW_F4_V1.26.2/Middlewares/Third_Party/LwIP/src/core\tcp.c **** }
1536:c:/Users/Black_Life/STM32Cube/Repository/STM32Cube_FW_F4_V1.26.2/Middlewares/Third_Party/LwIP/src/core\tcp.c **** 
1537:c:/Users/Black_Life/STM32Cube/Repository/STM32Cube_FW_F4_V1.26.2/Middlewares/Third_Party/LwIP/src/core\tcp.c **** /** Pass pcb->refused_data to the recv callback */
1538:c:/Users/Black_Life/STM32Cube/Repository/STM32Cube_FW_F4_V1.26.2/Middlewares/Third_Party/LwIP/src/core\tcp.c **** err_t
1539:c:/Users/Black_Life/STM32Cube/Repository/STM32Cube_FW_F4_V1.26.2/Middlewares/Third_Party/LwIP/src/core\tcp.c **** tcp_process_refused_data(struct tcp_pcb *pcb)
1540:c:/Users/Black_Life/STM32Cube/Repository/STM32Cube_FW_F4_V1.26.2/Middlewares/Third_Party/LwIP/src/core\tcp.c **** {
1541:c:/Users/Black_Life/STM32Cube/Repository/STM32Cube_FW_F4_V1.26.2/Middlewares/Third_Party/LwIP/src/core\tcp.c **** #if TCP_QUEUE_OOSEQ && LWIP_WND_SCALE
1542:c:/Users/Black_Life/STM32Cube/Repository/STM32Cube_FW_F4_V1.26.2/Middlewares/Third_Party/LwIP/src/core\tcp.c ****   struct pbuf *rest;
1543:c:/Users/Black_Life/STM32Cube/Repository/STM32Cube_FW_F4_V1.26.2/Middlewares/Third_Party/LwIP/src/core\tcp.c **** #endif /* TCP_QUEUE_OOSEQ && LWIP_WND_SCALE */
1544:c:/Users/Black_Life/STM32Cube/Repository/STM32Cube_FW_F4_V1.26.2/Middlewares/Third_Party/LwIP/src/core\tcp.c **** 
1545:c:/Users/Black_Life/STM32Cube/Repository/STM32Cube_FW_F4_V1.26.2/Middlewares/Third_Party/LwIP/src/core\tcp.c ****   LWIP_ERROR("tcp_process_refused_data: invalid pcb", pcb != NULL, return ERR_ARG);
1546:c:/Users/Black_Life/STM32Cube/Repository/STM32Cube_FW_F4_V1.26.2/Middlewares/Third_Party/LwIP/src/core\tcp.c **** 
1547:c:/Users/Black_Life/STM32Cube/Repository/STM32Cube_FW_F4_V1.26.2/Middlewares/Third_Party/LwIP/src/core\tcp.c **** #if TCP_QUEUE_OOSEQ && LWIP_WND_SCALE
1548:c:/Users/Black_Life/STM32Cube/Repository/STM32Cube_FW_F4_V1.26.2/Middlewares/Third_Party/LwIP/src/core\tcp.c ****   while (pcb->refused_data != NULL)
1549:c:/Users/Black_Life/STM32Cube/Repository/STM32Cube_FW_F4_V1.26.2/Middlewares/Third_Party/LwIP/src/core\tcp.c **** #endif /* TCP_QUEUE_OOSEQ && LWIP_WND_SCALE */
1550:c:/Users/Black_Life/STM32Cube/Repository/STM32Cube_FW_F4_V1.26.2/Middlewares/Third_Party/LwIP/src/core\tcp.c ****   {
1551:c:/Users/Black_Life/STM32Cube/Repository/STM32Cube_FW_F4_V1.26.2/Middlewares/Third_Party/LwIP/src/core\tcp.c ****     err_t err;
1552:c:/Users/Black_Life/STM32Cube/Repository/STM32Cube_FW_F4_V1.26.2/Middlewares/Third_Party/LwIP/src/core\tcp.c ****     u8_t refused_flags = pcb->refused_data->flags;
1553:c:/Users/Black_Life/STM32Cube/Repository/STM32Cube_FW_F4_V1.26.2/Middlewares/Third_Party/LwIP/src/core\tcp.c ****     /* set pcb->refused_data to NULL in case the callback frees it and then
1554:c:/Users/Black_Life/STM32Cube/Repository/STM32Cube_FW_F4_V1.26.2/Middlewares/Third_Party/LwIP/src/core\tcp.c ****        closes the pcb */
1555:c:/Users/Black_Life/STM32Cube/Repository/STM32Cube_FW_F4_V1.26.2/Middlewares/Third_Party/LwIP/src/core\tcp.c ****     struct pbuf *refused_data = pcb->refused_data;
1556:c:/Users/Black_Life/STM32Cube/Repository/STM32Cube_FW_F4_V1.26.2/Middlewares/Third_Party/LwIP/src/core\tcp.c **** #if TCP_QUEUE_OOSEQ && LWIP_WND_SCALE
1557:c:/Users/Black_Life/STM32Cube/Repository/STM32Cube_FW_F4_V1.26.2/Middlewares/Third_Party/LwIP/src/core\tcp.c ****     pbuf_split_64k(refused_data, &rest);
1558:c:/Users/Black_Life/STM32Cube/Repository/STM32Cube_FW_F4_V1.26.2/Middlewares/Third_Party/LwIP/src/core\tcp.c ****     pcb->refused_data = rest;
1559:c:/Users/Black_Life/STM32Cube/Repository/STM32Cube_FW_F4_V1.26.2/Middlewares/Third_Party/LwIP/src/core\tcp.c **** #else /* TCP_QUEUE_OOSEQ && LWIP_WND_SCALE */
1560:c:/Users/Black_Life/STM32Cube/Repository/STM32Cube_FW_F4_V1.26.2/Middlewares/Third_Party/LwIP/src/core\tcp.c ****     pcb->refused_data = NULL;
1561:c:/Users/Black_Life/STM32Cube/Repository/STM32Cube_FW_F4_V1.26.2/Middlewares/Third_Party/LwIP/src/core\tcp.c **** #endif /* TCP_QUEUE_OOSEQ && LWIP_WND_SCALE */
1562:c:/Users/Black_Life/STM32Cube/Repository/STM32Cube_FW_F4_V1.26.2/Middlewares/Third_Party/LwIP/src/core\tcp.c ****     /* Notify again application with data previously received. */
1563:c:/Users/Black_Life/STM32Cube/Repository/STM32Cube_FW_F4_V1.26.2/Middlewares/Third_Party/LwIP/src/core\tcp.c ****     LWIP_DEBUGF(TCP_INPUT_DEBUG, ("tcp_input: notify kept packet\n"));
1564:c:/Users/Black_Life/STM32Cube/Repository/STM32Cube_FW_F4_V1.26.2/Middlewares/Third_Party/LwIP/src/core\tcp.c ****     TCP_EVENT_RECV(pcb, refused_data, ERR_OK, err);
1565:c:/Users/Black_Life/STM32Cube/Repository/STM32Cube_FW_F4_V1.26.2/Middlewares/Third_Party/LwIP/src/core\tcp.c ****     if (err == ERR_OK) {
1566:c:/Users/Black_Life/STM32Cube/Repository/STM32Cube_FW_F4_V1.26.2/Middlewares/Third_Party/LwIP/src/core\tcp.c ****       /* did refused_data include a FIN? */
1567:c:/Users/Black_Life/STM32Cube/Repository/STM32Cube_FW_F4_V1.26.2/Middlewares/Third_Party/LwIP/src/core\tcp.c ****       if ((refused_flags & PBUF_FLAG_TCP_FIN)
1568:c:/Users/Black_Life/STM32Cube/Repository/STM32Cube_FW_F4_V1.26.2/Middlewares/Third_Party/LwIP/src/core\tcp.c **** #if TCP_QUEUE_OOSEQ && LWIP_WND_SCALE
1569:c:/Users/Black_Life/STM32Cube/Repository/STM32Cube_FW_F4_V1.26.2/Middlewares/Third_Party/LwIP/src/core\tcp.c ****           && (rest == NULL)
1570:c:/Users/Black_Life/STM32Cube/Repository/STM32Cube_FW_F4_V1.26.2/Middlewares/Third_Party/LwIP/src/core\tcp.c **** #endif /* TCP_QUEUE_OOSEQ && LWIP_WND_SCALE */
1571:c:/Users/Black_Life/STM32Cube/Repository/STM32Cube_FW_F4_V1.26.2/Middlewares/Third_Party/LwIP/src/core\tcp.c ****          ) {
1572:c:/Users/Black_Life/STM32Cube/Repository/STM32Cube_FW_F4_V1.26.2/Middlewares/Third_Party/LwIP/src/core\tcp.c ****         /* correct rcv_wnd as the application won't call tcp_recved()
1573:c:/Users/Black_Life/STM32Cube/Repository/STM32Cube_FW_F4_V1.26.2/Middlewares/Third_Party/LwIP/src/core\tcp.c ****            for the FIN's seqno */
1574:c:/Users/Black_Life/STM32Cube/Repository/STM32Cube_FW_F4_V1.26.2/Middlewares/Third_Party/LwIP/src/core\tcp.c ****         if (pcb->rcv_wnd != TCP_WND_MAX(pcb)) {
1575:c:/Users/Black_Life/STM32Cube/Repository/STM32Cube_FW_F4_V1.26.2/Middlewares/Third_Party/LwIP/src/core\tcp.c ****           pcb->rcv_wnd++;
1576:c:/Users/Black_Life/STM32Cube/Repository/STM32Cube_FW_F4_V1.26.2/Middlewares/Third_Party/LwIP/src/core\tcp.c ****         }
1577:c:/Users/Black_Life/STM32Cube/Repository/STM32Cube_FW_F4_V1.26.2/Middlewares/Third_Party/LwIP/src/core\tcp.c ****         TCP_EVENT_CLOSED(pcb, err);
1578:c:/Users/Black_Life/STM32Cube/Repository/STM32Cube_FW_F4_V1.26.2/Middlewares/Third_Party/LwIP/src/core\tcp.c ****         if (err == ERR_ABRT) {
1579:c:/Users/Black_Life/STM32Cube/Repository/STM32Cube_FW_F4_V1.26.2/Middlewares/Third_Party/LwIP/src/core\tcp.c ****           return ERR_ABRT;
1580:c:/Users/Black_Life/STM32Cube/Repository/STM32Cube_FW_F4_V1.26.2/Middlewares/Third_Party/LwIP/src/core\tcp.c ****         }
1581:c:/Users/Black_Life/STM32Cube/Repository/STM32Cube_FW_F4_V1.26.2/Middlewares/Third_Party/LwIP/src/core\tcp.c ****       }
1582:c:/Users/Black_Life/STM32Cube/Repository/STM32Cube_FW_F4_V1.26.2/Middlewares/Third_Party/LwIP/src/core\tcp.c ****     } else if (err == ERR_ABRT) {
ARM GAS  C:\Users\BLACK_~1\AppData\Local\Temp\ccRovO0r.s 			page 41


1583:c:/Users/Black_Life/STM32Cube/Repository/STM32Cube_FW_F4_V1.26.2/Middlewares/Third_Party/LwIP/src/core\tcp.c ****       /* if err == ERR_ABRT, 'pcb' is already deallocated */
1584:c:/Users/Black_Life/STM32Cube/Repository/STM32Cube_FW_F4_V1.26.2/Middlewares/Third_Party/LwIP/src/core\tcp.c ****       /* Drop incoming packets because pcb is "full" (only if the incoming
1585:c:/Users/Black_Life/STM32Cube/Repository/STM32Cube_FW_F4_V1.26.2/Middlewares/Third_Party/LwIP/src/core\tcp.c ****          segment contains data). */
1586:c:/Users/Black_Life/STM32Cube/Repository/STM32Cube_FW_F4_V1.26.2/Middlewares/Third_Party/LwIP/src/core\tcp.c ****       LWIP_DEBUGF(TCP_INPUT_DEBUG, ("tcp_input: drop incoming packets, because pcb is \"full\"\n"))
1587:c:/Users/Black_Life/STM32Cube/Repository/STM32Cube_FW_F4_V1.26.2/Middlewares/Third_Party/LwIP/src/core\tcp.c ****       return ERR_ABRT;
1588:c:/Users/Black_Life/STM32Cube/Repository/STM32Cube_FW_F4_V1.26.2/Middlewares/Third_Party/LwIP/src/core\tcp.c ****     } else {
1589:c:/Users/Black_Life/STM32Cube/Repository/STM32Cube_FW_F4_V1.26.2/Middlewares/Third_Party/LwIP/src/core\tcp.c ****       /* data is still refused, pbuf is still valid (go on for ACK-only packets) */
1590:c:/Users/Black_Life/STM32Cube/Repository/STM32Cube_FW_F4_V1.26.2/Middlewares/Third_Party/LwIP/src/core\tcp.c **** #if TCP_QUEUE_OOSEQ && LWIP_WND_SCALE
1591:c:/Users/Black_Life/STM32Cube/Repository/STM32Cube_FW_F4_V1.26.2/Middlewares/Third_Party/LwIP/src/core\tcp.c ****       if (rest != NULL) {
1592:c:/Users/Black_Life/STM32Cube/Repository/STM32Cube_FW_F4_V1.26.2/Middlewares/Third_Party/LwIP/src/core\tcp.c ****         pbuf_cat(refused_data, rest);
1593:c:/Users/Black_Life/STM32Cube/Repository/STM32Cube_FW_F4_V1.26.2/Middlewares/Third_Party/LwIP/src/core\tcp.c ****       }
1594:c:/Users/Black_Life/STM32Cube/Repository/STM32Cube_FW_F4_V1.26.2/Middlewares/Third_Party/LwIP/src/core\tcp.c **** #endif /* TCP_QUEUE_OOSEQ && LWIP_WND_SCALE */
1595:c:/Users/Black_Life/STM32Cube/Repository/STM32Cube_FW_F4_V1.26.2/Middlewares/Third_Party/LwIP/src/core\tcp.c ****       pcb->refused_data = refused_data;
1596:c:/Users/Black_Life/STM32Cube/Repository/STM32Cube_FW_F4_V1.26.2/Middlewares/Third_Party/LwIP/src/core\tcp.c ****       return ERR_INPROGRESS;
1597:c:/Users/Black_Life/STM32Cube/Repository/STM32Cube_FW_F4_V1.26.2/Middlewares/Third_Party/LwIP/src/core\tcp.c ****     }
1598:c:/Users/Black_Life/STM32Cube/Repository/STM32Cube_FW_F4_V1.26.2/Middlewares/Third_Party/LwIP/src/core\tcp.c ****   }
1599:c:/Users/Black_Life/STM32Cube/Repository/STM32Cube_FW_F4_V1.26.2/Middlewares/Third_Party/LwIP/src/core\tcp.c ****   return ERR_OK;
1600:c:/Users/Black_Life/STM32Cube/Repository/STM32Cube_FW_F4_V1.26.2/Middlewares/Third_Party/LwIP/src/core\tcp.c **** }
1601:c:/Users/Black_Life/STM32Cube/Repository/STM32Cube_FW_F4_V1.26.2/Middlewares/Third_Party/LwIP/src/core\tcp.c **** 
1602:c:/Users/Black_Life/STM32Cube/Repository/STM32Cube_FW_F4_V1.26.2/Middlewares/Third_Party/LwIP/src/core\tcp.c **** /**
1603:c:/Users/Black_Life/STM32Cube/Repository/STM32Cube_FW_F4_V1.26.2/Middlewares/Third_Party/LwIP/src/core\tcp.c ****  * Deallocates a list of TCP segments (tcp_seg structures).
1604:c:/Users/Black_Life/STM32Cube/Repository/STM32Cube_FW_F4_V1.26.2/Middlewares/Third_Party/LwIP/src/core\tcp.c ****  *
1605:c:/Users/Black_Life/STM32Cube/Repository/STM32Cube_FW_F4_V1.26.2/Middlewares/Third_Party/LwIP/src/core\tcp.c ****  * @param seg tcp_seg list of TCP segments to free
1606:c:/Users/Black_Life/STM32Cube/Repository/STM32Cube_FW_F4_V1.26.2/Middlewares/Third_Party/LwIP/src/core\tcp.c ****  */
1607:c:/Users/Black_Life/STM32Cube/Repository/STM32Cube_FW_F4_V1.26.2/Middlewares/Third_Party/LwIP/src/core\tcp.c **** void
1608:c:/Users/Black_Life/STM32Cube/Repository/STM32Cube_FW_F4_V1.26.2/Middlewares/Third_Party/LwIP/src/core\tcp.c **** tcp_segs_free(struct tcp_seg *seg)
1609:c:/Users/Black_Life/STM32Cube/Repository/STM32Cube_FW_F4_V1.26.2/Middlewares/Third_Party/LwIP/src/core\tcp.c **** {
1610:c:/Users/Black_Life/STM32Cube/Repository/STM32Cube_FW_F4_V1.26.2/Middlewares/Third_Party/LwIP/src/core\tcp.c ****   while (seg != NULL) {
1611:c:/Users/Black_Life/STM32Cube/Repository/STM32Cube_FW_F4_V1.26.2/Middlewares/Third_Party/LwIP/src/core\tcp.c ****     struct tcp_seg *next = seg->next;
1612:c:/Users/Black_Life/STM32Cube/Repository/STM32Cube_FW_F4_V1.26.2/Middlewares/Third_Party/LwIP/src/core\tcp.c ****     tcp_seg_free(seg);
1613:c:/Users/Black_Life/STM32Cube/Repository/STM32Cube_FW_F4_V1.26.2/Middlewares/Third_Party/LwIP/src/core\tcp.c ****     seg = next;
1614:c:/Users/Black_Life/STM32Cube/Repository/STM32Cube_FW_F4_V1.26.2/Middlewares/Third_Party/LwIP/src/core\tcp.c ****   }
1615:c:/Users/Black_Life/STM32Cube/Repository/STM32Cube_FW_F4_V1.26.2/Middlewares/Third_Party/LwIP/src/core\tcp.c **** }
1616:c:/Users/Black_Life/STM32Cube/Repository/STM32Cube_FW_F4_V1.26.2/Middlewares/Third_Party/LwIP/src/core\tcp.c **** 
1617:c:/Users/Black_Life/STM32Cube/Repository/STM32Cube_FW_F4_V1.26.2/Middlewares/Third_Party/LwIP/src/core\tcp.c **** /**
1618:c:/Users/Black_Life/STM32Cube/Repository/STM32Cube_FW_F4_V1.26.2/Middlewares/Third_Party/LwIP/src/core\tcp.c ****  * Frees a TCP segment (tcp_seg structure).
1619:c:/Users/Black_Life/STM32Cube/Repository/STM32Cube_FW_F4_V1.26.2/Middlewares/Third_Party/LwIP/src/core\tcp.c ****  *
1620:c:/Users/Black_Life/STM32Cube/Repository/STM32Cube_FW_F4_V1.26.2/Middlewares/Third_Party/LwIP/src/core\tcp.c ****  * @param seg single tcp_seg to free
1621:c:/Users/Black_Life/STM32Cube/Repository/STM32Cube_FW_F4_V1.26.2/Middlewares/Third_Party/LwIP/src/core\tcp.c ****  */
1622:c:/Users/Black_Life/STM32Cube/Repository/STM32Cube_FW_F4_V1.26.2/Middlewares/Third_Party/LwIP/src/core\tcp.c **** void
1623:c:/Users/Black_Life/STM32Cube/Repository/STM32Cube_FW_F4_V1.26.2/Middlewares/Third_Party/LwIP/src/core\tcp.c **** tcp_seg_free(struct tcp_seg *seg)
1624:c:/Users/Black_Life/STM32Cube/Repository/STM32Cube_FW_F4_V1.26.2/Middlewares/Third_Party/LwIP/src/core\tcp.c **** {
1625:c:/Users/Black_Life/STM32Cube/Repository/STM32Cube_FW_F4_V1.26.2/Middlewares/Third_Party/LwIP/src/core\tcp.c ****   if (seg != NULL) {
1626:c:/Users/Black_Life/STM32Cube/Repository/STM32Cube_FW_F4_V1.26.2/Middlewares/Third_Party/LwIP/src/core\tcp.c ****     if (seg->p != NULL) {
1627:c:/Users/Black_Life/STM32Cube/Repository/STM32Cube_FW_F4_V1.26.2/Middlewares/Third_Party/LwIP/src/core\tcp.c ****       pbuf_free(seg->p);
1628:c:/Users/Black_Life/STM32Cube/Repository/STM32Cube_FW_F4_V1.26.2/Middlewares/Third_Party/LwIP/src/core\tcp.c **** #if TCP_DEBUG
1629:c:/Users/Black_Life/STM32Cube/Repository/STM32Cube_FW_F4_V1.26.2/Middlewares/Third_Party/LwIP/src/core\tcp.c ****       seg->p = NULL;
1630:c:/Users/Black_Life/STM32Cube/Repository/STM32Cube_FW_F4_V1.26.2/Middlewares/Third_Party/LwIP/src/core\tcp.c **** #endif /* TCP_DEBUG */
1631:c:/Users/Black_Life/STM32Cube/Repository/STM32Cube_FW_F4_V1.26.2/Middlewares/Third_Party/LwIP/src/core\tcp.c ****     }
1632:c:/Users/Black_Life/STM32Cube/Repository/STM32Cube_FW_F4_V1.26.2/Middlewares/Third_Party/LwIP/src/core\tcp.c ****     memp_free(MEMP_TCP_SEG, seg);
1633:c:/Users/Black_Life/STM32Cube/Repository/STM32Cube_FW_F4_V1.26.2/Middlewares/Third_Party/LwIP/src/core\tcp.c ****   }
1634:c:/Users/Black_Life/STM32Cube/Repository/STM32Cube_FW_F4_V1.26.2/Middlewares/Third_Party/LwIP/src/core\tcp.c **** }
1635:c:/Users/Black_Life/STM32Cube/Repository/STM32Cube_FW_F4_V1.26.2/Middlewares/Third_Party/LwIP/src/core\tcp.c **** 
1636:c:/Users/Black_Life/STM32Cube/Repository/STM32Cube_FW_F4_V1.26.2/Middlewares/Third_Party/LwIP/src/core\tcp.c **** /**
1637:c:/Users/Black_Life/STM32Cube/Repository/STM32Cube_FW_F4_V1.26.2/Middlewares/Third_Party/LwIP/src/core\tcp.c ****  * @ingroup tcp
1638:c:/Users/Black_Life/STM32Cube/Repository/STM32Cube_FW_F4_V1.26.2/Middlewares/Third_Party/LwIP/src/core\tcp.c ****  * Sets the priority of a connection.
1639:c:/Users/Black_Life/STM32Cube/Repository/STM32Cube_FW_F4_V1.26.2/Middlewares/Third_Party/LwIP/src/core\tcp.c ****  *
ARM GAS  C:\Users\BLACK_~1\AppData\Local\Temp\ccRovO0r.s 			page 42


1640:c:/Users/Black_Life/STM32Cube/Repository/STM32Cube_FW_F4_V1.26.2/Middlewares/Third_Party/LwIP/src/core\tcp.c ****  * @param pcb the tcp_pcb to manipulate
1641:c:/Users/Black_Life/STM32Cube/Repository/STM32Cube_FW_F4_V1.26.2/Middlewares/Third_Party/LwIP/src/core\tcp.c ****  * @param prio new priority
1642:c:/Users/Black_Life/STM32Cube/Repository/STM32Cube_FW_F4_V1.26.2/Middlewares/Third_Party/LwIP/src/core\tcp.c ****  */
1643:c:/Users/Black_Life/STM32Cube/Repository/STM32Cube_FW_F4_V1.26.2/Middlewares/Third_Party/LwIP/src/core\tcp.c **** void
1644:c:/Users/Black_Life/STM32Cube/Repository/STM32Cube_FW_F4_V1.26.2/Middlewares/Third_Party/LwIP/src/core\tcp.c **** tcp_setprio(struct tcp_pcb *pcb, u8_t prio)
1645:c:/Users/Black_Life/STM32Cube/Repository/STM32Cube_FW_F4_V1.26.2/Middlewares/Third_Party/LwIP/src/core\tcp.c **** {
1646:c:/Users/Black_Life/STM32Cube/Repository/STM32Cube_FW_F4_V1.26.2/Middlewares/Third_Party/LwIP/src/core\tcp.c ****   LWIP_ASSERT_CORE_LOCKED();
1647:c:/Users/Black_Life/STM32Cube/Repository/STM32Cube_FW_F4_V1.26.2/Middlewares/Third_Party/LwIP/src/core\tcp.c **** 
1648:c:/Users/Black_Life/STM32Cube/Repository/STM32Cube_FW_F4_V1.26.2/Middlewares/Third_Party/LwIP/src/core\tcp.c ****   LWIP_ERROR("tcp_setprio: invalid pcb", pcb != NULL, return);
1649:c:/Users/Black_Life/STM32Cube/Repository/STM32Cube_FW_F4_V1.26.2/Middlewares/Third_Party/LwIP/src/core\tcp.c **** 
1650:c:/Users/Black_Life/STM32Cube/Repository/STM32Cube_FW_F4_V1.26.2/Middlewares/Third_Party/LwIP/src/core\tcp.c ****   pcb->prio = prio;
1651:c:/Users/Black_Life/STM32Cube/Repository/STM32Cube_FW_F4_V1.26.2/Middlewares/Third_Party/LwIP/src/core\tcp.c **** }
1652:c:/Users/Black_Life/STM32Cube/Repository/STM32Cube_FW_F4_V1.26.2/Middlewares/Third_Party/LwIP/src/core\tcp.c **** 
1653:c:/Users/Black_Life/STM32Cube/Repository/STM32Cube_FW_F4_V1.26.2/Middlewares/Third_Party/LwIP/src/core\tcp.c **** #if TCP_QUEUE_OOSEQ
1654:c:/Users/Black_Life/STM32Cube/Repository/STM32Cube_FW_F4_V1.26.2/Middlewares/Third_Party/LwIP/src/core\tcp.c **** /**
1655:c:/Users/Black_Life/STM32Cube/Repository/STM32Cube_FW_F4_V1.26.2/Middlewares/Third_Party/LwIP/src/core\tcp.c ****  * Returns a copy of the given TCP segment.
1656:c:/Users/Black_Life/STM32Cube/Repository/STM32Cube_FW_F4_V1.26.2/Middlewares/Third_Party/LwIP/src/core\tcp.c ****  * The pbuf and data are not copied, only the pointers
1657:c:/Users/Black_Life/STM32Cube/Repository/STM32Cube_FW_F4_V1.26.2/Middlewares/Third_Party/LwIP/src/core\tcp.c ****  *
1658:c:/Users/Black_Life/STM32Cube/Repository/STM32Cube_FW_F4_V1.26.2/Middlewares/Third_Party/LwIP/src/core\tcp.c ****  * @param seg the old tcp_seg
1659:c:/Users/Black_Life/STM32Cube/Repository/STM32Cube_FW_F4_V1.26.2/Middlewares/Third_Party/LwIP/src/core\tcp.c ****  * @return a copy of seg
1660:c:/Users/Black_Life/STM32Cube/Repository/STM32Cube_FW_F4_V1.26.2/Middlewares/Third_Party/LwIP/src/core\tcp.c ****  */
1661:c:/Users/Black_Life/STM32Cube/Repository/STM32Cube_FW_F4_V1.26.2/Middlewares/Third_Party/LwIP/src/core\tcp.c **** struct tcp_seg *
1662:c:/Users/Black_Life/STM32Cube/Repository/STM32Cube_FW_F4_V1.26.2/Middlewares/Third_Party/LwIP/src/core\tcp.c **** tcp_seg_copy(struct tcp_seg *seg)
1663:c:/Users/Black_Life/STM32Cube/Repository/STM32Cube_FW_F4_V1.26.2/Middlewares/Third_Party/LwIP/src/core\tcp.c **** {
1664:c:/Users/Black_Life/STM32Cube/Repository/STM32Cube_FW_F4_V1.26.2/Middlewares/Third_Party/LwIP/src/core\tcp.c ****   struct tcp_seg *cseg;
1665:c:/Users/Black_Life/STM32Cube/Repository/STM32Cube_FW_F4_V1.26.2/Middlewares/Third_Party/LwIP/src/core\tcp.c **** 
1666:c:/Users/Black_Life/STM32Cube/Repository/STM32Cube_FW_F4_V1.26.2/Middlewares/Third_Party/LwIP/src/core\tcp.c ****   LWIP_ASSERT("tcp_seg_copy: invalid seg", seg != NULL);
1667:c:/Users/Black_Life/STM32Cube/Repository/STM32Cube_FW_F4_V1.26.2/Middlewares/Third_Party/LwIP/src/core\tcp.c **** 
1668:c:/Users/Black_Life/STM32Cube/Repository/STM32Cube_FW_F4_V1.26.2/Middlewares/Third_Party/LwIP/src/core\tcp.c ****   cseg = (struct tcp_seg *)memp_malloc(MEMP_TCP_SEG);
1669:c:/Users/Black_Life/STM32Cube/Repository/STM32Cube_FW_F4_V1.26.2/Middlewares/Third_Party/LwIP/src/core\tcp.c ****   if (cseg == NULL) {
1670:c:/Users/Black_Life/STM32Cube/Repository/STM32Cube_FW_F4_V1.26.2/Middlewares/Third_Party/LwIP/src/core\tcp.c ****     return NULL;
1671:c:/Users/Black_Life/STM32Cube/Repository/STM32Cube_FW_F4_V1.26.2/Middlewares/Third_Party/LwIP/src/core\tcp.c ****   }
1672:c:/Users/Black_Life/STM32Cube/Repository/STM32Cube_FW_F4_V1.26.2/Middlewares/Third_Party/LwIP/src/core\tcp.c ****   SMEMCPY((u8_t *)cseg, (const u8_t *)seg, sizeof(struct tcp_seg));
1673:c:/Users/Black_Life/STM32Cube/Repository/STM32Cube_FW_F4_V1.26.2/Middlewares/Third_Party/LwIP/src/core\tcp.c ****   pbuf_ref(cseg->p);
1674:c:/Users/Black_Life/STM32Cube/Repository/STM32Cube_FW_F4_V1.26.2/Middlewares/Third_Party/LwIP/src/core\tcp.c ****   return cseg;
1675:c:/Users/Black_Life/STM32Cube/Repository/STM32Cube_FW_F4_V1.26.2/Middlewares/Third_Party/LwIP/src/core\tcp.c **** }
1676:c:/Users/Black_Life/STM32Cube/Repository/STM32Cube_FW_F4_V1.26.2/Middlewares/Third_Party/LwIP/src/core\tcp.c **** #endif /* TCP_QUEUE_OOSEQ */
1677:c:/Users/Black_Life/STM32Cube/Repository/STM32Cube_FW_F4_V1.26.2/Middlewares/Third_Party/LwIP/src/core\tcp.c **** 
1678:c:/Users/Black_Life/STM32Cube/Repository/STM32Cube_FW_F4_V1.26.2/Middlewares/Third_Party/LwIP/src/core\tcp.c **** #if LWIP_CALLBACK_API
1679:c:/Users/Black_Life/STM32Cube/Repository/STM32Cube_FW_F4_V1.26.2/Middlewares/Third_Party/LwIP/src/core\tcp.c **** /**
1680:c:/Users/Black_Life/STM32Cube/Repository/STM32Cube_FW_F4_V1.26.2/Middlewares/Third_Party/LwIP/src/core\tcp.c ****  * Default receive callback that is called if the user didn't register
1681:c:/Users/Black_Life/STM32Cube/Repository/STM32Cube_FW_F4_V1.26.2/Middlewares/Third_Party/LwIP/src/core\tcp.c ****  * a recv callback for the pcb.
1682:c:/Users/Black_Life/STM32Cube/Repository/STM32Cube_FW_F4_V1.26.2/Middlewares/Third_Party/LwIP/src/core\tcp.c ****  */
1683:c:/Users/Black_Life/STM32Cube/Repository/STM32Cube_FW_F4_V1.26.2/Middlewares/Third_Party/LwIP/src/core\tcp.c **** err_t
1684:c:/Users/Black_Life/STM32Cube/Repository/STM32Cube_FW_F4_V1.26.2/Middlewares/Third_Party/LwIP/src/core\tcp.c **** tcp_recv_null(void *arg, struct tcp_pcb *pcb, struct pbuf *p, err_t err)
1685:c:/Users/Black_Life/STM32Cube/Repository/STM32Cube_FW_F4_V1.26.2/Middlewares/Third_Party/LwIP/src/core\tcp.c **** {
1686:c:/Users/Black_Life/STM32Cube/Repository/STM32Cube_FW_F4_V1.26.2/Middlewares/Third_Party/LwIP/src/core\tcp.c ****   LWIP_UNUSED_ARG(arg);
1687:c:/Users/Black_Life/STM32Cube/Repository/STM32Cube_FW_F4_V1.26.2/Middlewares/Third_Party/LwIP/src/core\tcp.c **** 
1688:c:/Users/Black_Life/STM32Cube/Repository/STM32Cube_FW_F4_V1.26.2/Middlewares/Third_Party/LwIP/src/core\tcp.c ****   LWIP_ERROR("tcp_recv_null: invalid pcb", pcb != NULL, return ERR_ARG);
1689:c:/Users/Black_Life/STM32Cube/Repository/STM32Cube_FW_F4_V1.26.2/Middlewares/Third_Party/LwIP/src/core\tcp.c **** 
1690:c:/Users/Black_Life/STM32Cube/Repository/STM32Cube_FW_F4_V1.26.2/Middlewares/Third_Party/LwIP/src/core\tcp.c ****   if (p != NULL) {
1691:c:/Users/Black_Life/STM32Cube/Repository/STM32Cube_FW_F4_V1.26.2/Middlewares/Third_Party/LwIP/src/core\tcp.c ****     tcp_recved(pcb, p->tot_len);
1692:c:/Users/Black_Life/STM32Cube/Repository/STM32Cube_FW_F4_V1.26.2/Middlewares/Third_Party/LwIP/src/core\tcp.c ****     pbuf_free(p);
1693:c:/Users/Black_Life/STM32Cube/Repository/STM32Cube_FW_F4_V1.26.2/Middlewares/Third_Party/LwIP/src/core\tcp.c ****   } else if (err == ERR_OK) {
1694:c:/Users/Black_Life/STM32Cube/Repository/STM32Cube_FW_F4_V1.26.2/Middlewares/Third_Party/LwIP/src/core\tcp.c ****     return tcp_close(pcb);
1695:c:/Users/Black_Life/STM32Cube/Repository/STM32Cube_FW_F4_V1.26.2/Middlewares/Third_Party/LwIP/src/core\tcp.c ****   }
1696:c:/Users/Black_Life/STM32Cube/Repository/STM32Cube_FW_F4_V1.26.2/Middlewares/Third_Party/LwIP/src/core\tcp.c ****   return ERR_OK;
ARM GAS  C:\Users\BLACK_~1\AppData\Local\Temp\ccRovO0r.s 			page 43


1697:c:/Users/Black_Life/STM32Cube/Repository/STM32Cube_FW_F4_V1.26.2/Middlewares/Third_Party/LwIP/src/core\tcp.c **** }
1698:c:/Users/Black_Life/STM32Cube/Repository/STM32Cube_FW_F4_V1.26.2/Middlewares/Third_Party/LwIP/src/core\tcp.c **** #endif /* LWIP_CALLBACK_API */
1699:c:/Users/Black_Life/STM32Cube/Repository/STM32Cube_FW_F4_V1.26.2/Middlewares/Third_Party/LwIP/src/core\tcp.c **** 
1700:c:/Users/Black_Life/STM32Cube/Repository/STM32Cube_FW_F4_V1.26.2/Middlewares/Third_Party/LwIP/src/core\tcp.c **** /**
1701:c:/Users/Black_Life/STM32Cube/Repository/STM32Cube_FW_F4_V1.26.2/Middlewares/Third_Party/LwIP/src/core\tcp.c ****  * Kills the oldest active connection that has a lower priority than 'prio'.
1702:c:/Users/Black_Life/STM32Cube/Repository/STM32Cube_FW_F4_V1.26.2/Middlewares/Third_Party/LwIP/src/core\tcp.c ****  *
1703:c:/Users/Black_Life/STM32Cube/Repository/STM32Cube_FW_F4_V1.26.2/Middlewares/Third_Party/LwIP/src/core\tcp.c ****  * @param prio minimum priority
1704:c:/Users/Black_Life/STM32Cube/Repository/STM32Cube_FW_F4_V1.26.2/Middlewares/Third_Party/LwIP/src/core\tcp.c ****  */
1705:c:/Users/Black_Life/STM32Cube/Repository/STM32Cube_FW_F4_V1.26.2/Middlewares/Third_Party/LwIP/src/core\tcp.c **** static void
1706:c:/Users/Black_Life/STM32Cube/Repository/STM32Cube_FW_F4_V1.26.2/Middlewares/Third_Party/LwIP/src/core\tcp.c **** tcp_kill_prio(u8_t prio)
1707:c:/Users/Black_Life/STM32Cube/Repository/STM32Cube_FW_F4_V1.26.2/Middlewares/Third_Party/LwIP/src/core\tcp.c **** {
1708:c:/Users/Black_Life/STM32Cube/Repository/STM32Cube_FW_F4_V1.26.2/Middlewares/Third_Party/LwIP/src/core\tcp.c ****   struct tcp_pcb *pcb, *inactive;
1709:c:/Users/Black_Life/STM32Cube/Repository/STM32Cube_FW_F4_V1.26.2/Middlewares/Third_Party/LwIP/src/core\tcp.c ****   u32_t inactivity;
1710:c:/Users/Black_Life/STM32Cube/Repository/STM32Cube_FW_F4_V1.26.2/Middlewares/Third_Party/LwIP/src/core\tcp.c ****   u8_t mprio;
1711:c:/Users/Black_Life/STM32Cube/Repository/STM32Cube_FW_F4_V1.26.2/Middlewares/Third_Party/LwIP/src/core\tcp.c **** 
1712:c:/Users/Black_Life/STM32Cube/Repository/STM32Cube_FW_F4_V1.26.2/Middlewares/Third_Party/LwIP/src/core\tcp.c ****   mprio = LWIP_MIN(TCP_PRIO_MAX, prio);
1713:c:/Users/Black_Life/STM32Cube/Repository/STM32Cube_FW_F4_V1.26.2/Middlewares/Third_Party/LwIP/src/core\tcp.c **** 
1714:c:/Users/Black_Life/STM32Cube/Repository/STM32Cube_FW_F4_V1.26.2/Middlewares/Third_Party/LwIP/src/core\tcp.c ****   /* We want to kill connections with a lower prio, so bail out if 
1715:c:/Users/Black_Life/STM32Cube/Repository/STM32Cube_FW_F4_V1.26.2/Middlewares/Third_Party/LwIP/src/core\tcp.c ****    * supplied prio is 0 - there can never be a lower prio
1716:c:/Users/Black_Life/STM32Cube/Repository/STM32Cube_FW_F4_V1.26.2/Middlewares/Third_Party/LwIP/src/core\tcp.c ****    */
1717:c:/Users/Black_Life/STM32Cube/Repository/STM32Cube_FW_F4_V1.26.2/Middlewares/Third_Party/LwIP/src/core\tcp.c ****   if (mprio == 0) {
1718:c:/Users/Black_Life/STM32Cube/Repository/STM32Cube_FW_F4_V1.26.2/Middlewares/Third_Party/LwIP/src/core\tcp.c ****     return;
1719:c:/Users/Black_Life/STM32Cube/Repository/STM32Cube_FW_F4_V1.26.2/Middlewares/Third_Party/LwIP/src/core\tcp.c ****   }
1720:c:/Users/Black_Life/STM32Cube/Repository/STM32Cube_FW_F4_V1.26.2/Middlewares/Third_Party/LwIP/src/core\tcp.c **** 
1721:c:/Users/Black_Life/STM32Cube/Repository/STM32Cube_FW_F4_V1.26.2/Middlewares/Third_Party/LwIP/src/core\tcp.c ****   /* We only want kill connections with a lower prio, so decrement prio by one 
1722:c:/Users/Black_Life/STM32Cube/Repository/STM32Cube_FW_F4_V1.26.2/Middlewares/Third_Party/LwIP/src/core\tcp.c ****    * and start searching for oldest connection with same or lower priority than mprio.
1723:c:/Users/Black_Life/STM32Cube/Repository/STM32Cube_FW_F4_V1.26.2/Middlewares/Third_Party/LwIP/src/core\tcp.c ****    * We want to find the connections with the lowest possible prio, and among
1724:c:/Users/Black_Life/STM32Cube/Repository/STM32Cube_FW_F4_V1.26.2/Middlewares/Third_Party/LwIP/src/core\tcp.c ****    * these the one with the longest inactivity time.
1725:c:/Users/Black_Life/STM32Cube/Repository/STM32Cube_FW_F4_V1.26.2/Middlewares/Third_Party/LwIP/src/core\tcp.c ****    */
1726:c:/Users/Black_Life/STM32Cube/Repository/STM32Cube_FW_F4_V1.26.2/Middlewares/Third_Party/LwIP/src/core\tcp.c ****   mprio--;
1727:c:/Users/Black_Life/STM32Cube/Repository/STM32Cube_FW_F4_V1.26.2/Middlewares/Third_Party/LwIP/src/core\tcp.c **** 
1728:c:/Users/Black_Life/STM32Cube/Repository/STM32Cube_FW_F4_V1.26.2/Middlewares/Third_Party/LwIP/src/core\tcp.c ****   inactivity = 0;
1729:c:/Users/Black_Life/STM32Cube/Repository/STM32Cube_FW_F4_V1.26.2/Middlewares/Third_Party/LwIP/src/core\tcp.c ****   inactive = NULL;
1730:c:/Users/Black_Life/STM32Cube/Repository/STM32Cube_FW_F4_V1.26.2/Middlewares/Third_Party/LwIP/src/core\tcp.c ****   for (pcb = tcp_active_pcbs; pcb != NULL; pcb = pcb->next) {
1731:c:/Users/Black_Life/STM32Cube/Repository/STM32Cube_FW_F4_V1.26.2/Middlewares/Third_Party/LwIP/src/core\tcp.c ****         /* lower prio is always a kill candidate */
1732:c:/Users/Black_Life/STM32Cube/Repository/STM32Cube_FW_F4_V1.26.2/Middlewares/Third_Party/LwIP/src/core\tcp.c ****     if ((pcb->prio < mprio) ||
1733:c:/Users/Black_Life/STM32Cube/Repository/STM32Cube_FW_F4_V1.26.2/Middlewares/Third_Party/LwIP/src/core\tcp.c ****         /* longer inactivity is also a kill candidate */
1734:c:/Users/Black_Life/STM32Cube/Repository/STM32Cube_FW_F4_V1.26.2/Middlewares/Third_Party/LwIP/src/core\tcp.c ****         ((pcb->prio == mprio) && ((u32_t)(tcp_ticks - pcb->tmr) >= inactivity))) {
1735:c:/Users/Black_Life/STM32Cube/Repository/STM32Cube_FW_F4_V1.26.2/Middlewares/Third_Party/LwIP/src/core\tcp.c ****       inactivity = tcp_ticks - pcb->tmr;
1736:c:/Users/Black_Life/STM32Cube/Repository/STM32Cube_FW_F4_V1.26.2/Middlewares/Third_Party/LwIP/src/core\tcp.c ****       inactive   = pcb;
1737:c:/Users/Black_Life/STM32Cube/Repository/STM32Cube_FW_F4_V1.26.2/Middlewares/Third_Party/LwIP/src/core\tcp.c ****       mprio      = pcb->prio;
1738:c:/Users/Black_Life/STM32Cube/Repository/STM32Cube_FW_F4_V1.26.2/Middlewares/Third_Party/LwIP/src/core\tcp.c ****     }
1739:c:/Users/Black_Life/STM32Cube/Repository/STM32Cube_FW_F4_V1.26.2/Middlewares/Third_Party/LwIP/src/core\tcp.c ****   }
1740:c:/Users/Black_Life/STM32Cube/Repository/STM32Cube_FW_F4_V1.26.2/Middlewares/Third_Party/LwIP/src/core\tcp.c ****   if (inactive != NULL) {
1741:c:/Users/Black_Life/STM32Cube/Repository/STM32Cube_FW_F4_V1.26.2/Middlewares/Third_Party/LwIP/src/core\tcp.c ****     LWIP_DEBUGF(TCP_DEBUG, ("tcp_kill_prio: killing oldest PCB %p (%"S32_F")\n",
1742:c:/Users/Black_Life/STM32Cube/Repository/STM32Cube_FW_F4_V1.26.2/Middlewares/Third_Party/LwIP/src/core\tcp.c ****                             (void *)inactive, inactivity));
1743:c:/Users/Black_Life/STM32Cube/Repository/STM32Cube_FW_F4_V1.26.2/Middlewares/Third_Party/LwIP/src/core\tcp.c ****     tcp_abort(inactive);
1744:c:/Users/Black_Life/STM32Cube/Repository/STM32Cube_FW_F4_V1.26.2/Middlewares/Third_Party/LwIP/src/core\tcp.c ****   }
1745:c:/Users/Black_Life/STM32Cube/Repository/STM32Cube_FW_F4_V1.26.2/Middlewares/Third_Party/LwIP/src/core\tcp.c **** }
1746:c:/Users/Black_Life/STM32Cube/Repository/STM32Cube_FW_F4_V1.26.2/Middlewares/Third_Party/LwIP/src/core\tcp.c **** 
1747:c:/Users/Black_Life/STM32Cube/Repository/STM32Cube_FW_F4_V1.26.2/Middlewares/Third_Party/LwIP/src/core\tcp.c **** /**
1748:c:/Users/Black_Life/STM32Cube/Repository/STM32Cube_FW_F4_V1.26.2/Middlewares/Third_Party/LwIP/src/core\tcp.c ****  * Kills the oldest connection that is in specific state.
1749:c:/Users/Black_Life/STM32Cube/Repository/STM32Cube_FW_F4_V1.26.2/Middlewares/Third_Party/LwIP/src/core\tcp.c ****  * Called from tcp_alloc() for LAST_ACK and CLOSING if no more connections are available.
1750:c:/Users/Black_Life/STM32Cube/Repository/STM32Cube_FW_F4_V1.26.2/Middlewares/Third_Party/LwIP/src/core\tcp.c ****  */
1751:c:/Users/Black_Life/STM32Cube/Repository/STM32Cube_FW_F4_V1.26.2/Middlewares/Third_Party/LwIP/src/core\tcp.c **** static void
1752:c:/Users/Black_Life/STM32Cube/Repository/STM32Cube_FW_F4_V1.26.2/Middlewares/Third_Party/LwIP/src/core\tcp.c **** tcp_kill_state(enum tcp_state state)
1753:c:/Users/Black_Life/STM32Cube/Repository/STM32Cube_FW_F4_V1.26.2/Middlewares/Third_Party/LwIP/src/core\tcp.c **** {
ARM GAS  C:\Users\BLACK_~1\AppData\Local\Temp\ccRovO0r.s 			page 44


1754:c:/Users/Black_Life/STM32Cube/Repository/STM32Cube_FW_F4_V1.26.2/Middlewares/Third_Party/LwIP/src/core\tcp.c ****   struct tcp_pcb *pcb, *inactive;
1755:c:/Users/Black_Life/STM32Cube/Repository/STM32Cube_FW_F4_V1.26.2/Middlewares/Third_Party/LwIP/src/core\tcp.c ****   u32_t inactivity;
1756:c:/Users/Black_Life/STM32Cube/Repository/STM32Cube_FW_F4_V1.26.2/Middlewares/Third_Party/LwIP/src/core\tcp.c **** 
1757:c:/Users/Black_Life/STM32Cube/Repository/STM32Cube_FW_F4_V1.26.2/Middlewares/Third_Party/LwIP/src/core\tcp.c ****   LWIP_ASSERT("invalid state", (state == CLOSING) || (state == LAST_ACK));
1758:c:/Users/Black_Life/STM32Cube/Repository/STM32Cube_FW_F4_V1.26.2/Middlewares/Third_Party/LwIP/src/core\tcp.c **** 
1759:c:/Users/Black_Life/STM32Cube/Repository/STM32Cube_FW_F4_V1.26.2/Middlewares/Third_Party/LwIP/src/core\tcp.c ****   inactivity = 0;
1760:c:/Users/Black_Life/STM32Cube/Repository/STM32Cube_FW_F4_V1.26.2/Middlewares/Third_Party/LwIP/src/core\tcp.c ****   inactive = NULL;
1761:c:/Users/Black_Life/STM32Cube/Repository/STM32Cube_FW_F4_V1.26.2/Middlewares/Third_Party/LwIP/src/core\tcp.c ****   /* Go through the list of active pcbs and get the oldest pcb that is in state
1762:c:/Users/Black_Life/STM32Cube/Repository/STM32Cube_FW_F4_V1.26.2/Middlewares/Third_Party/LwIP/src/core\tcp.c ****      CLOSING/LAST_ACK. */
1763:c:/Users/Black_Life/STM32Cube/Repository/STM32Cube_FW_F4_V1.26.2/Middlewares/Third_Party/LwIP/src/core\tcp.c ****   for (pcb = tcp_active_pcbs; pcb != NULL; pcb = pcb->next) {
1764:c:/Users/Black_Life/STM32Cube/Repository/STM32Cube_FW_F4_V1.26.2/Middlewares/Third_Party/LwIP/src/core\tcp.c ****     if (pcb->state == state) {
1765:c:/Users/Black_Life/STM32Cube/Repository/STM32Cube_FW_F4_V1.26.2/Middlewares/Third_Party/LwIP/src/core\tcp.c ****       if ((u32_t)(tcp_ticks - pcb->tmr) >= inactivity) {
1766:c:/Users/Black_Life/STM32Cube/Repository/STM32Cube_FW_F4_V1.26.2/Middlewares/Third_Party/LwIP/src/core\tcp.c ****         inactivity = tcp_ticks - pcb->tmr;
1767:c:/Users/Black_Life/STM32Cube/Repository/STM32Cube_FW_F4_V1.26.2/Middlewares/Third_Party/LwIP/src/core\tcp.c ****         inactive = pcb;
1768:c:/Users/Black_Life/STM32Cube/Repository/STM32Cube_FW_F4_V1.26.2/Middlewares/Third_Party/LwIP/src/core\tcp.c ****       }
1769:c:/Users/Black_Life/STM32Cube/Repository/STM32Cube_FW_F4_V1.26.2/Middlewares/Third_Party/LwIP/src/core\tcp.c ****     }
1770:c:/Users/Black_Life/STM32Cube/Repository/STM32Cube_FW_F4_V1.26.2/Middlewares/Third_Party/LwIP/src/core\tcp.c ****   }
1771:c:/Users/Black_Life/STM32Cube/Repository/STM32Cube_FW_F4_V1.26.2/Middlewares/Third_Party/LwIP/src/core\tcp.c ****   if (inactive != NULL) {
1772:c:/Users/Black_Life/STM32Cube/Repository/STM32Cube_FW_F4_V1.26.2/Middlewares/Third_Party/LwIP/src/core\tcp.c ****     LWIP_DEBUGF(TCP_DEBUG, ("tcp_kill_closing: killing oldest %s PCB %p (%"S32_F")\n",
1773:c:/Users/Black_Life/STM32Cube/Repository/STM32Cube_FW_F4_V1.26.2/Middlewares/Third_Party/LwIP/src/core\tcp.c ****                             tcp_state_str[state], (void *)inactive, inactivity));
1774:c:/Users/Black_Life/STM32Cube/Repository/STM32Cube_FW_F4_V1.26.2/Middlewares/Third_Party/LwIP/src/core\tcp.c ****     /* Don't send a RST, since no data is lost. */
1775:c:/Users/Black_Life/STM32Cube/Repository/STM32Cube_FW_F4_V1.26.2/Middlewares/Third_Party/LwIP/src/core\tcp.c ****     tcp_abandon(inactive, 0);
1776:c:/Users/Black_Life/STM32Cube/Repository/STM32Cube_FW_F4_V1.26.2/Middlewares/Third_Party/LwIP/src/core\tcp.c ****   }
1777:c:/Users/Black_Life/STM32Cube/Repository/STM32Cube_FW_F4_V1.26.2/Middlewares/Third_Party/LwIP/src/core\tcp.c **** }
1778:c:/Users/Black_Life/STM32Cube/Repository/STM32Cube_FW_F4_V1.26.2/Middlewares/Third_Party/LwIP/src/core\tcp.c **** 
1779:c:/Users/Black_Life/STM32Cube/Repository/STM32Cube_FW_F4_V1.26.2/Middlewares/Third_Party/LwIP/src/core\tcp.c **** /**
1780:c:/Users/Black_Life/STM32Cube/Repository/STM32Cube_FW_F4_V1.26.2/Middlewares/Third_Party/LwIP/src/core\tcp.c ****  * Kills the oldest connection that is in TIME_WAIT state.
1781:c:/Users/Black_Life/STM32Cube/Repository/STM32Cube_FW_F4_V1.26.2/Middlewares/Third_Party/LwIP/src/core\tcp.c ****  * Called from tcp_alloc() if no more connections are available.
1782:c:/Users/Black_Life/STM32Cube/Repository/STM32Cube_FW_F4_V1.26.2/Middlewares/Third_Party/LwIP/src/core\tcp.c ****  */
1783:c:/Users/Black_Life/STM32Cube/Repository/STM32Cube_FW_F4_V1.26.2/Middlewares/Third_Party/LwIP/src/core\tcp.c **** static void
1784:c:/Users/Black_Life/STM32Cube/Repository/STM32Cube_FW_F4_V1.26.2/Middlewares/Third_Party/LwIP/src/core\tcp.c **** tcp_kill_timewait(void)
1785:c:/Users/Black_Life/STM32Cube/Repository/STM32Cube_FW_F4_V1.26.2/Middlewares/Third_Party/LwIP/src/core\tcp.c **** {
1786:c:/Users/Black_Life/STM32Cube/Repository/STM32Cube_FW_F4_V1.26.2/Middlewares/Third_Party/LwIP/src/core\tcp.c ****   struct tcp_pcb *pcb, *inactive;
1787:c:/Users/Black_Life/STM32Cube/Repository/STM32Cube_FW_F4_V1.26.2/Middlewares/Third_Party/LwIP/src/core\tcp.c ****   u32_t inactivity;
1788:c:/Users/Black_Life/STM32Cube/Repository/STM32Cube_FW_F4_V1.26.2/Middlewares/Third_Party/LwIP/src/core\tcp.c **** 
1789:c:/Users/Black_Life/STM32Cube/Repository/STM32Cube_FW_F4_V1.26.2/Middlewares/Third_Party/LwIP/src/core\tcp.c ****   inactivity = 0;
1790:c:/Users/Black_Life/STM32Cube/Repository/STM32Cube_FW_F4_V1.26.2/Middlewares/Third_Party/LwIP/src/core\tcp.c ****   inactive = NULL;
1791:c:/Users/Black_Life/STM32Cube/Repository/STM32Cube_FW_F4_V1.26.2/Middlewares/Third_Party/LwIP/src/core\tcp.c ****   /* Go through the list of TIME_WAIT pcbs and get the oldest pcb. */
1792:c:/Users/Black_Life/STM32Cube/Repository/STM32Cube_FW_F4_V1.26.2/Middlewares/Third_Party/LwIP/src/core\tcp.c ****   for (pcb = tcp_tw_pcbs; pcb != NULL; pcb = pcb->next) {
1793:c:/Users/Black_Life/STM32Cube/Repository/STM32Cube_FW_F4_V1.26.2/Middlewares/Third_Party/LwIP/src/core\tcp.c ****     if ((u32_t)(tcp_ticks - pcb->tmr) >= inactivity) {
1794:c:/Users/Black_Life/STM32Cube/Repository/STM32Cube_FW_F4_V1.26.2/Middlewares/Third_Party/LwIP/src/core\tcp.c ****       inactivity = tcp_ticks - pcb->tmr;
1795:c:/Users/Black_Life/STM32Cube/Repository/STM32Cube_FW_F4_V1.26.2/Middlewares/Third_Party/LwIP/src/core\tcp.c ****       inactive = pcb;
1796:c:/Users/Black_Life/STM32Cube/Repository/STM32Cube_FW_F4_V1.26.2/Middlewares/Third_Party/LwIP/src/core\tcp.c ****     }
1797:c:/Users/Black_Life/STM32Cube/Repository/STM32Cube_FW_F4_V1.26.2/Middlewares/Third_Party/LwIP/src/core\tcp.c ****   }
1798:c:/Users/Black_Life/STM32Cube/Repository/STM32Cube_FW_F4_V1.26.2/Middlewares/Third_Party/LwIP/src/core\tcp.c ****   if (inactive != NULL) {
1799:c:/Users/Black_Life/STM32Cube/Repository/STM32Cube_FW_F4_V1.26.2/Middlewares/Third_Party/LwIP/src/core\tcp.c ****     LWIP_DEBUGF(TCP_DEBUG, ("tcp_kill_timewait: killing oldest TIME-WAIT PCB %p (%"S32_F")\n",
1800:c:/Users/Black_Life/STM32Cube/Repository/STM32Cube_FW_F4_V1.26.2/Middlewares/Third_Party/LwIP/src/core\tcp.c ****                             (void *)inactive, inactivity));
1801:c:/Users/Black_Life/STM32Cube/Repository/STM32Cube_FW_F4_V1.26.2/Middlewares/Third_Party/LwIP/src/core\tcp.c ****     tcp_abort(inactive);
1802:c:/Users/Black_Life/STM32Cube/Repository/STM32Cube_FW_F4_V1.26.2/Middlewares/Third_Party/LwIP/src/core\tcp.c ****   }
1803:c:/Users/Black_Life/STM32Cube/Repository/STM32Cube_FW_F4_V1.26.2/Middlewares/Third_Party/LwIP/src/core\tcp.c **** }
1804:c:/Users/Black_Life/STM32Cube/Repository/STM32Cube_FW_F4_V1.26.2/Middlewares/Third_Party/LwIP/src/core\tcp.c **** 
1805:c:/Users/Black_Life/STM32Cube/Repository/STM32Cube_FW_F4_V1.26.2/Middlewares/Third_Party/LwIP/src/core\tcp.c **** /* Called when allocating a pcb fails.
1806:c:/Users/Black_Life/STM32Cube/Repository/STM32Cube_FW_F4_V1.26.2/Middlewares/Third_Party/LwIP/src/core\tcp.c ****  * In this case, we want to handle all pcbs that want to close first: if we can
1807:c:/Users/Black_Life/STM32Cube/Repository/STM32Cube_FW_F4_V1.26.2/Middlewares/Third_Party/LwIP/src/core\tcp.c ****  * now send the FIN (which failed before), the pcb might be in a state that is
1808:c:/Users/Black_Life/STM32Cube/Repository/STM32Cube_FW_F4_V1.26.2/Middlewares/Third_Party/LwIP/src/core\tcp.c ****  * OK for us to now free it.
1809:c:/Users/Black_Life/STM32Cube/Repository/STM32Cube_FW_F4_V1.26.2/Middlewares/Third_Party/LwIP/src/core\tcp.c ****  */
1810:c:/Users/Black_Life/STM32Cube/Repository/STM32Cube_FW_F4_V1.26.2/Middlewares/Third_Party/LwIP/src/core\tcp.c **** static void
ARM GAS  C:\Users\BLACK_~1\AppData\Local\Temp\ccRovO0r.s 			page 45


1811:c:/Users/Black_Life/STM32Cube/Repository/STM32Cube_FW_F4_V1.26.2/Middlewares/Third_Party/LwIP/src/core\tcp.c **** tcp_handle_closepend(void)
1812:c:/Users/Black_Life/STM32Cube/Repository/STM32Cube_FW_F4_V1.26.2/Middlewares/Third_Party/LwIP/src/core\tcp.c **** {
 554              		.loc 1 1812 1 view -0
 555              		.cfi_startproc
 556              		@ args = 0, pretend = 0, frame = 0
 557              		@ frame_needed = 0, uses_anonymous_args = 0
1813:c:/Users/Black_Life/STM32Cube/Repository/STM32Cube_FW_F4_V1.26.2/Middlewares/Third_Party/LwIP/src/core\tcp.c ****   struct tcp_pcb *pcb = tcp_active_pcbs;
 558              		.loc 1 1813 3 view .LVU145
 559              		.loc 1 1813 19 is_stmt 0 view .LVU146
 560 0000 094B     		ldr	r3, .L66
 561 0002 1868     		ldr	r0, [r3]
 562              	.LVL52:
1814:c:/Users/Black_Life/STM32Cube/Repository/STM32Cube_FW_F4_V1.26.2/Middlewares/Third_Party/LwIP/src/core\tcp.c **** 
1815:c:/Users/Black_Life/STM32Cube/Repository/STM32Cube_FW_F4_V1.26.2/Middlewares/Third_Party/LwIP/src/core\tcp.c ****   while (pcb != NULL) {
 563              		.loc 1 1815 3 is_stmt 1 view .LVU147
 564              		.loc 1 1815 9 view .LVU148
 565 0004 78B1     		cbz	r0, .L64
1812:c:/Users/Black_Life/STM32Cube/Repository/STM32Cube_FW_F4_V1.26.2/Middlewares/Third_Party/LwIP/src/core\tcp.c ****   struct tcp_pcb *pcb = tcp_active_pcbs;
 566              		.loc 1 1812 1 is_stmt 0 view .LVU149
 567 0006 10B5     		push	{r4, lr}
 568              	.LCFI4:
 569              		.cfi_def_cfa_offset 8
 570              		.cfi_offset 4, -8
 571              		.cfi_offset 14, -4
 572 0008 01E0     		b	.L60
 573              	.LVL53:
 574              	.L59:
1812:c:/Users/Black_Life/STM32Cube/Repository/STM32Cube_FW_F4_V1.26.2/Middlewares/Third_Party/LwIP/src/core\tcp.c ****   struct tcp_pcb *pcb = tcp_active_pcbs;
 575              		.loc 1 1812 1 view .LVU150
 576 000a 2046     		mov	r0, r4
 577              	.LVL54:
 578              		.loc 1 1815 9 is_stmt 1 view .LVU151
 579 000c 54B1     		cbz	r4, .L65
 580              	.LVL55:
 581              	.L60:
 582              	.LBB2:
1816:c:/Users/Black_Life/STM32Cube/Repository/STM32Cube_FW_F4_V1.26.2/Middlewares/Third_Party/LwIP/src/core\tcp.c ****     struct tcp_pcb *next = pcb->next;
 583              		.loc 1 1816 5 view .LVU152
 584              		.loc 1 1816 21 is_stmt 0 view .LVU153
 585 000e C468     		ldr	r4, [r0, #12]
 586              	.LVL56:
1817:c:/Users/Black_Life/STM32Cube/Repository/STM32Cube_FW_F4_V1.26.2/Middlewares/Third_Party/LwIP/src/core\tcp.c ****     /* send pending FIN */
1818:c:/Users/Black_Life/STM32Cube/Repository/STM32Cube_FW_F4_V1.26.2/Middlewares/Third_Party/LwIP/src/core\tcp.c ****     if (pcb->flags & TF_CLOSEPEND) {
 587              		.loc 1 1818 5 is_stmt 1 view .LVU154
 588              		.loc 1 1818 12 is_stmt 0 view .LVU155
 589 0010 438B     		ldrh	r3, [r0, #26]
 590              		.loc 1 1818 8 view .LVU156
 591 0012 13F0080F 		tst	r3, #8
 592 0016 F8D0     		beq	.L59
1819:c:/Users/Black_Life/STM32Cube/Repository/STM32Cube_FW_F4_V1.26.2/Middlewares/Third_Party/LwIP/src/core\tcp.c ****       LWIP_DEBUGF(TCP_DEBUG, ("tcp_handle_closepend: pending FIN\n"));
 593              		.loc 1 1819 70 is_stmt 1 view .LVU157
1820:c:/Users/Black_Life/STM32Cube/Repository/STM32Cube_FW_F4_V1.26.2/Middlewares/Third_Party/LwIP/src/core\tcp.c ****       tcp_clear_flags(pcb, TF_CLOSEPEND);
 594              		.loc 1 1820 7 view .LVU158
 595              		.loc 1 1820 7 view .LVU159
 596 0018 23F00803 		bic	r3, r3, #8
 597 001c 4383     		strh	r3, [r0, #26]	@ movhi
 598              		.loc 1 1820 7 view .LVU160
ARM GAS  C:\Users\BLACK_~1\AppData\Local\Temp\ccRovO0r.s 			page 46


1821:c:/Users/Black_Life/STM32Cube/Repository/STM32Cube_FW_F4_V1.26.2/Middlewares/Third_Party/LwIP/src/core\tcp.c ****       tcp_close_shutdown_fin(pcb);
 599              		.loc 1 1821 7 view .LVU161
 600 001e FFF7FEFF 		bl	tcp_close_shutdown_fin
 601              	.LVL57:
 602              		.loc 1 1821 7 is_stmt 0 view .LVU162
 603 0022 F2E7     		b	.L59
 604              	.LVL58:
 605              	.L65:
 606              		.loc 1 1821 7 view .LVU163
 607              	.LBE2:
1822:c:/Users/Black_Life/STM32Cube/Repository/STM32Cube_FW_F4_V1.26.2/Middlewares/Third_Party/LwIP/src/core\tcp.c ****     }
1823:c:/Users/Black_Life/STM32Cube/Repository/STM32Cube_FW_F4_V1.26.2/Middlewares/Third_Party/LwIP/src/core\tcp.c ****     pcb = next;
1824:c:/Users/Black_Life/STM32Cube/Repository/STM32Cube_FW_F4_V1.26.2/Middlewares/Third_Party/LwIP/src/core\tcp.c ****   }
1825:c:/Users/Black_Life/STM32Cube/Repository/STM32Cube_FW_F4_V1.26.2/Middlewares/Third_Party/LwIP/src/core\tcp.c **** }
 608              		.loc 1 1825 1 view .LVU164
 609 0024 10BD     		pop	{r4, pc}
 610              	.LVL59:
 611              	.L64:
 612              	.LCFI5:
 613              		.cfi_def_cfa_offset 0
 614              		.cfi_restore 4
 615              		.cfi_restore 14
 616              		.loc 1 1825 1 view .LVU165
 617 0026 7047     		bx	lr
 618              	.L67:
 619              		.align	2
 620              	.L66:
 621 0028 00000000 		.word	.LANCHOR2
 622              		.cfi_endproc
 623              	.LFE189:
 625              		.section	.text.tcp_init,"ax",%progbits
 626              		.align	1
 627              		.global	tcp_init
 628              		.syntax unified
 629              		.thumb
 630              		.thumb_func
 632              	tcp_init:
 633              	.LFB156:
 202:c:/Users/Black_Life/STM32Cube/Repository/STM32Cube_FW_F4_V1.26.2/Middlewares/Third_Party/LwIP/src/core\tcp.c **** #ifdef LWIP_RAND
 634              		.loc 1 202 1 is_stmt 1 view -0
 635              		.cfi_startproc
 636              		@ args = 0, pretend = 0, frame = 0
 637              		@ frame_needed = 0, uses_anonymous_args = 0
 638 0000 08B5     		push	{r3, lr}
 639              	.LCFI6:
 640              		.cfi_def_cfa_offset 8
 641              		.cfi_offset 3, -8
 642              		.cfi_offset 14, -4
 204:c:/Users/Black_Life/STM32Cube/Repository/STM32Cube_FW_F4_V1.26.2/Middlewares/Third_Party/LwIP/src/core\tcp.c **** #endif /* LWIP_RAND */
 643              		.loc 1 204 3 view .LVU167
 204:c:/Users/Black_Life/STM32Cube/Repository/STM32Cube_FW_F4_V1.26.2/Middlewares/Third_Party/LwIP/src/core\tcp.c **** #endif /* LWIP_RAND */
 644              		.loc 1 204 14 is_stmt 0 view .LVU168
 645 0002 FFF7FEFF 		bl	rand
 646              	.LVL60:
 647 0006 6FEA8040 		mvn	r0, r0, lsl #18
 648 000a 6FEA9040 		mvn	r0, r0, lsr #18
 204:c:/Users/Black_Life/STM32Cube/Repository/STM32Cube_FW_F4_V1.26.2/Middlewares/Third_Party/LwIP/src/core\tcp.c **** #endif /* LWIP_RAND */
ARM GAS  C:\Users\BLACK_~1\AppData\Local\Temp\ccRovO0r.s 			page 47


 649              		.loc 1 204 12 view .LVU169
 650 000e 014B     		ldr	r3, .L70
 651 0010 1880     		strh	r0, [r3]	@ movhi
 206:c:/Users/Black_Life/STM32Cube/Repository/STM32Cube_FW_F4_V1.26.2/Middlewares/Third_Party/LwIP/src/core\tcp.c **** 
 652              		.loc 1 206 1 view .LVU170
 653 0012 08BD     		pop	{r3, pc}
 654              	.L71:
 655              		.align	2
 656              	.L70:
 657 0014 00000000 		.word	.LANCHOR0
 658              		.cfi_endproc
 659              	.LFE156:
 661              		.section	.rodata.tcp_free.str1.4,"aMS",%progbits,1
 662              		.align	2
 663              	.LC6:
 664 0000 7463705F 		.ascii	"tcp_free: LISTEN\000"
 664      66726565 
 664      3A204C49 
 664      5354454E 
 664      00
 665              		.section	.text.tcp_free,"ax",%progbits
 666              		.align	1
 667              		.global	tcp_free
 668              		.syntax unified
 669              		.thumb
 670              		.thumb_func
 672              	tcp_free:
 673              	.LVL61:
 674              	.LFB157:
 211:c:/Users/Black_Life/STM32Cube/Repository/STM32Cube_FW_F4_V1.26.2/Middlewares/Third_Party/LwIP/src/core\tcp.c ****   LWIP_ASSERT("tcp_free: LISTEN", pcb->state != LISTEN);
 675              		.loc 1 211 1 is_stmt 1 view -0
 676              		.cfi_startproc
 677              		@ args = 0, pretend = 0, frame = 0
 678              		@ frame_needed = 0, uses_anonymous_args = 0
 211:c:/Users/Black_Life/STM32Cube/Repository/STM32Cube_FW_F4_V1.26.2/Middlewares/Third_Party/LwIP/src/core\tcp.c ****   LWIP_ASSERT("tcp_free: LISTEN", pcb->state != LISTEN);
 679              		.loc 1 211 1 is_stmt 0 view .LVU172
 680 0000 10B5     		push	{r4, lr}
 681              	.LCFI7:
 682              		.cfi_def_cfa_offset 8
 683              		.cfi_offset 4, -8
 684              		.cfi_offset 14, -4
 685 0002 0446     		mov	r4, r0
 212:c:/Users/Black_Life/STM32Cube/Repository/STM32Cube_FW_F4_V1.26.2/Middlewares/Third_Party/LwIP/src/core\tcp.c **** #if LWIP_TCP_PCB_NUM_EXT_ARGS
 686              		.loc 1 212 3 is_stmt 1 view .LVU173
 212:c:/Users/Black_Life/STM32Cube/Repository/STM32Cube_FW_F4_V1.26.2/Middlewares/Third_Party/LwIP/src/core\tcp.c **** #if LWIP_TCP_PCB_NUM_EXT_ARGS
 687              		.loc 1 212 3 view .LVU174
 688 0004 037D     		ldrb	r3, [r0, #20]	@ zero_extendqisi2
 689 0006 012B     		cmp	r3, #1
 690 0008 04D0     		beq	.L75
 691              	.LVL62:
 692              	.L73:
 212:c:/Users/Black_Life/STM32Cube/Repository/STM32Cube_FW_F4_V1.26.2/Middlewares/Third_Party/LwIP/src/core\tcp.c **** #if LWIP_TCP_PCB_NUM_EXT_ARGS
 693              		.loc 1 212 3 discriminator 3 view .LVU175
 212:c:/Users/Black_Life/STM32Cube/Repository/STM32Cube_FW_F4_V1.26.2/Middlewares/Third_Party/LwIP/src/core\tcp.c **** #if LWIP_TCP_PCB_NUM_EXT_ARGS
 694              		.loc 1 212 3 discriminator 3 view .LVU176
 216:c:/Users/Black_Life/STM32Cube/Repository/STM32Cube_FW_F4_V1.26.2/Middlewares/Third_Party/LwIP/src/core\tcp.c **** }
 695              		.loc 1 216 3 discriminator 3 view .LVU177
ARM GAS  C:\Users\BLACK_~1\AppData\Local\Temp\ccRovO0r.s 			page 48


 696 000a 2146     		mov	r1, r4
 697 000c 0120     		movs	r0, #1
 698 000e FFF7FEFF 		bl	memp_free
 699              	.LVL63:
 217:c:/Users/Black_Life/STM32Cube/Repository/STM32Cube_FW_F4_V1.26.2/Middlewares/Third_Party/LwIP/src/core\tcp.c **** 
 700              		.loc 1 217 1 is_stmt 0 discriminator 3 view .LVU178
 701 0012 10BD     		pop	{r4, pc}
 702              	.LVL64:
 703              	.L75:
 212:c:/Users/Black_Life/STM32Cube/Repository/STM32Cube_FW_F4_V1.26.2/Middlewares/Third_Party/LwIP/src/core\tcp.c **** #if LWIP_TCP_PCB_NUM_EXT_ARGS
 704              		.loc 1 212 3 is_stmt 1 discriminator 1 view .LVU179
 212:c:/Users/Black_Life/STM32Cube/Repository/STM32Cube_FW_F4_V1.26.2/Middlewares/Third_Party/LwIP/src/core\tcp.c **** #if LWIP_TCP_PCB_NUM_EXT_ARGS
 705              		.loc 1 212 3 discriminator 1 view .LVU180
 706 0014 034B     		ldr	r3, .L76
 707 0016 D422     		movs	r2, #212
 708 0018 0349     		ldr	r1, .L76+4
 709 001a 0448     		ldr	r0, .L76+8
 710              	.LVL65:
 212:c:/Users/Black_Life/STM32Cube/Repository/STM32Cube_FW_F4_V1.26.2/Middlewares/Third_Party/LwIP/src/core\tcp.c **** #if LWIP_TCP_PCB_NUM_EXT_ARGS
 711              		.loc 1 212 3 is_stmt 0 discriminator 1 view .LVU181
 712 001c FFF7FEFF 		bl	printf
 713              	.LVL66:
 714 0020 F3E7     		b	.L73
 715              	.L77:
 716 0022 00BF     		.align	2
 717              	.L76:
 718 0024 00000000 		.word	.LC0
 719 0028 00000000 		.word	.LC6
 720 002c 98000000 		.word	.LC2
 721              		.cfi_endproc
 722              	.LFE157:
 724              		.section	.rodata.tcp_bind.str1.4,"aMS",%progbits,1
 725              		.align	2
 726              	.LC7:
 727 0000 7463705F 		.ascii	"tcp_bind: invalid pcb\000"
 727      62696E64 
 727      3A20696E 
 727      76616C69 
 727      64207063 
 728 0016 0000     		.align	2
 729              	.LC8:
 730 0018 7463705F 		.ascii	"tcp_bind: can only bind in state CLOSED\000"
 730      62696E64 
 730      3A206361 
 730      6E206F6E 
 730      6C792062 
 731              		.section	.text.tcp_bind,"ax",%progbits
 732              		.align	1
 733              		.global	tcp_bind
 734              		.syntax unified
 735              		.thumb
 736              		.thumb_func
 738              	tcp_bind:
 739              	.LVL67:
 740              	.LFB168:
 662:c:/Users/Black_Life/STM32Cube/Repository/STM32Cube_FW_F4_V1.26.2/Middlewares/Third_Party/LwIP/src/core\tcp.c ****   int i;
 741              		.loc 1 662 1 is_stmt 1 view -0
ARM GAS  C:\Users\BLACK_~1\AppData\Local\Temp\ccRovO0r.s 			page 49


 742              		.cfi_startproc
 743              		@ args = 0, pretend = 0, frame = 0
 744              		@ frame_needed = 0, uses_anonymous_args = 0
 662:c:/Users/Black_Life/STM32Cube/Repository/STM32Cube_FW_F4_V1.26.2/Middlewares/Third_Party/LwIP/src/core\tcp.c ****   int i;
 745              		.loc 1 662 1 is_stmt 0 view .LVU183
 746 0000 70B5     		push	{r4, r5, r6, lr}
 747              	.LCFI8:
 748              		.cfi_def_cfa_offset 16
 749              		.cfi_offset 4, -16
 750              		.cfi_offset 5, -12
 751              		.cfi_offset 6, -8
 752              		.cfi_offset 14, -4
 753 0002 0646     		mov	r6, r0
 663:c:/Users/Black_Life/STM32Cube/Repository/STM32Cube_FW_F4_V1.26.2/Middlewares/Third_Party/LwIP/src/core\tcp.c ****   int max_pcb_list = NUM_TCP_PCB_LISTS;
 754              		.loc 1 663 3 is_stmt 1 view .LVU184
 664:c:/Users/Black_Life/STM32Cube/Repository/STM32Cube_FW_F4_V1.26.2/Middlewares/Third_Party/LwIP/src/core\tcp.c ****   struct tcp_pcb *cpcb;
 755              		.loc 1 664 3 view .LVU185
 756              	.LVL68:
 665:c:/Users/Black_Life/STM32Cube/Repository/STM32Cube_FW_F4_V1.26.2/Middlewares/Third_Party/LwIP/src/core\tcp.c **** #if LWIP_IPV6 && LWIP_IPV6_SCOPES
 757              		.loc 1 665 3 view .LVU186
 670:c:/Users/Black_Life/STM32Cube/Repository/STM32Cube_FW_F4_V1.26.2/Middlewares/Third_Party/LwIP/src/core\tcp.c **** 
 758              		.loc 1 670 28 view .LVU187
 674:c:/Users/Black_Life/STM32Cube/Repository/STM32Cube_FW_F4_V1.26.2/Middlewares/Third_Party/LwIP/src/core\tcp.c ****     ipaddr = IP4_ADDR_ANY;
 759              		.loc 1 674 3 view .LVU188
 674:c:/Users/Black_Life/STM32Cube/Repository/STM32Cube_FW_F4_V1.26.2/Middlewares/Third_Party/LwIP/src/core\tcp.c ****     ipaddr = IP4_ADDR_ANY;
 760              		.loc 1 674 6 is_stmt 0 view .LVU189
 761 0004 0D46     		mov	r5, r1
 762 0006 59B1     		cbz	r1, .L99
 763              	.L79:
 764              	.LVL69:
 681:c:/Users/Black_Life/STM32Cube/Repository/STM32Cube_FW_F4_V1.26.2/Middlewares/Third_Party/LwIP/src/core\tcp.c **** 
 765              		.loc 1 681 3 is_stmt 1 view .LVU190
 681:c:/Users/Black_Life/STM32Cube/Repository/STM32Cube_FW_F4_V1.26.2/Middlewares/Third_Party/LwIP/src/core\tcp.c **** 
 766              		.loc 1 681 3 view .LVU191
 767 0008 66B1     		cbz	r6, .L100
 681:c:/Users/Black_Life/STM32Cube/Repository/STM32Cube_FW_F4_V1.26.2/Middlewares/Third_Party/LwIP/src/core\tcp.c **** 
 768              		.loc 1 681 3 discriminator 2 view .LVU192
 683:c:/Users/Black_Life/STM32Cube/Repository/STM32Cube_FW_F4_V1.26.2/Middlewares/Third_Party/LwIP/src/core\tcp.c **** 
 769              		.loc 1 683 3 discriminator 2 view .LVU193
 683:c:/Users/Black_Life/STM32Cube/Repository/STM32Cube_FW_F4_V1.26.2/Middlewares/Third_Party/LwIP/src/core\tcp.c **** 
 770              		.loc 1 683 3 discriminator 2 view .LVU194
 771 000a 337D     		ldrb	r3, [r6, #20]	@ zero_extendqisi2
 772 000c A3B9     		cbnz	r3, .L101
 683:c:/Users/Black_Life/STM32Cube/Repository/STM32Cube_FW_F4_V1.26.2/Middlewares/Third_Party/LwIP/src/core\tcp.c **** 
 773              		.loc 1 683 3 discriminator 2 view .LVU195
 708:c:/Users/Black_Life/STM32Cube/Repository/STM32Cube_FW_F4_V1.26.2/Middlewares/Third_Party/LwIP/src/core\tcp.c ****     port = tcp_new_port();
 774              		.loc 1 708 3 discriminator 2 view .LVU196
 708:c:/Users/Black_Life/STM32Cube/Repository/STM32Cube_FW_F4_V1.26.2/Middlewares/Third_Party/LwIP/src/core\tcp.c ****     port = tcp_new_port();
 775              		.loc 1 708 6 is_stmt 0 discriminator 2 view .LVU197
 776 000e EAB1     		cbz	r2, .L102
 715:c:/Users/Black_Life/STM32Cube/Repository/STM32Cube_FW_F4_V1.26.2/Middlewares/Third_Party/LwIP/src/core\tcp.c ****       for (cpcb = *tcp_pcb_lists[i]; cpcb != NULL; cpcb = cpcb->next) {
 777              		.loc 1 715 12 view .LVU198
 778 0010 0020     		movs	r0, #0
 779              	.LVL70:
 780              	.L83:
 715:c:/Users/Black_Life/STM32Cube/Repository/STM32Cube_FW_F4_V1.26.2/Middlewares/Third_Party/LwIP/src/core\tcp.c ****       for (cpcb = *tcp_pcb_lists[i]; cpcb != NULL; cpcb = cpcb->next) {
 781              		.loc 1 715 17 is_stmt 1 discriminator 1 view .LVU199
ARM GAS  C:\Users\BLACK_~1\AppData\Local\Temp\ccRovO0r.s 			page 50


 715:c:/Users/Black_Life/STM32Cube/Repository/STM32Cube_FW_F4_V1.26.2/Middlewares/Third_Party/LwIP/src/core\tcp.c ****       for (cpcb = *tcp_pcb_lists[i]; cpcb != NULL; cpcb = cpcb->next) {
 782              		.loc 1 715 5 is_stmt 0 discriminator 1 view .LVU200
 783 0012 0328     		cmp	r0, #3
 784 0014 1EDC     		bgt	.L84
 716:c:/Users/Black_Life/STM32Cube/Repository/STM32Cube_FW_F4_V1.26.2/Middlewares/Third_Party/LwIP/src/core\tcp.c ****         if (cpcb->local_port == port) {
 785              		.loc 1 716 7 is_stmt 1 view .LVU201
 716:c:/Users/Black_Life/STM32Cube/Repository/STM32Cube_FW_F4_V1.26.2/Middlewares/Third_Party/LwIP/src/core\tcp.c ****         if (cpcb->local_port == port) {
 786              		.loc 1 716 33 is_stmt 0 view .LVU202
 787 0016 264B     		ldr	r3, .L105
 788 0018 53F82030 		ldr	r3, [r3, r0, lsl #2]
 716:c:/Users/Black_Life/STM32Cube/Repository/STM32Cube_FW_F4_V1.26.2/Middlewares/Third_Party/LwIP/src/core\tcp.c ****         if (cpcb->local_port == port) {
 789              		.loc 1 716 17 view .LVU203
 790 001c 1B68     		ldr	r3, [r3]
 791              	.LVL71:
 716:c:/Users/Black_Life/STM32Cube/Repository/STM32Cube_FW_F4_V1.26.2/Middlewares/Third_Party/LwIP/src/core\tcp.c ****         if (cpcb->local_port == port) {
 792              		.loc 1 716 7 view .LVU204
 793 001e 27E0     		b	.L85
 794              	.LVL72:
 795              	.L99:
 675:c:/Users/Black_Life/STM32Cube/Repository/STM32Cube_FW_F4_V1.26.2/Middlewares/Third_Party/LwIP/src/core\tcp.c ****   }
 796              		.loc 1 675 12 view .LVU205
 797 0020 244D     		ldr	r5, .L105+4
 798 0022 F1E7     		b	.L79
 799              	.LVL73:
 800              	.L100:
 681:c:/Users/Black_Life/STM32Cube/Repository/STM32Cube_FW_F4_V1.26.2/Middlewares/Third_Party/LwIP/src/core\tcp.c **** 
 801              		.loc 1 681 3 is_stmt 1 discriminator 1 view .LVU206
 681:c:/Users/Black_Life/STM32Cube/Repository/STM32Cube_FW_F4_V1.26.2/Middlewares/Third_Party/LwIP/src/core\tcp.c **** 
 802              		.loc 1 681 3 discriminator 1 view .LVU207
 803 0024 244B     		ldr	r3, .L105+8
 804 0026 40F2A922 		movw	r2, #681
 805              	.LVL74:
 681:c:/Users/Black_Life/STM32Cube/Repository/STM32Cube_FW_F4_V1.26.2/Middlewares/Third_Party/LwIP/src/core\tcp.c **** 
 806              		.loc 1 681 3 is_stmt 0 discriminator 1 view .LVU208
 807 002a 2449     		ldr	r1, .L105+12
 808 002c 2448     		ldr	r0, .L105+16
 809              	.LVL75:
 681:c:/Users/Black_Life/STM32Cube/Repository/STM32Cube_FW_F4_V1.26.2/Middlewares/Third_Party/LwIP/src/core\tcp.c **** 
 810              		.loc 1 681 3 discriminator 1 view .LVU209
 811 002e FFF7FEFF 		bl	printf
 812              	.LVL76:
 681:c:/Users/Black_Life/STM32Cube/Repository/STM32Cube_FW_F4_V1.26.2/Middlewares/Third_Party/LwIP/src/core\tcp.c **** 
 813              		.loc 1 681 3 is_stmt 1 discriminator 1 view .LVU210
 681:c:/Users/Black_Life/STM32Cube/Repository/STM32Cube_FW_F4_V1.26.2/Middlewares/Third_Party/LwIP/src/core\tcp.c **** 
 814              		.loc 1 681 3 discriminator 1 view .LVU211
 815 0032 6FF00F00 		mvn	r0, #15
 816 0036 19E0     		b	.L81
 817              	.LVL77:
 818              	.L101:
 683:c:/Users/Black_Life/STM32Cube/Repository/STM32Cube_FW_F4_V1.26.2/Middlewares/Third_Party/LwIP/src/core\tcp.c **** 
 819              		.loc 1 683 3 discriminator 1 view .LVU212
 683:c:/Users/Black_Life/STM32Cube/Repository/STM32Cube_FW_F4_V1.26.2/Middlewares/Third_Party/LwIP/src/core\tcp.c **** 
 820              		.loc 1 683 3 discriminator 1 view .LVU213
 821 0038 1F4B     		ldr	r3, .L105+8
 822 003a 40F2AB22 		movw	r2, #683
 823              	.LVL78:
 683:c:/Users/Black_Life/STM32Cube/Repository/STM32Cube_FW_F4_V1.26.2/Middlewares/Third_Party/LwIP/src/core\tcp.c **** 
ARM GAS  C:\Users\BLACK_~1\AppData\Local\Temp\ccRovO0r.s 			page 51


 824              		.loc 1 683 3 is_stmt 0 discriminator 1 view .LVU214
 825 003e 2149     		ldr	r1, .L105+20
 826 0040 1F48     		ldr	r0, .L105+16
 827              	.LVL79:
 683:c:/Users/Black_Life/STM32Cube/Repository/STM32Cube_FW_F4_V1.26.2/Middlewares/Third_Party/LwIP/src/core\tcp.c **** 
 828              		.loc 1 683 3 discriminator 1 view .LVU215
 829 0042 FFF7FEFF 		bl	printf
 830              	.LVL80:
 683:c:/Users/Black_Life/STM32Cube/Repository/STM32Cube_FW_F4_V1.26.2/Middlewares/Third_Party/LwIP/src/core\tcp.c **** 
 831              		.loc 1 683 3 is_stmt 1 discriminator 1 view .LVU216
 683:c:/Users/Black_Life/STM32Cube/Repository/STM32Cube_FW_F4_V1.26.2/Middlewares/Third_Party/LwIP/src/core\tcp.c **** 
 832              		.loc 1 683 3 discriminator 1 view .LVU217
 833 0046 6FF00500 		mvn	r0, #5
 834 004a 0FE0     		b	.L81
 835              	.LVL81:
 836              	.L102:
 709:c:/Users/Black_Life/STM32Cube/Repository/STM32Cube_FW_F4_V1.26.2/Middlewares/Third_Party/LwIP/src/core\tcp.c ****     if (port == 0) {
 837              		.loc 1 709 5 view .LVU218
 709:c:/Users/Black_Life/STM32Cube/Repository/STM32Cube_FW_F4_V1.26.2/Middlewares/Third_Party/LwIP/src/core\tcp.c ****     if (port == 0) {
 838              		.loc 1 709 12 is_stmt 0 view .LVU219
 839 004c FFF7FEFF 		bl	tcp_new_port
 840              	.LVL82:
 710:c:/Users/Black_Life/STM32Cube/Repository/STM32Cube_FW_F4_V1.26.2/Middlewares/Third_Party/LwIP/src/core\tcp.c ****       return ERR_BUF;
 841              		.loc 1 710 5 is_stmt 1 view .LVU220
 710:c:/Users/Black_Life/STM32Cube/Repository/STM32Cube_FW_F4_V1.26.2/Middlewares/Third_Party/LwIP/src/core\tcp.c ****       return ERR_BUF;
 842              		.loc 1 710 8 is_stmt 0 view .LVU221
 843 0050 0246     		mov	r2, r0
 844 0052 F0B1     		cbz	r0, .L103
 845              	.LVL83:
 846              	.L84:
 739:c:/Users/Black_Life/STM32Cube/Repository/STM32Cube_FW_F4_V1.26.2/Middlewares/Third_Party/LwIP/src/core\tcp.c **** #if LWIP_IPV4 && LWIP_IPV6
 847              		.loc 1 739 3 is_stmt 1 view .LVU222
 739:c:/Users/Black_Life/STM32Cube/Repository/STM32Cube_FW_F4_V1.26.2/Middlewares/Third_Party/LwIP/src/core\tcp.c **** #if LWIP_IPV4 && LWIP_IPV6
 848              		.loc 1 739 6 is_stmt 0 view .LVU223
 849 0054 15B1     		cbz	r5, .L89
 739:c:/Users/Black_Life/STM32Cube/Repository/STM32Cube_FW_F4_V1.26.2/Middlewares/Third_Party/LwIP/src/core\tcp.c **** #if LWIP_IPV4 && LWIP_IPV6
 850              		.loc 1 739 8 discriminator 1 view .LVU224
 851 0056 2B68     		ldr	r3, [r5]
 739:c:/Users/Black_Life/STM32Cube/Repository/STM32Cube_FW_F4_V1.26.2/Middlewares/Third_Party/LwIP/src/core\tcp.c **** #if LWIP_IPV4 && LWIP_IPV6
 852              		.loc 1 739 7 discriminator 1 view .LVU225
 853 0058 03B1     		cbz	r3, .L89
 744:c:/Users/Black_Life/STM32Cube/Repository/STM32Cube_FW_F4_V1.26.2/Middlewares/Third_Party/LwIP/src/core\tcp.c ****   }
 854              		.loc 1 744 5 is_stmt 1 discriminator 4 view .LVU226
 855 005a 3360     		str	r3, [r6]
 856              	.L89:
 746:c:/Users/Black_Life/STM32Cube/Repository/STM32Cube_FW_F4_V1.26.2/Middlewares/Third_Party/LwIP/src/core\tcp.c ****   TCP_REG(&tcp_bound_pcbs, pcb);
 857              		.loc 1 746 3 view .LVU227
 746:c:/Users/Black_Life/STM32Cube/Repository/STM32Cube_FW_F4_V1.26.2/Middlewares/Third_Party/LwIP/src/core\tcp.c ****   TCP_REG(&tcp_bound_pcbs, pcb);
 858              		.loc 1 746 19 is_stmt 0 view .LVU228
 859 005c F282     		strh	r2, [r6, #22]	@ movhi
 747:c:/Users/Black_Life/STM32Cube/Repository/STM32Cube_FW_F4_V1.26.2/Middlewares/Third_Party/LwIP/src/core\tcp.c ****   LWIP_DEBUGF(TCP_DEBUG, ("tcp_bind: bind to port %"U16_F"\n", port));
 860              		.loc 1 747 3 is_stmt 1 view .LVU229
 747:c:/Users/Black_Life/STM32Cube/Repository/STM32Cube_FW_F4_V1.26.2/Middlewares/Third_Party/LwIP/src/core\tcp.c ****   LWIP_DEBUGF(TCP_DEBUG, ("tcp_bind: bind to port %"U16_F"\n", port));
 861              		.loc 1 747 3 view .LVU230
 862 005e 1A4B     		ldr	r3, .L105+24
 863 0060 1A68     		ldr	r2, [r3]
 864              	.LVL84:
ARM GAS  C:\Users\BLACK_~1\AppData\Local\Temp\ccRovO0r.s 			page 52


 747:c:/Users/Black_Life/STM32Cube/Repository/STM32Cube_FW_F4_V1.26.2/Middlewares/Third_Party/LwIP/src/core\tcp.c ****   LWIP_DEBUGF(TCP_DEBUG, ("tcp_bind: bind to port %"U16_F"\n", port));
 865              		.loc 1 747 3 is_stmt 0 view .LVU231
 866 0062 F260     		str	r2, [r6, #12]
 747:c:/Users/Black_Life/STM32Cube/Repository/STM32Cube_FW_F4_V1.26.2/Middlewares/Third_Party/LwIP/src/core\tcp.c ****   LWIP_DEBUGF(TCP_DEBUG, ("tcp_bind: bind to port %"U16_F"\n", port));
 867              		.loc 1 747 3 is_stmt 1 view .LVU232
 868 0064 1E60     		str	r6, [r3]
 747:c:/Users/Black_Life/STM32Cube/Repository/STM32Cube_FW_F4_V1.26.2/Middlewares/Third_Party/LwIP/src/core\tcp.c ****   LWIP_DEBUGF(TCP_DEBUG, ("tcp_bind: bind to port %"U16_F"\n", port));
 869              		.loc 1 747 3 view .LVU233
 870 0066 FFF7FEFF 		bl	tcp_timer_needed
 871              	.LVL85:
 747:c:/Users/Black_Life/STM32Cube/Repository/STM32Cube_FW_F4_V1.26.2/Middlewares/Third_Party/LwIP/src/core\tcp.c ****   LWIP_DEBUGF(TCP_DEBUG, ("tcp_bind: bind to port %"U16_F"\n", port));
 872              		.loc 1 747 3 view .LVU234
 748:c:/Users/Black_Life/STM32Cube/Repository/STM32Cube_FW_F4_V1.26.2/Middlewares/Third_Party/LwIP/src/core\tcp.c ****   return ERR_OK;
 873              		.loc 1 748 70 view .LVU235
 749:c:/Users/Black_Life/STM32Cube/Repository/STM32Cube_FW_F4_V1.26.2/Middlewares/Third_Party/LwIP/src/core\tcp.c **** }
 874              		.loc 1 749 3 view .LVU236
 749:c:/Users/Black_Life/STM32Cube/Repository/STM32Cube_FW_F4_V1.26.2/Middlewares/Third_Party/LwIP/src/core\tcp.c **** }
 875              		.loc 1 749 10 is_stmt 0 view .LVU237
 876 006a 0020     		movs	r0, #0
 877              	.L81:
 750:c:/Users/Black_Life/STM32Cube/Repository/STM32Cube_FW_F4_V1.26.2/Middlewares/Third_Party/LwIP/src/core\tcp.c **** 
 878              		.loc 1 750 1 view .LVU238
 879 006c 70BD     		pop	{r4, r5, r6, pc}
 880              	.LVL86:
 881              	.L86:
 716:c:/Users/Black_Life/STM32Cube/Repository/STM32Cube_FW_F4_V1.26.2/Middlewares/Third_Party/LwIP/src/core\tcp.c ****         if (cpcb->local_port == port) {
 882              		.loc 1 716 52 is_stmt 1 discriminator 2 view .LVU239
 716:c:/Users/Black_Life/STM32Cube/Repository/STM32Cube_FW_F4_V1.26.2/Middlewares/Third_Party/LwIP/src/core\tcp.c ****         if (cpcb->local_port == port) {
 883              		.loc 1 716 57 is_stmt 0 discriminator 2 view .LVU240
 884 006e DB68     		ldr	r3, [r3, #12]
 885              	.LVL87:
 886              	.L85:
 716:c:/Users/Black_Life/STM32Cube/Repository/STM32Cube_FW_F4_V1.26.2/Middlewares/Third_Party/LwIP/src/core\tcp.c ****         if (cpcb->local_port == port) {
 887              		.loc 1 716 38 is_stmt 1 discriminator 1 view .LVU241
 716:c:/Users/Black_Life/STM32Cube/Repository/STM32Cube_FW_F4_V1.26.2/Middlewares/Third_Party/LwIP/src/core\tcp.c ****         if (cpcb->local_port == port) {
 888              		.loc 1 716 7 is_stmt 0 discriminator 1 view .LVU242
 889 0070 6BB1     		cbz	r3, .L104
 717:c:/Users/Black_Life/STM32Cube/Repository/STM32Cube_FW_F4_V1.26.2/Middlewares/Third_Party/LwIP/src/core\tcp.c **** #if SO_REUSE
 890              		.loc 1 717 9 is_stmt 1 view .LVU243
 717:c:/Users/Black_Life/STM32Cube/Repository/STM32Cube_FW_F4_V1.26.2/Middlewares/Third_Party/LwIP/src/core\tcp.c **** #if SO_REUSE
 891              		.loc 1 717 17 is_stmt 0 view .LVU244
 892 0072 D98A     		ldrh	r1, [r3, #22]
 717:c:/Users/Black_Life/STM32Cube/Repository/STM32Cube_FW_F4_V1.26.2/Middlewares/Third_Party/LwIP/src/core\tcp.c **** #if SO_REUSE
 893              		.loc 1 717 12 view .LVU245
 894 0074 9142     		cmp	r1, r2
 895 0076 FAD1     		bne	.L86
 727:c:/Users/Black_Life/STM32Cube/Repository/STM32Cube_FW_F4_V1.26.2/Middlewares/Third_Party/LwIP/src/core\tcp.c ****                 (ip_addr_isany(&cpcb->local_ip) ||
 896              		.loc 1 727 13 is_stmt 1 view .LVU246
 727:c:/Users/Black_Life/STM32Cube/Repository/STM32Cube_FW_F4_V1.26.2/Middlewares/Third_Party/LwIP/src/core\tcp.c ****                 (ip_addr_isany(&cpcb->local_ip) ||
 897              		.loc 1 727 16 is_stmt 0 view .LVU247
 898 0078 73B1     		cbz	r3, .L93
 728:c:/Users/Black_Life/STM32Cube/Repository/STM32Cube_FW_F4_V1.26.2/Middlewares/Third_Party/LwIP/src/core\tcp.c ****                  ip_addr_isany(ipaddr) ||
 899              		.loc 1 728 18 view .LVU248
 900 007a 1968     		ldr	r1, [r3]
 901 007c 79B1     		cbz	r1, .L94
 728:c:/Users/Black_Life/STM32Cube/Repository/STM32Cube_FW_F4_V1.26.2/Middlewares/Third_Party/LwIP/src/core\tcp.c ****                  ip_addr_isany(ipaddr) ||
 902              		.loc 1 728 49 discriminator 1 view .LVU249
ARM GAS  C:\Users\BLACK_~1\AppData\Local\Temp\ccRovO0r.s 			page 53


 903 007e 8DB1     		cbz	r5, .L95
 729:c:/Users/Black_Life/STM32Cube/Repository/STM32Cube_FW_F4_V1.26.2/Middlewares/Third_Party/LwIP/src/core\tcp.c ****                  ip_addr_cmp(&cpcb->local_ip, ipaddr))) {
 904              		.loc 1 729 18 view .LVU250
 905 0080 2C68     		ldr	r4, [r5]
 906 0082 94B1     		cbz	r4, .L96
 727:c:/Users/Black_Life/STM32Cube/Repository/STM32Cube_FW_F4_V1.26.2/Middlewares/Third_Party/LwIP/src/core\tcp.c ****                 (ip_addr_isany(&cpcb->local_ip) ||
 907              		.loc 1 727 68 view .LVU251
 908 0084 A142     		cmp	r1, r4
 909 0086 F2D1     		bne	.L86
 731:c:/Users/Black_Life/STM32Cube/Repository/STM32Cube_FW_F4_V1.26.2/Middlewares/Third_Party/LwIP/src/core\tcp.c ****             }
 910              		.loc 1 731 22 view .LVU252
 911 0088 6FF00700 		mvn	r0, #7
 912              	.LVL88:
 731:c:/Users/Black_Life/STM32Cube/Repository/STM32Cube_FW_F4_V1.26.2/Middlewares/Third_Party/LwIP/src/core\tcp.c ****             }
 913              		.loc 1 731 22 view .LVU253
 914 008c EEE7     		b	.L81
 915              	.LVL89:
 916              	.L104:
 715:c:/Users/Black_Life/STM32Cube/Repository/STM32Cube_FW_F4_V1.26.2/Middlewares/Third_Party/LwIP/src/core\tcp.c ****       for (cpcb = *tcp_pcb_lists[i]; cpcb != NULL; cpcb = cpcb->next) {
 917              		.loc 1 715 35 is_stmt 1 discriminator 2 view .LVU254
 715:c:/Users/Black_Life/STM32Cube/Repository/STM32Cube_FW_F4_V1.26.2/Middlewares/Third_Party/LwIP/src/core\tcp.c ****       for (cpcb = *tcp_pcb_lists[i]; cpcb != NULL; cpcb = cpcb->next) {
 918              		.loc 1 715 36 is_stmt 0 discriminator 2 view .LVU255
 919 008e 0130     		adds	r0, r0, #1
 920              	.LVL90:
 715:c:/Users/Black_Life/STM32Cube/Repository/STM32Cube_FW_F4_V1.26.2/Middlewares/Third_Party/LwIP/src/core\tcp.c ****       for (cpcb = *tcp_pcb_lists[i]; cpcb != NULL; cpcb = cpcb->next) {
 921              		.loc 1 715 36 discriminator 2 view .LVU256
 922 0090 BFE7     		b	.L83
 923              	.LVL91:
 924              	.L103:
 711:c:/Users/Black_Life/STM32Cube/Repository/STM32Cube_FW_F4_V1.26.2/Middlewares/Third_Party/LwIP/src/core\tcp.c ****     }
 925              		.loc 1 711 14 view .LVU257
 926 0092 6FF00100 		mvn	r0, #1
 927              	.LVL92:
 711:c:/Users/Black_Life/STM32Cube/Repository/STM32Cube_FW_F4_V1.26.2/Middlewares/Third_Party/LwIP/src/core\tcp.c ****     }
 928              		.loc 1 711 14 view .LVU258
 929 0096 E9E7     		b	.L81
 930              	.LVL93:
 931              	.L93:
 731:c:/Users/Black_Life/STM32Cube/Repository/STM32Cube_FW_F4_V1.26.2/Middlewares/Third_Party/LwIP/src/core\tcp.c ****             }
 932              		.loc 1 731 22 view .LVU259
 933 0098 6FF00700 		mvn	r0, #7
 934              	.LVL94:
 731:c:/Users/Black_Life/STM32Cube/Repository/STM32Cube_FW_F4_V1.26.2/Middlewares/Third_Party/LwIP/src/core\tcp.c ****             }
 935              		.loc 1 731 22 view .LVU260
 936 009c E6E7     		b	.L81
 937              	.LVL95:
 938              	.L94:
 731:c:/Users/Black_Life/STM32Cube/Repository/STM32Cube_FW_F4_V1.26.2/Middlewares/Third_Party/LwIP/src/core\tcp.c ****             }
 939              		.loc 1 731 22 view .LVU261
 940 009e 6FF00700 		mvn	r0, #7
 941              	.LVL96:
 731:c:/Users/Black_Life/STM32Cube/Repository/STM32Cube_FW_F4_V1.26.2/Middlewares/Third_Party/LwIP/src/core\tcp.c ****             }
 942              		.loc 1 731 22 view .LVU262
 943 00a2 E3E7     		b	.L81
 944              	.LVL97:
 945              	.L95:
 731:c:/Users/Black_Life/STM32Cube/Repository/STM32Cube_FW_F4_V1.26.2/Middlewares/Third_Party/LwIP/src/core\tcp.c ****             }
ARM GAS  C:\Users\BLACK_~1\AppData\Local\Temp\ccRovO0r.s 			page 54


 946              		.loc 1 731 22 view .LVU263
 947 00a4 6FF00700 		mvn	r0, #7
 948              	.LVL98:
 731:c:/Users/Black_Life/STM32Cube/Repository/STM32Cube_FW_F4_V1.26.2/Middlewares/Third_Party/LwIP/src/core\tcp.c ****             }
 949              		.loc 1 731 22 view .LVU264
 950 00a8 E0E7     		b	.L81
 951              	.LVL99:
 952              	.L96:
 731:c:/Users/Black_Life/STM32Cube/Repository/STM32Cube_FW_F4_V1.26.2/Middlewares/Third_Party/LwIP/src/core\tcp.c ****             }
 953              		.loc 1 731 22 view .LVU265
 954 00aa 6FF00700 		mvn	r0, #7
 955              	.LVL100:
 731:c:/Users/Black_Life/STM32Cube/Repository/STM32Cube_FW_F4_V1.26.2/Middlewares/Third_Party/LwIP/src/core\tcp.c ****             }
 956              		.loc 1 731 22 view .LVU266
 957 00ae DDE7     		b	.L81
 958              	.L106:
 959              		.align	2
 960              	.L105:
 961 00b0 00000000 		.word	.LANCHOR1
 962 00b4 00000000 		.word	ip_addr_any
 963 00b8 00000000 		.word	.LC0
 964 00bc 00000000 		.word	.LC7
 965 00c0 98000000 		.word	.LC2
 966 00c4 18000000 		.word	.LC8
 967 00c8 00000000 		.word	.LANCHOR3
 968              		.cfi_endproc
 969              	.LFE168:
 971              		.section	.text.tcp_bind_netif,"ax",%progbits
 972              		.align	1
 973              		.global	tcp_bind_netif
 974              		.syntax unified
 975              		.thumb
 976              		.thumb_func
 978              	tcp_bind_netif:
 979              	.LVL101:
 980              	.LFB169:
 764:c:/Users/Black_Life/STM32Cube/Repository/STM32Cube_FW_F4_V1.26.2/Middlewares/Third_Party/LwIP/src/core\tcp.c ****   LWIP_ASSERT_CORE_LOCKED();
 981              		.loc 1 764 1 is_stmt 1 view -0
 982              		.cfi_startproc
 983              		@ args = 0, pretend = 0, frame = 0
 984              		@ frame_needed = 0, uses_anonymous_args = 0
 985              		@ link register save eliminated.
 765:c:/Users/Black_Life/STM32Cube/Repository/STM32Cube_FW_F4_V1.26.2/Middlewares/Third_Party/LwIP/src/core\tcp.c ****   if (netif != NULL) {
 986              		.loc 1 765 28 view .LVU268
 766:c:/Users/Black_Life/STM32Cube/Repository/STM32Cube_FW_F4_V1.26.2/Middlewares/Third_Party/LwIP/src/core\tcp.c ****     pcb->netif_idx = netif_get_index(netif);
 987              		.loc 1 766 3 view .LVU269
 766:c:/Users/Black_Life/STM32Cube/Repository/STM32Cube_FW_F4_V1.26.2/Middlewares/Third_Party/LwIP/src/core\tcp.c ****     pcb->netif_idx = netif_get_index(netif);
 988              		.loc 1 766 6 is_stmt 0 view .LVU270
 989 0000 21B1     		cbz	r1, .L108
 767:c:/Users/Black_Life/STM32Cube/Repository/STM32Cube_FW_F4_V1.26.2/Middlewares/Third_Party/LwIP/src/core\tcp.c ****   } else {
 990              		.loc 1 767 5 is_stmt 1 view .LVU271
 767:c:/Users/Black_Life/STM32Cube/Repository/STM32Cube_FW_F4_V1.26.2/Middlewares/Third_Party/LwIP/src/core\tcp.c ****   } else {
 991              		.loc 1 767 22 is_stmt 0 view .LVU272
 992 0002 91F83430 		ldrb	r3, [r1, #52]	@ zero_extendqisi2
 993 0006 0133     		adds	r3, r3, #1
 767:c:/Users/Black_Life/STM32Cube/Repository/STM32Cube_FW_F4_V1.26.2/Middlewares/Third_Party/LwIP/src/core\tcp.c ****   } else {
 994              		.loc 1 767 20 view .LVU273
ARM GAS  C:\Users\BLACK_~1\AppData\Local\Temp\ccRovO0r.s 			page 55


 995 0008 0372     		strb	r3, [r0, #8]
 996 000a 7047     		bx	lr
 997              	.L108:
 769:c:/Users/Black_Life/STM32Cube/Repository/STM32Cube_FW_F4_V1.26.2/Middlewares/Third_Party/LwIP/src/core\tcp.c ****   }
 998              		.loc 1 769 5 is_stmt 1 view .LVU274
 769:c:/Users/Black_Life/STM32Cube/Repository/STM32Cube_FW_F4_V1.26.2/Middlewares/Third_Party/LwIP/src/core\tcp.c ****   }
 999              		.loc 1 769 20 is_stmt 0 view .LVU275
 1000 000c 0023     		movs	r3, #0
 1001 000e 0372     		strb	r3, [r0, #8]
 771:c:/Users/Black_Life/STM32Cube/Repository/STM32Cube_FW_F4_V1.26.2/Middlewares/Third_Party/LwIP/src/core\tcp.c **** 
 1002              		.loc 1 771 1 view .LVU276
 1003 0010 7047     		bx	lr
 1004              		.cfi_endproc
 1005              	.LFE169:
 1007              		.section	.rodata.tcp_listen_with_backlog_and_err.str1.4,"aMS",%progbits,1
 1008              		.align	2
 1009              	.LC9:
 1010 0000 7463705F 		.ascii	"tcp_listen_with_backlog_and_err: invalid pcb\000"
 1010      6C697374 
 1010      656E5F77 
 1010      6974685F 
 1010      6261636B 
 1011 002d 000000   		.align	2
 1012              	.LC10:
 1013 0030 7463705F 		.ascii	"tcp_listen_with_backlog_and_err: pcb already connec"
 1013      6C697374 
 1013      656E5F77 
 1013      6974685F 
 1013      6261636B 
 1014 0063 74656400 		.ascii	"ted\000"
 1015              		.section	.text.tcp_listen_with_backlog_and_err,"ax",%progbits
 1016              		.align	1
 1017              		.global	tcp_listen_with_backlog_and_err
 1018              		.syntax unified
 1019              		.thumb
 1020              		.thumb_func
 1022              	tcp_listen_with_backlog_and_err:
 1023              	.LVL102:
 1024              	.LFB172:
 849:c:/Users/Black_Life/STM32Cube/Repository/STM32Cube_FW_F4_V1.26.2/Middlewares/Third_Party/LwIP/src/core\tcp.c ****   struct tcp_pcb_listen *lpcb = NULL;
 1025              		.loc 1 849 1 is_stmt 1 view -0
 1026              		.cfi_startproc
 1027              		@ args = 0, pretend = 0, frame = 0
 1028              		@ frame_needed = 0, uses_anonymous_args = 0
 849:c:/Users/Black_Life/STM32Cube/Repository/STM32Cube_FW_F4_V1.26.2/Middlewares/Third_Party/LwIP/src/core\tcp.c ****   struct tcp_pcb_listen *lpcb = NULL;
 1029              		.loc 1 849 1 is_stmt 0 view .LVU278
 1030 0000 70B5     		push	{r4, r5, r6, lr}
 1031              	.LCFI9:
 1032              		.cfi_def_cfa_offset 16
 1033              		.cfi_offset 4, -16
 1034              		.cfi_offset 5, -12
 1035              		.cfi_offset 6, -8
 1036              		.cfi_offset 14, -4
 1037 0002 1646     		mov	r6, r2
 850:c:/Users/Black_Life/STM32Cube/Repository/STM32Cube_FW_F4_V1.26.2/Middlewares/Third_Party/LwIP/src/core\tcp.c ****   err_t res;
 1038              		.loc 1 850 3 is_stmt 1 view .LVU279
 1039              	.LVL103:
ARM GAS  C:\Users\BLACK_~1\AppData\Local\Temp\ccRovO0r.s 			page 56


 851:c:/Users/Black_Life/STM32Cube/Repository/STM32Cube_FW_F4_V1.26.2/Middlewares/Third_Party/LwIP/src/core\tcp.c **** 
 1040              		.loc 1 851 3 view .LVU280
 853:c:/Users/Black_Life/STM32Cube/Repository/STM32Cube_FW_F4_V1.26.2/Middlewares/Third_Party/LwIP/src/core\tcp.c **** 
 1041              		.loc 1 853 3 view .LVU281
 855:c:/Users/Black_Life/STM32Cube/Repository/STM32Cube_FW_F4_V1.26.2/Middlewares/Third_Party/LwIP/src/core\tcp.c **** 
 1042              		.loc 1 855 28 view .LVU282
 857:c:/Users/Black_Life/STM32Cube/Repository/STM32Cube_FW_F4_V1.26.2/Middlewares/Third_Party/LwIP/src/core\tcp.c ****   LWIP_ERROR("tcp_listen_with_backlog_and_err: pcb already connected", pcb->state == CLOSED, res = 
 1043              		.loc 1 857 3 view .LVU283
 857:c:/Users/Black_Life/STM32Cube/Repository/STM32Cube_FW_F4_V1.26.2/Middlewares/Third_Party/LwIP/src/core\tcp.c ****   LWIP_ERROR("tcp_listen_with_backlog_and_err: pcb already connected", pcb->state == CLOSED, res = 
 1044              		.loc 1 857 3 view .LVU284
 1045 0004 0446     		mov	r4, r0
 1046 0006 40B3     		cbz	r0, .L123
 857:c:/Users/Black_Life/STM32Cube/Repository/STM32Cube_FW_F4_V1.26.2/Middlewares/Third_Party/LwIP/src/core\tcp.c ****   LWIP_ERROR("tcp_listen_with_backlog_and_err: pcb already connected", pcb->state == CLOSED, res = 
 1047              		.loc 1 857 3 discriminator 2 view .LVU285
 858:c:/Users/Black_Life/STM32Cube/Repository/STM32Cube_FW_F4_V1.26.2/Middlewares/Third_Party/LwIP/src/core\tcp.c **** 
 1048              		.loc 1 858 3 discriminator 2 view .LVU286
 858:c:/Users/Black_Life/STM32Cube/Repository/STM32Cube_FW_F4_V1.26.2/Middlewares/Third_Party/LwIP/src/core\tcp.c **** 
 1049              		.loc 1 858 3 discriminator 2 view .LVU287
 1050 0008 037D     		ldrb	r3, [r0, #20]	@ zero_extendqisi2
 1051 000a 002B     		cmp	r3, #0
 1052 000c 30D1     		bne	.L124
 858:c:/Users/Black_Life/STM32Cube/Repository/STM32Cube_FW_F4_V1.26.2/Middlewares/Third_Party/LwIP/src/core\tcp.c **** 
 1053              		.loc 1 858 3 discriminator 2 view .LVU288
 861:c:/Users/Black_Life/STM32Cube/Repository/STM32Cube_FW_F4_V1.26.2/Middlewares/Third_Party/LwIP/src/core\tcp.c ****     lpcb = (struct tcp_pcb_listen *)pcb;
 1054              		.loc 1 861 3 discriminator 2 view .LVU289
 861:c:/Users/Black_Life/STM32Cube/Repository/STM32Cube_FW_F4_V1.26.2/Middlewares/Third_Party/LwIP/src/core\tcp.c ****     lpcb = (struct tcp_pcb_listen *)pcb;
 1055              		.loc 1 861 6 is_stmt 0 discriminator 2 view .LVU290
 1056 000e 012B     		cmp	r3, #1
 1057 0010 51D0     		beq	.L119
 882:c:/Users/Black_Life/STM32Cube/Repository/STM32Cube_FW_F4_V1.26.2/Middlewares/Third_Party/LwIP/src/core\tcp.c ****   if (lpcb == NULL) {
 1058              		.loc 1 882 3 is_stmt 1 view .LVU291
 882:c:/Users/Black_Life/STM32Cube/Repository/STM32Cube_FW_F4_V1.26.2/Middlewares/Third_Party/LwIP/src/core\tcp.c ****   if (lpcb == NULL) {
 1059              		.loc 1 882 35 is_stmt 0 view .LVU292
 1060 0012 0220     		movs	r0, #2
 1061              	.LVL104:
 882:c:/Users/Black_Life/STM32Cube/Repository/STM32Cube_FW_F4_V1.26.2/Middlewares/Third_Party/LwIP/src/core\tcp.c ****   if (lpcb == NULL) {
 1062              		.loc 1 882 35 view .LVU293
 1063 0014 FFF7FEFF 		bl	memp_malloc
 1064              	.LVL105:
 883:c:/Users/Black_Life/STM32Cube/Repository/STM32Cube_FW_F4_V1.26.2/Middlewares/Third_Party/LwIP/src/core\tcp.c ****     res = ERR_MEM;
 1065              		.loc 1 883 3 is_stmt 1 view .LVU294
 883:c:/Users/Black_Life/STM32Cube/Repository/STM32Cube_FW_F4_V1.26.2/Middlewares/Third_Party/LwIP/src/core\tcp.c ****     res = ERR_MEM;
 1066              		.loc 1 883 6 is_stmt 0 view .LVU295
 1067 0018 0546     		mov	r5, r0
 1068 001a 0028     		cmp	r0, #0
 1069 001c 4FD0     		beq	.L120
 887:c:/Users/Black_Life/STM32Cube/Repository/STM32Cube_FW_F4_V1.26.2/Middlewares/Third_Party/LwIP/src/core\tcp.c ****   lpcb->local_port = pcb->local_port;
 1070              		.loc 1 887 3 is_stmt 1 view .LVU296
 887:c:/Users/Black_Life/STM32Cube/Repository/STM32Cube_FW_F4_V1.26.2/Middlewares/Third_Party/LwIP/src/core\tcp.c ****   lpcb->local_port = pcb->local_port;
 1071              		.loc 1 887 27 is_stmt 0 view .LVU297
 1072 001e 2369     		ldr	r3, [r4, #16]
 887:c:/Users/Black_Life/STM32Cube/Repository/STM32Cube_FW_F4_V1.26.2/Middlewares/Third_Party/LwIP/src/core\tcp.c ****   lpcb->local_port = pcb->local_port;
 1073              		.loc 1 887 22 view .LVU298
 1074 0020 0361     		str	r3, [r0, #16]
 888:c:/Users/Black_Life/STM32Cube/Repository/STM32Cube_FW_F4_V1.26.2/Middlewares/Third_Party/LwIP/src/core\tcp.c ****   lpcb->state = LISTEN;
 1075              		.loc 1 888 3 is_stmt 1 view .LVU299
 888:c:/Users/Black_Life/STM32Cube/Repository/STM32Cube_FW_F4_V1.26.2/Middlewares/Third_Party/LwIP/src/core\tcp.c ****   lpcb->state = LISTEN;
ARM GAS  C:\Users\BLACK_~1\AppData\Local\Temp\ccRovO0r.s 			page 57


 1076              		.loc 1 888 25 is_stmt 0 view .LVU300
 1077 0022 E38A     		ldrh	r3, [r4, #22]
 888:c:/Users/Black_Life/STM32Cube/Repository/STM32Cube_FW_F4_V1.26.2/Middlewares/Third_Party/LwIP/src/core\tcp.c ****   lpcb->state = LISTEN;
 1078              		.loc 1 888 20 view .LVU301
 1079 0024 C382     		strh	r3, [r0, #22]	@ movhi
 889:c:/Users/Black_Life/STM32Cube/Repository/STM32Cube_FW_F4_V1.26.2/Middlewares/Third_Party/LwIP/src/core\tcp.c ****   lpcb->prio = pcb->prio;
 1080              		.loc 1 889 3 is_stmt 1 view .LVU302
 889:c:/Users/Black_Life/STM32Cube/Repository/STM32Cube_FW_F4_V1.26.2/Middlewares/Third_Party/LwIP/src/core\tcp.c ****   lpcb->prio = pcb->prio;
 1081              		.loc 1 889 15 is_stmt 0 view .LVU303
 1082 0026 0123     		movs	r3, #1
 1083 0028 0375     		strb	r3, [r0, #20]
 890:c:/Users/Black_Life/STM32Cube/Repository/STM32Cube_FW_F4_V1.26.2/Middlewares/Third_Party/LwIP/src/core\tcp.c ****   lpcb->so_options = pcb->so_options;
 1084              		.loc 1 890 3 is_stmt 1 view .LVU304
 890:c:/Users/Black_Life/STM32Cube/Repository/STM32Cube_FW_F4_V1.26.2/Middlewares/Third_Party/LwIP/src/core\tcp.c ****   lpcb->so_options = pcb->so_options;
 1085              		.loc 1 890 19 is_stmt 0 view .LVU305
 1086 002a 637D     		ldrb	r3, [r4, #21]	@ zero_extendqisi2
 890:c:/Users/Black_Life/STM32Cube/Repository/STM32Cube_FW_F4_V1.26.2/Middlewares/Third_Party/LwIP/src/core\tcp.c ****   lpcb->so_options = pcb->so_options;
 1087              		.loc 1 890 14 view .LVU306
 1088 002c 4375     		strb	r3, [r0, #21]
 891:c:/Users/Black_Life/STM32Cube/Repository/STM32Cube_FW_F4_V1.26.2/Middlewares/Third_Party/LwIP/src/core\tcp.c ****   lpcb->netif_idx = NETIF_NO_INDEX;
 1089              		.loc 1 891 3 is_stmt 1 view .LVU307
 891:c:/Users/Black_Life/STM32Cube/Repository/STM32Cube_FW_F4_V1.26.2/Middlewares/Third_Party/LwIP/src/core\tcp.c ****   lpcb->netif_idx = NETIF_NO_INDEX;
 1090              		.loc 1 891 25 is_stmt 0 view .LVU308
 1091 002e 637A     		ldrb	r3, [r4, #9]	@ zero_extendqisi2
 891:c:/Users/Black_Life/STM32Cube/Repository/STM32Cube_FW_F4_V1.26.2/Middlewares/Third_Party/LwIP/src/core\tcp.c ****   lpcb->netif_idx = NETIF_NO_INDEX;
 1092              		.loc 1 891 20 view .LVU309
 1093 0030 4372     		strb	r3, [r0, #9]
 892:c:/Users/Black_Life/STM32Cube/Repository/STM32Cube_FW_F4_V1.26.2/Middlewares/Third_Party/LwIP/src/core\tcp.c ****   lpcb->ttl = pcb->ttl;
 1094              		.loc 1 892 3 is_stmt 1 view .LVU310
 892:c:/Users/Black_Life/STM32Cube/Repository/STM32Cube_FW_F4_V1.26.2/Middlewares/Third_Party/LwIP/src/core\tcp.c ****   lpcb->ttl = pcb->ttl;
 1095              		.loc 1 892 19 is_stmt 0 view .LVU311
 1096 0032 0023     		movs	r3, #0
 1097 0034 0372     		strb	r3, [r0, #8]
 893:c:/Users/Black_Life/STM32Cube/Repository/STM32Cube_FW_F4_V1.26.2/Middlewares/Third_Party/LwIP/src/core\tcp.c ****   lpcb->tos = pcb->tos;
 1098              		.loc 1 893 3 is_stmt 1 view .LVU312
 893:c:/Users/Black_Life/STM32Cube/Repository/STM32Cube_FW_F4_V1.26.2/Middlewares/Third_Party/LwIP/src/core\tcp.c ****   lpcb->tos = pcb->tos;
 1099              		.loc 1 893 18 is_stmt 0 view .LVU313
 1100 0036 E37A     		ldrb	r3, [r4, #11]	@ zero_extendqisi2
 893:c:/Users/Black_Life/STM32Cube/Repository/STM32Cube_FW_F4_V1.26.2/Middlewares/Third_Party/LwIP/src/core\tcp.c ****   lpcb->tos = pcb->tos;
 1101              		.loc 1 893 13 view .LVU314
 1102 0038 C372     		strb	r3, [r0, #11]
 894:c:/Users/Black_Life/STM32Cube/Repository/STM32Cube_FW_F4_V1.26.2/Middlewares/Third_Party/LwIP/src/core\tcp.c **** #if LWIP_IPV4 && LWIP_IPV6
 1103              		.loc 1 894 3 is_stmt 1 view .LVU315
 894:c:/Users/Black_Life/STM32Cube/Repository/STM32Cube_FW_F4_V1.26.2/Middlewares/Third_Party/LwIP/src/core\tcp.c **** #if LWIP_IPV4 && LWIP_IPV6
 1104              		.loc 1 894 18 is_stmt 0 view .LVU316
 1105 003a A37A     		ldrb	r3, [r4, #10]	@ zero_extendqisi2
 894:c:/Users/Black_Life/STM32Cube/Repository/STM32Cube_FW_F4_V1.26.2/Middlewares/Third_Party/LwIP/src/core\tcp.c **** #if LWIP_IPV4 && LWIP_IPV6
 1106              		.loc 1 894 13 view .LVU317
 1107 003c 8372     		strb	r3, [r0, #10]
 898:c:/Users/Black_Life/STM32Cube/Repository/STM32Cube_FW_F4_V1.26.2/Middlewares/Third_Party/LwIP/src/core\tcp.c ****   if (pcb->local_port != 0) {
 1108              		.loc 1 898 3 is_stmt 1 view .LVU318
 1109 003e 2368     		ldr	r3, [r4]
 1110 0040 0360     		str	r3, [r0]
 899:c:/Users/Black_Life/STM32Cube/Repository/STM32Cube_FW_F4_V1.26.2/Middlewares/Third_Party/LwIP/src/core\tcp.c ****     TCP_RMV(&tcp_bound_pcbs, pcb);
 1111              		.loc 1 899 3 view .LVU319
 899:c:/Users/Black_Life/STM32Cube/Repository/STM32Cube_FW_F4_V1.26.2/Middlewares/Third_Party/LwIP/src/core\tcp.c ****     TCP_RMV(&tcp_bound_pcbs, pcb);
 1112              		.loc 1 899 10 is_stmt 0 view .LVU320
ARM GAS  C:\Users\BLACK_~1\AppData\Local\Temp\ccRovO0r.s 			page 58


 1113 0042 E38A     		ldrh	r3, [r4, #22]
 899:c:/Users/Black_Life/STM32Cube/Repository/STM32Cube_FW_F4_V1.26.2/Middlewares/Third_Party/LwIP/src/core\tcp.c ****     TCP_RMV(&tcp_bound_pcbs, pcb);
 1114              		.loc 1 899 6 view .LVU321
 1115 0044 3BB3     		cbz	r3, .L114
 900:c:/Users/Black_Life/STM32Cube/Repository/STM32Cube_FW_F4_V1.26.2/Middlewares/Third_Party/LwIP/src/core\tcp.c ****   }
 1116              		.loc 1 900 5 is_stmt 1 view .LVU322
 900:c:/Users/Black_Life/STM32Cube/Repository/STM32Cube_FW_F4_V1.26.2/Middlewares/Third_Party/LwIP/src/core\tcp.c ****   }
 1117              		.loc 1 900 5 view .LVU323
 1118 0046 1F4B     		ldr	r3, .L127
 1119 0048 1B68     		ldr	r3, [r3]
 1120 004a A342     		cmp	r3, r4
 1121 004c 1BD0     		beq	.L125
 1122              	.L115:
 1123              	.LVL106:
 1124              	.LBB3:
 900:c:/Users/Black_Life/STM32Cube/Repository/STM32Cube_FW_F4_V1.26.2/Middlewares/Third_Party/LwIP/src/core\tcp.c ****   }
 1125              		.loc 1 900 5 discriminator 8 view .LVU324
 1126 004e 03B3     		cbz	r3, .L116
 900:c:/Users/Black_Life/STM32Cube/Repository/STM32Cube_FW_F4_V1.26.2/Middlewares/Third_Party/LwIP/src/core\tcp.c ****   }
 1127              		.loc 1 900 5 discriminator 9 view .LVU325
 1128 0050 DA68     		ldr	r2, [r3, #12]
 1129 0052 A242     		cmp	r2, r4
 1130 0054 1BD0     		beq	.L126
 900:c:/Users/Black_Life/STM32Cube/Repository/STM32Cube_FW_F4_V1.26.2/Middlewares/Third_Party/LwIP/src/core\tcp.c ****   }
 1131              		.loc 1 900 5 is_stmt 0 view .LVU326
 1132 0056 1346     		mov	r3, r2
 1133              	.LVL107:
 900:c:/Users/Black_Life/STM32Cube/Repository/STM32Cube_FW_F4_V1.26.2/Middlewares/Third_Party/LwIP/src/core\tcp.c ****   }
 1134              		.loc 1 900 5 view .LVU327
 1135 0058 F9E7     		b	.L115
 1136              	.LVL108:
 1137              	.L123:
 900:c:/Users/Black_Life/STM32Cube/Repository/STM32Cube_FW_F4_V1.26.2/Middlewares/Third_Party/LwIP/src/core\tcp.c ****   }
 1138              		.loc 1 900 5 view .LVU328
 1139              	.LBE3:
 857:c:/Users/Black_Life/STM32Cube/Repository/STM32Cube_FW_F4_V1.26.2/Middlewares/Third_Party/LwIP/src/core\tcp.c ****   LWIP_ERROR("tcp_listen_with_backlog_and_err: pcb already connected", pcb->state == CLOSED, res = 
 1140              		.loc 1 857 3 is_stmt 1 discriminator 1 view .LVU329
 857:c:/Users/Black_Life/STM32Cube/Repository/STM32Cube_FW_F4_V1.26.2/Middlewares/Third_Party/LwIP/src/core\tcp.c ****   LWIP_ERROR("tcp_listen_with_backlog_and_err: pcb already connected", pcb->state == CLOSED, res = 
 1141              		.loc 1 857 3 discriminator 1 view .LVU330
 1142 005a 1B4B     		ldr	r3, .L127+4
 1143 005c 40F25932 		movw	r2, #857
 1144              	.LVL109:
 857:c:/Users/Black_Life/STM32Cube/Repository/STM32Cube_FW_F4_V1.26.2/Middlewares/Third_Party/LwIP/src/core\tcp.c ****   LWIP_ERROR("tcp_listen_with_backlog_and_err: pcb already connected", pcb->state == CLOSED, res = 
 1145              		.loc 1 857 3 is_stmt 0 discriminator 1 view .LVU331
 1146 0060 1A49     		ldr	r1, .L127+8
 1147              	.LVL110:
 857:c:/Users/Black_Life/STM32Cube/Repository/STM32Cube_FW_F4_V1.26.2/Middlewares/Third_Party/LwIP/src/core\tcp.c ****   LWIP_ERROR("tcp_listen_with_backlog_and_err: pcb already connected", pcb->state == CLOSED, res = 
 1148              		.loc 1 857 3 discriminator 1 view .LVU332
 1149 0062 1B48     		ldr	r0, .L127+12
 1150              	.LVL111:
 857:c:/Users/Black_Life/STM32Cube/Repository/STM32Cube_FW_F4_V1.26.2/Middlewares/Third_Party/LwIP/src/core\tcp.c ****   LWIP_ERROR("tcp_listen_with_backlog_and_err: pcb already connected", pcb->state == CLOSED, res = 
 1151              		.loc 1 857 3 discriminator 1 view .LVU333
 1152 0064 FFF7FEFF 		bl	printf
 1153              	.LVL112:
 857:c:/Users/Black_Life/STM32Cube/Repository/STM32Cube_FW_F4_V1.26.2/Middlewares/Third_Party/LwIP/src/core\tcp.c ****   LWIP_ERROR("tcp_listen_with_backlog_and_err: pcb already connected", pcb->state == CLOSED, res = 
 1154              		.loc 1 857 3 is_stmt 1 discriminator 1 view .LVU334
 857:c:/Users/Black_Life/STM32Cube/Repository/STM32Cube_FW_F4_V1.26.2/Middlewares/Third_Party/LwIP/src/core\tcp.c ****   LWIP_ERROR("tcp_listen_with_backlog_and_err: pcb already connected", pcb->state == CLOSED, res = 
ARM GAS  C:\Users\BLACK_~1\AppData\Local\Temp\ccRovO0r.s 			page 59


 1155              		.loc 1 857 3 discriminator 1 view .LVU335
 857:c:/Users/Black_Life/STM32Cube/Repository/STM32Cube_FW_F4_V1.26.2/Middlewares/Third_Party/LwIP/src/core\tcp.c ****   LWIP_ERROR("tcp_listen_with_backlog_and_err: pcb already connected", pcb->state == CLOSED, res = 
 1156              		.loc 1 857 3 discriminator 1 view .LVU336
 850:c:/Users/Black_Life/STM32Cube/Repository/STM32Cube_FW_F4_V1.26.2/Middlewares/Third_Party/LwIP/src/core\tcp.c ****   err_t res;
 1157              		.loc 1 850 26 is_stmt 0 discriminator 1 view .LVU337
 1158 0068 2546     		mov	r5, r4
 857:c:/Users/Black_Life/STM32Cube/Repository/STM32Cube_FW_F4_V1.26.2/Middlewares/Third_Party/LwIP/src/core\tcp.c ****   LWIP_ERROR("tcp_listen_with_backlog_and_err: pcb already connected", pcb->state == CLOSED, res = 
 1159              		.loc 1 857 3 discriminator 1 view .LVU338
 1160 006a 6FF00F03 		mvn	r3, #15
 1161 006e 1EE0     		b	.L112
 1162              	.LVL113:
 1163              	.L124:
 858:c:/Users/Black_Life/STM32Cube/Repository/STM32Cube_FW_F4_V1.26.2/Middlewares/Third_Party/LwIP/src/core\tcp.c **** 
 1164              		.loc 1 858 3 is_stmt 1 discriminator 1 view .LVU339
 858:c:/Users/Black_Life/STM32Cube/Repository/STM32Cube_FW_F4_V1.26.2/Middlewares/Third_Party/LwIP/src/core\tcp.c **** 
 1165              		.loc 1 858 3 discriminator 1 view .LVU340
 1166 0070 154B     		ldr	r3, .L127+4
 1167 0072 40F25A32 		movw	r2, #858
 1168              	.LVL114:
 858:c:/Users/Black_Life/STM32Cube/Repository/STM32Cube_FW_F4_V1.26.2/Middlewares/Third_Party/LwIP/src/core\tcp.c **** 
 1169              		.loc 1 858 3 is_stmt 0 discriminator 1 view .LVU341
 1170 0076 1749     		ldr	r1, .L127+16
 1171              	.LVL115:
 858:c:/Users/Black_Life/STM32Cube/Repository/STM32Cube_FW_F4_V1.26.2/Middlewares/Third_Party/LwIP/src/core\tcp.c **** 
 1172              		.loc 1 858 3 discriminator 1 view .LVU342
 1173 0078 1548     		ldr	r0, .L127+12
 1174              	.LVL116:
 858:c:/Users/Black_Life/STM32Cube/Repository/STM32Cube_FW_F4_V1.26.2/Middlewares/Third_Party/LwIP/src/core\tcp.c **** 
 1175              		.loc 1 858 3 discriminator 1 view .LVU343
 1176 007a FFF7FEFF 		bl	printf
 1177              	.LVL117:
 858:c:/Users/Black_Life/STM32Cube/Repository/STM32Cube_FW_F4_V1.26.2/Middlewares/Third_Party/LwIP/src/core\tcp.c **** 
 1178              		.loc 1 858 3 is_stmt 1 discriminator 1 view .LVU344
 858:c:/Users/Black_Life/STM32Cube/Repository/STM32Cube_FW_F4_V1.26.2/Middlewares/Third_Party/LwIP/src/core\tcp.c **** 
 1179              		.loc 1 858 3 discriminator 1 view .LVU345
 858:c:/Users/Black_Life/STM32Cube/Repository/STM32Cube_FW_F4_V1.26.2/Middlewares/Third_Party/LwIP/src/core\tcp.c **** 
 1180              		.loc 1 858 3 discriminator 1 view .LVU346
 1181 007e 6FF00E03 		mvn	r3, #14
 850:c:/Users/Black_Life/STM32Cube/Repository/STM32Cube_FW_F4_V1.26.2/Middlewares/Third_Party/LwIP/src/core\tcp.c ****   err_t res;
 1182              		.loc 1 850 26 is_stmt 0 discriminator 1 view .LVU347
 1183 0082 0025     		movs	r5, #0
 858:c:/Users/Black_Life/STM32Cube/Repository/STM32Cube_FW_F4_V1.26.2/Middlewares/Third_Party/LwIP/src/core\tcp.c **** 
 1184              		.loc 1 858 3 discriminator 1 view .LVU348
 1185 0084 13E0     		b	.L112
 1186              	.LVL118:
 1187              	.L125:
 900:c:/Users/Black_Life/STM32Cube/Repository/STM32Cube_FW_F4_V1.26.2/Middlewares/Third_Party/LwIP/src/core\tcp.c ****   }
 1188              		.loc 1 900 5 is_stmt 1 discriminator 1 view .LVU349
 1189 0086 DA68     		ldr	r2, [r3, #12]
 1190 0088 0E4B     		ldr	r3, .L127
 1191 008a 1A60     		str	r2, [r3]
 1192 008c 01E0     		b	.L116
 1193              	.LVL119:
 1194              	.L126:
 1195              	.LBB4:
 900:c:/Users/Black_Life/STM32Cube/Repository/STM32Cube_FW_F4_V1.26.2/Middlewares/Third_Party/LwIP/src/core\tcp.c ****   }
 1196              		.loc 1 900 5 discriminator 5 view .LVU350
ARM GAS  C:\Users\BLACK_~1\AppData\Local\Temp\ccRovO0r.s 			page 60


 1197 008e E268     		ldr	r2, [r4, #12]
 1198 0090 DA60     		str	r2, [r3, #12]
 900:c:/Users/Black_Life/STM32Cube/Repository/STM32Cube_FW_F4_V1.26.2/Middlewares/Third_Party/LwIP/src/core\tcp.c ****   }
 1199              		.loc 1 900 5 discriminator 5 view .LVU351
 1200              	.LVL120:
 1201              	.L116:
 900:c:/Users/Black_Life/STM32Cube/Repository/STM32Cube_FW_F4_V1.26.2/Middlewares/Third_Party/LwIP/src/core\tcp.c ****   }
 1202              		.loc 1 900 5 is_stmt 0 discriminator 5 view .LVU352
 1203              	.LBE4:
 900:c:/Users/Black_Life/STM32Cube/Repository/STM32Cube_FW_F4_V1.26.2/Middlewares/Third_Party/LwIP/src/core\tcp.c ****   }
 1204              		.loc 1 900 5 is_stmt 1 discriminator 10 view .LVU353
 1205 0092 0023     		movs	r3, #0
 1206 0094 E360     		str	r3, [r4, #12]
 1207              	.L114:
 900:c:/Users/Black_Life/STM32Cube/Repository/STM32Cube_FW_F4_V1.26.2/Middlewares/Third_Party/LwIP/src/core\tcp.c ****   }
 1208              		.loc 1 900 5 discriminator 11 view .LVU354
 906:c:/Users/Black_Life/STM32Cube/Repository/STM32Cube_FW_F4_V1.26.2/Middlewares/Third_Party/LwIP/src/core\tcp.c **** #if LWIP_CALLBACK_API
 1209              		.loc 1 906 3 discriminator 11 view .LVU355
 1210 0096 2046     		mov	r0, r4
 1211              	.LVL121:
 906:c:/Users/Black_Life/STM32Cube/Repository/STM32Cube_FW_F4_V1.26.2/Middlewares/Third_Party/LwIP/src/core\tcp.c **** #if LWIP_CALLBACK_API
 1212              		.loc 1 906 3 is_stmt 0 discriminator 11 view .LVU356
 1213 0098 FFF7FEFF 		bl	tcp_free
 1214              	.LVL122:
 908:c:/Users/Black_Life/STM32Cube/Repository/STM32Cube_FW_F4_V1.26.2/Middlewares/Third_Party/LwIP/src/core\tcp.c **** #endif /* LWIP_CALLBACK_API */
 1215              		.loc 1 908 3 is_stmt 1 discriminator 11 view .LVU357
 908:c:/Users/Black_Life/STM32Cube/Repository/STM32Cube_FW_F4_V1.26.2/Middlewares/Third_Party/LwIP/src/core\tcp.c **** #endif /* LWIP_CALLBACK_API */
 1216              		.loc 1 908 16 is_stmt 0 discriminator 11 view .LVU358
 1217 009c 0E4B     		ldr	r3, .L127+20
 1218 009e AB61     		str	r3, [r5, #24]
 914:c:/Users/Black_Life/STM32Cube/Repository/STM32Cube_FW_F4_V1.26.2/Middlewares/Third_Party/LwIP/src/core\tcp.c ****   res = ERR_OK;
 1219              		.loc 1 914 3 is_stmt 1 discriminator 11 view .LVU359
 914:c:/Users/Black_Life/STM32Cube/Repository/STM32Cube_FW_F4_V1.26.2/Middlewares/Third_Party/LwIP/src/core\tcp.c ****   res = ERR_OK;
 1220              		.loc 1 914 3 discriminator 11 view .LVU360
 1221 00a0 0E4B     		ldr	r3, .L127+24
 1222 00a2 1A68     		ldr	r2, [r3]
 1223 00a4 EA60     		str	r2, [r5, #12]
 914:c:/Users/Black_Life/STM32Cube/Repository/STM32Cube_FW_F4_V1.26.2/Middlewares/Third_Party/LwIP/src/core\tcp.c ****   res = ERR_OK;
 1224              		.loc 1 914 3 discriminator 11 view .LVU361
 1225 00a6 1D60     		str	r5, [r3]
 914:c:/Users/Black_Life/STM32Cube/Repository/STM32Cube_FW_F4_V1.26.2/Middlewares/Third_Party/LwIP/src/core\tcp.c ****   res = ERR_OK;
 1226              		.loc 1 914 3 discriminator 11 view .LVU362
 1227 00a8 FFF7FEFF 		bl	tcp_timer_needed
 1228              	.LVL123:
 914:c:/Users/Black_Life/STM32Cube/Repository/STM32Cube_FW_F4_V1.26.2/Middlewares/Third_Party/LwIP/src/core\tcp.c ****   res = ERR_OK;
 1229              		.loc 1 914 3 discriminator 11 view .LVU363
 915:c:/Users/Black_Life/STM32Cube/Repository/STM32Cube_FW_F4_V1.26.2/Middlewares/Third_Party/LwIP/src/core\tcp.c **** done:
 1230              		.loc 1 915 3 discriminator 11 view .LVU364
 915:c:/Users/Black_Life/STM32Cube/Repository/STM32Cube_FW_F4_V1.26.2/Middlewares/Third_Party/LwIP/src/core\tcp.c **** done:
 1231              		.loc 1 915 7 is_stmt 0 discriminator 11 view .LVU365
 1232 00ac 0023     		movs	r3, #0
 1233              	.LVL124:
 1234              	.L112:
 917:c:/Users/Black_Life/STM32Cube/Repository/STM32Cube_FW_F4_V1.26.2/Middlewares/Third_Party/LwIP/src/core\tcp.c ****     *err = res;
 1235              		.loc 1 917 3 is_stmt 1 view .LVU366
 917:c:/Users/Black_Life/STM32Cube/Repository/STM32Cube_FW_F4_V1.26.2/Middlewares/Third_Party/LwIP/src/core\tcp.c ****     *err = res;
 1236              		.loc 1 917 6 is_stmt 0 view .LVU367
ARM GAS  C:\Users\BLACK_~1\AppData\Local\Temp\ccRovO0r.s 			page 61


 1237 00ae 06B1     		cbz	r6, .L110
 918:c:/Users/Black_Life/STM32Cube/Repository/STM32Cube_FW_F4_V1.26.2/Middlewares/Third_Party/LwIP/src/core\tcp.c ****   }
 1238              		.loc 1 918 5 is_stmt 1 view .LVU368
 918:c:/Users/Black_Life/STM32Cube/Repository/STM32Cube_FW_F4_V1.26.2/Middlewares/Third_Party/LwIP/src/core\tcp.c ****   }
 1239              		.loc 1 918 10 is_stmt 0 view .LVU369
 1240 00b0 3370     		strb	r3, [r6]
 920:c:/Users/Black_Life/STM32Cube/Repository/STM32Cube_FW_F4_V1.26.2/Middlewares/Third_Party/LwIP/src/core\tcp.c **** }
 1241              		.loc 1 920 3 is_stmt 1 view .LVU370
 1242              	.L110:
 921:c:/Users/Black_Life/STM32Cube/Repository/STM32Cube_FW_F4_V1.26.2/Middlewares/Third_Party/LwIP/src/core\tcp.c **** 
 1243              		.loc 1 921 1 is_stmt 0 view .LVU371
 1244 00b2 2846     		mov	r0, r5
 1245 00b4 70BD     		pop	{r4, r5, r6, pc}
 1246              	.LVL125:
 1247              	.L119:
 862:c:/Users/Black_Life/STM32Cube/Repository/STM32Cube_FW_F4_V1.26.2/Middlewares/Third_Party/LwIP/src/core\tcp.c ****     res = ERR_ALREADY;
 1248              		.loc 1 862 10 view .LVU372
 1249 00b6 0546     		mov	r5, r0
 863:c:/Users/Black_Life/STM32Cube/Repository/STM32Cube_FW_F4_V1.26.2/Middlewares/Third_Party/LwIP/src/core\tcp.c ****     goto done;
 1250              		.loc 1 863 9 view .LVU373
 1251 00b8 6FF00803 		mvn	r3, #8
 1252 00bc F7E7     		b	.L112
 1253              	.LVL126:
 1254              	.L120:
 884:c:/Users/Black_Life/STM32Cube/Repository/STM32Cube_FW_F4_V1.26.2/Middlewares/Third_Party/LwIP/src/core\tcp.c ****     goto done;
 1255              		.loc 1 884 9 view .LVU374
 1256 00be 4FF0FF33 		mov	r3, #-1
 1257 00c2 F4E7     		b	.L112
 1258              	.L128:
 1259              		.align	2
 1260              	.L127:
 1261 00c4 00000000 		.word	.LANCHOR3
 1262 00c8 00000000 		.word	.LC0
 1263 00cc 00000000 		.word	.LC9
 1264 00d0 98000000 		.word	.LC2
 1265 00d4 30000000 		.word	.LC10
 1266 00d8 00000000 		.word	tcp_accept_null
 1267 00dc 00000000 		.word	.LANCHOR4
 1268              		.cfi_endproc
 1269              	.LFE172:
 1271              		.section	.text.tcp_listen_with_backlog,"ax",%progbits
 1272              		.align	1
 1273              		.global	tcp_listen_with_backlog
 1274              		.syntax unified
 1275              		.thumb
 1276              		.thumb_func
 1278              	tcp_listen_with_backlog:
 1279              	.LVL127:
 1280              	.LFB171:
 826:c:/Users/Black_Life/STM32Cube/Repository/STM32Cube_FW_F4_V1.26.2/Middlewares/Third_Party/LwIP/src/core\tcp.c ****   LWIP_ASSERT_CORE_LOCKED();
 1281              		.loc 1 826 1 is_stmt 1 view -0
 1282              		.cfi_startproc
 1283              		@ args = 0, pretend = 0, frame = 0
 1284              		@ frame_needed = 0, uses_anonymous_args = 0
 826:c:/Users/Black_Life/STM32Cube/Repository/STM32Cube_FW_F4_V1.26.2/Middlewares/Third_Party/LwIP/src/core\tcp.c ****   LWIP_ASSERT_CORE_LOCKED();
 1285              		.loc 1 826 1 is_stmt 0 view .LVU376
 1286 0000 08B5     		push	{r3, lr}
ARM GAS  C:\Users\BLACK_~1\AppData\Local\Temp\ccRovO0r.s 			page 62


 1287              	.LCFI10:
 1288              		.cfi_def_cfa_offset 8
 1289              		.cfi_offset 3, -8
 1290              		.cfi_offset 14, -4
 827:c:/Users/Black_Life/STM32Cube/Repository/STM32Cube_FW_F4_V1.26.2/Middlewares/Third_Party/LwIP/src/core\tcp.c ****   return tcp_listen_with_backlog_and_err(pcb, backlog, NULL);
 1291              		.loc 1 827 28 is_stmt 1 view .LVU377
 828:c:/Users/Black_Life/STM32Cube/Repository/STM32Cube_FW_F4_V1.26.2/Middlewares/Third_Party/LwIP/src/core\tcp.c **** }
 1292              		.loc 1 828 3 view .LVU378
 828:c:/Users/Black_Life/STM32Cube/Repository/STM32Cube_FW_F4_V1.26.2/Middlewares/Third_Party/LwIP/src/core\tcp.c **** }
 1293              		.loc 1 828 10 is_stmt 0 view .LVU379
 1294 0002 0022     		movs	r2, #0
 1295 0004 FFF7FEFF 		bl	tcp_listen_with_backlog_and_err
 1296              	.LVL128:
 829:c:/Users/Black_Life/STM32Cube/Repository/STM32Cube_FW_F4_V1.26.2/Middlewares/Third_Party/LwIP/src/core\tcp.c **** 
 1297              		.loc 1 829 1 view .LVU380
 1298 0008 08BD     		pop	{r3, pc}
 1299              		.cfi_endproc
 1300              	.LFE171:
 1302              		.section	.rodata.tcp_update_rcv_ann_wnd.str1.4,"aMS",%progbits,1
 1303              		.align	2
 1304              	.LC11:
 1305 0000 7463705F 		.ascii	"tcp_update_rcv_ann_wnd: invalid pcb\000"
 1305      75706461 
 1305      74655F72 
 1305      63765F61 
 1305      6E6E5F77 
 1306              		.align	2
 1307              	.LC12:
 1308 0024 6E65775F 		.ascii	"new_rcv_ann_wnd <= 0xffff\000"
 1308      7263765F 
 1308      616E6E5F 
 1308      776E6420 
 1308      3C3D2030 
 1309              		.section	.text.tcp_update_rcv_ann_wnd,"ax",%progbits
 1310              		.align	1
 1311              		.global	tcp_update_rcv_ann_wnd
 1312              		.syntax unified
 1313              		.thumb
 1314              		.thumb_func
 1316              	tcp_update_rcv_ann_wnd:
 1317              	.LVL129:
 1318              	.LFB173:
 931:c:/Users/Black_Life/STM32Cube/Repository/STM32Cube_FW_F4_V1.26.2/Middlewares/Third_Party/LwIP/src/core\tcp.c ****   u32_t new_right_edge;
 1319              		.loc 1 931 1 is_stmt 1 view -0
 1320              		.cfi_startproc
 1321              		@ args = 0, pretend = 0, frame = 0
 1322              		@ frame_needed = 0, uses_anonymous_args = 0
 931:c:/Users/Black_Life/STM32Cube/Repository/STM32Cube_FW_F4_V1.26.2/Middlewares/Third_Party/LwIP/src/core\tcp.c ****   u32_t new_right_edge;
 1323              		.loc 1 931 1 is_stmt 0 view .LVU382
 1324 0000 38B5     		push	{r3, r4, r5, lr}
 1325              	.LCFI11:
 1326              		.cfi_def_cfa_offset 16
 1327              		.cfi_offset 3, -16
 1328              		.cfi_offset 4, -12
 1329              		.cfi_offset 5, -8
 1330              		.cfi_offset 14, -4
 932:c:/Users/Black_Life/STM32Cube/Repository/STM32Cube_FW_F4_V1.26.2/Middlewares/Third_Party/LwIP/src/core\tcp.c **** 
ARM GAS  C:\Users\BLACK_~1\AppData\Local\Temp\ccRovO0r.s 			page 63


 1331              		.loc 1 932 3 is_stmt 1 view .LVU383
 934:c:/Users/Black_Life/STM32Cube/Repository/STM32Cube_FW_F4_V1.26.2/Middlewares/Third_Party/LwIP/src/core\tcp.c ****   new_right_edge = pcb->rcv_nxt + pcb->rcv_wnd;
 1332              		.loc 1 934 3 view .LVU384
 934:c:/Users/Black_Life/STM32Cube/Repository/STM32Cube_FW_F4_V1.26.2/Middlewares/Third_Party/LwIP/src/core\tcp.c ****   new_right_edge = pcb->rcv_nxt + pcb->rcv_wnd;
 1333              		.loc 1 934 3 view .LVU385
 1334 0002 0446     		mov	r4, r0
 1335 0004 90B1     		cbz	r0, .L139
 1336              	.LVL130:
 1337              	.L132:
 934:c:/Users/Black_Life/STM32Cube/Repository/STM32Cube_FW_F4_V1.26.2/Middlewares/Third_Party/LwIP/src/core\tcp.c ****   new_right_edge = pcb->rcv_nxt + pcb->rcv_wnd;
 1338              		.loc 1 934 3 discriminator 3 view .LVU386
 934:c:/Users/Black_Life/STM32Cube/Repository/STM32Cube_FW_F4_V1.26.2/Middlewares/Third_Party/LwIP/src/core\tcp.c ****   new_right_edge = pcb->rcv_nxt + pcb->rcv_wnd;
 1339              		.loc 1 934 3 discriminator 3 view .LVU387
 935:c:/Users/Black_Life/STM32Cube/Repository/STM32Cube_FW_F4_V1.26.2/Middlewares/Third_Party/LwIP/src/core\tcp.c **** 
 1340              		.loc 1 935 3 discriminator 3 view .LVU388
 935:c:/Users/Black_Life/STM32Cube/Repository/STM32Cube_FW_F4_V1.26.2/Middlewares/Third_Party/LwIP/src/core\tcp.c **** 
 1341              		.loc 1 935 23 is_stmt 0 discriminator 3 view .LVU389
 1342 0006 656A     		ldr	r5, [r4, #36]
 935:c:/Users/Black_Life/STM32Cube/Repository/STM32Cube_FW_F4_V1.26.2/Middlewares/Third_Party/LwIP/src/core\tcp.c **** 
 1343              		.loc 1 935 38 discriminator 3 view .LVU390
 1344 0008 218D     		ldrh	r1, [r4, #40]
 935:c:/Users/Black_Life/STM32Cube/Repository/STM32Cube_FW_F4_V1.26.2/Middlewares/Third_Party/LwIP/src/core\tcp.c **** 
 1345              		.loc 1 935 18 discriminator 3 view .LVU391
 1346 000a 6818     		adds	r0, r5, r1
 1347              	.LVL131:
 937:c:/Users/Black_Life/STM32Cube/Repository/STM32Cube_FW_F4_V1.26.2/Middlewares/Third_Party/LwIP/src/core\tcp.c ****     /* we can advertise more window */
 1348              		.loc 1 937 3 is_stmt 1 discriminator 3 view .LVU392
 937:c:/Users/Black_Life/STM32Cube/Repository/STM32Cube_FW_F4_V1.26.2/Middlewares/Third_Party/LwIP/src/core\tcp.c ****     /* we can advertise more window */
 1349              		.loc 1 937 7 is_stmt 0 discriminator 3 view .LVU393
 1350 000c E26A     		ldr	r2, [r4, #44]
 1351 000e B4F832C0 		ldrh	ip, [r4, #50]
 1352 0012 BCF5866F 		cmp	ip, #1072
 1353 0016 94BF     		ite	ls
 1354 0018 02EB0C03 		addls	r3, r2, ip
 1355 001c 02F58663 		addhi	r3, r2, #1072
 1356 0020 C31A     		subs	r3, r0, r3
 937:c:/Users/Black_Life/STM32Cube/Repository/STM32Cube_FW_F4_V1.26.2/Middlewares/Third_Party/LwIP/src/core\tcp.c ****     /* we can advertise more window */
 1357              		.loc 1 937 6 discriminator 3 view .LVU394
 1358 0022 002B     		cmp	r3, #0
 1359 0024 0ADB     		blt	.L133
 939:c:/Users/Black_Life/STM32Cube/Repository/STM32Cube_FW_F4_V1.26.2/Middlewares/Third_Party/LwIP/src/core\tcp.c ****     return new_right_edge - pcb->rcv_ann_right_edge;
 1360              		.loc 1 939 5 is_stmt 1 view .LVU395
 939:c:/Users/Black_Life/STM32Cube/Repository/STM32Cube_FW_F4_V1.26.2/Middlewares/Third_Party/LwIP/src/core\tcp.c ****     return new_right_edge - pcb->rcv_ann_right_edge;
 1361              		.loc 1 939 22 is_stmt 0 view .LVU396
 1362 0026 6185     		strh	r1, [r4, #42]	@ movhi
 940:c:/Users/Black_Life/STM32Cube/Repository/STM32Cube_FW_F4_V1.26.2/Middlewares/Third_Party/LwIP/src/core\tcp.c ****   } else {
 1363              		.loc 1 940 5 is_stmt 1 view .LVU397
 940:c:/Users/Black_Life/STM32Cube/Repository/STM32Cube_FW_F4_V1.26.2/Middlewares/Third_Party/LwIP/src/core\tcp.c ****   } else {
 1364              		.loc 1 940 27 is_stmt 0 view .LVU398
 1365 0028 801A     		subs	r0, r0, r2
 1366              	.LVL132:
 1367              	.L131:
 956:c:/Users/Black_Life/STM32Cube/Repository/STM32Cube_FW_F4_V1.26.2/Middlewares/Third_Party/LwIP/src/core\tcp.c **** 
 1368              		.loc 1 956 1 view .LVU399
 1369 002a 38BD     		pop	{r3, r4, r5, pc}
 1370              	.LVL133:
 1371              	.L139:
ARM GAS  C:\Users\BLACK_~1\AppData\Local\Temp\ccRovO0r.s 			page 64


 934:c:/Users/Black_Life/STM32Cube/Repository/STM32Cube_FW_F4_V1.26.2/Middlewares/Third_Party/LwIP/src/core\tcp.c ****   new_right_edge = pcb->rcv_nxt + pcb->rcv_wnd;
 1372              		.loc 1 934 3 is_stmt 1 discriminator 1 view .LVU400
 934:c:/Users/Black_Life/STM32Cube/Repository/STM32Cube_FW_F4_V1.26.2/Middlewares/Third_Party/LwIP/src/core\tcp.c ****   new_right_edge = pcb->rcv_nxt + pcb->rcv_wnd;
 1373              		.loc 1 934 3 discriminator 1 view .LVU401
 1374 002c 0E4B     		ldr	r3, .L141
 1375 002e 40F2A632 		movw	r2, #934
 1376 0032 0E49     		ldr	r1, .L141+4
 1377 0034 0E48     		ldr	r0, .L141+8
 1378              	.LVL134:
 934:c:/Users/Black_Life/STM32Cube/Repository/STM32Cube_FW_F4_V1.26.2/Middlewares/Third_Party/LwIP/src/core\tcp.c ****   new_right_edge = pcb->rcv_nxt + pcb->rcv_wnd;
 1379              		.loc 1 934 3 is_stmt 0 discriminator 1 view .LVU402
 1380 0036 FFF7FEFF 		bl	printf
 1381              	.LVL135:
 1382 003a E4E7     		b	.L132
 1383              	.LVL136:
 1384              	.L133:
 942:c:/Users/Black_Life/STM32Cube/Repository/STM32Cube_FW_F4_V1.26.2/Middlewares/Third_Party/LwIP/src/core\tcp.c ****       /* Can happen due to other end sending out of advertised window,
 1385              		.loc 1 942 5 is_stmt 1 view .LVU403
 942:c:/Users/Black_Life/STM32Cube/Repository/STM32Cube_FW_F4_V1.26.2/Middlewares/Third_Party/LwIP/src/core\tcp.c ****       /* Can happen due to other end sending out of advertised window,
 1386              		.loc 1 942 9 is_stmt 0 view .LVU404
 1387 003c AB1A     		subs	r3, r5, r2
 942:c:/Users/Black_Life/STM32Cube/Repository/STM32Cube_FW_F4_V1.26.2/Middlewares/Third_Party/LwIP/src/core\tcp.c ****       /* Can happen due to other end sending out of advertised window,
 1388              		.loc 1 942 8 view .LVU405
 1389 003e 002B     		cmp	r3, #0
 1390 0040 03DD     		ble	.L135
 945:c:/Users/Black_Life/STM32Cube/Repository/STM32Cube_FW_F4_V1.26.2/Middlewares/Third_Party/LwIP/src/core\tcp.c ****     } else {
 1391              		.loc 1 945 7 is_stmt 1 view .LVU406
 945:c:/Users/Black_Life/STM32Cube/Repository/STM32Cube_FW_F4_V1.26.2/Middlewares/Third_Party/LwIP/src/core\tcp.c ****     } else {
 1392              		.loc 1 945 24 is_stmt 0 view .LVU407
 1393 0042 0023     		movs	r3, #0
 1394 0044 6385     		strh	r3, [r4, #42]	@ movhi
 1395              	.LVL137:
 1396              	.L136:
 954:c:/Users/Black_Life/STM32Cube/Repository/STM32Cube_FW_F4_V1.26.2/Middlewares/Third_Party/LwIP/src/core\tcp.c ****   }
 1397              		.loc 1 954 5 is_stmt 1 view .LVU408
 954:c:/Users/Black_Life/STM32Cube/Repository/STM32Cube_FW_F4_V1.26.2/Middlewares/Third_Party/LwIP/src/core\tcp.c ****   }
 1398              		.loc 1 954 12 is_stmt 0 view .LVU409
 1399 0046 0020     		movs	r0, #0
 1400 0048 EFE7     		b	.L131
 1401              	.LVL138:
 1402              	.L135:
 1403              	.LBB5:
 948:c:/Users/Black_Life/STM32Cube/Repository/STM32Cube_FW_F4_V1.26.2/Middlewares/Third_Party/LwIP/src/core\tcp.c **** #if !LWIP_WND_SCALE
 1404              		.loc 1 948 7 is_stmt 1 view .LVU410
 948:c:/Users/Black_Life/STM32Cube/Repository/STM32Cube_FW_F4_V1.26.2/Middlewares/Third_Party/LwIP/src/core\tcp.c **** #if !LWIP_WND_SCALE
 1405              		.loc 1 948 13 is_stmt 0 view .LVU411
 1406 004a 551B     		subs	r5, r2, r5
 1407              	.LVL139:
 950:c:/Users/Black_Life/STM32Cube/Repository/STM32Cube_FW_F4_V1.26.2/Middlewares/Third_Party/LwIP/src/core\tcp.c **** #endif
 1408              		.loc 1 950 7 is_stmt 1 view .LVU412
 950:c:/Users/Black_Life/STM32Cube/Repository/STM32Cube_FW_F4_V1.26.2/Middlewares/Third_Party/LwIP/src/core\tcp.c **** #endif
 1409              		.loc 1 950 7 view .LVU413
 1410 004c B5F5803F 		cmp	r5, #65536
 1411 0050 01D2     		bcs	.L140
 1412              	.LVL140:
 1413              	.L137:
 950:c:/Users/Black_Life/STM32Cube/Repository/STM32Cube_FW_F4_V1.26.2/Middlewares/Third_Party/LwIP/src/core\tcp.c **** #endif
ARM GAS  C:\Users\BLACK_~1\AppData\Local\Temp\ccRovO0r.s 			page 65


 1414              		.loc 1 950 7 discriminator 3 view .LVU414
 950:c:/Users/Black_Life/STM32Cube/Repository/STM32Cube_FW_F4_V1.26.2/Middlewares/Third_Party/LwIP/src/core\tcp.c **** #endif
 1415              		.loc 1 950 7 discriminator 3 view .LVU415
 952:c:/Users/Black_Life/STM32Cube/Repository/STM32Cube_FW_F4_V1.26.2/Middlewares/Third_Party/LwIP/src/core\tcp.c ****     }
 1416              		.loc 1 952 7 discriminator 3 view .LVU416
 952:c:/Users/Black_Life/STM32Cube/Repository/STM32Cube_FW_F4_V1.26.2/Middlewares/Third_Party/LwIP/src/core\tcp.c ****     }
 1417              		.loc 1 952 24 is_stmt 0 discriminator 3 view .LVU417
 1418 0052 6585     		strh	r5, [r4, #42]	@ movhi
 1419 0054 F7E7     		b	.L136
 1420              	.LVL141:
 1421              	.L140:
 950:c:/Users/Black_Life/STM32Cube/Repository/STM32Cube_FW_F4_V1.26.2/Middlewares/Third_Party/LwIP/src/core\tcp.c **** #endif
 1422              		.loc 1 950 7 is_stmt 1 discriminator 1 view .LVU418
 950:c:/Users/Black_Life/STM32Cube/Repository/STM32Cube_FW_F4_V1.26.2/Middlewares/Third_Party/LwIP/src/core\tcp.c **** #endif
 1423              		.loc 1 950 7 discriminator 1 view .LVU419
 1424 0056 044B     		ldr	r3, .L141
 1425 0058 40F2B632 		movw	r2, #950
 1426 005c 0549     		ldr	r1, .L141+12
 1427 005e 0448     		ldr	r0, .L141+8
 1428              	.LVL142:
 950:c:/Users/Black_Life/STM32Cube/Repository/STM32Cube_FW_F4_V1.26.2/Middlewares/Third_Party/LwIP/src/core\tcp.c **** #endif
 1429              		.loc 1 950 7 is_stmt 0 discriminator 1 view .LVU420
 1430 0060 FFF7FEFF 		bl	printf
 1431              	.LVL143:
 950:c:/Users/Black_Life/STM32Cube/Repository/STM32Cube_FW_F4_V1.26.2/Middlewares/Third_Party/LwIP/src/core\tcp.c **** #endif
 1432              		.loc 1 950 7 discriminator 1 view .LVU421
 1433 0064 F5E7     		b	.L137
 1434              	.L142:
 1435 0066 00BF     		.align	2
 1436              	.L141:
 1437 0068 00000000 		.word	.LC0
 1438 006c 00000000 		.word	.LC11
 1439 0070 98000000 		.word	.LC2
 1440 0074 24000000 		.word	.LC12
 1441              	.LBE5:
 1442              		.cfi_endproc
 1443              	.LFE173:
 1445              		.section	.rodata.tcp_recved.str1.4,"aMS",%progbits,1
 1446              		.align	2
 1447              	.LC13:
 1448 0000 7463705F 		.ascii	"tcp_recved: invalid pcb\000"
 1448      72656376 
 1448      65643A20 
 1448      696E7661 
 1448      6C696420 
 1449              		.align	2
 1450              	.LC14:
 1451 0018 646F6E27 		.ascii	"don't call tcp_recved for listen-pcbs\000"
 1451      74206361 
 1451      6C6C2074 
 1451      63705F72 
 1451      65637665 
 1452              		.section	.text.tcp_recved,"ax",%progbits
 1453              		.align	1
 1454              		.global	tcp_recved
 1455              		.syntax unified
 1456              		.thumb
ARM GAS  C:\Users\BLACK_~1\AppData\Local\Temp\ccRovO0r.s 			page 66


 1457              		.thumb_func
 1459              	tcp_recved:
 1460              	.LVL144:
 1461              	.LFB174:
 969:c:/Users/Black_Life/STM32Cube/Repository/STM32Cube_FW_F4_V1.26.2/Middlewares/Third_Party/LwIP/src/core\tcp.c ****   u32_t wnd_inflation;
 1462              		.loc 1 969 1 is_stmt 1 view -0
 1463              		.cfi_startproc
 1464              		@ args = 0, pretend = 0, frame = 0
 1465              		@ frame_needed = 0, uses_anonymous_args = 0
 969:c:/Users/Black_Life/STM32Cube/Repository/STM32Cube_FW_F4_V1.26.2/Middlewares/Third_Party/LwIP/src/core\tcp.c ****   u32_t wnd_inflation;
 1466              		.loc 1 969 1 is_stmt 0 view .LVU423
 1467 0000 38B5     		push	{r3, r4, r5, lr}
 1468              	.LCFI12:
 1469              		.cfi_def_cfa_offset 16
 1470              		.cfi_offset 3, -16
 1471              		.cfi_offset 4, -12
 1472              		.cfi_offset 5, -8
 1473              		.cfi_offset 14, -4
 970:c:/Users/Black_Life/STM32Cube/Repository/STM32Cube_FW_F4_V1.26.2/Middlewares/Third_Party/LwIP/src/core\tcp.c ****   tcpwnd_size_t rcv_wnd;
 1474              		.loc 1 970 3 is_stmt 1 view .LVU424
 971:c:/Users/Black_Life/STM32Cube/Repository/STM32Cube_FW_F4_V1.26.2/Middlewares/Third_Party/LwIP/src/core\tcp.c **** 
 1475              		.loc 1 971 3 view .LVU425
 973:c:/Users/Black_Life/STM32Cube/Repository/STM32Cube_FW_F4_V1.26.2/Middlewares/Third_Party/LwIP/src/core\tcp.c **** 
 1476              		.loc 1 973 28 view .LVU426
 975:c:/Users/Black_Life/STM32Cube/Repository/STM32Cube_FW_F4_V1.26.2/Middlewares/Third_Party/LwIP/src/core\tcp.c **** 
 1477              		.loc 1 975 3 view .LVU427
 975:c:/Users/Black_Life/STM32Cube/Repository/STM32Cube_FW_F4_V1.26.2/Middlewares/Third_Party/LwIP/src/core\tcp.c **** 
 1478              		.loc 1 975 3 view .LVU428
 1479 0002 B0B1     		cbz	r0, .L151
 1480 0004 0C46     		mov	r4, r1
 1481 0006 0546     		mov	r5, r0
 975:c:/Users/Black_Life/STM32Cube/Repository/STM32Cube_FW_F4_V1.26.2/Middlewares/Third_Party/LwIP/src/core\tcp.c **** 
 1482              		.loc 1 975 3 discriminator 2 view .LVU429
 978:c:/Users/Black_Life/STM32Cube/Repository/STM32Cube_FW_F4_V1.26.2/Middlewares/Third_Party/LwIP/src/core\tcp.c ****               pcb->state != LISTEN);
 1483              		.loc 1 978 3 discriminator 2 view .LVU430
 978:c:/Users/Black_Life/STM32Cube/Repository/STM32Cube_FW_F4_V1.26.2/Middlewares/Third_Party/LwIP/src/core\tcp.c ****               pcb->state != LISTEN);
 1484              		.loc 1 978 3 discriminator 2 view .LVU431
 1485 0008 037D     		ldrb	r3, [r0, #20]	@ zero_extendqisi2
 1486 000a 012B     		cmp	r3, #1
 1487 000c 19D0     		beq	.L152
 1488              	.LVL145:
 1489              	.L146:
 978:c:/Users/Black_Life/STM32Cube/Repository/STM32Cube_FW_F4_V1.26.2/Middlewares/Third_Party/LwIP/src/core\tcp.c ****               pcb->state != LISTEN);
 1490              		.loc 1 978 3 discriminator 3 view .LVU432
 978:c:/Users/Black_Life/STM32Cube/Repository/STM32Cube_FW_F4_V1.26.2/Middlewares/Third_Party/LwIP/src/core\tcp.c ****               pcb->state != LISTEN);
 1491              		.loc 1 978 3 discriminator 3 view .LVU433
 981:c:/Users/Black_Life/STM32Cube/Repository/STM32Cube_FW_F4_V1.26.2/Middlewares/Third_Party/LwIP/src/core\tcp.c ****   if ((rcv_wnd > TCP_WND_MAX(pcb)) || (rcv_wnd < pcb->rcv_wnd)) {
 1492              		.loc 1 981 3 discriminator 3 view .LVU434
 981:c:/Users/Black_Life/STM32Cube/Repository/STM32Cube_FW_F4_V1.26.2/Middlewares/Third_Party/LwIP/src/core\tcp.c ****   if ((rcv_wnd > TCP_WND_MAX(pcb)) || (rcv_wnd < pcb->rcv_wnd)) {
 1493              		.loc 1 981 32 is_stmt 0 discriminator 3 view .LVU435
 1494 000e 2B8D     		ldrh	r3, [r5, #40]
 981:c:/Users/Black_Life/STM32Cube/Repository/STM32Cube_FW_F4_V1.26.2/Middlewares/Third_Party/LwIP/src/core\tcp.c ****   if ((rcv_wnd > TCP_WND_MAX(pcb)) || (rcv_wnd < pcb->rcv_wnd)) {
 1495              		.loc 1 981 11 discriminator 3 view .LVU436
 1496 0010 1919     		adds	r1, r3, r4
 1497 0012 89B2     		uxth	r1, r1
 1498              	.LVL146:
 982:c:/Users/Black_Life/STM32Cube/Repository/STM32Cube_FW_F4_V1.26.2/Middlewares/Third_Party/LwIP/src/core\tcp.c ****     /* window got too big or tcpwnd_size_t overflow */
ARM GAS  C:\Users\BLACK_~1\AppData\Local\Temp\ccRovO0r.s 			page 67


 1499              		.loc 1 982 3 is_stmt 1 discriminator 3 view .LVU437
 982:c:/Users/Black_Life/STM32Cube/Repository/STM32Cube_FW_F4_V1.26.2/Middlewares/Third_Party/LwIP/src/core\tcp.c ****     /* window got too big or tcpwnd_size_t overflow */
 1500              		.loc 1 982 6 is_stmt 0 discriminator 3 view .LVU438
 1501 0014 B1F5066F 		cmp	r1, #2144
 1502 0018 01D8     		bhi	.L147
 982:c:/Users/Black_Life/STM32Cube/Repository/STM32Cube_FW_F4_V1.26.2/Middlewares/Third_Party/LwIP/src/core\tcp.c ****     /* window got too big or tcpwnd_size_t overflow */
 1503              		.loc 1 982 36 discriminator 1 view .LVU439
 1504 001a 8B42     		cmp	r3, r1
 1505 001c 19D9     		bls	.L148
 1506              	.L147:
 984:c:/Users/Black_Life/STM32Cube/Repository/STM32Cube_FW_F4_V1.26.2/Middlewares/Third_Party/LwIP/src/core\tcp.c ****     pcb->rcv_wnd = TCP_WND_MAX(pcb);
 1507              		.loc 1 984 91 is_stmt 1 view .LVU440
 985:c:/Users/Black_Life/STM32Cube/Repository/STM32Cube_FW_F4_V1.26.2/Middlewares/Third_Party/LwIP/src/core\tcp.c ****   } else  {
 1508              		.loc 1 985 5 view .LVU441
 985:c:/Users/Black_Life/STM32Cube/Repository/STM32Cube_FW_F4_V1.26.2/Middlewares/Third_Party/LwIP/src/core\tcp.c ****   } else  {
 1509              		.loc 1 985 18 is_stmt 0 view .LVU442
 1510 001e 4FF40663 		mov	r3, #2144
 1511 0022 2B85     		strh	r3, [r5, #40]	@ movhi
 1512              	.L149:
 990:c:/Users/Black_Life/STM32Cube/Repository/STM32Cube_FW_F4_V1.26.2/Middlewares/Third_Party/LwIP/src/core\tcp.c **** 
 1513              		.loc 1 990 3 is_stmt 1 view .LVU443
 990:c:/Users/Black_Life/STM32Cube/Repository/STM32Cube_FW_F4_V1.26.2/Middlewares/Third_Party/LwIP/src/core\tcp.c **** 
 1514              		.loc 1 990 19 is_stmt 0 view .LVU444
 1515 0024 2846     		mov	r0, r5
 1516 0026 FFF7FEFF 		bl	tcp_update_rcv_ann_wnd
 1517              	.LVL147:
 996:c:/Users/Black_Life/STM32Cube/Repository/STM32Cube_FW_F4_V1.26.2/Middlewares/Third_Party/LwIP/src/core\tcp.c ****     tcp_ack_now(pcb);
 1518              		.loc 1 996 3 is_stmt 1 view .LVU445
 996:c:/Users/Black_Life/STM32Cube/Repository/STM32Cube_FW_F4_V1.26.2/Middlewares/Third_Party/LwIP/src/core\tcp.c ****     tcp_ack_now(pcb);
 1519              		.loc 1 996 6 is_stmt 0 view .LVU446
 1520 002a B0F5067F 		cmp	r0, #536
 1521 002e 12D2     		bcs	.L153
 1522              	.LVL148:
 1523              	.L143:
1003:c:/Users/Black_Life/STM32Cube/Repository/STM32Cube_FW_F4_V1.26.2/Middlewares/Third_Party/LwIP/src/core\tcp.c **** 
 1524              		.loc 1 1003 1 view .LVU447
 1525 0030 38BD     		pop	{r3, r4, r5, pc}
 1526              	.LVL149:
 1527              	.L151:
 975:c:/Users/Black_Life/STM32Cube/Repository/STM32Cube_FW_F4_V1.26.2/Middlewares/Third_Party/LwIP/src/core\tcp.c **** 
 1528              		.loc 1 975 3 is_stmt 1 discriminator 1 view .LVU448
 975:c:/Users/Black_Life/STM32Cube/Repository/STM32Cube_FW_F4_V1.26.2/Middlewares/Third_Party/LwIP/src/core\tcp.c **** 
 1529              		.loc 1 975 3 discriminator 1 view .LVU449
 1530 0032 0D4B     		ldr	r3, .L154
 1531 0034 40F2CF32 		movw	r2, #975
 1532 0038 0C49     		ldr	r1, .L154+4
 1533              	.LVL150:
 975:c:/Users/Black_Life/STM32Cube/Repository/STM32Cube_FW_F4_V1.26.2/Middlewares/Third_Party/LwIP/src/core\tcp.c **** 
 1534              		.loc 1 975 3 is_stmt 0 discriminator 1 view .LVU450
 1535 003a 0D48     		ldr	r0, .L154+8
 1536              	.LVL151:
 975:c:/Users/Black_Life/STM32Cube/Repository/STM32Cube_FW_F4_V1.26.2/Middlewares/Third_Party/LwIP/src/core\tcp.c **** 
 1537              		.loc 1 975 3 discriminator 1 view .LVU451
 1538 003c FFF7FEFF 		bl	printf
 1539              	.LVL152:
 975:c:/Users/Black_Life/STM32Cube/Repository/STM32Cube_FW_F4_V1.26.2/Middlewares/Third_Party/LwIP/src/core\tcp.c **** 
 1540              		.loc 1 975 3 is_stmt 1 discriminator 1 view .LVU452
ARM GAS  C:\Users\BLACK_~1\AppData\Local\Temp\ccRovO0r.s 			page 68


 975:c:/Users/Black_Life/STM32Cube/Repository/STM32Cube_FW_F4_V1.26.2/Middlewares/Third_Party/LwIP/src/core\tcp.c **** 
 1541              		.loc 1 975 3 discriminator 1 view .LVU453
 1542 0040 F6E7     		b	.L143
 1543              	.LVL153:
 1544              	.L152:
 978:c:/Users/Black_Life/STM32Cube/Repository/STM32Cube_FW_F4_V1.26.2/Middlewares/Third_Party/LwIP/src/core\tcp.c ****               pcb->state != LISTEN);
 1545              		.loc 1 978 3 discriminator 1 view .LVU454
 978:c:/Users/Black_Life/STM32Cube/Repository/STM32Cube_FW_F4_V1.26.2/Middlewares/Third_Party/LwIP/src/core\tcp.c ****               pcb->state != LISTEN);
 1546              		.loc 1 978 3 discriminator 1 view .LVU455
 1547 0042 094B     		ldr	r3, .L154
 1548 0044 40F2D232 		movw	r2, #978
 1549 0048 0A49     		ldr	r1, .L154+12
 1550              	.LVL154:
 978:c:/Users/Black_Life/STM32Cube/Repository/STM32Cube_FW_F4_V1.26.2/Middlewares/Third_Party/LwIP/src/core\tcp.c ****               pcb->state != LISTEN);
 1551              		.loc 1 978 3 is_stmt 0 discriminator 1 view .LVU456
 1552 004a 0948     		ldr	r0, .L154+8
 1553              	.LVL155:
 978:c:/Users/Black_Life/STM32Cube/Repository/STM32Cube_FW_F4_V1.26.2/Middlewares/Third_Party/LwIP/src/core\tcp.c ****               pcb->state != LISTEN);
 1554              		.loc 1 978 3 discriminator 1 view .LVU457
 1555 004c FFF7FEFF 		bl	printf
 1556              	.LVL156:
 1557 0050 DDE7     		b	.L146
 1558              	.LVL157:
 1559              	.L148:
 987:c:/Users/Black_Life/STM32Cube/Repository/STM32Cube_FW_F4_V1.26.2/Middlewares/Third_Party/LwIP/src/core\tcp.c ****   }
 1560              		.loc 1 987 5 is_stmt 1 view .LVU458
 987:c:/Users/Black_Life/STM32Cube/Repository/STM32Cube_FW_F4_V1.26.2/Middlewares/Third_Party/LwIP/src/core\tcp.c ****   }
 1561              		.loc 1 987 18 is_stmt 0 view .LVU459
 1562 0052 2985     		strh	r1, [r5, #40]	@ movhi
 1563 0054 E6E7     		b	.L149
 1564              	.LVL158:
 1565              	.L153:
 997:c:/Users/Black_Life/STM32Cube/Repository/STM32Cube_FW_F4_V1.26.2/Middlewares/Third_Party/LwIP/src/core\tcp.c ****     tcp_output(pcb);
 1566              		.loc 1 997 5 is_stmt 1 view .LVU460
 997:c:/Users/Black_Life/STM32Cube/Repository/STM32Cube_FW_F4_V1.26.2/Middlewares/Third_Party/LwIP/src/core\tcp.c ****     tcp_output(pcb);
 1567              		.loc 1 997 5 view .LVU461
 1568 0056 6B8B     		ldrh	r3, [r5, #26]
 1569 0058 43F00203 		orr	r3, r3, #2
 1570 005c 6B83     		strh	r3, [r5, #26]	@ movhi
 997:c:/Users/Black_Life/STM32Cube/Repository/STM32Cube_FW_F4_V1.26.2/Middlewares/Third_Party/LwIP/src/core\tcp.c ****     tcp_output(pcb);
 1571              		.loc 1 997 5 view .LVU462
 998:c:/Users/Black_Life/STM32Cube/Repository/STM32Cube_FW_F4_V1.26.2/Middlewares/Third_Party/LwIP/src/core\tcp.c ****   }
 1572              		.loc 1 998 5 view .LVU463
 1573 005e 2846     		mov	r0, r5
 1574              	.LVL159:
 998:c:/Users/Black_Life/STM32Cube/Repository/STM32Cube_FW_F4_V1.26.2/Middlewares/Third_Party/LwIP/src/core\tcp.c ****   }
 1575              		.loc 1 998 5 is_stmt 0 view .LVU464
 1576 0060 FFF7FEFF 		bl	tcp_output
 1577              	.LVL160:
1002:c:/Users/Black_Life/STM32Cube/Repository/STM32Cube_FW_F4_V1.26.2/Middlewares/Third_Party/LwIP/src/core\tcp.c **** }
 1578              		.loc 1 1002 88 is_stmt 1 view .LVU465
 1579 0064 E4E7     		b	.L143
 1580              	.L155:
 1581 0066 00BF     		.align	2
 1582              	.L154:
 1583 0068 00000000 		.word	.LC0
 1584 006c 00000000 		.word	.LC13
ARM GAS  C:\Users\BLACK_~1\AppData\Local\Temp\ccRovO0r.s 			page 69


 1585 0070 98000000 		.word	.LC2
 1586 0074 18000000 		.word	.LC14
 1587              		.cfi_endproc
 1588              	.LFE174:
 1590              		.section	.text.tcp_txnow,"ax",%progbits
 1591              		.align	1
 1592              		.global	tcp_txnow
 1593              		.syntax unified
 1594              		.thumb
 1595              		.thumb_func
 1597              	tcp_txnow:
 1598              	.LFB179:
1527:c:/Users/Black_Life/STM32Cube/Repository/STM32Cube_FW_F4_V1.26.2/Middlewares/Third_Party/LwIP/src/core\tcp.c ****   struct tcp_pcb *pcb;
 1599              		.loc 1 1527 1 view -0
 1600              		.cfi_startproc
 1601              		@ args = 0, pretend = 0, frame = 0
 1602              		@ frame_needed = 0, uses_anonymous_args = 0
 1603 0000 10B5     		push	{r4, lr}
 1604              	.LCFI13:
 1605              		.cfi_def_cfa_offset 8
 1606              		.cfi_offset 4, -8
 1607              		.cfi_offset 14, -4
1528:c:/Users/Black_Life/STM32Cube/Repository/STM32Cube_FW_F4_V1.26.2/Middlewares/Third_Party/LwIP/src/core\tcp.c **** 
 1608              		.loc 1 1528 3 view .LVU467
1530:c:/Users/Black_Life/STM32Cube/Repository/STM32Cube_FW_F4_V1.26.2/Middlewares/Third_Party/LwIP/src/core\tcp.c ****     if (pcb->flags & TF_NAGLEMEMERR) {
 1609              		.loc 1 1530 3 view .LVU468
1530:c:/Users/Black_Life/STM32Cube/Repository/STM32Cube_FW_F4_V1.26.2/Middlewares/Third_Party/LwIP/src/core\tcp.c ****     if (pcb->flags & TF_NAGLEMEMERR) {
 1610              		.loc 1 1530 12 is_stmt 0 view .LVU469
 1611 0002 074B     		ldr	r3, .L162
 1612 0004 1C68     		ldr	r4, [r3]
 1613              	.LVL161:
1530:c:/Users/Black_Life/STM32Cube/Repository/STM32Cube_FW_F4_V1.26.2/Middlewares/Third_Party/LwIP/src/core\tcp.c ****     if (pcb->flags & TF_NAGLEMEMERR) {
 1614              		.loc 1 1530 3 view .LVU470
 1615 0006 00E0     		b	.L157
 1616              	.L158:
1530:c:/Users/Black_Life/STM32Cube/Repository/STM32Cube_FW_F4_V1.26.2/Middlewares/Third_Party/LwIP/src/core\tcp.c ****     if (pcb->flags & TF_NAGLEMEMERR) {
 1617              		.loc 1 1530 44 is_stmt 1 discriminator 2 view .LVU471
1530:c:/Users/Black_Life/STM32Cube/Repository/STM32Cube_FW_F4_V1.26.2/Middlewares/Third_Party/LwIP/src/core\tcp.c ****     if (pcb->flags & TF_NAGLEMEMERR) {
 1618              		.loc 1 1530 48 is_stmt 0 discriminator 2 view .LVU472
 1619 0008 E468     		ldr	r4, [r4, #12]
 1620              	.LVL162:
 1621              	.L157:
1530:c:/Users/Black_Life/STM32Cube/Repository/STM32Cube_FW_F4_V1.26.2/Middlewares/Third_Party/LwIP/src/core\tcp.c ****     if (pcb->flags & TF_NAGLEMEMERR) {
 1622              		.loc 1 1530 31 is_stmt 1 discriminator 1 view .LVU473
1530:c:/Users/Black_Life/STM32Cube/Repository/STM32Cube_FW_F4_V1.26.2/Middlewares/Third_Party/LwIP/src/core\tcp.c ****     if (pcb->flags & TF_NAGLEMEMERR) {
 1623              		.loc 1 1530 3 is_stmt 0 discriminator 1 view .LVU474
 1624 000a 3CB1     		cbz	r4, .L161
1531:c:/Users/Black_Life/STM32Cube/Repository/STM32Cube_FW_F4_V1.26.2/Middlewares/Third_Party/LwIP/src/core\tcp.c ****       tcp_output(pcb);
 1625              		.loc 1 1531 5 is_stmt 1 view .LVU475
1531:c:/Users/Black_Life/STM32Cube/Repository/STM32Cube_FW_F4_V1.26.2/Middlewares/Third_Party/LwIP/src/core\tcp.c ****       tcp_output(pcb);
 1626              		.loc 1 1531 12 is_stmt 0 view .LVU476
 1627 000c 638B     		ldrh	r3, [r4, #26]
1531:c:/Users/Black_Life/STM32Cube/Repository/STM32Cube_FW_F4_V1.26.2/Middlewares/Third_Party/LwIP/src/core\tcp.c ****       tcp_output(pcb);
 1628              		.loc 1 1531 8 view .LVU477
 1629 000e 13F0800F 		tst	r3, #128
 1630 0012 F9D0     		beq	.L158
1532:c:/Users/Black_Life/STM32Cube/Repository/STM32Cube_FW_F4_V1.26.2/Middlewares/Third_Party/LwIP/src/core\tcp.c ****     }
ARM GAS  C:\Users\BLACK_~1\AppData\Local\Temp\ccRovO0r.s 			page 70


 1631              		.loc 1 1532 7 is_stmt 1 view .LVU478
 1632 0014 2046     		mov	r0, r4
 1633 0016 FFF7FEFF 		bl	tcp_output
 1634              	.LVL163:
 1635 001a F5E7     		b	.L158
 1636              	.L161:
1535:c:/Users/Black_Life/STM32Cube/Repository/STM32Cube_FW_F4_V1.26.2/Middlewares/Third_Party/LwIP/src/core\tcp.c **** 
 1637              		.loc 1 1535 1 is_stmt 0 view .LVU479
 1638 001c 10BD     		pop	{r4, pc}
 1639              	.LVL164:
 1640              	.L163:
1535:c:/Users/Black_Life/STM32Cube/Repository/STM32Cube_FW_F4_V1.26.2/Middlewares/Third_Party/LwIP/src/core\tcp.c **** 
 1641              		.loc 1 1535 1 view .LVU480
 1642 001e 00BF     		.align	2
 1643              	.L162:
 1644 0020 00000000 		.word	.LANCHOR2
 1645              		.cfi_endproc
 1646              	.LFE179:
 1648              		.section	.text.tcp_seg_free,"ax",%progbits
 1649              		.align	1
 1650              		.global	tcp_seg_free
 1651              		.syntax unified
 1652              		.thumb
 1653              		.thumb_func
 1655              	tcp_seg_free:
 1656              	.LVL165:
 1657              	.LFB182:
1624:c:/Users/Black_Life/STM32Cube/Repository/STM32Cube_FW_F4_V1.26.2/Middlewares/Third_Party/LwIP/src/core\tcp.c ****   if (seg != NULL) {
 1658              		.loc 1 1624 1 is_stmt 1 view -0
 1659              		.cfi_startproc
 1660              		@ args = 0, pretend = 0, frame = 0
 1661              		@ frame_needed = 0, uses_anonymous_args = 0
1625:c:/Users/Black_Life/STM32Cube/Repository/STM32Cube_FW_F4_V1.26.2/Middlewares/Third_Party/LwIP/src/core\tcp.c ****     if (seg->p != NULL) {
 1662              		.loc 1 1625 3 view .LVU482
1625:c:/Users/Black_Life/STM32Cube/Repository/STM32Cube_FW_F4_V1.26.2/Middlewares/Third_Party/LwIP/src/core\tcp.c ****     if (seg->p != NULL) {
 1663              		.loc 1 1625 6 is_stmt 0 view .LVU483
 1664 0000 50B1     		cbz	r0, .L168
1624:c:/Users/Black_Life/STM32Cube/Repository/STM32Cube_FW_F4_V1.26.2/Middlewares/Third_Party/LwIP/src/core\tcp.c ****   if (seg != NULL) {
 1665              		.loc 1 1624 1 view .LVU484
 1666 0002 10B5     		push	{r4, lr}
 1667              	.LCFI14:
 1668              		.cfi_def_cfa_offset 8
 1669              		.cfi_offset 4, -8
 1670              		.cfi_offset 14, -4
 1671 0004 0446     		mov	r4, r0
1626:c:/Users/Black_Life/STM32Cube/Repository/STM32Cube_FW_F4_V1.26.2/Middlewares/Third_Party/LwIP/src/core\tcp.c ****       pbuf_free(seg->p);
 1672              		.loc 1 1626 5 is_stmt 1 view .LVU485
1626:c:/Users/Black_Life/STM32Cube/Repository/STM32Cube_FW_F4_V1.26.2/Middlewares/Third_Party/LwIP/src/core\tcp.c ****       pbuf_free(seg->p);
 1673              		.loc 1 1626 12 is_stmt 0 view .LVU486
 1674 0006 4068     		ldr	r0, [r0, #4]
 1675              	.LVL166:
1626:c:/Users/Black_Life/STM32Cube/Repository/STM32Cube_FW_F4_V1.26.2/Middlewares/Third_Party/LwIP/src/core\tcp.c ****       pbuf_free(seg->p);
 1676              		.loc 1 1626 8 view .LVU487
 1677 0008 08B1     		cbz	r0, .L166
1627:c:/Users/Black_Life/STM32Cube/Repository/STM32Cube_FW_F4_V1.26.2/Middlewares/Third_Party/LwIP/src/core\tcp.c **** #if TCP_DEBUG
 1678              		.loc 1 1627 7 is_stmt 1 view .LVU488
 1679 000a FFF7FEFF 		bl	pbuf_free
ARM GAS  C:\Users\BLACK_~1\AppData\Local\Temp\ccRovO0r.s 			page 71


 1680              	.LVL167:
 1681              	.L166:
1632:c:/Users/Black_Life/STM32Cube/Repository/STM32Cube_FW_F4_V1.26.2/Middlewares/Third_Party/LwIP/src/core\tcp.c ****   }
 1682              		.loc 1 1632 5 view .LVU489
 1683 000e 2146     		mov	r1, r4
 1684 0010 0320     		movs	r0, #3
 1685 0012 FFF7FEFF 		bl	memp_free
 1686              	.LVL168:
1634:c:/Users/Black_Life/STM32Cube/Repository/STM32Cube_FW_F4_V1.26.2/Middlewares/Third_Party/LwIP/src/core\tcp.c **** 
 1687              		.loc 1 1634 1 is_stmt 0 view .LVU490
 1688 0016 10BD     		pop	{r4, pc}
 1689              	.LVL169:
 1690              	.L168:
 1691              	.LCFI15:
 1692              		.cfi_def_cfa_offset 0
 1693              		.cfi_restore 4
 1694              		.cfi_restore 14
1634:c:/Users/Black_Life/STM32Cube/Repository/STM32Cube_FW_F4_V1.26.2/Middlewares/Third_Party/LwIP/src/core\tcp.c **** 
 1695              		.loc 1 1634 1 view .LVU491
 1696 0018 7047     		bx	lr
 1697              		.cfi_endproc
 1698              	.LFE182:
 1700              		.section	.text.tcp_segs_free,"ax",%progbits
 1701              		.align	1
 1702              		.global	tcp_segs_free
 1703              		.syntax unified
 1704              		.thumb
 1705              		.thumb_func
 1707              	tcp_segs_free:
 1708              	.LVL170:
 1709              	.LFB181:
1609:c:/Users/Black_Life/STM32Cube/Repository/STM32Cube_FW_F4_V1.26.2/Middlewares/Third_Party/LwIP/src/core\tcp.c ****   while (seg != NULL) {
 1710              		.loc 1 1609 1 is_stmt 1 view -0
 1711              		.cfi_startproc
 1712              		@ args = 0, pretend = 0, frame = 0
 1713              		@ frame_needed = 0, uses_anonymous_args = 0
1610:c:/Users/Black_Life/STM32Cube/Repository/STM32Cube_FW_F4_V1.26.2/Middlewares/Third_Party/LwIP/src/core\tcp.c ****     struct tcp_seg *next = seg->next;
 1714              		.loc 1 1610 3 view .LVU493
1610:c:/Users/Black_Life/STM32Cube/Repository/STM32Cube_FW_F4_V1.26.2/Middlewares/Third_Party/LwIP/src/core\tcp.c ****     struct tcp_seg *next = seg->next;
 1715              		.loc 1 1610 9 view .LVU494
 1716 0000 38B1     		cbz	r0, .L177
1609:c:/Users/Black_Life/STM32Cube/Repository/STM32Cube_FW_F4_V1.26.2/Middlewares/Third_Party/LwIP/src/core\tcp.c ****   while (seg != NULL) {
 1717              		.loc 1 1609 1 is_stmt 0 view .LVU495
 1718 0002 10B5     		push	{r4, lr}
 1719              	.LCFI16:
 1720              		.cfi_def_cfa_offset 8
 1721              		.cfi_offset 4, -8
 1722              		.cfi_offset 14, -4
 1723              	.L173:
 1724              	.LBB6:
1611:c:/Users/Black_Life/STM32Cube/Repository/STM32Cube_FW_F4_V1.26.2/Middlewares/Third_Party/LwIP/src/core\tcp.c ****     tcp_seg_free(seg);
 1725              		.loc 1 1611 5 is_stmt 1 view .LVU496
1611:c:/Users/Black_Life/STM32Cube/Repository/STM32Cube_FW_F4_V1.26.2/Middlewares/Third_Party/LwIP/src/core\tcp.c ****     tcp_seg_free(seg);
 1726              		.loc 1 1611 21 is_stmt 0 view .LVU497
 1727 0004 0468     		ldr	r4, [r0]
 1728              	.LVL171:
1612:c:/Users/Black_Life/STM32Cube/Repository/STM32Cube_FW_F4_V1.26.2/Middlewares/Third_Party/LwIP/src/core\tcp.c ****     seg = next;
ARM GAS  C:\Users\BLACK_~1\AppData\Local\Temp\ccRovO0r.s 			page 72


 1729              		.loc 1 1612 5 is_stmt 1 view .LVU498
 1730 0006 FFF7FEFF 		bl	tcp_seg_free
 1731              	.LVL172:
1613:c:/Users/Black_Life/STM32Cube/Repository/STM32Cube_FW_F4_V1.26.2/Middlewares/Third_Party/LwIP/src/core\tcp.c ****   }
 1732              		.loc 1 1613 5 view .LVU499
1613:c:/Users/Black_Life/STM32Cube/Repository/STM32Cube_FW_F4_V1.26.2/Middlewares/Third_Party/LwIP/src/core\tcp.c ****   }
 1733              		.loc 1 1613 9 is_stmt 0 view .LVU500
 1734 000a 2046     		mov	r0, r4
1613:c:/Users/Black_Life/STM32Cube/Repository/STM32Cube_FW_F4_V1.26.2/Middlewares/Third_Party/LwIP/src/core\tcp.c ****   }
 1735              		.loc 1 1613 9 view .LVU501
 1736              	.LBE6:
1610:c:/Users/Black_Life/STM32Cube/Repository/STM32Cube_FW_F4_V1.26.2/Middlewares/Third_Party/LwIP/src/core\tcp.c ****     struct tcp_seg *next = seg->next;
 1737              		.loc 1 1610 9 is_stmt 1 view .LVU502
 1738 000c 002C     		cmp	r4, #0
 1739 000e F9D1     		bne	.L173
1615:c:/Users/Black_Life/STM32Cube/Repository/STM32Cube_FW_F4_V1.26.2/Middlewares/Third_Party/LwIP/src/core\tcp.c **** 
 1740              		.loc 1 1615 1 is_stmt 0 view .LVU503
 1741 0010 10BD     		pop	{r4, pc}
 1742              	.LVL173:
 1743              	.L177:
 1744              	.LCFI17:
 1745              		.cfi_def_cfa_offset 0
 1746              		.cfi_restore 4
 1747              		.cfi_restore 14
1615:c:/Users/Black_Life/STM32Cube/Repository/STM32Cube_FW_F4_V1.26.2/Middlewares/Third_Party/LwIP/src/core\tcp.c **** 
 1748              		.loc 1 1615 1 view .LVU504
 1749 0012 7047     		bx	lr
 1750              		.cfi_endproc
 1751              	.LFE181:
 1753              		.section	.rodata.tcp_setprio.str1.4,"aMS",%progbits,1
 1754              		.align	2
 1755              	.LC15:
 1756 0000 7463705F 		.ascii	"tcp_setprio: invalid pcb\000"
 1756      73657470 
 1756      72696F3A 
 1756      20696E76 
 1756      616C6964 
 1757              		.section	.text.tcp_setprio,"ax",%progbits
 1758              		.align	1
 1759              		.global	tcp_setprio
 1760              		.syntax unified
 1761              		.thumb
 1762              		.thumb_func
 1764              	tcp_setprio:
 1765              	.LVL174:
 1766              	.LFB183:
1645:c:/Users/Black_Life/STM32Cube/Repository/STM32Cube_FW_F4_V1.26.2/Middlewares/Third_Party/LwIP/src/core\tcp.c ****   LWIP_ASSERT_CORE_LOCKED();
 1767              		.loc 1 1645 1 is_stmt 1 view -0
 1768              		.cfi_startproc
 1769              		@ args = 0, pretend = 0, frame = 0
 1770              		@ frame_needed = 0, uses_anonymous_args = 0
1645:c:/Users/Black_Life/STM32Cube/Repository/STM32Cube_FW_F4_V1.26.2/Middlewares/Third_Party/LwIP/src/core\tcp.c ****   LWIP_ASSERT_CORE_LOCKED();
 1771              		.loc 1 1645 1 is_stmt 0 view .LVU506
 1772 0000 08B5     		push	{r3, lr}
 1773              	.LCFI18:
 1774              		.cfi_def_cfa_offset 8
 1775              		.cfi_offset 3, -8
ARM GAS  C:\Users\BLACK_~1\AppData\Local\Temp\ccRovO0r.s 			page 73


 1776              		.cfi_offset 14, -4
1646:c:/Users/Black_Life/STM32Cube/Repository/STM32Cube_FW_F4_V1.26.2/Middlewares/Third_Party/LwIP/src/core\tcp.c **** 
 1777              		.loc 1 1646 28 is_stmt 1 view .LVU507
1648:c:/Users/Black_Life/STM32Cube/Repository/STM32Cube_FW_F4_V1.26.2/Middlewares/Third_Party/LwIP/src/core\tcp.c **** 
 1778              		.loc 1 1648 3 view .LVU508
1648:c:/Users/Black_Life/STM32Cube/Repository/STM32Cube_FW_F4_V1.26.2/Middlewares/Third_Party/LwIP/src/core\tcp.c **** 
 1779              		.loc 1 1648 3 view .LVU509
 1780 0002 08B1     		cbz	r0, .L182
1648:c:/Users/Black_Life/STM32Cube/Repository/STM32Cube_FW_F4_V1.26.2/Middlewares/Third_Party/LwIP/src/core\tcp.c **** 
 1781              		.loc 1 1648 3 discriminator 2 view .LVU510
1650:c:/Users/Black_Life/STM32Cube/Repository/STM32Cube_FW_F4_V1.26.2/Middlewares/Third_Party/LwIP/src/core\tcp.c **** }
 1782              		.loc 1 1650 3 discriminator 2 view .LVU511
1650:c:/Users/Black_Life/STM32Cube/Repository/STM32Cube_FW_F4_V1.26.2/Middlewares/Third_Party/LwIP/src/core\tcp.c **** }
 1783              		.loc 1 1650 13 is_stmt 0 discriminator 2 view .LVU512
 1784 0004 4175     		strb	r1, [r0, #21]
 1785              	.LVL175:
 1786              	.L178:
1651:c:/Users/Black_Life/STM32Cube/Repository/STM32Cube_FW_F4_V1.26.2/Middlewares/Third_Party/LwIP/src/core\tcp.c **** 
 1787              		.loc 1 1651 1 view .LVU513
 1788 0006 08BD     		pop	{r3, pc}
 1789              	.LVL176:
 1790              	.L182:
1648:c:/Users/Black_Life/STM32Cube/Repository/STM32Cube_FW_F4_V1.26.2/Middlewares/Third_Party/LwIP/src/core\tcp.c **** 
 1791              		.loc 1 1648 3 is_stmt 1 discriminator 1 view .LVU514
1648:c:/Users/Black_Life/STM32Cube/Repository/STM32Cube_FW_F4_V1.26.2/Middlewares/Third_Party/LwIP/src/core\tcp.c **** 
 1792              		.loc 1 1648 3 discriminator 1 view .LVU515
 1793 0008 034B     		ldr	r3, .L183
 1794 000a 4FF4CE62 		mov	r2, #1648
 1795 000e 0349     		ldr	r1, .L183+4
 1796              	.LVL177:
1648:c:/Users/Black_Life/STM32Cube/Repository/STM32Cube_FW_F4_V1.26.2/Middlewares/Third_Party/LwIP/src/core\tcp.c **** 
 1797              		.loc 1 1648 3 is_stmt 0 discriminator 1 view .LVU516
 1798 0010 0348     		ldr	r0, .L183+8
 1799              	.LVL178:
1648:c:/Users/Black_Life/STM32Cube/Repository/STM32Cube_FW_F4_V1.26.2/Middlewares/Third_Party/LwIP/src/core\tcp.c **** 
 1800              		.loc 1 1648 3 discriminator 1 view .LVU517
 1801 0012 FFF7FEFF 		bl	printf
 1802              	.LVL179:
1648:c:/Users/Black_Life/STM32Cube/Repository/STM32Cube_FW_F4_V1.26.2/Middlewares/Third_Party/LwIP/src/core\tcp.c **** 
 1803              		.loc 1 1648 3 is_stmt 1 discriminator 1 view .LVU518
1648:c:/Users/Black_Life/STM32Cube/Repository/STM32Cube_FW_F4_V1.26.2/Middlewares/Third_Party/LwIP/src/core\tcp.c **** 
 1804              		.loc 1 1648 3 discriminator 1 view .LVU519
 1805 0016 F6E7     		b	.L178
 1806              	.L184:
 1807              		.align	2
 1808              	.L183:
 1809 0018 00000000 		.word	.LC0
 1810 001c 00000000 		.word	.LC15
 1811 0020 98000000 		.word	.LC2
 1812              		.cfi_endproc
 1813              	.LFE183:
 1815              		.section	.rodata.tcp_seg_copy.str1.4,"aMS",%progbits,1
 1816              		.align	2
 1817              	.LC16:
 1818 0000 7463705F 		.ascii	"tcp_seg_copy: invalid seg\000"
 1818      7365675F 
 1818      636F7079 
ARM GAS  C:\Users\BLACK_~1\AppData\Local\Temp\ccRovO0r.s 			page 74


 1818      3A20696E 
 1818      76616C69 
 1819              		.section	.text.tcp_seg_copy,"ax",%progbits
 1820              		.align	1
 1821              		.global	tcp_seg_copy
 1822              		.syntax unified
 1823              		.thumb
 1824              		.thumb_func
 1826              	tcp_seg_copy:
 1827              	.LVL180:
 1828              	.LFB184:
1663:c:/Users/Black_Life/STM32Cube/Repository/STM32Cube_FW_F4_V1.26.2/Middlewares/Third_Party/LwIP/src/core\tcp.c ****   struct tcp_seg *cseg;
 1829              		.loc 1 1663 1 view -0
 1830              		.cfi_startproc
 1831              		@ args = 0, pretend = 0, frame = 0
 1832              		@ frame_needed = 0, uses_anonymous_args = 0
1663:c:/Users/Black_Life/STM32Cube/Repository/STM32Cube_FW_F4_V1.26.2/Middlewares/Third_Party/LwIP/src/core\tcp.c ****   struct tcp_seg *cseg;
 1833              		.loc 1 1663 1 is_stmt 0 view .LVU521
 1834 0000 38B5     		push	{r3, r4, r5, lr}
 1835              	.LCFI19:
 1836              		.cfi_def_cfa_offset 16
 1837              		.cfi_offset 3, -16
 1838              		.cfi_offset 4, -12
 1839              		.cfi_offset 5, -8
 1840              		.cfi_offset 14, -4
1664:c:/Users/Black_Life/STM32Cube/Repository/STM32Cube_FW_F4_V1.26.2/Middlewares/Third_Party/LwIP/src/core\tcp.c **** 
 1841              		.loc 1 1664 3 is_stmt 1 view .LVU522
1666:c:/Users/Black_Life/STM32Cube/Repository/STM32Cube_FW_F4_V1.26.2/Middlewares/Third_Party/LwIP/src/core\tcp.c **** 
 1842              		.loc 1 1666 3 view .LVU523
1666:c:/Users/Black_Life/STM32Cube/Repository/STM32Cube_FW_F4_V1.26.2/Middlewares/Third_Party/LwIP/src/core\tcp.c **** 
 1843              		.loc 1 1666 3 view .LVU524
 1844 0002 0546     		mov	r5, r0
 1845 0004 88B1     		cbz	r0, .L189
 1846              	.LVL181:
 1847              	.L186:
1666:c:/Users/Black_Life/STM32Cube/Repository/STM32Cube_FW_F4_V1.26.2/Middlewares/Third_Party/LwIP/src/core\tcp.c **** 
 1848              		.loc 1 1666 3 discriminator 3 view .LVU525
1666:c:/Users/Black_Life/STM32Cube/Repository/STM32Cube_FW_F4_V1.26.2/Middlewares/Third_Party/LwIP/src/core\tcp.c **** 
 1849              		.loc 1 1666 3 discriminator 3 view .LVU526
1668:c:/Users/Black_Life/STM32Cube/Repository/STM32Cube_FW_F4_V1.26.2/Middlewares/Third_Party/LwIP/src/core\tcp.c ****   if (cseg == NULL) {
 1850              		.loc 1 1668 3 discriminator 3 view .LVU527
1668:c:/Users/Black_Life/STM32Cube/Repository/STM32Cube_FW_F4_V1.26.2/Middlewares/Third_Party/LwIP/src/core\tcp.c ****   if (cseg == NULL) {
 1851              		.loc 1 1668 28 is_stmt 0 discriminator 3 view .LVU528
 1852 0006 0320     		movs	r0, #3
 1853 0008 FFF7FEFF 		bl	memp_malloc
 1854              	.LVL182:
1669:c:/Users/Black_Life/STM32Cube/Repository/STM32Cube_FW_F4_V1.26.2/Middlewares/Third_Party/LwIP/src/core\tcp.c ****     return NULL;
 1855              		.loc 1 1669 3 is_stmt 1 discriminator 3 view .LVU529
1669:c:/Users/Black_Life/STM32Cube/Repository/STM32Cube_FW_F4_V1.26.2/Middlewares/Third_Party/LwIP/src/core\tcp.c ****     return NULL;
 1856              		.loc 1 1669 6 is_stmt 0 discriminator 3 view .LVU530
 1857 000c 0446     		mov	r4, r0
 1858 000e 50B1     		cbz	r0, .L185
1672:c:/Users/Black_Life/STM32Cube/Repository/STM32Cube_FW_F4_V1.26.2/Middlewares/Third_Party/LwIP/src/core\tcp.c ****   pbuf_ref(cseg->p);
 1859              		.loc 1 1672 3 is_stmt 1 view .LVU531
 1860 0010 2868     		ldr	r0, [r5]	@ unaligned
 1861              	.LVL183:
1672:c:/Users/Black_Life/STM32Cube/Repository/STM32Cube_FW_F4_V1.26.2/Middlewares/Third_Party/LwIP/src/core\tcp.c ****   pbuf_ref(cseg->p);
ARM GAS  C:\Users\BLACK_~1\AppData\Local\Temp\ccRovO0r.s 			page 75


 1862              		.loc 1 1672 3 is_stmt 0 view .LVU532
 1863 0012 6968     		ldr	r1, [r5, #4]	@ unaligned
 1864 0014 AA68     		ldr	r2, [r5, #8]	@ unaligned
 1865 0016 EB68     		ldr	r3, [r5, #12]	@ unaligned
 1866 0018 2060     		str	r0, [r4]	@ unaligned
 1867 001a 6160     		str	r1, [r4, #4]	@ unaligned
 1868 001c A260     		str	r2, [r4, #8]	@ unaligned
 1869 001e E360     		str	r3, [r4, #12]	@ unaligned
1673:c:/Users/Black_Life/STM32Cube/Repository/STM32Cube_FW_F4_V1.26.2/Middlewares/Third_Party/LwIP/src/core\tcp.c ****   return cseg;
 1870              		.loc 1 1673 3 is_stmt 1 view .LVU533
 1871 0020 6068     		ldr	r0, [r4, #4]
 1872 0022 FFF7FEFF 		bl	pbuf_ref
 1873              	.LVL184:
1674:c:/Users/Black_Life/STM32Cube/Repository/STM32Cube_FW_F4_V1.26.2/Middlewares/Third_Party/LwIP/src/core\tcp.c **** }
 1874              		.loc 1 1674 3 view .LVU534
 1875              	.L185:
1675:c:/Users/Black_Life/STM32Cube/Repository/STM32Cube_FW_F4_V1.26.2/Middlewares/Third_Party/LwIP/src/core\tcp.c **** #endif /* TCP_QUEUE_OOSEQ */
 1876              		.loc 1 1675 1 is_stmt 0 view .LVU535
 1877 0026 2046     		mov	r0, r4
 1878 0028 38BD     		pop	{r3, r4, r5, pc}
 1879              	.LVL185:
 1880              	.L189:
1666:c:/Users/Black_Life/STM32Cube/Repository/STM32Cube_FW_F4_V1.26.2/Middlewares/Third_Party/LwIP/src/core\tcp.c **** 
 1881              		.loc 1 1666 3 is_stmt 1 discriminator 1 view .LVU536
1666:c:/Users/Black_Life/STM32Cube/Repository/STM32Cube_FW_F4_V1.26.2/Middlewares/Third_Party/LwIP/src/core\tcp.c **** 
 1882              		.loc 1 1666 3 discriminator 1 view .LVU537
 1883 002a 044B     		ldr	r3, .L190
 1884 002c 40F28262 		movw	r2, #1666
 1885 0030 0349     		ldr	r1, .L190+4
 1886 0032 0448     		ldr	r0, .L190+8
 1887              	.LVL186:
1666:c:/Users/Black_Life/STM32Cube/Repository/STM32Cube_FW_F4_V1.26.2/Middlewares/Third_Party/LwIP/src/core\tcp.c **** 
 1888              		.loc 1 1666 3 is_stmt 0 discriminator 1 view .LVU538
 1889 0034 FFF7FEFF 		bl	printf
 1890              	.LVL187:
 1891 0038 E5E7     		b	.L186
 1892              	.L191:
 1893 003a 00BF     		.align	2
 1894              	.L190:
 1895 003c 00000000 		.word	.LC0
 1896 0040 00000000 		.word	.LC16
 1897 0044 98000000 		.word	.LC2
 1898              		.cfi_endproc
 1899              	.LFE184:
 1901              		.section	.text.tcp_arg,"ax",%progbits
 1902              		.align	1
 1903              		.global	tcp_arg
 1904              		.syntax unified
 1905              		.thumb
 1906              		.thumb_func
 1908              	tcp_arg:
 1909              	.LVL188:
 1910              	.LFB193:
1826:c:/Users/Black_Life/STM32Cube/Repository/STM32Cube_FW_F4_V1.26.2/Middlewares/Third_Party/LwIP/src/core\tcp.c **** 
1827:c:/Users/Black_Life/STM32Cube/Repository/STM32Cube_FW_F4_V1.26.2/Middlewares/Third_Party/LwIP/src/core\tcp.c **** /**
1828:c:/Users/Black_Life/STM32Cube/Repository/STM32Cube_FW_F4_V1.26.2/Middlewares/Third_Party/LwIP/src/core\tcp.c ****  * Allocate a new tcp_pcb structure.
1829:c:/Users/Black_Life/STM32Cube/Repository/STM32Cube_FW_F4_V1.26.2/Middlewares/Third_Party/LwIP/src/core\tcp.c ****  *
ARM GAS  C:\Users\BLACK_~1\AppData\Local\Temp\ccRovO0r.s 			page 76


1830:c:/Users/Black_Life/STM32Cube/Repository/STM32Cube_FW_F4_V1.26.2/Middlewares/Third_Party/LwIP/src/core\tcp.c ****  * @param prio priority for the new pcb
1831:c:/Users/Black_Life/STM32Cube/Repository/STM32Cube_FW_F4_V1.26.2/Middlewares/Third_Party/LwIP/src/core\tcp.c ****  * @return a new tcp_pcb that initially is in state CLOSED
1832:c:/Users/Black_Life/STM32Cube/Repository/STM32Cube_FW_F4_V1.26.2/Middlewares/Third_Party/LwIP/src/core\tcp.c ****  */
1833:c:/Users/Black_Life/STM32Cube/Repository/STM32Cube_FW_F4_V1.26.2/Middlewares/Third_Party/LwIP/src/core\tcp.c **** struct tcp_pcb *
1834:c:/Users/Black_Life/STM32Cube/Repository/STM32Cube_FW_F4_V1.26.2/Middlewares/Third_Party/LwIP/src/core\tcp.c **** tcp_alloc(u8_t prio)
1835:c:/Users/Black_Life/STM32Cube/Repository/STM32Cube_FW_F4_V1.26.2/Middlewares/Third_Party/LwIP/src/core\tcp.c **** {
1836:c:/Users/Black_Life/STM32Cube/Repository/STM32Cube_FW_F4_V1.26.2/Middlewares/Third_Party/LwIP/src/core\tcp.c ****   struct tcp_pcb *pcb;
1837:c:/Users/Black_Life/STM32Cube/Repository/STM32Cube_FW_F4_V1.26.2/Middlewares/Third_Party/LwIP/src/core\tcp.c **** 
1838:c:/Users/Black_Life/STM32Cube/Repository/STM32Cube_FW_F4_V1.26.2/Middlewares/Third_Party/LwIP/src/core\tcp.c ****   LWIP_ASSERT_CORE_LOCKED();
1839:c:/Users/Black_Life/STM32Cube/Repository/STM32Cube_FW_F4_V1.26.2/Middlewares/Third_Party/LwIP/src/core\tcp.c **** 
1840:c:/Users/Black_Life/STM32Cube/Repository/STM32Cube_FW_F4_V1.26.2/Middlewares/Third_Party/LwIP/src/core\tcp.c ****   pcb = (struct tcp_pcb *)memp_malloc(MEMP_TCP_PCB);
1841:c:/Users/Black_Life/STM32Cube/Repository/STM32Cube_FW_F4_V1.26.2/Middlewares/Third_Party/LwIP/src/core\tcp.c ****   if (pcb == NULL) {
1842:c:/Users/Black_Life/STM32Cube/Repository/STM32Cube_FW_F4_V1.26.2/Middlewares/Third_Party/LwIP/src/core\tcp.c ****     /* Try to send FIN for all pcbs stuck in TF_CLOSEPEND first */
1843:c:/Users/Black_Life/STM32Cube/Repository/STM32Cube_FW_F4_V1.26.2/Middlewares/Third_Party/LwIP/src/core\tcp.c ****     tcp_handle_closepend();
1844:c:/Users/Black_Life/STM32Cube/Repository/STM32Cube_FW_F4_V1.26.2/Middlewares/Third_Party/LwIP/src/core\tcp.c **** 
1845:c:/Users/Black_Life/STM32Cube/Repository/STM32Cube_FW_F4_V1.26.2/Middlewares/Third_Party/LwIP/src/core\tcp.c ****     /* Try killing oldest connection in TIME-WAIT. */
1846:c:/Users/Black_Life/STM32Cube/Repository/STM32Cube_FW_F4_V1.26.2/Middlewares/Third_Party/LwIP/src/core\tcp.c ****     LWIP_DEBUGF(TCP_DEBUG, ("tcp_alloc: killing off oldest TIME-WAIT connection\n"));
1847:c:/Users/Black_Life/STM32Cube/Repository/STM32Cube_FW_F4_V1.26.2/Middlewares/Third_Party/LwIP/src/core\tcp.c ****     tcp_kill_timewait();
1848:c:/Users/Black_Life/STM32Cube/Repository/STM32Cube_FW_F4_V1.26.2/Middlewares/Third_Party/LwIP/src/core\tcp.c ****     /* Try to allocate a tcp_pcb again. */
1849:c:/Users/Black_Life/STM32Cube/Repository/STM32Cube_FW_F4_V1.26.2/Middlewares/Third_Party/LwIP/src/core\tcp.c ****     pcb = (struct tcp_pcb *)memp_malloc(MEMP_TCP_PCB);
1850:c:/Users/Black_Life/STM32Cube/Repository/STM32Cube_FW_F4_V1.26.2/Middlewares/Third_Party/LwIP/src/core\tcp.c ****     if (pcb == NULL) {
1851:c:/Users/Black_Life/STM32Cube/Repository/STM32Cube_FW_F4_V1.26.2/Middlewares/Third_Party/LwIP/src/core\tcp.c ****       /* Try killing oldest connection in LAST-ACK (these wouldn't go to TIME-WAIT). */
1852:c:/Users/Black_Life/STM32Cube/Repository/STM32Cube_FW_F4_V1.26.2/Middlewares/Third_Party/LwIP/src/core\tcp.c ****       LWIP_DEBUGF(TCP_DEBUG, ("tcp_alloc: killing off oldest LAST-ACK connection\n"));
1853:c:/Users/Black_Life/STM32Cube/Repository/STM32Cube_FW_F4_V1.26.2/Middlewares/Third_Party/LwIP/src/core\tcp.c ****       tcp_kill_state(LAST_ACK);
1854:c:/Users/Black_Life/STM32Cube/Repository/STM32Cube_FW_F4_V1.26.2/Middlewares/Third_Party/LwIP/src/core\tcp.c ****       /* Try to allocate a tcp_pcb again. */
1855:c:/Users/Black_Life/STM32Cube/Repository/STM32Cube_FW_F4_V1.26.2/Middlewares/Third_Party/LwIP/src/core\tcp.c ****       pcb = (struct tcp_pcb *)memp_malloc(MEMP_TCP_PCB);
1856:c:/Users/Black_Life/STM32Cube/Repository/STM32Cube_FW_F4_V1.26.2/Middlewares/Third_Party/LwIP/src/core\tcp.c ****       if (pcb == NULL) {
1857:c:/Users/Black_Life/STM32Cube/Repository/STM32Cube_FW_F4_V1.26.2/Middlewares/Third_Party/LwIP/src/core\tcp.c ****         /* Try killing oldest connection in CLOSING. */
1858:c:/Users/Black_Life/STM32Cube/Repository/STM32Cube_FW_F4_V1.26.2/Middlewares/Third_Party/LwIP/src/core\tcp.c ****         LWIP_DEBUGF(TCP_DEBUG, ("tcp_alloc: killing off oldest CLOSING connection\n"));
1859:c:/Users/Black_Life/STM32Cube/Repository/STM32Cube_FW_F4_V1.26.2/Middlewares/Third_Party/LwIP/src/core\tcp.c ****         tcp_kill_state(CLOSING);
1860:c:/Users/Black_Life/STM32Cube/Repository/STM32Cube_FW_F4_V1.26.2/Middlewares/Third_Party/LwIP/src/core\tcp.c ****         /* Try to allocate a tcp_pcb again. */
1861:c:/Users/Black_Life/STM32Cube/Repository/STM32Cube_FW_F4_V1.26.2/Middlewares/Third_Party/LwIP/src/core\tcp.c ****         pcb = (struct tcp_pcb *)memp_malloc(MEMP_TCP_PCB);
1862:c:/Users/Black_Life/STM32Cube/Repository/STM32Cube_FW_F4_V1.26.2/Middlewares/Third_Party/LwIP/src/core\tcp.c ****         if (pcb == NULL) {
1863:c:/Users/Black_Life/STM32Cube/Repository/STM32Cube_FW_F4_V1.26.2/Middlewares/Third_Party/LwIP/src/core\tcp.c ****           /* Try killing oldest active connection with lower priority than the new one. */
1864:c:/Users/Black_Life/STM32Cube/Repository/STM32Cube_FW_F4_V1.26.2/Middlewares/Third_Party/LwIP/src/core\tcp.c ****           LWIP_DEBUGF(TCP_DEBUG, ("tcp_alloc: killing oldest connection with prio lower than %d\n",
1865:c:/Users/Black_Life/STM32Cube/Repository/STM32Cube_FW_F4_V1.26.2/Middlewares/Third_Party/LwIP/src/core\tcp.c ****           tcp_kill_prio(prio);
1866:c:/Users/Black_Life/STM32Cube/Repository/STM32Cube_FW_F4_V1.26.2/Middlewares/Third_Party/LwIP/src/core\tcp.c ****           /* Try to allocate a tcp_pcb again. */
1867:c:/Users/Black_Life/STM32Cube/Repository/STM32Cube_FW_F4_V1.26.2/Middlewares/Third_Party/LwIP/src/core\tcp.c ****           pcb = (struct tcp_pcb *)memp_malloc(MEMP_TCP_PCB);
1868:c:/Users/Black_Life/STM32Cube/Repository/STM32Cube_FW_F4_V1.26.2/Middlewares/Third_Party/LwIP/src/core\tcp.c ****           if (pcb != NULL) {
1869:c:/Users/Black_Life/STM32Cube/Repository/STM32Cube_FW_F4_V1.26.2/Middlewares/Third_Party/LwIP/src/core\tcp.c ****             /* adjust err stats: memp_malloc failed multiple times before */
1870:c:/Users/Black_Life/STM32Cube/Repository/STM32Cube_FW_F4_V1.26.2/Middlewares/Third_Party/LwIP/src/core\tcp.c ****             MEMP_STATS_DEC(err, MEMP_TCP_PCB);
1871:c:/Users/Black_Life/STM32Cube/Repository/STM32Cube_FW_F4_V1.26.2/Middlewares/Third_Party/LwIP/src/core\tcp.c ****           }
1872:c:/Users/Black_Life/STM32Cube/Repository/STM32Cube_FW_F4_V1.26.2/Middlewares/Third_Party/LwIP/src/core\tcp.c ****         }
1873:c:/Users/Black_Life/STM32Cube/Repository/STM32Cube_FW_F4_V1.26.2/Middlewares/Third_Party/LwIP/src/core\tcp.c ****         if (pcb != NULL) {
1874:c:/Users/Black_Life/STM32Cube/Repository/STM32Cube_FW_F4_V1.26.2/Middlewares/Third_Party/LwIP/src/core\tcp.c ****           /* adjust err stats: memp_malloc failed multiple times before */
1875:c:/Users/Black_Life/STM32Cube/Repository/STM32Cube_FW_F4_V1.26.2/Middlewares/Third_Party/LwIP/src/core\tcp.c ****           MEMP_STATS_DEC(err, MEMP_TCP_PCB);
1876:c:/Users/Black_Life/STM32Cube/Repository/STM32Cube_FW_F4_V1.26.2/Middlewares/Third_Party/LwIP/src/core\tcp.c ****         }
1877:c:/Users/Black_Life/STM32Cube/Repository/STM32Cube_FW_F4_V1.26.2/Middlewares/Third_Party/LwIP/src/core\tcp.c ****       }
1878:c:/Users/Black_Life/STM32Cube/Repository/STM32Cube_FW_F4_V1.26.2/Middlewares/Third_Party/LwIP/src/core\tcp.c ****       if (pcb != NULL) {
1879:c:/Users/Black_Life/STM32Cube/Repository/STM32Cube_FW_F4_V1.26.2/Middlewares/Third_Party/LwIP/src/core\tcp.c ****         /* adjust err stats: memp_malloc failed multiple times before */
1880:c:/Users/Black_Life/STM32Cube/Repository/STM32Cube_FW_F4_V1.26.2/Middlewares/Third_Party/LwIP/src/core\tcp.c ****         MEMP_STATS_DEC(err, MEMP_TCP_PCB);
1881:c:/Users/Black_Life/STM32Cube/Repository/STM32Cube_FW_F4_V1.26.2/Middlewares/Third_Party/LwIP/src/core\tcp.c ****       }
1882:c:/Users/Black_Life/STM32Cube/Repository/STM32Cube_FW_F4_V1.26.2/Middlewares/Third_Party/LwIP/src/core\tcp.c ****     }
1883:c:/Users/Black_Life/STM32Cube/Repository/STM32Cube_FW_F4_V1.26.2/Middlewares/Third_Party/LwIP/src/core\tcp.c ****     if (pcb != NULL) {
1884:c:/Users/Black_Life/STM32Cube/Repository/STM32Cube_FW_F4_V1.26.2/Middlewares/Third_Party/LwIP/src/core\tcp.c ****       /* adjust err stats: memp_malloc failed above */
1885:c:/Users/Black_Life/STM32Cube/Repository/STM32Cube_FW_F4_V1.26.2/Middlewares/Third_Party/LwIP/src/core\tcp.c ****       MEMP_STATS_DEC(err, MEMP_TCP_PCB);
1886:c:/Users/Black_Life/STM32Cube/Repository/STM32Cube_FW_F4_V1.26.2/Middlewares/Third_Party/LwIP/src/core\tcp.c ****     }
ARM GAS  C:\Users\BLACK_~1\AppData\Local\Temp\ccRovO0r.s 			page 77


1887:c:/Users/Black_Life/STM32Cube/Repository/STM32Cube_FW_F4_V1.26.2/Middlewares/Third_Party/LwIP/src/core\tcp.c ****   }
1888:c:/Users/Black_Life/STM32Cube/Repository/STM32Cube_FW_F4_V1.26.2/Middlewares/Third_Party/LwIP/src/core\tcp.c ****   if (pcb != NULL) {
1889:c:/Users/Black_Life/STM32Cube/Repository/STM32Cube_FW_F4_V1.26.2/Middlewares/Third_Party/LwIP/src/core\tcp.c ****     /* zero out the whole pcb, so there is no need to initialize members to zero */
1890:c:/Users/Black_Life/STM32Cube/Repository/STM32Cube_FW_F4_V1.26.2/Middlewares/Third_Party/LwIP/src/core\tcp.c ****     memset(pcb, 0, sizeof(struct tcp_pcb));
1891:c:/Users/Black_Life/STM32Cube/Repository/STM32Cube_FW_F4_V1.26.2/Middlewares/Third_Party/LwIP/src/core\tcp.c ****     pcb->prio = prio;
1892:c:/Users/Black_Life/STM32Cube/Repository/STM32Cube_FW_F4_V1.26.2/Middlewares/Third_Party/LwIP/src/core\tcp.c ****     pcb->snd_buf = TCP_SND_BUF;
1893:c:/Users/Black_Life/STM32Cube/Repository/STM32Cube_FW_F4_V1.26.2/Middlewares/Third_Party/LwIP/src/core\tcp.c ****     /* Start with a window that does not need scaling. When window scaling is
1894:c:/Users/Black_Life/STM32Cube/Repository/STM32Cube_FW_F4_V1.26.2/Middlewares/Third_Party/LwIP/src/core\tcp.c ****        enabled and used, the window is enlarged when both sides agree on scaling. */
1895:c:/Users/Black_Life/STM32Cube/Repository/STM32Cube_FW_F4_V1.26.2/Middlewares/Third_Party/LwIP/src/core\tcp.c ****     pcb->rcv_wnd = pcb->rcv_ann_wnd = TCPWND_MIN16(TCP_WND);
1896:c:/Users/Black_Life/STM32Cube/Repository/STM32Cube_FW_F4_V1.26.2/Middlewares/Third_Party/LwIP/src/core\tcp.c ****     pcb->ttl = TCP_TTL;
1897:c:/Users/Black_Life/STM32Cube/Repository/STM32Cube_FW_F4_V1.26.2/Middlewares/Third_Party/LwIP/src/core\tcp.c ****     /* As initial send MSS, we use TCP_MSS but limit it to 536.
1898:c:/Users/Black_Life/STM32Cube/Repository/STM32Cube_FW_F4_V1.26.2/Middlewares/Third_Party/LwIP/src/core\tcp.c ****        The send MSS is updated when an MSS option is received. */
1899:c:/Users/Black_Life/STM32Cube/Repository/STM32Cube_FW_F4_V1.26.2/Middlewares/Third_Party/LwIP/src/core\tcp.c ****     pcb->mss = INITIAL_MSS;
1900:c:/Users/Black_Life/STM32Cube/Repository/STM32Cube_FW_F4_V1.26.2/Middlewares/Third_Party/LwIP/src/core\tcp.c ****     pcb->rto = 3000 / TCP_SLOW_INTERVAL;
1901:c:/Users/Black_Life/STM32Cube/Repository/STM32Cube_FW_F4_V1.26.2/Middlewares/Third_Party/LwIP/src/core\tcp.c ****     pcb->sv = 3000 / TCP_SLOW_INTERVAL;
1902:c:/Users/Black_Life/STM32Cube/Repository/STM32Cube_FW_F4_V1.26.2/Middlewares/Third_Party/LwIP/src/core\tcp.c ****     pcb->rtime = -1;
1903:c:/Users/Black_Life/STM32Cube/Repository/STM32Cube_FW_F4_V1.26.2/Middlewares/Third_Party/LwIP/src/core\tcp.c ****     pcb->cwnd = 1;
1904:c:/Users/Black_Life/STM32Cube/Repository/STM32Cube_FW_F4_V1.26.2/Middlewares/Third_Party/LwIP/src/core\tcp.c ****     pcb->tmr = tcp_ticks;
1905:c:/Users/Black_Life/STM32Cube/Repository/STM32Cube_FW_F4_V1.26.2/Middlewares/Third_Party/LwIP/src/core\tcp.c ****     pcb->last_timer = tcp_timer_ctr;
1906:c:/Users/Black_Life/STM32Cube/Repository/STM32Cube_FW_F4_V1.26.2/Middlewares/Third_Party/LwIP/src/core\tcp.c **** 
1907:c:/Users/Black_Life/STM32Cube/Repository/STM32Cube_FW_F4_V1.26.2/Middlewares/Third_Party/LwIP/src/core\tcp.c ****     /* RFC 5681 recommends setting ssthresh abritrarily high and gives an example
1908:c:/Users/Black_Life/STM32Cube/Repository/STM32Cube_FW_F4_V1.26.2/Middlewares/Third_Party/LwIP/src/core\tcp.c ****     of using the largest advertised receive window.  We've seen complications with
1909:c:/Users/Black_Life/STM32Cube/Repository/STM32Cube_FW_F4_V1.26.2/Middlewares/Third_Party/LwIP/src/core\tcp.c ****     receiving TCPs that use window scaling and/or window auto-tuning where the
1910:c:/Users/Black_Life/STM32Cube/Repository/STM32Cube_FW_F4_V1.26.2/Middlewares/Third_Party/LwIP/src/core\tcp.c ****     initial advertised window is very small and then grows rapidly once the
1911:c:/Users/Black_Life/STM32Cube/Repository/STM32Cube_FW_F4_V1.26.2/Middlewares/Third_Party/LwIP/src/core\tcp.c ****     connection is established. To avoid these complications, we set ssthresh to the
1912:c:/Users/Black_Life/STM32Cube/Repository/STM32Cube_FW_F4_V1.26.2/Middlewares/Third_Party/LwIP/src/core\tcp.c ****     largest effective cwnd (amount of in-flight data) that the sender can have. */
1913:c:/Users/Black_Life/STM32Cube/Repository/STM32Cube_FW_F4_V1.26.2/Middlewares/Third_Party/LwIP/src/core\tcp.c ****     pcb->ssthresh = TCP_SND_BUF;
1914:c:/Users/Black_Life/STM32Cube/Repository/STM32Cube_FW_F4_V1.26.2/Middlewares/Third_Party/LwIP/src/core\tcp.c **** 
1915:c:/Users/Black_Life/STM32Cube/Repository/STM32Cube_FW_F4_V1.26.2/Middlewares/Third_Party/LwIP/src/core\tcp.c **** #if LWIP_CALLBACK_API
1916:c:/Users/Black_Life/STM32Cube/Repository/STM32Cube_FW_F4_V1.26.2/Middlewares/Third_Party/LwIP/src/core\tcp.c ****     pcb->recv = tcp_recv_null;
1917:c:/Users/Black_Life/STM32Cube/Repository/STM32Cube_FW_F4_V1.26.2/Middlewares/Third_Party/LwIP/src/core\tcp.c **** #endif /* LWIP_CALLBACK_API */
1918:c:/Users/Black_Life/STM32Cube/Repository/STM32Cube_FW_F4_V1.26.2/Middlewares/Third_Party/LwIP/src/core\tcp.c **** 
1919:c:/Users/Black_Life/STM32Cube/Repository/STM32Cube_FW_F4_V1.26.2/Middlewares/Third_Party/LwIP/src/core\tcp.c ****     /* Init KEEPALIVE timer */
1920:c:/Users/Black_Life/STM32Cube/Repository/STM32Cube_FW_F4_V1.26.2/Middlewares/Third_Party/LwIP/src/core\tcp.c ****     pcb->keep_idle  = TCP_KEEPIDLE_DEFAULT;
1921:c:/Users/Black_Life/STM32Cube/Repository/STM32Cube_FW_F4_V1.26.2/Middlewares/Third_Party/LwIP/src/core\tcp.c **** 
1922:c:/Users/Black_Life/STM32Cube/Repository/STM32Cube_FW_F4_V1.26.2/Middlewares/Third_Party/LwIP/src/core\tcp.c **** #if LWIP_TCP_KEEPALIVE
1923:c:/Users/Black_Life/STM32Cube/Repository/STM32Cube_FW_F4_V1.26.2/Middlewares/Third_Party/LwIP/src/core\tcp.c ****     pcb->keep_intvl = TCP_KEEPINTVL_DEFAULT;
1924:c:/Users/Black_Life/STM32Cube/Repository/STM32Cube_FW_F4_V1.26.2/Middlewares/Third_Party/LwIP/src/core\tcp.c ****     pcb->keep_cnt   = TCP_KEEPCNT_DEFAULT;
1925:c:/Users/Black_Life/STM32Cube/Repository/STM32Cube_FW_F4_V1.26.2/Middlewares/Third_Party/LwIP/src/core\tcp.c **** #endif /* LWIP_TCP_KEEPALIVE */
1926:c:/Users/Black_Life/STM32Cube/Repository/STM32Cube_FW_F4_V1.26.2/Middlewares/Third_Party/LwIP/src/core\tcp.c ****   }
1927:c:/Users/Black_Life/STM32Cube/Repository/STM32Cube_FW_F4_V1.26.2/Middlewares/Third_Party/LwIP/src/core\tcp.c ****   return pcb;
1928:c:/Users/Black_Life/STM32Cube/Repository/STM32Cube_FW_F4_V1.26.2/Middlewares/Third_Party/LwIP/src/core\tcp.c **** }
1929:c:/Users/Black_Life/STM32Cube/Repository/STM32Cube_FW_F4_V1.26.2/Middlewares/Third_Party/LwIP/src/core\tcp.c **** 
1930:c:/Users/Black_Life/STM32Cube/Repository/STM32Cube_FW_F4_V1.26.2/Middlewares/Third_Party/LwIP/src/core\tcp.c **** /**
1931:c:/Users/Black_Life/STM32Cube/Repository/STM32Cube_FW_F4_V1.26.2/Middlewares/Third_Party/LwIP/src/core\tcp.c ****  * @ingroup tcp_raw
1932:c:/Users/Black_Life/STM32Cube/Repository/STM32Cube_FW_F4_V1.26.2/Middlewares/Third_Party/LwIP/src/core\tcp.c ****  * Creates a new TCP protocol control block but doesn't place it on
1933:c:/Users/Black_Life/STM32Cube/Repository/STM32Cube_FW_F4_V1.26.2/Middlewares/Third_Party/LwIP/src/core\tcp.c ****  * any of the TCP PCB lists.
1934:c:/Users/Black_Life/STM32Cube/Repository/STM32Cube_FW_F4_V1.26.2/Middlewares/Third_Party/LwIP/src/core\tcp.c ****  * The pcb is not put on any list until binding using tcp_bind().
1935:c:/Users/Black_Life/STM32Cube/Repository/STM32Cube_FW_F4_V1.26.2/Middlewares/Third_Party/LwIP/src/core\tcp.c ****  * If memory is not available for creating the new pcb, NULL is returned.
1936:c:/Users/Black_Life/STM32Cube/Repository/STM32Cube_FW_F4_V1.26.2/Middlewares/Third_Party/LwIP/src/core\tcp.c ****  *
1937:c:/Users/Black_Life/STM32Cube/Repository/STM32Cube_FW_F4_V1.26.2/Middlewares/Third_Party/LwIP/src/core\tcp.c ****  * @internal: Maybe there should be a idle TCP PCB list where these
1938:c:/Users/Black_Life/STM32Cube/Repository/STM32Cube_FW_F4_V1.26.2/Middlewares/Third_Party/LwIP/src/core\tcp.c ****  * PCBs are put on. Port reservation using tcp_bind() is implemented but
1939:c:/Users/Black_Life/STM32Cube/Repository/STM32Cube_FW_F4_V1.26.2/Middlewares/Third_Party/LwIP/src/core\tcp.c ****  * allocated pcbs that are not bound can't be killed automatically if wanting
1940:c:/Users/Black_Life/STM32Cube/Repository/STM32Cube_FW_F4_V1.26.2/Middlewares/Third_Party/LwIP/src/core\tcp.c ****  * to allocate a pcb with higher prio (@see tcp_kill_prio())
1941:c:/Users/Black_Life/STM32Cube/Repository/STM32Cube_FW_F4_V1.26.2/Middlewares/Third_Party/LwIP/src/core\tcp.c ****  *
1942:c:/Users/Black_Life/STM32Cube/Repository/STM32Cube_FW_F4_V1.26.2/Middlewares/Third_Party/LwIP/src/core\tcp.c ****  * @return a new tcp_pcb that initially is in state CLOSED
1943:c:/Users/Black_Life/STM32Cube/Repository/STM32Cube_FW_F4_V1.26.2/Middlewares/Third_Party/LwIP/src/core\tcp.c ****  */
ARM GAS  C:\Users\BLACK_~1\AppData\Local\Temp\ccRovO0r.s 			page 78


1944:c:/Users/Black_Life/STM32Cube/Repository/STM32Cube_FW_F4_V1.26.2/Middlewares/Third_Party/LwIP/src/core\tcp.c **** struct tcp_pcb *
1945:c:/Users/Black_Life/STM32Cube/Repository/STM32Cube_FW_F4_V1.26.2/Middlewares/Third_Party/LwIP/src/core\tcp.c **** tcp_new(void)
1946:c:/Users/Black_Life/STM32Cube/Repository/STM32Cube_FW_F4_V1.26.2/Middlewares/Third_Party/LwIP/src/core\tcp.c **** {
1947:c:/Users/Black_Life/STM32Cube/Repository/STM32Cube_FW_F4_V1.26.2/Middlewares/Third_Party/LwIP/src/core\tcp.c ****   return tcp_alloc(TCP_PRIO_NORMAL);
1948:c:/Users/Black_Life/STM32Cube/Repository/STM32Cube_FW_F4_V1.26.2/Middlewares/Third_Party/LwIP/src/core\tcp.c **** }
1949:c:/Users/Black_Life/STM32Cube/Repository/STM32Cube_FW_F4_V1.26.2/Middlewares/Third_Party/LwIP/src/core\tcp.c **** 
1950:c:/Users/Black_Life/STM32Cube/Repository/STM32Cube_FW_F4_V1.26.2/Middlewares/Third_Party/LwIP/src/core\tcp.c **** /**
1951:c:/Users/Black_Life/STM32Cube/Repository/STM32Cube_FW_F4_V1.26.2/Middlewares/Third_Party/LwIP/src/core\tcp.c ****  * @ingroup tcp_raw
1952:c:/Users/Black_Life/STM32Cube/Repository/STM32Cube_FW_F4_V1.26.2/Middlewares/Third_Party/LwIP/src/core\tcp.c ****  * Creates a new TCP protocol control block but doesn't
1953:c:/Users/Black_Life/STM32Cube/Repository/STM32Cube_FW_F4_V1.26.2/Middlewares/Third_Party/LwIP/src/core\tcp.c ****  * place it on any of the TCP PCB lists.
1954:c:/Users/Black_Life/STM32Cube/Repository/STM32Cube_FW_F4_V1.26.2/Middlewares/Third_Party/LwIP/src/core\tcp.c ****  * The pcb is not put on any list until binding using tcp_bind().
1955:c:/Users/Black_Life/STM32Cube/Repository/STM32Cube_FW_F4_V1.26.2/Middlewares/Third_Party/LwIP/src/core\tcp.c ****  *
1956:c:/Users/Black_Life/STM32Cube/Repository/STM32Cube_FW_F4_V1.26.2/Middlewares/Third_Party/LwIP/src/core\tcp.c ****  * @param type IP address type, see @ref lwip_ip_addr_type definitions.
1957:c:/Users/Black_Life/STM32Cube/Repository/STM32Cube_FW_F4_V1.26.2/Middlewares/Third_Party/LwIP/src/core\tcp.c ****  * If you want to listen to IPv4 and IPv6 (dual-stack) connections,
1958:c:/Users/Black_Life/STM32Cube/Repository/STM32Cube_FW_F4_V1.26.2/Middlewares/Third_Party/LwIP/src/core\tcp.c ****  * supply @ref IPADDR_TYPE_ANY as argument and bind to @ref IP_ANY_TYPE.
1959:c:/Users/Black_Life/STM32Cube/Repository/STM32Cube_FW_F4_V1.26.2/Middlewares/Third_Party/LwIP/src/core\tcp.c ****  * @return a new tcp_pcb that initially is in state CLOSED
1960:c:/Users/Black_Life/STM32Cube/Repository/STM32Cube_FW_F4_V1.26.2/Middlewares/Third_Party/LwIP/src/core\tcp.c ****  */
1961:c:/Users/Black_Life/STM32Cube/Repository/STM32Cube_FW_F4_V1.26.2/Middlewares/Third_Party/LwIP/src/core\tcp.c **** struct tcp_pcb *
1962:c:/Users/Black_Life/STM32Cube/Repository/STM32Cube_FW_F4_V1.26.2/Middlewares/Third_Party/LwIP/src/core\tcp.c **** tcp_new_ip_type(u8_t type)
1963:c:/Users/Black_Life/STM32Cube/Repository/STM32Cube_FW_F4_V1.26.2/Middlewares/Third_Party/LwIP/src/core\tcp.c **** {
1964:c:/Users/Black_Life/STM32Cube/Repository/STM32Cube_FW_F4_V1.26.2/Middlewares/Third_Party/LwIP/src/core\tcp.c ****   struct tcp_pcb *pcb;
1965:c:/Users/Black_Life/STM32Cube/Repository/STM32Cube_FW_F4_V1.26.2/Middlewares/Third_Party/LwIP/src/core\tcp.c ****   pcb = tcp_alloc(TCP_PRIO_NORMAL);
1966:c:/Users/Black_Life/STM32Cube/Repository/STM32Cube_FW_F4_V1.26.2/Middlewares/Third_Party/LwIP/src/core\tcp.c **** #if LWIP_IPV4 && LWIP_IPV6
1967:c:/Users/Black_Life/STM32Cube/Repository/STM32Cube_FW_F4_V1.26.2/Middlewares/Third_Party/LwIP/src/core\tcp.c ****   if (pcb != NULL) {
1968:c:/Users/Black_Life/STM32Cube/Repository/STM32Cube_FW_F4_V1.26.2/Middlewares/Third_Party/LwIP/src/core\tcp.c ****     IP_SET_TYPE_VAL(pcb->local_ip, type);
1969:c:/Users/Black_Life/STM32Cube/Repository/STM32Cube_FW_F4_V1.26.2/Middlewares/Third_Party/LwIP/src/core\tcp.c ****     IP_SET_TYPE_VAL(pcb->remote_ip, type);
1970:c:/Users/Black_Life/STM32Cube/Repository/STM32Cube_FW_F4_V1.26.2/Middlewares/Third_Party/LwIP/src/core\tcp.c ****   }
1971:c:/Users/Black_Life/STM32Cube/Repository/STM32Cube_FW_F4_V1.26.2/Middlewares/Third_Party/LwIP/src/core\tcp.c **** #else
1972:c:/Users/Black_Life/STM32Cube/Repository/STM32Cube_FW_F4_V1.26.2/Middlewares/Third_Party/LwIP/src/core\tcp.c ****   LWIP_UNUSED_ARG(type);
1973:c:/Users/Black_Life/STM32Cube/Repository/STM32Cube_FW_F4_V1.26.2/Middlewares/Third_Party/LwIP/src/core\tcp.c **** #endif /* LWIP_IPV4 && LWIP_IPV6 */
1974:c:/Users/Black_Life/STM32Cube/Repository/STM32Cube_FW_F4_V1.26.2/Middlewares/Third_Party/LwIP/src/core\tcp.c ****   return pcb;
1975:c:/Users/Black_Life/STM32Cube/Repository/STM32Cube_FW_F4_V1.26.2/Middlewares/Third_Party/LwIP/src/core\tcp.c **** }
1976:c:/Users/Black_Life/STM32Cube/Repository/STM32Cube_FW_F4_V1.26.2/Middlewares/Third_Party/LwIP/src/core\tcp.c **** 
1977:c:/Users/Black_Life/STM32Cube/Repository/STM32Cube_FW_F4_V1.26.2/Middlewares/Third_Party/LwIP/src/core\tcp.c **** /**
1978:c:/Users/Black_Life/STM32Cube/Repository/STM32Cube_FW_F4_V1.26.2/Middlewares/Third_Party/LwIP/src/core\tcp.c ****  * @ingroup tcp_raw
1979:c:/Users/Black_Life/STM32Cube/Repository/STM32Cube_FW_F4_V1.26.2/Middlewares/Third_Party/LwIP/src/core\tcp.c ****  * Specifies the program specific state that should be passed to all
1980:c:/Users/Black_Life/STM32Cube/Repository/STM32Cube_FW_F4_V1.26.2/Middlewares/Third_Party/LwIP/src/core\tcp.c ****  * other callback functions. The "pcb" argument is the current TCP
1981:c:/Users/Black_Life/STM32Cube/Repository/STM32Cube_FW_F4_V1.26.2/Middlewares/Third_Party/LwIP/src/core\tcp.c ****  * connection control block, and the "arg" argument is the argument
1982:c:/Users/Black_Life/STM32Cube/Repository/STM32Cube_FW_F4_V1.26.2/Middlewares/Third_Party/LwIP/src/core\tcp.c ****  * that will be passed to the callbacks.
1983:c:/Users/Black_Life/STM32Cube/Repository/STM32Cube_FW_F4_V1.26.2/Middlewares/Third_Party/LwIP/src/core\tcp.c ****  *
1984:c:/Users/Black_Life/STM32Cube/Repository/STM32Cube_FW_F4_V1.26.2/Middlewares/Third_Party/LwIP/src/core\tcp.c ****  * @param pcb tcp_pcb to set the callback argument
1985:c:/Users/Black_Life/STM32Cube/Repository/STM32Cube_FW_F4_V1.26.2/Middlewares/Third_Party/LwIP/src/core\tcp.c ****  * @param arg void pointer argument to pass to callback functions
1986:c:/Users/Black_Life/STM32Cube/Repository/STM32Cube_FW_F4_V1.26.2/Middlewares/Third_Party/LwIP/src/core\tcp.c ****  */
1987:c:/Users/Black_Life/STM32Cube/Repository/STM32Cube_FW_F4_V1.26.2/Middlewares/Third_Party/LwIP/src/core\tcp.c **** void
1988:c:/Users/Black_Life/STM32Cube/Repository/STM32Cube_FW_F4_V1.26.2/Middlewares/Third_Party/LwIP/src/core\tcp.c **** tcp_arg(struct tcp_pcb *pcb, void *arg)
1989:c:/Users/Black_Life/STM32Cube/Repository/STM32Cube_FW_F4_V1.26.2/Middlewares/Third_Party/LwIP/src/core\tcp.c **** {
 1911              		.loc 1 1989 1 is_stmt 1 view -0
 1912              		.cfi_startproc
 1913              		@ args = 0, pretend = 0, frame = 0
 1914              		@ frame_needed = 0, uses_anonymous_args = 0
 1915              		@ link register save eliminated.
1990:c:/Users/Black_Life/STM32Cube/Repository/STM32Cube_FW_F4_V1.26.2/Middlewares/Third_Party/LwIP/src/core\tcp.c ****   LWIP_ASSERT_CORE_LOCKED();
 1916              		.loc 1 1990 28 view .LVU540
1991:c:/Users/Black_Life/STM32Cube/Repository/STM32Cube_FW_F4_V1.26.2/Middlewares/Third_Party/LwIP/src/core\tcp.c ****   /* This function is allowed to be called for both listen pcbs and
1992:c:/Users/Black_Life/STM32Cube/Repository/STM32Cube_FW_F4_V1.26.2/Middlewares/Third_Party/LwIP/src/core\tcp.c ****      connection pcbs. */
1993:c:/Users/Black_Life/STM32Cube/Repository/STM32Cube_FW_F4_V1.26.2/Middlewares/Third_Party/LwIP/src/core\tcp.c ****   if (pcb != NULL) {
 1917              		.loc 1 1993 3 view .LVU541
ARM GAS  C:\Users\BLACK_~1\AppData\Local\Temp\ccRovO0r.s 			page 79


 1918              		.loc 1 1993 6 is_stmt 0 view .LVU542
 1919 0000 00B1     		cbz	r0, .L192
1994:c:/Users/Black_Life/STM32Cube/Repository/STM32Cube_FW_F4_V1.26.2/Middlewares/Third_Party/LwIP/src/core\tcp.c ****     pcb->callback_arg = arg;
 1920              		.loc 1 1994 5 is_stmt 1 view .LVU543
 1921              		.loc 1 1994 23 is_stmt 0 view .LVU544
 1922 0002 0161     		str	r1, [r0, #16]
 1923              	.L192:
1995:c:/Users/Black_Life/STM32Cube/Repository/STM32Cube_FW_F4_V1.26.2/Middlewares/Third_Party/LwIP/src/core\tcp.c ****   }
1996:c:/Users/Black_Life/STM32Cube/Repository/STM32Cube_FW_F4_V1.26.2/Middlewares/Third_Party/LwIP/src/core\tcp.c **** }
 1924              		.loc 1 1996 1 view .LVU545
 1925 0004 7047     		bx	lr
 1926              		.cfi_endproc
 1927              	.LFE193:
 1929              		.section	.rodata.tcp_recv.str1.4,"aMS",%progbits,1
 1930              		.align	2
 1931              	.LC17:
 1932 0000 696E7661 		.ascii	"invalid socket state for recv callback\000"
 1932      6C696420 
 1932      736F636B 
 1932      65742073 
 1932      74617465 
 1933              		.section	.text.tcp_recv,"ax",%progbits
 1934              		.align	1
 1935              		.global	tcp_recv
 1936              		.syntax unified
 1937              		.thumb
 1938              		.thumb_func
 1940              	tcp_recv:
 1941              	.LVL189:
 1942              	.LFB194:
1997:c:/Users/Black_Life/STM32Cube/Repository/STM32Cube_FW_F4_V1.26.2/Middlewares/Third_Party/LwIP/src/core\tcp.c **** #if LWIP_CALLBACK_API
1998:c:/Users/Black_Life/STM32Cube/Repository/STM32Cube_FW_F4_V1.26.2/Middlewares/Third_Party/LwIP/src/core\tcp.c **** 
1999:c:/Users/Black_Life/STM32Cube/Repository/STM32Cube_FW_F4_V1.26.2/Middlewares/Third_Party/LwIP/src/core\tcp.c **** /**
2000:c:/Users/Black_Life/STM32Cube/Repository/STM32Cube_FW_F4_V1.26.2/Middlewares/Third_Party/LwIP/src/core\tcp.c ****  * @ingroup tcp_raw
2001:c:/Users/Black_Life/STM32Cube/Repository/STM32Cube_FW_F4_V1.26.2/Middlewares/Third_Party/LwIP/src/core\tcp.c ****  * Sets the callback function that will be called when new data
2002:c:/Users/Black_Life/STM32Cube/Repository/STM32Cube_FW_F4_V1.26.2/Middlewares/Third_Party/LwIP/src/core\tcp.c ****  * arrives. The callback function will be passed a NULL pbuf to
2003:c:/Users/Black_Life/STM32Cube/Repository/STM32Cube_FW_F4_V1.26.2/Middlewares/Third_Party/LwIP/src/core\tcp.c ****  * indicate that the remote host has closed the connection. If the
2004:c:/Users/Black_Life/STM32Cube/Repository/STM32Cube_FW_F4_V1.26.2/Middlewares/Third_Party/LwIP/src/core\tcp.c ****  * callback function returns ERR_OK or ERR_ABRT it must have
2005:c:/Users/Black_Life/STM32Cube/Repository/STM32Cube_FW_F4_V1.26.2/Middlewares/Third_Party/LwIP/src/core\tcp.c ****  * freed the pbuf, otherwise it must not have freed it.
2006:c:/Users/Black_Life/STM32Cube/Repository/STM32Cube_FW_F4_V1.26.2/Middlewares/Third_Party/LwIP/src/core\tcp.c ****  *
2007:c:/Users/Black_Life/STM32Cube/Repository/STM32Cube_FW_F4_V1.26.2/Middlewares/Third_Party/LwIP/src/core\tcp.c ****  * @param pcb tcp_pcb to set the recv callback
2008:c:/Users/Black_Life/STM32Cube/Repository/STM32Cube_FW_F4_V1.26.2/Middlewares/Third_Party/LwIP/src/core\tcp.c ****  * @param recv callback function to call for this pcb when data is received
2009:c:/Users/Black_Life/STM32Cube/Repository/STM32Cube_FW_F4_V1.26.2/Middlewares/Third_Party/LwIP/src/core\tcp.c ****  */
2010:c:/Users/Black_Life/STM32Cube/Repository/STM32Cube_FW_F4_V1.26.2/Middlewares/Third_Party/LwIP/src/core\tcp.c **** void
2011:c:/Users/Black_Life/STM32Cube/Repository/STM32Cube_FW_F4_V1.26.2/Middlewares/Third_Party/LwIP/src/core\tcp.c **** tcp_recv(struct tcp_pcb *pcb, tcp_recv_fn recv)
2012:c:/Users/Black_Life/STM32Cube/Repository/STM32Cube_FW_F4_V1.26.2/Middlewares/Third_Party/LwIP/src/core\tcp.c **** {
 1943              		.loc 1 2012 1 is_stmt 1 view -0
 1944              		.cfi_startproc
 1945              		@ args = 0, pretend = 0, frame = 0
 1946              		@ frame_needed = 0, uses_anonymous_args = 0
2013:c:/Users/Black_Life/STM32Cube/Repository/STM32Cube_FW_F4_V1.26.2/Middlewares/Third_Party/LwIP/src/core\tcp.c ****   LWIP_ASSERT_CORE_LOCKED();
 1947              		.loc 1 2013 28 view .LVU547
2014:c:/Users/Black_Life/STM32Cube/Repository/STM32Cube_FW_F4_V1.26.2/Middlewares/Third_Party/LwIP/src/core\tcp.c ****   if (pcb != NULL) {
 1948              		.loc 1 2014 3 view .LVU548
 1949              		.loc 1 2014 6 is_stmt 0 view .LVU549
 1950 0000 80B1     		cbz	r0, .L198
2012:c:/Users/Black_Life/STM32Cube/Repository/STM32Cube_FW_F4_V1.26.2/Middlewares/Third_Party/LwIP/src/core\tcp.c ****   LWIP_ASSERT_CORE_LOCKED();
ARM GAS  C:\Users\BLACK_~1\AppData\Local\Temp\ccRovO0r.s 			page 80


 1951              		.loc 1 2012 1 view .LVU550
 1952 0002 38B5     		push	{r3, r4, r5, lr}
 1953              	.LCFI20:
 1954              		.cfi_def_cfa_offset 16
 1955              		.cfi_offset 3, -16
 1956              		.cfi_offset 4, -12
 1957              		.cfi_offset 5, -8
 1958              		.cfi_offset 14, -4
 1959 0004 0C46     		mov	r4, r1
 1960 0006 0546     		mov	r5, r0
2015:c:/Users/Black_Life/STM32Cube/Repository/STM32Cube_FW_F4_V1.26.2/Middlewares/Third_Party/LwIP/src/core\tcp.c ****     LWIP_ASSERT("invalid socket state for recv callback", pcb->state != LISTEN);
 1961              		.loc 1 2015 5 is_stmt 1 view .LVU551
 1962              		.loc 1 2015 5 view .LVU552
 1963 0008 037D     		ldrb	r3, [r0, #20]	@ zero_extendqisi2
 1964 000a 012B     		cmp	r3, #1
 1965 000c 02D0     		beq	.L201
 1966              	.LVL190:
 1967              	.L196:
 1968              		.loc 1 2015 5 discriminator 3 view .LVU553
 1969              		.loc 1 2015 5 discriminator 3 view .LVU554
2016:c:/Users/Black_Life/STM32Cube/Repository/STM32Cube_FW_F4_V1.26.2/Middlewares/Third_Party/LwIP/src/core\tcp.c ****     pcb->recv = recv;
 1970              		.loc 1 2016 5 discriminator 3 view .LVU555
 1971              		.loc 1 2016 15 is_stmt 0 discriminator 3 view .LVU556
 1972 000e C5F88440 		str	r4, [r5, #132]
2017:c:/Users/Black_Life/STM32Cube/Repository/STM32Cube_FW_F4_V1.26.2/Middlewares/Third_Party/LwIP/src/core\tcp.c ****   }
2018:c:/Users/Black_Life/STM32Cube/Repository/STM32Cube_FW_F4_V1.26.2/Middlewares/Third_Party/LwIP/src/core\tcp.c **** }
 1973              		.loc 1 2018 1 discriminator 3 view .LVU557
 1974 0012 38BD     		pop	{r3, r4, r5, pc}
 1975              	.LVL191:
 1976              	.L201:
2015:c:/Users/Black_Life/STM32Cube/Repository/STM32Cube_FW_F4_V1.26.2/Middlewares/Third_Party/LwIP/src/core\tcp.c ****     pcb->recv = recv;
 1977              		.loc 1 2015 5 is_stmt 1 discriminator 1 view .LVU558
2015:c:/Users/Black_Life/STM32Cube/Repository/STM32Cube_FW_F4_V1.26.2/Middlewares/Third_Party/LwIP/src/core\tcp.c ****     pcb->recv = recv;
 1978              		.loc 1 2015 5 discriminator 1 view .LVU559
 1979 0014 044B     		ldr	r3, .L202
 1980 0016 40F2DF72 		movw	r2, #2015
 1981 001a 0449     		ldr	r1, .L202+4
 1982              	.LVL192:
2015:c:/Users/Black_Life/STM32Cube/Repository/STM32Cube_FW_F4_V1.26.2/Middlewares/Third_Party/LwIP/src/core\tcp.c ****     pcb->recv = recv;
 1983              		.loc 1 2015 5 is_stmt 0 discriminator 1 view .LVU560
 1984 001c 0448     		ldr	r0, .L202+8
 1985              	.LVL193:
2015:c:/Users/Black_Life/STM32Cube/Repository/STM32Cube_FW_F4_V1.26.2/Middlewares/Third_Party/LwIP/src/core\tcp.c ****     pcb->recv = recv;
 1986              		.loc 1 2015 5 discriminator 1 view .LVU561
 1987 001e FFF7FEFF 		bl	printf
 1988              	.LVL194:
 1989 0022 F4E7     		b	.L196
 1990              	.LVL195:
 1991              	.L198:
 1992              	.LCFI21:
 1993              		.cfi_def_cfa_offset 0
 1994              		.cfi_restore 3
 1995              		.cfi_restore 4
 1996              		.cfi_restore 5
 1997              		.cfi_restore 14
2015:c:/Users/Black_Life/STM32Cube/Repository/STM32Cube_FW_F4_V1.26.2/Middlewares/Third_Party/LwIP/src/core\tcp.c ****     pcb->recv = recv;
 1998              		.loc 1 2015 5 discriminator 1 view .LVU562
ARM GAS  C:\Users\BLACK_~1\AppData\Local\Temp\ccRovO0r.s 			page 81


 1999 0024 7047     		bx	lr
 2000              	.L203:
 2001 0026 00BF     		.align	2
 2002              	.L202:
 2003 0028 00000000 		.word	.LC0
 2004 002c 00000000 		.word	.LC17
 2005 0030 98000000 		.word	.LC2
 2006              		.cfi_endproc
 2007              	.LFE194:
 2009              		.section	.rodata.tcp_sent.str1.4,"aMS",%progbits,1
 2010              		.align	2
 2011              	.LC18:
 2012 0000 696E7661 		.ascii	"invalid socket state for sent callback\000"
 2012      6C696420 
 2012      736F636B 
 2012      65742073 
 2012      74617465 
 2013              		.section	.text.tcp_sent,"ax",%progbits
 2014              		.align	1
 2015              		.global	tcp_sent
 2016              		.syntax unified
 2017              		.thumb
 2018              		.thumb_func
 2020              	tcp_sent:
 2021              	.LVL196:
 2022              	.LFB195:
2019:c:/Users/Black_Life/STM32Cube/Repository/STM32Cube_FW_F4_V1.26.2/Middlewares/Third_Party/LwIP/src/core\tcp.c **** 
2020:c:/Users/Black_Life/STM32Cube/Repository/STM32Cube_FW_F4_V1.26.2/Middlewares/Third_Party/LwIP/src/core\tcp.c **** /**
2021:c:/Users/Black_Life/STM32Cube/Repository/STM32Cube_FW_F4_V1.26.2/Middlewares/Third_Party/LwIP/src/core\tcp.c ****  * @ingroup tcp_raw
2022:c:/Users/Black_Life/STM32Cube/Repository/STM32Cube_FW_F4_V1.26.2/Middlewares/Third_Party/LwIP/src/core\tcp.c ****  * Specifies the callback function that should be called when data has
2023:c:/Users/Black_Life/STM32Cube/Repository/STM32Cube_FW_F4_V1.26.2/Middlewares/Third_Party/LwIP/src/core\tcp.c ****  * successfully been received (i.e., acknowledged) by the remote
2024:c:/Users/Black_Life/STM32Cube/Repository/STM32Cube_FW_F4_V1.26.2/Middlewares/Third_Party/LwIP/src/core\tcp.c ****  * host. The len argument passed to the callback function gives the
2025:c:/Users/Black_Life/STM32Cube/Repository/STM32Cube_FW_F4_V1.26.2/Middlewares/Third_Party/LwIP/src/core\tcp.c ****  * amount bytes that was acknowledged by the last acknowledgment.
2026:c:/Users/Black_Life/STM32Cube/Repository/STM32Cube_FW_F4_V1.26.2/Middlewares/Third_Party/LwIP/src/core\tcp.c ****  *
2027:c:/Users/Black_Life/STM32Cube/Repository/STM32Cube_FW_F4_V1.26.2/Middlewares/Third_Party/LwIP/src/core\tcp.c ****  * @param pcb tcp_pcb to set the sent callback
2028:c:/Users/Black_Life/STM32Cube/Repository/STM32Cube_FW_F4_V1.26.2/Middlewares/Third_Party/LwIP/src/core\tcp.c ****  * @param sent callback function to call for this pcb when data is successfully sent
2029:c:/Users/Black_Life/STM32Cube/Repository/STM32Cube_FW_F4_V1.26.2/Middlewares/Third_Party/LwIP/src/core\tcp.c ****  */
2030:c:/Users/Black_Life/STM32Cube/Repository/STM32Cube_FW_F4_V1.26.2/Middlewares/Third_Party/LwIP/src/core\tcp.c **** void
2031:c:/Users/Black_Life/STM32Cube/Repository/STM32Cube_FW_F4_V1.26.2/Middlewares/Third_Party/LwIP/src/core\tcp.c **** tcp_sent(struct tcp_pcb *pcb, tcp_sent_fn sent)
2032:c:/Users/Black_Life/STM32Cube/Repository/STM32Cube_FW_F4_V1.26.2/Middlewares/Third_Party/LwIP/src/core\tcp.c **** {
 2023              		.loc 1 2032 1 is_stmt 1 view -0
 2024              		.cfi_startproc
 2025              		@ args = 0, pretend = 0, frame = 0
 2026              		@ frame_needed = 0, uses_anonymous_args = 0
2033:c:/Users/Black_Life/STM32Cube/Repository/STM32Cube_FW_F4_V1.26.2/Middlewares/Third_Party/LwIP/src/core\tcp.c ****   LWIP_ASSERT_CORE_LOCKED();
 2027              		.loc 1 2033 28 view .LVU564
2034:c:/Users/Black_Life/STM32Cube/Repository/STM32Cube_FW_F4_V1.26.2/Middlewares/Third_Party/LwIP/src/core\tcp.c ****   if (pcb != NULL) {
 2028              		.loc 1 2034 3 view .LVU565
 2029              		.loc 1 2034 6 is_stmt 0 view .LVU566
 2030 0000 80B1     		cbz	r0, .L208
2032:c:/Users/Black_Life/STM32Cube/Repository/STM32Cube_FW_F4_V1.26.2/Middlewares/Third_Party/LwIP/src/core\tcp.c ****   LWIP_ASSERT_CORE_LOCKED();
 2031              		.loc 1 2032 1 view .LVU567
 2032 0002 38B5     		push	{r3, r4, r5, lr}
 2033              	.LCFI22:
 2034              		.cfi_def_cfa_offset 16
 2035              		.cfi_offset 3, -16
 2036              		.cfi_offset 4, -12
ARM GAS  C:\Users\BLACK_~1\AppData\Local\Temp\ccRovO0r.s 			page 82


 2037              		.cfi_offset 5, -8
 2038              		.cfi_offset 14, -4
 2039 0004 0C46     		mov	r4, r1
 2040 0006 0546     		mov	r5, r0
2035:c:/Users/Black_Life/STM32Cube/Repository/STM32Cube_FW_F4_V1.26.2/Middlewares/Third_Party/LwIP/src/core\tcp.c ****     LWIP_ASSERT("invalid socket state for sent callback", pcb->state != LISTEN);
 2041              		.loc 1 2035 5 is_stmt 1 view .LVU568
 2042              		.loc 1 2035 5 view .LVU569
 2043 0008 037D     		ldrb	r3, [r0, #20]	@ zero_extendqisi2
 2044 000a 012B     		cmp	r3, #1
 2045 000c 02D0     		beq	.L211
 2046              	.LVL197:
 2047              	.L206:
 2048              		.loc 1 2035 5 discriminator 3 view .LVU570
 2049              		.loc 1 2035 5 discriminator 3 view .LVU571
2036:c:/Users/Black_Life/STM32Cube/Repository/STM32Cube_FW_F4_V1.26.2/Middlewares/Third_Party/LwIP/src/core\tcp.c ****     pcb->sent = sent;
 2050              		.loc 1 2036 5 discriminator 3 view .LVU572
 2051              		.loc 1 2036 15 is_stmt 0 discriminator 3 view .LVU573
 2052 000e C5F88040 		str	r4, [r5, #128]
2037:c:/Users/Black_Life/STM32Cube/Repository/STM32Cube_FW_F4_V1.26.2/Middlewares/Third_Party/LwIP/src/core\tcp.c ****   }
2038:c:/Users/Black_Life/STM32Cube/Repository/STM32Cube_FW_F4_V1.26.2/Middlewares/Third_Party/LwIP/src/core\tcp.c **** }
 2053              		.loc 1 2038 1 discriminator 3 view .LVU574
 2054 0012 38BD     		pop	{r3, r4, r5, pc}
 2055              	.LVL198:
 2056              	.L211:
2035:c:/Users/Black_Life/STM32Cube/Repository/STM32Cube_FW_F4_V1.26.2/Middlewares/Third_Party/LwIP/src/core\tcp.c ****     pcb->sent = sent;
 2057              		.loc 1 2035 5 is_stmt 1 discriminator 1 view .LVU575
2035:c:/Users/Black_Life/STM32Cube/Repository/STM32Cube_FW_F4_V1.26.2/Middlewares/Third_Party/LwIP/src/core\tcp.c ****     pcb->sent = sent;
 2058              		.loc 1 2035 5 discriminator 1 view .LVU576
 2059 0014 044B     		ldr	r3, .L212
 2060 0016 40F2F372 		movw	r2, #2035
 2061 001a 0449     		ldr	r1, .L212+4
 2062              	.LVL199:
2035:c:/Users/Black_Life/STM32Cube/Repository/STM32Cube_FW_F4_V1.26.2/Middlewares/Third_Party/LwIP/src/core\tcp.c ****     pcb->sent = sent;
 2063              		.loc 1 2035 5 is_stmt 0 discriminator 1 view .LVU577
 2064 001c 0448     		ldr	r0, .L212+8
 2065              	.LVL200:
2035:c:/Users/Black_Life/STM32Cube/Repository/STM32Cube_FW_F4_V1.26.2/Middlewares/Third_Party/LwIP/src/core\tcp.c ****     pcb->sent = sent;
 2066              		.loc 1 2035 5 discriminator 1 view .LVU578
 2067 001e FFF7FEFF 		bl	printf
 2068              	.LVL201:
 2069 0022 F4E7     		b	.L206
 2070              	.LVL202:
 2071              	.L208:
 2072              	.LCFI23:
 2073              		.cfi_def_cfa_offset 0
 2074              		.cfi_restore 3
 2075              		.cfi_restore 4
 2076              		.cfi_restore 5
 2077              		.cfi_restore 14
2035:c:/Users/Black_Life/STM32Cube/Repository/STM32Cube_FW_F4_V1.26.2/Middlewares/Third_Party/LwIP/src/core\tcp.c ****     pcb->sent = sent;
 2078              		.loc 1 2035 5 discriminator 1 view .LVU579
 2079 0024 7047     		bx	lr
 2080              	.L213:
 2081 0026 00BF     		.align	2
 2082              	.L212:
 2083 0028 00000000 		.word	.LC0
 2084 002c 00000000 		.word	.LC18
ARM GAS  C:\Users\BLACK_~1\AppData\Local\Temp\ccRovO0r.s 			page 83


 2085 0030 98000000 		.word	.LC2
 2086              		.cfi_endproc
 2087              	.LFE195:
 2089              		.section	.rodata.tcp_err.str1.4,"aMS",%progbits,1
 2090              		.align	2
 2091              	.LC19:
 2092 0000 696E7661 		.ascii	"invalid socket state for err callback\000"
 2092      6C696420 
 2092      736F636B 
 2092      65742073 
 2092      74617465 
 2093              		.section	.text.tcp_err,"ax",%progbits
 2094              		.align	1
 2095              		.global	tcp_err
 2096              		.syntax unified
 2097              		.thumb
 2098              		.thumb_func
 2100              	tcp_err:
 2101              	.LVL203:
 2102              	.LFB196:
2039:c:/Users/Black_Life/STM32Cube/Repository/STM32Cube_FW_F4_V1.26.2/Middlewares/Third_Party/LwIP/src/core\tcp.c **** 
2040:c:/Users/Black_Life/STM32Cube/Repository/STM32Cube_FW_F4_V1.26.2/Middlewares/Third_Party/LwIP/src/core\tcp.c **** /**
2041:c:/Users/Black_Life/STM32Cube/Repository/STM32Cube_FW_F4_V1.26.2/Middlewares/Third_Party/LwIP/src/core\tcp.c ****  * @ingroup tcp_raw
2042:c:/Users/Black_Life/STM32Cube/Repository/STM32Cube_FW_F4_V1.26.2/Middlewares/Third_Party/LwIP/src/core\tcp.c ****  * Used to specify the function that should be called when a fatal error
2043:c:/Users/Black_Life/STM32Cube/Repository/STM32Cube_FW_F4_V1.26.2/Middlewares/Third_Party/LwIP/src/core\tcp.c ****  * has occurred on the connection.
2044:c:/Users/Black_Life/STM32Cube/Repository/STM32Cube_FW_F4_V1.26.2/Middlewares/Third_Party/LwIP/src/core\tcp.c ****  * 
2045:c:/Users/Black_Life/STM32Cube/Repository/STM32Cube_FW_F4_V1.26.2/Middlewares/Third_Party/LwIP/src/core\tcp.c ****  * If a connection is aborted because of an error, the application is
2046:c:/Users/Black_Life/STM32Cube/Repository/STM32Cube_FW_F4_V1.26.2/Middlewares/Third_Party/LwIP/src/core\tcp.c ****  * alerted of this event by the err callback. Errors that might abort a
2047:c:/Users/Black_Life/STM32Cube/Repository/STM32Cube_FW_F4_V1.26.2/Middlewares/Third_Party/LwIP/src/core\tcp.c ****  * connection are when there is a shortage of memory. The callback
2048:c:/Users/Black_Life/STM32Cube/Repository/STM32Cube_FW_F4_V1.26.2/Middlewares/Third_Party/LwIP/src/core\tcp.c ****  * function to be called is set using the tcp_err() function.
2049:c:/Users/Black_Life/STM32Cube/Repository/STM32Cube_FW_F4_V1.26.2/Middlewares/Third_Party/LwIP/src/core\tcp.c ****  *
2050:c:/Users/Black_Life/STM32Cube/Repository/STM32Cube_FW_F4_V1.26.2/Middlewares/Third_Party/LwIP/src/core\tcp.c ****  * @note The corresponding pcb is already freed when this callback is called!
2051:c:/Users/Black_Life/STM32Cube/Repository/STM32Cube_FW_F4_V1.26.2/Middlewares/Third_Party/LwIP/src/core\tcp.c ****  *
2052:c:/Users/Black_Life/STM32Cube/Repository/STM32Cube_FW_F4_V1.26.2/Middlewares/Third_Party/LwIP/src/core\tcp.c ****  * @param pcb tcp_pcb to set the err callback
2053:c:/Users/Black_Life/STM32Cube/Repository/STM32Cube_FW_F4_V1.26.2/Middlewares/Third_Party/LwIP/src/core\tcp.c ****  * @param err callback function to call for this pcb when a fatal error
2054:c:/Users/Black_Life/STM32Cube/Repository/STM32Cube_FW_F4_V1.26.2/Middlewares/Third_Party/LwIP/src/core\tcp.c ****  *        has occurred on the connection
2055:c:/Users/Black_Life/STM32Cube/Repository/STM32Cube_FW_F4_V1.26.2/Middlewares/Third_Party/LwIP/src/core\tcp.c ****  */
2056:c:/Users/Black_Life/STM32Cube/Repository/STM32Cube_FW_F4_V1.26.2/Middlewares/Third_Party/LwIP/src/core\tcp.c **** void
2057:c:/Users/Black_Life/STM32Cube/Repository/STM32Cube_FW_F4_V1.26.2/Middlewares/Third_Party/LwIP/src/core\tcp.c **** tcp_err(struct tcp_pcb *pcb, tcp_err_fn err)
2058:c:/Users/Black_Life/STM32Cube/Repository/STM32Cube_FW_F4_V1.26.2/Middlewares/Third_Party/LwIP/src/core\tcp.c **** {
 2103              		.loc 1 2058 1 is_stmt 1 view -0
 2104              		.cfi_startproc
 2105              		@ args = 0, pretend = 0, frame = 0
 2106              		@ frame_needed = 0, uses_anonymous_args = 0
2059:c:/Users/Black_Life/STM32Cube/Repository/STM32Cube_FW_F4_V1.26.2/Middlewares/Third_Party/LwIP/src/core\tcp.c ****   LWIP_ASSERT_CORE_LOCKED();
 2107              		.loc 1 2059 28 view .LVU581
2060:c:/Users/Black_Life/STM32Cube/Repository/STM32Cube_FW_F4_V1.26.2/Middlewares/Third_Party/LwIP/src/core\tcp.c ****   if (pcb != NULL) {
 2108              		.loc 1 2060 3 view .LVU582
 2109              		.loc 1 2060 6 is_stmt 0 view .LVU583
 2110 0000 80B1     		cbz	r0, .L218
2058:c:/Users/Black_Life/STM32Cube/Repository/STM32Cube_FW_F4_V1.26.2/Middlewares/Third_Party/LwIP/src/core\tcp.c ****   LWIP_ASSERT_CORE_LOCKED();
 2111              		.loc 1 2058 1 view .LVU584
 2112 0002 38B5     		push	{r3, r4, r5, lr}
 2113              	.LCFI24:
 2114              		.cfi_def_cfa_offset 16
 2115              		.cfi_offset 3, -16
 2116              		.cfi_offset 4, -12
ARM GAS  C:\Users\BLACK_~1\AppData\Local\Temp\ccRovO0r.s 			page 84


 2117              		.cfi_offset 5, -8
 2118              		.cfi_offset 14, -4
 2119 0004 0C46     		mov	r4, r1
 2120 0006 0546     		mov	r5, r0
2061:c:/Users/Black_Life/STM32Cube/Repository/STM32Cube_FW_F4_V1.26.2/Middlewares/Third_Party/LwIP/src/core\tcp.c ****     LWIP_ASSERT("invalid socket state for err callback", pcb->state != LISTEN);
 2121              		.loc 1 2061 5 is_stmt 1 view .LVU585
 2122              		.loc 1 2061 5 view .LVU586
 2123 0008 037D     		ldrb	r3, [r0, #20]	@ zero_extendqisi2
 2124 000a 012B     		cmp	r3, #1
 2125 000c 02D0     		beq	.L221
 2126              	.LVL204:
 2127              	.L216:
 2128              		.loc 1 2061 5 discriminator 3 view .LVU587
 2129              		.loc 1 2061 5 discriminator 3 view .LVU588
2062:c:/Users/Black_Life/STM32Cube/Repository/STM32Cube_FW_F4_V1.26.2/Middlewares/Third_Party/LwIP/src/core\tcp.c ****     pcb->errf = err;
 2130              		.loc 1 2062 5 discriminator 3 view .LVU589
 2131              		.loc 1 2062 15 is_stmt 0 discriminator 3 view .LVU590
 2132 000e C5F89040 		str	r4, [r5, #144]
2063:c:/Users/Black_Life/STM32Cube/Repository/STM32Cube_FW_F4_V1.26.2/Middlewares/Third_Party/LwIP/src/core\tcp.c ****   }
2064:c:/Users/Black_Life/STM32Cube/Repository/STM32Cube_FW_F4_V1.26.2/Middlewares/Third_Party/LwIP/src/core\tcp.c **** }
 2133              		.loc 1 2064 1 discriminator 3 view .LVU591
 2134 0012 38BD     		pop	{r3, r4, r5, pc}
 2135              	.LVL205:
 2136              	.L221:
2061:c:/Users/Black_Life/STM32Cube/Repository/STM32Cube_FW_F4_V1.26.2/Middlewares/Third_Party/LwIP/src/core\tcp.c ****     pcb->errf = err;
 2137              		.loc 1 2061 5 is_stmt 1 discriminator 1 view .LVU592
2061:c:/Users/Black_Life/STM32Cube/Repository/STM32Cube_FW_F4_V1.26.2/Middlewares/Third_Party/LwIP/src/core\tcp.c ****     pcb->errf = err;
 2138              		.loc 1 2061 5 discriminator 1 view .LVU593
 2139 0014 044B     		ldr	r3, .L222
 2140 0016 40F60D02 		movw	r2, #2061
 2141 001a 0449     		ldr	r1, .L222+4
 2142              	.LVL206:
2061:c:/Users/Black_Life/STM32Cube/Repository/STM32Cube_FW_F4_V1.26.2/Middlewares/Third_Party/LwIP/src/core\tcp.c ****     pcb->errf = err;
 2143              		.loc 1 2061 5 is_stmt 0 discriminator 1 view .LVU594
 2144 001c 0448     		ldr	r0, .L222+8
 2145              	.LVL207:
2061:c:/Users/Black_Life/STM32Cube/Repository/STM32Cube_FW_F4_V1.26.2/Middlewares/Third_Party/LwIP/src/core\tcp.c ****     pcb->errf = err;
 2146              		.loc 1 2061 5 discriminator 1 view .LVU595
 2147 001e FFF7FEFF 		bl	printf
 2148              	.LVL208:
 2149 0022 F4E7     		b	.L216
 2150              	.LVL209:
 2151              	.L218:
 2152              	.LCFI25:
 2153              		.cfi_def_cfa_offset 0
 2154              		.cfi_restore 3
 2155              		.cfi_restore 4
 2156              		.cfi_restore 5
 2157              		.cfi_restore 14
2061:c:/Users/Black_Life/STM32Cube/Repository/STM32Cube_FW_F4_V1.26.2/Middlewares/Third_Party/LwIP/src/core\tcp.c ****     pcb->errf = err;
 2158              		.loc 1 2061 5 discriminator 1 view .LVU596
 2159 0024 7047     		bx	lr
 2160              	.L223:
 2161 0026 00BF     		.align	2
 2162              	.L222:
 2163 0028 00000000 		.word	.LC0
 2164 002c 00000000 		.word	.LC19
ARM GAS  C:\Users\BLACK_~1\AppData\Local\Temp\ccRovO0r.s 			page 85


 2165 0030 98000000 		.word	.LC2
 2166              		.cfi_endproc
 2167              	.LFE196:
 2169              		.section	.text.tcp_accept,"ax",%progbits
 2170              		.align	1
 2171              		.global	tcp_accept
 2172              		.syntax unified
 2173              		.thumb
 2174              		.thumb_func
 2176              	tcp_accept:
 2177              	.LVL210:
 2178              	.LFB197:
2065:c:/Users/Black_Life/STM32Cube/Repository/STM32Cube_FW_F4_V1.26.2/Middlewares/Third_Party/LwIP/src/core\tcp.c **** 
2066:c:/Users/Black_Life/STM32Cube/Repository/STM32Cube_FW_F4_V1.26.2/Middlewares/Third_Party/LwIP/src/core\tcp.c **** /**
2067:c:/Users/Black_Life/STM32Cube/Repository/STM32Cube_FW_F4_V1.26.2/Middlewares/Third_Party/LwIP/src/core\tcp.c ****  * @ingroup tcp_raw
2068:c:/Users/Black_Life/STM32Cube/Repository/STM32Cube_FW_F4_V1.26.2/Middlewares/Third_Party/LwIP/src/core\tcp.c ****  * Used for specifying the function that should be called when a
2069:c:/Users/Black_Life/STM32Cube/Repository/STM32Cube_FW_F4_V1.26.2/Middlewares/Third_Party/LwIP/src/core\tcp.c ****  * LISTENing connection has been connected to another host.
2070:c:/Users/Black_Life/STM32Cube/Repository/STM32Cube_FW_F4_V1.26.2/Middlewares/Third_Party/LwIP/src/core\tcp.c ****  *
2071:c:/Users/Black_Life/STM32Cube/Repository/STM32Cube_FW_F4_V1.26.2/Middlewares/Third_Party/LwIP/src/core\tcp.c ****  * @param pcb tcp_pcb to set the accept callback
2072:c:/Users/Black_Life/STM32Cube/Repository/STM32Cube_FW_F4_V1.26.2/Middlewares/Third_Party/LwIP/src/core\tcp.c ****  * @param accept callback function to call for this pcb when LISTENing
2073:c:/Users/Black_Life/STM32Cube/Repository/STM32Cube_FW_F4_V1.26.2/Middlewares/Third_Party/LwIP/src/core\tcp.c ****  *        connection has been connected to another host
2074:c:/Users/Black_Life/STM32Cube/Repository/STM32Cube_FW_F4_V1.26.2/Middlewares/Third_Party/LwIP/src/core\tcp.c ****  */
2075:c:/Users/Black_Life/STM32Cube/Repository/STM32Cube_FW_F4_V1.26.2/Middlewares/Third_Party/LwIP/src/core\tcp.c **** void
2076:c:/Users/Black_Life/STM32Cube/Repository/STM32Cube_FW_F4_V1.26.2/Middlewares/Third_Party/LwIP/src/core\tcp.c **** tcp_accept(struct tcp_pcb *pcb, tcp_accept_fn accept)
2077:c:/Users/Black_Life/STM32Cube/Repository/STM32Cube_FW_F4_V1.26.2/Middlewares/Third_Party/LwIP/src/core\tcp.c **** {
 2179              		.loc 1 2077 1 is_stmt 1 view -0
 2180              		.cfi_startproc
 2181              		@ args = 0, pretend = 0, frame = 0
 2182              		@ frame_needed = 0, uses_anonymous_args = 0
 2183              		@ link register save eliminated.
2078:c:/Users/Black_Life/STM32Cube/Repository/STM32Cube_FW_F4_V1.26.2/Middlewares/Third_Party/LwIP/src/core\tcp.c ****   LWIP_ASSERT_CORE_LOCKED();
 2184              		.loc 1 2078 28 view .LVU598
2079:c:/Users/Black_Life/STM32Cube/Repository/STM32Cube_FW_F4_V1.26.2/Middlewares/Third_Party/LwIP/src/core\tcp.c ****   if ((pcb != NULL) && (pcb->state == LISTEN)) {
 2185              		.loc 1 2079 3 view .LVU599
 2186              		.loc 1 2079 6 is_stmt 0 view .LVU600
 2187 0000 10B1     		cbz	r0, .L224
 2188              		.loc 1 2079 28 discriminator 1 view .LVU601
 2189 0002 027D     		ldrb	r2, [r0, #20]	@ zero_extendqisi2
 2190              		.loc 1 2079 21 discriminator 1 view .LVU602
 2191 0004 012A     		cmp	r2, #1
 2192 0006 00D0     		beq	.L226
 2193              	.L224:
2080:c:/Users/Black_Life/STM32Cube/Repository/STM32Cube_FW_F4_V1.26.2/Middlewares/Third_Party/LwIP/src/core\tcp.c ****     struct tcp_pcb_listen *lpcb = (struct tcp_pcb_listen *)pcb;
2081:c:/Users/Black_Life/STM32Cube/Repository/STM32Cube_FW_F4_V1.26.2/Middlewares/Third_Party/LwIP/src/core\tcp.c ****     lpcb->accept = accept;
2082:c:/Users/Black_Life/STM32Cube/Repository/STM32Cube_FW_F4_V1.26.2/Middlewares/Third_Party/LwIP/src/core\tcp.c ****   }
2083:c:/Users/Black_Life/STM32Cube/Repository/STM32Cube_FW_F4_V1.26.2/Middlewares/Third_Party/LwIP/src/core\tcp.c **** }
 2194              		.loc 1 2083 1 view .LVU603
 2195 0008 7047     		bx	lr
 2196              	.L226:
 2197              	.LBB7:
2080:c:/Users/Black_Life/STM32Cube/Repository/STM32Cube_FW_F4_V1.26.2/Middlewares/Third_Party/LwIP/src/core\tcp.c ****     struct tcp_pcb_listen *lpcb = (struct tcp_pcb_listen *)pcb;
 2198              		.loc 1 2080 5 is_stmt 1 view .LVU604
 2199              	.LVL211:
2081:c:/Users/Black_Life/STM32Cube/Repository/STM32Cube_FW_F4_V1.26.2/Middlewares/Third_Party/LwIP/src/core\tcp.c ****   }
 2200              		.loc 1 2081 5 view .LVU605
2081:c:/Users/Black_Life/STM32Cube/Repository/STM32Cube_FW_F4_V1.26.2/Middlewares/Third_Party/LwIP/src/core\tcp.c ****   }
 2201              		.loc 1 2081 18 is_stmt 0 view .LVU606
ARM GAS  C:\Users\BLACK_~1\AppData\Local\Temp\ccRovO0r.s 			page 86


 2202 000a 8161     		str	r1, [r0, #24]
 2203              	.LBE7:
 2204              		.loc 1 2083 1 view .LVU607
 2205 000c FCE7     		b	.L224
 2206              		.cfi_endproc
 2207              	.LFE197:
 2209              		.section	.rodata.tcp_poll.str1.4,"aMS",%progbits,1
 2210              		.align	2
 2211              	.LC20:
 2212 0000 7463705F 		.ascii	"tcp_poll: invalid pcb\000"
 2212      706F6C6C 
 2212      3A20696E 
 2212      76616C69 
 2212      64207063 
 2213 0016 0000     		.align	2
 2214              	.LC21:
 2215 0018 696E7661 		.ascii	"invalid socket state for poll\000"
 2215      6C696420 
 2215      736F636B 
 2215      65742073 
 2215      74617465 
 2216              		.section	.text.tcp_poll,"ax",%progbits
 2217              		.align	1
 2218              		.global	tcp_poll
 2219              		.syntax unified
 2220              		.thumb
 2221              		.thumb_func
 2223              	tcp_poll:
 2224              	.LVL212:
 2225              	.LFB198:
2084:c:/Users/Black_Life/STM32Cube/Repository/STM32Cube_FW_F4_V1.26.2/Middlewares/Third_Party/LwIP/src/core\tcp.c **** #endif /* LWIP_CALLBACK_API */
2085:c:/Users/Black_Life/STM32Cube/Repository/STM32Cube_FW_F4_V1.26.2/Middlewares/Third_Party/LwIP/src/core\tcp.c **** 
2086:c:/Users/Black_Life/STM32Cube/Repository/STM32Cube_FW_F4_V1.26.2/Middlewares/Third_Party/LwIP/src/core\tcp.c **** 
2087:c:/Users/Black_Life/STM32Cube/Repository/STM32Cube_FW_F4_V1.26.2/Middlewares/Third_Party/LwIP/src/core\tcp.c **** /**
2088:c:/Users/Black_Life/STM32Cube/Repository/STM32Cube_FW_F4_V1.26.2/Middlewares/Third_Party/LwIP/src/core\tcp.c ****  * @ingroup tcp_raw
2089:c:/Users/Black_Life/STM32Cube/Repository/STM32Cube_FW_F4_V1.26.2/Middlewares/Third_Party/LwIP/src/core\tcp.c ****  * Specifies the polling interval and the callback function that should
2090:c:/Users/Black_Life/STM32Cube/Repository/STM32Cube_FW_F4_V1.26.2/Middlewares/Third_Party/LwIP/src/core\tcp.c ****  * be called to poll the application. The interval is specified in
2091:c:/Users/Black_Life/STM32Cube/Repository/STM32Cube_FW_F4_V1.26.2/Middlewares/Third_Party/LwIP/src/core\tcp.c ****  * number of TCP coarse grained timer shots, which typically occurs
2092:c:/Users/Black_Life/STM32Cube/Repository/STM32Cube_FW_F4_V1.26.2/Middlewares/Third_Party/LwIP/src/core\tcp.c ****  * twice a second. An interval of 10 means that the application would
2093:c:/Users/Black_Life/STM32Cube/Repository/STM32Cube_FW_F4_V1.26.2/Middlewares/Third_Party/LwIP/src/core\tcp.c ****  * be polled every 5 seconds.
2094:c:/Users/Black_Life/STM32Cube/Repository/STM32Cube_FW_F4_V1.26.2/Middlewares/Third_Party/LwIP/src/core\tcp.c ****  * 
2095:c:/Users/Black_Life/STM32Cube/Repository/STM32Cube_FW_F4_V1.26.2/Middlewares/Third_Party/LwIP/src/core\tcp.c ****  * When a connection is idle (i.e., no data is either transmitted or
2096:c:/Users/Black_Life/STM32Cube/Repository/STM32Cube_FW_F4_V1.26.2/Middlewares/Third_Party/LwIP/src/core\tcp.c ****  * received), lwIP will repeatedly poll the application by calling a
2097:c:/Users/Black_Life/STM32Cube/Repository/STM32Cube_FW_F4_V1.26.2/Middlewares/Third_Party/LwIP/src/core\tcp.c ****  * specified callback function. This can be used either as a watchdog
2098:c:/Users/Black_Life/STM32Cube/Repository/STM32Cube_FW_F4_V1.26.2/Middlewares/Third_Party/LwIP/src/core\tcp.c ****  * timer for killing connections that have stayed idle for too long, or
2099:c:/Users/Black_Life/STM32Cube/Repository/STM32Cube_FW_F4_V1.26.2/Middlewares/Third_Party/LwIP/src/core\tcp.c ****  * as a method of waiting for memory to become available. For instance,
2100:c:/Users/Black_Life/STM32Cube/Repository/STM32Cube_FW_F4_V1.26.2/Middlewares/Third_Party/LwIP/src/core\tcp.c ****  * if a call to tcp_write() has failed because memory wasn't available,
2101:c:/Users/Black_Life/STM32Cube/Repository/STM32Cube_FW_F4_V1.26.2/Middlewares/Third_Party/LwIP/src/core\tcp.c ****  * the application may use the polling functionality to call tcp_write()
2102:c:/Users/Black_Life/STM32Cube/Repository/STM32Cube_FW_F4_V1.26.2/Middlewares/Third_Party/LwIP/src/core\tcp.c ****  * again when the connection has been idle for a while.
2103:c:/Users/Black_Life/STM32Cube/Repository/STM32Cube_FW_F4_V1.26.2/Middlewares/Third_Party/LwIP/src/core\tcp.c ****  */
2104:c:/Users/Black_Life/STM32Cube/Repository/STM32Cube_FW_F4_V1.26.2/Middlewares/Third_Party/LwIP/src/core\tcp.c **** void
2105:c:/Users/Black_Life/STM32Cube/Repository/STM32Cube_FW_F4_V1.26.2/Middlewares/Third_Party/LwIP/src/core\tcp.c **** tcp_poll(struct tcp_pcb *pcb, tcp_poll_fn poll, u8_t interval)
2106:c:/Users/Black_Life/STM32Cube/Repository/STM32Cube_FW_F4_V1.26.2/Middlewares/Third_Party/LwIP/src/core\tcp.c **** {
 2226              		.loc 1 2106 1 is_stmt 1 view -0
 2227              		.cfi_startproc
 2228              		@ args = 0, pretend = 0, frame = 0
 2229              		@ frame_needed = 0, uses_anonymous_args = 0
ARM GAS  C:\Users\BLACK_~1\AppData\Local\Temp\ccRovO0r.s 			page 87


 2230              		.loc 1 2106 1 is_stmt 0 view .LVU609
 2231 0000 70B5     		push	{r4, r5, r6, lr}
 2232              	.LCFI26:
 2233              		.cfi_def_cfa_offset 16
 2234              		.cfi_offset 4, -16
 2235              		.cfi_offset 5, -12
 2236              		.cfi_offset 6, -8
 2237              		.cfi_offset 14, -4
2107:c:/Users/Black_Life/STM32Cube/Repository/STM32Cube_FW_F4_V1.26.2/Middlewares/Third_Party/LwIP/src/core\tcp.c ****   LWIP_ASSERT_CORE_LOCKED();
 2238              		.loc 1 2107 28 is_stmt 1 view .LVU610
2108:c:/Users/Black_Life/STM32Cube/Repository/STM32Cube_FW_F4_V1.26.2/Middlewares/Third_Party/LwIP/src/core\tcp.c **** 
2109:c:/Users/Black_Life/STM32Cube/Repository/STM32Cube_FW_F4_V1.26.2/Middlewares/Third_Party/LwIP/src/core\tcp.c ****   LWIP_ERROR("tcp_poll: invalid pcb", pcb != NULL, return);
 2239              		.loc 1 2109 3 view .LVU611
 2240              		.loc 1 2109 3 view .LVU612
 2241 0002 48B1     		cbz	r0, .L232
 2242 0004 0D46     		mov	r5, r1
 2243 0006 1446     		mov	r4, r2
 2244 0008 0646     		mov	r6, r0
 2245              		.loc 1 2109 3 discriminator 2 view .LVU613
2110:c:/Users/Black_Life/STM32Cube/Repository/STM32Cube_FW_F4_V1.26.2/Middlewares/Third_Party/LwIP/src/core\tcp.c ****   LWIP_ASSERT("invalid socket state for poll", pcb->state != LISTEN);
 2246              		.loc 1 2110 3 discriminator 2 view .LVU614
 2247              		.loc 1 2110 3 discriminator 2 view .LVU615
 2248 000a 037D     		ldrb	r3, [r0, #20]	@ zero_extendqisi2
 2249 000c 012B     		cmp	r3, #1
 2250 000e 0BD0     		beq	.L233
 2251              	.LVL213:
 2252              	.L230:
 2253              		.loc 1 2110 3 discriminator 3 view .LVU616
 2254              		.loc 1 2110 3 discriminator 3 view .LVU617
2111:c:/Users/Black_Life/STM32Cube/Repository/STM32Cube_FW_F4_V1.26.2/Middlewares/Third_Party/LwIP/src/core\tcp.c **** 
2112:c:/Users/Black_Life/STM32Cube/Repository/STM32Cube_FW_F4_V1.26.2/Middlewares/Third_Party/LwIP/src/core\tcp.c **** #if LWIP_CALLBACK_API
2113:c:/Users/Black_Life/STM32Cube/Repository/STM32Cube_FW_F4_V1.26.2/Middlewares/Third_Party/LwIP/src/core\tcp.c ****   pcb->poll = poll;
 2255              		.loc 1 2113 3 discriminator 3 view .LVU618
 2256              		.loc 1 2113 13 is_stmt 0 discriminator 3 view .LVU619
 2257 0010 C6F88C50 		str	r5, [r6, #140]
2114:c:/Users/Black_Life/STM32Cube/Repository/STM32Cube_FW_F4_V1.26.2/Middlewares/Third_Party/LwIP/src/core\tcp.c **** #else /* LWIP_CALLBACK_API */
2115:c:/Users/Black_Life/STM32Cube/Repository/STM32Cube_FW_F4_V1.26.2/Middlewares/Third_Party/LwIP/src/core\tcp.c ****   LWIP_UNUSED_ARG(poll);
2116:c:/Users/Black_Life/STM32Cube/Repository/STM32Cube_FW_F4_V1.26.2/Middlewares/Third_Party/LwIP/src/core\tcp.c **** #endif /* LWIP_CALLBACK_API */
2117:c:/Users/Black_Life/STM32Cube/Repository/STM32Cube_FW_F4_V1.26.2/Middlewares/Third_Party/LwIP/src/core\tcp.c ****   pcb->pollinterval = interval;
 2258              		.loc 1 2117 3 is_stmt 1 discriminator 3 view .LVU620
 2259              		.loc 1 2117 21 is_stmt 0 discriminator 3 view .LVU621
 2260 0014 7477     		strb	r4, [r6, #29]
 2261              	.LVL214:
 2262              	.L227:
2118:c:/Users/Black_Life/STM32Cube/Repository/STM32Cube_FW_F4_V1.26.2/Middlewares/Third_Party/LwIP/src/core\tcp.c **** }
 2263              		.loc 1 2118 1 view .LVU622
 2264 0016 70BD     		pop	{r4, r5, r6, pc}
 2265              	.LVL215:
 2266              	.L232:
2109:c:/Users/Black_Life/STM32Cube/Repository/STM32Cube_FW_F4_V1.26.2/Middlewares/Third_Party/LwIP/src/core\tcp.c ****   LWIP_ASSERT("invalid socket state for poll", pcb->state != LISTEN);
 2267              		.loc 1 2109 3 is_stmt 1 discriminator 1 view .LVU623
2109:c:/Users/Black_Life/STM32Cube/Repository/STM32Cube_FW_F4_V1.26.2/Middlewares/Third_Party/LwIP/src/core\tcp.c ****   LWIP_ASSERT("invalid socket state for poll", pcb->state != LISTEN);
 2268              		.loc 1 2109 3 discriminator 1 view .LVU624
 2269 0018 074B     		ldr	r3, .L234
 2270 001a 40F63D02 		movw	r2, #2109
 2271              	.LVL216:
2109:c:/Users/Black_Life/STM32Cube/Repository/STM32Cube_FW_F4_V1.26.2/Middlewares/Third_Party/LwIP/src/core\tcp.c ****   LWIP_ASSERT("invalid socket state for poll", pcb->state != LISTEN);
ARM GAS  C:\Users\BLACK_~1\AppData\Local\Temp\ccRovO0r.s 			page 88


 2272              		.loc 1 2109 3 is_stmt 0 discriminator 1 view .LVU625
 2273 001e 0749     		ldr	r1, .L234+4
 2274              	.LVL217:
2109:c:/Users/Black_Life/STM32Cube/Repository/STM32Cube_FW_F4_V1.26.2/Middlewares/Third_Party/LwIP/src/core\tcp.c ****   LWIP_ASSERT("invalid socket state for poll", pcb->state != LISTEN);
 2275              		.loc 1 2109 3 discriminator 1 view .LVU626
 2276 0020 0748     		ldr	r0, .L234+8
 2277              	.LVL218:
2109:c:/Users/Black_Life/STM32Cube/Repository/STM32Cube_FW_F4_V1.26.2/Middlewares/Third_Party/LwIP/src/core\tcp.c ****   LWIP_ASSERT("invalid socket state for poll", pcb->state != LISTEN);
 2278              		.loc 1 2109 3 discriminator 1 view .LVU627
 2279 0022 FFF7FEFF 		bl	printf
 2280              	.LVL219:
2109:c:/Users/Black_Life/STM32Cube/Repository/STM32Cube_FW_F4_V1.26.2/Middlewares/Third_Party/LwIP/src/core\tcp.c ****   LWIP_ASSERT("invalid socket state for poll", pcb->state != LISTEN);
 2281              		.loc 1 2109 3 is_stmt 1 discriminator 1 view .LVU628
2109:c:/Users/Black_Life/STM32Cube/Repository/STM32Cube_FW_F4_V1.26.2/Middlewares/Third_Party/LwIP/src/core\tcp.c ****   LWIP_ASSERT("invalid socket state for poll", pcb->state != LISTEN);
 2282              		.loc 1 2109 3 discriminator 1 view .LVU629
 2283 0026 F6E7     		b	.L227
 2284              	.LVL220:
 2285              	.L233:
2110:c:/Users/Black_Life/STM32Cube/Repository/STM32Cube_FW_F4_V1.26.2/Middlewares/Third_Party/LwIP/src/core\tcp.c **** 
 2286              		.loc 1 2110 3 discriminator 1 view .LVU630
2110:c:/Users/Black_Life/STM32Cube/Repository/STM32Cube_FW_F4_V1.26.2/Middlewares/Third_Party/LwIP/src/core\tcp.c **** 
 2287              		.loc 1 2110 3 discriminator 1 view .LVU631
 2288 0028 034B     		ldr	r3, .L234
 2289 002a 40F63E02 		movw	r2, #2110
 2290              	.LVL221:
2110:c:/Users/Black_Life/STM32Cube/Repository/STM32Cube_FW_F4_V1.26.2/Middlewares/Third_Party/LwIP/src/core\tcp.c **** 
 2291              		.loc 1 2110 3 is_stmt 0 discriminator 1 view .LVU632
 2292 002e 0549     		ldr	r1, .L234+12
 2293              	.LVL222:
2110:c:/Users/Black_Life/STM32Cube/Repository/STM32Cube_FW_F4_V1.26.2/Middlewares/Third_Party/LwIP/src/core\tcp.c **** 
 2294              		.loc 1 2110 3 discriminator 1 view .LVU633
 2295 0030 0348     		ldr	r0, .L234+8
 2296              	.LVL223:
2110:c:/Users/Black_Life/STM32Cube/Repository/STM32Cube_FW_F4_V1.26.2/Middlewares/Third_Party/LwIP/src/core\tcp.c **** 
 2297              		.loc 1 2110 3 discriminator 1 view .LVU634
 2298 0032 FFF7FEFF 		bl	printf
 2299              	.LVL224:
 2300 0036 EBE7     		b	.L230
 2301              	.L235:
 2302              		.align	2
 2303              	.L234:
 2304 0038 00000000 		.word	.LC0
 2305 003c 00000000 		.word	.LC20
 2306 0040 98000000 		.word	.LC2
 2307 0044 18000000 		.word	.LC21
 2308              		.cfi_endproc
 2309              	.LFE198:
 2311              		.section	.rodata.tcp_next_iss.str1.4,"aMS",%progbits,1
 2312              		.align	2
 2313              	.LC22:
 2314 0000 7463705F 		.ascii	"tcp_next_iss: invalid pcb\000"
 2314      6E657874 
 2314      5F697373 
 2314      3A20696E 
 2314      76616C69 
 2315              		.section	.text.tcp_next_iss,"ax",%progbits
 2316              		.align	1
ARM GAS  C:\Users\BLACK_~1\AppData\Local\Temp\ccRovO0r.s 			page 89


 2317              		.global	tcp_next_iss
 2318              		.syntax unified
 2319              		.thumb
 2320              		.thumb_func
 2322              	tcp_next_iss:
 2323              	.LVL225:
 2324              	.LFB201:
2119:c:/Users/Black_Life/STM32Cube/Repository/STM32Cube_FW_F4_V1.26.2/Middlewares/Third_Party/LwIP/src/core\tcp.c **** 
2120:c:/Users/Black_Life/STM32Cube/Repository/STM32Cube_FW_F4_V1.26.2/Middlewares/Third_Party/LwIP/src/core\tcp.c **** /**
2121:c:/Users/Black_Life/STM32Cube/Repository/STM32Cube_FW_F4_V1.26.2/Middlewares/Third_Party/LwIP/src/core\tcp.c ****  * Purges a TCP PCB. Removes any buffered data and frees the buffer memory
2122:c:/Users/Black_Life/STM32Cube/Repository/STM32Cube_FW_F4_V1.26.2/Middlewares/Third_Party/LwIP/src/core\tcp.c ****  * (pcb->ooseq, pcb->unsent and pcb->unacked are freed).
2123:c:/Users/Black_Life/STM32Cube/Repository/STM32Cube_FW_F4_V1.26.2/Middlewares/Third_Party/LwIP/src/core\tcp.c ****  *
2124:c:/Users/Black_Life/STM32Cube/Repository/STM32Cube_FW_F4_V1.26.2/Middlewares/Third_Party/LwIP/src/core\tcp.c ****  * @param pcb tcp_pcb to purge. The pcb itself is not deallocated!
2125:c:/Users/Black_Life/STM32Cube/Repository/STM32Cube_FW_F4_V1.26.2/Middlewares/Third_Party/LwIP/src/core\tcp.c ****  */
2126:c:/Users/Black_Life/STM32Cube/Repository/STM32Cube_FW_F4_V1.26.2/Middlewares/Third_Party/LwIP/src/core\tcp.c **** void
2127:c:/Users/Black_Life/STM32Cube/Repository/STM32Cube_FW_F4_V1.26.2/Middlewares/Third_Party/LwIP/src/core\tcp.c **** tcp_pcb_purge(struct tcp_pcb *pcb)
2128:c:/Users/Black_Life/STM32Cube/Repository/STM32Cube_FW_F4_V1.26.2/Middlewares/Third_Party/LwIP/src/core\tcp.c **** {
2129:c:/Users/Black_Life/STM32Cube/Repository/STM32Cube_FW_F4_V1.26.2/Middlewares/Third_Party/LwIP/src/core\tcp.c ****   LWIP_ERROR("tcp_pcb_purge: invalid pcb", pcb != NULL, return);
2130:c:/Users/Black_Life/STM32Cube/Repository/STM32Cube_FW_F4_V1.26.2/Middlewares/Third_Party/LwIP/src/core\tcp.c **** 
2131:c:/Users/Black_Life/STM32Cube/Repository/STM32Cube_FW_F4_V1.26.2/Middlewares/Third_Party/LwIP/src/core\tcp.c ****   if (pcb->state != CLOSED &&
2132:c:/Users/Black_Life/STM32Cube/Repository/STM32Cube_FW_F4_V1.26.2/Middlewares/Third_Party/LwIP/src/core\tcp.c ****       pcb->state != TIME_WAIT &&
2133:c:/Users/Black_Life/STM32Cube/Repository/STM32Cube_FW_F4_V1.26.2/Middlewares/Third_Party/LwIP/src/core\tcp.c ****       pcb->state != LISTEN) {
2134:c:/Users/Black_Life/STM32Cube/Repository/STM32Cube_FW_F4_V1.26.2/Middlewares/Third_Party/LwIP/src/core\tcp.c **** 
2135:c:/Users/Black_Life/STM32Cube/Repository/STM32Cube_FW_F4_V1.26.2/Middlewares/Third_Party/LwIP/src/core\tcp.c ****     LWIP_DEBUGF(TCP_DEBUG, ("tcp_pcb_purge\n"));
2136:c:/Users/Black_Life/STM32Cube/Repository/STM32Cube_FW_F4_V1.26.2/Middlewares/Third_Party/LwIP/src/core\tcp.c **** 
2137:c:/Users/Black_Life/STM32Cube/Repository/STM32Cube_FW_F4_V1.26.2/Middlewares/Third_Party/LwIP/src/core\tcp.c ****     tcp_backlog_accepted(pcb);
2138:c:/Users/Black_Life/STM32Cube/Repository/STM32Cube_FW_F4_V1.26.2/Middlewares/Third_Party/LwIP/src/core\tcp.c **** 
2139:c:/Users/Black_Life/STM32Cube/Repository/STM32Cube_FW_F4_V1.26.2/Middlewares/Third_Party/LwIP/src/core\tcp.c ****     if (pcb->refused_data != NULL) {
2140:c:/Users/Black_Life/STM32Cube/Repository/STM32Cube_FW_F4_V1.26.2/Middlewares/Third_Party/LwIP/src/core\tcp.c ****       LWIP_DEBUGF(TCP_DEBUG, ("tcp_pcb_purge: data left on ->refused_data\n"));
2141:c:/Users/Black_Life/STM32Cube/Repository/STM32Cube_FW_F4_V1.26.2/Middlewares/Third_Party/LwIP/src/core\tcp.c ****       pbuf_free(pcb->refused_data);
2142:c:/Users/Black_Life/STM32Cube/Repository/STM32Cube_FW_F4_V1.26.2/Middlewares/Third_Party/LwIP/src/core\tcp.c ****       pcb->refused_data = NULL;
2143:c:/Users/Black_Life/STM32Cube/Repository/STM32Cube_FW_F4_V1.26.2/Middlewares/Third_Party/LwIP/src/core\tcp.c ****     }
2144:c:/Users/Black_Life/STM32Cube/Repository/STM32Cube_FW_F4_V1.26.2/Middlewares/Third_Party/LwIP/src/core\tcp.c ****     if (pcb->unsent != NULL) {
2145:c:/Users/Black_Life/STM32Cube/Repository/STM32Cube_FW_F4_V1.26.2/Middlewares/Third_Party/LwIP/src/core\tcp.c ****       LWIP_DEBUGF(TCP_DEBUG, ("tcp_pcb_purge: not all data sent\n"));
2146:c:/Users/Black_Life/STM32Cube/Repository/STM32Cube_FW_F4_V1.26.2/Middlewares/Third_Party/LwIP/src/core\tcp.c ****     }
2147:c:/Users/Black_Life/STM32Cube/Repository/STM32Cube_FW_F4_V1.26.2/Middlewares/Third_Party/LwIP/src/core\tcp.c ****     if (pcb->unacked != NULL) {
2148:c:/Users/Black_Life/STM32Cube/Repository/STM32Cube_FW_F4_V1.26.2/Middlewares/Third_Party/LwIP/src/core\tcp.c ****       LWIP_DEBUGF(TCP_DEBUG, ("tcp_pcb_purge: data left on ->unacked\n"));
2149:c:/Users/Black_Life/STM32Cube/Repository/STM32Cube_FW_F4_V1.26.2/Middlewares/Third_Party/LwIP/src/core\tcp.c ****     }
2150:c:/Users/Black_Life/STM32Cube/Repository/STM32Cube_FW_F4_V1.26.2/Middlewares/Third_Party/LwIP/src/core\tcp.c **** #if TCP_QUEUE_OOSEQ
2151:c:/Users/Black_Life/STM32Cube/Repository/STM32Cube_FW_F4_V1.26.2/Middlewares/Third_Party/LwIP/src/core\tcp.c ****     if (pcb->ooseq != NULL) {
2152:c:/Users/Black_Life/STM32Cube/Repository/STM32Cube_FW_F4_V1.26.2/Middlewares/Third_Party/LwIP/src/core\tcp.c ****       LWIP_DEBUGF(TCP_DEBUG, ("tcp_pcb_purge: data left on ->ooseq\n"));
2153:c:/Users/Black_Life/STM32Cube/Repository/STM32Cube_FW_F4_V1.26.2/Middlewares/Third_Party/LwIP/src/core\tcp.c ****       tcp_free_ooseq(pcb);
2154:c:/Users/Black_Life/STM32Cube/Repository/STM32Cube_FW_F4_V1.26.2/Middlewares/Third_Party/LwIP/src/core\tcp.c ****     }
2155:c:/Users/Black_Life/STM32Cube/Repository/STM32Cube_FW_F4_V1.26.2/Middlewares/Third_Party/LwIP/src/core\tcp.c **** #endif /* TCP_QUEUE_OOSEQ */
2156:c:/Users/Black_Life/STM32Cube/Repository/STM32Cube_FW_F4_V1.26.2/Middlewares/Third_Party/LwIP/src/core\tcp.c **** 
2157:c:/Users/Black_Life/STM32Cube/Repository/STM32Cube_FW_F4_V1.26.2/Middlewares/Third_Party/LwIP/src/core\tcp.c ****     /* Stop the retransmission timer as it will expect data on unacked
2158:c:/Users/Black_Life/STM32Cube/Repository/STM32Cube_FW_F4_V1.26.2/Middlewares/Third_Party/LwIP/src/core\tcp.c ****        queue if it fires */
2159:c:/Users/Black_Life/STM32Cube/Repository/STM32Cube_FW_F4_V1.26.2/Middlewares/Third_Party/LwIP/src/core\tcp.c ****     pcb->rtime = -1;
2160:c:/Users/Black_Life/STM32Cube/Repository/STM32Cube_FW_F4_V1.26.2/Middlewares/Third_Party/LwIP/src/core\tcp.c **** 
2161:c:/Users/Black_Life/STM32Cube/Repository/STM32Cube_FW_F4_V1.26.2/Middlewares/Third_Party/LwIP/src/core\tcp.c ****     tcp_segs_free(pcb->unsent);
2162:c:/Users/Black_Life/STM32Cube/Repository/STM32Cube_FW_F4_V1.26.2/Middlewares/Third_Party/LwIP/src/core\tcp.c ****     tcp_segs_free(pcb->unacked);
2163:c:/Users/Black_Life/STM32Cube/Repository/STM32Cube_FW_F4_V1.26.2/Middlewares/Third_Party/LwIP/src/core\tcp.c ****     pcb->unacked = pcb->unsent = NULL;
2164:c:/Users/Black_Life/STM32Cube/Repository/STM32Cube_FW_F4_V1.26.2/Middlewares/Third_Party/LwIP/src/core\tcp.c **** #if TCP_OVERSIZE
2165:c:/Users/Black_Life/STM32Cube/Repository/STM32Cube_FW_F4_V1.26.2/Middlewares/Third_Party/LwIP/src/core\tcp.c ****     pcb->unsent_oversize = 0;
2166:c:/Users/Black_Life/STM32Cube/Repository/STM32Cube_FW_F4_V1.26.2/Middlewares/Third_Party/LwIP/src/core\tcp.c **** #endif /* TCP_OVERSIZE */
2167:c:/Users/Black_Life/STM32Cube/Repository/STM32Cube_FW_F4_V1.26.2/Middlewares/Third_Party/LwIP/src/core\tcp.c ****   }
2168:c:/Users/Black_Life/STM32Cube/Repository/STM32Cube_FW_F4_V1.26.2/Middlewares/Third_Party/LwIP/src/core\tcp.c **** }
ARM GAS  C:\Users\BLACK_~1\AppData\Local\Temp\ccRovO0r.s 			page 90


2169:c:/Users/Black_Life/STM32Cube/Repository/STM32Cube_FW_F4_V1.26.2/Middlewares/Third_Party/LwIP/src/core\tcp.c **** 
2170:c:/Users/Black_Life/STM32Cube/Repository/STM32Cube_FW_F4_V1.26.2/Middlewares/Third_Party/LwIP/src/core\tcp.c **** /**
2171:c:/Users/Black_Life/STM32Cube/Repository/STM32Cube_FW_F4_V1.26.2/Middlewares/Third_Party/LwIP/src/core\tcp.c ****  * Purges the PCB and removes it from a PCB list. Any delayed ACKs are sent first.
2172:c:/Users/Black_Life/STM32Cube/Repository/STM32Cube_FW_F4_V1.26.2/Middlewares/Third_Party/LwIP/src/core\tcp.c ****  *
2173:c:/Users/Black_Life/STM32Cube/Repository/STM32Cube_FW_F4_V1.26.2/Middlewares/Third_Party/LwIP/src/core\tcp.c ****  * @param pcblist PCB list to purge.
2174:c:/Users/Black_Life/STM32Cube/Repository/STM32Cube_FW_F4_V1.26.2/Middlewares/Third_Party/LwIP/src/core\tcp.c ****  * @param pcb tcp_pcb to purge. The pcb itself is NOT deallocated!
2175:c:/Users/Black_Life/STM32Cube/Repository/STM32Cube_FW_F4_V1.26.2/Middlewares/Third_Party/LwIP/src/core\tcp.c ****  */
2176:c:/Users/Black_Life/STM32Cube/Repository/STM32Cube_FW_F4_V1.26.2/Middlewares/Third_Party/LwIP/src/core\tcp.c **** void
2177:c:/Users/Black_Life/STM32Cube/Repository/STM32Cube_FW_F4_V1.26.2/Middlewares/Third_Party/LwIP/src/core\tcp.c **** tcp_pcb_remove(struct tcp_pcb **pcblist, struct tcp_pcb *pcb)
2178:c:/Users/Black_Life/STM32Cube/Repository/STM32Cube_FW_F4_V1.26.2/Middlewares/Third_Party/LwIP/src/core\tcp.c **** {
2179:c:/Users/Black_Life/STM32Cube/Repository/STM32Cube_FW_F4_V1.26.2/Middlewares/Third_Party/LwIP/src/core\tcp.c ****   LWIP_ASSERT("tcp_pcb_remove: invalid pcb", pcb != NULL);
2180:c:/Users/Black_Life/STM32Cube/Repository/STM32Cube_FW_F4_V1.26.2/Middlewares/Third_Party/LwIP/src/core\tcp.c ****   LWIP_ASSERT("tcp_pcb_remove: invalid pcblist", pcblist != NULL);
2181:c:/Users/Black_Life/STM32Cube/Repository/STM32Cube_FW_F4_V1.26.2/Middlewares/Third_Party/LwIP/src/core\tcp.c **** 
2182:c:/Users/Black_Life/STM32Cube/Repository/STM32Cube_FW_F4_V1.26.2/Middlewares/Third_Party/LwIP/src/core\tcp.c ****   TCP_RMV(pcblist, pcb);
2183:c:/Users/Black_Life/STM32Cube/Repository/STM32Cube_FW_F4_V1.26.2/Middlewares/Third_Party/LwIP/src/core\tcp.c **** 
2184:c:/Users/Black_Life/STM32Cube/Repository/STM32Cube_FW_F4_V1.26.2/Middlewares/Third_Party/LwIP/src/core\tcp.c ****   tcp_pcb_purge(pcb);
2185:c:/Users/Black_Life/STM32Cube/Repository/STM32Cube_FW_F4_V1.26.2/Middlewares/Third_Party/LwIP/src/core\tcp.c **** 
2186:c:/Users/Black_Life/STM32Cube/Repository/STM32Cube_FW_F4_V1.26.2/Middlewares/Third_Party/LwIP/src/core\tcp.c ****   /* if there is an outstanding delayed ACKs, send it */
2187:c:/Users/Black_Life/STM32Cube/Repository/STM32Cube_FW_F4_V1.26.2/Middlewares/Third_Party/LwIP/src/core\tcp.c ****   if ((pcb->state != TIME_WAIT) &&
2188:c:/Users/Black_Life/STM32Cube/Repository/STM32Cube_FW_F4_V1.26.2/Middlewares/Third_Party/LwIP/src/core\tcp.c ****       (pcb->state != LISTEN) &&
2189:c:/Users/Black_Life/STM32Cube/Repository/STM32Cube_FW_F4_V1.26.2/Middlewares/Third_Party/LwIP/src/core\tcp.c ****       (pcb->flags & TF_ACK_DELAY)) {
2190:c:/Users/Black_Life/STM32Cube/Repository/STM32Cube_FW_F4_V1.26.2/Middlewares/Third_Party/LwIP/src/core\tcp.c ****     tcp_ack_now(pcb);
2191:c:/Users/Black_Life/STM32Cube/Repository/STM32Cube_FW_F4_V1.26.2/Middlewares/Third_Party/LwIP/src/core\tcp.c ****     tcp_output(pcb);
2192:c:/Users/Black_Life/STM32Cube/Repository/STM32Cube_FW_F4_V1.26.2/Middlewares/Third_Party/LwIP/src/core\tcp.c ****   }
2193:c:/Users/Black_Life/STM32Cube/Repository/STM32Cube_FW_F4_V1.26.2/Middlewares/Third_Party/LwIP/src/core\tcp.c **** 
2194:c:/Users/Black_Life/STM32Cube/Repository/STM32Cube_FW_F4_V1.26.2/Middlewares/Third_Party/LwIP/src/core\tcp.c ****   if (pcb->state != LISTEN) {
2195:c:/Users/Black_Life/STM32Cube/Repository/STM32Cube_FW_F4_V1.26.2/Middlewares/Third_Party/LwIP/src/core\tcp.c ****     LWIP_ASSERT("unsent segments leaking", pcb->unsent == NULL);
2196:c:/Users/Black_Life/STM32Cube/Repository/STM32Cube_FW_F4_V1.26.2/Middlewares/Third_Party/LwIP/src/core\tcp.c ****     LWIP_ASSERT("unacked segments leaking", pcb->unacked == NULL);
2197:c:/Users/Black_Life/STM32Cube/Repository/STM32Cube_FW_F4_V1.26.2/Middlewares/Third_Party/LwIP/src/core\tcp.c **** #if TCP_QUEUE_OOSEQ
2198:c:/Users/Black_Life/STM32Cube/Repository/STM32Cube_FW_F4_V1.26.2/Middlewares/Third_Party/LwIP/src/core\tcp.c ****     LWIP_ASSERT("ooseq segments leaking", pcb->ooseq == NULL);
2199:c:/Users/Black_Life/STM32Cube/Repository/STM32Cube_FW_F4_V1.26.2/Middlewares/Third_Party/LwIP/src/core\tcp.c **** #endif /* TCP_QUEUE_OOSEQ */
2200:c:/Users/Black_Life/STM32Cube/Repository/STM32Cube_FW_F4_V1.26.2/Middlewares/Third_Party/LwIP/src/core\tcp.c ****   }
2201:c:/Users/Black_Life/STM32Cube/Repository/STM32Cube_FW_F4_V1.26.2/Middlewares/Third_Party/LwIP/src/core\tcp.c **** 
2202:c:/Users/Black_Life/STM32Cube/Repository/STM32Cube_FW_F4_V1.26.2/Middlewares/Third_Party/LwIP/src/core\tcp.c ****   pcb->state = CLOSED;
2203:c:/Users/Black_Life/STM32Cube/Repository/STM32Cube_FW_F4_V1.26.2/Middlewares/Third_Party/LwIP/src/core\tcp.c ****   /* reset the local port to prevent the pcb from being 'bound' */
2204:c:/Users/Black_Life/STM32Cube/Repository/STM32Cube_FW_F4_V1.26.2/Middlewares/Third_Party/LwIP/src/core\tcp.c ****   pcb->local_port = 0;
2205:c:/Users/Black_Life/STM32Cube/Repository/STM32Cube_FW_F4_V1.26.2/Middlewares/Third_Party/LwIP/src/core\tcp.c **** 
2206:c:/Users/Black_Life/STM32Cube/Repository/STM32Cube_FW_F4_V1.26.2/Middlewares/Third_Party/LwIP/src/core\tcp.c ****   LWIP_ASSERT("tcp_pcb_remove: tcp_pcbs_sane()", tcp_pcbs_sane());
2207:c:/Users/Black_Life/STM32Cube/Repository/STM32Cube_FW_F4_V1.26.2/Middlewares/Third_Party/LwIP/src/core\tcp.c **** }
2208:c:/Users/Black_Life/STM32Cube/Repository/STM32Cube_FW_F4_V1.26.2/Middlewares/Third_Party/LwIP/src/core\tcp.c **** 
2209:c:/Users/Black_Life/STM32Cube/Repository/STM32Cube_FW_F4_V1.26.2/Middlewares/Third_Party/LwIP/src/core\tcp.c **** /**
2210:c:/Users/Black_Life/STM32Cube/Repository/STM32Cube_FW_F4_V1.26.2/Middlewares/Third_Party/LwIP/src/core\tcp.c ****  * Calculates a new initial sequence number for new connections.
2211:c:/Users/Black_Life/STM32Cube/Repository/STM32Cube_FW_F4_V1.26.2/Middlewares/Third_Party/LwIP/src/core\tcp.c ****  *
2212:c:/Users/Black_Life/STM32Cube/Repository/STM32Cube_FW_F4_V1.26.2/Middlewares/Third_Party/LwIP/src/core\tcp.c ****  * @return u32_t pseudo random sequence number
2213:c:/Users/Black_Life/STM32Cube/Repository/STM32Cube_FW_F4_V1.26.2/Middlewares/Third_Party/LwIP/src/core\tcp.c ****  */
2214:c:/Users/Black_Life/STM32Cube/Repository/STM32Cube_FW_F4_V1.26.2/Middlewares/Third_Party/LwIP/src/core\tcp.c **** u32_t
2215:c:/Users/Black_Life/STM32Cube/Repository/STM32Cube_FW_F4_V1.26.2/Middlewares/Third_Party/LwIP/src/core\tcp.c **** tcp_next_iss(struct tcp_pcb *pcb)
2216:c:/Users/Black_Life/STM32Cube/Repository/STM32Cube_FW_F4_V1.26.2/Middlewares/Third_Party/LwIP/src/core\tcp.c **** {
 2325              		.loc 1 2216 1 is_stmt 1 view -0
 2326              		.cfi_startproc
 2327              		@ args = 0, pretend = 0, frame = 0
 2328              		@ frame_needed = 0, uses_anonymous_args = 0
 2329              		.loc 1 2216 1 is_stmt 0 view .LVU636
 2330 0000 08B5     		push	{r3, lr}
 2331              	.LCFI27:
 2332              		.cfi_def_cfa_offset 8
 2333              		.cfi_offset 3, -8
ARM GAS  C:\Users\BLACK_~1\AppData\Local\Temp\ccRovO0r.s 			page 91


 2334              		.cfi_offset 14, -4
2217:c:/Users/Black_Life/STM32Cube/Repository/STM32Cube_FW_F4_V1.26.2/Middlewares/Third_Party/LwIP/src/core\tcp.c **** #ifdef LWIP_HOOK_TCP_ISN
2218:c:/Users/Black_Life/STM32Cube/Repository/STM32Cube_FW_F4_V1.26.2/Middlewares/Third_Party/LwIP/src/core\tcp.c ****   LWIP_ASSERT("tcp_next_iss: invalid pcb", pcb != NULL);
2219:c:/Users/Black_Life/STM32Cube/Repository/STM32Cube_FW_F4_V1.26.2/Middlewares/Third_Party/LwIP/src/core\tcp.c ****   return LWIP_HOOK_TCP_ISN(&pcb->local_ip, pcb->local_port, &pcb->remote_ip, pcb->remote_port);
2220:c:/Users/Black_Life/STM32Cube/Repository/STM32Cube_FW_F4_V1.26.2/Middlewares/Third_Party/LwIP/src/core\tcp.c **** #else /* LWIP_HOOK_TCP_ISN */
2221:c:/Users/Black_Life/STM32Cube/Repository/STM32Cube_FW_F4_V1.26.2/Middlewares/Third_Party/LwIP/src/core\tcp.c ****   static u32_t iss = 6510;
 2335              		.loc 1 2221 3 is_stmt 1 view .LVU637
2222:c:/Users/Black_Life/STM32Cube/Repository/STM32Cube_FW_F4_V1.26.2/Middlewares/Third_Party/LwIP/src/core\tcp.c **** 
2223:c:/Users/Black_Life/STM32Cube/Repository/STM32Cube_FW_F4_V1.26.2/Middlewares/Third_Party/LwIP/src/core\tcp.c ****   LWIP_ASSERT("tcp_next_iss: invalid pcb", pcb != NULL);
 2336              		.loc 1 2223 3 view .LVU638
 2337              		.loc 1 2223 3 view .LVU639
 2338 0002 30B1     		cbz	r0, .L239
 2339              	.LVL226:
 2340              	.L237:
 2341              		.loc 1 2223 3 discriminator 3 view .LVU640
 2342              		.loc 1 2223 3 discriminator 3 view .LVU641
2224:c:/Users/Black_Life/STM32Cube/Repository/STM32Cube_FW_F4_V1.26.2/Middlewares/Third_Party/LwIP/src/core\tcp.c ****   LWIP_UNUSED_ARG(pcb);
 2343              		.loc 1 2224 3 discriminator 3 view .LVU642
2225:c:/Users/Black_Life/STM32Cube/Repository/STM32Cube_FW_F4_V1.26.2/Middlewares/Third_Party/LwIP/src/core\tcp.c **** 
2226:c:/Users/Black_Life/STM32Cube/Repository/STM32Cube_FW_F4_V1.26.2/Middlewares/Third_Party/LwIP/src/core\tcp.c ****   iss += tcp_ticks;       /* XXX */
 2344              		.loc 1 2226 3 discriminator 3 view .LVU643
 2345              		.loc 1 2226 7 is_stmt 0 discriminator 3 view .LVU644
 2346 0004 074B     		ldr	r3, .L240
 2347 0006 1868     		ldr	r0, [r3]
 2348 0008 074A     		ldr	r2, .L240+4
 2349 000a 1268     		ldr	r2, [r2]
 2350 000c 1044     		add	r0, r0, r2
 2351 000e 1860     		str	r0, [r3]
2227:c:/Users/Black_Life/STM32Cube/Repository/STM32Cube_FW_F4_V1.26.2/Middlewares/Third_Party/LwIP/src/core\tcp.c ****   return iss;
 2352              		.loc 1 2227 3 is_stmt 1 discriminator 3 view .LVU645
2228:c:/Users/Black_Life/STM32Cube/Repository/STM32Cube_FW_F4_V1.26.2/Middlewares/Third_Party/LwIP/src/core\tcp.c **** #endif /* LWIP_HOOK_TCP_ISN */
2229:c:/Users/Black_Life/STM32Cube/Repository/STM32Cube_FW_F4_V1.26.2/Middlewares/Third_Party/LwIP/src/core\tcp.c **** }
 2353              		.loc 1 2229 1 is_stmt 0 discriminator 3 view .LVU646
 2354 0010 08BD     		pop	{r3, pc}
 2355              	.LVL227:
 2356              	.L239:
2223:c:/Users/Black_Life/STM32Cube/Repository/STM32Cube_FW_F4_V1.26.2/Middlewares/Third_Party/LwIP/src/core\tcp.c ****   LWIP_UNUSED_ARG(pcb);
 2357              		.loc 1 2223 3 is_stmt 1 discriminator 1 view .LVU647
2223:c:/Users/Black_Life/STM32Cube/Repository/STM32Cube_FW_F4_V1.26.2/Middlewares/Third_Party/LwIP/src/core\tcp.c ****   LWIP_UNUSED_ARG(pcb);
 2358              		.loc 1 2223 3 discriminator 1 view .LVU648
 2359 0012 064B     		ldr	r3, .L240+8
 2360 0014 40F6AF02 		movw	r2, #2223
 2361 0018 0549     		ldr	r1, .L240+12
 2362 001a 0648     		ldr	r0, .L240+16
 2363              	.LVL228:
2223:c:/Users/Black_Life/STM32Cube/Repository/STM32Cube_FW_F4_V1.26.2/Middlewares/Third_Party/LwIP/src/core\tcp.c ****   LWIP_UNUSED_ARG(pcb);
 2364              		.loc 1 2223 3 is_stmt 0 discriminator 1 view .LVU649
 2365 001c FFF7FEFF 		bl	printf
 2366              	.LVL229:
 2367 0020 F0E7     		b	.L237
 2368              	.L241:
 2369 0022 00BF     		.align	2
 2370              	.L240:
 2371 0024 00000000 		.word	.LANCHOR5
 2372 0028 00000000 		.word	.LANCHOR6
 2373 002c 00000000 		.word	.LC0
 2374 0030 00000000 		.word	.LC22
ARM GAS  C:\Users\BLACK_~1\AppData\Local\Temp\ccRovO0r.s 			page 92


 2375 0034 98000000 		.word	.LC2
 2376              		.cfi_endproc
 2377              	.LFE201:
 2379              		.section	.rodata.tcp_eff_send_mss_netif.str1.4,"aMS",%progbits,1
 2380              		.align	2
 2381              	.LC23:
 2382 0000 7463705F 		.ascii	"tcp_eff_send_mss_netif: invalid dst_ip\000"
 2382      6566665F 
 2382      73656E64 
 2382      5F6D7373 
 2382      5F6E6574 
 2383              		.section	.text.tcp_eff_send_mss_netif,"ax",%progbits
 2384              		.align	1
 2385              		.global	tcp_eff_send_mss_netif
 2386              		.syntax unified
 2387              		.thumb
 2388              		.thumb_func
 2390              	tcp_eff_send_mss_netif:
 2391              	.LVL230:
 2392              	.LFB202:
2230:c:/Users/Black_Life/STM32Cube/Repository/STM32Cube_FW_F4_V1.26.2/Middlewares/Third_Party/LwIP/src/core\tcp.c **** 
2231:c:/Users/Black_Life/STM32Cube/Repository/STM32Cube_FW_F4_V1.26.2/Middlewares/Third_Party/LwIP/src/core\tcp.c **** #if TCP_CALCULATE_EFF_SEND_MSS
2232:c:/Users/Black_Life/STM32Cube/Repository/STM32Cube_FW_F4_V1.26.2/Middlewares/Third_Party/LwIP/src/core\tcp.c **** /**
2233:c:/Users/Black_Life/STM32Cube/Repository/STM32Cube_FW_F4_V1.26.2/Middlewares/Third_Party/LwIP/src/core\tcp.c ****  * Calculates the effective send mss that can be used for a specific IP address
2234:c:/Users/Black_Life/STM32Cube/Repository/STM32Cube_FW_F4_V1.26.2/Middlewares/Third_Party/LwIP/src/core\tcp.c ****  * by calculating the minimum of TCP_MSS and the mtu (if set) of the target
2235:c:/Users/Black_Life/STM32Cube/Repository/STM32Cube_FW_F4_V1.26.2/Middlewares/Third_Party/LwIP/src/core\tcp.c ****  * netif (if not NULL).
2236:c:/Users/Black_Life/STM32Cube/Repository/STM32Cube_FW_F4_V1.26.2/Middlewares/Third_Party/LwIP/src/core\tcp.c ****  */
2237:c:/Users/Black_Life/STM32Cube/Repository/STM32Cube_FW_F4_V1.26.2/Middlewares/Third_Party/LwIP/src/core\tcp.c **** u16_t
2238:c:/Users/Black_Life/STM32Cube/Repository/STM32Cube_FW_F4_V1.26.2/Middlewares/Third_Party/LwIP/src/core\tcp.c **** tcp_eff_send_mss_netif(u16_t sendmss, struct netif *outif, const ip_addr_t *dest)
2239:c:/Users/Black_Life/STM32Cube/Repository/STM32Cube_FW_F4_V1.26.2/Middlewares/Third_Party/LwIP/src/core\tcp.c **** {
 2393              		.loc 1 2239 1 is_stmt 1 view -0
 2394              		.cfi_startproc
 2395              		@ args = 0, pretend = 0, frame = 0
 2396              		@ frame_needed = 0, uses_anonymous_args = 0
 2397              		.loc 1 2239 1 is_stmt 0 view .LVU651
 2398 0000 38B5     		push	{r3, r4, r5, lr}
 2399              	.LCFI28:
 2400              		.cfi_def_cfa_offset 16
 2401              		.cfi_offset 3, -16
 2402              		.cfi_offset 4, -12
 2403              		.cfi_offset 5, -8
 2404              		.cfi_offset 14, -4
 2405 0002 0546     		mov	r5, r0
 2406 0004 0C46     		mov	r4, r1
2240:c:/Users/Black_Life/STM32Cube/Repository/STM32Cube_FW_F4_V1.26.2/Middlewares/Third_Party/LwIP/src/core\tcp.c ****   u16_t mss_s;
 2407              		.loc 1 2240 3 is_stmt 1 view .LVU652
2241:c:/Users/Black_Life/STM32Cube/Repository/STM32Cube_FW_F4_V1.26.2/Middlewares/Third_Party/LwIP/src/core\tcp.c ****   u16_t mtu;
 2408              		.loc 1 2241 3 view .LVU653
2242:c:/Users/Black_Life/STM32Cube/Repository/STM32Cube_FW_F4_V1.26.2/Middlewares/Third_Party/LwIP/src/core\tcp.c **** 
2243:c:/Users/Black_Life/STM32Cube/Repository/STM32Cube_FW_F4_V1.26.2/Middlewares/Third_Party/LwIP/src/core\tcp.c ****   LWIP_UNUSED_ARG(dest); /* in case IPv6 is disabled */
 2409              		.loc 1 2243 3 view .LVU654
2244:c:/Users/Black_Life/STM32Cube/Repository/STM32Cube_FW_F4_V1.26.2/Middlewares/Third_Party/LwIP/src/core\tcp.c **** 
2245:c:/Users/Black_Life/STM32Cube/Repository/STM32Cube_FW_F4_V1.26.2/Middlewares/Third_Party/LwIP/src/core\tcp.c ****   LWIP_ASSERT("tcp_eff_send_mss_netif: invalid dst_ip", dest != NULL);
 2410              		.loc 1 2245 3 view .LVU655
 2411              		.loc 1 2245 3 view .LVU656
 2412 0006 5AB1     		cbz	r2, .L248
 2413              	.LVL231:
ARM GAS  C:\Users\BLACK_~1\AppData\Local\Temp\ccRovO0r.s 			page 93


 2414              	.L243:
 2415              		.loc 1 2245 3 discriminator 3 view .LVU657
 2416              		.loc 1 2245 3 discriminator 3 view .LVU658
2246:c:/Users/Black_Life/STM32Cube/Repository/STM32Cube_FW_F4_V1.26.2/Middlewares/Third_Party/LwIP/src/core\tcp.c **** 
2247:c:/Users/Black_Life/STM32Cube/Repository/STM32Cube_FW_F4_V1.26.2/Middlewares/Third_Party/LwIP/src/core\tcp.c **** #if LWIP_IPV6
2248:c:/Users/Black_Life/STM32Cube/Repository/STM32Cube_FW_F4_V1.26.2/Middlewares/Third_Party/LwIP/src/core\tcp.c **** #if LWIP_IPV4
2249:c:/Users/Black_Life/STM32Cube/Repository/STM32Cube_FW_F4_V1.26.2/Middlewares/Third_Party/LwIP/src/core\tcp.c ****   if (IP_IS_V6(dest))
2250:c:/Users/Black_Life/STM32Cube/Repository/STM32Cube_FW_F4_V1.26.2/Middlewares/Third_Party/LwIP/src/core\tcp.c **** #endif /* LWIP_IPV4 */
2251:c:/Users/Black_Life/STM32Cube/Repository/STM32Cube_FW_F4_V1.26.2/Middlewares/Third_Party/LwIP/src/core\tcp.c ****   {
2252:c:/Users/Black_Life/STM32Cube/Repository/STM32Cube_FW_F4_V1.26.2/Middlewares/Third_Party/LwIP/src/core\tcp.c ****     /* First look in destination cache, to see if there is a Path MTU. */
2253:c:/Users/Black_Life/STM32Cube/Repository/STM32Cube_FW_F4_V1.26.2/Middlewares/Third_Party/LwIP/src/core\tcp.c ****     mtu = nd6_get_destination_mtu(ip_2_ip6(dest), outif);
2254:c:/Users/Black_Life/STM32Cube/Repository/STM32Cube_FW_F4_V1.26.2/Middlewares/Third_Party/LwIP/src/core\tcp.c ****   }
2255:c:/Users/Black_Life/STM32Cube/Repository/STM32Cube_FW_F4_V1.26.2/Middlewares/Third_Party/LwIP/src/core\tcp.c **** #if LWIP_IPV4
2256:c:/Users/Black_Life/STM32Cube/Repository/STM32Cube_FW_F4_V1.26.2/Middlewares/Third_Party/LwIP/src/core\tcp.c ****   else
2257:c:/Users/Black_Life/STM32Cube/Repository/STM32Cube_FW_F4_V1.26.2/Middlewares/Third_Party/LwIP/src/core\tcp.c **** #endif /* LWIP_IPV4 */
2258:c:/Users/Black_Life/STM32Cube/Repository/STM32Cube_FW_F4_V1.26.2/Middlewares/Third_Party/LwIP/src/core\tcp.c **** #endif /* LWIP_IPV6 */
2259:c:/Users/Black_Life/STM32Cube/Repository/STM32Cube_FW_F4_V1.26.2/Middlewares/Third_Party/LwIP/src/core\tcp.c **** #if LWIP_IPV4
2260:c:/Users/Black_Life/STM32Cube/Repository/STM32Cube_FW_F4_V1.26.2/Middlewares/Third_Party/LwIP/src/core\tcp.c ****   {
2261:c:/Users/Black_Life/STM32Cube/Repository/STM32Cube_FW_F4_V1.26.2/Middlewares/Third_Party/LwIP/src/core\tcp.c ****     if (outif == NULL) {
 2417              		.loc 1 2261 5 discriminator 3 view .LVU659
 2418              		.loc 1 2261 8 is_stmt 0 discriminator 3 view .LVU660
 2419 0008 44B1     		cbz	r4, .L244
2262:c:/Users/Black_Life/STM32Cube/Repository/STM32Cube_FW_F4_V1.26.2/Middlewares/Third_Party/LwIP/src/core\tcp.c ****       return sendmss;
2263:c:/Users/Black_Life/STM32Cube/Repository/STM32Cube_FW_F4_V1.26.2/Middlewares/Third_Party/LwIP/src/core\tcp.c ****     }
2264:c:/Users/Black_Life/STM32Cube/Repository/STM32Cube_FW_F4_V1.26.2/Middlewares/Third_Party/LwIP/src/core\tcp.c ****     mtu = outif->mtu;
 2420              		.loc 1 2264 5 is_stmt 1 view .LVU661
 2421              		.loc 1 2264 9 is_stmt 0 view .LVU662
 2422 000a 238D     		ldrh	r3, [r4, #40]
 2423              	.LVL232:
2265:c:/Users/Black_Life/STM32Cube/Repository/STM32Cube_FW_F4_V1.26.2/Middlewares/Third_Party/LwIP/src/core\tcp.c ****   }
2266:c:/Users/Black_Life/STM32Cube/Repository/STM32Cube_FW_F4_V1.26.2/Middlewares/Third_Party/LwIP/src/core\tcp.c **** #endif /* LWIP_IPV4 */
2267:c:/Users/Black_Life/STM32Cube/Repository/STM32Cube_FW_F4_V1.26.2/Middlewares/Third_Party/LwIP/src/core\tcp.c **** 
2268:c:/Users/Black_Life/STM32Cube/Repository/STM32Cube_FW_F4_V1.26.2/Middlewares/Third_Party/LwIP/src/core\tcp.c ****   if (mtu != 0) {
 2424              		.loc 1 2268 3 is_stmt 1 view .LVU663
 2425              		.loc 1 2268 6 is_stmt 0 view .LVU664
 2426 000c 33B1     		cbz	r3, .L244
 2427              	.LBB8:
2269:c:/Users/Black_Life/STM32Cube/Repository/STM32Cube_FW_F4_V1.26.2/Middlewares/Third_Party/LwIP/src/core\tcp.c ****     u16_t offset;
 2428              		.loc 1 2269 5 is_stmt 1 view .LVU665
2270:c:/Users/Black_Life/STM32Cube/Repository/STM32Cube_FW_F4_V1.26.2/Middlewares/Third_Party/LwIP/src/core\tcp.c **** #if LWIP_IPV6
2271:c:/Users/Black_Life/STM32Cube/Repository/STM32Cube_FW_F4_V1.26.2/Middlewares/Third_Party/LwIP/src/core\tcp.c **** #if LWIP_IPV4
2272:c:/Users/Black_Life/STM32Cube/Repository/STM32Cube_FW_F4_V1.26.2/Middlewares/Third_Party/LwIP/src/core\tcp.c ****     if (IP_IS_V6(dest))
2273:c:/Users/Black_Life/STM32Cube/Repository/STM32Cube_FW_F4_V1.26.2/Middlewares/Third_Party/LwIP/src/core\tcp.c **** #endif /* LWIP_IPV4 */
2274:c:/Users/Black_Life/STM32Cube/Repository/STM32Cube_FW_F4_V1.26.2/Middlewares/Third_Party/LwIP/src/core\tcp.c ****     {
2275:c:/Users/Black_Life/STM32Cube/Repository/STM32Cube_FW_F4_V1.26.2/Middlewares/Third_Party/LwIP/src/core\tcp.c ****       offset = IP6_HLEN + TCP_HLEN;
2276:c:/Users/Black_Life/STM32Cube/Repository/STM32Cube_FW_F4_V1.26.2/Middlewares/Third_Party/LwIP/src/core\tcp.c ****     }
2277:c:/Users/Black_Life/STM32Cube/Repository/STM32Cube_FW_F4_V1.26.2/Middlewares/Third_Party/LwIP/src/core\tcp.c **** #if LWIP_IPV4
2278:c:/Users/Black_Life/STM32Cube/Repository/STM32Cube_FW_F4_V1.26.2/Middlewares/Third_Party/LwIP/src/core\tcp.c ****     else
2279:c:/Users/Black_Life/STM32Cube/Repository/STM32Cube_FW_F4_V1.26.2/Middlewares/Third_Party/LwIP/src/core\tcp.c **** #endif /* LWIP_IPV4 */
2280:c:/Users/Black_Life/STM32Cube/Repository/STM32Cube_FW_F4_V1.26.2/Middlewares/Third_Party/LwIP/src/core\tcp.c **** #endif /* LWIP_IPV6 */
2281:c:/Users/Black_Life/STM32Cube/Repository/STM32Cube_FW_F4_V1.26.2/Middlewares/Third_Party/LwIP/src/core\tcp.c **** #if LWIP_IPV4
2282:c:/Users/Black_Life/STM32Cube/Repository/STM32Cube_FW_F4_V1.26.2/Middlewares/Third_Party/LwIP/src/core\tcp.c ****     {
2283:c:/Users/Black_Life/STM32Cube/Repository/STM32Cube_FW_F4_V1.26.2/Middlewares/Third_Party/LwIP/src/core\tcp.c ****       offset = IP_HLEN + TCP_HLEN;
 2429              		.loc 1 2283 7 view .LVU666
 2430              	.LVL233:
2284:c:/Users/Black_Life/STM32Cube/Repository/STM32Cube_FW_F4_V1.26.2/Middlewares/Third_Party/LwIP/src/core\tcp.c ****     }
2285:c:/Users/Black_Life/STM32Cube/Repository/STM32Cube_FW_F4_V1.26.2/Middlewares/Third_Party/LwIP/src/core\tcp.c **** #endif /* LWIP_IPV4 */
ARM GAS  C:\Users\BLACK_~1\AppData\Local\Temp\ccRovO0r.s 			page 94


2286:c:/Users/Black_Life/STM32Cube/Repository/STM32Cube_FW_F4_V1.26.2/Middlewares/Third_Party/LwIP/src/core\tcp.c ****     mss_s = (mtu > offset) ? (u16_t)(mtu - offset) : 0;
 2431              		.loc 1 2286 5 view .LVU667
 2432              		.loc 1 2286 11 is_stmt 0 view .LVU668
 2433 000e 282B     		cmp	r3, #40
 2434 0010 0ED9     		bls	.L246
 2435              		.loc 1 2286 11 discriminator 1 view .LVU669
 2436 0012 283B     		subs	r3, r3, #40
 2437              	.LVL234:
 2438              		.loc 1 2286 11 discriminator 1 view .LVU670
 2439 0014 9BB2     		uxth	r3, r3
 2440              	.LVL235:
 2441              	.L245:
2287:c:/Users/Black_Life/STM32Cube/Repository/STM32Cube_FW_F4_V1.26.2/Middlewares/Third_Party/LwIP/src/core\tcp.c ****     /* RFC 1122, chap 4.2.2.6:
2288:c:/Users/Black_Life/STM32Cube/Repository/STM32Cube_FW_F4_V1.26.2/Middlewares/Third_Party/LwIP/src/core\tcp.c ****      * Eff.snd.MSS = min(SendMSS+20, MMS_S) - TCPhdrsize - IPoptionsize
2289:c:/Users/Black_Life/STM32Cube/Repository/STM32Cube_FW_F4_V1.26.2/Middlewares/Third_Party/LwIP/src/core\tcp.c ****      * We correct for TCP options in tcp_write(), and don't support IP options.
2290:c:/Users/Black_Life/STM32Cube/Repository/STM32Cube_FW_F4_V1.26.2/Middlewares/Third_Party/LwIP/src/core\tcp.c ****      */
2291:c:/Users/Black_Life/STM32Cube/Repository/STM32Cube_FW_F4_V1.26.2/Middlewares/Third_Party/LwIP/src/core\tcp.c ****     sendmss = LWIP_MIN(sendmss, mss_s);
 2442              		.loc 1 2291 5 is_stmt 1 discriminator 4 view .LVU671
 2443              		.loc 1 2291 13 is_stmt 0 discriminator 4 view .LVU672
 2444 0016 9D42     		cmp	r5, r3
 2445 0018 28BF     		it	cs
 2446 001a 1D46     		movcs	r5, r3
 2447              	.LVL236:
 2448              	.L244:
 2449              		.loc 1 2291 13 discriminator 4 view .LVU673
 2450              	.LBE8:
2292:c:/Users/Black_Life/STM32Cube/Repository/STM32Cube_FW_F4_V1.26.2/Middlewares/Third_Party/LwIP/src/core\tcp.c ****   }
2293:c:/Users/Black_Life/STM32Cube/Repository/STM32Cube_FW_F4_V1.26.2/Middlewares/Third_Party/LwIP/src/core\tcp.c ****   return sendmss;
2294:c:/Users/Black_Life/STM32Cube/Repository/STM32Cube_FW_F4_V1.26.2/Middlewares/Third_Party/LwIP/src/core\tcp.c **** }
 2451              		.loc 1 2294 1 view .LVU674
 2452 001c 2846     		mov	r0, r5
 2453 001e 38BD     		pop	{r3, r4, r5, pc}
 2454              	.LVL237:
 2455              	.L248:
2245:c:/Users/Black_Life/STM32Cube/Repository/STM32Cube_FW_F4_V1.26.2/Middlewares/Third_Party/LwIP/src/core\tcp.c **** 
 2456              		.loc 1 2245 3 is_stmt 1 discriminator 1 view .LVU675
2245:c:/Users/Black_Life/STM32Cube/Repository/STM32Cube_FW_F4_V1.26.2/Middlewares/Third_Party/LwIP/src/core\tcp.c **** 
 2457              		.loc 1 2245 3 discriminator 1 view .LVU676
 2458 0020 044B     		ldr	r3, .L249
 2459 0022 40F6C502 		movw	r2, #2245
 2460              	.LVL238:
2245:c:/Users/Black_Life/STM32Cube/Repository/STM32Cube_FW_F4_V1.26.2/Middlewares/Third_Party/LwIP/src/core\tcp.c **** 
 2461              		.loc 1 2245 3 is_stmt 0 discriminator 1 view .LVU677
 2462 0026 0449     		ldr	r1, .L249+4
 2463              	.LVL239:
2245:c:/Users/Black_Life/STM32Cube/Repository/STM32Cube_FW_F4_V1.26.2/Middlewares/Third_Party/LwIP/src/core\tcp.c **** 
 2464              		.loc 1 2245 3 discriminator 1 view .LVU678
 2465 0028 0448     		ldr	r0, .L249+8
 2466              	.LVL240:
2245:c:/Users/Black_Life/STM32Cube/Repository/STM32Cube_FW_F4_V1.26.2/Middlewares/Third_Party/LwIP/src/core\tcp.c **** 
 2467              		.loc 1 2245 3 discriminator 1 view .LVU679
 2468 002a FFF7FEFF 		bl	printf
 2469              	.LVL241:
 2470 002e EBE7     		b	.L243
 2471              	.LVL242:
 2472              	.L246:
 2473              	.LBB9:
ARM GAS  C:\Users\BLACK_~1\AppData\Local\Temp\ccRovO0r.s 			page 95


2286:c:/Users/Black_Life/STM32Cube/Repository/STM32Cube_FW_F4_V1.26.2/Middlewares/Third_Party/LwIP/src/core\tcp.c ****     /* RFC 1122, chap 4.2.2.6:
 2474              		.loc 1 2286 11 view .LVU680
 2475 0030 0023     		movs	r3, #0
 2476              	.LVL243:
2286:c:/Users/Black_Life/STM32Cube/Repository/STM32Cube_FW_F4_V1.26.2/Middlewares/Third_Party/LwIP/src/core\tcp.c ****     /* RFC 1122, chap 4.2.2.6:
 2477              		.loc 1 2286 11 view .LVU681
 2478 0032 F0E7     		b	.L245
 2479              	.L250:
 2480              		.align	2
 2481              	.L249:
 2482 0034 00000000 		.word	.LC0
 2483 0038 00000000 		.word	.LC23
 2484 003c 98000000 		.word	.LC2
 2485              	.LBE9:
 2486              		.cfi_endproc
 2487              	.LFE202:
 2489              		.section	.rodata.tcp_connect.str1.4,"aMS",%progbits,1
 2490              		.align	2
 2491              	.LC24:
 2492 0000 7463705F 		.ascii	"tcp_connect: invalid pcb\000"
 2492      636F6E6E 
 2492      6563743A 
 2492      20696E76 
 2492      616C6964 
 2493 0019 000000   		.align	2
 2494              	.LC25:
 2495 001c 7463705F 		.ascii	"tcp_connect: invalid ipaddr\000"
 2495      636F6E6E 
 2495      6563743A 
 2495      20696E76 
 2495      616C6964 
 2496              		.align	2
 2497              	.LC26:
 2498 0038 7463705F 		.ascii	"tcp_connect: can only connect from state CLOSED\000"
 2498      636F6E6E 
 2498      6563743A 
 2498      2063616E 
 2498      206F6E6C 
 2499              		.section	.text.tcp_connect,"ax",%progbits
 2500              		.align	1
 2501              		.global	tcp_connect
 2502              		.syntax unified
 2503              		.thumb
 2504              		.thumb_func
 2506              	tcp_connect:
 2507              	.LVL244:
 2508              	.LFB176:
1069:c:/Users/Black_Life/STM32Cube/Repository/STM32Cube_FW_F4_V1.26.2/Middlewares/Third_Party/LwIP/src/core\tcp.c ****   struct netif *netif = NULL;
 2509              		.loc 1 1069 1 is_stmt 1 view -0
 2510              		.cfi_startproc
 2511              		@ args = 0, pretend = 0, frame = 0
 2512              		@ frame_needed = 0, uses_anonymous_args = 0
1069:c:/Users/Black_Life/STM32Cube/Repository/STM32Cube_FW_F4_V1.26.2/Middlewares/Third_Party/LwIP/src/core\tcp.c ****   struct netif *netif = NULL;
 2513              		.loc 1 1069 1 is_stmt 0 view .LVU683
 2514 0000 F8B5     		push	{r3, r4, r5, r6, r7, lr}
 2515              	.LCFI29:
 2516              		.cfi_def_cfa_offset 24
ARM GAS  C:\Users\BLACK_~1\AppData\Local\Temp\ccRovO0r.s 			page 96


 2517              		.cfi_offset 3, -24
 2518              		.cfi_offset 4, -20
 2519              		.cfi_offset 5, -16
 2520              		.cfi_offset 6, -12
 2521              		.cfi_offset 7, -8
 2522              		.cfi_offset 14, -4
1070:c:/Users/Black_Life/STM32Cube/Repository/STM32Cube_FW_F4_V1.26.2/Middlewares/Third_Party/LwIP/src/core\tcp.c ****   err_t ret;
 2523              		.loc 1 1070 3 is_stmt 1 view .LVU684
 2524              	.LVL245:
1071:c:/Users/Black_Life/STM32Cube/Repository/STM32Cube_FW_F4_V1.26.2/Middlewares/Third_Party/LwIP/src/core\tcp.c ****   u32_t iss;
 2525              		.loc 1 1071 3 view .LVU685
1072:c:/Users/Black_Life/STM32Cube/Repository/STM32Cube_FW_F4_V1.26.2/Middlewares/Third_Party/LwIP/src/core\tcp.c ****   u16_t old_local_port;
 2526              		.loc 1 1072 3 view .LVU686
1073:c:/Users/Black_Life/STM32Cube/Repository/STM32Cube_FW_F4_V1.26.2/Middlewares/Third_Party/LwIP/src/core\tcp.c **** 
 2527              		.loc 1 1073 3 view .LVU687
1075:c:/Users/Black_Life/STM32Cube/Repository/STM32Cube_FW_F4_V1.26.2/Middlewares/Third_Party/LwIP/src/core\tcp.c **** 
 2528              		.loc 1 1075 28 view .LVU688
1077:c:/Users/Black_Life/STM32Cube/Repository/STM32Cube_FW_F4_V1.26.2/Middlewares/Third_Party/LwIP/src/core\tcp.c ****   LWIP_ERROR("tcp_connect: invalid ipaddr", ipaddr != NULL, return ERR_ARG);
 2529              		.loc 1 1077 3 view .LVU689
1077:c:/Users/Black_Life/STM32Cube/Repository/STM32Cube_FW_F4_V1.26.2/Middlewares/Third_Party/LwIP/src/core\tcp.c ****   LWIP_ERROR("tcp_connect: invalid ipaddr", ipaddr != NULL, return ERR_ARG);
 2530              		.loc 1 1077 3 view .LVU690
 2531 0002 0028     		cmp	r0, #0
 2532 0004 53D0     		beq	.L270
 2533 0006 1E46     		mov	r6, r3
 2534 0008 0446     		mov	r4, r0
1077:c:/Users/Black_Life/STM32Cube/Repository/STM32Cube_FW_F4_V1.26.2/Middlewares/Third_Party/LwIP/src/core\tcp.c ****   LWIP_ERROR("tcp_connect: invalid ipaddr", ipaddr != NULL, return ERR_ARG);
 2535              		.loc 1 1077 3 discriminator 2 view .LVU691
1078:c:/Users/Black_Life/STM32Cube/Repository/STM32Cube_FW_F4_V1.26.2/Middlewares/Third_Party/LwIP/src/core\tcp.c **** 
 2536              		.loc 1 1078 3 discriminator 2 view .LVU692
1078:c:/Users/Black_Life/STM32Cube/Repository/STM32Cube_FW_F4_V1.26.2/Middlewares/Third_Party/LwIP/src/core\tcp.c **** 
 2537              		.loc 1 1078 3 discriminator 2 view .LVU693
 2538 000a 0029     		cmp	r1, #0
 2539 000c 59D0     		beq	.L271
1078:c:/Users/Black_Life/STM32Cube/Repository/STM32Cube_FW_F4_V1.26.2/Middlewares/Third_Party/LwIP/src/core\tcp.c **** 
 2540              		.loc 1 1078 3 discriminator 2 view .LVU694
1080:c:/Users/Black_Life/STM32Cube/Repository/STM32Cube_FW_F4_V1.26.2/Middlewares/Third_Party/LwIP/src/core\tcp.c **** 
 2541              		.loc 1 1080 3 discriminator 2 view .LVU695
1080:c:/Users/Black_Life/STM32Cube/Repository/STM32Cube_FW_F4_V1.26.2/Middlewares/Third_Party/LwIP/src/core\tcp.c **** 
 2542              		.loc 1 1080 3 discriminator 2 view .LVU696
 2543 000e 037D     		ldrb	r3, [r0, #20]	@ zero_extendqisi2
 2544              	.LVL246:
1080:c:/Users/Black_Life/STM32Cube/Repository/STM32Cube_FW_F4_V1.26.2/Middlewares/Third_Party/LwIP/src/core\tcp.c **** 
 2545              		.loc 1 1080 3 is_stmt 0 discriminator 2 view .LVU697
 2546 0010 002B     		cmp	r3, #0
 2547 0012 60D1     		bne	.L272
1080:c:/Users/Black_Life/STM32Cube/Repository/STM32Cube_FW_F4_V1.26.2/Middlewares/Third_Party/LwIP/src/core\tcp.c **** 
 2548              		.loc 1 1080 3 is_stmt 1 discriminator 1 view .LVU698
1082:c:/Users/Black_Life/STM32Cube/Repository/STM32Cube_FW_F4_V1.26.2/Middlewares/Third_Party/LwIP/src/core\tcp.c ****   ip_addr_set(&pcb->remote_ip, ipaddr);
 2549              		.loc 1 1082 67 discriminator 1 view .LVU699
1083:c:/Users/Black_Life/STM32Cube/Repository/STM32Cube_FW_F4_V1.26.2/Middlewares/Third_Party/LwIP/src/core\tcp.c ****   pcb->remote_port = port;
 2550              		.loc 1 1083 3 discriminator 1 view .LVU700
 2551 0014 0B68     		ldr	r3, [r1]
 2552 0016 4360     		str	r3, [r0, #4]
1084:c:/Users/Black_Life/STM32Cube/Repository/STM32Cube_FW_F4_V1.26.2/Middlewares/Third_Party/LwIP/src/core\tcp.c **** 
 2553              		.loc 1 1084 3 discriminator 1 view .LVU701
1084:c:/Users/Black_Life/STM32Cube/Repository/STM32Cube_FW_F4_V1.26.2/Middlewares/Third_Party/LwIP/src/core\tcp.c **** 
 2554              		.loc 1 1084 20 is_stmt 0 discriminator 1 view .LVU702
ARM GAS  C:\Users\BLACK_~1\AppData\Local\Temp\ccRovO0r.s 			page 97


 2555 0018 0283     		strh	r2, [r0, #24]	@ movhi
1086:c:/Users/Black_Life/STM32Cube/Repository/STM32Cube_FW_F4_V1.26.2/Middlewares/Third_Party/LwIP/src/core\tcp.c ****     netif = netif_get_by_index(pcb->netif_idx);
 2556              		.loc 1 1086 3 is_stmt 1 discriminator 1 view .LVU703
1086:c:/Users/Black_Life/STM32Cube/Repository/STM32Cube_FW_F4_V1.26.2/Middlewares/Third_Party/LwIP/src/core\tcp.c ****     netif = netif_get_by_index(pcb->netif_idx);
 2557              		.loc 1 1086 10 is_stmt 0 discriminator 1 view .LVU704
 2558 001a 007A     		ldrb	r0, [r0, #8]	@ zero_extendqisi2
 2559              	.LVL247:
1086:c:/Users/Black_Life/STM32Cube/Repository/STM32Cube_FW_F4_V1.26.2/Middlewares/Third_Party/LwIP/src/core\tcp.c ****     netif = netif_get_by_index(pcb->netif_idx);
 2560              		.loc 1 1086 6 discriminator 1 view .LVU705
 2561 001c 0028     		cmp	r0, #0
 2562 001e 64D0     		beq	.L256
1087:c:/Users/Black_Life/STM32Cube/Repository/STM32Cube_FW_F4_V1.26.2/Middlewares/Third_Party/LwIP/src/core\tcp.c ****   } else {
 2563              		.loc 1 1087 5 is_stmt 1 view .LVU706
1087:c:/Users/Black_Life/STM32Cube/Repository/STM32Cube_FW_F4_V1.26.2/Middlewares/Third_Party/LwIP/src/core\tcp.c ****   } else {
 2564              		.loc 1 1087 13 is_stmt 0 view .LVU707
 2565 0020 FFF7FEFF 		bl	netif_get_by_index
 2566              	.LVL248:
1087:c:/Users/Black_Life/STM32Cube/Repository/STM32Cube_FW_F4_V1.26.2/Middlewares/Third_Party/LwIP/src/core\tcp.c ****   } else {
 2567              		.loc 1 1087 13 view .LVU708
 2568 0024 0546     		mov	r5, r0
 2569              	.LVL249:
 2570              	.L257:
1092:c:/Users/Black_Life/STM32Cube/Repository/STM32Cube_FW_F4_V1.26.2/Middlewares/Third_Party/LwIP/src/core\tcp.c ****     /* Don't even try to send a SYN packet if we have no route since that will fail. */
 2571              		.loc 1 1092 3 is_stmt 1 view .LVU709
1092:c:/Users/Black_Life/STM32Cube/Repository/STM32Cube_FW_F4_V1.26.2/Middlewares/Third_Party/LwIP/src/core\tcp.c ****     /* Don't even try to send a SYN packet if we have no route since that will fail. */
 2572              		.loc 1 1092 6 is_stmt 0 view .LVU710
 2573 0026 002D     		cmp	r5, #0
 2574 0028 7AD0     		beq	.L265
1098:c:/Users/Black_Life/STM32Cube/Repository/STM32Cube_FW_F4_V1.26.2/Middlewares/Third_Party/LwIP/src/core\tcp.c ****     const ip_addr_t *local_ip = ip_netif_get_local_ip(netif, ipaddr);
 2575              		.loc 1 1098 3 is_stmt 1 view .LVU711
1098:c:/Users/Black_Life/STM32Cube/Repository/STM32Cube_FW_F4_V1.26.2/Middlewares/Third_Party/LwIP/src/core\tcp.c ****     const ip_addr_t *local_ip = ip_netif_get_local_ip(netif, ipaddr);
 2576              		.loc 1 1098 6 is_stmt 0 view .LVU712
 2577 002a 0CB1     		cbz	r4, .L258
1098:c:/Users/Black_Life/STM32Cube/Repository/STM32Cube_FW_F4_V1.26.2/Middlewares/Third_Party/LwIP/src/core\tcp.c ****     const ip_addr_t *local_ip = ip_netif_get_local_ip(netif, ipaddr);
 2578              		.loc 1 1098 7 discriminator 1 view .LVU713
 2579 002c 2368     		ldr	r3, [r4]
 2580 002e 23B9     		cbnz	r3, .L259
 2581              	.L258:
 2582              	.LBB10:
1099:c:/Users/Black_Life/STM32Cube/Repository/STM32Cube_FW_F4_V1.26.2/Middlewares/Third_Party/LwIP/src/core\tcp.c ****     if (local_ip == NULL) {
 2583              		.loc 1 1099 5 is_stmt 1 discriminator 1 view .LVU714
 2584              	.LVL250:
1100:c:/Users/Black_Life/STM32Cube/Repository/STM32Cube_FW_F4_V1.26.2/Middlewares/Third_Party/LwIP/src/core\tcp.c ****       return ERR_RTE;
 2585              		.loc 1 1100 5 discriminator 1 view .LVU715
1100:c:/Users/Black_Life/STM32Cube/Repository/STM32Cube_FW_F4_V1.26.2/Middlewares/Third_Party/LwIP/src/core\tcp.c ****       return ERR_RTE;
 2586              		.loc 1 1100 8 is_stmt 0 discriminator 1 view .LVU716
 2587 0030 15F1040F 		cmn	r5, #4
 2588 0034 77D0     		beq	.L266
1103:c:/Users/Black_Life/STM32Cube/Repository/STM32Cube_FW_F4_V1.26.2/Middlewares/Third_Party/LwIP/src/core\tcp.c ****   }
 2589              		.loc 1 1103 5 is_stmt 1 view .LVU717
 2590 0036 6B68     		ldr	r3, [r5, #4]
 2591 0038 2360     		str	r3, [r4]
 2592              	.LVL251:
 2593              	.L259:
1103:c:/Users/Black_Life/STM32Cube/Repository/STM32Cube_FW_F4_V1.26.2/Middlewares/Third_Party/LwIP/src/core\tcp.c ****   }
 2594              		.loc 1 1103 5 is_stmt 0 view .LVU718
 2595              	.LBE10:
ARM GAS  C:\Users\BLACK_~1\AppData\Local\Temp\ccRovO0r.s 			page 98


1115:c:/Users/Black_Life/STM32Cube/Repository/STM32Cube_FW_F4_V1.26.2/Middlewares/Third_Party/LwIP/src/core\tcp.c ****   if (pcb->local_port == 0) {
 2596              		.loc 1 1115 3 is_stmt 1 view .LVU719
1115:c:/Users/Black_Life/STM32Cube/Repository/STM32Cube_FW_F4_V1.26.2/Middlewares/Third_Party/LwIP/src/core\tcp.c ****   if (pcb->local_port == 0) {
 2597              		.loc 1 1115 18 is_stmt 0 view .LVU720
 2598 003a E78A     		ldrh	r7, [r4, #22]
 2599              	.LVL252:
1116:c:/Users/Black_Life/STM32Cube/Repository/STM32Cube_FW_F4_V1.26.2/Middlewares/Third_Party/LwIP/src/core\tcp.c ****     pcb->local_port = tcp_new_port();
 2600              		.loc 1 1116 3 is_stmt 1 view .LVU721
1116:c:/Users/Black_Life/STM32Cube/Repository/STM32Cube_FW_F4_V1.26.2/Middlewares/Third_Party/LwIP/src/core\tcp.c ****     pcb->local_port = tcp_new_port();
 2601              		.loc 1 1116 6 is_stmt 0 view .LVU722
 2602 003c 27B9     		cbnz	r7, .L260
1117:c:/Users/Black_Life/STM32Cube/Repository/STM32Cube_FW_F4_V1.26.2/Middlewares/Third_Party/LwIP/src/core\tcp.c ****     if (pcb->local_port == 0) {
 2603              		.loc 1 1117 5 is_stmt 1 view .LVU723
1117:c:/Users/Black_Life/STM32Cube/Repository/STM32Cube_FW_F4_V1.26.2/Middlewares/Third_Party/LwIP/src/core\tcp.c ****     if (pcb->local_port == 0) {
 2604              		.loc 1 1117 23 is_stmt 0 view .LVU724
 2605 003e FFF7FEFF 		bl	tcp_new_port
 2606              	.LVL253:
1117:c:/Users/Black_Life/STM32Cube/Repository/STM32Cube_FW_F4_V1.26.2/Middlewares/Third_Party/LwIP/src/core\tcp.c ****     if (pcb->local_port == 0) {
 2607              		.loc 1 1117 21 view .LVU725
 2608 0042 E082     		strh	r0, [r4, #22]	@ movhi
1118:c:/Users/Black_Life/STM32Cube/Repository/STM32Cube_FW_F4_V1.26.2/Middlewares/Third_Party/LwIP/src/core\tcp.c ****       return ERR_BUF;
 2609              		.loc 1 1118 5 is_stmt 1 view .LVU726
1118:c:/Users/Black_Life/STM32Cube/Repository/STM32Cube_FW_F4_V1.26.2/Middlewares/Third_Party/LwIP/src/core\tcp.c ****       return ERR_BUF;
 2610              		.loc 1 1118 8 is_stmt 0 view .LVU727
 2611 0044 0028     		cmp	r0, #0
 2612 0046 71D0     		beq	.L267
 2613              	.L260:
1142:c:/Users/Black_Life/STM32Cube/Repository/STM32Cube_FW_F4_V1.26.2/Middlewares/Third_Party/LwIP/src/core\tcp.c **** 
 2614              		.loc 1 1142 3 is_stmt 1 view .LVU728
1144:c:/Users/Black_Life/STM32Cube/Repository/STM32Cube_FW_F4_V1.26.2/Middlewares/Third_Party/LwIP/src/core\tcp.c ****   pcb->rcv_nxt = 0;
 2615              		.loc 1 1144 3 view .LVU729
1144:c:/Users/Black_Life/STM32Cube/Repository/STM32Cube_FW_F4_V1.26.2/Middlewares/Third_Party/LwIP/src/core\tcp.c ****   pcb->rcv_nxt = 0;
 2616              		.loc 1 1144 9 is_stmt 0 view .LVU730
 2617 0048 2046     		mov	r0, r4
 2618 004a FFF7FEFF 		bl	tcp_next_iss
 2619              	.LVL254:
1145:c:/Users/Black_Life/STM32Cube/Repository/STM32Cube_FW_F4_V1.26.2/Middlewares/Third_Party/LwIP/src/core\tcp.c ****   pcb->snd_nxt = iss;
 2620              		.loc 1 1145 3 is_stmt 1 view .LVU731
1145:c:/Users/Black_Life/STM32Cube/Repository/STM32Cube_FW_F4_V1.26.2/Middlewares/Third_Party/LwIP/src/core\tcp.c ****   pcb->snd_nxt = iss;
 2621              		.loc 1 1145 16 is_stmt 0 view .LVU732
 2622 004e 0021     		movs	r1, #0
 2623 0050 6162     		str	r1, [r4, #36]
1146:c:/Users/Black_Life/STM32Cube/Repository/STM32Cube_FW_F4_V1.26.2/Middlewares/Third_Party/LwIP/src/core\tcp.c ****   pcb->lastack = iss - 1;
 2624              		.loc 1 1146 3 is_stmt 1 view .LVU733
1146:c:/Users/Black_Life/STM32Cube/Repository/STM32Cube_FW_F4_V1.26.2/Middlewares/Third_Party/LwIP/src/core\tcp.c ****   pcb->lastack = iss - 1;
 2625              		.loc 1 1146 16 is_stmt 0 view .LVU734
 2626 0052 2065     		str	r0, [r4, #80]
1147:c:/Users/Black_Life/STM32Cube/Repository/STM32Cube_FW_F4_V1.26.2/Middlewares/Third_Party/LwIP/src/core\tcp.c ****   pcb->snd_wl2 = iss - 1;
 2627              		.loc 1 1147 3 is_stmt 1 view .LVU735
1147:c:/Users/Black_Life/STM32Cube/Repository/STM32Cube_FW_F4_V1.26.2/Middlewares/Third_Party/LwIP/src/core\tcp.c ****   pcb->snd_wl2 = iss - 1;
 2628              		.loc 1 1147 22 is_stmt 0 view .LVU736
 2629 0054 0138     		subs	r0, r0, #1
 2630              	.LVL255:
1147:c:/Users/Black_Life/STM32Cube/Repository/STM32Cube_FW_F4_V1.26.2/Middlewares/Third_Party/LwIP/src/core\tcp.c ****   pcb->snd_wl2 = iss - 1;
 2631              		.loc 1 1147 16 view .LVU737
 2632 0056 6064     		str	r0, [r4, #68]
1148:c:/Users/Black_Life/STM32Cube/Repository/STM32Cube_FW_F4_V1.26.2/Middlewares/Third_Party/LwIP/src/core\tcp.c ****   pcb->snd_lbb = iss - 1;
ARM GAS  C:\Users\BLACK_~1\AppData\Local\Temp\ccRovO0r.s 			page 99


 2633              		.loc 1 1148 3 is_stmt 1 view .LVU738
1148:c:/Users/Black_Life/STM32Cube/Repository/STM32Cube_FW_F4_V1.26.2/Middlewares/Third_Party/LwIP/src/core\tcp.c ****   pcb->snd_lbb = iss - 1;
 2634              		.loc 1 1148 16 is_stmt 0 view .LVU739
 2635 0058 A065     		str	r0, [r4, #88]
1149:c:/Users/Black_Life/STM32Cube/Repository/STM32Cube_FW_F4_V1.26.2/Middlewares/Third_Party/LwIP/src/core\tcp.c ****   /* Start with a window that does not need scaling. When window scaling is
 2636              		.loc 1 1149 3 is_stmt 1 view .LVU740
1149:c:/Users/Black_Life/STM32Cube/Repository/STM32Cube_FW_F4_V1.26.2/Middlewares/Third_Party/LwIP/src/core\tcp.c ****   /* Start with a window that does not need scaling. When window scaling is
 2637              		.loc 1 1149 16 is_stmt 0 view .LVU741
 2638 005a E065     		str	r0, [r4, #92]
1152:c:/Users/Black_Life/STM32Cube/Repository/STM32Cube_FW_F4_V1.26.2/Middlewares/Third_Party/LwIP/src/core\tcp.c ****   pcb->rcv_ann_right_edge = pcb->rcv_nxt;
 2639              		.loc 1 1152 3 is_stmt 1 view .LVU742
1152:c:/Users/Black_Life/STM32Cube/Repository/STM32Cube_FW_F4_V1.26.2/Middlewares/Third_Party/LwIP/src/core\tcp.c ****   pcb->rcv_ann_right_edge = pcb->rcv_nxt;
 2640              		.loc 1 1152 35 is_stmt 0 view .LVU743
 2641 005c 4FF40663 		mov	r3, #2144
 2642 0060 6385     		strh	r3, [r4, #42]	@ movhi
1152:c:/Users/Black_Life/STM32Cube/Repository/STM32Cube_FW_F4_V1.26.2/Middlewares/Third_Party/LwIP/src/core\tcp.c ****   pcb->rcv_ann_right_edge = pcb->rcv_nxt;
 2643              		.loc 1 1152 16 view .LVU744
 2644 0062 2385     		strh	r3, [r4, #40]	@ movhi
1153:c:/Users/Black_Life/STM32Cube/Repository/STM32Cube_FW_F4_V1.26.2/Middlewares/Third_Party/LwIP/src/core\tcp.c ****   pcb->snd_wnd = TCP_WND;
 2645              		.loc 1 1153 3 is_stmt 1 view .LVU745
1153:c:/Users/Black_Life/STM32Cube/Repository/STM32Cube_FW_F4_V1.26.2/Middlewares/Third_Party/LwIP/src/core\tcp.c ****   pcb->snd_wnd = TCP_WND;
 2646              		.loc 1 1153 27 is_stmt 0 view .LVU746
 2647 0064 E162     		str	r1, [r4, #44]
1154:c:/Users/Black_Life/STM32Cube/Repository/STM32Cube_FW_F4_V1.26.2/Middlewares/Third_Party/LwIP/src/core\tcp.c ****   /* As initial send MSS, we use TCP_MSS but limit it to 536.
 2648              		.loc 1 1154 3 is_stmt 1 view .LVU747
1154:c:/Users/Black_Life/STM32Cube/Repository/STM32Cube_FW_F4_V1.26.2/Middlewares/Third_Party/LwIP/src/core\tcp.c ****   /* As initial send MSS, we use TCP_MSS but limit it to 536.
 2649              		.loc 1 1154 16 is_stmt 0 view .LVU748
 2650 0066 A4F86030 		strh	r3, [r4, #96]	@ movhi
1157:c:/Users/Black_Life/STM32Cube/Repository/STM32Cube_FW_F4_V1.26.2/Middlewares/Third_Party/LwIP/src/core\tcp.c **** #if TCP_CALCULATE_EFF_SEND_MSS
 2651              		.loc 1 1157 3 is_stmt 1 view .LVU749
1157:c:/Users/Black_Life/STM32Cube/Repository/STM32Cube_FW_F4_V1.26.2/Middlewares/Third_Party/LwIP/src/core\tcp.c **** #if TCP_CALCULATE_EFF_SEND_MSS
 2652              		.loc 1 1157 12 is_stmt 0 view .LVU750
 2653 006a 4FF40670 		mov	r0, #536
 2654 006e 6086     		strh	r0, [r4, #50]	@ movhi
1159:c:/Users/Black_Life/STM32Cube/Repository/STM32Cube_FW_F4_V1.26.2/Middlewares/Third_Party/LwIP/src/core\tcp.c **** #endif /* TCP_CALCULATE_EFF_SEND_MSS */
 2655              		.loc 1 1159 3 is_stmt 1 view .LVU751
1159:c:/Users/Black_Life/STM32Cube/Repository/STM32Cube_FW_F4_V1.26.2/Middlewares/Third_Party/LwIP/src/core\tcp.c **** #endif /* TCP_CALCULATE_EFF_SEND_MSS */
 2656              		.loc 1 1159 14 is_stmt 0 view .LVU752
 2657 0070 221D     		adds	r2, r4, #4
 2658 0072 2946     		mov	r1, r5
 2659 0074 FFF7FEFF 		bl	tcp_eff_send_mss_netif
 2660              	.LVL256:
1159:c:/Users/Black_Life/STM32Cube/Repository/STM32Cube_FW_F4_V1.26.2/Middlewares/Third_Party/LwIP/src/core\tcp.c **** #endif /* TCP_CALCULATE_EFF_SEND_MSS */
 2661              		.loc 1 1159 12 view .LVU753
 2662 0078 6086     		strh	r0, [r4, #50]	@ movhi
1161:c:/Users/Black_Life/STM32Cube/Repository/STM32Cube_FW_F4_V1.26.2/Middlewares/Third_Party/LwIP/src/core\tcp.c **** #if LWIP_CALLBACK_API
 2663              		.loc 1 1161 3 is_stmt 1 view .LVU754
1161:c:/Users/Black_Life/STM32Cube/Repository/STM32Cube_FW_F4_V1.26.2/Middlewares/Third_Party/LwIP/src/core\tcp.c **** #if LWIP_CALLBACK_API
 2664              		.loc 1 1161 13 is_stmt 0 view .LVU755
 2665 007a 0123     		movs	r3, #1
 2666 007c A4F84830 		strh	r3, [r4, #72]	@ movhi
1163:c:/Users/Black_Life/STM32Cube/Repository/STM32Cube_FW_F4_V1.26.2/Middlewares/Third_Party/LwIP/src/core\tcp.c **** #else /* LWIP_CALLBACK_API */
 2667              		.loc 1 1163 3 is_stmt 1 view .LVU756
1163:c:/Users/Black_Life/STM32Cube/Repository/STM32Cube_FW_F4_V1.26.2/Middlewares/Third_Party/LwIP/src/core\tcp.c **** #else /* LWIP_CALLBACK_API */
 2668              		.loc 1 1163 18 is_stmt 0 view .LVU757
 2669 0080 C4F88860 		str	r6, [r4, #136]
1169:c:/Users/Black_Life/STM32Cube/Repository/STM32Cube_FW_F4_V1.26.2/Middlewares/Third_Party/LwIP/src/core\tcp.c ****   if (ret == ERR_OK) {
ARM GAS  C:\Users\BLACK_~1\AppData\Local\Temp\ccRovO0r.s 			page 100


 2670              		.loc 1 1169 3 is_stmt 1 view .LVU758
1169:c:/Users/Black_Life/STM32Cube/Repository/STM32Cube_FW_F4_V1.26.2/Middlewares/Third_Party/LwIP/src/core\tcp.c ****   if (ret == ERR_OK) {
 2671              		.loc 1 1169 9 is_stmt 0 view .LVU759
 2672 0084 0221     		movs	r1, #2
 2673 0086 2046     		mov	r0, r4
 2674 0088 FFF7FEFF 		bl	tcp_enqueue_flags
 2675              	.LVL257:
1170:c:/Users/Black_Life/STM32Cube/Repository/STM32Cube_FW_F4_V1.26.2/Middlewares/Third_Party/LwIP/src/core\tcp.c ****     /* SYN segment was enqueued, changed the pcbs state now */
 2676              		.loc 1 1170 3 is_stmt 1 view .LVU760
1170:c:/Users/Black_Life/STM32Cube/Repository/STM32Cube_FW_F4_V1.26.2/Middlewares/Third_Party/LwIP/src/core\tcp.c ****     /* SYN segment was enqueued, changed the pcbs state now */
 2677              		.loc 1 1170 6 is_stmt 0 view .LVU761
 2678 008c 0546     		mov	r5, r0
 2679              	.LVL258:
1170:c:/Users/Black_Life/STM32Cube/Repository/STM32Cube_FW_F4_V1.26.2/Middlewares/Third_Party/LwIP/src/core\tcp.c ****     /* SYN segment was enqueued, changed the pcbs state now */
 2680              		.loc 1 1170 6 view .LVU762
 2681 008e 0028     		cmp	r0, #0
 2682 0090 44D1     		bne	.L253
1172:c:/Users/Black_Life/STM32Cube/Repository/STM32Cube_FW_F4_V1.26.2/Middlewares/Third_Party/LwIP/src/core\tcp.c ****     if (old_local_port != 0) {
 2683              		.loc 1 1172 5 is_stmt 1 view .LVU763
1172:c:/Users/Black_Life/STM32Cube/Repository/STM32Cube_FW_F4_V1.26.2/Middlewares/Third_Party/LwIP/src/core\tcp.c ****     if (old_local_port != 0) {
 2684              		.loc 1 1172 16 is_stmt 0 view .LVU764
 2685 0092 0223     		movs	r3, #2
 2686 0094 2375     		strb	r3, [r4, #20]
1173:c:/Users/Black_Life/STM32Cube/Repository/STM32Cube_FW_F4_V1.26.2/Middlewares/Third_Party/LwIP/src/core\tcp.c ****       TCP_RMV(&tcp_bound_pcbs, pcb);
 2687              		.loc 1 1173 5 is_stmt 1 view .LVU765
1173:c:/Users/Black_Life/STM32Cube/Repository/STM32Cube_FW_F4_V1.26.2/Middlewares/Third_Party/LwIP/src/core\tcp.c ****       TCP_RMV(&tcp_bound_pcbs, pcb);
 2688              		.loc 1 1173 8 is_stmt 0 view .LVU766
 2689 0096 002F     		cmp	r7, #0
 2690 0098 34D0     		beq	.L261
1174:c:/Users/Black_Life/STM32Cube/Repository/STM32Cube_FW_F4_V1.26.2/Middlewares/Third_Party/LwIP/src/core\tcp.c ****     }
 2691              		.loc 1 1174 7 is_stmt 1 view .LVU767
1174:c:/Users/Black_Life/STM32Cube/Repository/STM32Cube_FW_F4_V1.26.2/Middlewares/Third_Party/LwIP/src/core\tcp.c ****     }
 2692              		.loc 1 1174 7 view .LVU768
 2693 009a 264B     		ldr	r3, .L275
 2694 009c 1B68     		ldr	r3, [r3]
 2695 009e A342     		cmp	r3, r4
 2696 00a0 28D0     		beq	.L273
 2697              	.L262:
 2698              	.LVL259:
 2699              	.LBB11:
1174:c:/Users/Black_Life/STM32Cube/Repository/STM32Cube_FW_F4_V1.26.2/Middlewares/Third_Party/LwIP/src/core\tcp.c ****     }
 2700              		.loc 1 1174 7 discriminator 8 view .LVU769
 2701 00a2 6BB3     		cbz	r3, .L263
1174:c:/Users/Black_Life/STM32Cube/Repository/STM32Cube_FW_F4_V1.26.2/Middlewares/Third_Party/LwIP/src/core\tcp.c ****     }
 2702              		.loc 1 1174 7 discriminator 9 view .LVU770
 2703 00a4 DA68     		ldr	r2, [r3, #12]
 2704 00a6 A242     		cmp	r2, r4
 2705 00a8 28D0     		beq	.L274
1174:c:/Users/Black_Life/STM32Cube/Repository/STM32Cube_FW_F4_V1.26.2/Middlewares/Third_Party/LwIP/src/core\tcp.c ****     }
 2706              		.loc 1 1174 7 is_stmt 0 view .LVU771
 2707 00aa 1346     		mov	r3, r2
 2708              	.LVL260:
1174:c:/Users/Black_Life/STM32Cube/Repository/STM32Cube_FW_F4_V1.26.2/Middlewares/Third_Party/LwIP/src/core\tcp.c ****     }
 2709              		.loc 1 1174 7 view .LVU772
 2710 00ac F9E7     		b	.L262
 2711              	.LVL261:
 2712              	.L270:
ARM GAS  C:\Users\BLACK_~1\AppData\Local\Temp\ccRovO0r.s 			page 101


1174:c:/Users/Black_Life/STM32Cube/Repository/STM32Cube_FW_F4_V1.26.2/Middlewares/Third_Party/LwIP/src/core\tcp.c ****     }
 2713              		.loc 1 1174 7 view .LVU773
 2714              	.LBE11:
1077:c:/Users/Black_Life/STM32Cube/Repository/STM32Cube_FW_F4_V1.26.2/Middlewares/Third_Party/LwIP/src/core\tcp.c ****   LWIP_ERROR("tcp_connect: invalid ipaddr", ipaddr != NULL, return ERR_ARG);
 2715              		.loc 1 1077 3 is_stmt 1 discriminator 1 view .LVU774
1077:c:/Users/Black_Life/STM32Cube/Repository/STM32Cube_FW_F4_V1.26.2/Middlewares/Third_Party/LwIP/src/core\tcp.c ****   LWIP_ERROR("tcp_connect: invalid ipaddr", ipaddr != NULL, return ERR_ARG);
 2716              		.loc 1 1077 3 discriminator 1 view .LVU775
 2717 00ae 224B     		ldr	r3, .L275+4
 2718              	.LVL262:
1077:c:/Users/Black_Life/STM32Cube/Repository/STM32Cube_FW_F4_V1.26.2/Middlewares/Third_Party/LwIP/src/core\tcp.c ****   LWIP_ERROR("tcp_connect: invalid ipaddr", ipaddr != NULL, return ERR_ARG);
 2719              		.loc 1 1077 3 is_stmt 0 discriminator 1 view .LVU776
 2720 00b0 40F23542 		movw	r2, #1077
 2721              	.LVL263:
1077:c:/Users/Black_Life/STM32Cube/Repository/STM32Cube_FW_F4_V1.26.2/Middlewares/Third_Party/LwIP/src/core\tcp.c ****   LWIP_ERROR("tcp_connect: invalid ipaddr", ipaddr != NULL, return ERR_ARG);
 2722              		.loc 1 1077 3 discriminator 1 view .LVU777
 2723 00b4 2149     		ldr	r1, .L275+8
 2724              	.LVL264:
1077:c:/Users/Black_Life/STM32Cube/Repository/STM32Cube_FW_F4_V1.26.2/Middlewares/Third_Party/LwIP/src/core\tcp.c ****   LWIP_ERROR("tcp_connect: invalid ipaddr", ipaddr != NULL, return ERR_ARG);
 2725              		.loc 1 1077 3 discriminator 1 view .LVU778
 2726 00b6 2248     		ldr	r0, .L275+12
 2727              	.LVL265:
1077:c:/Users/Black_Life/STM32Cube/Repository/STM32Cube_FW_F4_V1.26.2/Middlewares/Third_Party/LwIP/src/core\tcp.c ****   LWIP_ERROR("tcp_connect: invalid ipaddr", ipaddr != NULL, return ERR_ARG);
 2728              		.loc 1 1077 3 discriminator 1 view .LVU779
 2729 00b8 FFF7FEFF 		bl	printf
 2730              	.LVL266:
1077:c:/Users/Black_Life/STM32Cube/Repository/STM32Cube_FW_F4_V1.26.2/Middlewares/Third_Party/LwIP/src/core\tcp.c ****   LWIP_ERROR("tcp_connect: invalid ipaddr", ipaddr != NULL, return ERR_ARG);
 2731              		.loc 1 1077 3 is_stmt 1 discriminator 1 view .LVU780
1077:c:/Users/Black_Life/STM32Cube/Repository/STM32Cube_FW_F4_V1.26.2/Middlewares/Third_Party/LwIP/src/core\tcp.c ****   LWIP_ERROR("tcp_connect: invalid ipaddr", ipaddr != NULL, return ERR_ARG);
 2732              		.loc 1 1077 3 discriminator 1 view .LVU781
 2733 00bc 6FF00F05 		mvn	r5, #15
 2734 00c0 2CE0     		b	.L253
 2735              	.LVL267:
 2736              	.L271:
1078:c:/Users/Black_Life/STM32Cube/Repository/STM32Cube_FW_F4_V1.26.2/Middlewares/Third_Party/LwIP/src/core\tcp.c **** 
 2737              		.loc 1 1078 3 discriminator 1 view .LVU782
1078:c:/Users/Black_Life/STM32Cube/Repository/STM32Cube_FW_F4_V1.26.2/Middlewares/Third_Party/LwIP/src/core\tcp.c **** 
 2738              		.loc 1 1078 3 discriminator 1 view .LVU783
 2739 00c2 1D4B     		ldr	r3, .L275+4
 2740              	.LVL268:
1078:c:/Users/Black_Life/STM32Cube/Repository/STM32Cube_FW_F4_V1.26.2/Middlewares/Third_Party/LwIP/src/core\tcp.c **** 
 2741              		.loc 1 1078 3 is_stmt 0 discriminator 1 view .LVU784
 2742 00c4 40F23642 		movw	r2, #1078
 2743              	.LVL269:
1078:c:/Users/Black_Life/STM32Cube/Repository/STM32Cube_FW_F4_V1.26.2/Middlewares/Third_Party/LwIP/src/core\tcp.c **** 
 2744              		.loc 1 1078 3 discriminator 1 view .LVU785
 2745 00c8 1E49     		ldr	r1, .L275+16
 2746              	.LVL270:
1078:c:/Users/Black_Life/STM32Cube/Repository/STM32Cube_FW_F4_V1.26.2/Middlewares/Third_Party/LwIP/src/core\tcp.c **** 
 2747              		.loc 1 1078 3 discriminator 1 view .LVU786
 2748 00ca 1D48     		ldr	r0, .L275+12
 2749              	.LVL271:
1078:c:/Users/Black_Life/STM32Cube/Repository/STM32Cube_FW_F4_V1.26.2/Middlewares/Third_Party/LwIP/src/core\tcp.c **** 
 2750              		.loc 1 1078 3 discriminator 1 view .LVU787
 2751 00cc FFF7FEFF 		bl	printf
 2752              	.LVL272:
1078:c:/Users/Black_Life/STM32Cube/Repository/STM32Cube_FW_F4_V1.26.2/Middlewares/Third_Party/LwIP/src/core\tcp.c **** 
 2753              		.loc 1 1078 3 is_stmt 1 discriminator 1 view .LVU788
ARM GAS  C:\Users\BLACK_~1\AppData\Local\Temp\ccRovO0r.s 			page 102


1078:c:/Users/Black_Life/STM32Cube/Repository/STM32Cube_FW_F4_V1.26.2/Middlewares/Third_Party/LwIP/src/core\tcp.c **** 
 2754              		.loc 1 1078 3 discriminator 1 view .LVU789
 2755 00d0 6FF00F05 		mvn	r5, #15
 2756 00d4 22E0     		b	.L253
 2757              	.LVL273:
 2758              	.L272:
1080:c:/Users/Black_Life/STM32Cube/Repository/STM32Cube_FW_F4_V1.26.2/Middlewares/Third_Party/LwIP/src/core\tcp.c **** 
 2759              		.loc 1 1080 3 discriminator 1 view .LVU790
1080:c:/Users/Black_Life/STM32Cube/Repository/STM32Cube_FW_F4_V1.26.2/Middlewares/Third_Party/LwIP/src/core\tcp.c **** 
 2760              		.loc 1 1080 3 discriminator 1 view .LVU791
 2761 00d6 184B     		ldr	r3, .L275+4
 2762 00d8 4FF48762 		mov	r2, #1080
 2763              	.LVL274:
1080:c:/Users/Black_Life/STM32Cube/Repository/STM32Cube_FW_F4_V1.26.2/Middlewares/Third_Party/LwIP/src/core\tcp.c **** 
 2764              		.loc 1 1080 3 is_stmt 0 discriminator 1 view .LVU792
 2765 00dc 1A49     		ldr	r1, .L275+20
 2766              	.LVL275:
1080:c:/Users/Black_Life/STM32Cube/Repository/STM32Cube_FW_F4_V1.26.2/Middlewares/Third_Party/LwIP/src/core\tcp.c **** 
 2767              		.loc 1 1080 3 discriminator 1 view .LVU793
 2768 00de 1848     		ldr	r0, .L275+12
 2769              	.LVL276:
1080:c:/Users/Black_Life/STM32Cube/Repository/STM32Cube_FW_F4_V1.26.2/Middlewares/Third_Party/LwIP/src/core\tcp.c **** 
 2770              		.loc 1 1080 3 discriminator 1 view .LVU794
 2771 00e0 FFF7FEFF 		bl	printf
 2772              	.LVL277:
1080:c:/Users/Black_Life/STM32Cube/Repository/STM32Cube_FW_F4_V1.26.2/Middlewares/Third_Party/LwIP/src/core\tcp.c **** 
 2773              		.loc 1 1080 3 is_stmt 1 discriminator 1 view .LVU795
1080:c:/Users/Black_Life/STM32Cube/Repository/STM32Cube_FW_F4_V1.26.2/Middlewares/Third_Party/LwIP/src/core\tcp.c **** 
 2774              		.loc 1 1080 3 discriminator 1 view .LVU796
 2775 00e4 6FF00905 		mvn	r5, #9
 2776 00e8 18E0     		b	.L253
 2777              	.LVL278:
 2778              	.L256:
1090:c:/Users/Black_Life/STM32Cube/Repository/STM32Cube_FW_F4_V1.26.2/Middlewares/Third_Party/LwIP/src/core\tcp.c ****   }
 2779              		.loc 1 1090 5 view .LVU797
1090:c:/Users/Black_Life/STM32Cube/Repository/STM32Cube_FW_F4_V1.26.2/Middlewares/Third_Party/LwIP/src/core\tcp.c ****   }
 2780              		.loc 1 1090 13 is_stmt 0 view .LVU798
 2781 00ea 201D     		adds	r0, r4, #4
 2782 00ec FFF7FEFF 		bl	ip4_route
 2783              	.LVL279:
1090:c:/Users/Black_Life/STM32Cube/Repository/STM32Cube_FW_F4_V1.26.2/Middlewares/Third_Party/LwIP/src/core\tcp.c ****   }
 2784              		.loc 1 1090 13 view .LVU799
 2785 00f0 0546     		mov	r5, r0
 2786              	.LVL280:
1090:c:/Users/Black_Life/STM32Cube/Repository/STM32Cube_FW_F4_V1.26.2/Middlewares/Third_Party/LwIP/src/core\tcp.c ****   }
 2787              		.loc 1 1090 13 view .LVU800
 2788 00f2 98E7     		b	.L257
 2789              	.LVL281:
 2790              	.L273:
1174:c:/Users/Black_Life/STM32Cube/Repository/STM32Cube_FW_F4_V1.26.2/Middlewares/Third_Party/LwIP/src/core\tcp.c ****     }
 2791              		.loc 1 1174 7 is_stmt 1 discriminator 1 view .LVU801
 2792 00f4 DA68     		ldr	r2, [r3, #12]
 2793 00f6 0F4B     		ldr	r3, .L275
 2794 00f8 1A60     		str	r2, [r3]
 2795 00fa 01E0     		b	.L263
 2796              	.LVL282:
 2797              	.L274:
ARM GAS  C:\Users\BLACK_~1\AppData\Local\Temp\ccRovO0r.s 			page 103


 2798              	.LBB12:
1174:c:/Users/Black_Life/STM32Cube/Repository/STM32Cube_FW_F4_V1.26.2/Middlewares/Third_Party/LwIP/src/core\tcp.c ****     }
 2799              		.loc 1 1174 7 discriminator 5 view .LVU802
 2800 00fc E268     		ldr	r2, [r4, #12]
 2801 00fe DA60     		str	r2, [r3, #12]
1174:c:/Users/Black_Life/STM32Cube/Repository/STM32Cube_FW_F4_V1.26.2/Middlewares/Third_Party/LwIP/src/core\tcp.c ****     }
 2802              		.loc 1 1174 7 discriminator 5 view .LVU803
 2803              	.LVL283:
 2804              	.L263:
1174:c:/Users/Black_Life/STM32Cube/Repository/STM32Cube_FW_F4_V1.26.2/Middlewares/Third_Party/LwIP/src/core\tcp.c ****     }
 2805              		.loc 1 1174 7 is_stmt 0 discriminator 5 view .LVU804
 2806              	.LBE12:
1174:c:/Users/Black_Life/STM32Cube/Repository/STM32Cube_FW_F4_V1.26.2/Middlewares/Third_Party/LwIP/src/core\tcp.c ****     }
 2807              		.loc 1 1174 7 is_stmt 1 discriminator 10 view .LVU805
 2808 0100 0023     		movs	r3, #0
 2809 0102 E360     		str	r3, [r4, #12]
 2810              	.L261:
1174:c:/Users/Black_Life/STM32Cube/Repository/STM32Cube_FW_F4_V1.26.2/Middlewares/Third_Party/LwIP/src/core\tcp.c ****     }
 2811              		.loc 1 1174 7 discriminator 11 view .LVU806
1176:c:/Users/Black_Life/STM32Cube/Repository/STM32Cube_FW_F4_V1.26.2/Middlewares/Third_Party/LwIP/src/core\tcp.c ****     MIB2_STATS_INC(mib2.tcpactiveopens);
 2812              		.loc 1 1176 5 discriminator 11 view .LVU807
1176:c:/Users/Black_Life/STM32Cube/Repository/STM32Cube_FW_F4_V1.26.2/Middlewares/Third_Party/LwIP/src/core\tcp.c ****     MIB2_STATS_INC(mib2.tcpactiveopens);
 2813              		.loc 1 1176 5 discriminator 11 view .LVU808
1176:c:/Users/Black_Life/STM32Cube/Repository/STM32Cube_FW_F4_V1.26.2/Middlewares/Third_Party/LwIP/src/core\tcp.c ****     MIB2_STATS_INC(mib2.tcpactiveopens);
 2814              		.loc 1 1176 5 discriminator 11 view .LVU809
 2815 0104 114B     		ldr	r3, .L275+24
 2816 0106 1A68     		ldr	r2, [r3]
 2817 0108 E260     		str	r2, [r4, #12]
1176:c:/Users/Black_Life/STM32Cube/Repository/STM32Cube_FW_F4_V1.26.2/Middlewares/Third_Party/LwIP/src/core\tcp.c ****     MIB2_STATS_INC(mib2.tcpactiveopens);
 2818              		.loc 1 1176 5 discriminator 11 view .LVU810
 2819 010a 1C60     		str	r4, [r3]
1176:c:/Users/Black_Life/STM32Cube/Repository/STM32Cube_FW_F4_V1.26.2/Middlewares/Third_Party/LwIP/src/core\tcp.c ****     MIB2_STATS_INC(mib2.tcpactiveopens);
 2820              		.loc 1 1176 5 discriminator 11 view .LVU811
 2821 010c FFF7FEFF 		bl	tcp_timer_needed
 2822              	.LVL284:
1176:c:/Users/Black_Life/STM32Cube/Repository/STM32Cube_FW_F4_V1.26.2/Middlewares/Third_Party/LwIP/src/core\tcp.c ****     MIB2_STATS_INC(mib2.tcpactiveopens);
 2823              		.loc 1 1176 5 discriminator 11 view .LVU812
1176:c:/Users/Black_Life/STM32Cube/Repository/STM32Cube_FW_F4_V1.26.2/Middlewares/Third_Party/LwIP/src/core\tcp.c ****     MIB2_STATS_INC(mib2.tcpactiveopens);
 2824              		.loc 1 1176 5 discriminator 11 view .LVU813
 2825 0110 0F4B     		ldr	r3, .L275+28
 2826 0112 0122     		movs	r2, #1
 2827 0114 1A70     		strb	r2, [r3]
1176:c:/Users/Black_Life/STM32Cube/Repository/STM32Cube_FW_F4_V1.26.2/Middlewares/Third_Party/LwIP/src/core\tcp.c ****     MIB2_STATS_INC(mib2.tcpactiveopens);
 2828              		.loc 1 1176 5 discriminator 11 view .LVU814
1177:c:/Users/Black_Life/STM32Cube/Repository/STM32Cube_FW_F4_V1.26.2/Middlewares/Third_Party/LwIP/src/core\tcp.c **** 
 2829              		.loc 1 1177 40 discriminator 11 view .LVU815
1179:c:/Users/Black_Life/STM32Cube/Repository/STM32Cube_FW_F4_V1.26.2/Middlewares/Third_Party/LwIP/src/core\tcp.c ****   }
 2830              		.loc 1 1179 5 discriminator 11 view .LVU816
 2831 0116 2046     		mov	r0, r4
 2832 0118 FFF7FEFF 		bl	tcp_output
 2833              	.LVL285:
 2834              	.L253:
1182:c:/Users/Black_Life/STM32Cube/Repository/STM32Cube_FW_F4_V1.26.2/Middlewares/Third_Party/LwIP/src/core\tcp.c **** 
 2835              		.loc 1 1182 1 is_stmt 0 view .LVU817
 2836 011c 2846     		mov	r0, r5
 2837 011e F8BD     		pop	{r3, r4, r5, r6, r7, pc}
 2838              	.LVL286:
ARM GAS  C:\Users\BLACK_~1\AppData\Local\Temp\ccRovO0r.s 			page 104


 2839              	.L265:
1094:c:/Users/Black_Life/STM32Cube/Repository/STM32Cube_FW_F4_V1.26.2/Middlewares/Third_Party/LwIP/src/core\tcp.c ****   }
 2840              		.loc 1 1094 12 view .LVU818
 2841 0120 6FF00305 		mvn	r5, #3
 2842 0124 FAE7     		b	.L253
 2843              	.LVL287:
 2844              	.L266:
 2845              	.LBB13:
1101:c:/Users/Black_Life/STM32Cube/Repository/STM32Cube_FW_F4_V1.26.2/Middlewares/Third_Party/LwIP/src/core\tcp.c ****     }
 2846              		.loc 1 1101 14 view .LVU819
 2847 0126 6FF00305 		mvn	r5, #3
 2848 012a F7E7     		b	.L253
 2849              	.LVL288:
 2850              	.L267:
1101:c:/Users/Black_Life/STM32Cube/Repository/STM32Cube_FW_F4_V1.26.2/Middlewares/Third_Party/LwIP/src/core\tcp.c ****     }
 2851              		.loc 1 1101 14 view .LVU820
 2852              	.LBE13:
1119:c:/Users/Black_Life/STM32Cube/Repository/STM32Cube_FW_F4_V1.26.2/Middlewares/Third_Party/LwIP/src/core\tcp.c ****     }
 2853              		.loc 1 1119 14 view .LVU821
 2854 012c 6FF00105 		mvn	r5, #1
 2855              	.LVL289:
1119:c:/Users/Black_Life/STM32Cube/Repository/STM32Cube_FW_F4_V1.26.2/Middlewares/Third_Party/LwIP/src/core\tcp.c ****     }
 2856              		.loc 1 1119 14 view .LVU822
 2857 0130 F4E7     		b	.L253
 2858              	.L276:
 2859 0132 00BF     		.align	2
 2860              	.L275:
 2861 0134 00000000 		.word	.LANCHOR3
 2862 0138 00000000 		.word	.LC0
 2863 013c 00000000 		.word	.LC24
 2864 0140 98000000 		.word	.LC2
 2865 0144 1C000000 		.word	.LC25
 2866 0148 38000000 		.word	.LC26
 2867 014c 00000000 		.word	.LANCHOR2
 2868 0150 00000000 		.word	.LANCHOR7
 2869              		.cfi_endproc
 2870              	.LFE176:
 2872              		.section	.text.tcp_debug_state_str,"ax",%progbits
 2873              		.align	1
 2874              		.global	tcp_debug_state_str
 2875              		.syntax unified
 2876              		.thumb
 2877              		.thumb_func
 2879              	tcp_debug_state_str:
 2880              	.LVL290:
 2881              	.LFB205:
2295:c:/Users/Black_Life/STM32Cube/Repository/STM32Cube_FW_F4_V1.26.2/Middlewares/Third_Party/LwIP/src/core\tcp.c **** #endif /* TCP_CALCULATE_EFF_SEND_MSS */
2296:c:/Users/Black_Life/STM32Cube/Repository/STM32Cube_FW_F4_V1.26.2/Middlewares/Third_Party/LwIP/src/core\tcp.c **** 
2297:c:/Users/Black_Life/STM32Cube/Repository/STM32Cube_FW_F4_V1.26.2/Middlewares/Third_Party/LwIP/src/core\tcp.c **** /** Helper function for tcp_netif_ip_addr_changed() that iterates a pcb list */
2298:c:/Users/Black_Life/STM32Cube/Repository/STM32Cube_FW_F4_V1.26.2/Middlewares/Third_Party/LwIP/src/core\tcp.c **** static void
2299:c:/Users/Black_Life/STM32Cube/Repository/STM32Cube_FW_F4_V1.26.2/Middlewares/Third_Party/LwIP/src/core\tcp.c **** tcp_netif_ip_addr_changed_pcblist(const ip_addr_t *old_addr, struct tcp_pcb *pcb_list)
2300:c:/Users/Black_Life/STM32Cube/Repository/STM32Cube_FW_F4_V1.26.2/Middlewares/Third_Party/LwIP/src/core\tcp.c **** {
2301:c:/Users/Black_Life/STM32Cube/Repository/STM32Cube_FW_F4_V1.26.2/Middlewares/Third_Party/LwIP/src/core\tcp.c ****   struct tcp_pcb *pcb;
2302:c:/Users/Black_Life/STM32Cube/Repository/STM32Cube_FW_F4_V1.26.2/Middlewares/Third_Party/LwIP/src/core\tcp.c ****   pcb = pcb_list;
2303:c:/Users/Black_Life/STM32Cube/Repository/STM32Cube_FW_F4_V1.26.2/Middlewares/Third_Party/LwIP/src/core\tcp.c **** 
2304:c:/Users/Black_Life/STM32Cube/Repository/STM32Cube_FW_F4_V1.26.2/Middlewares/Third_Party/LwIP/src/core\tcp.c ****   LWIP_ASSERT("tcp_netif_ip_addr_changed_pcblist: invalid old_addr", old_addr != NULL);
2305:c:/Users/Black_Life/STM32Cube/Repository/STM32Cube_FW_F4_V1.26.2/Middlewares/Third_Party/LwIP/src/core\tcp.c **** 
ARM GAS  C:\Users\BLACK_~1\AppData\Local\Temp\ccRovO0r.s 			page 105


2306:c:/Users/Black_Life/STM32Cube/Repository/STM32Cube_FW_F4_V1.26.2/Middlewares/Third_Party/LwIP/src/core\tcp.c ****   while (pcb != NULL) {
2307:c:/Users/Black_Life/STM32Cube/Repository/STM32Cube_FW_F4_V1.26.2/Middlewares/Third_Party/LwIP/src/core\tcp.c ****     /* PCB bound to current local interface address? */
2308:c:/Users/Black_Life/STM32Cube/Repository/STM32Cube_FW_F4_V1.26.2/Middlewares/Third_Party/LwIP/src/core\tcp.c ****     if (ip_addr_cmp(&pcb->local_ip, old_addr)
2309:c:/Users/Black_Life/STM32Cube/Repository/STM32Cube_FW_F4_V1.26.2/Middlewares/Third_Party/LwIP/src/core\tcp.c **** #if LWIP_AUTOIP
2310:c:/Users/Black_Life/STM32Cube/Repository/STM32Cube_FW_F4_V1.26.2/Middlewares/Third_Party/LwIP/src/core\tcp.c ****         /* connections to link-local addresses must persist (RFC3927 ch. 1.9) */
2311:c:/Users/Black_Life/STM32Cube/Repository/STM32Cube_FW_F4_V1.26.2/Middlewares/Third_Party/LwIP/src/core\tcp.c ****         && (!IP_IS_V4_VAL(pcb->local_ip) || !ip4_addr_islinklocal(ip_2_ip4(&pcb->local_ip)))
2312:c:/Users/Black_Life/STM32Cube/Repository/STM32Cube_FW_F4_V1.26.2/Middlewares/Third_Party/LwIP/src/core\tcp.c **** #endif /* LWIP_AUTOIP */
2313:c:/Users/Black_Life/STM32Cube/Repository/STM32Cube_FW_F4_V1.26.2/Middlewares/Third_Party/LwIP/src/core\tcp.c ****        ) {
2314:c:/Users/Black_Life/STM32Cube/Repository/STM32Cube_FW_F4_V1.26.2/Middlewares/Third_Party/LwIP/src/core\tcp.c ****       /* this connection must be aborted */
2315:c:/Users/Black_Life/STM32Cube/Repository/STM32Cube_FW_F4_V1.26.2/Middlewares/Third_Party/LwIP/src/core\tcp.c ****       struct tcp_pcb *next = pcb->next;
2316:c:/Users/Black_Life/STM32Cube/Repository/STM32Cube_FW_F4_V1.26.2/Middlewares/Third_Party/LwIP/src/core\tcp.c ****       LWIP_DEBUGF(NETIF_DEBUG | LWIP_DBG_STATE, ("netif_set_ipaddr: aborting TCP pcb %p\n", (void *
2317:c:/Users/Black_Life/STM32Cube/Repository/STM32Cube_FW_F4_V1.26.2/Middlewares/Third_Party/LwIP/src/core\tcp.c ****       tcp_abort(pcb);
2318:c:/Users/Black_Life/STM32Cube/Repository/STM32Cube_FW_F4_V1.26.2/Middlewares/Third_Party/LwIP/src/core\tcp.c ****       pcb = next;
2319:c:/Users/Black_Life/STM32Cube/Repository/STM32Cube_FW_F4_V1.26.2/Middlewares/Third_Party/LwIP/src/core\tcp.c ****     } else {
2320:c:/Users/Black_Life/STM32Cube/Repository/STM32Cube_FW_F4_V1.26.2/Middlewares/Third_Party/LwIP/src/core\tcp.c ****       pcb = pcb->next;
2321:c:/Users/Black_Life/STM32Cube/Repository/STM32Cube_FW_F4_V1.26.2/Middlewares/Third_Party/LwIP/src/core\tcp.c ****     }
2322:c:/Users/Black_Life/STM32Cube/Repository/STM32Cube_FW_F4_V1.26.2/Middlewares/Third_Party/LwIP/src/core\tcp.c ****   }
2323:c:/Users/Black_Life/STM32Cube/Repository/STM32Cube_FW_F4_V1.26.2/Middlewares/Third_Party/LwIP/src/core\tcp.c **** }
2324:c:/Users/Black_Life/STM32Cube/Repository/STM32Cube_FW_F4_V1.26.2/Middlewares/Third_Party/LwIP/src/core\tcp.c **** 
2325:c:/Users/Black_Life/STM32Cube/Repository/STM32Cube_FW_F4_V1.26.2/Middlewares/Third_Party/LwIP/src/core\tcp.c **** /** This function is called from netif.c when address is changed or netif is removed
2326:c:/Users/Black_Life/STM32Cube/Repository/STM32Cube_FW_F4_V1.26.2/Middlewares/Third_Party/LwIP/src/core\tcp.c ****  *
2327:c:/Users/Black_Life/STM32Cube/Repository/STM32Cube_FW_F4_V1.26.2/Middlewares/Third_Party/LwIP/src/core\tcp.c ****  * @param old_addr IP address of the netif before change
2328:c:/Users/Black_Life/STM32Cube/Repository/STM32Cube_FW_F4_V1.26.2/Middlewares/Third_Party/LwIP/src/core\tcp.c ****  * @param new_addr IP address of the netif after change or NULL if netif has been removed
2329:c:/Users/Black_Life/STM32Cube/Repository/STM32Cube_FW_F4_V1.26.2/Middlewares/Third_Party/LwIP/src/core\tcp.c ****  */
2330:c:/Users/Black_Life/STM32Cube/Repository/STM32Cube_FW_F4_V1.26.2/Middlewares/Third_Party/LwIP/src/core\tcp.c **** void
2331:c:/Users/Black_Life/STM32Cube/Repository/STM32Cube_FW_F4_V1.26.2/Middlewares/Third_Party/LwIP/src/core\tcp.c **** tcp_netif_ip_addr_changed(const ip_addr_t *old_addr, const ip_addr_t *new_addr)
2332:c:/Users/Black_Life/STM32Cube/Repository/STM32Cube_FW_F4_V1.26.2/Middlewares/Third_Party/LwIP/src/core\tcp.c **** {
2333:c:/Users/Black_Life/STM32Cube/Repository/STM32Cube_FW_F4_V1.26.2/Middlewares/Third_Party/LwIP/src/core\tcp.c ****   struct tcp_pcb_listen *lpcb;
2334:c:/Users/Black_Life/STM32Cube/Repository/STM32Cube_FW_F4_V1.26.2/Middlewares/Third_Party/LwIP/src/core\tcp.c **** 
2335:c:/Users/Black_Life/STM32Cube/Repository/STM32Cube_FW_F4_V1.26.2/Middlewares/Third_Party/LwIP/src/core\tcp.c ****   if (!ip_addr_isany(old_addr)) {
2336:c:/Users/Black_Life/STM32Cube/Repository/STM32Cube_FW_F4_V1.26.2/Middlewares/Third_Party/LwIP/src/core\tcp.c ****     tcp_netif_ip_addr_changed_pcblist(old_addr, tcp_active_pcbs);
2337:c:/Users/Black_Life/STM32Cube/Repository/STM32Cube_FW_F4_V1.26.2/Middlewares/Third_Party/LwIP/src/core\tcp.c ****     tcp_netif_ip_addr_changed_pcblist(old_addr, tcp_bound_pcbs);
2338:c:/Users/Black_Life/STM32Cube/Repository/STM32Cube_FW_F4_V1.26.2/Middlewares/Third_Party/LwIP/src/core\tcp.c **** 
2339:c:/Users/Black_Life/STM32Cube/Repository/STM32Cube_FW_F4_V1.26.2/Middlewares/Third_Party/LwIP/src/core\tcp.c ****     if (!ip_addr_isany(new_addr)) {
2340:c:/Users/Black_Life/STM32Cube/Repository/STM32Cube_FW_F4_V1.26.2/Middlewares/Third_Party/LwIP/src/core\tcp.c ****       /* PCB bound to current local interface address? */
2341:c:/Users/Black_Life/STM32Cube/Repository/STM32Cube_FW_F4_V1.26.2/Middlewares/Third_Party/LwIP/src/core\tcp.c ****       for (lpcb = tcp_listen_pcbs.listen_pcbs; lpcb != NULL; lpcb = lpcb->next) {
2342:c:/Users/Black_Life/STM32Cube/Repository/STM32Cube_FW_F4_V1.26.2/Middlewares/Third_Party/LwIP/src/core\tcp.c ****         /* PCB bound to current local interface address? */
2343:c:/Users/Black_Life/STM32Cube/Repository/STM32Cube_FW_F4_V1.26.2/Middlewares/Third_Party/LwIP/src/core\tcp.c ****         if (ip_addr_cmp(&lpcb->local_ip, old_addr)) {
2344:c:/Users/Black_Life/STM32Cube/Repository/STM32Cube_FW_F4_V1.26.2/Middlewares/Third_Party/LwIP/src/core\tcp.c ****           /* The PCB is listening to the old ipaddr and
2345:c:/Users/Black_Life/STM32Cube/Repository/STM32Cube_FW_F4_V1.26.2/Middlewares/Third_Party/LwIP/src/core\tcp.c ****             * is set to listen to the new one instead */
2346:c:/Users/Black_Life/STM32Cube/Repository/STM32Cube_FW_F4_V1.26.2/Middlewares/Third_Party/LwIP/src/core\tcp.c ****           ip_addr_copy(lpcb->local_ip, *new_addr);
2347:c:/Users/Black_Life/STM32Cube/Repository/STM32Cube_FW_F4_V1.26.2/Middlewares/Third_Party/LwIP/src/core\tcp.c ****         }
2348:c:/Users/Black_Life/STM32Cube/Repository/STM32Cube_FW_F4_V1.26.2/Middlewares/Third_Party/LwIP/src/core\tcp.c ****       }
2349:c:/Users/Black_Life/STM32Cube/Repository/STM32Cube_FW_F4_V1.26.2/Middlewares/Third_Party/LwIP/src/core\tcp.c ****     }
2350:c:/Users/Black_Life/STM32Cube/Repository/STM32Cube_FW_F4_V1.26.2/Middlewares/Third_Party/LwIP/src/core\tcp.c ****   }
2351:c:/Users/Black_Life/STM32Cube/Repository/STM32Cube_FW_F4_V1.26.2/Middlewares/Third_Party/LwIP/src/core\tcp.c **** }
2352:c:/Users/Black_Life/STM32Cube/Repository/STM32Cube_FW_F4_V1.26.2/Middlewares/Third_Party/LwIP/src/core\tcp.c **** 
2353:c:/Users/Black_Life/STM32Cube/Repository/STM32Cube_FW_F4_V1.26.2/Middlewares/Third_Party/LwIP/src/core\tcp.c **** const char *
2354:c:/Users/Black_Life/STM32Cube/Repository/STM32Cube_FW_F4_V1.26.2/Middlewares/Third_Party/LwIP/src/core\tcp.c **** tcp_debug_state_str(enum tcp_state s)
2355:c:/Users/Black_Life/STM32Cube/Repository/STM32Cube_FW_F4_V1.26.2/Middlewares/Third_Party/LwIP/src/core\tcp.c **** {
 2882              		.loc 1 2355 1 is_stmt 1 view -0
 2883              		.cfi_startproc
 2884              		@ args = 0, pretend = 0, frame = 0
 2885              		@ frame_needed = 0, uses_anonymous_args = 0
 2886              		@ link register save eliminated.
2356:c:/Users/Black_Life/STM32Cube/Repository/STM32Cube_FW_F4_V1.26.2/Middlewares/Third_Party/LwIP/src/core\tcp.c ****   return tcp_state_str[s];
 2887              		.loc 1 2356 3 view .LVU824
ARM GAS  C:\Users\BLACK_~1\AppData\Local\Temp\ccRovO0r.s 			page 106


2357:c:/Users/Black_Life/STM32Cube/Repository/STM32Cube_FW_F4_V1.26.2/Middlewares/Third_Party/LwIP/src/core\tcp.c **** }
 2888              		.loc 1 2357 1 is_stmt 0 view .LVU825
 2889 0000 014B     		ldr	r3, .L278
 2890 0002 53F82000 		ldr	r0, [r3, r0, lsl #2]
 2891              	.LVL291:
 2892              		.loc 1 2357 1 view .LVU826
 2893 0006 7047     		bx	lr
 2894              	.L279:
 2895              		.align	2
 2896              	.L278:
 2897 0008 00000000 		.word	.LANCHOR8
 2898              		.cfi_endproc
 2899              	.LFE205:
 2901              		.section	.text.tcp_tcp_get_tcp_addrinfo,"ax",%progbits
 2902              		.align	1
 2903              		.global	tcp_tcp_get_tcp_addrinfo
 2904              		.syntax unified
 2905              		.thumb
 2906              		.thumb_func
 2908              	tcp_tcp_get_tcp_addrinfo:
 2909              	.LVL292:
 2910              	.LFB206:
2358:c:/Users/Black_Life/STM32Cube/Repository/STM32Cube_FW_F4_V1.26.2/Middlewares/Third_Party/LwIP/src/core\tcp.c **** 
2359:c:/Users/Black_Life/STM32Cube/Repository/STM32Cube_FW_F4_V1.26.2/Middlewares/Third_Party/LwIP/src/core\tcp.c **** err_t
2360:c:/Users/Black_Life/STM32Cube/Repository/STM32Cube_FW_F4_V1.26.2/Middlewares/Third_Party/LwIP/src/core\tcp.c **** tcp_tcp_get_tcp_addrinfo(struct tcp_pcb *pcb, int local, ip_addr_t *addr, u16_t *port)
2361:c:/Users/Black_Life/STM32Cube/Repository/STM32Cube_FW_F4_V1.26.2/Middlewares/Third_Party/LwIP/src/core\tcp.c **** {
 2911              		.loc 1 2361 1 is_stmt 1 view -0
 2912              		.cfi_startproc
 2913              		@ args = 0, pretend = 0, frame = 0
 2914              		@ frame_needed = 0, uses_anonymous_args = 0
 2915              		@ link register save eliminated.
2362:c:/Users/Black_Life/STM32Cube/Repository/STM32Cube_FW_F4_V1.26.2/Middlewares/Third_Party/LwIP/src/core\tcp.c ****   if (pcb) {
 2916              		.loc 1 2362 3 view .LVU828
 2917              		.loc 1 2362 6 is_stmt 0 view .LVU829
 2918 0000 8446     		mov	ip, r0
 2919 0002 90B1     		cbz	r0, .L286
2363:c:/Users/Black_Life/STM32Cube/Repository/STM32Cube_FW_F4_V1.26.2/Middlewares/Third_Party/LwIP/src/core\tcp.c ****     if (local) {
 2920              		.loc 1 2363 5 is_stmt 1 view .LVU830
 2921              		.loc 1 2363 8 is_stmt 0 view .LVU831
 2922 0004 41B1     		cbz	r1, .L282
2364:c:/Users/Black_Life/STM32Cube/Repository/STM32Cube_FW_F4_V1.26.2/Middlewares/Third_Party/LwIP/src/core\tcp.c ****       if (addr) {
 2923              		.loc 1 2364 7 is_stmt 1 view .LVU832
 2924              		.loc 1 2364 10 is_stmt 0 view .LVU833
 2925 0006 0AB1     		cbz	r2, .L283
2365:c:/Users/Black_Life/STM32Cube/Repository/STM32Cube_FW_F4_V1.26.2/Middlewares/Third_Party/LwIP/src/core\tcp.c ****         *addr = pcb->local_ip;
 2926              		.loc 1 2365 9 is_stmt 1 view .LVU834
 2927              		.loc 1 2365 15 is_stmt 0 view .LVU835
 2928 0008 0168     		ldr	r1, [r0]
 2929              	.LVL293:
 2930              		.loc 1 2365 15 view .LVU836
 2931 000a 1160     		str	r1, [r2]
 2932              	.L283:
2366:c:/Users/Black_Life/STM32Cube/Repository/STM32Cube_FW_F4_V1.26.2/Middlewares/Third_Party/LwIP/src/core\tcp.c ****       }
2367:c:/Users/Black_Life/STM32Cube/Repository/STM32Cube_FW_F4_V1.26.2/Middlewares/Third_Party/LwIP/src/core\tcp.c ****       if (port) {
 2933              		.loc 1 2367 7 is_stmt 1 view .LVU837
 2934              		.loc 1 2367 10 is_stmt 0 view .LVU838
 2935 000c 13B1     		cbz	r3, .L284
ARM GAS  C:\Users\BLACK_~1\AppData\Local\Temp\ccRovO0r.s 			page 107


2368:c:/Users/Black_Life/STM32Cube/Repository/STM32Cube_FW_F4_V1.26.2/Middlewares/Third_Party/LwIP/src/core\tcp.c ****         *port = pcb->local_port;
 2936              		.loc 1 2368 9 is_stmt 1 view .LVU839
 2937              		.loc 1 2368 20 is_stmt 0 view .LVU840
 2938 000e BCF81620 		ldrh	r2, [ip, #22]
 2939              	.LVL294:
 2940              		.loc 1 2368 15 view .LVU841
 2941 0012 1A80     		strh	r2, [r3]	@ movhi
 2942              	.L284:
2369:c:/Users/Black_Life/STM32Cube/Repository/STM32Cube_FW_F4_V1.26.2/Middlewares/Third_Party/LwIP/src/core\tcp.c ****       }
2370:c:/Users/Black_Life/STM32Cube/Repository/STM32Cube_FW_F4_V1.26.2/Middlewares/Third_Party/LwIP/src/core\tcp.c ****     } else {
2371:c:/Users/Black_Life/STM32Cube/Repository/STM32Cube_FW_F4_V1.26.2/Middlewares/Third_Party/LwIP/src/core\tcp.c ****       if (addr) {
2372:c:/Users/Black_Life/STM32Cube/Repository/STM32Cube_FW_F4_V1.26.2/Middlewares/Third_Party/LwIP/src/core\tcp.c ****         *addr = pcb->remote_ip;
2373:c:/Users/Black_Life/STM32Cube/Repository/STM32Cube_FW_F4_V1.26.2/Middlewares/Third_Party/LwIP/src/core\tcp.c ****       }
2374:c:/Users/Black_Life/STM32Cube/Repository/STM32Cube_FW_F4_V1.26.2/Middlewares/Third_Party/LwIP/src/core\tcp.c ****       if (port) {
2375:c:/Users/Black_Life/STM32Cube/Repository/STM32Cube_FW_F4_V1.26.2/Middlewares/Third_Party/LwIP/src/core\tcp.c ****         *port = pcb->remote_port;
2376:c:/Users/Black_Life/STM32Cube/Repository/STM32Cube_FW_F4_V1.26.2/Middlewares/Third_Party/LwIP/src/core\tcp.c ****       }
2377:c:/Users/Black_Life/STM32Cube/Repository/STM32Cube_FW_F4_V1.26.2/Middlewares/Third_Party/LwIP/src/core\tcp.c ****     }
2378:c:/Users/Black_Life/STM32Cube/Repository/STM32Cube_FW_F4_V1.26.2/Middlewares/Third_Party/LwIP/src/core\tcp.c ****     return ERR_OK;
 2943              		.loc 1 2378 5 is_stmt 1 view .LVU842
 2944              		.loc 1 2378 12 is_stmt 0 view .LVU843
 2945 0014 0020     		movs	r0, #0
 2946              	.LVL295:
 2947              		.loc 1 2378 12 view .LVU844
 2948 0016 7047     		bx	lr
 2949              	.LVL296:
 2950              	.L282:
2371:c:/Users/Black_Life/STM32Cube/Repository/STM32Cube_FW_F4_V1.26.2/Middlewares/Third_Party/LwIP/src/core\tcp.c ****         *addr = pcb->remote_ip;
 2951              		.loc 1 2371 7 is_stmt 1 view .LVU845
2371:c:/Users/Black_Life/STM32Cube/Repository/STM32Cube_FW_F4_V1.26.2/Middlewares/Third_Party/LwIP/src/core\tcp.c ****         *addr = pcb->remote_ip;
 2952              		.loc 1 2371 10 is_stmt 0 view .LVU846
 2953 0018 0AB1     		cbz	r2, .L285
2372:c:/Users/Black_Life/STM32Cube/Repository/STM32Cube_FW_F4_V1.26.2/Middlewares/Third_Party/LwIP/src/core\tcp.c ****       }
 2954              		.loc 1 2372 9 is_stmt 1 view .LVU847
2372:c:/Users/Black_Life/STM32Cube/Repository/STM32Cube_FW_F4_V1.26.2/Middlewares/Third_Party/LwIP/src/core\tcp.c ****       }
 2955              		.loc 1 2372 15 is_stmt 0 view .LVU848
 2956 001a 4168     		ldr	r1, [r0, #4]
 2957              	.LVL297:
2372:c:/Users/Black_Life/STM32Cube/Repository/STM32Cube_FW_F4_V1.26.2/Middlewares/Third_Party/LwIP/src/core\tcp.c ****       }
 2958              		.loc 1 2372 15 view .LVU849
 2959 001c 1160     		str	r1, [r2]
 2960              	.L285:
2374:c:/Users/Black_Life/STM32Cube/Repository/STM32Cube_FW_F4_V1.26.2/Middlewares/Third_Party/LwIP/src/core\tcp.c ****         *port = pcb->remote_port;
 2961              		.loc 1 2374 7 is_stmt 1 view .LVU850
2374:c:/Users/Black_Life/STM32Cube/Repository/STM32Cube_FW_F4_V1.26.2/Middlewares/Third_Party/LwIP/src/core\tcp.c ****         *port = pcb->remote_port;
 2962              		.loc 1 2374 10 is_stmt 0 view .LVU851
 2963 001e 002B     		cmp	r3, #0
 2964 0020 F8D0     		beq	.L284
2375:c:/Users/Black_Life/STM32Cube/Repository/STM32Cube_FW_F4_V1.26.2/Middlewares/Third_Party/LwIP/src/core\tcp.c ****       }
 2965              		.loc 1 2375 9 is_stmt 1 view .LVU852
2375:c:/Users/Black_Life/STM32Cube/Repository/STM32Cube_FW_F4_V1.26.2/Middlewares/Third_Party/LwIP/src/core\tcp.c ****       }
 2966              		.loc 1 2375 20 is_stmt 0 view .LVU853
 2967 0022 BCF81820 		ldrh	r2, [ip, #24]
 2968              	.LVL298:
2375:c:/Users/Black_Life/STM32Cube/Repository/STM32Cube_FW_F4_V1.26.2/Middlewares/Third_Party/LwIP/src/core\tcp.c ****       }
 2969              		.loc 1 2375 15 view .LVU854
 2970 0026 1A80     		strh	r2, [r3]	@ movhi
 2971 0028 F4E7     		b	.L284
ARM GAS  C:\Users\BLACK_~1\AppData\Local\Temp\ccRovO0r.s 			page 108


 2972              	.LVL299:
 2973              	.L286:
2379:c:/Users/Black_Life/STM32Cube/Repository/STM32Cube_FW_F4_V1.26.2/Middlewares/Third_Party/LwIP/src/core\tcp.c ****   }
2380:c:/Users/Black_Life/STM32Cube/Repository/STM32Cube_FW_F4_V1.26.2/Middlewares/Third_Party/LwIP/src/core\tcp.c ****   return ERR_VAL;
 2974              		.loc 1 2380 10 view .LVU855
 2975 002a 6FF00500 		mvn	r0, #5
 2976              	.LVL300:
2381:c:/Users/Black_Life/STM32Cube/Repository/STM32Cube_FW_F4_V1.26.2/Middlewares/Third_Party/LwIP/src/core\tcp.c **** }
 2977              		.loc 1 2381 1 view .LVU856
 2978 002e 7047     		bx	lr
 2979              		.cfi_endproc
 2980              	.LFE206:
 2982              		.section	.text.tcp_free_ooseq,"ax",%progbits
 2983              		.align	1
 2984              		.global	tcp_free_ooseq
 2985              		.syntax unified
 2986              		.thumb
 2987              		.thumb_func
 2989              	tcp_free_ooseq:
 2990              	.LVL301:
 2991              	.LFB207:
2382:c:/Users/Black_Life/STM32Cube/Repository/STM32Cube_FW_F4_V1.26.2/Middlewares/Third_Party/LwIP/src/core\tcp.c **** 
2383:c:/Users/Black_Life/STM32Cube/Repository/STM32Cube_FW_F4_V1.26.2/Middlewares/Third_Party/LwIP/src/core\tcp.c **** #if TCP_QUEUE_OOSEQ
2384:c:/Users/Black_Life/STM32Cube/Repository/STM32Cube_FW_F4_V1.26.2/Middlewares/Third_Party/LwIP/src/core\tcp.c **** /* Free all ooseq pbufs (and possibly reset SACK state) */
2385:c:/Users/Black_Life/STM32Cube/Repository/STM32Cube_FW_F4_V1.26.2/Middlewares/Third_Party/LwIP/src/core\tcp.c **** void
2386:c:/Users/Black_Life/STM32Cube/Repository/STM32Cube_FW_F4_V1.26.2/Middlewares/Third_Party/LwIP/src/core\tcp.c **** tcp_free_ooseq(struct tcp_pcb *pcb)
2387:c:/Users/Black_Life/STM32Cube/Repository/STM32Cube_FW_F4_V1.26.2/Middlewares/Third_Party/LwIP/src/core\tcp.c **** {
 2992              		.loc 1 2387 1 is_stmt 1 view -0
 2993              		.cfi_startproc
 2994              		@ args = 0, pretend = 0, frame = 0
 2995              		@ frame_needed = 0, uses_anonymous_args = 0
 2996              		.loc 1 2387 1 is_stmt 0 view .LVU858
 2997 0000 10B5     		push	{r4, lr}
 2998              	.LCFI30:
 2999              		.cfi_def_cfa_offset 8
 3000              		.cfi_offset 4, -8
 3001              		.cfi_offset 14, -4
 3002 0002 0446     		mov	r4, r0
2388:c:/Users/Black_Life/STM32Cube/Repository/STM32Cube_FW_F4_V1.26.2/Middlewares/Third_Party/LwIP/src/core\tcp.c ****   if (pcb->ooseq) {
 3003              		.loc 1 2388 3 is_stmt 1 view .LVU859
 3004              		.loc 1 2388 10 is_stmt 0 view .LVU860
 3005 0004 406F     		ldr	r0, [r0, #116]
 3006              	.LVL302:
 3007              		.loc 1 2388 6 view .LVU861
 3008 0006 18B1     		cbz	r0, .L287
2389:c:/Users/Black_Life/STM32Cube/Repository/STM32Cube_FW_F4_V1.26.2/Middlewares/Third_Party/LwIP/src/core\tcp.c ****     tcp_segs_free(pcb->ooseq);
 3009              		.loc 1 2389 5 is_stmt 1 view .LVU862
 3010 0008 FFF7FEFF 		bl	tcp_segs_free
 3011              	.LVL303:
2390:c:/Users/Black_Life/STM32Cube/Repository/STM32Cube_FW_F4_V1.26.2/Middlewares/Third_Party/LwIP/src/core\tcp.c ****     pcb->ooseq = NULL;
 3012              		.loc 1 2390 5 view .LVU863
 3013              		.loc 1 2390 16 is_stmt 0 view .LVU864
 3014 000c 0023     		movs	r3, #0
 3015 000e 6367     		str	r3, [r4, #116]
 3016              	.L287:
2391:c:/Users/Black_Life/STM32Cube/Repository/STM32Cube_FW_F4_V1.26.2/Middlewares/Third_Party/LwIP/src/core\tcp.c **** #if LWIP_TCP_SACK_OUT
2392:c:/Users/Black_Life/STM32Cube/Repository/STM32Cube_FW_F4_V1.26.2/Middlewares/Third_Party/LwIP/src/core\tcp.c ****     memset(pcb->rcv_sacks, 0, sizeof(pcb->rcv_sacks));
ARM GAS  C:\Users\BLACK_~1\AppData\Local\Temp\ccRovO0r.s 			page 109


2393:c:/Users/Black_Life/STM32Cube/Repository/STM32Cube_FW_F4_V1.26.2/Middlewares/Third_Party/LwIP/src/core\tcp.c **** #endif /* LWIP_TCP_SACK_OUT */
2394:c:/Users/Black_Life/STM32Cube/Repository/STM32Cube_FW_F4_V1.26.2/Middlewares/Third_Party/LwIP/src/core\tcp.c ****   }
2395:c:/Users/Black_Life/STM32Cube/Repository/STM32Cube_FW_F4_V1.26.2/Middlewares/Third_Party/LwIP/src/core\tcp.c **** }
 3017              		.loc 1 2395 1 view .LVU865
 3018 0010 10BD     		pop	{r4, pc}
 3019              		.loc 1 2395 1 view .LVU866
 3020              		.cfi_endproc
 3021              	.LFE207:
 3023              		.section	.rodata.tcp_pcb_purge.str1.4,"aMS",%progbits,1
 3024              		.align	2
 3025              	.LC27:
 3026 0000 7463705F 		.ascii	"tcp_pcb_purge: invalid pcb\000"
 3026      7063625F 
 3026      70757267 
 3026      653A2069 
 3026      6E76616C 
 3027              		.section	.text.tcp_pcb_purge,"ax",%progbits
 3028              		.align	1
 3029              		.global	tcp_pcb_purge
 3030              		.syntax unified
 3031              		.thumb
 3032              		.thumb_func
 3034              	tcp_pcb_purge:
 3035              	.LVL304:
 3036              	.LFB199:
2128:c:/Users/Black_Life/STM32Cube/Repository/STM32Cube_FW_F4_V1.26.2/Middlewares/Third_Party/LwIP/src/core\tcp.c ****   LWIP_ERROR("tcp_pcb_purge: invalid pcb", pcb != NULL, return);
 3037              		.loc 1 2128 1 is_stmt 1 view -0
 3038              		.cfi_startproc
 3039              		@ args = 0, pretend = 0, frame = 0
 3040              		@ frame_needed = 0, uses_anonymous_args = 0
2128:c:/Users/Black_Life/STM32Cube/Repository/STM32Cube_FW_F4_V1.26.2/Middlewares/Third_Party/LwIP/src/core\tcp.c ****   LWIP_ERROR("tcp_pcb_purge: invalid pcb", pcb != NULL, return);
 3041              		.loc 1 2128 1 is_stmt 0 view .LVU868
 3042 0000 10B5     		push	{r4, lr}
 3043              	.LCFI31:
 3044              		.cfi_def_cfa_offset 8
 3045              		.cfi_offset 4, -8
 3046              		.cfi_offset 14, -4
2129:c:/Users/Black_Life/STM32Cube/Repository/STM32Cube_FW_F4_V1.26.2/Middlewares/Third_Party/LwIP/src/core\tcp.c **** 
 3047              		.loc 1 2129 3 is_stmt 1 view .LVU869
2129:c:/Users/Black_Life/STM32Cube/Repository/STM32Cube_FW_F4_V1.26.2/Middlewares/Third_Party/LwIP/src/core\tcp.c **** 
 3048              		.loc 1 2129 3 view .LVU870
 3049 0002 00B3     		cbz	r0, .L296
 3050 0004 0446     		mov	r4, r0
2129:c:/Users/Black_Life/STM32Cube/Repository/STM32Cube_FW_F4_V1.26.2/Middlewares/Third_Party/LwIP/src/core\tcp.c **** 
 3051              		.loc 1 2129 3 discriminator 2 view .LVU871
2131:c:/Users/Black_Life/STM32Cube/Repository/STM32Cube_FW_F4_V1.26.2/Middlewares/Third_Party/LwIP/src/core\tcp.c ****       pcb->state != TIME_WAIT &&
 3052              		.loc 1 2131 3 discriminator 2 view .LVU872
2131:c:/Users/Black_Life/STM32Cube/Repository/STM32Cube_FW_F4_V1.26.2/Middlewares/Third_Party/LwIP/src/core\tcp.c ****       pcb->state != TIME_WAIT &&
 3053              		.loc 1 2131 10 is_stmt 0 discriminator 2 view .LVU873
 3054 0006 037D     		ldrb	r3, [r0, #20]	@ zero_extendqisi2
2131:c:/Users/Black_Life/STM32Cube/Repository/STM32Cube_FW_F4_V1.26.2/Middlewares/Third_Party/LwIP/src/core\tcp.c ****       pcb->state != TIME_WAIT &&
 3055              		.loc 1 2131 6 discriminator 2 view .LVU874
 3056 0008 E3B1     		cbz	r3, .L290
2131:c:/Users/Black_Life/STM32Cube/Repository/STM32Cube_FW_F4_V1.26.2/Middlewares/Third_Party/LwIP/src/core\tcp.c ****       pcb->state != TIME_WAIT &&
 3057              		.loc 1 2131 28 discriminator 1 view .LVU875
 3058 000a 0A2B     		cmp	r3, #10
 3059 000c 1AD0     		beq	.L290
ARM GAS  C:\Users\BLACK_~1\AppData\Local\Temp\ccRovO0r.s 			page 110


2132:c:/Users/Black_Life/STM32Cube/Repository/STM32Cube_FW_F4_V1.26.2/Middlewares/Third_Party/LwIP/src/core\tcp.c ****       pcb->state != LISTEN) {
 3060              		.loc 1 2132 31 view .LVU876
 3061 000e 012B     		cmp	r3, #1
 3062 0010 18D0     		beq	.L290
2135:c:/Users/Black_Life/STM32Cube/Repository/STM32Cube_FW_F4_V1.26.2/Middlewares/Third_Party/LwIP/src/core\tcp.c **** 
 3063              		.loc 1 2135 48 is_stmt 1 view .LVU877
2137:c:/Users/Black_Life/STM32Cube/Repository/STM32Cube_FW_F4_V1.26.2/Middlewares/Third_Party/LwIP/src/core\tcp.c **** 
 3064              		.loc 1 2137 30 view .LVU878
2139:c:/Users/Black_Life/STM32Cube/Repository/STM32Cube_FW_F4_V1.26.2/Middlewares/Third_Party/LwIP/src/core\tcp.c ****       LWIP_DEBUGF(TCP_DEBUG, ("tcp_pcb_purge: data left on ->refused_data\n"));
 3065              		.loc 1 2139 5 view .LVU879
2139:c:/Users/Black_Life/STM32Cube/Repository/STM32Cube_FW_F4_V1.26.2/Middlewares/Third_Party/LwIP/src/core\tcp.c ****       LWIP_DEBUGF(TCP_DEBUG, ("tcp_pcb_purge: data left on ->refused_data\n"));
 3066              		.loc 1 2139 12 is_stmt 0 view .LVU880
 3067 0012 806F     		ldr	r0, [r0, #120]
 3068              	.LVL305:
2139:c:/Users/Black_Life/STM32Cube/Repository/STM32Cube_FW_F4_V1.26.2/Middlewares/Third_Party/LwIP/src/core\tcp.c ****       LWIP_DEBUGF(TCP_DEBUG, ("tcp_pcb_purge: data left on ->refused_data\n"));
 3069              		.loc 1 2139 8 view .LVU881
 3070 0014 18B1     		cbz	r0, .L293
2140:c:/Users/Black_Life/STM32Cube/Repository/STM32Cube_FW_F4_V1.26.2/Middlewares/Third_Party/LwIP/src/core\tcp.c ****       pbuf_free(pcb->refused_data);
 3071              		.loc 1 2140 79 is_stmt 1 view .LVU882
2141:c:/Users/Black_Life/STM32Cube/Repository/STM32Cube_FW_F4_V1.26.2/Middlewares/Third_Party/LwIP/src/core\tcp.c ****       pcb->refused_data = NULL;
 3072              		.loc 1 2141 7 view .LVU883
 3073 0016 FFF7FEFF 		bl	pbuf_free
 3074              	.LVL306:
2142:c:/Users/Black_Life/STM32Cube/Repository/STM32Cube_FW_F4_V1.26.2/Middlewares/Third_Party/LwIP/src/core\tcp.c ****     }
 3075              		.loc 1 2142 7 view .LVU884
2142:c:/Users/Black_Life/STM32Cube/Repository/STM32Cube_FW_F4_V1.26.2/Middlewares/Third_Party/LwIP/src/core\tcp.c ****     }
 3076              		.loc 1 2142 25 is_stmt 0 view .LVU885
 3077 001a 0023     		movs	r3, #0
 3078 001c A367     		str	r3, [r4, #120]
 3079              	.L293:
2144:c:/Users/Black_Life/STM32Cube/Repository/STM32Cube_FW_F4_V1.26.2/Middlewares/Third_Party/LwIP/src/core\tcp.c ****       LWIP_DEBUGF(TCP_DEBUG, ("tcp_pcb_purge: not all data sent\n"));
 3080              		.loc 1 2144 5 is_stmt 1 view .LVU886
2145:c:/Users/Black_Life/STM32Cube/Repository/STM32Cube_FW_F4_V1.26.2/Middlewares/Third_Party/LwIP/src/core\tcp.c ****     }
 3081              		.loc 1 2145 69 view .LVU887
2147:c:/Users/Black_Life/STM32Cube/Repository/STM32Cube_FW_F4_V1.26.2/Middlewares/Third_Party/LwIP/src/core\tcp.c ****       LWIP_DEBUGF(TCP_DEBUG, ("tcp_pcb_purge: data left on ->unacked\n"));
 3082              		.loc 1 2147 5 view .LVU888
2148:c:/Users/Black_Life/STM32Cube/Repository/STM32Cube_FW_F4_V1.26.2/Middlewares/Third_Party/LwIP/src/core\tcp.c ****     }
 3083              		.loc 1 2148 74 view .LVU889
2151:c:/Users/Black_Life/STM32Cube/Repository/STM32Cube_FW_F4_V1.26.2/Middlewares/Third_Party/LwIP/src/core\tcp.c ****       LWIP_DEBUGF(TCP_DEBUG, ("tcp_pcb_purge: data left on ->ooseq\n"));
 3084              		.loc 1 2151 5 view .LVU890
2151:c:/Users/Black_Life/STM32Cube/Repository/STM32Cube_FW_F4_V1.26.2/Middlewares/Third_Party/LwIP/src/core\tcp.c ****       LWIP_DEBUGF(TCP_DEBUG, ("tcp_pcb_purge: data left on ->ooseq\n"));
 3085              		.loc 1 2151 12 is_stmt 0 view .LVU891
 3086 001e 636F     		ldr	r3, [r4, #116]
2151:c:/Users/Black_Life/STM32Cube/Repository/STM32Cube_FW_F4_V1.26.2/Middlewares/Third_Party/LwIP/src/core\tcp.c ****       LWIP_DEBUGF(TCP_DEBUG, ("tcp_pcb_purge: data left on ->ooseq\n"));
 3087              		.loc 1 2151 8 view .LVU892
 3088 0020 13B1     		cbz	r3, .L294
2152:c:/Users/Black_Life/STM32Cube/Repository/STM32Cube_FW_F4_V1.26.2/Middlewares/Third_Party/LwIP/src/core\tcp.c ****       tcp_free_ooseq(pcb);
 3089              		.loc 1 2152 72 is_stmt 1 view .LVU893
2153:c:/Users/Black_Life/STM32Cube/Repository/STM32Cube_FW_F4_V1.26.2/Middlewares/Third_Party/LwIP/src/core\tcp.c ****     }
 3090              		.loc 1 2153 7 view .LVU894
 3091 0022 2046     		mov	r0, r4
 3092 0024 FFF7FEFF 		bl	tcp_free_ooseq
 3093              	.LVL307:
 3094              	.L294:
2159:c:/Users/Black_Life/STM32Cube/Repository/STM32Cube_FW_F4_V1.26.2/Middlewares/Third_Party/LwIP/src/core\tcp.c **** 
 3095              		.loc 1 2159 5 view .LVU895
2159:c:/Users/Black_Life/STM32Cube/Repository/STM32Cube_FW_F4_V1.26.2/Middlewares/Third_Party/LwIP/src/core\tcp.c **** 
ARM GAS  C:\Users\BLACK_~1\AppData\Local\Temp\ccRovO0r.s 			page 111


 3096              		.loc 1 2159 16 is_stmt 0 view .LVU896
 3097 0028 4FF6FF73 		movw	r3, #65535
 3098 002c 2386     		strh	r3, [r4, #48]	@ movhi
2161:c:/Users/Black_Life/STM32Cube/Repository/STM32Cube_FW_F4_V1.26.2/Middlewares/Third_Party/LwIP/src/core\tcp.c ****     tcp_segs_free(pcb->unacked);
 3099              		.loc 1 2161 5 is_stmt 1 view .LVU897
 3100 002e E06E     		ldr	r0, [r4, #108]
 3101 0030 FFF7FEFF 		bl	tcp_segs_free
 3102              	.LVL308:
2162:c:/Users/Black_Life/STM32Cube/Repository/STM32Cube_FW_F4_V1.26.2/Middlewares/Third_Party/LwIP/src/core\tcp.c ****     pcb->unacked = pcb->unsent = NULL;
 3103              		.loc 1 2162 5 view .LVU898
 3104 0034 206F     		ldr	r0, [r4, #112]
 3105 0036 FFF7FEFF 		bl	tcp_segs_free
 3106              	.LVL309:
2163:c:/Users/Black_Life/STM32Cube/Repository/STM32Cube_FW_F4_V1.26.2/Middlewares/Third_Party/LwIP/src/core\tcp.c **** #if TCP_OVERSIZE
 3107              		.loc 1 2163 5 view .LVU899
2163:c:/Users/Black_Life/STM32Cube/Repository/STM32Cube_FW_F4_V1.26.2/Middlewares/Third_Party/LwIP/src/core\tcp.c **** #if TCP_OVERSIZE
 3108              		.loc 1 2163 32 is_stmt 0 view .LVU900
 3109 003a 0023     		movs	r3, #0
 3110 003c E366     		str	r3, [r4, #108]
2163:c:/Users/Black_Life/STM32Cube/Repository/STM32Cube_FW_F4_V1.26.2/Middlewares/Third_Party/LwIP/src/core\tcp.c **** #if TCP_OVERSIZE
 3111              		.loc 1 2163 18 view .LVU901
 3112 003e 2367     		str	r3, [r4, #112]
2165:c:/Users/Black_Life/STM32Cube/Repository/STM32Cube_FW_F4_V1.26.2/Middlewares/Third_Party/LwIP/src/core\tcp.c **** #endif /* TCP_OVERSIZE */
 3113              		.loc 1 2165 5 is_stmt 1 view .LVU902
2165:c:/Users/Black_Life/STM32Cube/Repository/STM32Cube_FW_F4_V1.26.2/Middlewares/Third_Party/LwIP/src/core\tcp.c **** #endif /* TCP_OVERSIZE */
 3114              		.loc 1 2165 26 is_stmt 0 view .LVU903
 3115 0040 A4F86830 		strh	r3, [r4, #104]	@ movhi
 3116              	.LVL310:
 3117              	.L290:
2168:c:/Users/Black_Life/STM32Cube/Repository/STM32Cube_FW_F4_V1.26.2/Middlewares/Third_Party/LwIP/src/core\tcp.c **** 
 3118              		.loc 1 2168 1 view .LVU904
 3119 0044 10BD     		pop	{r4, pc}
 3120              	.LVL311:
 3121              	.L296:
2129:c:/Users/Black_Life/STM32Cube/Repository/STM32Cube_FW_F4_V1.26.2/Middlewares/Third_Party/LwIP/src/core\tcp.c **** 
 3122              		.loc 1 2129 3 is_stmt 1 discriminator 1 view .LVU905
2129:c:/Users/Black_Life/STM32Cube/Repository/STM32Cube_FW_F4_V1.26.2/Middlewares/Third_Party/LwIP/src/core\tcp.c **** 
 3123              		.loc 1 2129 3 discriminator 1 view .LVU906
 3124 0046 044B     		ldr	r3, .L297
 3125 0048 40F65102 		movw	r2, #2129
 3126 004c 0349     		ldr	r1, .L297+4
 3127 004e 0448     		ldr	r0, .L297+8
 3128              	.LVL312:
2129:c:/Users/Black_Life/STM32Cube/Repository/STM32Cube_FW_F4_V1.26.2/Middlewares/Third_Party/LwIP/src/core\tcp.c **** 
 3129              		.loc 1 2129 3 is_stmt 0 discriminator 1 view .LVU907
 3130 0050 FFF7FEFF 		bl	printf
 3131              	.LVL313:
2129:c:/Users/Black_Life/STM32Cube/Repository/STM32Cube_FW_F4_V1.26.2/Middlewares/Third_Party/LwIP/src/core\tcp.c **** 
 3132              		.loc 1 2129 3 is_stmt 1 discriminator 1 view .LVU908
2129:c:/Users/Black_Life/STM32Cube/Repository/STM32Cube_FW_F4_V1.26.2/Middlewares/Third_Party/LwIP/src/core\tcp.c **** 
 3133              		.loc 1 2129 3 discriminator 1 view .LVU909
 3134 0054 F6E7     		b	.L290
 3135              	.L298:
 3136 0056 00BF     		.align	2
 3137              	.L297:
 3138 0058 00000000 		.word	.LC0
 3139 005c 00000000 		.word	.LC27
ARM GAS  C:\Users\BLACK_~1\AppData\Local\Temp\ccRovO0r.s 			page 112


 3140 0060 98000000 		.word	.LC2
 3141              		.cfi_endproc
 3142              	.LFE199:
 3144              		.section	.rodata.tcp_pcb_remove.str1.4,"aMS",%progbits,1
 3145              		.align	2
 3146              	.LC28:
 3147 0000 7463705F 		.ascii	"tcp_pcb_remove: invalid pcb\000"
 3147      7063625F 
 3147      72656D6F 
 3147      76653A20 
 3147      696E7661 
 3148              		.align	2
 3149              	.LC29:
 3150 001c 7463705F 		.ascii	"tcp_pcb_remove: invalid pcblist\000"
 3150      7063625F 
 3150      72656D6F 
 3150      76653A20 
 3150      696E7661 
 3151              		.align	2
 3152              	.LC30:
 3153 003c 756E7365 		.ascii	"unsent segments leaking\000"
 3153      6E742073 
 3153      65676D65 
 3153      6E747320 
 3153      6C65616B 
 3154              		.align	2
 3155              	.LC31:
 3156 0054 756E6163 		.ascii	"unacked segments leaking\000"
 3156      6B656420 
 3156      7365676D 
 3156      656E7473 
 3156      206C6561 
 3157 006d 000000   		.align	2
 3158              	.LC32:
 3159 0070 6F6F7365 		.ascii	"ooseq segments leaking\000"
 3159      71207365 
 3159      676D656E 
 3159      7473206C 
 3159      65616B69 
 3160              		.section	.text.tcp_pcb_remove,"ax",%progbits
 3161              		.align	1
 3162              		.global	tcp_pcb_remove
 3163              		.syntax unified
 3164              		.thumb
 3165              		.thumb_func
 3167              	tcp_pcb_remove:
 3168              	.LVL314:
 3169              	.LFB200:
2178:c:/Users/Black_Life/STM32Cube/Repository/STM32Cube_FW_F4_V1.26.2/Middlewares/Third_Party/LwIP/src/core\tcp.c ****   LWIP_ASSERT("tcp_pcb_remove: invalid pcb", pcb != NULL);
 3170              		.loc 1 2178 1 view -0
 3171              		.cfi_startproc
 3172              		@ args = 0, pretend = 0, frame = 0
 3173              		@ frame_needed = 0, uses_anonymous_args = 0
2178:c:/Users/Black_Life/STM32Cube/Repository/STM32Cube_FW_F4_V1.26.2/Middlewares/Third_Party/LwIP/src/core\tcp.c ****   LWIP_ASSERT("tcp_pcb_remove: invalid pcb", pcb != NULL);
 3174              		.loc 1 2178 1 is_stmt 0 view .LVU911
 3175 0000 38B5     		push	{r3, r4, r5, lr}
 3176              	.LCFI32:
ARM GAS  C:\Users\BLACK_~1\AppData\Local\Temp\ccRovO0r.s 			page 113


 3177              		.cfi_def_cfa_offset 16
 3178              		.cfi_offset 3, -16
 3179              		.cfi_offset 4, -12
 3180              		.cfi_offset 5, -8
 3181              		.cfi_offset 14, -4
 3182 0002 0546     		mov	r5, r0
2179:c:/Users/Black_Life/STM32Cube/Repository/STM32Cube_FW_F4_V1.26.2/Middlewares/Third_Party/LwIP/src/core\tcp.c ****   LWIP_ASSERT("tcp_pcb_remove: invalid pcblist", pcblist != NULL);
 3183              		.loc 1 2179 3 is_stmt 1 view .LVU912
2179:c:/Users/Black_Life/STM32Cube/Repository/STM32Cube_FW_F4_V1.26.2/Middlewares/Third_Party/LwIP/src/core\tcp.c ****   LWIP_ASSERT("tcp_pcb_remove: invalid pcblist", pcblist != NULL);
 3184              		.loc 1 2179 3 view .LVU913
 3185 0004 0C46     		mov	r4, r1
 3186 0006 49B1     		cbz	r1, .L311
 3187              	.LVL315:
 3188              	.L300:
2179:c:/Users/Black_Life/STM32Cube/Repository/STM32Cube_FW_F4_V1.26.2/Middlewares/Third_Party/LwIP/src/core\tcp.c ****   LWIP_ASSERT("tcp_pcb_remove: invalid pcblist", pcblist != NULL);
 3189              		.loc 1 2179 3 discriminator 3 view .LVU914
2179:c:/Users/Black_Life/STM32Cube/Repository/STM32Cube_FW_F4_V1.26.2/Middlewares/Third_Party/LwIP/src/core\tcp.c ****   LWIP_ASSERT("tcp_pcb_remove: invalid pcblist", pcblist != NULL);
 3190              		.loc 1 2179 3 discriminator 3 view .LVU915
2180:c:/Users/Black_Life/STM32Cube/Repository/STM32Cube_FW_F4_V1.26.2/Middlewares/Third_Party/LwIP/src/core\tcp.c **** 
 3191              		.loc 1 2180 3 discriminator 3 view .LVU916
2180:c:/Users/Black_Life/STM32Cube/Repository/STM32Cube_FW_F4_V1.26.2/Middlewares/Third_Party/LwIP/src/core\tcp.c **** 
 3192              		.loc 1 2180 3 discriminator 3 view .LVU917
 3193 0008 85B1     		cbz	r5, .L312
 3194              	.L301:
2180:c:/Users/Black_Life/STM32Cube/Repository/STM32Cube_FW_F4_V1.26.2/Middlewares/Third_Party/LwIP/src/core\tcp.c **** 
 3195              		.loc 1 2180 3 discriminator 3 view .LVU918
2180:c:/Users/Black_Life/STM32Cube/Repository/STM32Cube_FW_F4_V1.26.2/Middlewares/Third_Party/LwIP/src/core\tcp.c **** 
 3196              		.loc 1 2180 3 discriminator 3 view .LVU919
2182:c:/Users/Black_Life/STM32Cube/Repository/STM32Cube_FW_F4_V1.26.2/Middlewares/Third_Party/LwIP/src/core\tcp.c **** 
 3197              		.loc 1 2182 3 discriminator 3 view .LVU920
2182:c:/Users/Black_Life/STM32Cube/Repository/STM32Cube_FW_F4_V1.26.2/Middlewares/Third_Party/LwIP/src/core\tcp.c **** 
 3198              		.loc 1 2182 3 discriminator 3 view .LVU921
 3199 000a 2B68     		ldr	r3, [r5]
 3200 000c A342     		cmp	r3, r4
 3201 000e 15D0     		beq	.L313
 3202              	.L302:
 3203              	.LVL316:
 3204              	.LBB14:
2182:c:/Users/Black_Life/STM32Cube/Repository/STM32Cube_FW_F4_V1.26.2/Middlewares/Third_Party/LwIP/src/core\tcp.c **** 
 3205              		.loc 1 2182 3 discriminator 8 view .LVU922
 3206 0010 CBB1     		cbz	r3, .L303
2182:c:/Users/Black_Life/STM32Cube/Repository/STM32Cube_FW_F4_V1.26.2/Middlewares/Third_Party/LwIP/src/core\tcp.c **** 
 3207              		.loc 1 2182 3 discriminator 9 view .LVU923
 3208 0012 DA68     		ldr	r2, [r3, #12]
 3209 0014 A242     		cmp	r2, r4
 3210 0016 14D0     		beq	.L314
2182:c:/Users/Black_Life/STM32Cube/Repository/STM32Cube_FW_F4_V1.26.2/Middlewares/Third_Party/LwIP/src/core\tcp.c **** 
 3211              		.loc 1 2182 3 is_stmt 0 view .LVU924
 3212 0018 1346     		mov	r3, r2
 3213              	.LVL317:
2182:c:/Users/Black_Life/STM32Cube/Repository/STM32Cube_FW_F4_V1.26.2/Middlewares/Third_Party/LwIP/src/core\tcp.c **** 
 3214              		.loc 1 2182 3 view .LVU925
 3215 001a F9E7     		b	.L302
 3216              	.LVL318:
 3217              	.L311:
2182:c:/Users/Black_Life/STM32Cube/Repository/STM32Cube_FW_F4_V1.26.2/Middlewares/Third_Party/LwIP/src/core\tcp.c **** 
 3218              		.loc 1 2182 3 view .LVU926
ARM GAS  C:\Users\BLACK_~1\AppData\Local\Temp\ccRovO0r.s 			page 114


 3219              	.LBE14:
2179:c:/Users/Black_Life/STM32Cube/Repository/STM32Cube_FW_F4_V1.26.2/Middlewares/Third_Party/LwIP/src/core\tcp.c ****   LWIP_ASSERT("tcp_pcb_remove: invalid pcblist", pcblist != NULL);
 3220              		.loc 1 2179 3 is_stmt 1 discriminator 1 view .LVU927
2179:c:/Users/Black_Life/STM32Cube/Repository/STM32Cube_FW_F4_V1.26.2/Middlewares/Third_Party/LwIP/src/core\tcp.c ****   LWIP_ASSERT("tcp_pcb_remove: invalid pcblist", pcblist != NULL);
 3221              		.loc 1 2179 3 discriminator 1 view .LVU928
 3222 001c 254B     		ldr	r3, .L316
 3223 001e 40F68302 		movw	r2, #2179
 3224 0022 2549     		ldr	r1, .L316+4
 3225              	.LVL319:
2179:c:/Users/Black_Life/STM32Cube/Repository/STM32Cube_FW_F4_V1.26.2/Middlewares/Third_Party/LwIP/src/core\tcp.c ****   LWIP_ASSERT("tcp_pcb_remove: invalid pcblist", pcblist != NULL);
 3226              		.loc 1 2179 3 is_stmt 0 discriminator 1 view .LVU929
 3227 0024 2548     		ldr	r0, .L316+8
 3228              	.LVL320:
2179:c:/Users/Black_Life/STM32Cube/Repository/STM32Cube_FW_F4_V1.26.2/Middlewares/Third_Party/LwIP/src/core\tcp.c ****   LWIP_ASSERT("tcp_pcb_remove: invalid pcblist", pcblist != NULL);
 3229              		.loc 1 2179 3 discriminator 1 view .LVU930
 3230 0026 FFF7FEFF 		bl	printf
 3231              	.LVL321:
 3232 002a EDE7     		b	.L300
 3233              	.L312:
2180:c:/Users/Black_Life/STM32Cube/Repository/STM32Cube_FW_F4_V1.26.2/Middlewares/Third_Party/LwIP/src/core\tcp.c **** 
 3234              		.loc 1 2180 3 is_stmt 1 discriminator 1 view .LVU931
2180:c:/Users/Black_Life/STM32Cube/Repository/STM32Cube_FW_F4_V1.26.2/Middlewares/Third_Party/LwIP/src/core\tcp.c **** 
 3235              		.loc 1 2180 3 discriminator 1 view .LVU932
 3236 002c 214B     		ldr	r3, .L316
 3237 002e 40F68402 		movw	r2, #2180
 3238 0032 2349     		ldr	r1, .L316+12
 3239 0034 2148     		ldr	r0, .L316+8
 3240 0036 FFF7FEFF 		bl	printf
 3241              	.LVL322:
 3242 003a E6E7     		b	.L301
 3243              	.L313:
2182:c:/Users/Black_Life/STM32Cube/Repository/STM32Cube_FW_F4_V1.26.2/Middlewares/Third_Party/LwIP/src/core\tcp.c **** 
 3244              		.loc 1 2182 3 discriminator 1 view .LVU933
 3245 003c DB68     		ldr	r3, [r3, #12]
 3246 003e 2B60     		str	r3, [r5]
 3247 0040 01E0     		b	.L303
 3248              	.LVL323:
 3249              	.L314:
 3250              	.LBB15:
2182:c:/Users/Black_Life/STM32Cube/Repository/STM32Cube_FW_F4_V1.26.2/Middlewares/Third_Party/LwIP/src/core\tcp.c **** 
 3251              		.loc 1 2182 3 discriminator 5 view .LVU934
 3252 0042 E268     		ldr	r2, [r4, #12]
 3253 0044 DA60     		str	r2, [r3, #12]
2182:c:/Users/Black_Life/STM32Cube/Repository/STM32Cube_FW_F4_V1.26.2/Middlewares/Third_Party/LwIP/src/core\tcp.c **** 
 3254              		.loc 1 2182 3 discriminator 5 view .LVU935
 3255              	.LVL324:
 3256              	.L303:
2182:c:/Users/Black_Life/STM32Cube/Repository/STM32Cube_FW_F4_V1.26.2/Middlewares/Third_Party/LwIP/src/core\tcp.c **** 
 3257              		.loc 1 2182 3 is_stmt 0 discriminator 5 view .LVU936
 3258              	.LBE15:
2182:c:/Users/Black_Life/STM32Cube/Repository/STM32Cube_FW_F4_V1.26.2/Middlewares/Third_Party/LwIP/src/core\tcp.c **** 
 3259              		.loc 1 2182 3 is_stmt 1 discriminator 10 view .LVU937
 3260 0046 0023     		movs	r3, #0
 3261 0048 E360     		str	r3, [r4, #12]
2182:c:/Users/Black_Life/STM32Cube/Repository/STM32Cube_FW_F4_V1.26.2/Middlewares/Third_Party/LwIP/src/core\tcp.c **** 
 3262              		.loc 1 2182 3 discriminator 10 view .LVU938
2184:c:/Users/Black_Life/STM32Cube/Repository/STM32Cube_FW_F4_V1.26.2/Middlewares/Third_Party/LwIP/src/core\tcp.c **** 
ARM GAS  C:\Users\BLACK_~1\AppData\Local\Temp\ccRovO0r.s 			page 115


 3263              		.loc 1 2184 3 discriminator 10 view .LVU939
 3264 004a 2046     		mov	r0, r4
 3265 004c FFF7FEFF 		bl	tcp_pcb_purge
 3266              	.LVL325:
2187:c:/Users/Black_Life/STM32Cube/Repository/STM32Cube_FW_F4_V1.26.2/Middlewares/Third_Party/LwIP/src/core\tcp.c ****       (pcb->state != LISTEN) &&
 3267              		.loc 1 2187 3 discriminator 10 view .LVU940
2187:c:/Users/Black_Life/STM32Cube/Repository/STM32Cube_FW_F4_V1.26.2/Middlewares/Third_Party/LwIP/src/core\tcp.c ****       (pcb->state != LISTEN) &&
 3268              		.loc 1 2187 11 is_stmt 0 discriminator 10 view .LVU941
 3269 0050 237D     		ldrb	r3, [r4, #20]	@ zero_extendqisi2
2187:c:/Users/Black_Life/STM32Cube/Repository/STM32Cube_FW_F4_V1.26.2/Middlewares/Third_Party/LwIP/src/core\tcp.c ****       (pcb->state != LISTEN) &&
 3270              		.loc 1 2187 6 discriminator 10 view .LVU942
 3271 0052 0A2B     		cmp	r3, #10
 3272 0054 05D0     		beq	.L305
2187:c:/Users/Black_Life/STM32Cube/Repository/STM32Cube_FW_F4_V1.26.2/Middlewares/Third_Party/LwIP/src/core\tcp.c ****       (pcb->state != LISTEN) &&
 3273              		.loc 1 2187 33 discriminator 1 view .LVU943
 3274 0056 012B     		cmp	r3, #1
 3275 0058 03D0     		beq	.L305
2189:c:/Users/Black_Life/STM32Cube/Repository/STM32Cube_FW_F4_V1.26.2/Middlewares/Third_Party/LwIP/src/core\tcp.c ****     tcp_ack_now(pcb);
 3276              		.loc 1 2189 11 view .LVU944
 3277 005a 638B     		ldrh	r3, [r4, #26]
2188:c:/Users/Black_Life/STM32Cube/Repository/STM32Cube_FW_F4_V1.26.2/Middlewares/Third_Party/LwIP/src/core\tcp.c ****       (pcb->flags & TF_ACK_DELAY)) {
 3278              		.loc 1 2188 30 view .LVU945
 3279 005c 13F0010F 		tst	r3, #1
 3280 0060 21D1     		bne	.L315
 3281              	.L305:
2194:c:/Users/Black_Life/STM32Cube/Repository/STM32Cube_FW_F4_V1.26.2/Middlewares/Third_Party/LwIP/src/core\tcp.c ****     LWIP_ASSERT("unsent segments leaking", pcb->unsent == NULL);
 3282              		.loc 1 2194 3 is_stmt 1 view .LVU946
2194:c:/Users/Black_Life/STM32Cube/Repository/STM32Cube_FW_F4_V1.26.2/Middlewares/Third_Party/LwIP/src/core\tcp.c ****     LWIP_ASSERT("unsent segments leaking", pcb->unsent == NULL);
 3283              		.loc 1 2194 10 is_stmt 0 view .LVU947
 3284 0062 237D     		ldrb	r3, [r4, #20]	@ zero_extendqisi2
2194:c:/Users/Black_Life/STM32Cube/Repository/STM32Cube_FW_F4_V1.26.2/Middlewares/Third_Party/LwIP/src/core\tcp.c ****     LWIP_ASSERT("unsent segments leaking", pcb->unsent == NULL);
 3285              		.loc 1 2194 6 view .LVU948
 3286 0064 012B     		cmp	r3, #1
 3287 0066 1AD0     		beq	.L306
2195:c:/Users/Black_Life/STM32Cube/Repository/STM32Cube_FW_F4_V1.26.2/Middlewares/Third_Party/LwIP/src/core\tcp.c ****     LWIP_ASSERT("unacked segments leaking", pcb->unacked == NULL);
 3288              		.loc 1 2195 5 is_stmt 1 view .LVU949
2195:c:/Users/Black_Life/STM32Cube/Repository/STM32Cube_FW_F4_V1.26.2/Middlewares/Third_Party/LwIP/src/core\tcp.c ****     LWIP_ASSERT("unacked segments leaking", pcb->unacked == NULL);
 3289              		.loc 1 2195 5 view .LVU950
 3290 0068 E36E     		ldr	r3, [r4, #108]
 3291 006a 33B1     		cbz	r3, .L307
2195:c:/Users/Black_Life/STM32Cube/Repository/STM32Cube_FW_F4_V1.26.2/Middlewares/Third_Party/LwIP/src/core\tcp.c ****     LWIP_ASSERT("unacked segments leaking", pcb->unacked == NULL);
 3292              		.loc 1 2195 5 discriminator 1 view .LVU951
2195:c:/Users/Black_Life/STM32Cube/Repository/STM32Cube_FW_F4_V1.26.2/Middlewares/Third_Party/LwIP/src/core\tcp.c ****     LWIP_ASSERT("unacked segments leaking", pcb->unacked == NULL);
 3293              		.loc 1 2195 5 discriminator 1 view .LVU952
 3294 006c 114B     		ldr	r3, .L316
 3295 006e 40F69302 		movw	r2, #2195
 3296 0072 1449     		ldr	r1, .L316+16
 3297 0074 1148     		ldr	r0, .L316+8
 3298 0076 FFF7FEFF 		bl	printf
 3299              	.LVL326:
 3300              	.L307:
2195:c:/Users/Black_Life/STM32Cube/Repository/STM32Cube_FW_F4_V1.26.2/Middlewares/Third_Party/LwIP/src/core\tcp.c ****     LWIP_ASSERT("unacked segments leaking", pcb->unacked == NULL);
 3301              		.loc 1 2195 5 discriminator 3 view .LVU953
2195:c:/Users/Black_Life/STM32Cube/Repository/STM32Cube_FW_F4_V1.26.2/Middlewares/Third_Party/LwIP/src/core\tcp.c ****     LWIP_ASSERT("unacked segments leaking", pcb->unacked == NULL);
 3302              		.loc 1 2195 5 discriminator 3 view .LVU954
2196:c:/Users/Black_Life/STM32Cube/Repository/STM32Cube_FW_F4_V1.26.2/Middlewares/Third_Party/LwIP/src/core\tcp.c **** #if TCP_QUEUE_OOSEQ
 3303              		.loc 1 2196 5 discriminator 3 view .LVU955
ARM GAS  C:\Users\BLACK_~1\AppData\Local\Temp\ccRovO0r.s 			page 116


2196:c:/Users/Black_Life/STM32Cube/Repository/STM32Cube_FW_F4_V1.26.2/Middlewares/Third_Party/LwIP/src/core\tcp.c **** #if TCP_QUEUE_OOSEQ
 3304              		.loc 1 2196 5 discriminator 3 view .LVU956
 3305 007a 236F     		ldr	r3, [r4, #112]
 3306 007c 33B1     		cbz	r3, .L308
2196:c:/Users/Black_Life/STM32Cube/Repository/STM32Cube_FW_F4_V1.26.2/Middlewares/Third_Party/LwIP/src/core\tcp.c **** #if TCP_QUEUE_OOSEQ
 3307              		.loc 1 2196 5 discriminator 1 view .LVU957
2196:c:/Users/Black_Life/STM32Cube/Repository/STM32Cube_FW_F4_V1.26.2/Middlewares/Third_Party/LwIP/src/core\tcp.c **** #if TCP_QUEUE_OOSEQ
 3308              		.loc 1 2196 5 discriminator 1 view .LVU958
 3309 007e 0D4B     		ldr	r3, .L316
 3310 0080 40F69402 		movw	r2, #2196
 3311 0084 1049     		ldr	r1, .L316+20
 3312 0086 0D48     		ldr	r0, .L316+8
 3313 0088 FFF7FEFF 		bl	printf
 3314              	.LVL327:
 3315              	.L308:
2196:c:/Users/Black_Life/STM32Cube/Repository/STM32Cube_FW_F4_V1.26.2/Middlewares/Third_Party/LwIP/src/core\tcp.c **** #if TCP_QUEUE_OOSEQ
 3316              		.loc 1 2196 5 discriminator 3 view .LVU959
2196:c:/Users/Black_Life/STM32Cube/Repository/STM32Cube_FW_F4_V1.26.2/Middlewares/Third_Party/LwIP/src/core\tcp.c **** #if TCP_QUEUE_OOSEQ
 3317              		.loc 1 2196 5 discriminator 3 view .LVU960
2198:c:/Users/Black_Life/STM32Cube/Repository/STM32Cube_FW_F4_V1.26.2/Middlewares/Third_Party/LwIP/src/core\tcp.c **** #endif /* TCP_QUEUE_OOSEQ */
 3318              		.loc 1 2198 5 discriminator 3 view .LVU961
2198:c:/Users/Black_Life/STM32Cube/Repository/STM32Cube_FW_F4_V1.26.2/Middlewares/Third_Party/LwIP/src/core\tcp.c **** #endif /* TCP_QUEUE_OOSEQ */
 3319              		.loc 1 2198 5 discriminator 3 view .LVU962
 3320 008c 636F     		ldr	r3, [r4, #116]
 3321 008e 33B1     		cbz	r3, .L306
2198:c:/Users/Black_Life/STM32Cube/Repository/STM32Cube_FW_F4_V1.26.2/Middlewares/Third_Party/LwIP/src/core\tcp.c **** #endif /* TCP_QUEUE_OOSEQ */
 3322              		.loc 1 2198 5 discriminator 1 view .LVU963
2198:c:/Users/Black_Life/STM32Cube/Repository/STM32Cube_FW_F4_V1.26.2/Middlewares/Third_Party/LwIP/src/core\tcp.c **** #endif /* TCP_QUEUE_OOSEQ */
 3323              		.loc 1 2198 5 discriminator 1 view .LVU964
 3324 0090 084B     		ldr	r3, .L316
 3325 0092 40F69602 		movw	r2, #2198
 3326 0096 0D49     		ldr	r1, .L316+24
 3327 0098 0848     		ldr	r0, .L316+8
 3328 009a FFF7FEFF 		bl	printf
 3329              	.LVL328:
 3330              	.L306:
2198:c:/Users/Black_Life/STM32Cube/Repository/STM32Cube_FW_F4_V1.26.2/Middlewares/Third_Party/LwIP/src/core\tcp.c **** #endif /* TCP_QUEUE_OOSEQ */
 3331              		.loc 1 2198 5 discriminator 3 view .LVU965
2198:c:/Users/Black_Life/STM32Cube/Repository/STM32Cube_FW_F4_V1.26.2/Middlewares/Third_Party/LwIP/src/core\tcp.c **** #endif /* TCP_QUEUE_OOSEQ */
 3332              		.loc 1 2198 5 discriminator 3 view .LVU966
2202:c:/Users/Black_Life/STM32Cube/Repository/STM32Cube_FW_F4_V1.26.2/Middlewares/Third_Party/LwIP/src/core\tcp.c ****   /* reset the local port to prevent the pcb from being 'bound' */
 3333              		.loc 1 2202 3 discriminator 3 view .LVU967
2202:c:/Users/Black_Life/STM32Cube/Repository/STM32Cube_FW_F4_V1.26.2/Middlewares/Third_Party/LwIP/src/core\tcp.c ****   /* reset the local port to prevent the pcb from being 'bound' */
 3334              		.loc 1 2202 14 is_stmt 0 discriminator 3 view .LVU968
 3335 009e 0023     		movs	r3, #0
 3336 00a0 2375     		strb	r3, [r4, #20]
2204:c:/Users/Black_Life/STM32Cube/Repository/STM32Cube_FW_F4_V1.26.2/Middlewares/Third_Party/LwIP/src/core\tcp.c **** 
 3337              		.loc 1 2204 3 is_stmt 1 discriminator 3 view .LVU969
2204:c:/Users/Black_Life/STM32Cube/Repository/STM32Cube_FW_F4_V1.26.2/Middlewares/Third_Party/LwIP/src/core\tcp.c **** 
 3338              		.loc 1 2204 19 is_stmt 0 discriminator 3 view .LVU970
 3339 00a2 E382     		strh	r3, [r4, #22]	@ movhi
2206:c:/Users/Black_Life/STM32Cube/Repository/STM32Cube_FW_F4_V1.26.2/Middlewares/Third_Party/LwIP/src/core\tcp.c **** }
 3340              		.loc 1 2206 3 is_stmt 1 discriminator 3 view .LVU971
2206:c:/Users/Black_Life/STM32Cube/Repository/STM32Cube_FW_F4_V1.26.2/Middlewares/Third_Party/LwIP/src/core\tcp.c **** }
 3341              		.loc 1 2206 3 discriminator 3 view .LVU972
2206:c:/Users/Black_Life/STM32Cube/Repository/STM32Cube_FW_F4_V1.26.2/Middlewares/Third_Party/LwIP/src/core\tcp.c **** }
 3342              		.loc 1 2206 3 discriminator 3 view .LVU973
ARM GAS  C:\Users\BLACK_~1\AppData\Local\Temp\ccRovO0r.s 			page 117


2206:c:/Users/Black_Life/STM32Cube/Repository/STM32Cube_FW_F4_V1.26.2/Middlewares/Third_Party/LwIP/src/core\tcp.c **** }
 3343              		.loc 1 2206 3 discriminator 3 view .LVU974
2207:c:/Users/Black_Life/STM32Cube/Repository/STM32Cube_FW_F4_V1.26.2/Middlewares/Third_Party/LwIP/src/core\tcp.c **** 
 3344              		.loc 1 2207 1 is_stmt 0 discriminator 3 view .LVU975
 3345 00a4 38BD     		pop	{r3, r4, r5, pc}
 3346              	.LVL329:
 3347              	.L315:
2190:c:/Users/Black_Life/STM32Cube/Repository/STM32Cube_FW_F4_V1.26.2/Middlewares/Third_Party/LwIP/src/core\tcp.c ****     tcp_output(pcb);
 3348              		.loc 1 2190 5 is_stmt 1 view .LVU976
2190:c:/Users/Black_Life/STM32Cube/Repository/STM32Cube_FW_F4_V1.26.2/Middlewares/Third_Party/LwIP/src/core\tcp.c ****     tcp_output(pcb);
 3349              		.loc 1 2190 5 view .LVU977
 3350 00a6 43F00203 		orr	r3, r3, #2
 3351 00aa 6383     		strh	r3, [r4, #26]	@ movhi
2190:c:/Users/Black_Life/STM32Cube/Repository/STM32Cube_FW_F4_V1.26.2/Middlewares/Third_Party/LwIP/src/core\tcp.c ****     tcp_output(pcb);
 3352              		.loc 1 2190 5 view .LVU978
2191:c:/Users/Black_Life/STM32Cube/Repository/STM32Cube_FW_F4_V1.26.2/Middlewares/Third_Party/LwIP/src/core\tcp.c ****   }
 3353              		.loc 1 2191 5 view .LVU979
 3354 00ac 2046     		mov	r0, r4
 3355 00ae FFF7FEFF 		bl	tcp_output
 3356              	.LVL330:
 3357 00b2 D6E7     		b	.L305
 3358              	.L317:
 3359              		.align	2
 3360              	.L316:
 3361 00b4 00000000 		.word	.LC0
 3362 00b8 00000000 		.word	.LC28
 3363 00bc 98000000 		.word	.LC2
 3364 00c0 1C000000 		.word	.LC29
 3365 00c4 3C000000 		.word	.LC30
 3366 00c8 54000000 		.word	.LC31
 3367 00cc 70000000 		.word	.LC32
 3368              		.cfi_endproc
 3369              	.LFE200:
 3371              		.section	.rodata.tcp_abandon.str1.4,"aMS",%progbits,1
 3372              		.align	2
 3373              	.LC33:
 3374 0000 7463705F 		.ascii	"tcp_abandon: invalid pcb\000"
 3374      6162616E 
 3374      646F6E3A 
 3374      20696E76 
 3374      616C6964 
 3375 0019 000000   		.align	2
 3376              	.LC34:
 3377 001c 646F6E27 		.ascii	"don't call tcp_abort/tcp_abandon for listen-pcbs\000"
 3377      74206361 
 3377      6C6C2074 
 3377      63705F61 
 3377      626F7274 
 3378              		.section	.text.tcp_abandon,"ax",%progbits
 3379              		.align	1
 3380              		.global	tcp_abandon
 3381              		.syntax unified
 3382              		.thumb
 3383              		.thumb_func
 3385              	tcp_abandon:
 3386              	.LVL331:
 3387              	.LFB166:
ARM GAS  C:\Users\BLACK_~1\AppData\Local\Temp\ccRovO0r.s 			page 118


 564:c:/Users/Black_Life/STM32Cube/Repository/STM32Cube_FW_F4_V1.26.2/Middlewares/Third_Party/LwIP/src/core\tcp.c ****   u32_t seqno, ackno;
 3388              		.loc 1 564 1 view -0
 3389              		.cfi_startproc
 3390              		@ args = 0, pretend = 0, frame = 0
 3391              		@ frame_needed = 0, uses_anonymous_args = 0
 564:c:/Users/Black_Life/STM32Cube/Repository/STM32Cube_FW_F4_V1.26.2/Middlewares/Third_Party/LwIP/src/core\tcp.c ****   u32_t seqno, ackno;
 3392              		.loc 1 564 1 is_stmt 0 view .LVU981
 3393 0000 2DE9F047 		push	{r4, r5, r6, r7, r8, r9, r10, lr}
 3394              	.LCFI33:
 3395              		.cfi_def_cfa_offset 32
 3396              		.cfi_offset 4, -32
 3397              		.cfi_offset 5, -28
 3398              		.cfi_offset 6, -24
 3399              		.cfi_offset 7, -20
 3400              		.cfi_offset 8, -16
 3401              		.cfi_offset 9, -12
 3402              		.cfi_offset 10, -8
 3403              		.cfi_offset 14, -4
 3404 0004 84B0     		sub	sp, sp, #16
 3405              	.LCFI34:
 3406              		.cfi_def_cfa_offset 48
 565:c:/Users/Black_Life/STM32Cube/Repository/STM32Cube_FW_F4_V1.26.2/Middlewares/Third_Party/LwIP/src/core\tcp.c **** #if LWIP_CALLBACK_API
 3407              		.loc 1 565 3 is_stmt 1 view .LVU982
 567:c:/Users/Black_Life/STM32Cube/Repository/STM32Cube_FW_F4_V1.26.2/Middlewares/Third_Party/LwIP/src/core\tcp.c **** #endif /* LWIP_CALLBACK_API */
 3408              		.loc 1 567 3 view .LVU983
 569:c:/Users/Black_Life/STM32Cube/Repository/STM32Cube_FW_F4_V1.26.2/Middlewares/Third_Party/LwIP/src/core\tcp.c **** 
 3409              		.loc 1 569 3 view .LVU984
 571:c:/Users/Black_Life/STM32Cube/Repository/STM32Cube_FW_F4_V1.26.2/Middlewares/Third_Party/LwIP/src/core\tcp.c **** 
 3410              		.loc 1 571 28 view .LVU985
 573:c:/Users/Black_Life/STM32Cube/Repository/STM32Cube_FW_F4_V1.26.2/Middlewares/Third_Party/LwIP/src/core\tcp.c **** 
 3411              		.loc 1 573 3 view .LVU986
 573:c:/Users/Black_Life/STM32Cube/Repository/STM32Cube_FW_F4_V1.26.2/Middlewares/Third_Party/LwIP/src/core\tcp.c **** 
 3412              		.loc 1 573 3 view .LVU987
 3413 0006 F8B1     		cbz	r0, .L335
 3414 0008 0D46     		mov	r5, r1
 3415 000a 0446     		mov	r4, r0
 573:c:/Users/Black_Life/STM32Cube/Repository/STM32Cube_FW_F4_V1.26.2/Middlewares/Third_Party/LwIP/src/core\tcp.c **** 
 3416              		.loc 1 573 3 discriminator 2 view .LVU988
 576:c:/Users/Black_Life/STM32Cube/Repository/STM32Cube_FW_F4_V1.26.2/Middlewares/Third_Party/LwIP/src/core\tcp.c ****               pcb->state != LISTEN);
 3417              		.loc 1 576 3 discriminator 2 view .LVU989
 576:c:/Users/Black_Life/STM32Cube/Repository/STM32Cube_FW_F4_V1.26.2/Middlewares/Third_Party/LwIP/src/core\tcp.c ****               pcb->state != LISTEN);
 3418              		.loc 1 576 3 discriminator 2 view .LVU990
 3419 000c 037D     		ldrb	r3, [r0, #20]	@ zero_extendqisi2
 3420 000e 012B     		cmp	r3, #1
 3421 0010 22D0     		beq	.L336
 3422              	.LVL332:
 3423              	.L321:
 576:c:/Users/Black_Life/STM32Cube/Repository/STM32Cube_FW_F4_V1.26.2/Middlewares/Third_Party/LwIP/src/core\tcp.c ****               pcb->state != LISTEN);
 3424              		.loc 1 576 3 discriminator 3 view .LVU991
 576:c:/Users/Black_Life/STM32Cube/Repository/STM32Cube_FW_F4_V1.26.2/Middlewares/Third_Party/LwIP/src/core\tcp.c ****               pcb->state != LISTEN);
 3425              		.loc 1 576 3 discriminator 3 view .LVU992
 581:c:/Users/Black_Life/STM32Cube/Repository/STM32Cube_FW_F4_V1.26.2/Middlewares/Third_Party/LwIP/src/core\tcp.c ****     tcp_pcb_remove(&tcp_tw_pcbs, pcb);
 3426              		.loc 1 581 3 discriminator 3 view .LVU993
 581:c:/Users/Black_Life/STM32Cube/Repository/STM32Cube_FW_F4_V1.26.2/Middlewares/Third_Party/LwIP/src/core\tcp.c ****     tcp_pcb_remove(&tcp_tw_pcbs, pcb);
 3427              		.loc 1 581 10 is_stmt 0 discriminator 3 view .LVU994
 3428 0012 237D     		ldrb	r3, [r4, #20]	@ zero_extendqisi2
 581:c:/Users/Black_Life/STM32Cube/Repository/STM32Cube_FW_F4_V1.26.2/Middlewares/Third_Party/LwIP/src/core\tcp.c ****     tcp_pcb_remove(&tcp_tw_pcbs, pcb);
ARM GAS  C:\Users\BLACK_~1\AppData\Local\Temp\ccRovO0r.s 			page 119


 3429              		.loc 1 581 6 discriminator 3 view .LVU995
 3430 0014 0A2B     		cmp	r3, #10
 3431 0016 27D0     		beq	.L337
 3432              	.LBB16:
 585:c:/Users/Black_Life/STM32Cube/Repository/STM32Cube_FW_F4_V1.26.2/Middlewares/Third_Party/LwIP/src/core\tcp.c ****     u16_t local_port = 0;
 3433              		.loc 1 585 5 is_stmt 1 view .LVU996
 3434              	.LVL333:
 586:c:/Users/Black_Life/STM32Cube/Repository/STM32Cube_FW_F4_V1.26.2/Middlewares/Third_Party/LwIP/src/core\tcp.c ****     enum tcp_state last_state;
 3435              		.loc 1 586 5 view .LVU997
 587:c:/Users/Black_Life/STM32Cube/Repository/STM32Cube_FW_F4_V1.26.2/Middlewares/Third_Party/LwIP/src/core\tcp.c ****     seqno = pcb->snd_nxt;
 3436              		.loc 1 587 5 view .LVU998
 588:c:/Users/Black_Life/STM32Cube/Repository/STM32Cube_FW_F4_V1.26.2/Middlewares/Third_Party/LwIP/src/core\tcp.c ****     ackno = pcb->rcv_nxt;
 3437              		.loc 1 588 5 view .LVU999
 588:c:/Users/Black_Life/STM32Cube/Repository/STM32Cube_FW_F4_V1.26.2/Middlewares/Third_Party/LwIP/src/core\tcp.c ****     ackno = pcb->rcv_nxt;
 3438              		.loc 1 588 11 is_stmt 0 view .LVU1000
 3439 0018 D4F85080 		ldr	r8, [r4, #80]
 3440              	.LVL334:
 589:c:/Users/Black_Life/STM32Cube/Repository/STM32Cube_FW_F4_V1.26.2/Middlewares/Third_Party/LwIP/src/core\tcp.c **** #if LWIP_CALLBACK_API
 3441              		.loc 1 589 5 is_stmt 1 view .LVU1001
 589:c:/Users/Black_Life/STM32Cube/Repository/STM32Cube_FW_F4_V1.26.2/Middlewares/Third_Party/LwIP/src/core\tcp.c **** #if LWIP_CALLBACK_API
 3442              		.loc 1 589 11 is_stmt 0 view .LVU1002
 3443 001c D4F82490 		ldr	r9, [r4, #36]
 3444              	.LVL335:
 591:c:/Users/Black_Life/STM32Cube/Repository/STM32Cube_FW_F4_V1.26.2/Middlewares/Third_Party/LwIP/src/core\tcp.c **** #endif /* LWIP_CALLBACK_API */
 3445              		.loc 1 591 5 is_stmt 1 view .LVU1003
 591:c:/Users/Black_Life/STM32Cube/Repository/STM32Cube_FW_F4_V1.26.2/Middlewares/Third_Party/LwIP/src/core\tcp.c **** #endif /* LWIP_CALLBACK_API */
 3446              		.loc 1 591 10 is_stmt 0 view .LVU1004
 3447 0020 D4F89060 		ldr	r6, [r4, #144]
 3448              	.LVL336:
 593:c:/Users/Black_Life/STM32Cube/Repository/STM32Cube_FW_F4_V1.26.2/Middlewares/Third_Party/LwIP/src/core\tcp.c ****     if (pcb->state == CLOSED) {
 3449              		.loc 1 593 5 is_stmt 1 view .LVU1005
 593:c:/Users/Black_Life/STM32Cube/Repository/STM32Cube_FW_F4_V1.26.2/Middlewares/Third_Party/LwIP/src/core\tcp.c ****     if (pcb->state == CLOSED) {
 3450              		.loc 1 593 14 is_stmt 0 view .LVU1006
 3451 0024 2769     		ldr	r7, [r4, #16]
 3452              	.LVL337:
 594:c:/Users/Black_Life/STM32Cube/Repository/STM32Cube_FW_F4_V1.26.2/Middlewares/Third_Party/LwIP/src/core\tcp.c ****       if (pcb->local_port != 0) {
 3453              		.loc 1 594 5 is_stmt 1 view .LVU1007
 594:c:/Users/Black_Life/STM32Cube/Repository/STM32Cube_FW_F4_V1.26.2/Middlewares/Third_Party/LwIP/src/core\tcp.c ****       if (pcb->local_port != 0) {
 3454              		.loc 1 594 8 is_stmt 0 view .LVU1008
 3455 0026 002B     		cmp	r3, #0
 3456 0028 47D1     		bne	.L323
 595:c:/Users/Black_Life/STM32Cube/Repository/STM32Cube_FW_F4_V1.26.2/Middlewares/Third_Party/LwIP/src/core\tcp.c ****         /* bound, not yet opened */
 3457              		.loc 1 595 7 is_stmt 1 view .LVU1009
 595:c:/Users/Black_Life/STM32Cube/Repository/STM32Cube_FW_F4_V1.26.2/Middlewares/Third_Party/LwIP/src/core\tcp.c ****         /* bound, not yet opened */
 3458              		.loc 1 595 14 is_stmt 0 view .LVU1010
 3459 002a B4F816A0 		ldrh	r10, [r4, #22]
 595:c:/Users/Black_Life/STM32Cube/Repository/STM32Cube_FW_F4_V1.26.2/Middlewares/Third_Party/LwIP/src/core\tcp.c ****         /* bound, not yet opened */
 3460              		.loc 1 595 10 view .LVU1011
 3461 002e BAF1000F 		cmp	r10, #0
 3462 0032 4CD0     		beq	.L332
 597:c:/Users/Black_Life/STM32Cube/Repository/STM32Cube_FW_F4_V1.26.2/Middlewares/Third_Party/LwIP/src/core\tcp.c ****       }
 3463              		.loc 1 597 9 is_stmt 1 view .LVU1012
 597:c:/Users/Black_Life/STM32Cube/Repository/STM32Cube_FW_F4_V1.26.2/Middlewares/Third_Party/LwIP/src/core\tcp.c ****       }
 3464              		.loc 1 597 9 view .LVU1013
 3465 0034 2D4B     		ldr	r3, .L341
 3466 0036 1B68     		ldr	r3, [r3]
 3467 0038 A342     		cmp	r3, r4
ARM GAS  C:\Users\BLACK_~1\AppData\Local\Temp\ccRovO0r.s 			page 120


 3468 003a 1DD0     		beq	.L338
 3469              	.L325:
 3470              	.LVL338:
 3471              	.LBB17:
 597:c:/Users/Black_Life/STM32Cube/Repository/STM32Cube_FW_F4_V1.26.2/Middlewares/Third_Party/LwIP/src/core\tcp.c ****       }
 3472              		.loc 1 597 9 discriminator 8 view .LVU1014
 3473 003c 13B3     		cbz	r3, .L326
 597:c:/Users/Black_Life/STM32Cube/Repository/STM32Cube_FW_F4_V1.26.2/Middlewares/Third_Party/LwIP/src/core\tcp.c ****       }
 3474              		.loc 1 597 9 discriminator 9 view .LVU1015
 3475 003e DA68     		ldr	r2, [r3, #12]
 3476 0040 A242     		cmp	r2, r4
 3477 0042 1DD0     		beq	.L339
 597:c:/Users/Black_Life/STM32Cube/Repository/STM32Cube_FW_F4_V1.26.2/Middlewares/Third_Party/LwIP/src/core\tcp.c ****       }
 3478              		.loc 1 597 9 is_stmt 0 view .LVU1016
 3479 0044 1346     		mov	r3, r2
 3480              	.LVL339:
 597:c:/Users/Black_Life/STM32Cube/Repository/STM32Cube_FW_F4_V1.26.2/Middlewares/Third_Party/LwIP/src/core\tcp.c ****       }
 3481              		.loc 1 597 9 view .LVU1017
 3482 0046 F9E7     		b	.L325
 3483              	.LVL340:
 3484              	.L335:
 597:c:/Users/Black_Life/STM32Cube/Repository/STM32Cube_FW_F4_V1.26.2/Middlewares/Third_Party/LwIP/src/core\tcp.c ****       }
 3485              		.loc 1 597 9 view .LVU1018
 3486              	.LBE17:
 3487              	.LBE16:
 573:c:/Users/Black_Life/STM32Cube/Repository/STM32Cube_FW_F4_V1.26.2/Middlewares/Third_Party/LwIP/src/core\tcp.c **** 
 3488              		.loc 1 573 3 is_stmt 1 discriminator 1 view .LVU1019
 573:c:/Users/Black_Life/STM32Cube/Repository/STM32Cube_FW_F4_V1.26.2/Middlewares/Third_Party/LwIP/src/core\tcp.c **** 
 3489              		.loc 1 573 3 discriminator 1 view .LVU1020
 3490 0048 294B     		ldr	r3, .L341+4
 3491 004a 40F23D22 		movw	r2, #573
 3492 004e 2949     		ldr	r1, .L341+8
 3493              	.LVL341:
 573:c:/Users/Black_Life/STM32Cube/Repository/STM32Cube_FW_F4_V1.26.2/Middlewares/Third_Party/LwIP/src/core\tcp.c **** 
 3494              		.loc 1 573 3 is_stmt 0 discriminator 1 view .LVU1021
 3495 0050 2948     		ldr	r0, .L341+12
 3496              	.LVL342:
 573:c:/Users/Black_Life/STM32Cube/Repository/STM32Cube_FW_F4_V1.26.2/Middlewares/Third_Party/LwIP/src/core\tcp.c **** 
 3497              		.loc 1 573 3 discriminator 1 view .LVU1022
 3498 0052 FFF7FEFF 		bl	printf
 3499              	.LVL343:
 573:c:/Users/Black_Life/STM32Cube/Repository/STM32Cube_FW_F4_V1.26.2/Middlewares/Third_Party/LwIP/src/core\tcp.c **** 
 3500              		.loc 1 573 3 is_stmt 1 discriminator 1 view .LVU1023
 573:c:/Users/Black_Life/STM32Cube/Repository/STM32Cube_FW_F4_V1.26.2/Middlewares/Third_Party/LwIP/src/core\tcp.c **** 
 3501              		.loc 1 573 3 discriminator 1 view .LVU1024
 3502 0056 2DE0     		b	.L318
 3503              	.LVL344:
 3504              	.L336:
 576:c:/Users/Black_Life/STM32Cube/Repository/STM32Cube_FW_F4_V1.26.2/Middlewares/Third_Party/LwIP/src/core\tcp.c ****               pcb->state != LISTEN);
 3505              		.loc 1 576 3 discriminator 1 view .LVU1025
 576:c:/Users/Black_Life/STM32Cube/Repository/STM32Cube_FW_F4_V1.26.2/Middlewares/Third_Party/LwIP/src/core\tcp.c ****               pcb->state != LISTEN);
 3506              		.loc 1 576 3 discriminator 1 view .LVU1026
 3507 0058 254B     		ldr	r3, .L341+4
 3508 005a 4FF41072 		mov	r2, #576
 3509 005e 2749     		ldr	r1, .L341+16
 3510              	.LVL345:
 576:c:/Users/Black_Life/STM32Cube/Repository/STM32Cube_FW_F4_V1.26.2/Middlewares/Third_Party/LwIP/src/core\tcp.c ****               pcb->state != LISTEN);
ARM GAS  C:\Users\BLACK_~1\AppData\Local\Temp\ccRovO0r.s 			page 121


 3511              		.loc 1 576 3 is_stmt 0 discriminator 1 view .LVU1027
 3512 0060 2548     		ldr	r0, .L341+12
 3513              	.LVL346:
 576:c:/Users/Black_Life/STM32Cube/Repository/STM32Cube_FW_F4_V1.26.2/Middlewares/Third_Party/LwIP/src/core\tcp.c ****               pcb->state != LISTEN);
 3514              		.loc 1 576 3 discriminator 1 view .LVU1028
 3515 0062 FFF7FEFF 		bl	printf
 3516              	.LVL347:
 3517 0066 D4E7     		b	.L321
 3518              	.L337:
 582:c:/Users/Black_Life/STM32Cube/Repository/STM32Cube_FW_F4_V1.26.2/Middlewares/Third_Party/LwIP/src/core\tcp.c ****     tcp_free(pcb);
 3519              		.loc 1 582 5 is_stmt 1 view .LVU1029
 3520 0068 2146     		mov	r1, r4
 3521 006a 2548     		ldr	r0, .L341+20
 3522 006c FFF7FEFF 		bl	tcp_pcb_remove
 3523              	.LVL348:
 583:c:/Users/Black_Life/STM32Cube/Repository/STM32Cube_FW_F4_V1.26.2/Middlewares/Third_Party/LwIP/src/core\tcp.c ****   } else {
 3524              		.loc 1 583 5 view .LVU1030
 3525 0070 2046     		mov	r0, r4
 3526 0072 FFF7FEFF 		bl	tcp_free
 3527              	.LVL349:
 3528 0076 1DE0     		b	.L318
 3529              	.LVL350:
 3530              	.L338:
 3531              	.LBB19:
 597:c:/Users/Black_Life/STM32Cube/Repository/STM32Cube_FW_F4_V1.26.2/Middlewares/Third_Party/LwIP/src/core\tcp.c ****       }
 3532              		.loc 1 597 9 discriminator 1 view .LVU1031
 3533 0078 DA68     		ldr	r2, [r3, #12]
 3534 007a 1C4B     		ldr	r3, .L341
 3535 007c 1A60     		str	r2, [r3]
 3536 007e 01E0     		b	.L326
 3537              	.LVL351:
 3538              	.L339:
 3539              	.LBB18:
 597:c:/Users/Black_Life/STM32Cube/Repository/STM32Cube_FW_F4_V1.26.2/Middlewares/Third_Party/LwIP/src/core\tcp.c ****       }
 3540              		.loc 1 597 9 discriminator 5 view .LVU1032
 3541 0080 E268     		ldr	r2, [r4, #12]
 3542 0082 DA60     		str	r2, [r3, #12]
 597:c:/Users/Black_Life/STM32Cube/Repository/STM32Cube_FW_F4_V1.26.2/Middlewares/Third_Party/LwIP/src/core\tcp.c ****       }
 3543              		.loc 1 597 9 discriminator 5 view .LVU1033
 3544              	.LVL352:
 3545              	.L326:
 597:c:/Users/Black_Life/STM32Cube/Repository/STM32Cube_FW_F4_V1.26.2/Middlewares/Third_Party/LwIP/src/core\tcp.c ****       }
 3546              		.loc 1 597 9 is_stmt 0 discriminator 5 view .LVU1034
 3547              	.LBE18:
 597:c:/Users/Black_Life/STM32Cube/Repository/STM32Cube_FW_F4_V1.26.2/Middlewares/Third_Party/LwIP/src/core\tcp.c ****       }
 3548              		.loc 1 597 9 is_stmt 1 discriminator 10 view .LVU1035
 3549 0084 0025     		movs	r5, #0
 3550              	.LVL353:
 597:c:/Users/Black_Life/STM32Cube/Repository/STM32Cube_FW_F4_V1.26.2/Middlewares/Third_Party/LwIP/src/core\tcp.c ****       }
 3551              		.loc 1 597 9 is_stmt 0 discriminator 10 view .LVU1036
 3552 0086 E560     		str	r5, [r4, #12]
 586:c:/Users/Black_Life/STM32Cube/Repository/STM32Cube_FW_F4_V1.26.2/Middlewares/Third_Party/LwIP/src/core\tcp.c ****     enum tcp_state last_state;
 3553              		.loc 1 586 11 discriminator 10 view .LVU1037
 3554 0088 AA46     		mov	r10, r5
 3555              	.LVL354:
 3556              	.L324:
 602:c:/Users/Black_Life/STM32Cube/Repository/STM32Cube_FW_F4_V1.26.2/Middlewares/Third_Party/LwIP/src/core\tcp.c ****     }
ARM GAS  C:\Users\BLACK_~1\AppData\Local\Temp\ccRovO0r.s 			page 122


 3557              		.loc 1 602 7 is_stmt 1 discriminator 1 view .LVU1038
 604:c:/Users/Black_Life/STM32Cube/Repository/STM32Cube_FW_F4_V1.26.2/Middlewares/Third_Party/LwIP/src/core\tcp.c ****       tcp_segs_free(pcb->unacked);
 3558              		.loc 1 604 5 discriminator 1 view .LVU1039
 604:c:/Users/Black_Life/STM32Cube/Repository/STM32Cube_FW_F4_V1.26.2/Middlewares/Third_Party/LwIP/src/core\tcp.c ****       tcp_segs_free(pcb->unacked);
 3559              		.loc 1 604 12 is_stmt 0 discriminator 1 view .LVU1040
 3560 008a 206F     		ldr	r0, [r4, #112]
 604:c:/Users/Black_Life/STM32Cube/Repository/STM32Cube_FW_F4_V1.26.2/Middlewares/Third_Party/LwIP/src/core\tcp.c ****       tcp_segs_free(pcb->unacked);
 3561              		.loc 1 604 8 discriminator 1 view .LVU1041
 3562 008c 08B1     		cbz	r0, .L328
 605:c:/Users/Black_Life/STM32Cube/Repository/STM32Cube_FW_F4_V1.26.2/Middlewares/Third_Party/LwIP/src/core\tcp.c ****     }
 3563              		.loc 1 605 7 is_stmt 1 view .LVU1042
 3564 008e FFF7FEFF 		bl	tcp_segs_free
 3565              	.LVL355:
 3566              	.L328:
 607:c:/Users/Black_Life/STM32Cube/Repository/STM32Cube_FW_F4_V1.26.2/Middlewares/Third_Party/LwIP/src/core\tcp.c ****       tcp_segs_free(pcb->unsent);
 3567              		.loc 1 607 5 view .LVU1043
 607:c:/Users/Black_Life/STM32Cube/Repository/STM32Cube_FW_F4_V1.26.2/Middlewares/Third_Party/LwIP/src/core\tcp.c ****       tcp_segs_free(pcb->unsent);
 3568              		.loc 1 607 12 is_stmt 0 view .LVU1044
 3569 0092 E06E     		ldr	r0, [r4, #108]
 607:c:/Users/Black_Life/STM32Cube/Repository/STM32Cube_FW_F4_V1.26.2/Middlewares/Third_Party/LwIP/src/core\tcp.c ****       tcp_segs_free(pcb->unsent);
 3570              		.loc 1 607 8 view .LVU1045
 3571 0094 08B1     		cbz	r0, .L329
 608:c:/Users/Black_Life/STM32Cube/Repository/STM32Cube_FW_F4_V1.26.2/Middlewares/Third_Party/LwIP/src/core\tcp.c ****     }
 3572              		.loc 1 608 7 is_stmt 1 view .LVU1046
 3573 0096 FFF7FEFF 		bl	tcp_segs_free
 3574              	.LVL356:
 3575              	.L329:
 611:c:/Users/Black_Life/STM32Cube/Repository/STM32Cube_FW_F4_V1.26.2/Middlewares/Third_Party/LwIP/src/core\tcp.c ****       tcp_segs_free(pcb->ooseq);
 3576              		.loc 1 611 5 view .LVU1047
 611:c:/Users/Black_Life/STM32Cube/Repository/STM32Cube_FW_F4_V1.26.2/Middlewares/Third_Party/LwIP/src/core\tcp.c ****       tcp_segs_free(pcb->ooseq);
 3577              		.loc 1 611 12 is_stmt 0 view .LVU1048
 3578 009a 606F     		ldr	r0, [r4, #116]
 611:c:/Users/Black_Life/STM32Cube/Repository/STM32Cube_FW_F4_V1.26.2/Middlewares/Third_Party/LwIP/src/core\tcp.c ****       tcp_segs_free(pcb->ooseq);
 3579              		.loc 1 611 8 view .LVU1049
 3580 009c 08B1     		cbz	r0, .L330
 612:c:/Users/Black_Life/STM32Cube/Repository/STM32Cube_FW_F4_V1.26.2/Middlewares/Third_Party/LwIP/src/core\tcp.c ****     }
 3581              		.loc 1 612 7 is_stmt 1 view .LVU1050
 3582 009e FFF7FEFF 		bl	tcp_segs_free
 3583              	.LVL357:
 3584              	.L330:
 615:c:/Users/Black_Life/STM32Cube/Repository/STM32Cube_FW_F4_V1.26.2/Middlewares/Third_Party/LwIP/src/core\tcp.c ****     if (send_rst) {
 3585              		.loc 1 615 30 view .LVU1051
 616:c:/Users/Black_Life/STM32Cube/Repository/STM32Cube_FW_F4_V1.26.2/Middlewares/Third_Party/LwIP/src/core\tcp.c ****       LWIP_DEBUGF(TCP_RST_DEBUG, ("tcp_abandon: sending RST\n"));
 3586              		.loc 1 616 5 view .LVU1052
 616:c:/Users/Black_Life/STM32Cube/Repository/STM32Cube_FW_F4_V1.26.2/Middlewares/Third_Party/LwIP/src/core\tcp.c ****       LWIP_DEBUGF(TCP_RST_DEBUG, ("tcp_abandon: sending RST\n"));
 3587              		.loc 1 616 8 is_stmt 0 view .LVU1053
 3588 00a2 B5B9     		cbnz	r5, .L340
 3589              	.L331:
 620:c:/Users/Black_Life/STM32Cube/Repository/STM32Cube_FW_F4_V1.26.2/Middlewares/Third_Party/LwIP/src/core\tcp.c ****     tcp_free(pcb);
 3590              		.loc 1 620 5 is_stmt 1 view .LVU1054
 3591              	.LVL358:
 621:c:/Users/Black_Life/STM32Cube/Repository/STM32Cube_FW_F4_V1.26.2/Middlewares/Third_Party/LwIP/src/core\tcp.c ****     TCP_EVENT_ERR(last_state, errf, errf_arg, ERR_ABRT);
 3592              		.loc 1 621 5 view .LVU1055
 3593 00a4 2046     		mov	r0, r4
 3594 00a6 FFF7FEFF 		bl	tcp_free
 3595              	.LVL359:
 622:c:/Users/Black_Life/STM32Cube/Repository/STM32Cube_FW_F4_V1.26.2/Middlewares/Third_Party/LwIP/src/core\tcp.c ****   }
ARM GAS  C:\Users\BLACK_~1\AppData\Local\Temp\ccRovO0r.s 			page 123


 3596              		.loc 1 622 5 view .LVU1056
 622:c:/Users/Black_Life/STM32Cube/Repository/STM32Cube_FW_F4_V1.26.2/Middlewares/Third_Party/LwIP/src/core\tcp.c ****   }
 3597              		.loc 1 622 5 view .LVU1057
 622:c:/Users/Black_Life/STM32Cube/Repository/STM32Cube_FW_F4_V1.26.2/Middlewares/Third_Party/LwIP/src/core\tcp.c ****   }
 3598              		.loc 1 622 5 view .LVU1058
 3599 00aa 1EB1     		cbz	r6, .L318
 622:c:/Users/Black_Life/STM32Cube/Repository/STM32Cube_FW_F4_V1.26.2/Middlewares/Third_Party/LwIP/src/core\tcp.c ****   }
 3600              		.loc 1 622 5 discriminator 1 view .LVU1059
 3601 00ac 6FF00C01 		mvn	r1, #12
 3602 00b0 3846     		mov	r0, r7
 3603 00b2 B047     		blx	r6
 3604              	.LVL360:
 622:c:/Users/Black_Life/STM32Cube/Repository/STM32Cube_FW_F4_V1.26.2/Middlewares/Third_Party/LwIP/src/core\tcp.c ****   }
 3605              		.loc 1 622 5 discriminator 1 view .LVU1060
 3606              	.L318:
 622:c:/Users/Black_Life/STM32Cube/Repository/STM32Cube_FW_F4_V1.26.2/Middlewares/Third_Party/LwIP/src/core\tcp.c ****   }
 3607              		.loc 1 622 5 is_stmt 0 discriminator 1 view .LVU1061
 3608              	.LBE19:
 624:c:/Users/Black_Life/STM32Cube/Repository/STM32Cube_FW_F4_V1.26.2/Middlewares/Third_Party/LwIP/src/core\tcp.c **** 
 3609              		.loc 1 624 1 view .LVU1062
 3610 00b4 04B0     		add	sp, sp, #16
 3611              	.LCFI35:
 3612              		.cfi_remember_state
 3613              		.cfi_def_cfa_offset 32
 3614              		@ sp needed
 3615 00b6 BDE8F087 		pop	{r4, r5, r6, r7, r8, r9, r10, pc}
 3616              	.LVL361:
 3617              	.L323:
 3618              	.LCFI36:
 3619              		.cfi_restore_state
 3620              	.LBB20:
 600:c:/Users/Black_Life/STM32Cube/Repository/STM32Cube_FW_F4_V1.26.2/Middlewares/Third_Party/LwIP/src/core\tcp.c ****       local_port = pcb->local_port;
 3621              		.loc 1 600 7 is_stmt 1 view .LVU1063
 601:c:/Users/Black_Life/STM32Cube/Repository/STM32Cube_FW_F4_V1.26.2/Middlewares/Third_Party/LwIP/src/core\tcp.c ****       TCP_PCB_REMOVE_ACTIVE(pcb);
 3622              		.loc 1 601 7 view .LVU1064
 601:c:/Users/Black_Life/STM32Cube/Repository/STM32Cube_FW_F4_V1.26.2/Middlewares/Third_Party/LwIP/src/core\tcp.c ****       TCP_PCB_REMOVE_ACTIVE(pcb);
 3623              		.loc 1 601 18 is_stmt 0 view .LVU1065
 3624 00ba B4F816A0 		ldrh	r10, [r4, #22]
 3625              	.LVL362:
 602:c:/Users/Black_Life/STM32Cube/Repository/STM32Cube_FW_F4_V1.26.2/Middlewares/Third_Party/LwIP/src/core\tcp.c ****     }
 3626              		.loc 1 602 7 is_stmt 1 view .LVU1066
 602:c:/Users/Black_Life/STM32Cube/Repository/STM32Cube_FW_F4_V1.26.2/Middlewares/Third_Party/LwIP/src/core\tcp.c ****     }
 3627              		.loc 1 602 7 view .LVU1067
 3628 00be 2146     		mov	r1, r4
 3629 00c0 1048     		ldr	r0, .L341+24
 3630 00c2 FFF7FEFF 		bl	tcp_pcb_remove
 3631              	.LVL363:
 602:c:/Users/Black_Life/STM32Cube/Repository/STM32Cube_FW_F4_V1.26.2/Middlewares/Third_Party/LwIP/src/core\tcp.c ****     }
 3632              		.loc 1 602 7 view .LVU1068
 3633 00c6 104B     		ldr	r3, .L341+28
 3634 00c8 0122     		movs	r2, #1
 3635 00ca 1A70     		strb	r2, [r3]
 3636 00cc DDE7     		b	.L324
 3637              	.LVL364:
 3638              	.L332:
 585:c:/Users/Black_Life/STM32Cube/Repository/STM32Cube_FW_F4_V1.26.2/Middlewares/Third_Party/LwIP/src/core\tcp.c ****     u16_t local_port = 0;
 3639              		.loc 1 585 9 is_stmt 0 view .LVU1069
ARM GAS  C:\Users\BLACK_~1\AppData\Local\Temp\ccRovO0r.s 			page 124


 3640 00ce 0025     		movs	r5, #0
 3641              	.LVL365:
 585:c:/Users/Black_Life/STM32Cube/Repository/STM32Cube_FW_F4_V1.26.2/Middlewares/Third_Party/LwIP/src/core\tcp.c ****     u16_t local_port = 0;
 3642              		.loc 1 585 9 view .LVU1070
 3643 00d0 DBE7     		b	.L324
 3644              	.LVL366:
 3645              	.L340:
 617:c:/Users/Black_Life/STM32Cube/Repository/STM32Cube_FW_F4_V1.26.2/Middlewares/Third_Party/LwIP/src/core\tcp.c ****       tcp_rst(pcb, seqno, ackno, &pcb->local_ip, &pcb->remote_ip, local_port, pcb->remote_port);
 3646              		.loc 1 617 65 is_stmt 1 view .LVU1071
 618:c:/Users/Black_Life/STM32Cube/Repository/STM32Cube_FW_F4_V1.26.2/Middlewares/Third_Party/LwIP/src/core\tcp.c ****     }
 3647              		.loc 1 618 7 view .LVU1072
 618:c:/Users/Black_Life/STM32Cube/Repository/STM32Cube_FW_F4_V1.26.2/Middlewares/Third_Party/LwIP/src/core\tcp.c ****     }
 3648              		.loc 1 618 50 is_stmt 0 view .LVU1073
 3649 00d2 231D     		adds	r3, r4, #4
 618:c:/Users/Black_Life/STM32Cube/Repository/STM32Cube_FW_F4_V1.26.2/Middlewares/Third_Party/LwIP/src/core\tcp.c ****     }
 3650              		.loc 1 618 7 view .LVU1074
 3651 00d4 228B     		ldrh	r2, [r4, #24]
 3652 00d6 0292     		str	r2, [sp, #8]
 3653 00d8 CDF804A0 		str	r10, [sp, #4]
 3654 00dc 0093     		str	r3, [sp]
 3655 00de 2346     		mov	r3, r4
 3656 00e0 4A46     		mov	r2, r9
 3657 00e2 4146     		mov	r1, r8
 3658 00e4 2046     		mov	r0, r4
 3659 00e6 FFF7FEFF 		bl	tcp_rst
 3660              	.LVL367:
 3661 00ea DBE7     		b	.L331
 3662              	.L342:
 3663              		.align	2
 3664              	.L341:
 3665 00ec 00000000 		.word	.LANCHOR3
 3666 00f0 00000000 		.word	.LC0
 3667 00f4 00000000 		.word	.LC33
 3668 00f8 98000000 		.word	.LC2
 3669 00fc 1C000000 		.word	.LC34
 3670 0100 00000000 		.word	.LANCHOR9
 3671 0104 00000000 		.word	.LANCHOR2
 3672 0108 00000000 		.word	.LANCHOR7
 3673              	.LBE20:
 3674              		.cfi_endproc
 3675              	.LFE166:
 3677              		.section	.text.tcp_abort,"ax",%progbits
 3678              		.align	1
 3679              		.global	tcp_abort
 3680              		.syntax unified
 3681              		.thumb
 3682              		.thumb_func
 3684              	tcp_abort:
 3685              	.LVL368:
 3686              	.LFB167:
 639:c:/Users/Black_Life/STM32Cube/Repository/STM32Cube_FW_F4_V1.26.2/Middlewares/Third_Party/LwIP/src/core\tcp.c ****   tcp_abandon(pcb, 1);
 3687              		.loc 1 639 1 is_stmt 1 view -0
 3688              		.cfi_startproc
 3689              		@ args = 0, pretend = 0, frame = 0
 3690              		@ frame_needed = 0, uses_anonymous_args = 0
 639:c:/Users/Black_Life/STM32Cube/Repository/STM32Cube_FW_F4_V1.26.2/Middlewares/Third_Party/LwIP/src/core\tcp.c ****   tcp_abandon(pcb, 1);
 3691              		.loc 1 639 1 is_stmt 0 view .LVU1076
ARM GAS  C:\Users\BLACK_~1\AppData\Local\Temp\ccRovO0r.s 			page 125


 3692 0000 08B5     		push	{r3, lr}
 3693              	.LCFI37:
 3694              		.cfi_def_cfa_offset 8
 3695              		.cfi_offset 3, -8
 3696              		.cfi_offset 14, -4
 640:c:/Users/Black_Life/STM32Cube/Repository/STM32Cube_FW_F4_V1.26.2/Middlewares/Third_Party/LwIP/src/core\tcp.c **** }
 3697              		.loc 1 640 3 is_stmt 1 view .LVU1077
 3698 0002 0121     		movs	r1, #1
 3699 0004 FFF7FEFF 		bl	tcp_abandon
 3700              	.LVL369:
 641:c:/Users/Black_Life/STM32Cube/Repository/STM32Cube_FW_F4_V1.26.2/Middlewares/Third_Party/LwIP/src/core\tcp.c **** 
 3701              		.loc 1 641 1 is_stmt 0 view .LVU1078
 3702 0008 08BD     		pop	{r3, pc}
 3703              		.cfi_endproc
 3704              	.LFE167:
 3706              		.section	.rodata.tcp_accept_null.str1.4,"aMS",%progbits,1
 3707              		.align	2
 3708              	.LC35:
 3709 0000 7463705F 		.ascii	"tcp_accept_null: invalid pcb\000"
 3709      61636365 
 3709      70745F6E 
 3709      756C6C3A 
 3709      20696E76 
 3710              		.section	.text.tcp_accept_null,"ax",%progbits
 3711              		.align	1
 3712              		.syntax unified
 3713              		.thumb
 3714              		.thumb_func
 3716              	tcp_accept_null:
 3717              	.LVL370:
 3718              	.LFB170:
 779:c:/Users/Black_Life/STM32Cube/Repository/STM32Cube_FW_F4_V1.26.2/Middlewares/Third_Party/LwIP/src/core\tcp.c ****   LWIP_UNUSED_ARG(arg);
 3719              		.loc 1 779 1 is_stmt 1 view -0
 3720              		.cfi_startproc
 3721              		@ args = 0, pretend = 0, frame = 0
 3722              		@ frame_needed = 0, uses_anonymous_args = 0
 779:c:/Users/Black_Life/STM32Cube/Repository/STM32Cube_FW_F4_V1.26.2/Middlewares/Third_Party/LwIP/src/core\tcp.c ****   LWIP_UNUSED_ARG(arg);
 3723              		.loc 1 779 1 is_stmt 0 view .LVU1080
 3724 0000 10B5     		push	{r4, lr}
 3725              	.LCFI38:
 3726              		.cfi_def_cfa_offset 8
 3727              		.cfi_offset 4, -8
 3728              		.cfi_offset 14, -4
 780:c:/Users/Black_Life/STM32Cube/Repository/STM32Cube_FW_F4_V1.26.2/Middlewares/Third_Party/LwIP/src/core\tcp.c ****   LWIP_UNUSED_ARG(err);
 3729              		.loc 1 780 3 is_stmt 1 view .LVU1081
 781:c:/Users/Black_Life/STM32Cube/Repository/STM32Cube_FW_F4_V1.26.2/Middlewares/Third_Party/LwIP/src/core\tcp.c **** 
 3730              		.loc 1 781 3 view .LVU1082
 783:c:/Users/Black_Life/STM32Cube/Repository/STM32Cube_FW_F4_V1.26.2/Middlewares/Third_Party/LwIP/src/core\tcp.c **** 
 3731              		.loc 1 783 3 view .LVU1083
 783:c:/Users/Black_Life/STM32Cube/Repository/STM32Cube_FW_F4_V1.26.2/Middlewares/Third_Party/LwIP/src/core\tcp.c **** 
 3732              		.loc 1 783 3 view .LVU1084
 3733 0002 0C46     		mov	r4, r1
 3734 0004 29B1     		cbz	r1, .L348
 3735              	.LVL371:
 3736              	.L346:
 783:c:/Users/Black_Life/STM32Cube/Repository/STM32Cube_FW_F4_V1.26.2/Middlewares/Third_Party/LwIP/src/core\tcp.c **** 
 3737              		.loc 1 783 3 discriminator 3 view .LVU1085
ARM GAS  C:\Users\BLACK_~1\AppData\Local\Temp\ccRovO0r.s 			page 126


 783:c:/Users/Black_Life/STM32Cube/Repository/STM32Cube_FW_F4_V1.26.2/Middlewares/Third_Party/LwIP/src/core\tcp.c **** 
 3738              		.loc 1 783 3 discriminator 3 view .LVU1086
 785:c:/Users/Black_Life/STM32Cube/Repository/STM32Cube_FW_F4_V1.26.2/Middlewares/Third_Party/LwIP/src/core\tcp.c **** 
 3739              		.loc 1 785 3 discriminator 3 view .LVU1087
 3740 0006 2046     		mov	r0, r4
 3741 0008 FFF7FEFF 		bl	tcp_abort
 3742              	.LVL372:
 787:c:/Users/Black_Life/STM32Cube/Repository/STM32Cube_FW_F4_V1.26.2/Middlewares/Third_Party/LwIP/src/core\tcp.c **** }
 3743              		.loc 1 787 3 discriminator 3 view .LVU1088
 788:c:/Users/Black_Life/STM32Cube/Repository/STM32Cube_FW_F4_V1.26.2/Middlewares/Third_Party/LwIP/src/core\tcp.c **** #endif /* LWIP_CALLBACK_API */
 3744              		.loc 1 788 1 is_stmt 0 discriminator 3 view .LVU1089
 3745 000c 6FF00C00 		mvn	r0, #12
 3746 0010 10BD     		pop	{r4, pc}
 3747              	.LVL373:
 3748              	.L348:
 783:c:/Users/Black_Life/STM32Cube/Repository/STM32Cube_FW_F4_V1.26.2/Middlewares/Third_Party/LwIP/src/core\tcp.c **** 
 3749              		.loc 1 783 3 is_stmt 1 discriminator 1 view .LVU1090
 783:c:/Users/Black_Life/STM32Cube/Repository/STM32Cube_FW_F4_V1.26.2/Middlewares/Third_Party/LwIP/src/core\tcp.c **** 
 3750              		.loc 1 783 3 discriminator 1 view .LVU1091
 3751 0012 044B     		ldr	r3, .L349
 3752 0014 40F20F32 		movw	r2, #783
 3753              	.LVL374:
 783:c:/Users/Black_Life/STM32Cube/Repository/STM32Cube_FW_F4_V1.26.2/Middlewares/Third_Party/LwIP/src/core\tcp.c **** 
 3754              		.loc 1 783 3 is_stmt 0 discriminator 1 view .LVU1092
 3755 0018 0349     		ldr	r1, .L349+4
 3756              	.LVL375:
 783:c:/Users/Black_Life/STM32Cube/Repository/STM32Cube_FW_F4_V1.26.2/Middlewares/Third_Party/LwIP/src/core\tcp.c **** 
 3757              		.loc 1 783 3 discriminator 1 view .LVU1093
 3758 001a 0448     		ldr	r0, .L349+8
 3759              	.LVL376:
 783:c:/Users/Black_Life/STM32Cube/Repository/STM32Cube_FW_F4_V1.26.2/Middlewares/Third_Party/LwIP/src/core\tcp.c **** 
 3760              		.loc 1 783 3 discriminator 1 view .LVU1094
 3761 001c FFF7FEFF 		bl	printf
 3762              	.LVL377:
 3763 0020 F1E7     		b	.L346
 3764              	.L350:
 3765 0022 00BF     		.align	2
 3766              	.L349:
 3767 0024 00000000 		.word	.LC0
 3768 0028 00000000 		.word	.LC35
 3769 002c 98000000 		.word	.LC2
 3770              		.cfi_endproc
 3771              	.LFE170:
 3773              		.section	.text.tcp_kill_timewait,"ax",%progbits
 3774              		.align	1
 3775              		.syntax unified
 3776              		.thumb
 3777              		.thumb_func
 3779              	tcp_kill_timewait:
 3780              	.LFB188:
1785:c:/Users/Black_Life/STM32Cube/Repository/STM32Cube_FW_F4_V1.26.2/Middlewares/Third_Party/LwIP/src/core\tcp.c ****   struct tcp_pcb *pcb, *inactive;
 3781              		.loc 1 1785 1 is_stmt 1 view -0
 3782              		.cfi_startproc
 3783              		@ args = 0, pretend = 0, frame = 0
 3784              		@ frame_needed = 0, uses_anonymous_args = 0
 3785 0000 08B5     		push	{r3, lr}
 3786              	.LCFI39:
ARM GAS  C:\Users\BLACK_~1\AppData\Local\Temp\ccRovO0r.s 			page 127


 3787              		.cfi_def_cfa_offset 8
 3788              		.cfi_offset 3, -8
 3789              		.cfi_offset 14, -4
1786:c:/Users/Black_Life/STM32Cube/Repository/STM32Cube_FW_F4_V1.26.2/Middlewares/Third_Party/LwIP/src/core\tcp.c ****   u32_t inactivity;
 3790              		.loc 1 1786 3 view .LVU1096
1787:c:/Users/Black_Life/STM32Cube/Repository/STM32Cube_FW_F4_V1.26.2/Middlewares/Third_Party/LwIP/src/core\tcp.c **** 
 3791              		.loc 1 1787 3 view .LVU1097
1789:c:/Users/Black_Life/STM32Cube/Repository/STM32Cube_FW_F4_V1.26.2/Middlewares/Third_Party/LwIP/src/core\tcp.c ****   inactive = NULL;
 3792              		.loc 1 1789 3 view .LVU1098
 3793              	.LVL378:
1790:c:/Users/Black_Life/STM32Cube/Repository/STM32Cube_FW_F4_V1.26.2/Middlewares/Third_Party/LwIP/src/core\tcp.c ****   /* Go through the list of TIME_WAIT pcbs and get the oldest pcb. */
 3794              		.loc 1 1790 3 view .LVU1099
1792:c:/Users/Black_Life/STM32Cube/Repository/STM32Cube_FW_F4_V1.26.2/Middlewares/Third_Party/LwIP/src/core\tcp.c ****     if ((u32_t)(tcp_ticks - pcb->tmr) >= inactivity) {
 3795              		.loc 1 1792 3 view .LVU1100
1792:c:/Users/Black_Life/STM32Cube/Repository/STM32Cube_FW_F4_V1.26.2/Middlewares/Third_Party/LwIP/src/core\tcp.c ****     if ((u32_t)(tcp_ticks - pcb->tmr) >= inactivity) {
 3796              		.loc 1 1792 12 is_stmt 0 view .LVU1101
 3797 0002 0A4B     		ldr	r3, .L359
 3798 0004 1B68     		ldr	r3, [r3]
 3799              	.LVL379:
1789:c:/Users/Black_Life/STM32Cube/Repository/STM32Cube_FW_F4_V1.26.2/Middlewares/Third_Party/LwIP/src/core\tcp.c ****   inactive = NULL;
 3800              		.loc 1 1789 14 view .LVU1102
 3801 0006 4FF0000C 		mov	ip, #0
1790:c:/Users/Black_Life/STM32Cube/Repository/STM32Cube_FW_F4_V1.26.2/Middlewares/Third_Party/LwIP/src/core\tcp.c ****   /* Go through the list of TIME_WAIT pcbs and get the oldest pcb. */
 3802              		.loc 1 1790 12 view .LVU1103
 3803 000a 6046     		mov	r0, ip
1792:c:/Users/Black_Life/STM32Cube/Repository/STM32Cube_FW_F4_V1.26.2/Middlewares/Third_Party/LwIP/src/core\tcp.c ****     if ((u32_t)(tcp_ticks - pcb->tmr) >= inactivity) {
 3804              		.loc 1 1792 3 view .LVU1104
 3805 000c 00E0     		b	.L352
 3806              	.LVL380:
 3807              	.L353:
1792:c:/Users/Black_Life/STM32Cube/Repository/STM32Cube_FW_F4_V1.26.2/Middlewares/Third_Party/LwIP/src/core\tcp.c ****     if ((u32_t)(tcp_ticks - pcb->tmr) >= inactivity) {
 3808              		.loc 1 1792 40 is_stmt 1 discriminator 2 view .LVU1105
1792:c:/Users/Black_Life/STM32Cube/Repository/STM32Cube_FW_F4_V1.26.2/Middlewares/Third_Party/LwIP/src/core\tcp.c ****     if ((u32_t)(tcp_ticks - pcb->tmr) >= inactivity) {
 3809              		.loc 1 1792 44 is_stmt 0 discriminator 2 view .LVU1106
 3810 000e DB68     		ldr	r3, [r3, #12]
 3811              	.LVL381:
 3812              	.L352:
1792:c:/Users/Black_Life/STM32Cube/Repository/STM32Cube_FW_F4_V1.26.2/Middlewares/Third_Party/LwIP/src/core\tcp.c ****     if ((u32_t)(tcp_ticks - pcb->tmr) >= inactivity) {
 3813              		.loc 1 1792 27 is_stmt 1 discriminator 1 view .LVU1107
1792:c:/Users/Black_Life/STM32Cube/Repository/STM32Cube_FW_F4_V1.26.2/Middlewares/Third_Party/LwIP/src/core\tcp.c ****     if ((u32_t)(tcp_ticks - pcb->tmr) >= inactivity) {
 3814              		.loc 1 1792 3 is_stmt 0 discriminator 1 view .LVU1108
 3815 0010 43B1     		cbz	r3, .L358
1793:c:/Users/Black_Life/STM32Cube/Repository/STM32Cube_FW_F4_V1.26.2/Middlewares/Third_Party/LwIP/src/core\tcp.c ****       inactivity = tcp_ticks - pcb->tmr;
 3816              		.loc 1 1793 5 is_stmt 1 view .LVU1109
1793:c:/Users/Black_Life/STM32Cube/Repository/STM32Cube_FW_F4_V1.26.2/Middlewares/Third_Party/LwIP/src/core\tcp.c ****       inactivity = tcp_ticks - pcb->tmr;
 3817              		.loc 1 1793 32 is_stmt 0 view .LVU1110
 3818 0012 196A     		ldr	r1, [r3, #32]
1793:c:/Users/Black_Life/STM32Cube/Repository/STM32Cube_FW_F4_V1.26.2/Middlewares/Third_Party/LwIP/src/core\tcp.c ****       inactivity = tcp_ticks - pcb->tmr;
 3819              		.loc 1 1793 27 view .LVU1111
 3820 0014 064A     		ldr	r2, .L359+4
 3821 0016 1268     		ldr	r2, [r2]
 3822 0018 521A     		subs	r2, r2, r1
1793:c:/Users/Black_Life/STM32Cube/Repository/STM32Cube_FW_F4_V1.26.2/Middlewares/Third_Party/LwIP/src/core\tcp.c ****       inactivity = tcp_ticks - pcb->tmr;
 3823              		.loc 1 1793 8 view .LVU1112
 3824 001a 6245     		cmp	r2, ip
 3825 001c F7D3     		bcc	.L353
1794:c:/Users/Black_Life/STM32Cube/Repository/STM32Cube_FW_F4_V1.26.2/Middlewares/Third_Party/LwIP/src/core\tcp.c ****       inactive = pcb;
ARM GAS  C:\Users\BLACK_~1\AppData\Local\Temp\ccRovO0r.s 			page 128


 3826              		.loc 1 1794 18 view .LVU1113
 3827 001e 9446     		mov	ip, r2
 3828              	.LVL382:
1795:c:/Users/Black_Life/STM32Cube/Repository/STM32Cube_FW_F4_V1.26.2/Middlewares/Third_Party/LwIP/src/core\tcp.c ****     }
 3829              		.loc 1 1795 16 view .LVU1114
 3830 0020 1846     		mov	r0, r3
 3831              	.LVL383:
1795:c:/Users/Black_Life/STM32Cube/Repository/STM32Cube_FW_F4_V1.26.2/Middlewares/Third_Party/LwIP/src/core\tcp.c ****     }
 3832              		.loc 1 1795 16 view .LVU1115
 3833 0022 F4E7     		b	.L353
 3834              	.LVL384:
 3835              	.L358:
1798:c:/Users/Black_Life/STM32Cube/Repository/STM32Cube_FW_F4_V1.26.2/Middlewares/Third_Party/LwIP/src/core\tcp.c ****     LWIP_DEBUGF(TCP_DEBUG, ("tcp_kill_timewait: killing oldest TIME-WAIT PCB %p (%"S32_F")\n",
 3836              		.loc 1 1798 3 is_stmt 1 view .LVU1116
1798:c:/Users/Black_Life/STM32Cube/Repository/STM32Cube_FW_F4_V1.26.2/Middlewares/Third_Party/LwIP/src/core\tcp.c ****     LWIP_DEBUGF(TCP_DEBUG, ("tcp_kill_timewait: killing oldest TIME-WAIT PCB %p (%"S32_F")\n",
 3837              		.loc 1 1798 6 is_stmt 0 view .LVU1117
 3838 0024 08B1     		cbz	r0, .L351
1800:c:/Users/Black_Life/STM32Cube/Repository/STM32Cube_FW_F4_V1.26.2/Middlewares/Third_Party/LwIP/src/core\tcp.c ****     tcp_abort(inactive);
 3839              		.loc 1 1800 59 is_stmt 1 view .LVU1118
1801:c:/Users/Black_Life/STM32Cube/Repository/STM32Cube_FW_F4_V1.26.2/Middlewares/Third_Party/LwIP/src/core\tcp.c ****   }
 3840              		.loc 1 1801 5 view .LVU1119
 3841 0026 FFF7FEFF 		bl	tcp_abort
 3842              	.LVL385:
 3843              	.L351:
1803:c:/Users/Black_Life/STM32Cube/Repository/STM32Cube_FW_F4_V1.26.2/Middlewares/Third_Party/LwIP/src/core\tcp.c **** 
 3844              		.loc 1 1803 1 is_stmt 0 view .LVU1120
 3845 002a 08BD     		pop	{r3, pc}
 3846              	.L360:
 3847              		.align	2
 3848              	.L359:
 3849 002c 00000000 		.word	.LANCHOR9
 3850 0030 00000000 		.word	.LANCHOR6
 3851              		.cfi_endproc
 3852              	.LFE188:
 3854              		.section	.text.tcp_kill_prio,"ax",%progbits
 3855              		.align	1
 3856              		.syntax unified
 3857              		.thumb
 3858              		.thumb_func
 3860              	tcp_kill_prio:
 3861              	.LVL386:
 3862              	.LFB186:
1707:c:/Users/Black_Life/STM32Cube/Repository/STM32Cube_FW_F4_V1.26.2/Middlewares/Third_Party/LwIP/src/core\tcp.c ****   struct tcp_pcb *pcb, *inactive;
 3863              		.loc 1 1707 1 is_stmt 1 view -0
 3864              		.cfi_startproc
 3865              		@ args = 0, pretend = 0, frame = 0
 3866              		@ frame_needed = 0, uses_anonymous_args = 0
1708:c:/Users/Black_Life/STM32Cube/Repository/STM32Cube_FW_F4_V1.26.2/Middlewares/Third_Party/LwIP/src/core\tcp.c ****   u32_t inactivity;
 3867              		.loc 1 1708 3 view .LVU1122
1709:c:/Users/Black_Life/STM32Cube/Repository/STM32Cube_FW_F4_V1.26.2/Middlewares/Third_Party/LwIP/src/core\tcp.c ****   u8_t mprio;
 3868              		.loc 1 1709 3 view .LVU1123
1710:c:/Users/Black_Life/STM32Cube/Repository/STM32Cube_FW_F4_V1.26.2/Middlewares/Third_Party/LwIP/src/core\tcp.c **** 
 3869              		.loc 1 1710 3 view .LVU1124
1712:c:/Users/Black_Life/STM32Cube/Repository/STM32Cube_FW_F4_V1.26.2/Middlewares/Third_Party/LwIP/src/core\tcp.c **** 
 3870              		.loc 1 1712 3 view .LVU1125
1712:c:/Users/Black_Life/STM32Cube/Repository/STM32Cube_FW_F4_V1.26.2/Middlewares/Third_Party/LwIP/src/core\tcp.c **** 
 3871              		.loc 1 1712 9 is_stmt 0 view .LVU1126
ARM GAS  C:\Users\BLACK_~1\AppData\Local\Temp\ccRovO0r.s 			page 129


 3872 0000 10F0800F 		tst	r0, #128
 3873 0004 01D1     		bne	.L368
 3874              	.LVL387:
1717:c:/Users/Black_Life/STM32Cube/Repository/STM32Cube_FW_F4_V1.26.2/Middlewares/Third_Party/LwIP/src/core\tcp.c ****     return;
 3875              		.loc 1 1717 3 is_stmt 1 discriminator 4 view .LVU1127
1717:c:/Users/Black_Life/STM32Cube/Repository/STM32Cube_FW_F4_V1.26.2/Middlewares/Third_Party/LwIP/src/core\tcp.c ****     return;
 3876              		.loc 1 1717 6 is_stmt 0 discriminator 4 view .LVU1128
 3877 0006 08B9     		cbnz	r0, .L362
 3878 0008 7047     		bx	lr
 3879              	.LVL388:
 3880              	.L368:
1712:c:/Users/Black_Life/STM32Cube/Repository/STM32Cube_FW_F4_V1.26.2/Middlewares/Third_Party/LwIP/src/core\tcp.c **** 
 3881              		.loc 1 1712 9 view .LVU1129
 3882 000a 7F20     		movs	r0, #127
 3883              	.LVL389:
 3884              	.L362:
1707:c:/Users/Black_Life/STM32Cube/Repository/STM32Cube_FW_F4_V1.26.2/Middlewares/Third_Party/LwIP/src/core\tcp.c ****   struct tcp_pcb *pcb, *inactive;
 3885              		.loc 1 1707 1 view .LVU1130
 3886 000c 38B5     		push	{r3, r4, r5, lr}
 3887              	.LCFI40:
 3888              		.cfi_def_cfa_offset 16
 3889              		.cfi_offset 3, -16
 3890              		.cfi_offset 4, -12
 3891              		.cfi_offset 5, -8
 3892              		.cfi_offset 14, -4
1726:c:/Users/Black_Life/STM32Cube/Repository/STM32Cube_FW_F4_V1.26.2/Middlewares/Third_Party/LwIP/src/core\tcp.c **** 
 3893              		.loc 1 1726 3 is_stmt 1 view .LVU1131
1726:c:/Users/Black_Life/STM32Cube/Repository/STM32Cube_FW_F4_V1.26.2/Middlewares/Third_Party/LwIP/src/core\tcp.c **** 
 3894              		.loc 1 1726 8 is_stmt 0 view .LVU1132
 3895 000e 0138     		subs	r0, r0, #1
 3896 0010 C2B2     		uxtb	r2, r0
 3897              	.LVL390:
1728:c:/Users/Black_Life/STM32Cube/Repository/STM32Cube_FW_F4_V1.26.2/Middlewares/Third_Party/LwIP/src/core\tcp.c ****   inactive = NULL;
 3898              		.loc 1 1728 3 is_stmt 1 view .LVU1133
1729:c:/Users/Black_Life/STM32Cube/Repository/STM32Cube_FW_F4_V1.26.2/Middlewares/Third_Party/LwIP/src/core\tcp.c ****   for (pcb = tcp_active_pcbs; pcb != NULL; pcb = pcb->next) {
 3899              		.loc 1 1729 3 view .LVU1134
1730:c:/Users/Black_Life/STM32Cube/Repository/STM32Cube_FW_F4_V1.26.2/Middlewares/Third_Party/LwIP/src/core\tcp.c ****         /* lower prio is always a kill candidate */
 3900              		.loc 1 1730 3 view .LVU1135
1730:c:/Users/Black_Life/STM32Cube/Repository/STM32Cube_FW_F4_V1.26.2/Middlewares/Third_Party/LwIP/src/core\tcp.c ****         /* lower prio is always a kill candidate */
 3901              		.loc 1 1730 12 is_stmt 0 view .LVU1136
 3902 0012 0F4B     		ldr	r3, .L373
 3903 0014 1B68     		ldr	r3, [r3]
 3904              	.LVL391:
1728:c:/Users/Black_Life/STM32Cube/Repository/STM32Cube_FW_F4_V1.26.2/Middlewares/Third_Party/LwIP/src/core\tcp.c ****   inactive = NULL;
 3905              		.loc 1 1728 14 view .LVU1137
 3906 0016 4FF0000C 		mov	ip, #0
1729:c:/Users/Black_Life/STM32Cube/Repository/STM32Cube_FW_F4_V1.26.2/Middlewares/Third_Party/LwIP/src/core\tcp.c ****   for (pcb = tcp_active_pcbs; pcb != NULL; pcb = pcb->next) {
 3907              		.loc 1 1729 12 view .LVU1138
 3908 001a 6046     		mov	r0, ip
1730:c:/Users/Black_Life/STM32Cube/Repository/STM32Cube_FW_F4_V1.26.2/Middlewares/Third_Party/LwIP/src/core\tcp.c ****         /* lower prio is always a kill candidate */
 3909              		.loc 1 1730 3 view .LVU1139
 3910 001c 07E0     		b	.L364
 3911              	.LVL392:
 3912              	.L365:
1735:c:/Users/Black_Life/STM32Cube/Repository/STM32Cube_FW_F4_V1.26.2/Middlewares/Third_Party/LwIP/src/core\tcp.c ****       inactive   = pcb;
 3913              		.loc 1 1735 7 is_stmt 1 view .LVU1140
1735:c:/Users/Black_Life/STM32Cube/Repository/STM32Cube_FW_F4_V1.26.2/Middlewares/Third_Party/LwIP/src/core\tcp.c ****       inactive   = pcb;
ARM GAS  C:\Users\BLACK_~1\AppData\Local\Temp\ccRovO0r.s 			page 130


 3914              		.loc 1 1735 30 is_stmt 0 view .LVU1141
 3915 001e 0D4A     		ldr	r2, .L373+4
 3916              	.LVL393:
1735:c:/Users/Black_Life/STM32Cube/Repository/STM32Cube_FW_F4_V1.26.2/Middlewares/Third_Party/LwIP/src/core\tcp.c ****       inactive   = pcb;
 3917              		.loc 1 1735 30 view .LVU1142
 3918 0020 1268     		ldr	r2, [r2]
1735:c:/Users/Black_Life/STM32Cube/Repository/STM32Cube_FW_F4_V1.26.2/Middlewares/Third_Party/LwIP/src/core\tcp.c ****       inactive   = pcb;
 3919              		.loc 1 1735 35 view .LVU1143
 3920 0022 186A     		ldr	r0, [r3, #32]
 3921              	.LVL394:
1735:c:/Users/Black_Life/STM32Cube/Repository/STM32Cube_FW_F4_V1.26.2/Middlewares/Third_Party/LwIP/src/core\tcp.c ****       inactive   = pcb;
 3922              		.loc 1 1735 18 view .LVU1144
 3923 0024 A2EB000C 		sub	ip, r2, r0
 3924              	.LVL395:
1736:c:/Users/Black_Life/STM32Cube/Repository/STM32Cube_FW_F4_V1.26.2/Middlewares/Third_Party/LwIP/src/core\tcp.c ****       mprio      = pcb->prio;
 3925              		.loc 1 1736 7 is_stmt 1 view .LVU1145
1737:c:/Users/Black_Life/STM32Cube/Repository/STM32Cube_FW_F4_V1.26.2/Middlewares/Third_Party/LwIP/src/core\tcp.c ****     }
 3926              		.loc 1 1737 7 view .LVU1146
1737:c:/Users/Black_Life/STM32Cube/Repository/STM32Cube_FW_F4_V1.26.2/Middlewares/Third_Party/LwIP/src/core\tcp.c ****     }
 3927              		.loc 1 1737 18 is_stmt 0 view .LVU1147
 3928 0028 0A46     		mov	r2, r1
1736:c:/Users/Black_Life/STM32Cube/Repository/STM32Cube_FW_F4_V1.26.2/Middlewares/Third_Party/LwIP/src/core\tcp.c ****       mprio      = pcb->prio;
 3929              		.loc 1 1736 18 view .LVU1148
 3930 002a 1846     		mov	r0, r3
 3931              	.LVL396:
 3932              	.L366:
1730:c:/Users/Black_Life/STM32Cube/Repository/STM32Cube_FW_F4_V1.26.2/Middlewares/Third_Party/LwIP/src/core\tcp.c ****         /* lower prio is always a kill candidate */
 3933              		.loc 1 1730 44 is_stmt 1 discriminator 2 view .LVU1149
1730:c:/Users/Black_Life/STM32Cube/Repository/STM32Cube_FW_F4_V1.26.2/Middlewares/Third_Party/LwIP/src/core\tcp.c ****         /* lower prio is always a kill candidate */
 3934              		.loc 1 1730 48 is_stmt 0 discriminator 2 view .LVU1150
 3935 002c DB68     		ldr	r3, [r3, #12]
 3936              	.LVL397:
 3937              	.L364:
1730:c:/Users/Black_Life/STM32Cube/Repository/STM32Cube_FW_F4_V1.26.2/Middlewares/Third_Party/LwIP/src/core\tcp.c ****         /* lower prio is always a kill candidate */
 3938              		.loc 1 1730 31 is_stmt 1 discriminator 1 view .LVU1151
1730:c:/Users/Black_Life/STM32Cube/Repository/STM32Cube_FW_F4_V1.26.2/Middlewares/Third_Party/LwIP/src/core\tcp.c ****         /* lower prio is always a kill candidate */
 3939              		.loc 1 1730 3 is_stmt 0 discriminator 1 view .LVU1152
 3940 002e 5BB1     		cbz	r3, .L372
1732:c:/Users/Black_Life/STM32Cube/Repository/STM32Cube_FW_F4_V1.26.2/Middlewares/Third_Party/LwIP/src/core\tcp.c ****         /* longer inactivity is also a kill candidate */
 3941              		.loc 1 1732 5 is_stmt 1 view .LVU1153
1732:c:/Users/Black_Life/STM32Cube/Repository/STM32Cube_FW_F4_V1.26.2/Middlewares/Third_Party/LwIP/src/core\tcp.c ****         /* longer inactivity is also a kill candidate */
 3942              		.loc 1 1732 13 is_stmt 0 view .LVU1154
 3943 0030 597D     		ldrb	r1, [r3, #21]	@ zero_extendqisi2
1732:c:/Users/Black_Life/STM32Cube/Repository/STM32Cube_FW_F4_V1.26.2/Middlewares/Third_Party/LwIP/src/core\tcp.c ****         /* longer inactivity is also a kill candidate */
 3944              		.loc 1 1732 8 view .LVU1155
 3945 0032 9142     		cmp	r1, r2
 3946 0034 F3D3     		bcc	.L365
1732:c:/Users/Black_Life/STM32Cube/Repository/STM32Cube_FW_F4_V1.26.2/Middlewares/Third_Party/LwIP/src/core\tcp.c ****         /* longer inactivity is also a kill candidate */
 3947              		.loc 1 1732 29 discriminator 1 view .LVU1156
 3948 0036 F9D1     		bne	.L366
1734:c:/Users/Black_Life/STM32Cube/Repository/STM32Cube_FW_F4_V1.26.2/Middlewares/Third_Party/LwIP/src/core\tcp.c ****       inactivity = tcp_ticks - pcb->tmr;
 3949              		.loc 1 1734 53 view .LVU1157
 3950 0038 064C     		ldr	r4, .L373+4
 3951 003a 2468     		ldr	r4, [r4]
 3952 003c 1D6A     		ldr	r5, [r3, #32]
 3953 003e A4EB050E 		sub	lr, r4, r5
1734:c:/Users/Black_Life/STM32Cube/Repository/STM32Cube_FW_F4_V1.26.2/Middlewares/Third_Party/LwIP/src/core\tcp.c ****       inactivity = tcp_ticks - pcb->tmr;
ARM GAS  C:\Users\BLACK_~1\AppData\Local\Temp\ccRovO0r.s 			page 131


 3954              		.loc 1 1734 31 view .LVU1158
 3955 0042 E645     		cmp	lr, ip
 3956 0044 F2D3     		bcc	.L366
 3957 0046 EAE7     		b	.L365
 3958              	.L372:
1740:c:/Users/Black_Life/STM32Cube/Repository/STM32Cube_FW_F4_V1.26.2/Middlewares/Third_Party/LwIP/src/core\tcp.c ****     LWIP_DEBUGF(TCP_DEBUG, ("tcp_kill_prio: killing oldest PCB %p (%"S32_F")\n",
 3959              		.loc 1 1740 3 is_stmt 1 view .LVU1159
1740:c:/Users/Black_Life/STM32Cube/Repository/STM32Cube_FW_F4_V1.26.2/Middlewares/Third_Party/LwIP/src/core\tcp.c ****     LWIP_DEBUGF(TCP_DEBUG, ("tcp_kill_prio: killing oldest PCB %p (%"S32_F")\n",
 3960              		.loc 1 1740 6 is_stmt 0 view .LVU1160
 3961 0048 08B1     		cbz	r0, .L361
1742:c:/Users/Black_Life/STM32Cube/Repository/STM32Cube_FW_F4_V1.26.2/Middlewares/Third_Party/LwIP/src/core\tcp.c ****     tcp_abort(inactive);
 3962              		.loc 1 1742 59 is_stmt 1 view .LVU1161
1743:c:/Users/Black_Life/STM32Cube/Repository/STM32Cube_FW_F4_V1.26.2/Middlewares/Third_Party/LwIP/src/core\tcp.c ****   }
 3963              		.loc 1 1743 5 view .LVU1162
 3964 004a FFF7FEFF 		bl	tcp_abort
 3965              	.LVL398:
 3966              	.L361:
1745:c:/Users/Black_Life/STM32Cube/Repository/STM32Cube_FW_F4_V1.26.2/Middlewares/Third_Party/LwIP/src/core\tcp.c **** 
 3967              		.loc 1 1745 1 is_stmt 0 view .LVU1163
 3968 004e 38BD     		pop	{r3, r4, r5, pc}
 3969              	.L374:
 3970              		.align	2
 3971              	.L373:
 3972 0050 00000000 		.word	.LANCHOR2
 3973 0054 00000000 		.word	.LANCHOR6
 3974              		.cfi_endproc
 3975              	.LFE186:
 3977              		.section	.rodata.tcp_netif_ip_addr_changed_pcblist.str1.4,"aMS",%progbits,1
 3978              		.align	2
 3979              	.LC36:
 3980 0000 7463705F 		.ascii	"tcp_netif_ip_addr_changed_pcblist: invalid old_addr"
 3980      6E657469 
 3980      665F6970 
 3980      5F616464 
 3980      725F6368 
 3981 0033 00       		.ascii	"\000"
 3982              		.section	.text.tcp_netif_ip_addr_changed_pcblist,"ax",%progbits
 3983              		.align	1
 3984              		.syntax unified
 3985              		.thumb
 3986              		.thumb_func
 3988              	tcp_netif_ip_addr_changed_pcblist:
 3989              	.LVL399:
 3990              	.LFB203:
2300:c:/Users/Black_Life/STM32Cube/Repository/STM32Cube_FW_F4_V1.26.2/Middlewares/Third_Party/LwIP/src/core\tcp.c ****   struct tcp_pcb *pcb;
 3991              		.loc 1 2300 1 is_stmt 1 view -0
 3992              		.cfi_startproc
 3993              		@ args = 0, pretend = 0, frame = 0
 3994              		@ frame_needed = 0, uses_anonymous_args = 0
2300:c:/Users/Black_Life/STM32Cube/Repository/STM32Cube_FW_F4_V1.26.2/Middlewares/Third_Party/LwIP/src/core\tcp.c ****   struct tcp_pcb *pcb;
 3995              		.loc 1 2300 1 is_stmt 0 view .LVU1165
 3996 0000 70B5     		push	{r4, r5, r6, lr}
 3997              	.LCFI41:
 3998              		.cfi_def_cfa_offset 16
 3999              		.cfi_offset 4, -16
 4000              		.cfi_offset 5, -12
 4001              		.cfi_offset 6, -8
ARM GAS  C:\Users\BLACK_~1\AppData\Local\Temp\ccRovO0r.s 			page 132


 4002              		.cfi_offset 14, -4
 4003 0002 0C46     		mov	r4, r1
2301:c:/Users/Black_Life/STM32Cube/Repository/STM32Cube_FW_F4_V1.26.2/Middlewares/Third_Party/LwIP/src/core\tcp.c ****   pcb = pcb_list;
 4004              		.loc 1 2301 3 is_stmt 1 view .LVU1166
2302:c:/Users/Black_Life/STM32Cube/Repository/STM32Cube_FW_F4_V1.26.2/Middlewares/Third_Party/LwIP/src/core\tcp.c **** 
 4005              		.loc 1 2302 3 view .LVU1167
 4006              	.LVL400:
2304:c:/Users/Black_Life/STM32Cube/Repository/STM32Cube_FW_F4_V1.26.2/Middlewares/Third_Party/LwIP/src/core\tcp.c **** 
 4007              		.loc 1 2304 3 view .LVU1168
2304:c:/Users/Black_Life/STM32Cube/Repository/STM32Cube_FW_F4_V1.26.2/Middlewares/Third_Party/LwIP/src/core\tcp.c **** 
 4008              		.loc 1 2304 3 view .LVU1169
 4009 0004 0546     		mov	r5, r0
 4010 0006 60B9     		cbnz	r0, .L377
2304:c:/Users/Black_Life/STM32Cube/Repository/STM32Cube_FW_F4_V1.26.2/Middlewares/Third_Party/LwIP/src/core\tcp.c **** 
 4011              		.loc 1 2304 3 discriminator 1 view .LVU1170
2304:c:/Users/Black_Life/STM32Cube/Repository/STM32Cube_FW_F4_V1.26.2/Middlewares/Third_Party/LwIP/src/core\tcp.c **** 
 4012              		.loc 1 2304 3 discriminator 1 view .LVU1171
 4013 0008 0A4B     		ldr	r3, .L384
 4014 000a 4FF41062 		mov	r2, #2304
 4015 000e 0A49     		ldr	r1, .L384+4
 4016              	.LVL401:
2304:c:/Users/Black_Life/STM32Cube/Repository/STM32Cube_FW_F4_V1.26.2/Middlewares/Third_Party/LwIP/src/core\tcp.c **** 
 4017              		.loc 1 2304 3 is_stmt 0 discriminator 1 view .LVU1172
 4018 0010 0A48     		ldr	r0, .L384+8
 4019              	.LVL402:
2304:c:/Users/Black_Life/STM32Cube/Repository/STM32Cube_FW_F4_V1.26.2/Middlewares/Third_Party/LwIP/src/core\tcp.c **** 
 4020              		.loc 1 2304 3 discriminator 1 view .LVU1173
 4021 0012 FFF7FEFF 		bl	printf
 4022              	.LVL403:
 4023 0016 04E0     		b	.L377
 4024              	.LVL404:
 4025              	.L383:
 4026              	.LBB21:
2315:c:/Users/Black_Life/STM32Cube/Repository/STM32Cube_FW_F4_V1.26.2/Middlewares/Third_Party/LwIP/src/core\tcp.c ****       LWIP_DEBUGF(NETIF_DEBUG | LWIP_DBG_STATE, ("netif_set_ipaddr: aborting TCP pcb %p\n", (void *
 4027              		.loc 1 2315 7 is_stmt 1 view .LVU1174
2315:c:/Users/Black_Life/STM32Cube/Repository/STM32Cube_FW_F4_V1.26.2/Middlewares/Third_Party/LwIP/src/core\tcp.c ****       LWIP_DEBUGF(NETIF_DEBUG | LWIP_DBG_STATE, ("netif_set_ipaddr: aborting TCP pcb %p\n", (void *
 4028              		.loc 1 2315 23 is_stmt 0 view .LVU1175
 4029 0018 E668     		ldr	r6, [r4, #12]
 4030              	.LVL405:
2316:c:/Users/Black_Life/STM32Cube/Repository/STM32Cube_FW_F4_V1.26.2/Middlewares/Third_Party/LwIP/src/core\tcp.c ****       tcp_abort(pcb);
 4031              		.loc 1 2316 106 is_stmt 1 view .LVU1176
2317:c:/Users/Black_Life/STM32Cube/Repository/STM32Cube_FW_F4_V1.26.2/Middlewares/Third_Party/LwIP/src/core\tcp.c ****       pcb = next;
 4032              		.loc 1 2317 7 view .LVU1177
 4033 001a 2046     		mov	r0, r4
 4034 001c FFF7FEFF 		bl	tcp_abort
 4035              	.LVL406:
2318:c:/Users/Black_Life/STM32Cube/Repository/STM32Cube_FW_F4_V1.26.2/Middlewares/Third_Party/LwIP/src/core\tcp.c ****     } else {
 4036              		.loc 1 2318 7 view .LVU1178
2318:c:/Users/Black_Life/STM32Cube/Repository/STM32Cube_FW_F4_V1.26.2/Middlewares/Third_Party/LwIP/src/core\tcp.c ****     } else {
 4037              		.loc 1 2318 11 is_stmt 0 view .LVU1179
 4038 0020 3446     		mov	r4, r6
 4039              	.LVL407:
 4040              	.L377:
2318:c:/Users/Black_Life/STM32Cube/Repository/STM32Cube_FW_F4_V1.26.2/Middlewares/Third_Party/LwIP/src/core\tcp.c ****     } else {
 4041              		.loc 1 2318 11 view .LVU1180
 4042              	.LBE21:
2306:c:/Users/Black_Life/STM32Cube/Repository/STM32Cube_FW_F4_V1.26.2/Middlewares/Third_Party/LwIP/src/core\tcp.c ****     /* PCB bound to current local interface address? */
ARM GAS  C:\Users\BLACK_~1\AppData\Local\Temp\ccRovO0r.s 			page 133


 4043              		.loc 1 2306 9 is_stmt 1 view .LVU1181
 4044 0022 2CB1     		cbz	r4, .L382
2308:c:/Users/Black_Life/STM32Cube/Repository/STM32Cube_FW_F4_V1.26.2/Middlewares/Third_Party/LwIP/src/core\tcp.c **** #if LWIP_AUTOIP
 4045              		.loc 1 2308 5 view .LVU1182
2308:c:/Users/Black_Life/STM32Cube/Repository/STM32Cube_FW_F4_V1.26.2/Middlewares/Third_Party/LwIP/src/core\tcp.c **** #if LWIP_AUTOIP
 4046              		.loc 1 2308 9 is_stmt 0 view .LVU1183
 4047 0024 2268     		ldr	r2, [r4]
 4048 0026 2B68     		ldr	r3, [r5]
2308:c:/Users/Black_Life/STM32Cube/Repository/STM32Cube_FW_F4_V1.26.2/Middlewares/Third_Party/LwIP/src/core\tcp.c **** #if LWIP_AUTOIP
 4049              		.loc 1 2308 8 view .LVU1184
 4050 0028 9A42     		cmp	r2, r3
 4051 002a F5D0     		beq	.L383
2320:c:/Users/Black_Life/STM32Cube/Repository/STM32Cube_FW_F4_V1.26.2/Middlewares/Third_Party/LwIP/src/core\tcp.c ****     }
 4052              		.loc 1 2320 7 is_stmt 1 view .LVU1185
2320:c:/Users/Black_Life/STM32Cube/Repository/STM32Cube_FW_F4_V1.26.2/Middlewares/Third_Party/LwIP/src/core\tcp.c ****     }
 4053              		.loc 1 2320 11 is_stmt 0 view .LVU1186
 4054 002c E468     		ldr	r4, [r4, #12]
 4055              	.LVL408:
2320:c:/Users/Black_Life/STM32Cube/Repository/STM32Cube_FW_F4_V1.26.2/Middlewares/Third_Party/LwIP/src/core\tcp.c ****     }
 4056              		.loc 1 2320 11 view .LVU1187
 4057 002e F8E7     		b	.L377
 4058              	.L382:
2323:c:/Users/Black_Life/STM32Cube/Repository/STM32Cube_FW_F4_V1.26.2/Middlewares/Third_Party/LwIP/src/core\tcp.c **** 
 4059              		.loc 1 2323 1 view .LVU1188
 4060 0030 70BD     		pop	{r4, r5, r6, pc}
 4061              	.LVL409:
 4062              	.L385:
2323:c:/Users/Black_Life/STM32Cube/Repository/STM32Cube_FW_F4_V1.26.2/Middlewares/Third_Party/LwIP/src/core\tcp.c **** 
 4063              		.loc 1 2323 1 view .LVU1189
 4064 0032 00BF     		.align	2
 4065              	.L384:
 4066 0034 00000000 		.word	.LC0
 4067 0038 00000000 		.word	.LC36
 4068 003c 98000000 		.word	.LC2
 4069              		.cfi_endproc
 4070              	.LFE203:
 4072              		.section	.text.tcp_netif_ip_addr_changed,"ax",%progbits
 4073              		.align	1
 4074              		.global	tcp_netif_ip_addr_changed
 4075              		.syntax unified
 4076              		.thumb
 4077              		.thumb_func
 4079              	tcp_netif_ip_addr_changed:
 4080              	.LVL410:
 4081              	.LFB204:
2332:c:/Users/Black_Life/STM32Cube/Repository/STM32Cube_FW_F4_V1.26.2/Middlewares/Third_Party/LwIP/src/core\tcp.c ****   struct tcp_pcb_listen *lpcb;
 4082              		.loc 1 2332 1 is_stmt 1 view -0
 4083              		.cfi_startproc
 4084              		@ args = 0, pretend = 0, frame = 0
 4085              		@ frame_needed = 0, uses_anonymous_args = 0
2333:c:/Users/Black_Life/STM32Cube/Repository/STM32Cube_FW_F4_V1.26.2/Middlewares/Third_Party/LwIP/src/core\tcp.c **** 
 4086              		.loc 1 2333 3 view .LVU1191
2335:c:/Users/Black_Life/STM32Cube/Repository/STM32Cube_FW_F4_V1.26.2/Middlewares/Third_Party/LwIP/src/core\tcp.c ****     tcp_netif_ip_addr_changed_pcblist(old_addr, tcp_active_pcbs);
 4087              		.loc 1 2335 3 view .LVU1192
2335:c:/Users/Black_Life/STM32Cube/Repository/STM32Cube_FW_F4_V1.26.2/Middlewares/Third_Party/LwIP/src/core\tcp.c ****     tcp_netif_ip_addr_changed_pcblist(old_addr, tcp_active_pcbs);
 4088              		.loc 1 2335 6 is_stmt 0 view .LVU1193
 4089 0000 00B3     		cbz	r0, .L392
ARM GAS  C:\Users\BLACK_~1\AppData\Local\Temp\ccRovO0r.s 			page 134


2332:c:/Users/Black_Life/STM32Cube/Repository/STM32Cube_FW_F4_V1.26.2/Middlewares/Third_Party/LwIP/src/core\tcp.c ****   struct tcp_pcb_listen *lpcb;
 4090              		.loc 1 2332 1 discriminator 1 view .LVU1194
 4091 0002 38B5     		push	{r3, r4, r5, lr}
 4092              	.LCFI42:
 4093              		.cfi_def_cfa_offset 16
 4094              		.cfi_offset 3, -16
 4095              		.cfi_offset 4, -12
 4096              		.cfi_offset 5, -8
 4097              		.cfi_offset 14, -4
 4098 0004 0D46     		mov	r5, r1
 4099 0006 0446     		mov	r4, r0
2335:c:/Users/Black_Life/STM32Cube/Repository/STM32Cube_FW_F4_V1.26.2/Middlewares/Third_Party/LwIP/src/core\tcp.c ****     tcp_netif_ip_addr_changed_pcblist(old_addr, tcp_active_pcbs);
 4100              		.loc 1 2335 8 discriminator 1 view .LVU1195
 4101 0008 0368     		ldr	r3, [r0]
2335:c:/Users/Black_Life/STM32Cube/Repository/STM32Cube_FW_F4_V1.26.2/Middlewares/Third_Party/LwIP/src/core\tcp.c ****     tcp_netif_ip_addr_changed_pcblist(old_addr, tcp_active_pcbs);
 4102              		.loc 1 2335 7 discriminator 1 view .LVU1196
 4103 000a 03B9     		cbnz	r3, .L395
 4104              	.LVL411:
 4105              	.L386:
2351:c:/Users/Black_Life/STM32Cube/Repository/STM32Cube_FW_F4_V1.26.2/Middlewares/Third_Party/LwIP/src/core\tcp.c **** 
 4106              		.loc 1 2351 1 view .LVU1197
 4107 000c 38BD     		pop	{r3, r4, r5, pc}
 4108              	.LVL412:
 4109              	.L395:
2336:c:/Users/Black_Life/STM32Cube/Repository/STM32Cube_FW_F4_V1.26.2/Middlewares/Third_Party/LwIP/src/core\tcp.c ****     tcp_netif_ip_addr_changed_pcblist(old_addr, tcp_bound_pcbs);
 4110              		.loc 1 2336 5 is_stmt 1 view .LVU1198
 4111 000e 0E4B     		ldr	r3, .L396
 4112 0010 1968     		ldr	r1, [r3]
 4113              	.LVL413:
2336:c:/Users/Black_Life/STM32Cube/Repository/STM32Cube_FW_F4_V1.26.2/Middlewares/Third_Party/LwIP/src/core\tcp.c ****     tcp_netif_ip_addr_changed_pcblist(old_addr, tcp_bound_pcbs);
 4114              		.loc 1 2336 5 is_stmt 0 view .LVU1199
 4115 0012 FFF7FEFF 		bl	tcp_netif_ip_addr_changed_pcblist
 4116              	.LVL414:
2337:c:/Users/Black_Life/STM32Cube/Repository/STM32Cube_FW_F4_V1.26.2/Middlewares/Third_Party/LwIP/src/core\tcp.c **** 
 4117              		.loc 1 2337 5 is_stmt 1 view .LVU1200
 4118 0016 0D4B     		ldr	r3, .L396+4
 4119 0018 1968     		ldr	r1, [r3]
 4120 001a 2046     		mov	r0, r4
 4121 001c FFF7FEFF 		bl	tcp_netif_ip_addr_changed_pcblist
 4122              	.LVL415:
2339:c:/Users/Black_Life/STM32Cube/Repository/STM32Cube_FW_F4_V1.26.2/Middlewares/Third_Party/LwIP/src/core\tcp.c ****       /* PCB bound to current local interface address? */
 4123              		.loc 1 2339 5 view .LVU1201
2339:c:/Users/Black_Life/STM32Cube/Repository/STM32Cube_FW_F4_V1.26.2/Middlewares/Third_Party/LwIP/src/core\tcp.c ****       /* PCB bound to current local interface address? */
 4124              		.loc 1 2339 8 is_stmt 0 view .LVU1202
 4125 0020 002D     		cmp	r5, #0
 4126 0022 F3D0     		beq	.L386
2339:c:/Users/Black_Life/STM32Cube/Repository/STM32Cube_FW_F4_V1.26.2/Middlewares/Third_Party/LwIP/src/core\tcp.c ****       /* PCB bound to current local interface address? */
 4127              		.loc 1 2339 10 discriminator 1 view .LVU1203
 4128 0024 2B68     		ldr	r3, [r5]
2339:c:/Users/Black_Life/STM32Cube/Repository/STM32Cube_FW_F4_V1.26.2/Middlewares/Third_Party/LwIP/src/core\tcp.c ****       /* PCB bound to current local interface address? */
 4129              		.loc 1 2339 9 discriminator 1 view .LVU1204
 4130 0026 002B     		cmp	r3, #0
 4131 0028 F0D0     		beq	.L386
2341:c:/Users/Black_Life/STM32Cube/Repository/STM32Cube_FW_F4_V1.26.2/Middlewares/Third_Party/LwIP/src/core\tcp.c ****         /* PCB bound to current local interface address? */
 4132              		.loc 1 2341 7 is_stmt 1 view .LVU1205
2341:c:/Users/Black_Life/STM32Cube/Repository/STM32Cube_FW_F4_V1.26.2/Middlewares/Third_Party/LwIP/src/core\tcp.c ****         /* PCB bound to current local interface address? */
 4133              		.loc 1 2341 17 is_stmt 0 view .LVU1206
ARM GAS  C:\Users\BLACK_~1\AppData\Local\Temp\ccRovO0r.s 			page 135


 4134 002a 094B     		ldr	r3, .L396+8
 4135 002c 1B68     		ldr	r3, [r3]
 4136              	.LVL416:
2341:c:/Users/Black_Life/STM32Cube/Repository/STM32Cube_FW_F4_V1.26.2/Middlewares/Third_Party/LwIP/src/core\tcp.c ****         /* PCB bound to current local interface address? */
 4137              		.loc 1 2341 7 view .LVU1207
 4138 002e 00E0     		b	.L388
 4139              	.L389:
2341:c:/Users/Black_Life/STM32Cube/Repository/STM32Cube_FW_F4_V1.26.2/Middlewares/Third_Party/LwIP/src/core\tcp.c ****         /* PCB bound to current local interface address? */
 4140              		.loc 1 2341 62 is_stmt 1 discriminator 2 view .LVU1208
2341:c:/Users/Black_Life/STM32Cube/Repository/STM32Cube_FW_F4_V1.26.2/Middlewares/Third_Party/LwIP/src/core\tcp.c ****         /* PCB bound to current local interface address? */
 4141              		.loc 1 2341 67 is_stmt 0 discriminator 2 view .LVU1209
 4142 0030 DB68     		ldr	r3, [r3, #12]
 4143              	.LVL417:
 4144              	.L388:
2341:c:/Users/Black_Life/STM32Cube/Repository/STM32Cube_FW_F4_V1.26.2/Middlewares/Third_Party/LwIP/src/core\tcp.c ****         /* PCB bound to current local interface address? */
 4145              		.loc 1 2341 48 is_stmt 1 discriminator 1 view .LVU1210
2341:c:/Users/Black_Life/STM32Cube/Repository/STM32Cube_FW_F4_V1.26.2/Middlewares/Third_Party/LwIP/src/core\tcp.c ****         /* PCB bound to current local interface address? */
 4146              		.loc 1 2341 7 is_stmt 0 discriminator 1 view .LVU1211
 4147 0032 002B     		cmp	r3, #0
 4148 0034 EAD0     		beq	.L386
2343:c:/Users/Black_Life/STM32Cube/Repository/STM32Cube_FW_F4_V1.26.2/Middlewares/Third_Party/LwIP/src/core\tcp.c ****           /* The PCB is listening to the old ipaddr and
 4149              		.loc 1 2343 9 is_stmt 1 view .LVU1212
2343:c:/Users/Black_Life/STM32Cube/Repository/STM32Cube_FW_F4_V1.26.2/Middlewares/Third_Party/LwIP/src/core\tcp.c ****           /* The PCB is listening to the old ipaddr and
 4150              		.loc 1 2343 13 is_stmt 0 view .LVU1213
 4151 0036 1968     		ldr	r1, [r3]
 4152 0038 2268     		ldr	r2, [r4]
2343:c:/Users/Black_Life/STM32Cube/Repository/STM32Cube_FW_F4_V1.26.2/Middlewares/Third_Party/LwIP/src/core\tcp.c ****           /* The PCB is listening to the old ipaddr and
 4153              		.loc 1 2343 12 view .LVU1214
 4154 003a 9142     		cmp	r1, r2
 4155 003c F8D1     		bne	.L389
2346:c:/Users/Black_Life/STM32Cube/Repository/STM32Cube_FW_F4_V1.26.2/Middlewares/Third_Party/LwIP/src/core\tcp.c ****         }
 4156              		.loc 1 2346 11 is_stmt 1 view .LVU1215
 4157 003e 2A68     		ldr	r2, [r5]
 4158 0040 1A60     		str	r2, [r3]
 4159 0042 F5E7     		b	.L389
 4160              	.LVL418:
 4161              	.L392:
 4162              	.LCFI43:
 4163              		.cfi_def_cfa_offset 0
 4164              		.cfi_restore 3
 4165              		.cfi_restore 4
 4166              		.cfi_restore 5
 4167              		.cfi_restore 14
2346:c:/Users/Black_Life/STM32Cube/Repository/STM32Cube_FW_F4_V1.26.2/Middlewares/Third_Party/LwIP/src/core\tcp.c ****         }
 4168              		.loc 1 2346 11 is_stmt 0 view .LVU1216
 4169 0044 7047     		bx	lr
 4170              	.L397:
 4171 0046 00BF     		.align	2
 4172              	.L396:
 4173 0048 00000000 		.word	.LANCHOR2
 4174 004c 00000000 		.word	.LANCHOR3
 4175 0050 00000000 		.word	.LANCHOR4
 4176              		.cfi_endproc
 4177              	.LFE204:
 4179              		.section	.rodata.tcp_kill_state.str1.4,"aMS",%progbits,1
 4180              		.align	2
 4181              	.LC37:
ARM GAS  C:\Users\BLACK_~1\AppData\Local\Temp\ccRovO0r.s 			page 136


 4182 0000 696E7661 		.ascii	"invalid state\000"
 4182      6C696420 
 4182      73746174 
 4182      6500
 4183              		.section	.text.tcp_kill_state,"ax",%progbits
 4184              		.align	1
 4185              		.syntax unified
 4186              		.thumb
 4187              		.thumb_func
 4189              	tcp_kill_state:
 4190              	.LVL419:
 4191              	.LFB187:
1753:c:/Users/Black_Life/STM32Cube/Repository/STM32Cube_FW_F4_V1.26.2/Middlewares/Third_Party/LwIP/src/core\tcp.c ****   struct tcp_pcb *pcb, *inactive;
 4192              		.loc 1 1753 1 is_stmt 1 view -0
 4193              		.cfi_startproc
 4194              		@ args = 0, pretend = 0, frame = 0
 4195              		@ frame_needed = 0, uses_anonymous_args = 0
1753:c:/Users/Black_Life/STM32Cube/Repository/STM32Cube_FW_F4_V1.26.2/Middlewares/Third_Party/LwIP/src/core\tcp.c ****   struct tcp_pcb *pcb, *inactive;
 4196              		.loc 1 1753 1 is_stmt 0 view .LVU1218
 4197 0000 38B5     		push	{r3, r4, r5, lr}
 4198              	.LCFI44:
 4199              		.cfi_def_cfa_offset 16
 4200              		.cfi_offset 3, -16
 4201              		.cfi_offset 4, -12
 4202              		.cfi_offset 5, -8
 4203              		.cfi_offset 14, -4
 4204 0002 0446     		mov	r4, r0
1754:c:/Users/Black_Life/STM32Cube/Repository/STM32Cube_FW_F4_V1.26.2/Middlewares/Third_Party/LwIP/src/core\tcp.c ****   u32_t inactivity;
 4205              		.loc 1 1754 3 is_stmt 1 view .LVU1219
1755:c:/Users/Black_Life/STM32Cube/Repository/STM32Cube_FW_F4_V1.26.2/Middlewares/Third_Party/LwIP/src/core\tcp.c **** 
 4206              		.loc 1 1755 3 view .LVU1220
1757:c:/Users/Black_Life/STM32Cube/Repository/STM32Cube_FW_F4_V1.26.2/Middlewares/Third_Party/LwIP/src/core\tcp.c **** 
 4207              		.loc 1 1757 3 view .LVU1221
1757:c:/Users/Black_Life/STM32Cube/Repository/STM32Cube_FW_F4_V1.26.2/Middlewares/Third_Party/LwIP/src/core\tcp.c **** 
 4208              		.loc 1 1757 3 view .LVU1222
 4209 0004 A0F10803 		sub	r3, r0, #8
 4210 0008 DBB2     		uxtb	r3, r3
 4211 000a 012B     		cmp	r3, #1
 4212 000c 04D8     		bhi	.L406
 4213              	.LVL420:
 4214              	.L399:
1757:c:/Users/Black_Life/STM32Cube/Repository/STM32Cube_FW_F4_V1.26.2/Middlewares/Third_Party/LwIP/src/core\tcp.c **** 
 4215              		.loc 1 1757 3 discriminator 3 view .LVU1223
1757:c:/Users/Black_Life/STM32Cube/Repository/STM32Cube_FW_F4_V1.26.2/Middlewares/Third_Party/LwIP/src/core\tcp.c **** 
 4216              		.loc 1 1757 3 discriminator 3 view .LVU1224
1759:c:/Users/Black_Life/STM32Cube/Repository/STM32Cube_FW_F4_V1.26.2/Middlewares/Third_Party/LwIP/src/core\tcp.c ****   inactive = NULL;
 4217              		.loc 1 1759 3 discriminator 3 view .LVU1225
1760:c:/Users/Black_Life/STM32Cube/Repository/STM32Cube_FW_F4_V1.26.2/Middlewares/Third_Party/LwIP/src/core\tcp.c ****   /* Go through the list of active pcbs and get the oldest pcb that is in state
 4218              		.loc 1 1760 3 discriminator 3 view .LVU1226
1763:c:/Users/Black_Life/STM32Cube/Repository/STM32Cube_FW_F4_V1.26.2/Middlewares/Third_Party/LwIP/src/core\tcp.c ****     if (pcb->state == state) {
 4219              		.loc 1 1763 3 discriminator 3 view .LVU1227
1763:c:/Users/Black_Life/STM32Cube/Repository/STM32Cube_FW_F4_V1.26.2/Middlewares/Third_Party/LwIP/src/core\tcp.c ****     if (pcb->state == state) {
 4220              		.loc 1 1763 12 is_stmt 0 discriminator 3 view .LVU1228
 4221 000e 104B     		ldr	r3, .L408
 4222 0010 1B68     		ldr	r3, [r3]
 4223              	.LVL421:
1759:c:/Users/Black_Life/STM32Cube/Repository/STM32Cube_FW_F4_V1.26.2/Middlewares/Third_Party/LwIP/src/core\tcp.c ****   inactive = NULL;
ARM GAS  C:\Users\BLACK_~1\AppData\Local\Temp\ccRovO0r.s 			page 137


 4224              		.loc 1 1759 14 discriminator 3 view .LVU1229
 4225 0012 0021     		movs	r1, #0
1760:c:/Users/Black_Life/STM32Cube/Repository/STM32Cube_FW_F4_V1.26.2/Middlewares/Third_Party/LwIP/src/core\tcp.c ****   /* Go through the list of active pcbs and get the oldest pcb that is in state
 4226              		.loc 1 1760 12 discriminator 3 view .LVU1230
 4227 0014 0846     		mov	r0, r1
1763:c:/Users/Black_Life/STM32Cube/Repository/STM32Cube_FW_F4_V1.26.2/Middlewares/Third_Party/LwIP/src/core\tcp.c ****     if (pcb->state == state) {
 4228              		.loc 1 1763 3 discriminator 3 view .LVU1231
 4229 0016 08E0     		b	.L400
 4230              	.LVL422:
 4231              	.L406:
1757:c:/Users/Black_Life/STM32Cube/Repository/STM32Cube_FW_F4_V1.26.2/Middlewares/Third_Party/LwIP/src/core\tcp.c **** 
 4232              		.loc 1 1757 3 is_stmt 1 discriminator 1 view .LVU1232
1757:c:/Users/Black_Life/STM32Cube/Repository/STM32Cube_FW_F4_V1.26.2/Middlewares/Third_Party/LwIP/src/core\tcp.c **** 
 4233              		.loc 1 1757 3 discriminator 1 view .LVU1233
 4234 0018 0E4B     		ldr	r3, .L408+4
 4235 001a 40F2DD62 		movw	r2, #1757
 4236 001e 0E49     		ldr	r1, .L408+8
 4237 0020 0E48     		ldr	r0, .L408+12
 4238              	.LVL423:
1757:c:/Users/Black_Life/STM32Cube/Repository/STM32Cube_FW_F4_V1.26.2/Middlewares/Third_Party/LwIP/src/core\tcp.c **** 
 4239              		.loc 1 1757 3 is_stmt 0 discriminator 1 view .LVU1234
 4240 0022 FFF7FEFF 		bl	printf
 4241              	.LVL424:
 4242 0026 F2E7     		b	.L399
 4243              	.LVL425:
 4244              	.L401:
1763:c:/Users/Black_Life/STM32Cube/Repository/STM32Cube_FW_F4_V1.26.2/Middlewares/Third_Party/LwIP/src/core\tcp.c ****     if (pcb->state == state) {
 4245              		.loc 1 1763 44 is_stmt 1 discriminator 2 view .LVU1235
1763:c:/Users/Black_Life/STM32Cube/Repository/STM32Cube_FW_F4_V1.26.2/Middlewares/Third_Party/LwIP/src/core\tcp.c ****     if (pcb->state == state) {
 4246              		.loc 1 1763 48 is_stmt 0 discriminator 2 view .LVU1236
 4247 0028 DB68     		ldr	r3, [r3, #12]
 4248              	.LVL426:
 4249              	.L400:
1763:c:/Users/Black_Life/STM32Cube/Repository/STM32Cube_FW_F4_V1.26.2/Middlewares/Third_Party/LwIP/src/core\tcp.c ****     if (pcb->state == state) {
 4250              		.loc 1 1763 31 is_stmt 1 discriminator 1 view .LVU1237
1763:c:/Users/Black_Life/STM32Cube/Repository/STM32Cube_FW_F4_V1.26.2/Middlewares/Third_Party/LwIP/src/core\tcp.c ****     if (pcb->state == state) {
 4251              		.loc 1 1763 3 is_stmt 0 discriminator 1 view .LVU1238
 4252 002a 5BB1     		cbz	r3, .L407
1764:c:/Users/Black_Life/STM32Cube/Repository/STM32Cube_FW_F4_V1.26.2/Middlewares/Third_Party/LwIP/src/core\tcp.c ****       if ((u32_t)(tcp_ticks - pcb->tmr) >= inactivity) {
 4253              		.loc 1 1764 5 is_stmt 1 view .LVU1239
1764:c:/Users/Black_Life/STM32Cube/Repository/STM32Cube_FW_F4_V1.26.2/Middlewares/Third_Party/LwIP/src/core\tcp.c ****       if ((u32_t)(tcp_ticks - pcb->tmr) >= inactivity) {
 4254              		.loc 1 1764 12 is_stmt 0 view .LVU1240
 4255 002c 1A7D     		ldrb	r2, [r3, #20]	@ zero_extendqisi2
1764:c:/Users/Black_Life/STM32Cube/Repository/STM32Cube_FW_F4_V1.26.2/Middlewares/Third_Party/LwIP/src/core\tcp.c ****       if ((u32_t)(tcp_ticks - pcb->tmr) >= inactivity) {
 4256              		.loc 1 1764 8 view .LVU1241
 4257 002e A242     		cmp	r2, r4
 4258 0030 FAD1     		bne	.L401
1765:c:/Users/Black_Life/STM32Cube/Repository/STM32Cube_FW_F4_V1.26.2/Middlewares/Third_Party/LwIP/src/core\tcp.c ****         inactivity = tcp_ticks - pcb->tmr;
 4259              		.loc 1 1765 7 is_stmt 1 view .LVU1242
1765:c:/Users/Black_Life/STM32Cube/Repository/STM32Cube_FW_F4_V1.26.2/Middlewares/Third_Party/LwIP/src/core\tcp.c ****         inactivity = tcp_ticks - pcb->tmr;
 4260              		.loc 1 1765 29 is_stmt 0 view .LVU1243
 4261 0032 0B4A     		ldr	r2, .L408+16
 4262 0034 1268     		ldr	r2, [r2]
 4263 0036 1D6A     		ldr	r5, [r3, #32]
 4264 0038 521B     		subs	r2, r2, r5
1765:c:/Users/Black_Life/STM32Cube/Repository/STM32Cube_FW_F4_V1.26.2/Middlewares/Third_Party/LwIP/src/core\tcp.c ****         inactivity = tcp_ticks - pcb->tmr;
 4265              		.loc 1 1765 10 view .LVU1244
ARM GAS  C:\Users\BLACK_~1\AppData\Local\Temp\ccRovO0r.s 			page 138


 4266 003a 8A42     		cmp	r2, r1
 4267 003c F4D3     		bcc	.L401
1766:c:/Users/Black_Life/STM32Cube/Repository/STM32Cube_FW_F4_V1.26.2/Middlewares/Third_Party/LwIP/src/core\tcp.c ****         inactive = pcb;
 4268              		.loc 1 1766 20 view .LVU1245
 4269 003e 1146     		mov	r1, r2
 4270              	.LVL427:
1767:c:/Users/Black_Life/STM32Cube/Repository/STM32Cube_FW_F4_V1.26.2/Middlewares/Third_Party/LwIP/src/core\tcp.c ****       }
 4271              		.loc 1 1767 18 view .LVU1246
 4272 0040 1846     		mov	r0, r3
 4273              	.LVL428:
1767:c:/Users/Black_Life/STM32Cube/Repository/STM32Cube_FW_F4_V1.26.2/Middlewares/Third_Party/LwIP/src/core\tcp.c ****       }
 4274              		.loc 1 1767 18 view .LVU1247
 4275 0042 F1E7     		b	.L401
 4276              	.LVL429:
 4277              	.L407:
1771:c:/Users/Black_Life/STM32Cube/Repository/STM32Cube_FW_F4_V1.26.2/Middlewares/Third_Party/LwIP/src/core\tcp.c ****     LWIP_DEBUGF(TCP_DEBUG, ("tcp_kill_closing: killing oldest %s PCB %p (%"S32_F")\n",
 4278              		.loc 1 1771 3 is_stmt 1 view .LVU1248
1771:c:/Users/Black_Life/STM32Cube/Repository/STM32Cube_FW_F4_V1.26.2/Middlewares/Third_Party/LwIP/src/core\tcp.c ****     LWIP_DEBUGF(TCP_DEBUG, ("tcp_kill_closing: killing oldest %s PCB %p (%"S32_F")\n",
 4279              		.loc 1 1771 6 is_stmt 0 view .LVU1249
 4280 0044 10B1     		cbz	r0, .L398
1773:c:/Users/Black_Life/STM32Cube/Repository/STM32Cube_FW_F4_V1.26.2/Middlewares/Third_Party/LwIP/src/core\tcp.c ****     /* Don't send a RST, since no data is lost. */
 4281              		.loc 1 1773 81 is_stmt 1 view .LVU1250
1775:c:/Users/Black_Life/STM32Cube/Repository/STM32Cube_FW_F4_V1.26.2/Middlewares/Third_Party/LwIP/src/core\tcp.c ****   }
 4282              		.loc 1 1775 5 view .LVU1251
 4283 0046 0021     		movs	r1, #0
 4284              	.LVL430:
1775:c:/Users/Black_Life/STM32Cube/Repository/STM32Cube_FW_F4_V1.26.2/Middlewares/Third_Party/LwIP/src/core\tcp.c ****   }
 4285              		.loc 1 1775 5 is_stmt 0 view .LVU1252
 4286 0048 FFF7FEFF 		bl	tcp_abandon
 4287              	.LVL431:
 4288              	.L398:
1777:c:/Users/Black_Life/STM32Cube/Repository/STM32Cube_FW_F4_V1.26.2/Middlewares/Third_Party/LwIP/src/core\tcp.c **** 
 4289              		.loc 1 1777 1 view .LVU1253
 4290 004c 38BD     		pop	{r3, r4, r5, pc}
 4291              	.L409:
 4292 004e 00BF     		.align	2
 4293              	.L408:
 4294 0050 00000000 		.word	.LANCHOR2
 4295 0054 00000000 		.word	.LC0
 4296 0058 00000000 		.word	.LC37
 4297 005c 98000000 		.word	.LC2
 4298 0060 00000000 		.word	.LANCHOR6
 4299              		.cfi_endproc
 4300              	.LFE187:
 4302              		.section	.text.tcp_alloc,"ax",%progbits
 4303              		.align	1
 4304              		.global	tcp_alloc
 4305              		.syntax unified
 4306              		.thumb
 4307              		.thumb_func
 4309              	tcp_alloc:
 4310              	.LVL432:
 4311              	.LFB190:
1835:c:/Users/Black_Life/STM32Cube/Repository/STM32Cube_FW_F4_V1.26.2/Middlewares/Third_Party/LwIP/src/core\tcp.c ****   struct tcp_pcb *pcb;
 4312              		.loc 1 1835 1 is_stmt 1 view -0
 4313              		.cfi_startproc
 4314              		@ args = 0, pretend = 0, frame = 0
ARM GAS  C:\Users\BLACK_~1\AppData\Local\Temp\ccRovO0r.s 			page 139


 4315              		@ frame_needed = 0, uses_anonymous_args = 0
1835:c:/Users/Black_Life/STM32Cube/Repository/STM32Cube_FW_F4_V1.26.2/Middlewares/Third_Party/LwIP/src/core\tcp.c ****   struct tcp_pcb *pcb;
 4316              		.loc 1 1835 1 is_stmt 0 view .LVU1255
 4317 0000 38B5     		push	{r3, r4, r5, lr}
 4318              	.LCFI45:
 4319              		.cfi_def_cfa_offset 16
 4320              		.cfi_offset 3, -16
 4321              		.cfi_offset 4, -12
 4322              		.cfi_offset 5, -8
 4323              		.cfi_offset 14, -4
 4324 0002 0546     		mov	r5, r0
1836:c:/Users/Black_Life/STM32Cube/Repository/STM32Cube_FW_F4_V1.26.2/Middlewares/Third_Party/LwIP/src/core\tcp.c **** 
 4325              		.loc 1 1836 3 is_stmt 1 view .LVU1256
1838:c:/Users/Black_Life/STM32Cube/Repository/STM32Cube_FW_F4_V1.26.2/Middlewares/Third_Party/LwIP/src/core\tcp.c **** 
 4326              		.loc 1 1838 28 view .LVU1257
1840:c:/Users/Black_Life/STM32Cube/Repository/STM32Cube_FW_F4_V1.26.2/Middlewares/Third_Party/LwIP/src/core\tcp.c ****   if (pcb == NULL) {
 4327              		.loc 1 1840 3 view .LVU1258
1840:c:/Users/Black_Life/STM32Cube/Repository/STM32Cube_FW_F4_V1.26.2/Middlewares/Third_Party/LwIP/src/core\tcp.c ****   if (pcb == NULL) {
 4328              		.loc 1 1840 27 is_stmt 0 view .LVU1259
 4329 0004 0120     		movs	r0, #1
 4330              	.LVL433:
1840:c:/Users/Black_Life/STM32Cube/Repository/STM32Cube_FW_F4_V1.26.2/Middlewares/Third_Party/LwIP/src/core\tcp.c ****   if (pcb == NULL) {
 4331              		.loc 1 1840 27 view .LVU1260
 4332 0006 FFF7FEFF 		bl	memp_malloc
 4333              	.LVL434:
1841:c:/Users/Black_Life/STM32Cube/Repository/STM32Cube_FW_F4_V1.26.2/Middlewares/Third_Party/LwIP/src/core\tcp.c ****     /* Try to send FIN for all pcbs stuck in TF_CLOSEPEND first */
 4334              		.loc 1 1841 3 is_stmt 1 view .LVU1261
1841:c:/Users/Black_Life/STM32Cube/Repository/STM32Cube_FW_F4_V1.26.2/Middlewares/Third_Party/LwIP/src/core\tcp.c ****     /* Try to send FIN for all pcbs stuck in TF_CLOSEPEND first */
 4335              		.loc 1 1841 6 is_stmt 0 view .LVU1262
 4336 000a 0446     		mov	r4, r0
 4337 000c 68B3     		cbz	r0, .L414
 4338              	.L411:
1885:c:/Users/Black_Life/STM32Cube/Repository/STM32Cube_FW_F4_V1.26.2/Middlewares/Third_Party/LwIP/src/core\tcp.c ****     }
 4339              		.loc 1 1885 40 is_stmt 1 view .LVU1263
1888:c:/Users/Black_Life/STM32Cube/Repository/STM32Cube_FW_F4_V1.26.2/Middlewares/Third_Party/LwIP/src/core\tcp.c ****     /* zero out the whole pcb, so there is no need to initialize members to zero */
 4340              		.loc 1 1888 3 view .LVU1264
1888:c:/Users/Black_Life/STM32Cube/Repository/STM32Cube_FW_F4_V1.26.2/Middlewares/Third_Party/LwIP/src/core\tcp.c ****     /* zero out the whole pcb, so there is no need to initialize members to zero */
 4341              		.loc 1 1888 6 is_stmt 0 view .LVU1265
 4342 000e 54B3     		cbz	r4, .L410
1890:c:/Users/Black_Life/STM32Cube/Repository/STM32Cube_FW_F4_V1.26.2/Middlewares/Third_Party/LwIP/src/core\tcp.c ****     pcb->prio = prio;
 4343              		.loc 1 1890 5 is_stmt 1 view .LVU1266
 4344 0010 9C22     		movs	r2, #156
 4345 0012 0021     		movs	r1, #0
 4346 0014 2046     		mov	r0, r4
1890:c:/Users/Black_Life/STM32Cube/Repository/STM32Cube_FW_F4_V1.26.2/Middlewares/Third_Party/LwIP/src/core\tcp.c ****     pcb->prio = prio;
 4347              		.loc 1 1890 5 is_stmt 0 view .LVU1267
 4348 0016 FFF7FEFF 		bl	memset
 4349              	.LVL435:
1891:c:/Users/Black_Life/STM32Cube/Repository/STM32Cube_FW_F4_V1.26.2/Middlewares/Third_Party/LwIP/src/core\tcp.c ****     pcb->snd_buf = TCP_SND_BUF;
 4350              		.loc 1 1891 5 is_stmt 1 view .LVU1268
1891:c:/Users/Black_Life/STM32Cube/Repository/STM32Cube_FW_F4_V1.26.2/Middlewares/Third_Party/LwIP/src/core\tcp.c ****     pcb->snd_buf = TCP_SND_BUF;
 4351              		.loc 1 1891 15 is_stmt 0 view .LVU1269
 4352 001a 6575     		strb	r5, [r4, #21]
1892:c:/Users/Black_Life/STM32Cube/Repository/STM32Cube_FW_F4_V1.26.2/Middlewares/Third_Party/LwIP/src/core\tcp.c ****     /* Start with a window that does not need scaling. When window scaling is
 4353              		.loc 1 1892 5 is_stmt 1 view .LVU1270
1892:c:/Users/Black_Life/STM32Cube/Repository/STM32Cube_FW_F4_V1.26.2/Middlewares/Third_Party/LwIP/src/core\tcp.c ****     /* Start with a window that does not need scaling. When window scaling is
 4354              		.loc 1 1892 18 is_stmt 0 view .LVU1271
ARM GAS  C:\Users\BLACK_~1\AppData\Local\Temp\ccRovO0r.s 			page 140


 4355 001c 4FF48663 		mov	r3, #1072
 4356 0020 A4F86430 		strh	r3, [r4, #100]	@ movhi
1895:c:/Users/Black_Life/STM32Cube/Repository/STM32Cube_FW_F4_V1.26.2/Middlewares/Third_Party/LwIP/src/core\tcp.c ****     pcb->ttl = TCP_TTL;
 4357              		.loc 1 1895 5 is_stmt 1 view .LVU1272
1895:c:/Users/Black_Life/STM32Cube/Repository/STM32Cube_FW_F4_V1.26.2/Middlewares/Third_Party/LwIP/src/core\tcp.c ****     pcb->ttl = TCP_TTL;
 4358              		.loc 1 1895 37 is_stmt 0 view .LVU1273
 4359 0024 4FF40662 		mov	r2, #2144
 4360 0028 6285     		strh	r2, [r4, #42]	@ movhi
1895:c:/Users/Black_Life/STM32Cube/Repository/STM32Cube_FW_F4_V1.26.2/Middlewares/Third_Party/LwIP/src/core\tcp.c ****     pcb->ttl = TCP_TTL;
 4361              		.loc 1 1895 18 view .LVU1274
 4362 002a 2285     		strh	r2, [r4, #40]	@ movhi
1896:c:/Users/Black_Life/STM32Cube/Repository/STM32Cube_FW_F4_V1.26.2/Middlewares/Third_Party/LwIP/src/core\tcp.c ****     /* As initial send MSS, we use TCP_MSS but limit it to 536.
 4363              		.loc 1 1896 5 is_stmt 1 view .LVU1275
1896:c:/Users/Black_Life/STM32Cube/Repository/STM32Cube_FW_F4_V1.26.2/Middlewares/Third_Party/LwIP/src/core\tcp.c ****     /* As initial send MSS, we use TCP_MSS but limit it to 536.
 4364              		.loc 1 1896 14 is_stmt 0 view .LVU1276
 4365 002c FF22     		movs	r2, #255
 4366 002e E272     		strb	r2, [r4, #11]
1899:c:/Users/Black_Life/STM32Cube/Repository/STM32Cube_FW_F4_V1.26.2/Middlewares/Third_Party/LwIP/src/core\tcp.c ****     pcb->rto = 3000 / TCP_SLOW_INTERVAL;
 4367              		.loc 1 1899 5 is_stmt 1 view .LVU1277
1899:c:/Users/Black_Life/STM32Cube/Repository/STM32Cube_FW_F4_V1.26.2/Middlewares/Third_Party/LwIP/src/core\tcp.c ****     pcb->rto = 3000 / TCP_SLOW_INTERVAL;
 4368              		.loc 1 1899 14 is_stmt 0 view .LVU1278
 4369 0030 4FF40672 		mov	r2, #536
 4370 0034 6286     		strh	r2, [r4, #50]	@ movhi
1900:c:/Users/Black_Life/STM32Cube/Repository/STM32Cube_FW_F4_V1.26.2/Middlewares/Third_Party/LwIP/src/core\tcp.c ****     pcb->sv = 3000 / TCP_SLOW_INTERVAL;
 4371              		.loc 1 1900 5 is_stmt 1 view .LVU1279
1900:c:/Users/Black_Life/STM32Cube/Repository/STM32Cube_FW_F4_V1.26.2/Middlewares/Third_Party/LwIP/src/core\tcp.c ****     pcb->sv = 3000 / TCP_SLOW_INTERVAL;
 4372              		.loc 1 1900 14 is_stmt 0 view .LVU1280
 4373 0036 0622     		movs	r2, #6
 4374 0038 A4F84020 		strh	r2, [r4, #64]	@ movhi
1901:c:/Users/Black_Life/STM32Cube/Repository/STM32Cube_FW_F4_V1.26.2/Middlewares/Third_Party/LwIP/src/core\tcp.c ****     pcb->rtime = -1;
 4375              		.loc 1 1901 5 is_stmt 1 view .LVU1281
1901:c:/Users/Black_Life/STM32Cube/Repository/STM32Cube_FW_F4_V1.26.2/Middlewares/Third_Party/LwIP/src/core\tcp.c ****     pcb->rtime = -1;
 4376              		.loc 1 1901 13 is_stmt 0 view .LVU1282
 4377 003c E287     		strh	r2, [r4, #62]	@ movhi
1902:c:/Users/Black_Life/STM32Cube/Repository/STM32Cube_FW_F4_V1.26.2/Middlewares/Third_Party/LwIP/src/core\tcp.c ****     pcb->cwnd = 1;
 4378              		.loc 1 1902 5 is_stmt 1 view .LVU1283
1902:c:/Users/Black_Life/STM32Cube/Repository/STM32Cube_FW_F4_V1.26.2/Middlewares/Third_Party/LwIP/src/core\tcp.c ****     pcb->cwnd = 1;
 4379              		.loc 1 1902 16 is_stmt 0 view .LVU1284
 4380 003e 4FF6FF72 		movw	r2, #65535
 4381 0042 2286     		strh	r2, [r4, #48]	@ movhi
1903:c:/Users/Black_Life/STM32Cube/Repository/STM32Cube_FW_F4_V1.26.2/Middlewares/Third_Party/LwIP/src/core\tcp.c ****     pcb->tmr = tcp_ticks;
 4382              		.loc 1 1903 5 is_stmt 1 view .LVU1285
1903:c:/Users/Black_Life/STM32Cube/Repository/STM32Cube_FW_F4_V1.26.2/Middlewares/Third_Party/LwIP/src/core\tcp.c ****     pcb->tmr = tcp_ticks;
 4383              		.loc 1 1903 15 is_stmt 0 view .LVU1286
 4384 0044 0122     		movs	r2, #1
 4385 0046 A4F84820 		strh	r2, [r4, #72]	@ movhi
1904:c:/Users/Black_Life/STM32Cube/Repository/STM32Cube_FW_F4_V1.26.2/Middlewares/Third_Party/LwIP/src/core\tcp.c ****     pcb->last_timer = tcp_timer_ctr;
 4386              		.loc 1 1904 5 is_stmt 1 view .LVU1287
1904:c:/Users/Black_Life/STM32Cube/Repository/STM32Cube_FW_F4_V1.26.2/Middlewares/Third_Party/LwIP/src/core\tcp.c ****     pcb->last_timer = tcp_timer_ctr;
 4387              		.loc 1 1904 14 is_stmt 0 view .LVU1288
 4388 004a 1A4A     		ldr	r2, .L415
 4389 004c 1268     		ldr	r2, [r2]
 4390 004e 2262     		str	r2, [r4, #32]
1905:c:/Users/Black_Life/STM32Cube/Repository/STM32Cube_FW_F4_V1.26.2/Middlewares/Third_Party/LwIP/src/core\tcp.c **** 
 4391              		.loc 1 1905 5 is_stmt 1 view .LVU1289
1905:c:/Users/Black_Life/STM32Cube/Repository/STM32Cube_FW_F4_V1.26.2/Middlewares/Third_Party/LwIP/src/core\tcp.c **** 
 4392              		.loc 1 1905 21 is_stmt 0 view .LVU1290
ARM GAS  C:\Users\BLACK_~1\AppData\Local\Temp\ccRovO0r.s 			page 141


 4393 0050 194A     		ldr	r2, .L415+4
 4394 0052 1278     		ldrb	r2, [r2]	@ zero_extendqisi2
 4395 0054 A277     		strb	r2, [r4, #30]
1913:c:/Users/Black_Life/STM32Cube/Repository/STM32Cube_FW_F4_V1.26.2/Middlewares/Third_Party/LwIP/src/core\tcp.c **** 
 4396              		.loc 1 1913 5 is_stmt 1 view .LVU1291
1913:c:/Users/Black_Life/STM32Cube/Repository/STM32Cube_FW_F4_V1.26.2/Middlewares/Third_Party/LwIP/src/core\tcp.c **** 
 4397              		.loc 1 1913 19 is_stmt 0 view .LVU1292
 4398 0056 A4F84A30 		strh	r3, [r4, #74]	@ movhi
1916:c:/Users/Black_Life/STM32Cube/Repository/STM32Cube_FW_F4_V1.26.2/Middlewares/Third_Party/LwIP/src/core\tcp.c **** #endif /* LWIP_CALLBACK_API */
 4399              		.loc 1 1916 5 is_stmt 1 view .LVU1293
1916:c:/Users/Black_Life/STM32Cube/Repository/STM32Cube_FW_F4_V1.26.2/Middlewares/Third_Party/LwIP/src/core\tcp.c **** #endif /* LWIP_CALLBACK_API */
 4400              		.loc 1 1916 15 is_stmt 0 view .LVU1294
 4401 005a 184B     		ldr	r3, .L415+8
 4402 005c C4F88430 		str	r3, [r4, #132]
1920:c:/Users/Black_Life/STM32Cube/Repository/STM32Cube_FW_F4_V1.26.2/Middlewares/Third_Party/LwIP/src/core\tcp.c **** 
 4403              		.loc 1 1920 5 is_stmt 1 view .LVU1295
1920:c:/Users/Black_Life/STM32Cube/Repository/STM32Cube_FW_F4_V1.26.2/Middlewares/Third_Party/LwIP/src/core\tcp.c **** 
 4404              		.loc 1 1920 21 is_stmt 0 view .LVU1296
 4405 0060 174B     		ldr	r3, .L415+12
 4406 0062 C4F89430 		str	r3, [r4, #148]
1927:c:/Users/Black_Life/STM32Cube/Repository/STM32Cube_FW_F4_V1.26.2/Middlewares/Third_Party/LwIP/src/core\tcp.c **** }
 4407              		.loc 1 1927 3 is_stmt 1 view .LVU1297
 4408              	.L410:
1928:c:/Users/Black_Life/STM32Cube/Repository/STM32Cube_FW_F4_V1.26.2/Middlewares/Third_Party/LwIP/src/core\tcp.c **** 
 4409              		.loc 1 1928 1 is_stmt 0 view .LVU1298
 4410 0066 2046     		mov	r0, r4
 4411 0068 38BD     		pop	{r3, r4, r5, pc}
 4412              	.LVL436:
 4413              	.L414:
1843:c:/Users/Black_Life/STM32Cube/Repository/STM32Cube_FW_F4_V1.26.2/Middlewares/Third_Party/LwIP/src/core\tcp.c **** 
 4414              		.loc 1 1843 5 is_stmt 1 view .LVU1299
 4415 006a FFF7FEFF 		bl	tcp_handle_closepend
 4416              	.LVL437:
1846:c:/Users/Black_Life/STM32Cube/Repository/STM32Cube_FW_F4_V1.26.2/Middlewares/Third_Party/LwIP/src/core\tcp.c ****     tcp_kill_timewait();
 4417              		.loc 1 1846 85 view .LVU1300
1847:c:/Users/Black_Life/STM32Cube/Repository/STM32Cube_FW_F4_V1.26.2/Middlewares/Third_Party/LwIP/src/core\tcp.c ****     /* Try to allocate a tcp_pcb again. */
 4418              		.loc 1 1847 5 view .LVU1301
 4419 006e FFF7FEFF 		bl	tcp_kill_timewait
 4420              	.LVL438:
1849:c:/Users/Black_Life/STM32Cube/Repository/STM32Cube_FW_F4_V1.26.2/Middlewares/Third_Party/LwIP/src/core\tcp.c ****     if (pcb == NULL) {
 4421              		.loc 1 1849 5 view .LVU1302
1849:c:/Users/Black_Life/STM32Cube/Repository/STM32Cube_FW_F4_V1.26.2/Middlewares/Third_Party/LwIP/src/core\tcp.c ****     if (pcb == NULL) {
 4422              		.loc 1 1849 29 is_stmt 0 view .LVU1303
 4423 0072 0120     		movs	r0, #1
 4424 0074 FFF7FEFF 		bl	memp_malloc
 4425              	.LVL439:
1850:c:/Users/Black_Life/STM32Cube/Repository/STM32Cube_FW_F4_V1.26.2/Middlewares/Third_Party/LwIP/src/core\tcp.c ****       /* Try killing oldest connection in LAST-ACK (these wouldn't go to TIME-WAIT). */
 4426              		.loc 1 1850 5 is_stmt 1 view .LVU1304
1850:c:/Users/Black_Life/STM32Cube/Repository/STM32Cube_FW_F4_V1.26.2/Middlewares/Third_Party/LwIP/src/core\tcp.c ****       /* Try killing oldest connection in LAST-ACK (these wouldn't go to TIME-WAIT). */
 4427              		.loc 1 1850 8 is_stmt 0 view .LVU1305
 4428 0078 0446     		mov	r4, r0
 4429 007a 0028     		cmp	r0, #0
 4430 007c C7D1     		bne	.L411
1852:c:/Users/Black_Life/STM32Cube/Repository/STM32Cube_FW_F4_V1.26.2/Middlewares/Third_Party/LwIP/src/core\tcp.c ****       tcp_kill_state(LAST_ACK);
 4431              		.loc 1 1852 86 is_stmt 1 view .LVU1306
1853:c:/Users/Black_Life/STM32Cube/Repository/STM32Cube_FW_F4_V1.26.2/Middlewares/Third_Party/LwIP/src/core\tcp.c ****       /* Try to allocate a tcp_pcb again. */
 4432              		.loc 1 1853 7 view .LVU1307
ARM GAS  C:\Users\BLACK_~1\AppData\Local\Temp\ccRovO0r.s 			page 142


 4433 007e 0920     		movs	r0, #9
 4434              	.LVL440:
1853:c:/Users/Black_Life/STM32Cube/Repository/STM32Cube_FW_F4_V1.26.2/Middlewares/Third_Party/LwIP/src/core\tcp.c ****       /* Try to allocate a tcp_pcb again. */
 4435              		.loc 1 1853 7 is_stmt 0 view .LVU1308
 4436 0080 FFF7FEFF 		bl	tcp_kill_state
 4437              	.LVL441:
1855:c:/Users/Black_Life/STM32Cube/Repository/STM32Cube_FW_F4_V1.26.2/Middlewares/Third_Party/LwIP/src/core\tcp.c ****       if (pcb == NULL) {
 4438              		.loc 1 1855 7 is_stmt 1 view .LVU1309
1855:c:/Users/Black_Life/STM32Cube/Repository/STM32Cube_FW_F4_V1.26.2/Middlewares/Third_Party/LwIP/src/core\tcp.c ****       if (pcb == NULL) {
 4439              		.loc 1 1855 31 is_stmt 0 view .LVU1310
 4440 0084 0120     		movs	r0, #1
 4441 0086 FFF7FEFF 		bl	memp_malloc
 4442              	.LVL442:
1856:c:/Users/Black_Life/STM32Cube/Repository/STM32Cube_FW_F4_V1.26.2/Middlewares/Third_Party/LwIP/src/core\tcp.c ****         /* Try killing oldest connection in CLOSING. */
 4443              		.loc 1 1856 7 is_stmt 1 view .LVU1311
1856:c:/Users/Black_Life/STM32Cube/Repository/STM32Cube_FW_F4_V1.26.2/Middlewares/Third_Party/LwIP/src/core\tcp.c ****         /* Try killing oldest connection in CLOSING. */
 4444              		.loc 1 1856 10 is_stmt 0 view .LVU1312
 4445 008a 0446     		mov	r4, r0
 4446 008c 0028     		cmp	r0, #0
 4447 008e BED1     		bne	.L411
1858:c:/Users/Black_Life/STM32Cube/Repository/STM32Cube_FW_F4_V1.26.2/Middlewares/Third_Party/LwIP/src/core\tcp.c ****         tcp_kill_state(CLOSING);
 4448              		.loc 1 1858 87 is_stmt 1 view .LVU1313
1859:c:/Users/Black_Life/STM32Cube/Repository/STM32Cube_FW_F4_V1.26.2/Middlewares/Third_Party/LwIP/src/core\tcp.c ****         /* Try to allocate a tcp_pcb again. */
 4449              		.loc 1 1859 9 view .LVU1314
 4450 0090 0820     		movs	r0, #8
 4451              	.LVL443:
1859:c:/Users/Black_Life/STM32Cube/Repository/STM32Cube_FW_F4_V1.26.2/Middlewares/Third_Party/LwIP/src/core\tcp.c ****         /* Try to allocate a tcp_pcb again. */
 4452              		.loc 1 1859 9 is_stmt 0 view .LVU1315
 4453 0092 FFF7FEFF 		bl	tcp_kill_state
 4454              	.LVL444:
1861:c:/Users/Black_Life/STM32Cube/Repository/STM32Cube_FW_F4_V1.26.2/Middlewares/Third_Party/LwIP/src/core\tcp.c ****         if (pcb == NULL) {
 4455              		.loc 1 1861 9 is_stmt 1 view .LVU1316
1861:c:/Users/Black_Life/STM32Cube/Repository/STM32Cube_FW_F4_V1.26.2/Middlewares/Third_Party/LwIP/src/core\tcp.c ****         if (pcb == NULL) {
 4456              		.loc 1 1861 33 is_stmt 0 view .LVU1317
 4457 0096 0120     		movs	r0, #1
 4458 0098 FFF7FEFF 		bl	memp_malloc
 4459              	.LVL445:
1862:c:/Users/Black_Life/STM32Cube/Repository/STM32Cube_FW_F4_V1.26.2/Middlewares/Third_Party/LwIP/src/core\tcp.c ****           /* Try killing oldest active connection with lower priority than the new one. */
 4460              		.loc 1 1862 9 is_stmt 1 view .LVU1318
1862:c:/Users/Black_Life/STM32Cube/Repository/STM32Cube_FW_F4_V1.26.2/Middlewares/Third_Party/LwIP/src/core\tcp.c ****           /* Try killing oldest active connection with lower priority than the new one. */
 4461              		.loc 1 1862 12 is_stmt 0 view .LVU1319
 4462 009c 0446     		mov	r4, r0
 4463 009e 0028     		cmp	r0, #0
 4464 00a0 B5D1     		bne	.L411
1864:c:/Users/Black_Life/STM32Cube/Repository/STM32Cube_FW_F4_V1.26.2/Middlewares/Third_Party/LwIP/src/core\tcp.c ****           tcp_kill_prio(prio);
 4465              		.loc 1 1864 107 is_stmt 1 view .LVU1320
1865:c:/Users/Black_Life/STM32Cube/Repository/STM32Cube_FW_F4_V1.26.2/Middlewares/Third_Party/LwIP/src/core\tcp.c ****           /* Try to allocate a tcp_pcb again. */
 4466              		.loc 1 1865 11 view .LVU1321
 4467 00a2 2846     		mov	r0, r5
 4468              	.LVL446:
1865:c:/Users/Black_Life/STM32Cube/Repository/STM32Cube_FW_F4_V1.26.2/Middlewares/Third_Party/LwIP/src/core\tcp.c ****           /* Try to allocate a tcp_pcb again. */
 4469              		.loc 1 1865 11 is_stmt 0 view .LVU1322
 4470 00a4 FFF7FEFF 		bl	tcp_kill_prio
 4471              	.LVL447:
1867:c:/Users/Black_Life/STM32Cube/Repository/STM32Cube_FW_F4_V1.26.2/Middlewares/Third_Party/LwIP/src/core\tcp.c ****           if (pcb != NULL) {
 4472              		.loc 1 1867 11 is_stmt 1 view .LVU1323
1867:c:/Users/Black_Life/STM32Cube/Repository/STM32Cube_FW_F4_V1.26.2/Middlewares/Third_Party/LwIP/src/core\tcp.c ****           if (pcb != NULL) {
ARM GAS  C:\Users\BLACK_~1\AppData\Local\Temp\ccRovO0r.s 			page 143


 4473              		.loc 1 1867 35 is_stmt 0 view .LVU1324
 4474 00a8 0120     		movs	r0, #1
 4475 00aa FFF7FEFF 		bl	memp_malloc
 4476              	.LVL448:
 4477 00ae 0446     		mov	r4, r0
 4478              	.LVL449:
1868:c:/Users/Black_Life/STM32Cube/Repository/STM32Cube_FW_F4_V1.26.2/Middlewares/Third_Party/LwIP/src/core\tcp.c ****             /* adjust err stats: memp_malloc failed multiple times before */
 4479              		.loc 1 1868 11 is_stmt 1 view .LVU1325
 4480 00b0 ADE7     		b	.L411
 4481              	.L416:
 4482 00b2 00BF     		.align	2
 4483              	.L415:
 4484 00b4 00000000 		.word	.LANCHOR6
 4485 00b8 00000000 		.word	.LANCHOR10
 4486 00bc 00000000 		.word	tcp_recv_null
 4487 00c0 00DD6D00 		.word	7200000
 4488              		.cfi_endproc
 4489              	.LFE190:
 4491              		.section	.text.tcp_new,"ax",%progbits
 4492              		.align	1
 4493              		.global	tcp_new
 4494              		.syntax unified
 4495              		.thumb
 4496              		.thumb_func
 4498              	tcp_new:
 4499              	.LFB191:
1946:c:/Users/Black_Life/STM32Cube/Repository/STM32Cube_FW_F4_V1.26.2/Middlewares/Third_Party/LwIP/src/core\tcp.c ****   return tcp_alloc(TCP_PRIO_NORMAL);
 4500              		.loc 1 1946 1 view -0
 4501              		.cfi_startproc
 4502              		@ args = 0, pretend = 0, frame = 0
 4503              		@ frame_needed = 0, uses_anonymous_args = 0
 4504 0000 08B5     		push	{r3, lr}
 4505              	.LCFI46:
 4506              		.cfi_def_cfa_offset 8
 4507              		.cfi_offset 3, -8
 4508              		.cfi_offset 14, -4
1947:c:/Users/Black_Life/STM32Cube/Repository/STM32Cube_FW_F4_V1.26.2/Middlewares/Third_Party/LwIP/src/core\tcp.c **** }
 4509              		.loc 1 1947 3 view .LVU1327
1947:c:/Users/Black_Life/STM32Cube/Repository/STM32Cube_FW_F4_V1.26.2/Middlewares/Third_Party/LwIP/src/core\tcp.c **** }
 4510              		.loc 1 1947 10 is_stmt 0 view .LVU1328
 4511 0002 4020     		movs	r0, #64
 4512 0004 FFF7FEFF 		bl	tcp_alloc
 4513              	.LVL450:
1948:c:/Users/Black_Life/STM32Cube/Repository/STM32Cube_FW_F4_V1.26.2/Middlewares/Third_Party/LwIP/src/core\tcp.c **** 
 4514              		.loc 1 1948 1 view .LVU1329
 4515 0008 08BD     		pop	{r3, pc}
 4516              		.cfi_endproc
 4517              	.LFE191:
 4519              		.section	.text.tcp_new_ip_type,"ax",%progbits
 4520              		.align	1
 4521              		.global	tcp_new_ip_type
 4522              		.syntax unified
 4523              		.thumb
 4524              		.thumb_func
 4526              	tcp_new_ip_type:
 4527              	.LVL451:
 4528              	.LFB192:
ARM GAS  C:\Users\BLACK_~1\AppData\Local\Temp\ccRovO0r.s 			page 144


1963:c:/Users/Black_Life/STM32Cube/Repository/STM32Cube_FW_F4_V1.26.2/Middlewares/Third_Party/LwIP/src/core\tcp.c ****   struct tcp_pcb *pcb;
 4529              		.loc 1 1963 1 is_stmt 1 view -0
 4530              		.cfi_startproc
 4531              		@ args = 0, pretend = 0, frame = 0
 4532              		@ frame_needed = 0, uses_anonymous_args = 0
1963:c:/Users/Black_Life/STM32Cube/Repository/STM32Cube_FW_F4_V1.26.2/Middlewares/Third_Party/LwIP/src/core\tcp.c ****   struct tcp_pcb *pcb;
 4533              		.loc 1 1963 1 is_stmt 0 view .LVU1331
 4534 0000 08B5     		push	{r3, lr}
 4535              	.LCFI47:
 4536              		.cfi_def_cfa_offset 8
 4537              		.cfi_offset 3, -8
 4538              		.cfi_offset 14, -4
1964:c:/Users/Black_Life/STM32Cube/Repository/STM32Cube_FW_F4_V1.26.2/Middlewares/Third_Party/LwIP/src/core\tcp.c ****   pcb = tcp_alloc(TCP_PRIO_NORMAL);
 4539              		.loc 1 1964 3 is_stmt 1 view .LVU1332
1965:c:/Users/Black_Life/STM32Cube/Repository/STM32Cube_FW_F4_V1.26.2/Middlewares/Third_Party/LwIP/src/core\tcp.c **** #if LWIP_IPV4 && LWIP_IPV6
 4540              		.loc 1 1965 3 view .LVU1333
1965:c:/Users/Black_Life/STM32Cube/Repository/STM32Cube_FW_F4_V1.26.2/Middlewares/Third_Party/LwIP/src/core\tcp.c **** #if LWIP_IPV4 && LWIP_IPV6
 4541              		.loc 1 1965 9 is_stmt 0 view .LVU1334
 4542 0002 4020     		movs	r0, #64
 4543              	.LVL452:
1965:c:/Users/Black_Life/STM32Cube/Repository/STM32Cube_FW_F4_V1.26.2/Middlewares/Third_Party/LwIP/src/core\tcp.c **** #if LWIP_IPV4 && LWIP_IPV6
 4544              		.loc 1 1965 9 view .LVU1335
 4545 0004 FFF7FEFF 		bl	tcp_alloc
 4546              	.LVL453:
1972:c:/Users/Black_Life/STM32Cube/Repository/STM32Cube_FW_F4_V1.26.2/Middlewares/Third_Party/LwIP/src/core\tcp.c **** #endif /* LWIP_IPV4 && LWIP_IPV6 */
 4547              		.loc 1 1972 3 is_stmt 1 view .LVU1336
1974:c:/Users/Black_Life/STM32Cube/Repository/STM32Cube_FW_F4_V1.26.2/Middlewares/Third_Party/LwIP/src/core\tcp.c **** }
 4548              		.loc 1 1974 3 view .LVU1337
1975:c:/Users/Black_Life/STM32Cube/Repository/STM32Cube_FW_F4_V1.26.2/Middlewares/Third_Party/LwIP/src/core\tcp.c **** 
 4549              		.loc 1 1975 1 is_stmt 0 view .LVU1338
 4550 0008 08BD     		pop	{r3, pc}
 4551              		.cfi_endproc
 4552              	.LFE192:
 4554              		.section	.rodata.tcp_close_shutdown.str1.4,"aMS",%progbits,1
 4555              		.align	2
 4556              	.LC38:
 4557 0000 7463705F 		.ascii	"tcp_close_shutdown: invalid pcb\000"
 4557      636C6F73 
 4557      655F7368 
 4557      7574646F 
 4557      776E3A20 
 4558              		.align	2
 4559              	.LC39:
 4560 0020 7063622D 		.ascii	"pcb->flags & TF_RXCLOSED\000"
 4560      3E666C61 
 4560      67732026 
 4560      2054465F 
 4560      5258434C 
 4561              		.section	.text.tcp_close_shutdown,"ax",%progbits
 4562              		.align	1
 4563              		.syntax unified
 4564              		.thumb
 4565              		.thumb_func
 4567              	tcp_close_shutdown:
 4568              	.LVL454:
 4569              	.LFB162:
 349:c:/Users/Black_Life/STM32Cube/Repository/STM32Cube_FW_F4_V1.26.2/Middlewares/Third_Party/LwIP/src/core\tcp.c ****   LWIP_ASSERT("tcp_close_shutdown: invalid pcb", pcb != NULL);
ARM GAS  C:\Users\BLACK_~1\AppData\Local\Temp\ccRovO0r.s 			page 145


 4570              		.loc 1 349 1 is_stmt 1 view -0
 4571              		.cfi_startproc
 4572              		@ args = 0, pretend = 0, frame = 0
 4573              		@ frame_needed = 0, uses_anonymous_args = 0
 349:c:/Users/Black_Life/STM32Cube/Repository/STM32Cube_FW_F4_V1.26.2/Middlewares/Third_Party/LwIP/src/core\tcp.c ****   LWIP_ASSERT("tcp_close_shutdown: invalid pcb", pcb != NULL);
 4574              		.loc 1 349 1 is_stmt 0 view .LVU1340
 4575 0000 30B5     		push	{r4, r5, lr}
 4576              	.LCFI48:
 4577              		.cfi_def_cfa_offset 12
 4578              		.cfi_offset 4, -12
 4579              		.cfi_offset 5, -8
 4580              		.cfi_offset 14, -4
 4581 0002 85B0     		sub	sp, sp, #20
 4582              	.LCFI49:
 4583              		.cfi_def_cfa_offset 32
 4584 0004 0D46     		mov	r5, r1
 350:c:/Users/Black_Life/STM32Cube/Repository/STM32Cube_FW_F4_V1.26.2/Middlewares/Third_Party/LwIP/src/core\tcp.c **** 
 4585              		.loc 1 350 3 is_stmt 1 view .LVU1341
 350:c:/Users/Black_Life/STM32Cube/Repository/STM32Cube_FW_F4_V1.26.2/Middlewares/Third_Party/LwIP/src/core\tcp.c **** 
 4586              		.loc 1 350 3 view .LVU1342
 4587 0006 0446     		mov	r4, r0
 4588 0008 80B1     		cbz	r0, .L443
 4589              	.LVL455:
 4590              	.L422:
 350:c:/Users/Black_Life/STM32Cube/Repository/STM32Cube_FW_F4_V1.26.2/Middlewares/Third_Party/LwIP/src/core\tcp.c **** 
 4591              		.loc 1 350 3 discriminator 3 view .LVU1343
 350:c:/Users/Black_Life/STM32Cube/Repository/STM32Cube_FW_F4_V1.26.2/Middlewares/Third_Party/LwIP/src/core\tcp.c **** 
 4592              		.loc 1 350 3 discriminator 3 view .LVU1344
 352:c:/Users/Black_Life/STM32Cube/Repository/STM32Cube_FW_F4_V1.26.2/Middlewares/Third_Party/LwIP/src/core\tcp.c ****     if ((pcb->refused_data != NULL) || (pcb->rcv_wnd != TCP_WND_MAX(pcb))) {
 4593              		.loc 1 352 3 discriminator 3 view .LVU1345
 352:c:/Users/Black_Life/STM32Cube/Repository/STM32Cube_FW_F4_V1.26.2/Middlewares/Third_Party/LwIP/src/core\tcp.c ****     if ((pcb->refused_data != NULL) || (pcb->rcv_wnd != TCP_WND_MAX(pcb))) {
 4594              		.loc 1 352 6 is_stmt 0 discriminator 3 view .LVU1346
 4595 000a 25B1     		cbz	r5, .L423
 352:c:/Users/Black_Life/STM32Cube/Repository/STM32Cube_FW_F4_V1.26.2/Middlewares/Third_Party/LwIP/src/core\tcp.c ****     if ((pcb->refused_data != NULL) || (pcb->rcv_wnd != TCP_WND_MAX(pcb))) {
 4596              		.loc 1 352 35 discriminator 1 view .LVU1347
 4597 000c 237D     		ldrb	r3, [r4, #20]	@ zero_extendqisi2
 352:c:/Users/Black_Life/STM32Cube/Repository/STM32Cube_FW_F4_V1.26.2/Middlewares/Third_Party/LwIP/src/core\tcp.c ****     if ((pcb->refused_data != NULL) || (pcb->rcv_wnd != TCP_WND_MAX(pcb))) {
 4598              		.loc 1 352 27 discriminator 1 view .LVU1348
 4599 000e 042B     		cmp	r3, #4
 4600 0010 14D0     		beq	.L424
 352:c:/Users/Black_Life/STM32Cube/Repository/STM32Cube_FW_F4_V1.26.2/Middlewares/Third_Party/LwIP/src/core\tcp.c ****     if ((pcb->refused_data != NULL) || (pcb->rcv_wnd != TCP_WND_MAX(pcb))) {
 4601              		.loc 1 352 59 discriminator 2 view .LVU1349
 4602 0012 072B     		cmp	r3, #7
 4603 0014 12D0     		beq	.L424
 4604              	.L423:
 378:c:/Users/Black_Life/STM32Cube/Repository/STM32Cube_FW_F4_V1.26.2/Middlewares/Third_Party/LwIP/src/core\tcp.c ****     case CLOSED:
 4605              		.loc 1 378 3 is_stmt 1 view .LVU1350
 378:c:/Users/Black_Life/STM32Cube/Repository/STM32Cube_FW_F4_V1.26.2/Middlewares/Third_Party/LwIP/src/core\tcp.c ****     case CLOSED:
 4606              		.loc 1 378 14 is_stmt 0 view .LVU1351
 4607 0016 237D     		ldrb	r3, [r4, #20]	@ zero_extendqisi2
 378:c:/Users/Black_Life/STM32Cube/Repository/STM32Cube_FW_F4_V1.26.2/Middlewares/Third_Party/LwIP/src/core\tcp.c ****     case CLOSED:
 4608              		.loc 1 378 3 view .LVU1352
 4609 0018 012B     		cmp	r3, #1
 4610 001a 6CD0     		beq	.L433
 4611 001c 022B     		cmp	r3, #2
 4612 001e 76D0     		beq	.L434
 4613 0020 002B     		cmp	r3, #0
ARM GAS  C:\Users\BLACK_~1\AppData\Local\Temp\ccRovO0r.s 			page 146


 4614 0022 4FD0     		beq	.L444
 403:c:/Users/Black_Life/STM32Cube/Repository/STM32Cube_FW_F4_V1.26.2/Middlewares/Third_Party/LwIP/src/core\tcp.c ****   }
 4615              		.loc 1 403 7 is_stmt 1 view .LVU1353
 403:c:/Users/Black_Life/STM32Cube/Repository/STM32Cube_FW_F4_V1.26.2/Middlewares/Third_Party/LwIP/src/core\tcp.c ****   }
 4616              		.loc 1 403 14 is_stmt 0 view .LVU1354
 4617 0024 2046     		mov	r0, r4
 4618 0026 FFF7FEFF 		bl	tcp_close_shutdown_fin
 4619              	.LVL456:
 4620 002a 46E0     		b	.L432
 4621              	.LVL457:
 4622              	.L443:
 350:c:/Users/Black_Life/STM32Cube/Repository/STM32Cube_FW_F4_V1.26.2/Middlewares/Third_Party/LwIP/src/core\tcp.c **** 
 4623              		.loc 1 350 3 is_stmt 1 discriminator 1 view .LVU1355
 350:c:/Users/Black_Life/STM32Cube/Repository/STM32Cube_FW_F4_V1.26.2/Middlewares/Third_Party/LwIP/src/core\tcp.c **** 
 4624              		.loc 1 350 3 discriminator 1 view .LVU1356
 4625 002c 3E4B     		ldr	r3, .L452
 4626 002e 4FF4AF72 		mov	r2, #350
 4627 0032 3E49     		ldr	r1, .L452+4
 4628              	.LVL458:
 350:c:/Users/Black_Life/STM32Cube/Repository/STM32Cube_FW_F4_V1.26.2/Middlewares/Third_Party/LwIP/src/core\tcp.c **** 
 4629              		.loc 1 350 3 is_stmt 0 discriminator 1 view .LVU1357
 4630 0034 3E48     		ldr	r0, .L452+8
 4631              	.LVL459:
 350:c:/Users/Black_Life/STM32Cube/Repository/STM32Cube_FW_F4_V1.26.2/Middlewares/Third_Party/LwIP/src/core\tcp.c **** 
 4632              		.loc 1 350 3 discriminator 1 view .LVU1358
 4633 0036 FFF7FEFF 		bl	printf
 4634              	.LVL460:
 4635 003a E6E7     		b	.L422
 4636              	.L424:
 353:c:/Users/Black_Life/STM32Cube/Repository/STM32Cube_FW_F4_V1.26.2/Middlewares/Third_Party/LwIP/src/core\tcp.c ****       /* Not all data received by application, send RST to tell the remote
 4637              		.loc 1 353 5 is_stmt 1 view .LVU1359
 353:c:/Users/Black_Life/STM32Cube/Repository/STM32Cube_FW_F4_V1.26.2/Middlewares/Third_Party/LwIP/src/core\tcp.c ****       /* Not all data received by application, send RST to tell the remote
 4638              		.loc 1 353 13 is_stmt 0 view .LVU1360
 4639 003c A36F     		ldr	r3, [r4, #120]
 353:c:/Users/Black_Life/STM32Cube/Repository/STM32Cube_FW_F4_V1.26.2/Middlewares/Third_Party/LwIP/src/core\tcp.c ****       /* Not all data received by application, send RST to tell the remote
 4640              		.loc 1 353 8 view .LVU1361
 4641 003e E3B1     		cbz	r3, .L445
 4642              	.L425:
 356:c:/Users/Black_Life/STM32Cube/Repository/STM32Cube_FW_F4_V1.26.2/Middlewares/Third_Party/LwIP/src/core\tcp.c **** 
 4643              		.loc 1 356 7 is_stmt 1 view .LVU1362
 356:c:/Users/Black_Life/STM32Cube/Repository/STM32Cube_FW_F4_V1.26.2/Middlewares/Third_Party/LwIP/src/core\tcp.c **** 
 4644              		.loc 1 356 7 view .LVU1363
 4645 0040 638B     		ldrh	r3, [r4, #26]
 4646 0042 13F0100F 		tst	r3, #16
 4647 0046 1DD0     		beq	.L446
 4648              	.L426:
 356:c:/Users/Black_Life/STM32Cube/Repository/STM32Cube_FW_F4_V1.26.2/Middlewares/Third_Party/LwIP/src/core\tcp.c **** 
 4649              		.loc 1 356 7 discriminator 3 view .LVU1364
 356:c:/Users/Black_Life/STM32Cube/Repository/STM32Cube_FW_F4_V1.26.2/Middlewares/Third_Party/LwIP/src/core\tcp.c **** 
 4650              		.loc 1 356 7 discriminator 3 view .LVU1365
 360:c:/Users/Black_Life/STM32Cube/Repository/STM32Cube_FW_F4_V1.26.2/Middlewares/Third_Party/LwIP/src/core\tcp.c ****               pcb->local_port, pcb->remote_port);
 4651              		.loc 1 360 7 discriminator 3 view .LVU1366
 360:c:/Users/Black_Life/STM32Cube/Repository/STM32Cube_FW_F4_V1.26.2/Middlewares/Third_Party/LwIP/src/core\tcp.c ****               pcb->local_port, pcb->remote_port);
 4652              		.loc 1 360 64 is_stmt 0 discriminator 3 view .LVU1367
 4653 0048 231D     		adds	r3, r4, #4
 360:c:/Users/Black_Life/STM32Cube/Repository/STM32Cube_FW_F4_V1.26.2/Middlewares/Third_Party/LwIP/src/core\tcp.c ****               pcb->local_port, pcb->remote_port);
 4654              		.loc 1 360 7 discriminator 3 view .LVU1368
ARM GAS  C:\Users\BLACK_~1\AppData\Local\Temp\ccRovO0r.s 			page 147


 4655 004a 228B     		ldrh	r2, [r4, #24]
 4656 004c 0292     		str	r2, [sp, #8]
 4657 004e E28A     		ldrh	r2, [r4, #22]
 4658 0050 0192     		str	r2, [sp, #4]
 4659 0052 0093     		str	r3, [sp]
 4660 0054 2346     		mov	r3, r4
 4661 0056 626A     		ldr	r2, [r4, #36]
 4662 0058 216D     		ldr	r1, [r4, #80]
 4663 005a 2046     		mov	r0, r4
 4664 005c FFF7FEFF 		bl	tcp_rst
 4665              	.LVL461:
 363:c:/Users/Black_Life/STM32Cube/Repository/STM32Cube_FW_F4_V1.26.2/Middlewares/Third_Party/LwIP/src/core\tcp.c ****       TCP_RMV_ACTIVE(pcb);
 4666              		.loc 1 363 7 is_stmt 1 discriminator 3 view .LVU1369
 4667 0060 2046     		mov	r0, r4
 4668 0062 FFF7FEFF 		bl	tcp_pcb_purge
 4669              	.LVL462:
 364:c:/Users/Black_Life/STM32Cube/Repository/STM32Cube_FW_F4_V1.26.2/Middlewares/Third_Party/LwIP/src/core\tcp.c ****       /* Deallocate the pcb since we already sent a RST for it */
 4670              		.loc 1 364 7 discriminator 3 view .LVU1370
 364:c:/Users/Black_Life/STM32Cube/Repository/STM32Cube_FW_F4_V1.26.2/Middlewares/Third_Party/LwIP/src/core\tcp.c ****       /* Deallocate the pcb since we already sent a RST for it */
 4671              		.loc 1 364 7 discriminator 3 view .LVU1371
 364:c:/Users/Black_Life/STM32Cube/Repository/STM32Cube_FW_F4_V1.26.2/Middlewares/Third_Party/LwIP/src/core\tcp.c ****       /* Deallocate the pcb since we already sent a RST for it */
 4672              		.loc 1 364 7 discriminator 3 view .LVU1372
 4673 0066 334B     		ldr	r3, .L452+12
 4674 0068 1B68     		ldr	r3, [r3]
 4675 006a A342     		cmp	r3, r4
 4676 006c 12D0     		beq	.L447
 4677              	.L427:
 4678              	.LVL463:
 4679              	.LBB22:
 364:c:/Users/Black_Life/STM32Cube/Repository/STM32Cube_FW_F4_V1.26.2/Middlewares/Third_Party/LwIP/src/core\tcp.c ****       /* Deallocate the pcb since we already sent a RST for it */
 4680              		.loc 1 364 7 discriminator 8 view .LVU1373
 4681 006e BBB1     		cbz	r3, .L428
 364:c:/Users/Black_Life/STM32Cube/Repository/STM32Cube_FW_F4_V1.26.2/Middlewares/Third_Party/LwIP/src/core\tcp.c ****       /* Deallocate the pcb since we already sent a RST for it */
 4682              		.loc 1 364 7 discriminator 9 view .LVU1374
 4683 0070 DA68     		ldr	r2, [r3, #12]
 4684 0072 A242     		cmp	r2, r4
 4685 0074 12D0     		beq	.L448
 364:c:/Users/Black_Life/STM32Cube/Repository/STM32Cube_FW_F4_V1.26.2/Middlewares/Third_Party/LwIP/src/core\tcp.c ****       /* Deallocate the pcb since we already sent a RST for it */
 4686              		.loc 1 364 7 is_stmt 0 view .LVU1375
 4687 0076 1346     		mov	r3, r2
 4688              	.LVL464:
 364:c:/Users/Black_Life/STM32Cube/Repository/STM32Cube_FW_F4_V1.26.2/Middlewares/Third_Party/LwIP/src/core\tcp.c ****       /* Deallocate the pcb since we already sent a RST for it */
 4689              		.loc 1 364 7 view .LVU1376
 4690 0078 F9E7     		b	.L427
 4691              	.L445:
 364:c:/Users/Black_Life/STM32Cube/Repository/STM32Cube_FW_F4_V1.26.2/Middlewares/Third_Party/LwIP/src/core\tcp.c ****       /* Deallocate the pcb since we already sent a RST for it */
 4692              		.loc 1 364 7 view .LVU1377
 4693              	.LBE22:
 353:c:/Users/Black_Life/STM32Cube/Repository/STM32Cube_FW_F4_V1.26.2/Middlewares/Third_Party/LwIP/src/core\tcp.c ****       /* Not all data received by application, send RST to tell the remote
 4694              		.loc 1 353 44 discriminator 1 view .LVU1378
 4695 007a 238D     		ldrh	r3, [r4, #40]
 353:c:/Users/Black_Life/STM32Cube/Repository/STM32Cube_FW_F4_V1.26.2/Middlewares/Third_Party/LwIP/src/core\tcp.c ****       /* Not all data received by application, send RST to tell the remote
 4696              		.loc 1 353 37 discriminator 1 view .LVU1379
 4697 007c B3F5066F 		cmp	r3, #2144
 4698 0080 C9D0     		beq	.L423
 4699 0082 DDE7     		b	.L425
 4700              	.L446:
ARM GAS  C:\Users\BLACK_~1\AppData\Local\Temp\ccRovO0r.s 			page 148


 356:c:/Users/Black_Life/STM32Cube/Repository/STM32Cube_FW_F4_V1.26.2/Middlewares/Third_Party/LwIP/src/core\tcp.c **** 
 4701              		.loc 1 356 7 is_stmt 1 discriminator 1 view .LVU1380
 356:c:/Users/Black_Life/STM32Cube/Repository/STM32Cube_FW_F4_V1.26.2/Middlewares/Third_Party/LwIP/src/core\tcp.c **** 
 4702              		.loc 1 356 7 discriminator 1 view .LVU1381
 4703 0084 284B     		ldr	r3, .L452
 4704 0086 4FF4B272 		mov	r2, #356
 4705 008a 2B49     		ldr	r1, .L452+16
 4706 008c 2848     		ldr	r0, .L452+8
 4707 008e FFF7FEFF 		bl	printf
 4708              	.LVL465:
 4709 0092 D9E7     		b	.L426
 4710              	.L447:
 364:c:/Users/Black_Life/STM32Cube/Repository/STM32Cube_FW_F4_V1.26.2/Middlewares/Third_Party/LwIP/src/core\tcp.c ****       /* Deallocate the pcb since we already sent a RST for it */
 4711              		.loc 1 364 7 discriminator 1 view .LVU1382
 4712 0094 DA68     		ldr	r2, [r3, #12]
 4713 0096 274B     		ldr	r3, .L452+12
 4714 0098 1A60     		str	r2, [r3]
 4715 009a 01E0     		b	.L428
 4716              	.LVL466:
 4717              	.L448:
 4718              	.LBB23:
 364:c:/Users/Black_Life/STM32Cube/Repository/STM32Cube_FW_F4_V1.26.2/Middlewares/Third_Party/LwIP/src/core\tcp.c ****       /* Deallocate the pcb since we already sent a RST for it */
 4719              		.loc 1 364 7 discriminator 5 view .LVU1383
 4720 009c E268     		ldr	r2, [r4, #12]
 4721 009e DA60     		str	r2, [r3, #12]
 364:c:/Users/Black_Life/STM32Cube/Repository/STM32Cube_FW_F4_V1.26.2/Middlewares/Third_Party/LwIP/src/core\tcp.c ****       /* Deallocate the pcb since we already sent a RST for it */
 4722              		.loc 1 364 7 discriminator 5 view .LVU1384
 4723              	.LVL467:
 4724              	.L428:
 364:c:/Users/Black_Life/STM32Cube/Repository/STM32Cube_FW_F4_V1.26.2/Middlewares/Third_Party/LwIP/src/core\tcp.c ****       /* Deallocate the pcb since we already sent a RST for it */
 4725              		.loc 1 364 7 is_stmt 0 discriminator 5 view .LVU1385
 4726              	.LBE23:
 364:c:/Users/Black_Life/STM32Cube/Repository/STM32Cube_FW_F4_V1.26.2/Middlewares/Third_Party/LwIP/src/core\tcp.c ****       /* Deallocate the pcb since we already sent a RST for it */
 4727              		.loc 1 364 7 is_stmt 1 discriminator 10 view .LVU1386
 4728 00a0 0023     		movs	r3, #0
 4729 00a2 E360     		str	r3, [r4, #12]
 364:c:/Users/Black_Life/STM32Cube/Repository/STM32Cube_FW_F4_V1.26.2/Middlewares/Third_Party/LwIP/src/core\tcp.c ****       /* Deallocate the pcb since we already sent a RST for it */
 4730              		.loc 1 364 7 discriminator 10 view .LVU1387
 364:c:/Users/Black_Life/STM32Cube/Repository/STM32Cube_FW_F4_V1.26.2/Middlewares/Third_Party/LwIP/src/core\tcp.c ****       /* Deallocate the pcb since we already sent a RST for it */
 4731              		.loc 1 364 7 discriminator 10 view .LVU1388
 4732 00a4 254B     		ldr	r3, .L452+20
 4733 00a6 0122     		movs	r2, #1
 4734 00a8 1A70     		strb	r2, [r3]
 364:c:/Users/Black_Life/STM32Cube/Repository/STM32Cube_FW_F4_V1.26.2/Middlewares/Third_Party/LwIP/src/core\tcp.c ****       /* Deallocate the pcb since we already sent a RST for it */
 4735              		.loc 1 364 7 discriminator 10 view .LVU1389
 366:c:/Users/Black_Life/STM32Cube/Repository/STM32Cube_FW_F4_V1.26.2/Middlewares/Third_Party/LwIP/src/core\tcp.c ****         /* prevent using a deallocated pcb: free it from tcp_input later */
 4736              		.loc 1 366 7 discriminator 10 view .LVU1390
 366:c:/Users/Black_Life/STM32Cube/Repository/STM32Cube_FW_F4_V1.26.2/Middlewares/Third_Party/LwIP/src/core\tcp.c ****         /* prevent using a deallocated pcb: free it from tcp_input later */
 4737              		.loc 1 366 25 is_stmt 0 discriminator 10 view .LVU1391
 4738 00aa 254B     		ldr	r3, .L452+24
 4739 00ac 1B68     		ldr	r3, [r3]
 366:c:/Users/Black_Life/STM32Cube/Repository/STM32Cube_FW_F4_V1.26.2/Middlewares/Third_Party/LwIP/src/core\tcp.c ****         /* prevent using a deallocated pcb: free it from tcp_input later */
 4740              		.loc 1 366 10 discriminator 10 view .LVU1392
 4741 00ae A342     		cmp	r3, r4
 4742 00b0 05D0     		beq	.L449
 370:c:/Users/Black_Life/STM32Cube/Repository/STM32Cube_FW_F4_V1.26.2/Middlewares/Third_Party/LwIP/src/core\tcp.c ****       }
 4743              		.loc 1 370 9 is_stmt 1 view .LVU1393
ARM GAS  C:\Users\BLACK_~1\AppData\Local\Temp\ccRovO0r.s 			page 149


 4744 00b2 2046     		mov	r0, r4
 4745 00b4 FFF7FEFF 		bl	tcp_free
 4746              	.LVL468:
 4747              	.L431:
 372:c:/Users/Black_Life/STM32Cube/Repository/STM32Cube_FW_F4_V1.26.2/Middlewares/Third_Party/LwIP/src/core\tcp.c ****     }
 4748              		.loc 1 372 7 view .LVU1394
 372:c:/Users/Black_Life/STM32Cube/Repository/STM32Cube_FW_F4_V1.26.2/Middlewares/Third_Party/LwIP/src/core\tcp.c ****     }
 4749              		.loc 1 372 14 is_stmt 0 view .LVU1395
 4750 00b8 0020     		movs	r0, #0
 4751              	.L432:
 406:c:/Users/Black_Life/STM32Cube/Repository/STM32Cube_FW_F4_V1.26.2/Middlewares/Third_Party/LwIP/src/core\tcp.c **** 
 4752              		.loc 1 406 1 view .LVU1396
 4753 00ba 05B0     		add	sp, sp, #20
 4754              	.LCFI50:
 4755              		.cfi_remember_state
 4756              		.cfi_def_cfa_offset 12
 4757              		@ sp needed
 4758 00bc 30BD     		pop	{r4, r5, pc}
 4759              	.LVL469:
 4760              	.L449:
 4761              	.LCFI51:
 4762              		.cfi_restore_state
 368:c:/Users/Black_Life/STM32Cube/Repository/STM32Cube_FW_F4_V1.26.2/Middlewares/Third_Party/LwIP/src/core\tcp.c ****       } else {
 4763              		.loc 1 368 9 is_stmt 1 view .LVU1397
 4764 00be FFF7FEFF 		bl	tcp_trigger_input_pcb_close
 4765              	.LVL470:
 4766 00c2 F9E7     		b	.L431
 4767              	.L444:
 387:c:/Users/Black_Life/STM32Cube/Repository/STM32Cube_FW_F4_V1.26.2/Middlewares/Third_Party/LwIP/src/core\tcp.c ****         TCP_RMV(&tcp_bound_pcbs, pcb);
 4768              		.loc 1 387 7 view .LVU1398
 387:c:/Users/Black_Life/STM32Cube/Repository/STM32Cube_FW_F4_V1.26.2/Middlewares/Third_Party/LwIP/src/core\tcp.c ****         TCP_RMV(&tcp_bound_pcbs, pcb);
 4769              		.loc 1 387 14 is_stmt 0 view .LVU1399
 4770 00c4 E38A     		ldrh	r3, [r4, #22]
 387:c:/Users/Black_Life/STM32Cube/Repository/STM32Cube_FW_F4_V1.26.2/Middlewares/Third_Party/LwIP/src/core\tcp.c ****         TCP_RMV(&tcp_bound_pcbs, pcb);
 4771              		.loc 1 387 10 view .LVU1400
 4772 00c6 8BB1     		cbz	r3, .L436
 388:c:/Users/Black_Life/STM32Cube/Repository/STM32Cube_FW_F4_V1.26.2/Middlewares/Third_Party/LwIP/src/core\tcp.c ****       }
 4773              		.loc 1 388 9 is_stmt 1 view .LVU1401
 388:c:/Users/Black_Life/STM32Cube/Repository/STM32Cube_FW_F4_V1.26.2/Middlewares/Third_Party/LwIP/src/core\tcp.c ****       }
 4774              		.loc 1 388 9 view .LVU1402
 4775 00c8 1E4B     		ldr	r3, .L452+28
 4776 00ca 1B68     		ldr	r3, [r3]
 4777 00cc A342     		cmp	r3, r4
 4778 00ce 05D0     		beq	.L450
 4779              	.L437:
 4780              	.LVL471:
 4781              	.LBB24:
 388:c:/Users/Black_Life/STM32Cube/Repository/STM32Cube_FW_F4_V1.26.2/Middlewares/Third_Party/LwIP/src/core\tcp.c ****       }
 4782              		.loc 1 388 9 discriminator 8 view .LVU1403
 4783 00d0 53B1     		cbz	r3, .L438
 388:c:/Users/Black_Life/STM32Cube/Repository/STM32Cube_FW_F4_V1.26.2/Middlewares/Third_Party/LwIP/src/core\tcp.c ****       }
 4784              		.loc 1 388 9 discriminator 9 view .LVU1404
 4785 00d2 DA68     		ldr	r2, [r3, #12]
 4786 00d4 A242     		cmp	r2, r4
 4787 00d6 05D0     		beq	.L451
 388:c:/Users/Black_Life/STM32Cube/Repository/STM32Cube_FW_F4_V1.26.2/Middlewares/Third_Party/LwIP/src/core\tcp.c ****       }
 4788              		.loc 1 388 9 is_stmt 0 view .LVU1405
ARM GAS  C:\Users\BLACK_~1\AppData\Local\Temp\ccRovO0r.s 			page 150


 4789 00d8 1346     		mov	r3, r2
 4790              	.LVL472:
 388:c:/Users/Black_Life/STM32Cube/Repository/STM32Cube_FW_F4_V1.26.2/Middlewares/Third_Party/LwIP/src/core\tcp.c ****       }
 4791              		.loc 1 388 9 view .LVU1406
 4792 00da F9E7     		b	.L437
 4793              	.L450:
 388:c:/Users/Black_Life/STM32Cube/Repository/STM32Cube_FW_F4_V1.26.2/Middlewares/Third_Party/LwIP/src/core\tcp.c ****       }
 4794              		.loc 1 388 9 view .LVU1407
 4795              	.LBE24:
 388:c:/Users/Black_Life/STM32Cube/Repository/STM32Cube_FW_F4_V1.26.2/Middlewares/Third_Party/LwIP/src/core\tcp.c ****       }
 4796              		.loc 1 388 9 is_stmt 1 discriminator 1 view .LVU1408
 4797 00dc DA68     		ldr	r2, [r3, #12]
 4798 00de 194B     		ldr	r3, .L452+28
 4799 00e0 1A60     		str	r2, [r3]
 4800 00e2 01E0     		b	.L438
 4801              	.LVL473:
 4802              	.L451:
 4803              	.LBB25:
 388:c:/Users/Black_Life/STM32Cube/Repository/STM32Cube_FW_F4_V1.26.2/Middlewares/Third_Party/LwIP/src/core\tcp.c ****       }
 4804              		.loc 1 388 9 discriminator 5 view .LVU1409
 4805 00e4 E268     		ldr	r2, [r4, #12]
 4806 00e6 DA60     		str	r2, [r3, #12]
 388:c:/Users/Black_Life/STM32Cube/Repository/STM32Cube_FW_F4_V1.26.2/Middlewares/Third_Party/LwIP/src/core\tcp.c ****       }
 4807              		.loc 1 388 9 discriminator 5 view .LVU1410
 4808              	.LVL474:
 4809              	.L438:
 388:c:/Users/Black_Life/STM32Cube/Repository/STM32Cube_FW_F4_V1.26.2/Middlewares/Third_Party/LwIP/src/core\tcp.c ****       }
 4810              		.loc 1 388 9 is_stmt 0 discriminator 5 view .LVU1411
 4811              	.LBE25:
 388:c:/Users/Black_Life/STM32Cube/Repository/STM32Cube_FW_F4_V1.26.2/Middlewares/Third_Party/LwIP/src/core\tcp.c ****       }
 4812              		.loc 1 388 9 is_stmt 1 discriminator 10 view .LVU1412
 4813 00e8 0023     		movs	r3, #0
 4814 00ea E360     		str	r3, [r4, #12]
 4815              	.L436:
 388:c:/Users/Black_Life/STM32Cube/Repository/STM32Cube_FW_F4_V1.26.2/Middlewares/Third_Party/LwIP/src/core\tcp.c ****       }
 4816              		.loc 1 388 9 discriminator 11 view .LVU1413
 390:c:/Users/Black_Life/STM32Cube/Repository/STM32Cube_FW_F4_V1.26.2/Middlewares/Third_Party/LwIP/src/core\tcp.c ****       break;
 4817              		.loc 1 390 7 discriminator 11 view .LVU1414
 4818 00ec 2046     		mov	r0, r4
 4819 00ee FFF7FEFF 		bl	tcp_free
 4820              	.LVL475:
 391:c:/Users/Black_Life/STM32Cube/Repository/STM32Cube_FW_F4_V1.26.2/Middlewares/Third_Party/LwIP/src/core\tcp.c ****     case LISTEN:
 4821              		.loc 1 391 7 discriminator 11 view .LVU1415
 405:c:/Users/Black_Life/STM32Cube/Repository/STM32Cube_FW_F4_V1.26.2/Middlewares/Third_Party/LwIP/src/core\tcp.c **** }
 4822              		.loc 1 405 10 is_stmt 0 discriminator 11 view .LVU1416
 4823 00f2 0020     		movs	r0, #0
 391:c:/Users/Black_Life/STM32Cube/Repository/STM32Cube_FW_F4_V1.26.2/Middlewares/Third_Party/LwIP/src/core\tcp.c ****     case LISTEN:
 4824              		.loc 1 391 7 discriminator 11 view .LVU1417
 4825 00f4 E1E7     		b	.L432
 4826              	.L433:
 393:c:/Users/Black_Life/STM32Cube/Repository/STM32Cube_FW_F4_V1.26.2/Middlewares/Third_Party/LwIP/src/core\tcp.c ****       tcp_pcb_remove(&tcp_listen_pcbs.pcbs, pcb);
 4827              		.loc 1 393 7 is_stmt 1 view .LVU1418
 4828 00f6 2046     		mov	r0, r4
 4829 00f8 FFF7FEFF 		bl	tcp_listen_closed
 4830              	.LVL476:
 394:c:/Users/Black_Life/STM32Cube/Repository/STM32Cube_FW_F4_V1.26.2/Middlewares/Third_Party/LwIP/src/core\tcp.c ****       tcp_free_listen(pcb);
 4831              		.loc 1 394 7 view .LVU1419
ARM GAS  C:\Users\BLACK_~1\AppData\Local\Temp\ccRovO0r.s 			page 151


 4832 00fc 2146     		mov	r1, r4
 4833 00fe 1248     		ldr	r0, .L452+32
 4834 0100 FFF7FEFF 		bl	tcp_pcb_remove
 4835              	.LVL477:
 395:c:/Users/Black_Life/STM32Cube/Repository/STM32Cube_FW_F4_V1.26.2/Middlewares/Third_Party/LwIP/src/core\tcp.c ****       break;
 4836              		.loc 1 395 7 view .LVU1420
 4837 0104 2046     		mov	r0, r4
 4838 0106 FFF7FEFF 		bl	tcp_free_listen
 4839              	.LVL478:
 396:c:/Users/Black_Life/STM32Cube/Repository/STM32Cube_FW_F4_V1.26.2/Middlewares/Third_Party/LwIP/src/core\tcp.c ****     case SYN_SENT:
 4840              		.loc 1 396 7 view .LVU1421
 405:c:/Users/Black_Life/STM32Cube/Repository/STM32Cube_FW_F4_V1.26.2/Middlewares/Third_Party/LwIP/src/core\tcp.c **** }
 4841              		.loc 1 405 10 is_stmt 0 view .LVU1422
 4842 010a 0020     		movs	r0, #0
 396:c:/Users/Black_Life/STM32Cube/Repository/STM32Cube_FW_F4_V1.26.2/Middlewares/Third_Party/LwIP/src/core\tcp.c ****     case SYN_SENT:
 4843              		.loc 1 396 7 view .LVU1423
 4844 010c D5E7     		b	.L432
 4845              	.L434:
 398:c:/Users/Black_Life/STM32Cube/Repository/STM32Cube_FW_F4_V1.26.2/Middlewares/Third_Party/LwIP/src/core\tcp.c ****       tcp_free(pcb);
 4846              		.loc 1 398 7 is_stmt 1 view .LVU1424
 398:c:/Users/Black_Life/STM32Cube/Repository/STM32Cube_FW_F4_V1.26.2/Middlewares/Third_Party/LwIP/src/core\tcp.c ****       tcp_free(pcb);
 4847              		.loc 1 398 7 view .LVU1425
 4848 010e 2146     		mov	r1, r4
 4849 0110 0848     		ldr	r0, .L452+12
 4850 0112 FFF7FEFF 		bl	tcp_pcb_remove
 4851              	.LVL479:
 398:c:/Users/Black_Life/STM32Cube/Repository/STM32Cube_FW_F4_V1.26.2/Middlewares/Third_Party/LwIP/src/core\tcp.c ****       tcp_free(pcb);
 4852              		.loc 1 398 7 view .LVU1426
 4853 0116 094B     		ldr	r3, .L452+20
 4854 0118 0122     		movs	r2, #1
 4855 011a 1A70     		strb	r2, [r3]
 398:c:/Users/Black_Life/STM32Cube/Repository/STM32Cube_FW_F4_V1.26.2/Middlewares/Third_Party/LwIP/src/core\tcp.c ****       tcp_free(pcb);
 4856              		.loc 1 398 7 view .LVU1427
 399:c:/Users/Black_Life/STM32Cube/Repository/STM32Cube_FW_F4_V1.26.2/Middlewares/Third_Party/LwIP/src/core\tcp.c ****       MIB2_STATS_INC(mib2.tcpattemptfails);
 4857              		.loc 1 399 7 view .LVU1428
 4858 011c 2046     		mov	r0, r4
 4859 011e FFF7FEFF 		bl	tcp_free
 4860              	.LVL480:
 400:c:/Users/Black_Life/STM32Cube/Repository/STM32Cube_FW_F4_V1.26.2/Middlewares/Third_Party/LwIP/src/core\tcp.c ****       break;
 4861              		.loc 1 400 43 view .LVU1429
 401:c:/Users/Black_Life/STM32Cube/Repository/STM32Cube_FW_F4_V1.26.2/Middlewares/Third_Party/LwIP/src/core\tcp.c ****     default:
 4862              		.loc 1 401 7 view .LVU1430
 405:c:/Users/Black_Life/STM32Cube/Repository/STM32Cube_FW_F4_V1.26.2/Middlewares/Third_Party/LwIP/src/core\tcp.c **** }
 4863              		.loc 1 405 10 is_stmt 0 view .LVU1431
 4864 0122 0020     		movs	r0, #0
 401:c:/Users/Black_Life/STM32Cube/Repository/STM32Cube_FW_F4_V1.26.2/Middlewares/Third_Party/LwIP/src/core\tcp.c ****     default:
 4865              		.loc 1 401 7 view .LVU1432
 4866 0124 C9E7     		b	.L432
 4867              	.L453:
 4868 0126 00BF     		.align	2
 4869              	.L452:
 4870 0128 00000000 		.word	.LC0
 4871 012c 00000000 		.word	.LC38
 4872 0130 98000000 		.word	.LC2
 4873 0134 00000000 		.word	.LANCHOR2
 4874 0138 20000000 		.word	.LC39
 4875 013c 00000000 		.word	.LANCHOR7
ARM GAS  C:\Users\BLACK_~1\AppData\Local\Temp\ccRovO0r.s 			page 152


 4876 0140 00000000 		.word	tcp_input_pcb
 4877 0144 00000000 		.word	.LANCHOR3
 4878 0148 00000000 		.word	.LANCHOR4
 4879              		.cfi_endproc
 4880              	.LFE162:
 4882              		.section	.rodata.tcp_close.str1.4,"aMS",%progbits,1
 4883              		.align	2
 4884              	.LC40:
 4885 0000 7463705F 		.ascii	"tcp_close: invalid pcb\000"
 4885      636C6F73 
 4885      653A2069 
 4885      6E76616C 
 4885      69642070 
 4886              		.section	.text.tcp_close,"ax",%progbits
 4887              		.align	1
 4888              		.global	tcp_close
 4889              		.syntax unified
 4890              		.thumb
 4891              		.thumb_func
 4893              	tcp_close:
 4894              	.LVL481:
 4895              	.LFB164:
 485:c:/Users/Black_Life/STM32Cube/Repository/STM32Cube_FW_F4_V1.26.2/Middlewares/Third_Party/LwIP/src/core\tcp.c ****   LWIP_ASSERT_CORE_LOCKED();
 4896              		.loc 1 485 1 is_stmt 1 view -0
 4897              		.cfi_startproc
 4898              		@ args = 0, pretend = 0, frame = 0
 4899              		@ frame_needed = 0, uses_anonymous_args = 0
 485:c:/Users/Black_Life/STM32Cube/Repository/STM32Cube_FW_F4_V1.26.2/Middlewares/Third_Party/LwIP/src/core\tcp.c ****   LWIP_ASSERT_CORE_LOCKED();
 4900              		.loc 1 485 1 is_stmt 0 view .LVU1434
 4901 0000 08B5     		push	{r3, lr}
 4902              	.LCFI52:
 4903              		.cfi_def_cfa_offset 8
 4904              		.cfi_offset 3, -8
 4905              		.cfi_offset 14, -4
 486:c:/Users/Black_Life/STM32Cube/Repository/STM32Cube_FW_F4_V1.26.2/Middlewares/Third_Party/LwIP/src/core\tcp.c **** 
 4906              		.loc 1 486 28 is_stmt 1 view .LVU1435
 488:c:/Users/Black_Life/STM32Cube/Repository/STM32Cube_FW_F4_V1.26.2/Middlewares/Third_Party/LwIP/src/core\tcp.c ****   LWIP_DEBUGF(TCP_DEBUG, ("tcp_close: closing in "));
 4907              		.loc 1 488 3 view .LVU1436
 488:c:/Users/Black_Life/STM32Cube/Repository/STM32Cube_FW_F4_V1.26.2/Middlewares/Third_Party/LwIP/src/core\tcp.c ****   LWIP_DEBUGF(TCP_DEBUG, ("tcp_close: closing in "));
 4908              		.loc 1 488 3 view .LVU1437
 4909 0002 60B1     		cbz	r0, .L459
 4910 0004 0346     		mov	r3, r0
 488:c:/Users/Black_Life/STM32Cube/Repository/STM32Cube_FW_F4_V1.26.2/Middlewares/Third_Party/LwIP/src/core\tcp.c ****   LWIP_DEBUGF(TCP_DEBUG, ("tcp_close: closing in "));
 4911              		.loc 1 488 3 discriminator 2 view .LVU1438
 489:c:/Users/Black_Life/STM32Cube/Repository/STM32Cube_FW_F4_V1.26.2/Middlewares/Third_Party/LwIP/src/core\tcp.c **** 
 4912              		.loc 1 489 53 discriminator 2 view .LVU1439
 491:c:/Users/Black_Life/STM32Cube/Repository/STM32Cube_FW_F4_V1.26.2/Middlewares/Third_Party/LwIP/src/core\tcp.c **** 
 4913              		.loc 1 491 36 discriminator 2 view .LVU1440
 493:c:/Users/Black_Life/STM32Cube/Repository/STM32Cube_FW_F4_V1.26.2/Middlewares/Third_Party/LwIP/src/core\tcp.c ****     /* Set a flag not to receive any more data... */
 4914              		.loc 1 493 3 discriminator 2 view .LVU1441
 493:c:/Users/Black_Life/STM32Cube/Repository/STM32Cube_FW_F4_V1.26.2/Middlewares/Third_Party/LwIP/src/core\tcp.c ****     /* Set a flag not to receive any more data... */
 4915              		.loc 1 493 10 is_stmt 0 discriminator 2 view .LVU1442
 4916 0006 027D     		ldrb	r2, [r0, #20]	@ zero_extendqisi2
 493:c:/Users/Black_Life/STM32Cube/Repository/STM32Cube_FW_F4_V1.26.2/Middlewares/Third_Party/LwIP/src/core\tcp.c ****     /* Set a flag not to receive any more data... */
 4917              		.loc 1 493 6 discriminator 2 view .LVU1443
 4918 0008 012A     		cmp	r2, #1
 4919 000a 03D0     		beq	.L457
ARM GAS  C:\Users\BLACK_~1\AppData\Local\Temp\ccRovO0r.s 			page 153


 495:c:/Users/Black_Life/STM32Cube/Repository/STM32Cube_FW_F4_V1.26.2/Middlewares/Third_Party/LwIP/src/core\tcp.c ****   }
 4920              		.loc 1 495 5 is_stmt 1 view .LVU1444
 495:c:/Users/Black_Life/STM32Cube/Repository/STM32Cube_FW_F4_V1.26.2/Middlewares/Third_Party/LwIP/src/core\tcp.c ****   }
 4921              		.loc 1 495 5 view .LVU1445
 4922 000c 428B     		ldrh	r2, [r0, #26]
 4923 000e 42F01002 		orr	r2, r2, #16
 4924 0012 4283     		strh	r2, [r0, #26]	@ movhi
 4925              	.L457:
 495:c:/Users/Black_Life/STM32Cube/Repository/STM32Cube_FW_F4_V1.26.2/Middlewares/Third_Party/LwIP/src/core\tcp.c ****   }
 4926              		.loc 1 495 5 discriminator 1 view .LVU1446
 498:c:/Users/Black_Life/STM32Cube/Repository/STM32Cube_FW_F4_V1.26.2/Middlewares/Third_Party/LwIP/src/core\tcp.c **** }
 4927              		.loc 1 498 3 discriminator 1 view .LVU1447
 498:c:/Users/Black_Life/STM32Cube/Repository/STM32Cube_FW_F4_V1.26.2/Middlewares/Third_Party/LwIP/src/core\tcp.c **** }
 4928              		.loc 1 498 10 is_stmt 0 discriminator 1 view .LVU1448
 4929 0014 0121     		movs	r1, #1
 4930 0016 1846     		mov	r0, r3
 4931              	.LVL482:
 498:c:/Users/Black_Life/STM32Cube/Repository/STM32Cube_FW_F4_V1.26.2/Middlewares/Third_Party/LwIP/src/core\tcp.c **** }
 4932              		.loc 1 498 10 discriminator 1 view .LVU1449
 4933 0018 FFF7FEFF 		bl	tcp_close_shutdown
 4934              	.LVL483:
 4935              	.L456:
 499:c:/Users/Black_Life/STM32Cube/Repository/STM32Cube_FW_F4_V1.26.2/Middlewares/Third_Party/LwIP/src/core\tcp.c **** 
 4936              		.loc 1 499 1 view .LVU1450
 4937 001c 08BD     		pop	{r3, pc}
 4938              	.LVL484:
 4939              	.L459:
 488:c:/Users/Black_Life/STM32Cube/Repository/STM32Cube_FW_F4_V1.26.2/Middlewares/Third_Party/LwIP/src/core\tcp.c ****   LWIP_DEBUGF(TCP_DEBUG, ("tcp_close: closing in "));
 4940              		.loc 1 488 3 is_stmt 1 discriminator 1 view .LVU1451
 488:c:/Users/Black_Life/STM32Cube/Repository/STM32Cube_FW_F4_V1.26.2/Middlewares/Third_Party/LwIP/src/core\tcp.c ****   LWIP_DEBUGF(TCP_DEBUG, ("tcp_close: closing in "));
 4941              		.loc 1 488 3 discriminator 1 view .LVU1452
 4942 001e 054B     		ldr	r3, .L460
 4943 0020 4FF4F472 		mov	r2, #488
 4944 0024 0449     		ldr	r1, .L460+4
 4945 0026 0548     		ldr	r0, .L460+8
 4946              	.LVL485:
 488:c:/Users/Black_Life/STM32Cube/Repository/STM32Cube_FW_F4_V1.26.2/Middlewares/Third_Party/LwIP/src/core\tcp.c ****   LWIP_DEBUGF(TCP_DEBUG, ("tcp_close: closing in "));
 4947              		.loc 1 488 3 is_stmt 0 discriminator 1 view .LVU1453
 4948 0028 FFF7FEFF 		bl	printf
 4949              	.LVL486:
 488:c:/Users/Black_Life/STM32Cube/Repository/STM32Cube_FW_F4_V1.26.2/Middlewares/Third_Party/LwIP/src/core\tcp.c ****   LWIP_DEBUGF(TCP_DEBUG, ("tcp_close: closing in "));
 4950              		.loc 1 488 3 is_stmt 1 discriminator 1 view .LVU1454
 488:c:/Users/Black_Life/STM32Cube/Repository/STM32Cube_FW_F4_V1.26.2/Middlewares/Third_Party/LwIP/src/core\tcp.c ****   LWIP_DEBUGF(TCP_DEBUG, ("tcp_close: closing in "));
 4951              		.loc 1 488 3 discriminator 1 view .LVU1455
 4952 002c 6FF00F00 		mvn	r0, #15
 4953 0030 F4E7     		b	.L456
 4954              	.L461:
 4955 0032 00BF     		.align	2
 4956              	.L460:
 4957 0034 00000000 		.word	.LC0
 4958 0038 00000000 		.word	.LC40
 4959 003c 98000000 		.word	.LC2
 4960              		.cfi_endproc
 4961              	.LFE164:
 4963              		.section	.rodata.tcp_recv_null.str1.4,"aMS",%progbits,1
 4964              		.align	2
 4965              	.LC41:
ARM GAS  C:\Users\BLACK_~1\AppData\Local\Temp\ccRovO0r.s 			page 154


 4966 0000 7463705F 		.ascii	"tcp_recv_null: invalid pcb\000"
 4966      72656376 
 4966      5F6E756C 
 4966      6C3A2069 
 4966      6E76616C 
 4967              		.section	.text.tcp_recv_null,"ax",%progbits
 4968              		.align	1
 4969              		.global	tcp_recv_null
 4970              		.syntax unified
 4971              		.thumb
 4972              		.thumb_func
 4974              	tcp_recv_null:
 4975              	.LVL487:
 4976              	.LFB185:
1685:c:/Users/Black_Life/STM32Cube/Repository/STM32Cube_FW_F4_V1.26.2/Middlewares/Third_Party/LwIP/src/core\tcp.c ****   LWIP_UNUSED_ARG(arg);
 4977              		.loc 1 1685 1 view -0
 4978              		.cfi_startproc
 4979              		@ args = 0, pretend = 0, frame = 0
 4980              		@ frame_needed = 0, uses_anonymous_args = 0
1685:c:/Users/Black_Life/STM32Cube/Repository/STM32Cube_FW_F4_V1.26.2/Middlewares/Third_Party/LwIP/src/core\tcp.c ****   LWIP_UNUSED_ARG(arg);
 4981              		.loc 1 1685 1 is_stmt 0 view .LVU1457
 4982 0000 10B5     		push	{r4, lr}
 4983              	.LCFI53:
 4984              		.cfi_def_cfa_offset 8
 4985              		.cfi_offset 4, -8
 4986              		.cfi_offset 14, -4
1686:c:/Users/Black_Life/STM32Cube/Repository/STM32Cube_FW_F4_V1.26.2/Middlewares/Third_Party/LwIP/src/core\tcp.c **** 
 4987              		.loc 1 1686 3 is_stmt 1 view .LVU1458
1688:c:/Users/Black_Life/STM32Cube/Repository/STM32Cube_FW_F4_V1.26.2/Middlewares/Third_Party/LwIP/src/core\tcp.c **** 
 4988              		.loc 1 1688 3 view .LVU1459
1688:c:/Users/Black_Life/STM32Cube/Repository/STM32Cube_FW_F4_V1.26.2/Middlewares/Third_Party/LwIP/src/core\tcp.c **** 
 4989              		.loc 1 1688 3 view .LVU1460
 4990 0002 51B1     		cbz	r1, .L468
 4991 0004 1446     		mov	r4, r2
 4992 0006 0846     		mov	r0, r1
 4993              	.LVL488:
1688:c:/Users/Black_Life/STM32Cube/Repository/STM32Cube_FW_F4_V1.26.2/Middlewares/Third_Party/LwIP/src/core\tcp.c **** 
 4994              		.loc 1 1688 3 discriminator 2 view .LVU1461
1690:c:/Users/Black_Life/STM32Cube/Repository/STM32Cube_FW_F4_V1.26.2/Middlewares/Third_Party/LwIP/src/core\tcp.c ****     tcp_recved(pcb, p->tot_len);
 4995              		.loc 1 1690 3 discriminator 2 view .LVU1462
1690:c:/Users/Black_Life/STM32Cube/Repository/STM32Cube_FW_F4_V1.26.2/Middlewares/Third_Party/LwIP/src/core\tcp.c ****     tcp_recved(pcb, p->tot_len);
 4996              		.loc 1 1690 6 is_stmt 0 discriminator 2 view .LVU1463
 4997 0008 8AB1     		cbz	r2, .L465
1691:c:/Users/Black_Life/STM32Cube/Repository/STM32Cube_FW_F4_V1.26.2/Middlewares/Third_Party/LwIP/src/core\tcp.c ****     pbuf_free(p);
 4998              		.loc 1 1691 5 is_stmt 1 view .LVU1464
 4999 000a 1189     		ldrh	r1, [r2, #8]
 5000              	.LVL489:
1691:c:/Users/Black_Life/STM32Cube/Repository/STM32Cube_FW_F4_V1.26.2/Middlewares/Third_Party/LwIP/src/core\tcp.c ****     pbuf_free(p);
 5001              		.loc 1 1691 5 is_stmt 0 view .LVU1465
 5002 000c FFF7FEFF 		bl	tcp_recved
 5003              	.LVL490:
1692:c:/Users/Black_Life/STM32Cube/Repository/STM32Cube_FW_F4_V1.26.2/Middlewares/Third_Party/LwIP/src/core\tcp.c ****   } else if (err == ERR_OK) {
 5004              		.loc 1 1692 5 is_stmt 1 view .LVU1466
 5005 0010 2046     		mov	r0, r4
 5006 0012 FFF7FEFF 		bl	pbuf_free
 5007              	.LVL491:
1696:c:/Users/Black_Life/STM32Cube/Repository/STM32Cube_FW_F4_V1.26.2/Middlewares/Third_Party/LwIP/src/core\tcp.c **** }
ARM GAS  C:\Users\BLACK_~1\AppData\Local\Temp\ccRovO0r.s 			page 155


 5008              		.loc 1 1696 10 is_stmt 0 view .LVU1467
 5009 0016 0020     		movs	r0, #0
 5010              	.LVL492:
 5011              	.L464:
1697:c:/Users/Black_Life/STM32Cube/Repository/STM32Cube_FW_F4_V1.26.2/Middlewares/Third_Party/LwIP/src/core\tcp.c **** #endif /* LWIP_CALLBACK_API */
 5012              		.loc 1 1697 1 view .LVU1468
 5013 0018 10BD     		pop	{r4, pc}
 5014              	.LVL493:
 5015              	.L468:
1688:c:/Users/Black_Life/STM32Cube/Repository/STM32Cube_FW_F4_V1.26.2/Middlewares/Third_Party/LwIP/src/core\tcp.c **** 
 5016              		.loc 1 1688 3 is_stmt 1 discriminator 1 view .LVU1469
1688:c:/Users/Black_Life/STM32Cube/Repository/STM32Cube_FW_F4_V1.26.2/Middlewares/Third_Party/LwIP/src/core\tcp.c **** 
 5017              		.loc 1 1688 3 discriminator 1 view .LVU1470
 5018 001a 084B     		ldr	r3, .L470
 5019              	.LVL494:
1688:c:/Users/Black_Life/STM32Cube/Repository/STM32Cube_FW_F4_V1.26.2/Middlewares/Third_Party/LwIP/src/core\tcp.c **** 
 5020              		.loc 1 1688 3 is_stmt 0 discriminator 1 view .LVU1471
 5021 001c 4FF4D362 		mov	r2, #1688
 5022              	.LVL495:
1688:c:/Users/Black_Life/STM32Cube/Repository/STM32Cube_FW_F4_V1.26.2/Middlewares/Third_Party/LwIP/src/core\tcp.c **** 
 5023              		.loc 1 1688 3 discriminator 1 view .LVU1472
 5024 0020 0749     		ldr	r1, .L470+4
 5025              	.LVL496:
1688:c:/Users/Black_Life/STM32Cube/Repository/STM32Cube_FW_F4_V1.26.2/Middlewares/Third_Party/LwIP/src/core\tcp.c **** 
 5026              		.loc 1 1688 3 discriminator 1 view .LVU1473
 5027 0022 0848     		ldr	r0, .L470+8
 5028              	.LVL497:
1688:c:/Users/Black_Life/STM32Cube/Repository/STM32Cube_FW_F4_V1.26.2/Middlewares/Third_Party/LwIP/src/core\tcp.c **** 
 5029              		.loc 1 1688 3 discriminator 1 view .LVU1474
 5030 0024 FFF7FEFF 		bl	printf
 5031              	.LVL498:
1688:c:/Users/Black_Life/STM32Cube/Repository/STM32Cube_FW_F4_V1.26.2/Middlewares/Third_Party/LwIP/src/core\tcp.c **** 
 5032              		.loc 1 1688 3 is_stmt 1 discriminator 1 view .LVU1475
1688:c:/Users/Black_Life/STM32Cube/Repository/STM32Cube_FW_F4_V1.26.2/Middlewares/Third_Party/LwIP/src/core\tcp.c **** 
 5033              		.loc 1 1688 3 discriminator 1 view .LVU1476
 5034 0028 6FF00F00 		mvn	r0, #15
 5035 002c F4E7     		b	.L464
 5036              	.LVL499:
 5037              	.L465:
1693:c:/Users/Black_Life/STM32Cube/Repository/STM32Cube_FW_F4_V1.26.2/Middlewares/Third_Party/LwIP/src/core\tcp.c ****     return tcp_close(pcb);
 5038              		.loc 1 1693 10 view .LVU1477
1693:c:/Users/Black_Life/STM32Cube/Repository/STM32Cube_FW_F4_V1.26.2/Middlewares/Third_Party/LwIP/src/core\tcp.c ****     return tcp_close(pcb);
 5039              		.loc 1 1693 13 is_stmt 0 view .LVU1478
 5040 002e 0BB1     		cbz	r3, .L469
1696:c:/Users/Black_Life/STM32Cube/Repository/STM32Cube_FW_F4_V1.26.2/Middlewares/Third_Party/LwIP/src/core\tcp.c **** }
 5041              		.loc 1 1696 10 view .LVU1479
 5042 0030 0020     		movs	r0, #0
 5043              	.LVL500:
1696:c:/Users/Black_Life/STM32Cube/Repository/STM32Cube_FW_F4_V1.26.2/Middlewares/Third_Party/LwIP/src/core\tcp.c **** }
 5044              		.loc 1 1696 10 view .LVU1480
 5045 0032 F1E7     		b	.L464
 5046              	.LVL501:
 5047              	.L469:
1694:c:/Users/Black_Life/STM32Cube/Repository/STM32Cube_FW_F4_V1.26.2/Middlewares/Third_Party/LwIP/src/core\tcp.c ****   }
 5048              		.loc 1 1694 5 is_stmt 1 view .LVU1481
1694:c:/Users/Black_Life/STM32Cube/Repository/STM32Cube_FW_F4_V1.26.2/Middlewares/Third_Party/LwIP/src/core\tcp.c ****   }
 5049              		.loc 1 1694 12 is_stmt 0 view .LVU1482
ARM GAS  C:\Users\BLACK_~1\AppData\Local\Temp\ccRovO0r.s 			page 156


 5050 0034 FFF7FEFF 		bl	tcp_close
 5051              	.LVL502:
1694:c:/Users/Black_Life/STM32Cube/Repository/STM32Cube_FW_F4_V1.26.2/Middlewares/Third_Party/LwIP/src/core\tcp.c ****   }
 5052              		.loc 1 1694 12 view .LVU1483
 5053 0038 EEE7     		b	.L464
 5054              	.L471:
 5055 003a 00BF     		.align	2
 5056              	.L470:
 5057 003c 00000000 		.word	.LC0
 5058 0040 00000000 		.word	.LC41
 5059 0044 98000000 		.word	.LC2
 5060              		.cfi_endproc
 5061              	.LFE185:
 5063              		.section	.rodata.tcp_process_refused_data.str1.4,"aMS",%progbits,1
 5064              		.align	2
 5065              	.LC42:
 5066 0000 7463705F 		.ascii	"tcp_process_refused_data: invalid pcb\000"
 5066      70726F63 
 5066      6573735F 
 5066      72656675 
 5066      7365645F 
 5067              		.section	.text.tcp_process_refused_data,"ax",%progbits
 5068              		.align	1
 5069              		.global	tcp_process_refused_data
 5070              		.syntax unified
 5071              		.thumb
 5072              		.thumb_func
 5074              	tcp_process_refused_data:
 5075              	.LVL503:
 5076              	.LFB180:
1540:c:/Users/Black_Life/STM32Cube/Repository/STM32Cube_FW_F4_V1.26.2/Middlewares/Third_Party/LwIP/src/core\tcp.c **** #if TCP_QUEUE_OOSEQ && LWIP_WND_SCALE
 5077              		.loc 1 1540 1 is_stmt 1 view -0
 5078              		.cfi_startproc
 5079              		@ args = 0, pretend = 0, frame = 0
 5080              		@ frame_needed = 0, uses_anonymous_args = 0
1540:c:/Users/Black_Life/STM32Cube/Repository/STM32Cube_FW_F4_V1.26.2/Middlewares/Third_Party/LwIP/src/core\tcp.c **** #if TCP_QUEUE_OOSEQ && LWIP_WND_SCALE
 5081              		.loc 1 1540 1 is_stmt 0 view .LVU1485
 5082 0000 F8B5     		push	{r3, r4, r5, r6, r7, lr}
 5083              	.LCFI54:
 5084              		.cfi_def_cfa_offset 24
 5085              		.cfi_offset 3, -24
 5086              		.cfi_offset 4, -20
 5087              		.cfi_offset 5, -16
 5088              		.cfi_offset 6, -12
 5089              		.cfi_offset 7, -8
 5090              		.cfi_offset 14, -4
1545:c:/Users/Black_Life/STM32Cube/Repository/STM32Cube_FW_F4_V1.26.2/Middlewares/Third_Party/LwIP/src/core\tcp.c **** 
 5091              		.loc 1 1545 3 is_stmt 1 view .LVU1486
1545:c:/Users/Black_Life/STM32Cube/Repository/STM32Cube_FW_F4_V1.26.2/Middlewares/Third_Party/LwIP/src/core\tcp.c **** 
 5092              		.loc 1 1545 3 view .LVU1487
 5093 0002 18B3     		cbz	r0, .L481
 5094 0004 0446     		mov	r4, r0
1545:c:/Users/Black_Life/STM32Cube/Repository/STM32Cube_FW_F4_V1.26.2/Middlewares/Third_Party/LwIP/src/core\tcp.c **** 
 5095              		.loc 1 1545 3 discriminator 2 view .LVU1488
 5096              	.LBB26:
1551:c:/Users/Black_Life/STM32Cube/Repository/STM32Cube_FW_F4_V1.26.2/Middlewares/Third_Party/LwIP/src/core\tcp.c ****     u8_t refused_flags = pcb->refused_data->flags;
 5097              		.loc 1 1551 5 discriminator 2 view .LVU1489
ARM GAS  C:\Users\BLACK_~1\AppData\Local\Temp\ccRovO0r.s 			page 157


1552:c:/Users/Black_Life/STM32Cube/Repository/STM32Cube_FW_F4_V1.26.2/Middlewares/Third_Party/LwIP/src/core\tcp.c ****     /* set pcb->refused_data to NULL in case the callback frees it and then
 5098              		.loc 1 1552 5 discriminator 2 view .LVU1490
1552:c:/Users/Black_Life/STM32Cube/Repository/STM32Cube_FW_F4_V1.26.2/Middlewares/Third_Party/LwIP/src/core\tcp.c ****     /* set pcb->refused_data to NULL in case the callback frees it and then
 5099              		.loc 1 1552 29 is_stmt 0 discriminator 2 view .LVU1491
 5100 0006 866F     		ldr	r6, [r0, #120]
1552:c:/Users/Black_Life/STM32Cube/Repository/STM32Cube_FW_F4_V1.26.2/Middlewares/Third_Party/LwIP/src/core\tcp.c ****     /* set pcb->refused_data to NULL in case the callback frees it and then
 5101              		.loc 1 1552 10 discriminator 2 view .LVU1492
 5102 0008 777B     		ldrb	r7, [r6, #13]	@ zero_extendqisi2
 5103              	.LVL504:
1555:c:/Users/Black_Life/STM32Cube/Repository/STM32Cube_FW_F4_V1.26.2/Middlewares/Third_Party/LwIP/src/core\tcp.c **** #if TCP_QUEUE_OOSEQ && LWIP_WND_SCALE
 5104              		.loc 1 1555 5 is_stmt 1 discriminator 2 view .LVU1493
1560:c:/Users/Black_Life/STM32Cube/Repository/STM32Cube_FW_F4_V1.26.2/Middlewares/Third_Party/LwIP/src/core\tcp.c **** #endif /* TCP_QUEUE_OOSEQ && LWIP_WND_SCALE */
 5105              		.loc 1 1560 5 discriminator 2 view .LVU1494
1560:c:/Users/Black_Life/STM32Cube/Repository/STM32Cube_FW_F4_V1.26.2/Middlewares/Third_Party/LwIP/src/core\tcp.c **** #endif /* TCP_QUEUE_OOSEQ && LWIP_WND_SCALE */
 5106              		.loc 1 1560 23 is_stmt 0 discriminator 2 view .LVU1495
 5107 000a 0023     		movs	r3, #0
 5108 000c 8367     		str	r3, [r0, #120]
1563:c:/Users/Black_Life/STM32Cube/Repository/STM32Cube_FW_F4_V1.26.2/Middlewares/Third_Party/LwIP/src/core\tcp.c ****     TCP_EVENT_RECV(pcb, refused_data, ERR_OK, err);
 5109              		.loc 1 1563 70 is_stmt 1 discriminator 2 view .LVU1496
1564:c:/Users/Black_Life/STM32Cube/Repository/STM32Cube_FW_F4_V1.26.2/Middlewares/Third_Party/LwIP/src/core\tcp.c ****     if (err == ERR_OK) {
 5110              		.loc 1 1564 5 discriminator 2 view .LVU1497
1564:c:/Users/Black_Life/STM32Cube/Repository/STM32Cube_FW_F4_V1.26.2/Middlewares/Third_Party/LwIP/src/core\tcp.c ****     if (err == ERR_OK) {
 5111              		.loc 1 1564 5 discriminator 2 view .LVU1498
 5112 000e D0F88450 		ldr	r5, [r0, #132]
 5113 0012 2DB3     		cbz	r5, .L475
1564:c:/Users/Black_Life/STM32Cube/Repository/STM32Cube_FW_F4_V1.26.2/Middlewares/Third_Party/LwIP/src/core\tcp.c ****     if (err == ERR_OK) {
 5114              		.loc 1 1564 5 discriminator 1 view .LVU1499
 5115 0014 3246     		mov	r2, r6
 5116 0016 0146     		mov	r1, r0
 5117 0018 0069     		ldr	r0, [r0, #16]
 5118              	.LVL505:
1564:c:/Users/Black_Life/STM32Cube/Repository/STM32Cube_FW_F4_V1.26.2/Middlewares/Third_Party/LwIP/src/core\tcp.c ****     if (err == ERR_OK) {
 5119              		.loc 1 1564 5 is_stmt 0 discriminator 1 view .LVU1500
 5120 001a A847     		blx	r5
 5121              	.LVL506:
1564:c:/Users/Black_Life/STM32Cube/Repository/STM32Cube_FW_F4_V1.26.2/Middlewares/Third_Party/LwIP/src/core\tcp.c ****     if (err == ERR_OK) {
 5122              		.loc 1 1564 5 discriminator 1 view .LVU1501
 5123 001c 0546     		mov	r5, r0
 5124              	.LVL507:
 5125              	.L476:
1564:c:/Users/Black_Life/STM32Cube/Repository/STM32Cube_FW_F4_V1.26.2/Middlewares/Third_Party/LwIP/src/core\tcp.c ****     if (err == ERR_OK) {
 5126              		.loc 1 1564 5 is_stmt 1 discriminator 4 view .LVU1502
1565:c:/Users/Black_Life/STM32Cube/Repository/STM32Cube_FW_F4_V1.26.2/Middlewares/Third_Party/LwIP/src/core\tcp.c ****       /* did refused_data include a FIN? */
 5127              		.loc 1 1565 5 discriminator 4 view .LVU1503
1565:c:/Users/Black_Life/STM32Cube/Repository/STM32Cube_FW_F4_V1.26.2/Middlewares/Third_Party/LwIP/src/core\tcp.c ****       /* did refused_data include a FIN? */
 5128              		.loc 1 1565 8 is_stmt 0 discriminator 4 view .LVU1504
 5129 001e 3DBB     		cbnz	r5, .L477
1567:c:/Users/Black_Life/STM32Cube/Repository/STM32Cube_FW_F4_V1.26.2/Middlewares/Third_Party/LwIP/src/core\tcp.c **** #if TCP_QUEUE_OOSEQ && LWIP_WND_SCALE
 5130              		.loc 1 1567 7 is_stmt 1 view .LVU1505
1567:c:/Users/Black_Life/STM32Cube/Repository/STM32Cube_FW_F4_V1.26.2/Middlewares/Third_Party/LwIP/src/core\tcp.c **** #if TCP_QUEUE_OOSEQ && LWIP_WND_SCALE
 5131              		.loc 1 1567 10 is_stmt 0 view .LVU1506
 5132 0020 17F0200F 		tst	r7, #32
 5133 0024 2AD0     		beq	.L474
1574:c:/Users/Black_Life/STM32Cube/Repository/STM32Cube_FW_F4_V1.26.2/Middlewares/Third_Party/LwIP/src/core\tcp.c ****           pcb->rcv_wnd++;
 5134              		.loc 1 1574 9 is_stmt 1 view .LVU1507
1574:c:/Users/Black_Life/STM32Cube/Repository/STM32Cube_FW_F4_V1.26.2/Middlewares/Third_Party/LwIP/src/core\tcp.c ****           pcb->rcv_wnd++;
 5135              		.loc 1 1574 16 is_stmt 0 view .LVU1508
ARM GAS  C:\Users\BLACK_~1\AppData\Local\Temp\ccRovO0r.s 			page 158


 5136 0026 238D     		ldrh	r3, [r4, #40]
1574:c:/Users/Black_Life/STM32Cube/Repository/STM32Cube_FW_F4_V1.26.2/Middlewares/Third_Party/LwIP/src/core\tcp.c ****           pcb->rcv_wnd++;
 5137              		.loc 1 1574 12 view .LVU1509
 5138 0028 B3F5066F 		cmp	r3, #2144
 5139 002c 01D0     		beq	.L478
1575:c:/Users/Black_Life/STM32Cube/Repository/STM32Cube_FW_F4_V1.26.2/Middlewares/Third_Party/LwIP/src/core\tcp.c ****         }
 5140              		.loc 1 1575 11 is_stmt 1 view .LVU1510
1575:c:/Users/Black_Life/STM32Cube/Repository/STM32Cube_FW_F4_V1.26.2/Middlewares/Third_Party/LwIP/src/core\tcp.c ****         }
 5141              		.loc 1 1575 23 is_stmt 0 view .LVU1511
 5142 002e 0133     		adds	r3, r3, #1
 5143 0030 2385     		strh	r3, [r4, #40]	@ movhi
 5144              	.L478:
1577:c:/Users/Black_Life/STM32Cube/Repository/STM32Cube_FW_F4_V1.26.2/Middlewares/Third_Party/LwIP/src/core\tcp.c ****         if (err == ERR_ABRT) {
 5145              		.loc 1 1577 9 is_stmt 1 view .LVU1512
1577:c:/Users/Black_Life/STM32Cube/Repository/STM32Cube_FW_F4_V1.26.2/Middlewares/Third_Party/LwIP/src/core\tcp.c ****         if (err == ERR_ABRT) {
 5146              		.loc 1 1577 9 view .LVU1513
 5147 0032 D4F88460 		ldr	r6, [r4, #132]
 5148              	.LVL508:
1577:c:/Users/Black_Life/STM32Cube/Repository/STM32Cube_FW_F4_V1.26.2/Middlewares/Third_Party/LwIP/src/core\tcp.c ****         if (err == ERR_ABRT) {
 5149              		.loc 1 1577 9 is_stmt 0 view .LVU1514
 5150 0036 0EB3     		cbz	r6, .L474
1577:c:/Users/Black_Life/STM32Cube/Repository/STM32Cube_FW_F4_V1.26.2/Middlewares/Third_Party/LwIP/src/core\tcp.c ****         if (err == ERR_ABRT) {
 5151              		.loc 1 1577 9 is_stmt 1 discriminator 1 view .LVU1515
 5152 0038 0023     		movs	r3, #0
 5153 003a 1A46     		mov	r2, r3
 5154 003c 2146     		mov	r1, r4
 5155 003e 2069     		ldr	r0, [r4, #16]
 5156 0040 B047     		blx	r6
 5157              	.LVL509:
1577:c:/Users/Black_Life/STM32Cube/Repository/STM32Cube_FW_F4_V1.26.2/Middlewares/Third_Party/LwIP/src/core\tcp.c ****         if (err == ERR_ABRT) {
 5158              		.loc 1 1577 9 discriminator 1 view .LVU1516
1578:c:/Users/Black_Life/STM32Cube/Repository/STM32Cube_FW_F4_V1.26.2/Middlewares/Third_Party/LwIP/src/core\tcp.c ****           return ERR_ABRT;
 5159              		.loc 1 1578 9 discriminator 1 view .LVU1517
1578:c:/Users/Black_Life/STM32Cube/Repository/STM32Cube_FW_F4_V1.26.2/Middlewares/Third_Party/LwIP/src/core\tcp.c ****           return ERR_ABRT;
 5160              		.loc 1 1578 12 is_stmt 0 discriminator 1 view .LVU1518
 5161 0042 10F10D0F 		cmn	r0, #13
 5162 0046 19D1     		bne	.L474
1579:c:/Users/Black_Life/STM32Cube/Repository/STM32Cube_FW_F4_V1.26.2/Middlewares/Third_Party/LwIP/src/core\tcp.c ****         }
 5163              		.loc 1 1579 18 view .LVU1519
 5164 0048 0546     		mov	r5, r0
 5165 004a 17E0     		b	.L474
 5166              	.LVL510:
 5167              	.L481:
1579:c:/Users/Black_Life/STM32Cube/Repository/STM32Cube_FW_F4_V1.26.2/Middlewares/Third_Party/LwIP/src/core\tcp.c ****         }
 5168              		.loc 1 1579 18 view .LVU1520
 5169              	.LBE26:
1545:c:/Users/Black_Life/STM32Cube/Repository/STM32Cube_FW_F4_V1.26.2/Middlewares/Third_Party/LwIP/src/core\tcp.c **** 
 5170              		.loc 1 1545 3 is_stmt 1 discriminator 1 view .LVU1521
1545:c:/Users/Black_Life/STM32Cube/Repository/STM32Cube_FW_F4_V1.26.2/Middlewares/Third_Party/LwIP/src/core\tcp.c **** 
 5171              		.loc 1 1545 3 discriminator 1 view .LVU1522
 5172 004c 0C4B     		ldr	r3, .L482
 5173 004e 40F20962 		movw	r2, #1545
 5174 0052 0C49     		ldr	r1, .L482+4
 5175 0054 0C48     		ldr	r0, .L482+8
 5176              	.LVL511:
1545:c:/Users/Black_Life/STM32Cube/Repository/STM32Cube_FW_F4_V1.26.2/Middlewares/Third_Party/LwIP/src/core\tcp.c **** 
 5177              		.loc 1 1545 3 is_stmt 0 discriminator 1 view .LVU1523
ARM GAS  C:\Users\BLACK_~1\AppData\Local\Temp\ccRovO0r.s 			page 159


 5178 0056 FFF7FEFF 		bl	printf
 5179              	.LVL512:
1545:c:/Users/Black_Life/STM32Cube/Repository/STM32Cube_FW_F4_V1.26.2/Middlewares/Third_Party/LwIP/src/core\tcp.c **** 
 5180              		.loc 1 1545 3 is_stmt 1 discriminator 1 view .LVU1524
1545:c:/Users/Black_Life/STM32Cube/Repository/STM32Cube_FW_F4_V1.26.2/Middlewares/Third_Party/LwIP/src/core\tcp.c **** 
 5181              		.loc 1 1545 3 discriminator 1 view .LVU1525
 5182 005a 6FF00F05 		mvn	r5, #15
 5183 005e 0DE0     		b	.L474
 5184              	.LVL513:
 5185              	.L475:
 5186              	.LBB27:
1564:c:/Users/Black_Life/STM32Cube/Repository/STM32Cube_FW_F4_V1.26.2/Middlewares/Third_Party/LwIP/src/core\tcp.c ****     if (err == ERR_OK) {
 5187              		.loc 1 1564 5 discriminator 2 view .LVU1526
 5188 0060 0023     		movs	r3, #0
 5189 0062 3246     		mov	r2, r6
 5190 0064 0146     		mov	r1, r0
 5191 0066 1846     		mov	r0, r3
 5192              	.LVL514:
1564:c:/Users/Black_Life/STM32Cube/Repository/STM32Cube_FW_F4_V1.26.2/Middlewares/Third_Party/LwIP/src/core\tcp.c ****     if (err == ERR_OK) {
 5193              		.loc 1 1564 5 is_stmt 0 discriminator 2 view .LVU1527
 5194 0068 FFF7FEFF 		bl	tcp_recv_null
 5195              	.LVL515:
 5196 006c 0546     		mov	r5, r0
 5197              	.LVL516:
1564:c:/Users/Black_Life/STM32Cube/Repository/STM32Cube_FW_F4_V1.26.2/Middlewares/Third_Party/LwIP/src/core\tcp.c ****     if (err == ERR_OK) {
 5198              		.loc 1 1564 5 discriminator 2 view .LVU1528
 5199 006e D6E7     		b	.L476
 5200              	.L477:
1582:c:/Users/Black_Life/STM32Cube/Repository/STM32Cube_FW_F4_V1.26.2/Middlewares/Third_Party/LwIP/src/core\tcp.c ****       /* if err == ERR_ABRT, 'pcb' is already deallocated */
 5201              		.loc 1 1582 12 is_stmt 1 view .LVU1529
1582:c:/Users/Black_Life/STM32Cube/Repository/STM32Cube_FW_F4_V1.26.2/Middlewares/Third_Party/LwIP/src/core\tcp.c ****       /* if err == ERR_ABRT, 'pcb' is already deallocated */
 5202              		.loc 1 1582 15 is_stmt 0 view .LVU1530
 5203 0070 15F10D0F 		cmn	r5, #13
 5204 0074 02D0     		beq	.L474
1595:c:/Users/Black_Life/STM32Cube/Repository/STM32Cube_FW_F4_V1.26.2/Middlewares/Third_Party/LwIP/src/core\tcp.c ****       return ERR_INPROGRESS;
 5205              		.loc 1 1595 7 is_stmt 1 view .LVU1531
1595:c:/Users/Black_Life/STM32Cube/Repository/STM32Cube_FW_F4_V1.26.2/Middlewares/Third_Party/LwIP/src/core\tcp.c ****       return ERR_INPROGRESS;
 5206              		.loc 1 1595 25 is_stmt 0 view .LVU1532
 5207 0076 A667     		str	r6, [r4, #120]
1596:c:/Users/Black_Life/STM32Cube/Repository/STM32Cube_FW_F4_V1.26.2/Middlewares/Third_Party/LwIP/src/core\tcp.c ****     }
 5208              		.loc 1 1596 7 is_stmt 1 view .LVU1533
1596:c:/Users/Black_Life/STM32Cube/Repository/STM32Cube_FW_F4_V1.26.2/Middlewares/Third_Party/LwIP/src/core\tcp.c ****     }
 5209              		.loc 1 1596 14 is_stmt 0 view .LVU1534
 5210 0078 6FF00405 		mvn	r5, #4
 5211              	.LVL517:
 5212              	.L474:
1596:c:/Users/Black_Life/STM32Cube/Repository/STM32Cube_FW_F4_V1.26.2/Middlewares/Third_Party/LwIP/src/core\tcp.c ****     }
 5213              		.loc 1 1596 14 view .LVU1535
 5214              	.LBE27:
1600:c:/Users/Black_Life/STM32Cube/Repository/STM32Cube_FW_F4_V1.26.2/Middlewares/Third_Party/LwIP/src/core\tcp.c **** 
 5215              		.loc 1 1600 1 view .LVU1536
 5216 007c 2846     		mov	r0, r5
 5217 007e F8BD     		pop	{r3, r4, r5, r6, r7, pc}
 5218              	.L483:
 5219              		.align	2
 5220              	.L482:
 5221 0080 00000000 		.word	.LC0
ARM GAS  C:\Users\BLACK_~1\AppData\Local\Temp\ccRovO0r.s 			page 160


 5222 0084 00000000 		.word	.LC42
 5223 0088 98000000 		.word	.LC2
 5224              		.cfi_endproc
 5225              	.LFE180:
 5227              		.section	.text.tcp_fasttmr,"ax",%progbits
 5228              		.align	1
 5229              		.global	tcp_fasttmr
 5230              		.syntax unified
 5231              		.thumb
 5232              		.thumb_func
 5234              	tcp_fasttmr:
 5235              	.LFB178:
1480:c:/Users/Black_Life/STM32Cube/Repository/STM32Cube_FW_F4_V1.26.2/Middlewares/Third_Party/LwIP/src/core\tcp.c ****   struct tcp_pcb *pcb;
 5236              		.loc 1 1480 1 is_stmt 1 view -0
 5237              		.cfi_startproc
 5238              		@ args = 0, pretend = 0, frame = 0
 5239              		@ frame_needed = 0, uses_anonymous_args = 0
 5240 0000 70B5     		push	{r4, r5, r6, lr}
 5241              	.LCFI55:
 5242              		.cfi_def_cfa_offset 16
 5243              		.cfi_offset 4, -16
 5244              		.cfi_offset 5, -12
 5245              		.cfi_offset 6, -8
 5246              		.cfi_offset 14, -4
1481:c:/Users/Black_Life/STM32Cube/Repository/STM32Cube_FW_F4_V1.26.2/Middlewares/Third_Party/LwIP/src/core\tcp.c **** 
 5247              		.loc 1 1481 3 view .LVU1538
1483:c:/Users/Black_Life/STM32Cube/Repository/STM32Cube_FW_F4_V1.26.2/Middlewares/Third_Party/LwIP/src/core\tcp.c **** 
 5248              		.loc 1 1483 3 view .LVU1539
 5249 0002 1C4A     		ldr	r2, .L496
 5250 0004 1378     		ldrb	r3, [r2]	@ zero_extendqisi2
 5251 0006 0133     		adds	r3, r3, #1
 5252 0008 1370     		strb	r3, [r2]
 5253              	.L485:
1486:c:/Users/Black_Life/STM32Cube/Repository/STM32Cube_FW_F4_V1.26.2/Middlewares/Third_Party/LwIP/src/core\tcp.c **** 
 5254              		.loc 1 1486 3 view .LVU1540
1486:c:/Users/Black_Life/STM32Cube/Repository/STM32Cube_FW_F4_V1.26.2/Middlewares/Third_Party/LwIP/src/core\tcp.c **** 
 5255              		.loc 1 1486 7 is_stmt 0 view .LVU1541
 5256 000a 1B4B     		ldr	r3, .L496+4
 5257 000c 1C68     		ldr	r4, [r3]
 5258              	.LVL518:
1488:c:/Users/Black_Life/STM32Cube/Repository/STM32Cube_FW_F4_V1.26.2/Middlewares/Third_Party/LwIP/src/core\tcp.c ****     if (pcb->last_timer != tcp_timer_ctr) {
 5259              		.loc 1 1488 3 is_stmt 1 view .LVU1542
1488:c:/Users/Black_Life/STM32Cube/Repository/STM32Cube_FW_F4_V1.26.2/Middlewares/Third_Party/LwIP/src/core\tcp.c ****     if (pcb->last_timer != tcp_timer_ctr) {
 5260              		.loc 1 1488 9 is_stmt 0 view .LVU1543
 5261 000e 13E0     		b	.L486
 5262              	.L494:
 5263              	.LBB28:
1494:c:/Users/Black_Life/STM32Cube/Repository/STM32Cube_FW_F4_V1.26.2/Middlewares/Third_Party/LwIP/src/core\tcp.c ****         tcp_ack_now(pcb);
 5264              		.loc 1 1494 63 is_stmt 1 view .LVU1544
1495:c:/Users/Black_Life/STM32Cube/Repository/STM32Cube_FW_F4_V1.26.2/Middlewares/Third_Party/LwIP/src/core\tcp.c ****         tcp_output(pcb);
 5265              		.loc 1 1495 9 view .LVU1545
1495:c:/Users/Black_Life/STM32Cube/Repository/STM32Cube_FW_F4_V1.26.2/Middlewares/Third_Party/LwIP/src/core\tcp.c ****         tcp_output(pcb);
 5266              		.loc 1 1495 9 view .LVU1546
 5267 0010 43F00203 		orr	r3, r3, #2
 5268 0014 6383     		strh	r3, [r4, #26]	@ movhi
1495:c:/Users/Black_Life/STM32Cube/Repository/STM32Cube_FW_F4_V1.26.2/Middlewares/Third_Party/LwIP/src/core\tcp.c ****         tcp_output(pcb);
 5269              		.loc 1 1495 9 view .LVU1547
ARM GAS  C:\Users\BLACK_~1\AppData\Local\Temp\ccRovO0r.s 			page 161


1496:c:/Users/Black_Life/STM32Cube/Repository/STM32Cube_FW_F4_V1.26.2/Middlewares/Third_Party/LwIP/src/core\tcp.c ****         tcp_clear_flags(pcb, TF_ACK_DELAY | TF_ACK_NOW);
 5270              		.loc 1 1496 9 view .LVU1548
 5271 0016 2046     		mov	r0, r4
 5272 0018 FFF7FEFF 		bl	tcp_output
 5273              	.LVL519:
1497:c:/Users/Black_Life/STM32Cube/Repository/STM32Cube_FW_F4_V1.26.2/Middlewares/Third_Party/LwIP/src/core\tcp.c ****       }
 5274              		.loc 1 1497 9 view .LVU1549
1497:c:/Users/Black_Life/STM32Cube/Repository/STM32Cube_FW_F4_V1.26.2/Middlewares/Third_Party/LwIP/src/core\tcp.c ****       }
 5275              		.loc 1 1497 9 view .LVU1550
 5276 001c 638B     		ldrh	r3, [r4, #26]
 5277 001e 23F00303 		bic	r3, r3, #3
 5278 0022 6383     		strh	r3, [r4, #26]	@ movhi
 5279 0024 13E0     		b	.L488
 5280              	.L495:
1501:c:/Users/Black_Life/STM32Cube/Repository/STM32Cube_FW_F4_V1.26.2/Middlewares/Third_Party/LwIP/src/core\tcp.c ****         tcp_clear_flags(pcb, TF_CLOSEPEND);
 5281              		.loc 1 1501 63 view .LVU1551
1502:c:/Users/Black_Life/STM32Cube/Repository/STM32Cube_FW_F4_V1.26.2/Middlewares/Third_Party/LwIP/src/core\tcp.c ****         tcp_close_shutdown_fin(pcb);
 5282              		.loc 1 1502 9 view .LVU1552
1502:c:/Users/Black_Life/STM32Cube/Repository/STM32Cube_FW_F4_V1.26.2/Middlewares/Third_Party/LwIP/src/core\tcp.c ****         tcp_close_shutdown_fin(pcb);
 5283              		.loc 1 1502 9 view .LVU1553
 5284 0026 23F00803 		bic	r3, r3, #8
 5285 002a 6383     		strh	r3, [r4, #26]	@ movhi
1502:c:/Users/Black_Life/STM32Cube/Repository/STM32Cube_FW_F4_V1.26.2/Middlewares/Third_Party/LwIP/src/core\tcp.c ****         tcp_close_shutdown_fin(pcb);
 5286              		.loc 1 1502 9 view .LVU1554
1503:c:/Users/Black_Life/STM32Cube/Repository/STM32Cube_FW_F4_V1.26.2/Middlewares/Third_Party/LwIP/src/core\tcp.c ****       }
 5287              		.loc 1 1503 9 view .LVU1555
 5288 002c 2046     		mov	r0, r4
 5289 002e FFF7FEFF 		bl	tcp_close_shutdown_fin
 5290              	.LVL520:
 5291 0032 10E0     		b	.L489
 5292              	.L487:
1503:c:/Users/Black_Life/STM32Cube/Repository/STM32Cube_FW_F4_V1.26.2/Middlewares/Third_Party/LwIP/src/core\tcp.c ****       }
 5293              		.loc 1 1503 9 is_stmt 0 view .LVU1556
 5294              	.LBE28:
1519:c:/Users/Black_Life/STM32Cube/Repository/STM32Cube_FW_F4_V1.26.2/Middlewares/Third_Party/LwIP/src/core\tcp.c ****     }
 5295              		.loc 1 1519 7 is_stmt 1 view .LVU1557
1519:c:/Users/Black_Life/STM32Cube/Repository/STM32Cube_FW_F4_V1.26.2/Middlewares/Third_Party/LwIP/src/core\tcp.c ****     }
 5296              		.loc 1 1519 11 is_stmt 0 view .LVU1558
 5297 0034 E568     		ldr	r5, [r4, #12]
 5298              	.LVL521:
 5299              	.L490:
1480:c:/Users/Black_Life/STM32Cube/Repository/STM32Cube_FW_F4_V1.26.2/Middlewares/Third_Party/LwIP/src/core\tcp.c ****   struct tcp_pcb *pcb;
 5300              		.loc 1 1480 1 view .LVU1559
 5301 0036 2C46     		mov	r4, r5
 5302              	.L486:
 5303              	.LVL522:
1488:c:/Users/Black_Life/STM32Cube/Repository/STM32Cube_FW_F4_V1.26.2/Middlewares/Third_Party/LwIP/src/core\tcp.c ****     if (pcb->last_timer != tcp_timer_ctr) {
 5304              		.loc 1 1488 9 is_stmt 1 view .LVU1560
 5305 0038 DCB1     		cbz	r4, .L493
1489:c:/Users/Black_Life/STM32Cube/Repository/STM32Cube_FW_F4_V1.26.2/Middlewares/Third_Party/LwIP/src/core\tcp.c ****       struct tcp_pcb *next;
 5306              		.loc 1 1489 5 view .LVU1561
1489:c:/Users/Black_Life/STM32Cube/Repository/STM32Cube_FW_F4_V1.26.2/Middlewares/Third_Party/LwIP/src/core\tcp.c ****       struct tcp_pcb *next;
 5307              		.loc 1 1489 12 is_stmt 0 view .LVU1562
 5308 003a A27F     		ldrb	r2, [r4, #30]	@ zero_extendqisi2
1489:c:/Users/Black_Life/STM32Cube/Repository/STM32Cube_FW_F4_V1.26.2/Middlewares/Third_Party/LwIP/src/core\tcp.c ****       struct tcp_pcb *next;
 5309              		.loc 1 1489 25 view .LVU1563
 5310 003c 0D4B     		ldr	r3, .L496
ARM GAS  C:\Users\BLACK_~1\AppData\Local\Temp\ccRovO0r.s 			page 162


 5311 003e 1B78     		ldrb	r3, [r3]	@ zero_extendqisi2
1489:c:/Users/Black_Life/STM32Cube/Repository/STM32Cube_FW_F4_V1.26.2/Middlewares/Third_Party/LwIP/src/core\tcp.c ****       struct tcp_pcb *next;
 5312              		.loc 1 1489 8 view .LVU1564
 5313 0040 9A42     		cmp	r2, r3
 5314 0042 F7D0     		beq	.L487
 5315              	.LBB29:
1490:c:/Users/Black_Life/STM32Cube/Repository/STM32Cube_FW_F4_V1.26.2/Middlewares/Third_Party/LwIP/src/core\tcp.c ****       pcb->last_timer = tcp_timer_ctr;
 5316              		.loc 1 1490 7 is_stmt 1 view .LVU1565
1491:c:/Users/Black_Life/STM32Cube/Repository/STM32Cube_FW_F4_V1.26.2/Middlewares/Third_Party/LwIP/src/core\tcp.c ****       /* send delayed ACKs */
 5317              		.loc 1 1491 7 view .LVU1566
1491:c:/Users/Black_Life/STM32Cube/Repository/STM32Cube_FW_F4_V1.26.2/Middlewares/Third_Party/LwIP/src/core\tcp.c ****       /* send delayed ACKs */
 5318              		.loc 1 1491 23 is_stmt 0 view .LVU1567
 5319 0044 A377     		strb	r3, [r4, #30]
1493:c:/Users/Black_Life/STM32Cube/Repository/STM32Cube_FW_F4_V1.26.2/Middlewares/Third_Party/LwIP/src/core\tcp.c ****         LWIP_DEBUGF(TCP_DEBUG, ("tcp_fasttmr: delayed ACK\n"));
 5320              		.loc 1 1493 7 is_stmt 1 view .LVU1568
1493:c:/Users/Black_Life/STM32Cube/Repository/STM32Cube_FW_F4_V1.26.2/Middlewares/Third_Party/LwIP/src/core\tcp.c ****         LWIP_DEBUGF(TCP_DEBUG, ("tcp_fasttmr: delayed ACK\n"));
 5321              		.loc 1 1493 14 is_stmt 0 view .LVU1569
 5322 0046 638B     		ldrh	r3, [r4, #26]
1493:c:/Users/Black_Life/STM32Cube/Repository/STM32Cube_FW_F4_V1.26.2/Middlewares/Third_Party/LwIP/src/core\tcp.c ****         LWIP_DEBUGF(TCP_DEBUG, ("tcp_fasttmr: delayed ACK\n"));
 5323              		.loc 1 1493 10 view .LVU1570
 5324 0048 13F0010F 		tst	r3, #1
 5325 004c E0D1     		bne	.L494
 5326              	.L488:
1497:c:/Users/Black_Life/STM32Cube/Repository/STM32Cube_FW_F4_V1.26.2/Middlewares/Third_Party/LwIP/src/core\tcp.c ****       }
 5327              		.loc 1 1497 9 is_stmt 1 discriminator 1 view .LVU1571
1500:c:/Users/Black_Life/STM32Cube/Repository/STM32Cube_FW_F4_V1.26.2/Middlewares/Third_Party/LwIP/src/core\tcp.c ****         LWIP_DEBUGF(TCP_DEBUG, ("tcp_fasttmr: pending FIN\n"));
 5328              		.loc 1 1500 7 discriminator 1 view .LVU1572
1500:c:/Users/Black_Life/STM32Cube/Repository/STM32Cube_FW_F4_V1.26.2/Middlewares/Third_Party/LwIP/src/core\tcp.c ****         LWIP_DEBUGF(TCP_DEBUG, ("tcp_fasttmr: pending FIN\n"));
 5329              		.loc 1 1500 14 is_stmt 0 discriminator 1 view .LVU1573
 5330 004e 638B     		ldrh	r3, [r4, #26]
1500:c:/Users/Black_Life/STM32Cube/Repository/STM32Cube_FW_F4_V1.26.2/Middlewares/Third_Party/LwIP/src/core\tcp.c ****         LWIP_DEBUGF(TCP_DEBUG, ("tcp_fasttmr: pending FIN\n"));
 5331              		.loc 1 1500 10 discriminator 1 view .LVU1574
 5332 0050 13F0080F 		tst	r3, #8
 5333 0054 E7D1     		bne	.L495
 5334              	.L489:
1506:c:/Users/Black_Life/STM32Cube/Repository/STM32Cube_FW_F4_V1.26.2/Middlewares/Third_Party/LwIP/src/core\tcp.c **** 
 5335              		.loc 1 1506 7 is_stmt 1 view .LVU1575
1506:c:/Users/Black_Life/STM32Cube/Repository/STM32Cube_FW_F4_V1.26.2/Middlewares/Third_Party/LwIP/src/core\tcp.c **** 
 5336              		.loc 1 1506 12 is_stmt 0 view .LVU1576
 5337 0056 E568     		ldr	r5, [r4, #12]
 5338              	.LVL523:
1509:c:/Users/Black_Life/STM32Cube/Repository/STM32Cube_FW_F4_V1.26.2/Middlewares/Third_Party/LwIP/src/core\tcp.c ****         tcp_active_pcbs_changed = 0;
 5339              		.loc 1 1509 7 is_stmt 1 view .LVU1577
1509:c:/Users/Black_Life/STM32Cube/Repository/STM32Cube_FW_F4_V1.26.2/Middlewares/Third_Party/LwIP/src/core\tcp.c ****         tcp_active_pcbs_changed = 0;
 5340              		.loc 1 1509 14 is_stmt 0 view .LVU1578
 5341 0058 A36F     		ldr	r3, [r4, #120]
1509:c:/Users/Black_Life/STM32Cube/Repository/STM32Cube_FW_F4_V1.26.2/Middlewares/Third_Party/LwIP/src/core\tcp.c ****         tcp_active_pcbs_changed = 0;
 5342              		.loc 1 1509 10 view .LVU1579
 5343 005a 002B     		cmp	r3, #0
 5344 005c EBD0     		beq	.L490
1510:c:/Users/Black_Life/STM32Cube/Repository/STM32Cube_FW_F4_V1.26.2/Middlewares/Third_Party/LwIP/src/core\tcp.c ****         tcp_process_refused_data(pcb);
 5345              		.loc 1 1510 9 is_stmt 1 view .LVU1580
1510:c:/Users/Black_Life/STM32Cube/Repository/STM32Cube_FW_F4_V1.26.2/Middlewares/Third_Party/LwIP/src/core\tcp.c ****         tcp_process_refused_data(pcb);
 5346              		.loc 1 1510 33 is_stmt 0 view .LVU1581
 5347 005e 074E     		ldr	r6, .L496+8
 5348 0060 0023     		movs	r3, #0
 5349 0062 3370     		strb	r3, [r6]
ARM GAS  C:\Users\BLACK_~1\AppData\Local\Temp\ccRovO0r.s 			page 163


1511:c:/Users/Black_Life/STM32Cube/Repository/STM32Cube_FW_F4_V1.26.2/Middlewares/Third_Party/LwIP/src/core\tcp.c ****         if (tcp_active_pcbs_changed) {
 5350              		.loc 1 1511 9 is_stmt 1 view .LVU1582
 5351 0064 2046     		mov	r0, r4
 5352 0066 FFF7FEFF 		bl	tcp_process_refused_data
 5353              	.LVL524:
1512:c:/Users/Black_Life/STM32Cube/Repository/STM32Cube_FW_F4_V1.26.2/Middlewares/Third_Party/LwIP/src/core\tcp.c ****           /* application callback has changed the pcb list: restart the loop */
 5354              		.loc 1 1512 9 view .LVU1583
1512:c:/Users/Black_Life/STM32Cube/Repository/STM32Cube_FW_F4_V1.26.2/Middlewares/Third_Party/LwIP/src/core\tcp.c ****           /* application callback has changed the pcb list: restart the loop */
 5355              		.loc 1 1512 13 is_stmt 0 view .LVU1584
 5356 006a 3378     		ldrb	r3, [r6]	@ zero_extendqisi2
1512:c:/Users/Black_Life/STM32Cube/Repository/STM32Cube_FW_F4_V1.26.2/Middlewares/Third_Party/LwIP/src/core\tcp.c ****           /* application callback has changed the pcb list: restart the loop */
 5357              		.loc 1 1512 12 view .LVU1585
 5358 006c 002B     		cmp	r3, #0
 5359 006e E2D0     		beq	.L490
 5360 0070 CBE7     		b	.L485
 5361              	.LVL525:
 5362              	.L493:
1512:c:/Users/Black_Life/STM32Cube/Repository/STM32Cube_FW_F4_V1.26.2/Middlewares/Third_Party/LwIP/src/core\tcp.c ****           /* application callback has changed the pcb list: restart the loop */
 5363              		.loc 1 1512 12 view .LVU1586
 5364              	.LBE29:
1522:c:/Users/Black_Life/STM32Cube/Repository/STM32Cube_FW_F4_V1.26.2/Middlewares/Third_Party/LwIP/src/core\tcp.c **** 
 5365              		.loc 1 1522 1 view .LVU1587
 5366 0072 70BD     		pop	{r4, r5, r6, pc}
 5367              	.LVL526:
 5368              	.L497:
1522:c:/Users/Black_Life/STM32Cube/Repository/STM32Cube_FW_F4_V1.26.2/Middlewares/Third_Party/LwIP/src/core\tcp.c **** 
 5369              		.loc 1 1522 1 view .LVU1588
 5370              		.align	2
 5371              	.L496:
 5372 0074 00000000 		.word	.LANCHOR10
 5373 0078 00000000 		.word	.LANCHOR2
 5374 007c 00000000 		.word	.LANCHOR7
 5375              		.cfi_endproc
 5376              	.LFE178:
 5378              		.section	.rodata.tcp_shutdown.str1.4,"aMS",%progbits,1
 5379              		.align	2
 5380              	.LC43:
 5381 0000 7463705F 		.ascii	"tcp_shutdown: invalid pcb\000"
 5381      73687574 
 5381      646F776E 
 5381      3A20696E 
 5381      76616C69 
 5382              		.section	.text.tcp_shutdown,"ax",%progbits
 5383              		.align	1
 5384              		.global	tcp_shutdown
 5385              		.syntax unified
 5386              		.thumb
 5387              		.thumb_func
 5389              	tcp_shutdown:
 5390              	.LVL527:
 5391              	.LFB165:
 516:c:/Users/Black_Life/STM32Cube/Repository/STM32Cube_FW_F4_V1.26.2/Middlewares/Third_Party/LwIP/src/core\tcp.c ****   LWIP_ASSERT_CORE_LOCKED();
 5392              		.loc 1 516 1 is_stmt 1 view -0
 5393              		.cfi_startproc
 5394              		@ args = 0, pretend = 0, frame = 0
 5395              		@ frame_needed = 0, uses_anonymous_args = 0
 516:c:/Users/Black_Life/STM32Cube/Repository/STM32Cube_FW_F4_V1.26.2/Middlewares/Third_Party/LwIP/src/core\tcp.c ****   LWIP_ASSERT_CORE_LOCKED();
ARM GAS  C:\Users\BLACK_~1\AppData\Local\Temp\ccRovO0r.s 			page 164


 5396              		.loc 1 516 1 is_stmt 0 view .LVU1590
 5397 0000 70B5     		push	{r4, r5, r6, lr}
 5398              	.LCFI56:
 5399              		.cfi_def_cfa_offset 16
 5400              		.cfi_offset 4, -16
 5401              		.cfi_offset 5, -12
 5402              		.cfi_offset 6, -8
 5403              		.cfi_offset 14, -4
 517:c:/Users/Black_Life/STM32Cube/Repository/STM32Cube_FW_F4_V1.26.2/Middlewares/Third_Party/LwIP/src/core\tcp.c **** 
 5404              		.loc 1 517 28 is_stmt 1 view .LVU1591
 519:c:/Users/Black_Life/STM32Cube/Repository/STM32Cube_FW_F4_V1.26.2/Middlewares/Third_Party/LwIP/src/core\tcp.c **** 
 5405              		.loc 1 519 3 view .LVU1592
 519:c:/Users/Black_Life/STM32Cube/Repository/STM32Cube_FW_F4_V1.26.2/Middlewares/Third_Party/LwIP/src/core\tcp.c **** 
 5406              		.loc 1 519 3 view .LVU1593
 5407 0002 D0B1     		cbz	r0, .L509
 5408 0004 0D46     		mov	r5, r1
 5409 0006 1646     		mov	r6, r2
 5410 0008 0446     		mov	r4, r0
 519:c:/Users/Black_Life/STM32Cube/Repository/STM32Cube_FW_F4_V1.26.2/Middlewares/Third_Party/LwIP/src/core\tcp.c **** 
 5411              		.loc 1 519 3 discriminator 2 view .LVU1594
 521:c:/Users/Black_Life/STM32Cube/Repository/STM32Cube_FW_F4_V1.26.2/Middlewares/Third_Party/LwIP/src/core\tcp.c ****     return ERR_CONN;
 5412              		.loc 1 521 3 discriminator 2 view .LVU1595
 521:c:/Users/Black_Life/STM32Cube/Repository/STM32Cube_FW_F4_V1.26.2/Middlewares/Third_Party/LwIP/src/core\tcp.c ****     return ERR_CONN;
 5413              		.loc 1 521 10 is_stmt 0 discriminator 2 view .LVU1596
 5414 000a 037D     		ldrb	r3, [r0, #20]	@ zero_extendqisi2
 521:c:/Users/Black_Life/STM32Cube/Repository/STM32Cube_FW_F4_V1.26.2/Middlewares/Third_Party/LwIP/src/core\tcp.c ****     return ERR_CONN;
 5415              		.loc 1 521 6 discriminator 2 view .LVU1597
 5416 000c 012B     		cmp	r3, #1
 5417 000e 29D0     		beq	.L505
 524:c:/Users/Black_Life/STM32Cube/Repository/STM32Cube_FW_F4_V1.26.2/Middlewares/Third_Party/LwIP/src/core\tcp.c ****     /* shut down the receive side: set a flag not to receive any more data... */
 5418              		.loc 1 524 3 is_stmt 1 view .LVU1598
 524:c:/Users/Black_Life/STM32Cube/Repository/STM32Cube_FW_F4_V1.26.2/Middlewares/Third_Party/LwIP/src/core\tcp.c ****     /* shut down the receive side: set a flag not to receive any more data... */
 5419              		.loc 1 524 6 is_stmt 0 view .LVU1599
 5420 0010 51B1     		cbz	r1, .L501
 526:c:/Users/Black_Life/STM32Cube/Repository/STM32Cube_FW_F4_V1.26.2/Middlewares/Third_Party/LwIP/src/core\tcp.c ****     if (shut_tx) {
 5421              		.loc 1 526 5 is_stmt 1 view .LVU1600
 526:c:/Users/Black_Life/STM32Cube/Repository/STM32Cube_FW_F4_V1.26.2/Middlewares/Third_Party/LwIP/src/core\tcp.c ****     if (shut_tx) {
 5422              		.loc 1 526 5 view .LVU1601
 5423 0012 438B     		ldrh	r3, [r0, #26]
 5424 0014 43F01003 		orr	r3, r3, #16
 5425 0018 4383     		strh	r3, [r0, #26]	@ movhi
 526:c:/Users/Black_Life/STM32Cube/Repository/STM32Cube_FW_F4_V1.26.2/Middlewares/Third_Party/LwIP/src/core\tcp.c ****     if (shut_tx) {
 5426              		.loc 1 526 5 view .LVU1602
 527:c:/Users/Black_Life/STM32Cube/Repository/STM32Cube_FW_F4_V1.26.2/Middlewares/Third_Party/LwIP/src/core\tcp.c ****       /* shutting down the tx AND rx side is the same as closing for the raw API */
 5427              		.loc 1 527 5 view .LVU1603
 527:c:/Users/Black_Life/STM32Cube/Repository/STM32Cube_FW_F4_V1.26.2/Middlewares/Third_Party/LwIP/src/core\tcp.c ****       /* shutting down the tx AND rx side is the same as closing for the raw API */
 5428              		.loc 1 527 8 is_stmt 0 view .LVU1604
 5429 001a C2B9     		cbnz	r2, .L510
 532:c:/Users/Black_Life/STM32Cube/Repository/STM32Cube_FW_F4_V1.26.2/Middlewares/Third_Party/LwIP/src/core\tcp.c ****       pbuf_free(pcb->refused_data);
 5430              		.loc 1 532 5 is_stmt 1 view .LVU1605
 532:c:/Users/Black_Life/STM32Cube/Repository/STM32Cube_FW_F4_V1.26.2/Middlewares/Third_Party/LwIP/src/core\tcp.c ****       pbuf_free(pcb->refused_data);
 5431              		.loc 1 532 12 is_stmt 0 view .LVU1606
 5432 001c 806F     		ldr	r0, [r0, #120]
 5433              	.LVL528:
 532:c:/Users/Black_Life/STM32Cube/Repository/STM32Cube_FW_F4_V1.26.2/Middlewares/Third_Party/LwIP/src/core\tcp.c ****       pbuf_free(pcb->refused_data);
 5434              		.loc 1 532 8 view .LVU1607
 5435 001e 18B1     		cbz	r0, .L501
ARM GAS  C:\Users\BLACK_~1\AppData\Local\Temp\ccRovO0r.s 			page 165


 533:c:/Users/Black_Life/STM32Cube/Repository/STM32Cube_FW_F4_V1.26.2/Middlewares/Third_Party/LwIP/src/core\tcp.c ****       pcb->refused_data = NULL;
 5436              		.loc 1 533 7 is_stmt 1 view .LVU1608
 5437 0020 FFF7FEFF 		bl	pbuf_free
 5438              	.LVL529:
 534:c:/Users/Black_Life/STM32Cube/Repository/STM32Cube_FW_F4_V1.26.2/Middlewares/Third_Party/LwIP/src/core\tcp.c ****     }
 5439              		.loc 1 534 7 view .LVU1609
 534:c:/Users/Black_Life/STM32Cube/Repository/STM32Cube_FW_F4_V1.26.2/Middlewares/Third_Party/LwIP/src/core\tcp.c ****     }
 5440              		.loc 1 534 25 is_stmt 0 view .LVU1610
 5441 0024 0023     		movs	r3, #0
 5442 0026 A367     		str	r3, [r4, #120]
 5443              	.L501:
 537:c:/Users/Black_Life/STM32Cube/Repository/STM32Cube_FW_F4_V1.26.2/Middlewares/Third_Party/LwIP/src/core\tcp.c ****     /* This can't happen twice since if it succeeds, the pcb's state is changed.
 5444              		.loc 1 537 3 is_stmt 1 view .LVU1611
 537:c:/Users/Black_Life/STM32Cube/Repository/STM32Cube_FW_F4_V1.26.2/Middlewares/Third_Party/LwIP/src/core\tcp.c ****     /* This can't happen twice since if it succeeds, the pcb's state is changed.
 5445              		.loc 1 537 6 is_stmt 0 view .LVU1612
 5446 0028 FEB1     		cbz	r6, .L506
 540:c:/Users/Black_Life/STM32Cube/Repository/STM32Cube_FW_F4_V1.26.2/Middlewares/Third_Party/LwIP/src/core\tcp.c ****       case SYN_RCVD:
 5447              		.loc 1 540 5 is_stmt 1 view .LVU1613
 540:c:/Users/Black_Life/STM32Cube/Repository/STM32Cube_FW_F4_V1.26.2/Middlewares/Third_Party/LwIP/src/core\tcp.c ****       case SYN_RCVD:
 5448              		.loc 1 540 16 is_stmt 0 view .LVU1614
 5449 002a 237D     		ldrb	r3, [r4, #20]	@ zero_extendqisi2
 540:c:/Users/Black_Life/STM32Cube/Repository/STM32Cube_FW_F4_V1.26.2/Middlewares/Third_Party/LwIP/src/core\tcp.c ****       case SYN_RCVD:
 5450              		.loc 1 540 5 view .LVU1615
 5451 002c 042B     		cmp	r3, #4
 5452 002e 12D8     		bhi	.L503
 5453 0030 032B     		cmp	r3, #3
 5454 0032 12D2     		bcs	.L504
 5455 0034 6FF00A00 		mvn	r0, #10
 5456 0038 18E0     		b	.L500
 5457              	.LVL530:
 5458              	.L509:
 519:c:/Users/Black_Life/STM32Cube/Repository/STM32Cube_FW_F4_V1.26.2/Middlewares/Third_Party/LwIP/src/core\tcp.c **** 
 5459              		.loc 1 519 3 is_stmt 1 discriminator 1 view .LVU1616
 519:c:/Users/Black_Life/STM32Cube/Repository/STM32Cube_FW_F4_V1.26.2/Middlewares/Third_Party/LwIP/src/core\tcp.c **** 
 5460              		.loc 1 519 3 discriminator 1 view .LVU1617
 5461 003a 0E4B     		ldr	r3, .L511
 5462 003c 40F20722 		movw	r2, #519
 5463              	.LVL531:
 519:c:/Users/Black_Life/STM32Cube/Repository/STM32Cube_FW_F4_V1.26.2/Middlewares/Third_Party/LwIP/src/core\tcp.c **** 
 5464              		.loc 1 519 3 is_stmt 0 discriminator 1 view .LVU1618
 5465 0040 0D49     		ldr	r1, .L511+4
 5466              	.LVL532:
 519:c:/Users/Black_Life/STM32Cube/Repository/STM32Cube_FW_F4_V1.26.2/Middlewares/Third_Party/LwIP/src/core\tcp.c **** 
 5467              		.loc 1 519 3 discriminator 1 view .LVU1619
 5468 0042 0E48     		ldr	r0, .L511+8
 5469              	.LVL533:
 519:c:/Users/Black_Life/STM32Cube/Repository/STM32Cube_FW_F4_V1.26.2/Middlewares/Third_Party/LwIP/src/core\tcp.c **** 
 5470              		.loc 1 519 3 discriminator 1 view .LVU1620
 5471 0044 FFF7FEFF 		bl	printf
 5472              	.LVL534:
 519:c:/Users/Black_Life/STM32Cube/Repository/STM32Cube_FW_F4_V1.26.2/Middlewares/Third_Party/LwIP/src/core\tcp.c **** 
 5473              		.loc 1 519 3 is_stmt 1 discriminator 1 view .LVU1621
 519:c:/Users/Black_Life/STM32Cube/Repository/STM32Cube_FW_F4_V1.26.2/Middlewares/Third_Party/LwIP/src/core\tcp.c **** 
 5474              		.loc 1 519 3 discriminator 1 view .LVU1622
 5475 0048 6FF00F00 		mvn	r0, #15
 5476 004c 0EE0     		b	.L500
 5477              	.LVL535:
ARM GAS  C:\Users\BLACK_~1\AppData\Local\Temp\ccRovO0r.s 			page 166


 5478              	.L510:
 529:c:/Users/Black_Life/STM32Cube/Repository/STM32Cube_FW_F4_V1.26.2/Middlewares/Third_Party/LwIP/src/core\tcp.c ****     }
 5479              		.loc 1 529 7 view .LVU1623
 529:c:/Users/Black_Life/STM32Cube/Repository/STM32Cube_FW_F4_V1.26.2/Middlewares/Third_Party/LwIP/src/core\tcp.c ****     }
 5480              		.loc 1 529 14 is_stmt 0 view .LVU1624
 5481 004e 0121     		movs	r1, #1
 5482              	.LVL536:
 529:c:/Users/Black_Life/STM32Cube/Repository/STM32Cube_FW_F4_V1.26.2/Middlewares/Third_Party/LwIP/src/core\tcp.c ****     }
 5483              		.loc 1 529 14 view .LVU1625
 5484 0050 FFF7FEFF 		bl	tcp_close_shutdown
 5485              	.LVL537:
 529:c:/Users/Black_Life/STM32Cube/Repository/STM32Cube_FW_F4_V1.26.2/Middlewares/Third_Party/LwIP/src/core\tcp.c ****     }
 5486              		.loc 1 529 14 view .LVU1626
 5487 0054 0AE0     		b	.L500
 5488              	.L503:
 540:c:/Users/Black_Life/STM32Cube/Repository/STM32Cube_FW_F4_V1.26.2/Middlewares/Third_Party/LwIP/src/core\tcp.c ****       case SYN_RCVD:
 5489              		.loc 1 540 5 view .LVU1627
 5490 0056 072B     		cmp	r3, #7
 5491 0058 09D1     		bne	.L507
 5492              	.L504:
 544:c:/Users/Black_Life/STM32Cube/Repository/STM32Cube_FW_F4_V1.26.2/Middlewares/Third_Party/LwIP/src/core\tcp.c ****       default:
 5493              		.loc 1 544 9 is_stmt 1 view .LVU1628
 544:c:/Users/Black_Life/STM32Cube/Repository/STM32Cube_FW_F4_V1.26.2/Middlewares/Third_Party/LwIP/src/core\tcp.c ****       default:
 5494              		.loc 1 544 16 is_stmt 0 view .LVU1629
 5495 005a E9B2     		uxtb	r1, r5
 5496 005c 2046     		mov	r0, r4
 5497 005e FFF7FEFF 		bl	tcp_close_shutdown
 5498              	.LVL538:
 5499 0062 03E0     		b	.L500
 5500              	.LVL539:
 5501              	.L505:
 522:c:/Users/Black_Life/STM32Cube/Repository/STM32Cube_FW_F4_V1.26.2/Middlewares/Third_Party/LwIP/src/core\tcp.c ****   }
 5502              		.loc 1 522 12 view .LVU1630
 5503 0064 6FF00A00 		mvn	r0, #10
 5504              	.LVL540:
 522:c:/Users/Black_Life/STM32Cube/Repository/STM32Cube_FW_F4_V1.26.2/Middlewares/Third_Party/LwIP/src/core\tcp.c ****   }
 5505              		.loc 1 522 12 view .LVU1631
 5506 0068 00E0     		b	.L500
 5507              	.LVL541:
 5508              	.L506:
 551:c:/Users/Black_Life/STM32Cube/Repository/STM32Cube_FW_F4_V1.26.2/Middlewares/Third_Party/LwIP/src/core\tcp.c **** }
 5509              		.loc 1 551 10 view .LVU1632
 5510 006a 0020     		movs	r0, #0
 5511              	.LVL542:
 5512              	.L500:
 552:c:/Users/Black_Life/STM32Cube/Repository/STM32Cube_FW_F4_V1.26.2/Middlewares/Third_Party/LwIP/src/core\tcp.c **** 
 5513              		.loc 1 552 1 view .LVU1633
 5514 006c 70BD     		pop	{r4, r5, r6, pc}
 5515              	.LVL543:
 5516              	.L507:
 540:c:/Users/Black_Life/STM32Cube/Repository/STM32Cube_FW_F4_V1.26.2/Middlewares/Third_Party/LwIP/src/core\tcp.c ****       case SYN_RCVD:
 5517              		.loc 1 540 5 view .LVU1634
 5518 006e 6FF00A00 		mvn	r0, #10
 5519 0072 FBE7     		b	.L500
 5520              	.L512:
 5521              		.align	2
 5522              	.L511:
ARM GAS  C:\Users\BLACK_~1\AppData\Local\Temp\ccRovO0r.s 			page 167


 5523 0074 00000000 		.word	.LC0
 5524 0078 00000000 		.word	.LC43
 5525 007c 98000000 		.word	.LC2
 5526              		.cfi_endproc
 5527              	.LFE165:
 5529              		.section	.rodata.tcp_slowtmr.str1.4,"aMS",%progbits,1
 5530              		.align	2
 5531              	.LC44:
 5532 0000 7463705F 		.ascii	"tcp_slowtmr: active pcb->state != CLOSED\012\000"
 5532      736C6F77 
 5532      746D723A 
 5532      20616374 
 5532      69766520 
 5533 002a 0000     		.align	2
 5534              	.LC45:
 5535 002c 7463705F 		.ascii	"tcp_slowtmr: active pcb->state != LISTEN\012\000"
 5535      736C6F77 
 5535      746D723A 
 5535      20616374 
 5535      69766520 
 5536 0056 0000     		.align	2
 5537              	.LC46:
 5538 0058 7463705F 		.ascii	"tcp_slowtmr: active pcb->state != TIME-WAIT\012\000"
 5538      736C6F77 
 5538      746D723A 
 5538      20616374 
 5538      69766520 
 5539 0085 000000   		.align	2
 5540              	.LC47:
 5541 0088 7463705F 		.ascii	"tcp_slowtimr: persist ticking with in-flight data\000"
 5541      736C6F77 
 5541      74696D72 
 5541      3A207065 
 5541      72736973 
 5542 00ba 0000     		.align	2
 5543              	.LC48:
 5544 00bc 7463705F 		.ascii	"tcp_slowtimr: persist ticking with empty send buffe"
 5544      736C6F77 
 5544      74696D72 
 5544      3A207065 
 5544      72736973 
 5545 00ef 7200     		.ascii	"r\000"
 5546 00f1 000000   		.align	2
 5547              	.LC49:
 5548 00f4 7463705F 		.ascii	"tcp_slowtmr: middle tcp != tcp_active_pcbs\000"
 5548      736C6F77 
 5548      746D723A 
 5548      206D6964 
 5548      646C6520 
 5549 011f 00       		.align	2
 5550              	.LC50:
 5551 0120 7463705F 		.ascii	"tcp_slowtmr: first pcb == tcp_active_pcbs\000"
 5551      736C6F77 
 5551      746D723A 
 5551      20666972 
 5551      73742070 
 5552 014a 0000     		.align	2
ARM GAS  C:\Users\BLACK_~1\AppData\Local\Temp\ccRovO0r.s 			page 168


 5553              	.LC51:
 5554 014c 7463705F 		.ascii	"tcp_slowtmr: TIME-WAIT pcb->state == TIME-WAIT\000"
 5554      736C6F77 
 5554      746D723A 
 5554      2054494D 
 5554      452D5741 
 5555 017b 00       		.align	2
 5556              	.LC52:
 5557 017c 7463705F 		.ascii	"tcp_slowtmr: middle tcp != tcp_tw_pcbs\000"
 5557      736C6F77 
 5557      746D723A 
 5557      206D6964 
 5557      646C6520 
 5558 01a3 00       		.align	2
 5559              	.LC53:
 5560 01a4 7463705F 		.ascii	"tcp_slowtmr: first pcb == tcp_tw_pcbs\000"
 5560      736C6F77 
 5560      746D723A 
 5560      20666972 
 5560      73742070 
 5561              		.section	.text.tcp_slowtmr,"ax",%progbits
 5562              		.align	1
 5563              		.global	tcp_slowtmr
 5564              		.syntax unified
 5565              		.thumb
 5566              		.thumb_func
 5568              	tcp_slowtmr:
 5569              	.LFB177:
1193:c:/Users/Black_Life/STM32Cube/Repository/STM32Cube_FW_F4_V1.26.2/Middlewares/Third_Party/LwIP/src/core\tcp.c ****   struct tcp_pcb *pcb, *prev;
 5570              		.loc 1 1193 1 is_stmt 1 view -0
 5571              		.cfi_startproc
 5572              		@ args = 0, pretend = 0, frame = 0
 5573              		@ frame_needed = 0, uses_anonymous_args = 0
 5574 0000 2DE9F041 		push	{r4, r5, r6, r7, r8, lr}
 5575              	.LCFI57:
 5576              		.cfi_def_cfa_offset 24
 5577              		.cfi_offset 4, -24
 5578              		.cfi_offset 5, -20
 5579              		.cfi_offset 6, -16
 5580              		.cfi_offset 7, -12
 5581              		.cfi_offset 8, -8
 5582              		.cfi_offset 14, -4
 5583 0004 84B0     		sub	sp, sp, #16
 5584              	.LCFI58:
 5585              		.cfi_def_cfa_offset 40
1194:c:/Users/Black_Life/STM32Cube/Repository/STM32Cube_FW_F4_V1.26.2/Middlewares/Third_Party/LwIP/src/core\tcp.c ****   tcpwnd_size_t eff_wnd;
 5586              		.loc 1 1194 3 view .LVU1636
1195:c:/Users/Black_Life/STM32Cube/Repository/STM32Cube_FW_F4_V1.26.2/Middlewares/Third_Party/LwIP/src/core\tcp.c ****   u8_t pcb_remove;      /* flag if a PCB should be removed */
 5587              		.loc 1 1195 3 view .LVU1637
1196:c:/Users/Black_Life/STM32Cube/Repository/STM32Cube_FW_F4_V1.26.2/Middlewares/Third_Party/LwIP/src/core\tcp.c ****   u8_t pcb_reset;       /* flag if a RST should be sent when removing */
 5588              		.loc 1 1196 3 view .LVU1638
1197:c:/Users/Black_Life/STM32Cube/Repository/STM32Cube_FW_F4_V1.26.2/Middlewares/Third_Party/LwIP/src/core\tcp.c ****   err_t err;
 5589              		.loc 1 1197 3 view .LVU1639
1198:c:/Users/Black_Life/STM32Cube/Repository/STM32Cube_FW_F4_V1.26.2/Middlewares/Third_Party/LwIP/src/core\tcp.c **** 
 5590              		.loc 1 1198 3 view .LVU1640
1200:c:/Users/Black_Life/STM32Cube/Repository/STM32Cube_FW_F4_V1.26.2/Middlewares/Third_Party/LwIP/src/core\tcp.c **** 
 5591              		.loc 1 1200 3 view .LVU1641
ARM GAS  C:\Users\BLACK_~1\AppData\Local\Temp\ccRovO0r.s 			page 169


 5592              	.LVL544:
1202:c:/Users/Black_Life/STM32Cube/Repository/STM32Cube_FW_F4_V1.26.2/Middlewares/Third_Party/LwIP/src/core\tcp.c ****   ++tcp_timer_ctr;
 5593              		.loc 1 1202 3 view .LVU1642
 5594 0006 9B4A     		ldr	r2, .L598
 5595 0008 1368     		ldr	r3, [r2]
 5596 000a 0133     		adds	r3, r3, #1
 5597 000c 1360     		str	r3, [r2]
1203:c:/Users/Black_Life/STM32Cube/Repository/STM32Cube_FW_F4_V1.26.2/Middlewares/Third_Party/LwIP/src/core\tcp.c **** 
 5598              		.loc 1 1203 3 view .LVU1643
 5599 000e 9A4A     		ldr	r2, .L598+4
 5600 0010 1378     		ldrb	r3, [r2]	@ zero_extendqisi2
 5601 0012 0133     		adds	r3, r3, #1
 5602 0014 1370     		strb	r3, [r2]
 5603              	.L515:
 5604              	.LVL545:
 5605              	.L514:
1207:c:/Users/Black_Life/STM32Cube/Repository/STM32Cube_FW_F4_V1.26.2/Middlewares/Third_Party/LwIP/src/core\tcp.c ****   pcb = tcp_active_pcbs;
 5606              		.loc 1 1207 3 view .LVU1644
1208:c:/Users/Black_Life/STM32Cube/Repository/STM32Cube_FW_F4_V1.26.2/Middlewares/Third_Party/LwIP/src/core\tcp.c ****   if (pcb == NULL) {
 5607              		.loc 1 1208 3 view .LVU1645
1208:c:/Users/Black_Life/STM32Cube/Repository/STM32Cube_FW_F4_V1.26.2/Middlewares/Third_Party/LwIP/src/core\tcp.c ****   if (pcb == NULL) {
 5608              		.loc 1 1208 7 is_stmt 0 view .LVU1646
 5609 0016 994B     		ldr	r3, .L598+8
 5610 0018 1C68     		ldr	r4, [r3]
 5611              	.LVL546:
1209:c:/Users/Black_Life/STM32Cube/Repository/STM32Cube_FW_F4_V1.26.2/Middlewares/Third_Party/LwIP/src/core\tcp.c ****     LWIP_DEBUGF(TCP_DEBUG, ("tcp_slowtmr: no active pcbs\n"));
 5612              		.loc 1 1209 3 is_stmt 1 view .LVU1647
1210:c:/Users/Black_Life/STM32Cube/Repository/STM32Cube_FW_F4_V1.26.2/Middlewares/Third_Party/LwIP/src/core\tcp.c ****   }
 5613              		.loc 1 1210 62 view .LVU1648
1212:c:/Users/Black_Life/STM32Cube/Repository/STM32Cube_FW_F4_V1.26.2/Middlewares/Third_Party/LwIP/src/core\tcp.c ****     LWIP_DEBUGF(TCP_DEBUG, ("tcp_slowtmr: processing active pcb\n"));
 5614              		.loc 1 1212 3 view .LVU1649
1207:c:/Users/Black_Life/STM32Cube/Repository/STM32Cube_FW_F4_V1.26.2/Middlewares/Third_Party/LwIP/src/core\tcp.c ****   pcb = tcp_active_pcbs;
 5615              		.loc 1 1207 8 is_stmt 0 view .LVU1650
 5616 001a 0026     		movs	r6, #0
1212:c:/Users/Black_Life/STM32Cube/Repository/STM32Cube_FW_F4_V1.26.2/Middlewares/Third_Party/LwIP/src/core\tcp.c ****     LWIP_DEBUGF(TCP_DEBUG, ("tcp_slowtmr: processing active pcb\n"));
 5617              		.loc 1 1212 9 view .LVU1651
 5618 001c 94E1     		b	.L516
 5619              	.LVL547:
 5620              	.L588:
1214:c:/Users/Black_Life/STM32Cube/Repository/STM32Cube_FW_F4_V1.26.2/Middlewares/Third_Party/LwIP/src/core\tcp.c ****     LWIP_ASSERT("tcp_slowtmr: active pcb->state != LISTEN\n", pcb->state != LISTEN);
 5621              		.loc 1 1214 5 is_stmt 1 discriminator 1 view .LVU1652
1214:c:/Users/Black_Life/STM32Cube/Repository/STM32Cube_FW_F4_V1.26.2/Middlewares/Third_Party/LwIP/src/core\tcp.c ****     LWIP_ASSERT("tcp_slowtmr: active pcb->state != LISTEN\n", pcb->state != LISTEN);
 5622              		.loc 1 1214 5 discriminator 1 view .LVU1653
 5623 001e 984B     		ldr	r3, .L598+12
 5624 0020 40F2BE42 		movw	r2, #1214
 5625 0024 9749     		ldr	r1, .L598+16
 5626 0026 9848     		ldr	r0, .L598+20
 5627 0028 FFF7FEFF 		bl	printf
 5628              	.LVL548:
 5629 002c 92E1     		b	.L517
 5630              	.L589:
1215:c:/Users/Black_Life/STM32Cube/Repository/STM32Cube_FW_F4_V1.26.2/Middlewares/Third_Party/LwIP/src/core\tcp.c ****     LWIP_ASSERT("tcp_slowtmr: active pcb->state != TIME-WAIT\n", pcb->state != TIME_WAIT);
 5631              		.loc 1 1215 5 discriminator 1 view .LVU1654
1215:c:/Users/Black_Life/STM32Cube/Repository/STM32Cube_FW_F4_V1.26.2/Middlewares/Third_Party/LwIP/src/core\tcp.c ****     LWIP_ASSERT("tcp_slowtmr: active pcb->state != TIME-WAIT\n", pcb->state != TIME_WAIT);
 5632              		.loc 1 1215 5 discriminator 1 view .LVU1655
 5633 002e 944B     		ldr	r3, .L598+12
 5634 0030 40F2BF42 		movw	r2, #1215
ARM GAS  C:\Users\BLACK_~1\AppData\Local\Temp\ccRovO0r.s 			page 170


 5635 0034 9549     		ldr	r1, .L598+24
 5636 0036 9448     		ldr	r0, .L598+20
 5637 0038 FFF7FEFF 		bl	printf
 5638              	.LVL549:
 5639 003c 8EE1     		b	.L518
 5640              	.L590:
1216:c:/Users/Black_Life/STM32Cube/Repository/STM32Cube_FW_F4_V1.26.2/Middlewares/Third_Party/LwIP/src/core\tcp.c ****     if (pcb->last_timer == tcp_timer_ctr) {
 5641              		.loc 1 1216 5 discriminator 1 view .LVU1656
1216:c:/Users/Black_Life/STM32Cube/Repository/STM32Cube_FW_F4_V1.26.2/Middlewares/Third_Party/LwIP/src/core\tcp.c ****     if (pcb->last_timer == tcp_timer_ctr) {
 5642              		.loc 1 1216 5 discriminator 1 view .LVU1657
 5643 003e 904B     		ldr	r3, .L598+12
 5644 0040 4FF49862 		mov	r2, #1216
 5645 0044 9249     		ldr	r1, .L598+28
 5646 0046 9048     		ldr	r0, .L598+20
 5647 0048 FFF7FEFF 		bl	printf
 5648              	.LVL550:
 5649 004c 8AE1     		b	.L519
 5650              	.L591:
1219:c:/Users/Black_Life/STM32Cube/Repository/STM32Cube_FW_F4_V1.26.2/Middlewares/Third_Party/LwIP/src/core\tcp.c ****       pcb = pcb->next;
 5651              		.loc 1 1219 7 view .LVU1658
 5652              	.LVL551:
1220:c:/Users/Black_Life/STM32Cube/Repository/STM32Cube_FW_F4_V1.26.2/Middlewares/Third_Party/LwIP/src/core\tcp.c ****       continue;
 5653              		.loc 1 1220 7 view .LVU1659
1221:c:/Users/Black_Life/STM32Cube/Repository/STM32Cube_FW_F4_V1.26.2/Middlewares/Third_Party/LwIP/src/core\tcp.c ****     }
 5654              		.loc 1 1221 7 view .LVU1660
1219:c:/Users/Black_Life/STM32Cube/Repository/STM32Cube_FW_F4_V1.26.2/Middlewares/Third_Party/LwIP/src/core\tcp.c ****       pcb = pcb->next;
 5655              		.loc 1 1219 12 is_stmt 0 view .LVU1661
 5656 004e 2646     		mov	r6, r4
1220:c:/Users/Black_Life/STM32Cube/Repository/STM32Cube_FW_F4_V1.26.2/Middlewares/Third_Party/LwIP/src/core\tcp.c ****       continue;
 5657              		.loc 1 1220 11 view .LVU1662
 5658 0050 E468     		ldr	r4, [r4, #12]
 5659              	.LVL552:
1221:c:/Users/Black_Life/STM32Cube/Repository/STM32Cube_FW_F4_V1.26.2/Middlewares/Third_Party/LwIP/src/core\tcp.c ****     }
 5660              		.loc 1 1221 7 view .LVU1663
 5661 0052 79E1     		b	.L516
 5662              	.LVL553:
 5663              	.L592:
1228:c:/Users/Black_Life/STM32Cube/Repository/STM32Cube_FW_F4_V1.26.2/Middlewares/Third_Party/LwIP/src/core\tcp.c ****       ++pcb_remove;
 5664              		.loc 1 1228 38 discriminator 1 view .LVU1664
 5665 0054 94F84230 		ldrb	r3, [r4, #66]	@ zero_extendqisi2
1228:c:/Users/Black_Life/STM32Cube/Repository/STM32Cube_FW_F4_V1.26.2/Middlewares/Third_Party/LwIP/src/core\tcp.c ****       ++pcb_remove;
 5666              		.loc 1 1228 32 discriminator 1 view .LVU1665
 5667 0058 052B     		cmp	r3, #5
 5668 005a 40F28E81 		bls	.L522
1229:c:/Users/Black_Life/STM32Cube/Repository/STM32Cube_FW_F4_V1.26.2/Middlewares/Third_Party/LwIP/src/core\tcp.c ****       LWIP_DEBUGF(TCP_DEBUG, ("tcp_slowtmr: max SYN retries reached\n"));
 5669              		.loc 1 1229 7 view .LVU1666
 5670 005e 0125     		movs	r5, #1
 5671 0060 6FE0     		b	.L523
 5672              	.L593:
1237:c:/Users/Black_Life/STM32Cube/Repository/STM32Cube_FW_F4_V1.26.2/Middlewares/Third_Party/LwIP/src/core\tcp.c ****         if (pcb->persist_probe >= TCP_MAXRTX) {
 5673              		.loc 1 1237 9 is_stmt 1 discriminator 1 view .LVU1667
1237:c:/Users/Black_Life/STM32Cube/Repository/STM32Cube_FW_F4_V1.26.2/Middlewares/Third_Party/LwIP/src/core\tcp.c ****         if (pcb->persist_probe >= TCP_MAXRTX) {
 5674              		.loc 1 1237 9 discriminator 1 view .LVU1668
 5675 0062 874B     		ldr	r3, .L598+12
 5676 0064 40F2D542 		movw	r2, #1237
 5677 0068 8A49     		ldr	r1, .L598+32
 5678 006a 8748     		ldr	r0, .L598+20
ARM GAS  C:\Users\BLACK_~1\AppData\Local\Temp\ccRovO0r.s 			page 171


 5679 006c FFF7FEFF 		bl	printf
 5680              	.LVL554:
 5681 0070 9AE1     		b	.L526
 5682              	.LVL555:
 5683              	.L528:
 5684              	.LBB30:
 5685              	.LBB31:
1254:c:/Users/Black_Life/STM32Cube/Repository/STM32Cube_FW_F4_V1.26.2/Middlewares/Third_Party/LwIP/src/core\tcp.c ****                 if (tcp_output(pcb) == ERR_OK) {
 5686              		.loc 1 1254 15 view .LVU1669
1254:c:/Users/Black_Life/STM32Cube/Repository/STM32Cube_FW_F4_V1.26.2/Middlewares/Third_Party/LwIP/src/core\tcp.c ****                 if (tcp_output(pcb) == ERR_OK) {
 5687              		.loc 1 1254 19 is_stmt 0 view .LVU1670
 5688 0072 2046     		mov	r0, r4
 5689 0074 FFF7FEFF 		bl	tcp_split_unsent_seg
 5690              	.LVL556:
1254:c:/Users/Black_Life/STM32Cube/Repository/STM32Cube_FW_F4_V1.26.2/Middlewares/Third_Party/LwIP/src/core\tcp.c ****                 if (tcp_output(pcb) == ERR_OK) {
 5691              		.loc 1 1254 18 view .LVU1671
 5692 0078 60B1     		cbz	r0, .L577
 5693              	.L529:
 5694              	.LVL557:
1262:c:/Users/Black_Life/STM32Cube/Repository/STM32Cube_FW_F4_V1.26.2/Middlewares/Third_Party/LwIP/src/core\tcp.c ****               if (pcb->persist_backoff < sizeof(tcp_persist_backoff)) {
 5695              		.loc 1 1262 15 is_stmt 1 view .LVU1672
1262:c:/Users/Black_Life/STM32Cube/Repository/STM32Cube_FW_F4_V1.26.2/Middlewares/Third_Party/LwIP/src/core\tcp.c ****               if (pcb->persist_backoff < sizeof(tcp_persist_backoff)) {
 5696              		.loc 1 1262 32 is_stmt 0 view .LVU1673
 5697 007a 0023     		movs	r3, #0
 5698 007c 84F89830 		strb	r3, [r4, #152]
1263:c:/Users/Black_Life/STM32Cube/Repository/STM32Cube_FW_F4_V1.26.2/Middlewares/Third_Party/LwIP/src/core\tcp.c ****                 pcb->persist_backoff++;
 5699              		.loc 1 1263 15 is_stmt 1 view .LVU1674
1263:c:/Users/Black_Life/STM32Cube/Repository/STM32Cube_FW_F4_V1.26.2/Middlewares/Third_Party/LwIP/src/core\tcp.c ****                 pcb->persist_backoff++;
 5700              		.loc 1 1263 22 is_stmt 0 view .LVU1675
 5701 0080 94F89930 		ldrb	r3, [r4, #153]	@ zero_extendqisi2
1263:c:/Users/Black_Life/STM32Cube/Repository/STM32Cube_FW_F4_V1.26.2/Middlewares/Third_Party/LwIP/src/core\tcp.c ****                 pcb->persist_backoff++;
 5702              		.loc 1 1263 18 view .LVU1676
 5703 0084 062B     		cmp	r3, #6
 5704 0086 00F2A180 		bhi	.L567
1264:c:/Users/Black_Life/STM32Cube/Repository/STM32Cube_FW_F4_V1.26.2/Middlewares/Third_Party/LwIP/src/core\tcp.c ****               }
 5705              		.loc 1 1264 17 is_stmt 1 view .LVU1677
1264:c:/Users/Black_Life/STM32Cube/Repository/STM32Cube_FW_F4_V1.26.2/Middlewares/Third_Party/LwIP/src/core\tcp.c ****               }
 5706              		.loc 1 1264 37 is_stmt 0 view .LVU1678
 5707 008a 0133     		adds	r3, r3, #1
 5708 008c 84F89930 		strb	r3, [r4, #153]
 5709              	.LBE31:
 5710              	.LBE30:
1225:c:/Users/Black_Life/STM32Cube/Repository/STM32Cube_FW_F4_V1.26.2/Middlewares/Third_Party/LwIP/src/core\tcp.c ****     pcb_reset = 0;
 5711              		.loc 1 1225 16 view .LVU1679
 5712 0090 0025     		movs	r5, #0
 5713 0092 56E0     		b	.L523
 5714              	.LVL558:
 5715              	.L577:
 5716              	.LBB34:
 5717              	.LBB32:
1255:c:/Users/Black_Life/STM32Cube/Repository/STM32Cube_FW_F4_V1.26.2/Middlewares/Third_Party/LwIP/src/core\tcp.c ****                   /* sending will cancel persist timer, else retry with current slot */
 5718              		.loc 1 1255 17 is_stmt 1 view .LVU1680
1255:c:/Users/Black_Life/STM32Cube/Repository/STM32Cube_FW_F4_V1.26.2/Middlewares/Third_Party/LwIP/src/core\tcp.c ****                   /* sending will cancel persist timer, else retry with current slot */
 5719              		.loc 1 1255 21 is_stmt 0 view .LVU1681
 5720 0094 2046     		mov	r0, r4
 5721 0096 FFF7FEFF 		bl	tcp_output
 5722              	.LVL559:
ARM GAS  C:\Users\BLACK_~1\AppData\Local\Temp\ccRovO0r.s 			page 172


1255:c:/Users/Black_Life/STM32Cube/Repository/STM32Cube_FW_F4_V1.26.2/Middlewares/Third_Party/LwIP/src/core\tcp.c ****                   /* sending will cancel persist timer, else retry with current slot */
 5723              		.loc 1 1255 20 view .LVU1682
 5724 009a 0028     		cmp	r0, #0
 5725 009c EDD1     		bne	.L529
 5726              	.LBE32:
 5727              	.LBE34:
1225:c:/Users/Black_Life/STM32Cube/Repository/STM32Cube_FW_F4_V1.26.2/Middlewares/Third_Party/LwIP/src/core\tcp.c ****     pcb_reset = 0;
 5728              		.loc 1 1225 16 view .LVU1683
 5729 009e 0025     		movs	r5, #0
 5730 00a0 4FE0     		b	.L523
 5731              	.LVL560:
 5732              	.L524:
1271:c:/Users/Black_Life/STM32Cube/Repository/STM32Cube_FW_F4_V1.26.2/Middlewares/Third_Party/LwIP/src/core\tcp.c ****           ++pcb->rtime;
 5733              		.loc 1 1271 9 is_stmt 1 view .LVU1684
1271:c:/Users/Black_Life/STM32Cube/Repository/STM32Cube_FW_F4_V1.26.2/Middlewares/Third_Party/LwIP/src/core\tcp.c ****           ++pcb->rtime;
 5734              		.loc 1 1271 17 is_stmt 0 view .LVU1685
 5735 00a2 B4F93030 		ldrsh	r3, [r4, #48]
1271:c:/Users/Black_Life/STM32Cube/Repository/STM32Cube_FW_F4_V1.26.2/Middlewares/Third_Party/LwIP/src/core\tcp.c ****           ++pcb->rtime;
 5736              		.loc 1 1271 31 view .LVU1686
 5737 00a6 9BB2     		uxth	r3, r3
1271:c:/Users/Black_Life/STM32Cube/Repository/STM32Cube_FW_F4_V1.26.2/Middlewares/Third_Party/LwIP/src/core\tcp.c ****           ++pcb->rtime;
 5738              		.loc 1 1271 12 view .LVU1687
 5739 00a8 47F6FE72 		movw	r2, #32766
 5740 00ac 9342     		cmp	r3, r2
 5741 00ae 01D8     		bhi	.L530
1272:c:/Users/Black_Life/STM32Cube/Repository/STM32Cube_FW_F4_V1.26.2/Middlewares/Third_Party/LwIP/src/core\tcp.c ****         }
 5742              		.loc 1 1272 11 is_stmt 1 view .LVU1688
 5743 00b0 0133     		adds	r3, r3, #1
 5744 00b2 2386     		strh	r3, [r4, #48]	@ movhi
 5745              	.L530:
1275:c:/Users/Black_Life/STM32Cube/Repository/STM32Cube_FW_F4_V1.26.2/Middlewares/Third_Party/LwIP/src/core\tcp.c ****           /* Time for a retransmission. */
 5746              		.loc 1 1275 9 view .LVU1689
1275:c:/Users/Black_Life/STM32Cube/Repository/STM32Cube_FW_F4_V1.26.2/Middlewares/Third_Party/LwIP/src/core\tcp.c ****           /* Time for a retransmission. */
 5747              		.loc 1 1275 16 is_stmt 0 view .LVU1690
 5748 00b4 B4F93020 		ldrsh	r2, [r4, #48]
1275:c:/Users/Black_Life/STM32Cube/Repository/STM32Cube_FW_F4_V1.26.2/Middlewares/Third_Party/LwIP/src/core\tcp.c ****           /* Time for a retransmission. */
 5749              		.loc 1 1275 30 view .LVU1691
 5750 00b8 B4F94030 		ldrsh	r3, [r4, #64]
1275:c:/Users/Black_Life/STM32Cube/Repository/STM32Cube_FW_F4_V1.26.2/Middlewares/Third_Party/LwIP/src/core\tcp.c ****           /* Time for a retransmission. */
 5751              		.loc 1 1275 12 view .LVU1692
 5752 00bc 9A42     		cmp	r2, r3
 5753 00be 40DB     		blt	.L523
1279:c:/Users/Black_Life/STM32Cube/Repository/STM32Cube_FW_F4_V1.26.2/Middlewares/Third_Party/LwIP/src/core\tcp.c ****           /* If prepare phase fails but we have unsent data but no unacked data,
 5754              		.loc 1 1279 61 is_stmt 1 view .LVU1693
1283:c:/Users/Black_Life/STM32Cube/Repository/STM32Cube_FW_F4_V1.26.2/Middlewares/Third_Party/LwIP/src/core\tcp.c ****             /* Double retransmission time-out unless we are trying to
 5755              		.loc 1 1283 11 view .LVU1694
1283:c:/Users/Black_Life/STM32Cube/Repository/STM32Cube_FW_F4_V1.26.2/Middlewares/Third_Party/LwIP/src/core\tcp.c ****             /* Double retransmission time-out unless we are trying to
 5756              		.loc 1 1283 16 is_stmt 0 view .LVU1695
 5757 00c0 2046     		mov	r0, r4
 5758 00c2 FFF7FEFF 		bl	tcp_rexmit_rto_prepare
 5759              	.LVL561:
1283:c:/Users/Black_Life/STM32Cube/Repository/STM32Cube_FW_F4_V1.26.2/Middlewares/Third_Party/LwIP/src/core\tcp.c ****             /* Double retransmission time-out unless we are trying to
 5760              		.loc 1 1283 14 view .LVU1696
 5761 00c6 20B1     		cbz	r0, .L531
1283:c:/Users/Black_Life/STM32Cube/Repository/STM32Cube_FW_F4_V1.26.2/Middlewares/Third_Party/LwIP/src/core\tcp.c ****             /* Double retransmission time-out unless we are trying to
 5762              		.loc 1 1283 63 discriminator 1 view .LVU1697
 5763 00c8 236F     		ldr	r3, [r4, #112]
ARM GAS  C:\Users\BLACK_~1\AppData\Local\Temp\ccRovO0r.s 			page 173


1283:c:/Users/Black_Life/STM32Cube/Repository/STM32Cube_FW_F4_V1.26.2/Middlewares/Third_Party/LwIP/src/core\tcp.c ****             /* Double retransmission time-out unless we are trying to
 5764              		.loc 1 1283 55 discriminator 1 view .LVU1698
 5765 00ca 002B     		cmp	r3, #0
 5766 00cc 39D1     		bne	.L523
1283:c:/Users/Black_Life/STM32Cube/Repository/STM32Cube_FW_F4_V1.26.2/Middlewares/Third_Party/LwIP/src/core\tcp.c ****             /* Double retransmission time-out unless we are trying to
 5767              		.loc 1 1283 89 discriminator 2 view .LVU1699
 5768 00ce E36E     		ldr	r3, [r4, #108]
1283:c:/Users/Black_Life/STM32Cube/Repository/STM32Cube_FW_F4_V1.26.2/Middlewares/Third_Party/LwIP/src/core\tcp.c ****             /* Double retransmission time-out unless we are trying to
 5769              		.loc 1 1283 82 discriminator 2 view .LVU1700
 5770 00d0 BBB3     		cbz	r3, .L523
 5771              	.L531:
1286:c:/Users/Black_Life/STM32Cube/Repository/STM32Cube_FW_F4_V1.26.2/Middlewares/Third_Party/LwIP/src/core\tcp.c ****               u8_t backoff_idx = LWIP_MIN(pcb->nrtx, sizeof(tcp_backoff) - 1);
 5772              		.loc 1 1286 13 is_stmt 1 view .LVU1701
1286:c:/Users/Black_Life/STM32Cube/Repository/STM32Cube_FW_F4_V1.26.2/Middlewares/Third_Party/LwIP/src/core\tcp.c ****               u8_t backoff_idx = LWIP_MIN(pcb->nrtx, sizeof(tcp_backoff) - 1);
 5773              		.loc 1 1286 20 is_stmt 0 view .LVU1702
 5774 00d2 237D     		ldrb	r3, [r4, #20]	@ zero_extendqisi2
1286:c:/Users/Black_Life/STM32Cube/Repository/STM32Cube_FW_F4_V1.26.2/Middlewares/Third_Party/LwIP/src/core\tcp.c ****               u8_t backoff_idx = LWIP_MIN(pcb->nrtx, sizeof(tcp_backoff) - 1);
 5775              		.loc 1 1286 16 view .LVU1703
 5776 00d4 022B     		cmp	r3, #2
 5777 00d6 14D0     		beq	.L532
 5778              	.LBB35:
1287:c:/Users/Black_Life/STM32Cube/Repository/STM32Cube_FW_F4_V1.26.2/Middlewares/Third_Party/LwIP/src/core\tcp.c ****               int calc_rto = ((pcb->sa >> 3) + pcb->sv) << tcp_backoff[backoff_idx];
 5779              		.loc 1 1287 15 is_stmt 1 view .LVU1704
1287:c:/Users/Black_Life/STM32Cube/Repository/STM32Cube_FW_F4_V1.26.2/Middlewares/Third_Party/LwIP/src/core\tcp.c ****               int calc_rto = ((pcb->sa >> 3) + pcb->sv) << tcp_backoff[backoff_idx];
 5780              		.loc 1 1287 34 is_stmt 0 view .LVU1705
 5781 00d8 94F84220 		ldrb	r2, [r4, #66]	@ zero_extendqisi2
1287:c:/Users/Black_Life/STM32Cube/Repository/STM32Cube_FW_F4_V1.26.2/Middlewares/Third_Party/LwIP/src/core\tcp.c ****               int calc_rto = ((pcb->sa >> 3) + pcb->sv) << tcp_backoff[backoff_idx];
 5782              		.loc 1 1287 20 view .LVU1706
 5783 00dc 0C2A     		cmp	r2, #12
 5784 00de 28BF     		it	cs
 5785 00e0 0C22     		movcs	r2, #12
 5786              	.LVL562:
1288:c:/Users/Black_Life/STM32Cube/Repository/STM32Cube_FW_F4_V1.26.2/Middlewares/Third_Party/LwIP/src/core\tcp.c ****               pcb->rto = (s16_t)LWIP_MIN(calc_rto, 0x7FFF);
 5787              		.loc 1 1288 15 is_stmt 1 view .LVU1707
1288:c:/Users/Black_Life/STM32Cube/Repository/STM32Cube_FW_F4_V1.26.2/Middlewares/Third_Party/LwIP/src/core\tcp.c ****               pcb->rto = (s16_t)LWIP_MIN(calc_rto, 0x7FFF);
 5788              		.loc 1 1288 35 is_stmt 0 view .LVU1708
 5789 00e2 B4F93C10 		ldrsh	r1, [r4, #60]
1288:c:/Users/Black_Life/STM32Cube/Repository/STM32Cube_FW_F4_V1.26.2/Middlewares/Third_Party/LwIP/src/core\tcp.c ****               pcb->rto = (s16_t)LWIP_MIN(calc_rto, 0x7FFF);
 5790              		.loc 1 1288 51 view .LVU1709
 5791 00e6 B4F93E30 		ldrsh	r3, [r4, #62]
1288:c:/Users/Black_Life/STM32Cube/Repository/STM32Cube_FW_F4_V1.26.2/Middlewares/Third_Party/LwIP/src/core\tcp.c ****               pcb->rto = (s16_t)LWIP_MIN(calc_rto, 0x7FFF);
 5792              		.loc 1 1288 46 view .LVU1710
 5793 00ea 03EBE103 		add	r3, r3, r1, asr #3
1288:c:/Users/Black_Life/STM32Cube/Repository/STM32Cube_FW_F4_V1.26.2/Middlewares/Third_Party/LwIP/src/core\tcp.c ****               pcb->rto = (s16_t)LWIP_MIN(calc_rto, 0x7FFF);
 5794              		.loc 1 1288 71 view .LVU1711
 5795 00ee 6A49     		ldr	r1, .L598+36
 5796 00f0 8A5C     		ldrb	r2, [r1, r2]	@ zero_extendqisi2
 5797              	.LVL563:
1288:c:/Users/Black_Life/STM32Cube/Repository/STM32Cube_FW_F4_V1.26.2/Middlewares/Third_Party/LwIP/src/core\tcp.c ****               pcb->rto = (s16_t)LWIP_MIN(calc_rto, 0x7FFF);
 5798              		.loc 1 1288 19 view .LVU1712
 5799 00f2 9340     		lsls	r3, r3, r2
 5800              	.LVL564:
1289:c:/Users/Black_Life/STM32Cube/Repository/STM32Cube_FW_F4_V1.26.2/Middlewares/Third_Party/LwIP/src/core\tcp.c ****             }
 5801              		.loc 1 1289 15 is_stmt 1 view .LVU1713
1289:c:/Users/Black_Life/STM32Cube/Repository/STM32Cube_FW_F4_V1.26.2/Middlewares/Third_Party/LwIP/src/core\tcp.c ****             }
 5802              		.loc 1 1289 26 is_stmt 0 view .LVU1714
 5803 00f4 47F6FE72 		movw	r2, #32766
ARM GAS  C:\Users\BLACK_~1\AppData\Local\Temp\ccRovO0r.s 			page 174


 5804 00f8 9342     		cmp	r3, r2
 5805              	.LVL565:
1289:c:/Users/Black_Life/STM32Cube/Repository/STM32Cube_FW_F4_V1.26.2/Middlewares/Third_Party/LwIP/src/core\tcp.c ****             }
 5806              		.loc 1 1289 26 view .LVU1715
 5807 00fa 1EDC     		bgt	.L568
1289:c:/Users/Black_Life/STM32Cube/Repository/STM32Cube_FW_F4_V1.26.2/Middlewares/Third_Party/LwIP/src/core\tcp.c ****             }
 5808              		.loc 1 1289 26 discriminator 1 view .LVU1716
 5809 00fc 1BB2     		sxth	r3, r3
 5810              	.LVL566:
 5811              	.L533:
1289:c:/Users/Black_Life/STM32Cube/Repository/STM32Cube_FW_F4_V1.26.2/Middlewares/Third_Party/LwIP/src/core\tcp.c ****             }
 5812              		.loc 1 1289 24 discriminator 4 view .LVU1717
 5813 00fe A4F84030 		strh	r3, [r4, #64]	@ movhi
 5814              	.LVL567:
 5815              	.L532:
1289:c:/Users/Black_Life/STM32Cube/Repository/STM32Cube_FW_F4_V1.26.2/Middlewares/Third_Party/LwIP/src/core\tcp.c ****             }
 5816              		.loc 1 1289 24 discriminator 4 view .LVU1718
 5817              	.LBE35:
1293:c:/Users/Black_Life/STM32Cube/Repository/STM32Cube_FW_F4_V1.26.2/Middlewares/Third_Party/LwIP/src/core\tcp.c **** 
 5818              		.loc 1 1293 13 is_stmt 1 view .LVU1719
1293:c:/Users/Black_Life/STM32Cube/Repository/STM32Cube_FW_F4_V1.26.2/Middlewares/Third_Party/LwIP/src/core\tcp.c **** 
 5819              		.loc 1 1293 24 is_stmt 0 view .LVU1720
 5820 0102 0023     		movs	r3, #0
 5821 0104 2386     		strh	r3, [r4, #48]	@ movhi
1296:c:/Users/Black_Life/STM32Cube/Repository/STM32Cube_FW_F4_V1.26.2/Middlewares/Third_Party/LwIP/src/core\tcp.c ****             pcb->ssthresh = eff_wnd >> 1;
 5822              		.loc 1 1296 13 is_stmt 1 view .LVU1721
1296:c:/Users/Black_Life/STM32Cube/Repository/STM32Cube_FW_F4_V1.26.2/Middlewares/Third_Party/LwIP/src/core\tcp.c ****             pcb->ssthresh = eff_wnd >> 1;
 5823              		.loc 1 1296 23 is_stmt 0 view .LVU1722
 5824 0106 B4F86030 		ldrh	r3, [r4, #96]
 5825 010a B4F84820 		ldrh	r2, [r4, #72]
1296:c:/Users/Black_Life/STM32Cube/Repository/STM32Cube_FW_F4_V1.26.2/Middlewares/Third_Party/LwIP/src/core\tcp.c ****             pcb->ssthresh = eff_wnd >> 1;
 5826              		.loc 1 1296 21 view .LVU1723
 5827 010e 9342     		cmp	r3, r2
 5828 0110 28BF     		it	cs
 5829 0112 1346     		movcs	r3, r2
 5830              	.LVL568:
1297:c:/Users/Black_Life/STM32Cube/Repository/STM32Cube_FW_F4_V1.26.2/Middlewares/Third_Party/LwIP/src/core\tcp.c ****             if (pcb->ssthresh < (tcpwnd_size_t)(pcb->mss << 1)) {
 5831              		.loc 1 1297 13 is_stmt 1 view .LVU1724
1297:c:/Users/Black_Life/STM32Cube/Repository/STM32Cube_FW_F4_V1.26.2/Middlewares/Third_Party/LwIP/src/core\tcp.c ****             if (pcb->ssthresh < (tcpwnd_size_t)(pcb->mss << 1)) {
 5832              		.loc 1 1297 27 is_stmt 0 view .LVU1725
 5833 0114 5B08     		lsrs	r3, r3, #1
 5834              	.LVL569:
1297:c:/Users/Black_Life/STM32Cube/Repository/STM32Cube_FW_F4_V1.26.2/Middlewares/Third_Party/LwIP/src/core\tcp.c ****             if (pcb->ssthresh < (tcpwnd_size_t)(pcb->mss << 1)) {
 5835              		.loc 1 1297 27 view .LVU1726
 5836 0116 A4F84A30 		strh	r3, [r4, #74]	@ movhi
1298:c:/Users/Black_Life/STM32Cube/Repository/STM32Cube_FW_F4_V1.26.2/Middlewares/Third_Party/LwIP/src/core\tcp.c ****               pcb->ssthresh = (tcpwnd_size_t)(pcb->mss << 1);
 5837              		.loc 1 1298 13 is_stmt 1 view .LVU1727
1298:c:/Users/Black_Life/STM32Cube/Repository/STM32Cube_FW_F4_V1.26.2/Middlewares/Third_Party/LwIP/src/core\tcp.c ****               pcb->ssthresh = (tcpwnd_size_t)(pcb->mss << 1);
 5838              		.loc 1 1298 52 is_stmt 0 view .LVU1728
 5839 011a 618E     		ldrh	r1, [r4, #50]
1298:c:/Users/Black_Life/STM32Cube/Repository/STM32Cube_FW_F4_V1.26.2/Middlewares/Third_Party/LwIP/src/core\tcp.c ****               pcb->ssthresh = (tcpwnd_size_t)(pcb->mss << 1);
 5840              		.loc 1 1298 33 view .LVU1729
 5841 011c 4A00     		lsls	r2, r1, #1
 5842              	.LVL570:
1298:c:/Users/Black_Life/STM32Cube/Repository/STM32Cube_FW_F4_V1.26.2/Middlewares/Third_Party/LwIP/src/core\tcp.c ****               pcb->ssthresh = (tcpwnd_size_t)(pcb->mss << 1);
 5843              		.loc 1 1298 33 view .LVU1730
 5844 011e 92B2     		uxth	r2, r2
ARM GAS  C:\Users\BLACK_~1\AppData\Local\Temp\ccRovO0r.s 			page 175


1298:c:/Users/Black_Life/STM32Cube/Repository/STM32Cube_FW_F4_V1.26.2/Middlewares/Third_Party/LwIP/src/core\tcp.c ****               pcb->ssthresh = (tcpwnd_size_t)(pcb->mss << 1);
 5845              		.loc 1 1298 16 view .LVU1731
 5846 0120 9342     		cmp	r3, r2
 5847              	.LVL571:
1298:c:/Users/Black_Life/STM32Cube/Repository/STM32Cube_FW_F4_V1.26.2/Middlewares/Third_Party/LwIP/src/core\tcp.c ****               pcb->ssthresh = (tcpwnd_size_t)(pcb->mss << 1);
 5848              		.loc 1 1298 16 view .LVU1732
 5849 0122 01D2     		bcs	.L534
1299:c:/Users/Black_Life/STM32Cube/Repository/STM32Cube_FW_F4_V1.26.2/Middlewares/Third_Party/LwIP/src/core\tcp.c ****             }
 5850              		.loc 1 1299 15 is_stmt 1 view .LVU1733
1299:c:/Users/Black_Life/STM32Cube/Repository/STM32Cube_FW_F4_V1.26.2/Middlewares/Third_Party/LwIP/src/core\tcp.c ****             }
 5851              		.loc 1 1299 29 is_stmt 0 view .LVU1734
 5852 0124 A4F84A20 		strh	r2, [r4, #74]	@ movhi
 5853              	.L534:
1301:c:/Users/Black_Life/STM32Cube/Repository/STM32Cube_FW_F4_V1.26.2/Middlewares/Third_Party/LwIP/src/core\tcp.c ****             LWIP_DEBUGF(TCP_CWND_DEBUG, ("tcp_slowtmr: cwnd %"TCPWNDSIZE_F
 5854              		.loc 1 1301 13 is_stmt 1 view .LVU1735
1301:c:/Users/Black_Life/STM32Cube/Repository/STM32Cube_FW_F4_V1.26.2/Middlewares/Third_Party/LwIP/src/core\tcp.c ****             LWIP_DEBUGF(TCP_CWND_DEBUG, ("tcp_slowtmr: cwnd %"TCPWNDSIZE_F
 5855              		.loc 1 1301 23 is_stmt 0 view .LVU1736
 5856 0128 A4F84810 		strh	r1, [r4, #72]	@ movhi
 5857              	.LVL572:
1304:c:/Users/Black_Life/STM32Cube/Repository/STM32Cube_FW_F4_V1.26.2/Middlewares/Third_Party/LwIP/src/core\tcp.c ****             pcb->bytes_acked = 0;
 5858              		.loc 1 1304 68 is_stmt 1 view .LVU1737
1305:c:/Users/Black_Life/STM32Cube/Repository/STM32Cube_FW_F4_V1.26.2/Middlewares/Third_Party/LwIP/src/core\tcp.c **** 
 5859              		.loc 1 1305 13 view .LVU1738
1305:c:/Users/Black_Life/STM32Cube/Repository/STM32Cube_FW_F4_V1.26.2/Middlewares/Third_Party/LwIP/src/core\tcp.c **** 
 5860              		.loc 1 1305 30 is_stmt 0 view .LVU1739
 5861 012c 0023     		movs	r3, #0
 5862 012e A4F86A30 		strh	r3, [r4, #106]	@ movhi
1309:c:/Users/Black_Life/STM32Cube/Repository/STM32Cube_FW_F4_V1.26.2/Middlewares/Third_Party/LwIP/src/core\tcp.c ****           }
 5863              		.loc 1 1309 13 is_stmt 1 view .LVU1740
 5864 0132 2046     		mov	r0, r4
 5865 0134 FFF7FEFF 		bl	tcp_rexmit_rto_commit
 5866              	.LVL573:
1309:c:/Users/Black_Life/STM32Cube/Repository/STM32Cube_FW_F4_V1.26.2/Middlewares/Third_Party/LwIP/src/core\tcp.c ****           }
 5867              		.loc 1 1309 13 is_stmt 0 view .LVU1741
 5868 0138 03E0     		b	.L523
 5869              	.LVL574:
 5870              	.L568:
 5871              	.LBB36:
1289:c:/Users/Black_Life/STM32Cube/Repository/STM32Cube_FW_F4_V1.26.2/Middlewares/Third_Party/LwIP/src/core\tcp.c ****             }
 5872              		.loc 1 1289 26 view .LVU1742
 5873 013a 47F6FF73 		movw	r3, #32767
 5874              	.LVL575:
1289:c:/Users/Black_Life/STM32Cube/Repository/STM32Cube_FW_F4_V1.26.2/Middlewares/Third_Party/LwIP/src/core\tcp.c ****             }
 5875              		.loc 1 1289 26 view .LVU1743
 5876 013e DEE7     		b	.L533
 5877              	.LVL576:
 5878              	.L562:
1289:c:/Users/Black_Life/STM32Cube/Repository/STM32Cube_FW_F4_V1.26.2/Middlewares/Third_Party/LwIP/src/core\tcp.c ****             }
 5879              		.loc 1 1289 26 view .LVU1744
 5880              	.LBE36:
1232:c:/Users/Black_Life/STM32Cube/Repository/STM32Cube_FW_F4_V1.26.2/Middlewares/Third_Party/LwIP/src/core\tcp.c ****       LWIP_DEBUGF(TCP_DEBUG, ("tcp_slowtmr: max DATA retries reached\n"));
 5881              		.loc 1 1232 7 view .LVU1745
 5882 0140 0125     		movs	r5, #1
 5883              	.L523:
 5884              	.LVL577:
1315:c:/Users/Black_Life/STM32Cube/Repository/STM32Cube_FW_F4_V1.26.2/Middlewares/Third_Party/LwIP/src/core\tcp.c ****       /* If this PCB is in FIN_WAIT_2 because of SHUT_WR don't let it time out. */
 5885              		.loc 1 1315 5 is_stmt 1 view .LVU1746
ARM GAS  C:\Users\BLACK_~1\AppData\Local\Temp\ccRovO0r.s 			page 176


1315:c:/Users/Black_Life/STM32Cube/Repository/STM32Cube_FW_F4_V1.26.2/Middlewares/Third_Party/LwIP/src/core\tcp.c ****       /* If this PCB is in FIN_WAIT_2 because of SHUT_WR don't let it time out. */
 5886              		.loc 1 1315 12 is_stmt 0 view .LVU1747
 5887 0142 227D     		ldrb	r2, [r4, #20]	@ zero_extendqisi2
1315:c:/Users/Black_Life/STM32Cube/Repository/STM32Cube_FW_F4_V1.26.2/Middlewares/Third_Party/LwIP/src/core\tcp.c ****       /* If this PCB is in FIN_WAIT_2 because of SHUT_WR don't let it time out. */
 5888              		.loc 1 1315 8 view .LVU1748
 5889 0144 062A     		cmp	r2, #6
 5890 0146 43D0     		beq	.L578
 5891              	.L535:
1323:c:/Users/Black_Life/STM32Cube/Repository/STM32Cube_FW_F4_V1.26.2/Middlewares/Third_Party/LwIP/src/core\tcp.c ****         }
 5892              		.loc 1 1323 86 is_stmt 1 view .LVU1749
1329:c:/Users/Black_Life/STM32Cube/Repository/STM32Cube_FW_F4_V1.26.2/Middlewares/Third_Party/LwIP/src/core\tcp.c ****         ((pcb->state == ESTABLISHED) ||
 5893              		.loc 1 1329 5 view .LVU1750
1329:c:/Users/Black_Life/STM32Cube/Repository/STM32Cube_FW_F4_V1.26.2/Middlewares/Third_Party/LwIP/src/core\tcp.c ****         ((pcb->state == ESTABLISHED) ||
 5894              		.loc 1 1329 9 is_stmt 0 view .LVU1751
 5895 0148 637A     		ldrb	r3, [r4, #9]	@ zero_extendqisi2
1329:c:/Users/Black_Life/STM32Cube/Repository/STM32Cube_FW_F4_V1.26.2/Middlewares/Third_Party/LwIP/src/core\tcp.c ****         ((pcb->state == ESTABLISHED) ||
 5896              		.loc 1 1329 8 view .LVU1752
 5897 014a 13F00807 		ands	r7, r3, #8
 5898 014e 04D0     		beq	.L536
1329:c:/Users/Black_Life/STM32Cube/Repository/STM32Cube_FW_F4_V1.26.2/Middlewares/Third_Party/LwIP/src/core\tcp.c ****         ((pcb->state == ESTABLISHED) ||
 5899              		.loc 1 1329 43 discriminator 1 view .LVU1753
 5900 0150 042A     		cmp	r2, #4
 5901 0152 4AD0     		beq	.L537
1330:c:/Users/Black_Life/STM32Cube/Repository/STM32Cube_FW_F4_V1.26.2/Middlewares/Third_Party/LwIP/src/core\tcp.c ****          (pcb->state == CLOSE_WAIT))) {
 5902              		.loc 1 1330 38 view .LVU1754
 5903 0154 072A     		cmp	r2, #7
 5904 0156 48D0     		beq	.L537
1226:c:/Users/Black_Life/STM32Cube/Repository/STM32Cube_FW_F4_V1.26.2/Middlewares/Third_Party/LwIP/src/core\tcp.c **** 
 5905              		.loc 1 1226 15 view .LVU1755
 5906 0158 0027     		movs	r7, #0
 5907              	.LVL578:
 5908              	.L536:
1354:c:/Users/Black_Life/STM32Cube/Repository/STM32Cube_FW_F4_V1.26.2/Middlewares/Third_Party/LwIP/src/core\tcp.c ****         (tcp_ticks - pcb->tmr >= (u32_t)pcb->rto * TCP_OOSEQ_TIMEOUT)) {
 5909              		.loc 1 1354 5 is_stmt 1 view .LVU1756
1354:c:/Users/Black_Life/STM32Cube/Repository/STM32Cube_FW_F4_V1.26.2/Middlewares/Third_Party/LwIP/src/core\tcp.c ****         (tcp_ticks - pcb->tmr >= (u32_t)pcb->rto * TCP_OOSEQ_TIMEOUT)) {
 5910              		.loc 1 1354 12 is_stmt 0 view .LVU1757
 5911 015a 636F     		ldr	r3, [r4, #116]
1354:c:/Users/Black_Life/STM32Cube/Repository/STM32Cube_FW_F4_V1.26.2/Middlewares/Third_Party/LwIP/src/core\tcp.c ****         (tcp_ticks - pcb->tmr >= (u32_t)pcb->rto * TCP_OOSEQ_TIMEOUT)) {
 5912              		.loc 1 1354 8 view .LVU1758
 5913 015c 53B1     		cbz	r3, .L539
1355:c:/Users/Black_Life/STM32Cube/Repository/STM32Cube_FW_F4_V1.26.2/Middlewares/Third_Party/LwIP/src/core\tcp.c ****       LWIP_DEBUGF(TCP_CWND_DEBUG, ("tcp_slowtmr: dropping OOSEQ queued data\n"));
 5914              		.loc 1 1355 25 discriminator 1 view .LVU1759
 5915 015e 236A     		ldr	r3, [r4, #32]
1355:c:/Users/Black_Life/STM32Cube/Repository/STM32Cube_FW_F4_V1.26.2/Middlewares/Third_Party/LwIP/src/core\tcp.c ****       LWIP_DEBUGF(TCP_CWND_DEBUG, ("tcp_slowtmr: dropping OOSEQ queued data\n"));
 5916              		.loc 1 1355 20 discriminator 1 view .LVU1760
 5917 0160 444A     		ldr	r2, .L598
 5918 0162 1268     		ldr	r2, [r2]
 5919 0164 D21A     		subs	r2, r2, r3
1355:c:/Users/Black_Life/STM32Cube/Repository/STM32Cube_FW_F4_V1.26.2/Middlewares/Third_Party/LwIP/src/core\tcp.c ****       LWIP_DEBUGF(TCP_CWND_DEBUG, ("tcp_slowtmr: dropping OOSEQ queued data\n"));
 5920              		.loc 1 1355 44 discriminator 1 view .LVU1761
 5921 0166 B4F94030 		ldrsh	r3, [r4, #64]
1355:c:/Users/Black_Life/STM32Cube/Repository/STM32Cube_FW_F4_V1.26.2/Middlewares/Third_Party/LwIP/src/core\tcp.c ****       LWIP_DEBUGF(TCP_CWND_DEBUG, ("tcp_slowtmr: dropping OOSEQ queued data\n"));
 5922              		.loc 1 1355 50 discriminator 1 view .LVU1762
 5923 016a 03EB4303 		add	r3, r3, r3, lsl #1
1354:c:/Users/Black_Life/STM32Cube/Repository/STM32Cube_FW_F4_V1.26.2/Middlewares/Third_Party/LwIP/src/core\tcp.c ****         (tcp_ticks - pcb->tmr >= (u32_t)pcb->rto * TCP_OOSEQ_TIMEOUT)) {
 5924              		.loc 1 1354 28 discriminator 1 view .LVU1763
 5925 016e B2EB430F 		cmp	r2, r3, lsl #1
ARM GAS  C:\Users\BLACK_~1\AppData\Local\Temp\ccRovO0r.s 			page 177


 5926 0172 68D2     		bcs	.L579
 5927              	.L539:
1362:c:/Users/Black_Life/STM32Cube/Repository/STM32Cube_FW_F4_V1.26.2/Middlewares/Third_Party/LwIP/src/core\tcp.c ****       if ((u32_t)(tcp_ticks - pcb->tmr) >
 5928              		.loc 1 1362 5 is_stmt 1 view .LVU1764
1362:c:/Users/Black_Life/STM32Cube/Repository/STM32Cube_FW_F4_V1.26.2/Middlewares/Third_Party/LwIP/src/core\tcp.c ****       if ((u32_t)(tcp_ticks - pcb->tmr) >
 5929              		.loc 1 1362 12 is_stmt 0 view .LVU1765
 5930 0174 237D     		ldrb	r3, [r4, #20]	@ zero_extendqisi2
1362:c:/Users/Black_Life/STM32Cube/Repository/STM32Cube_FW_F4_V1.26.2/Middlewares/Third_Party/LwIP/src/core\tcp.c ****       if ((u32_t)(tcp_ticks - pcb->tmr) >
 5931              		.loc 1 1362 8 view .LVU1766
 5932 0176 032B     		cmp	r3, #3
 5933 0178 69D0     		beq	.L580
 5934              	.L540:
1366:c:/Users/Black_Life/STM32Cube/Repository/STM32Cube_FW_F4_V1.26.2/Middlewares/Third_Party/LwIP/src/core\tcp.c ****       }
 5935              		.loc 1 1366 82 is_stmt 1 view .LVU1767
1371:c:/Users/Black_Life/STM32Cube/Repository/STM32Cube_FW_F4_V1.26.2/Middlewares/Third_Party/LwIP/src/core\tcp.c ****       if ((u32_t)(tcp_ticks - pcb->tmr) > 2 * TCP_MSL / TCP_SLOW_INTERVAL) {
 5936              		.loc 1 1371 5 view .LVU1768
1371:c:/Users/Black_Life/STM32Cube/Repository/STM32Cube_FW_F4_V1.26.2/Middlewares/Third_Party/LwIP/src/core\tcp.c ****       if ((u32_t)(tcp_ticks - pcb->tmr) > 2 * TCP_MSL / TCP_SLOW_INTERVAL) {
 5937              		.loc 1 1371 8 is_stmt 0 view .LVU1769
 5938 017a 092B     		cmp	r3, #9
 5939 017c 70D0     		beq	.L581
 5940              	.L541:
1374:c:/Users/Black_Life/STM32Cube/Repository/STM32Cube_FW_F4_V1.26.2/Middlewares/Third_Party/LwIP/src/core\tcp.c ****       }
 5941              		.loc 1 1374 82 is_stmt 1 view .LVU1770
1379:c:/Users/Black_Life/STM32Cube/Repository/STM32Cube_FW_F4_V1.26.2/Middlewares/Third_Party/LwIP/src/core\tcp.c ****       struct tcp_pcb *pcb2;
 5942              		.loc 1 1379 5 view .LVU1771
1379:c:/Users/Black_Life/STM32Cube/Repository/STM32Cube_FW_F4_V1.26.2/Middlewares/Third_Party/LwIP/src/core\tcp.c ****       struct tcp_pcb *pcb2;
 5943              		.loc 1 1379 8 is_stmt 0 view .LVU1772
 5944 017e 002D     		cmp	r5, #0
 5945 0180 40F09280 		bne	.L582
1415:c:/Users/Black_Life/STM32Cube/Repository/STM32Cube_FW_F4_V1.26.2/Middlewares/Third_Party/LwIP/src/core\tcp.c ****       pcb = pcb->next;
 5946              		.loc 1 1415 7 is_stmt 1 view .LVU1773
 5947              	.LVL579:
1416:c:/Users/Black_Life/STM32Cube/Repository/STM32Cube_FW_F4_V1.26.2/Middlewares/Third_Party/LwIP/src/core\tcp.c **** 
 5948              		.loc 1 1416 7 view .LVU1774
1416:c:/Users/Black_Life/STM32Cube/Repository/STM32Cube_FW_F4_V1.26.2/Middlewares/Third_Party/LwIP/src/core\tcp.c **** 
 5949              		.loc 1 1416 11 is_stmt 0 view .LVU1775
 5950 0184 E568     		ldr	r5, [r4, #12]
 5951              	.LVL580:
1419:c:/Users/Black_Life/STM32Cube/Repository/STM32Cube_FW_F4_V1.26.2/Middlewares/Third_Party/LwIP/src/core\tcp.c ****       if (prev->polltmr >= prev->pollinterval) {
 5952              		.loc 1 1419 7 is_stmt 1 view .LVU1776
1419:c:/Users/Black_Life/STM32Cube/Repository/STM32Cube_FW_F4_V1.26.2/Middlewares/Third_Party/LwIP/src/core\tcp.c ****       if (prev->polltmr >= prev->pollinterval) {
 5953              		.loc 1 1419 13 is_stmt 0 view .LVU1777
 5954 0186 237F     		ldrb	r3, [r4, #28]	@ zero_extendqisi2
1419:c:/Users/Black_Life/STM32Cube/Repository/STM32Cube_FW_F4_V1.26.2/Middlewares/Third_Party/LwIP/src/core\tcp.c ****       if (prev->polltmr >= prev->pollinterval) {
 5955              		.loc 1 1419 7 view .LVU1778
 5956 0188 0133     		adds	r3, r3, #1
 5957 018a DBB2     		uxtb	r3, r3
 5958 018c 2377     		strb	r3, [r4, #28]
1420:c:/Users/Black_Life/STM32Cube/Repository/STM32Cube_FW_F4_V1.26.2/Middlewares/Third_Party/LwIP/src/core\tcp.c ****         prev->polltmr = 0;
 5959              		.loc 1 1420 7 is_stmt 1 view .LVU1779
1420:c:/Users/Black_Life/STM32Cube/Repository/STM32Cube_FW_F4_V1.26.2/Middlewares/Third_Party/LwIP/src/core\tcp.c ****         prev->polltmr = 0;
 5960              		.loc 1 1420 32 is_stmt 0 view .LVU1780
 5961 018e 627F     		ldrb	r2, [r4, #29]	@ zero_extendqisi2
1420:c:/Users/Black_Life/STM32Cube/Repository/STM32Cube_FW_F4_V1.26.2/Middlewares/Third_Party/LwIP/src/core\tcp.c ****         prev->polltmr = 0;
 5962              		.loc 1 1420 10 view .LVU1781
 5963 0190 9342     		cmp	r3, r2
 5964 0192 C0F0D780 		bcc	.L572
ARM GAS  C:\Users\BLACK_~1\AppData\Local\Temp\ccRovO0r.s 			page 178


1421:c:/Users/Black_Life/STM32Cube/Repository/STM32Cube_FW_F4_V1.26.2/Middlewares/Third_Party/LwIP/src/core\tcp.c ****         LWIP_DEBUGF(TCP_DEBUG, ("tcp_slowtmr: polling application\n"));
 5965              		.loc 1 1421 9 is_stmt 1 view .LVU1782
1421:c:/Users/Black_Life/STM32Cube/Repository/STM32Cube_FW_F4_V1.26.2/Middlewares/Third_Party/LwIP/src/core\tcp.c ****         LWIP_DEBUGF(TCP_DEBUG, ("tcp_slowtmr: polling application\n"));
 5966              		.loc 1 1421 23 is_stmt 0 view .LVU1783
 5967 0196 0023     		movs	r3, #0
 5968 0198 2377     		strb	r3, [r4, #28]
1422:c:/Users/Black_Life/STM32Cube/Repository/STM32Cube_FW_F4_V1.26.2/Middlewares/Third_Party/LwIP/src/core\tcp.c ****         tcp_active_pcbs_changed = 0;
 5969              		.loc 1 1422 71 is_stmt 1 view .LVU1784
1423:c:/Users/Black_Life/STM32Cube/Repository/STM32Cube_FW_F4_V1.26.2/Middlewares/Third_Party/LwIP/src/core\tcp.c ****         TCP_EVENT_POLL(prev, err);
 5970              		.loc 1 1423 9 view .LVU1785
1423:c:/Users/Black_Life/STM32Cube/Repository/STM32Cube_FW_F4_V1.26.2/Middlewares/Third_Party/LwIP/src/core\tcp.c ****         TCP_EVENT_POLL(prev, err);
 5971              		.loc 1 1423 33 is_stmt 0 view .LVU1786
 5972 019a 404A     		ldr	r2, .L598+40
 5973 019c 1370     		strb	r3, [r2]
1424:c:/Users/Black_Life/STM32Cube/Repository/STM32Cube_FW_F4_V1.26.2/Middlewares/Third_Party/LwIP/src/core\tcp.c ****         if (tcp_active_pcbs_changed) {
 5974              		.loc 1 1424 9 is_stmt 1 view .LVU1787
1424:c:/Users/Black_Life/STM32Cube/Repository/STM32Cube_FW_F4_V1.26.2/Middlewares/Third_Party/LwIP/src/core\tcp.c ****         if (tcp_active_pcbs_changed) {
 5975              		.loc 1 1424 9 view .LVU1788
 5976 019e D4F88C30 		ldr	r3, [r4, #140]
 5977 01a2 002B     		cmp	r3, #0
 5978 01a4 00F0C680 		beq	.L573
1424:c:/Users/Black_Life/STM32Cube/Repository/STM32Cube_FW_F4_V1.26.2/Middlewares/Third_Party/LwIP/src/core\tcp.c ****         if (tcp_active_pcbs_changed) {
 5979              		.loc 1 1424 9 discriminator 1 view .LVU1789
 5980 01a8 2146     		mov	r1, r4
 5981 01aa 2069     		ldr	r0, [r4, #16]
 5982 01ac 9847     		blx	r3
 5983              	.LVL581:
 5984              	.L549:
1424:c:/Users/Black_Life/STM32Cube/Repository/STM32Cube_FW_F4_V1.26.2/Middlewares/Third_Party/LwIP/src/core\tcp.c ****         if (tcp_active_pcbs_changed) {
 5985              		.loc 1 1424 9 discriminator 4 view .LVU1790
1425:c:/Users/Black_Life/STM32Cube/Repository/STM32Cube_FW_F4_V1.26.2/Middlewares/Third_Party/LwIP/src/core\tcp.c ****           goto tcp_slowtmr_start;
 5986              		.loc 1 1425 9 discriminator 4 view .LVU1791
1425:c:/Users/Black_Life/STM32Cube/Repository/STM32Cube_FW_F4_V1.26.2/Middlewares/Third_Party/LwIP/src/core\tcp.c ****           goto tcp_slowtmr_start;
 5987              		.loc 1 1425 13 is_stmt 0 discriminator 4 view .LVU1792
 5988 01ae 3B4B     		ldr	r3, .L598+40
 5989 01b0 1B78     		ldrb	r3, [r3]	@ zero_extendqisi2
1425:c:/Users/Black_Life/STM32Cube/Repository/STM32Cube_FW_F4_V1.26.2/Middlewares/Third_Party/LwIP/src/core\tcp.c ****           goto tcp_slowtmr_start;
 5990              		.loc 1 1425 12 discriminator 4 view .LVU1793
 5991 01b2 002B     		cmp	r3, #0
 5992 01b4 7FF42FAF 		bne	.L514
1429:c:/Users/Black_Life/STM32Cube/Repository/STM32Cube_FW_F4_V1.26.2/Middlewares/Third_Party/LwIP/src/core\tcp.c ****           tcp_output(prev);
 5993              		.loc 1 1429 9 is_stmt 1 view .LVU1794
1429:c:/Users/Black_Life/STM32Cube/Repository/STM32Cube_FW_F4_V1.26.2/Middlewares/Third_Party/LwIP/src/core\tcp.c ****           tcp_output(prev);
 5994              		.loc 1 1429 12 is_stmt 0 view .LVU1795
 5995 01b8 0028     		cmp	r0, #0
 5996 01ba 00F0BD80 		beq	.L583
1415:c:/Users/Black_Life/STM32Cube/Repository/STM32Cube_FW_F4_V1.26.2/Middlewares/Third_Party/LwIP/src/core\tcp.c ****       pcb = pcb->next;
 5997              		.loc 1 1415 12 view .LVU1796
 5998 01be 2646     		mov	r6, r4
1416:c:/Users/Black_Life/STM32Cube/Repository/STM32Cube_FW_F4_V1.26.2/Middlewares/Third_Party/LwIP/src/core\tcp.c **** 
 5999              		.loc 1 1416 11 view .LVU1797
 6000 01c0 2C46     		mov	r4, r5
 6001              	.LVL582:
1416:c:/Users/Black_Life/STM32Cube/Repository/STM32Cube_FW_F4_V1.26.2/Middlewares/Third_Party/LwIP/src/core\tcp.c **** 
 6002              		.loc 1 1416 11 view .LVU1798
 6003 01c2 C1E0     		b	.L516
 6004              	.LVL583:
ARM GAS  C:\Users\BLACK_~1\AppData\Local\Temp\ccRovO0r.s 			page 179


 6005              	.L563:
1239:c:/Users/Black_Life/STM32Cube/Repository/STM32Cube_FW_F4_V1.26.2/Middlewares/Third_Party/LwIP/src/core\tcp.c ****         } else {
 6006              		.loc 1 1239 11 view .LVU1799
 6007 01c4 0125     		movs	r5, #1
 6008 01c6 BCE7     		b	.L523
 6009              	.LVL584:
 6010              	.L564:
1225:c:/Users/Black_Life/STM32Cube/Repository/STM32Cube_FW_F4_V1.26.2/Middlewares/Third_Party/LwIP/src/core\tcp.c ****     pcb_reset = 0;
 6011              		.loc 1 1225 16 view .LVU1800
 6012 01c8 0025     		movs	r5, #0
 6013 01ca BAE7     		b	.L523
 6014              	.LVL585:
 6015              	.L567:
1225:c:/Users/Black_Life/STM32Cube/Repository/STM32Cube_FW_F4_V1.26.2/Middlewares/Third_Party/LwIP/src/core\tcp.c ****     pcb_reset = 0;
 6016              		.loc 1 1225 16 view .LVU1801
 6017 01cc 0025     		movs	r5, #0
 6018 01ce B8E7     		b	.L523
 6019              	.LVL586:
 6020              	.L578:
1317:c:/Users/Black_Life/STM32Cube/Repository/STM32Cube_FW_F4_V1.26.2/Middlewares/Third_Party/LwIP/src/core\tcp.c ****         /* PCB was fully closed (either through close() or SHUT_RDWR):
 6021              		.loc 1 1317 7 is_stmt 1 view .LVU1802
1317:c:/Users/Black_Life/STM32Cube/Repository/STM32Cube_FW_F4_V1.26.2/Middlewares/Third_Party/LwIP/src/core\tcp.c ****         /* PCB was fully closed (either through close() or SHUT_RDWR):
 6022              		.loc 1 1317 14 is_stmt 0 view .LVU1803
 6023 01d0 638B     		ldrh	r3, [r4, #26]
1317:c:/Users/Black_Life/STM32Cube/Repository/STM32Cube_FW_F4_V1.26.2/Middlewares/Third_Party/LwIP/src/core\tcp.c ****         /* PCB was fully closed (either through close() or SHUT_RDWR):
 6024              		.loc 1 1317 10 view .LVU1804
 6025 01d2 13F0100F 		tst	r3, #16
 6026 01d6 B7D0     		beq	.L535
1320:c:/Users/Black_Life/STM32Cube/Repository/STM32Cube_FW_F4_V1.26.2/Middlewares/Third_Party/LwIP/src/core\tcp.c ****             TCP_FIN_WAIT_TIMEOUT / TCP_SLOW_INTERVAL) {
 6027              		.loc 1 1320 9 is_stmt 1 view .LVU1805
1320:c:/Users/Black_Life/STM32Cube/Repository/STM32Cube_FW_F4_V1.26.2/Middlewares/Third_Party/LwIP/src/core\tcp.c ****             TCP_FIN_WAIT_TIMEOUT / TCP_SLOW_INTERVAL) {
 6028              		.loc 1 1320 36 is_stmt 0 view .LVU1806
 6029 01d8 216A     		ldr	r1, [r4, #32]
1320:c:/Users/Black_Life/STM32Cube/Repository/STM32Cube_FW_F4_V1.26.2/Middlewares/Third_Party/LwIP/src/core\tcp.c ****             TCP_FIN_WAIT_TIMEOUT / TCP_SLOW_INTERVAL) {
 6030              		.loc 1 1320 31 view .LVU1807
 6031 01da 264B     		ldr	r3, .L598
 6032 01dc 1B68     		ldr	r3, [r3]
 6033 01de 5B1A     		subs	r3, r3, r1
1320:c:/Users/Black_Life/STM32Cube/Repository/STM32Cube_FW_F4_V1.26.2/Middlewares/Third_Party/LwIP/src/core\tcp.c ****             TCP_FIN_WAIT_TIMEOUT / TCP_SLOW_INTERVAL) {
 6034              		.loc 1 1320 12 view .LVU1808
 6035 01e0 282B     		cmp	r3, #40
 6036 01e2 B1D9     		bls	.L535
1322:c:/Users/Black_Life/STM32Cube/Repository/STM32Cube_FW_F4_V1.26.2/Middlewares/Third_Party/LwIP/src/core\tcp.c ****           LWIP_DEBUGF(TCP_DEBUG, ("tcp_slowtmr: removing pcb stuck in FIN-WAIT-2\n"));
 6037              		.loc 1 1322 11 is_stmt 1 view .LVU1809
 6038 01e4 0135     		adds	r5, r5, #1
 6039              	.LVL587:
1322:c:/Users/Black_Life/STM32Cube/Repository/STM32Cube_FW_F4_V1.26.2/Middlewares/Third_Party/LwIP/src/core\tcp.c ****           LWIP_DEBUGF(TCP_DEBUG, ("tcp_slowtmr: removing pcb stuck in FIN-WAIT-2\n"));
 6040              		.loc 1 1322 11 is_stmt 0 view .LVU1810
 6041 01e6 EDB2     		uxtb	r5, r5
 6042              	.LVL588:
1322:c:/Users/Black_Life/STM32Cube/Repository/STM32Cube_FW_F4_V1.26.2/Middlewares/Third_Party/LwIP/src/core\tcp.c ****           LWIP_DEBUGF(TCP_DEBUG, ("tcp_slowtmr: removing pcb stuck in FIN-WAIT-2\n"));
 6043              		.loc 1 1322 11 view .LVU1811
 6044 01e8 AEE7     		b	.L535
 6045              	.L537:
1332:c:/Users/Black_Life/STM32Cube/Repository/STM32Cube_FW_F4_V1.26.2/Middlewares/Third_Party/LwIP/src/core\tcp.c ****           (pcb->keep_idle + TCP_KEEP_DUR(pcb)) / TCP_SLOW_INTERVAL) {
 6046              		.loc 1 1332 7 is_stmt 1 view .LVU1812
1332:c:/Users/Black_Life/STM32Cube/Repository/STM32Cube_FW_F4_V1.26.2/Middlewares/Third_Party/LwIP/src/core\tcp.c ****           (pcb->keep_idle + TCP_KEEP_DUR(pcb)) / TCP_SLOW_INTERVAL) {
ARM GAS  C:\Users\BLACK_~1\AppData\Local\Temp\ccRovO0r.s 			page 180


 6047              		.loc 1 1332 11 is_stmt 0 view .LVU1813
 6048 01ea 224B     		ldr	r3, .L598
 6049 01ec 1A68     		ldr	r2, [r3]
1332:c:/Users/Black_Life/STM32Cube/Repository/STM32Cube_FW_F4_V1.26.2/Middlewares/Third_Party/LwIP/src/core\tcp.c ****           (pcb->keep_idle + TCP_KEEP_DUR(pcb)) / TCP_SLOW_INTERVAL) {
 6050              		.loc 1 1332 34 view .LVU1814
 6051 01ee 236A     		ldr	r3, [r4, #32]
1332:c:/Users/Black_Life/STM32Cube/Repository/STM32Cube_FW_F4_V1.26.2/Middlewares/Third_Party/LwIP/src/core\tcp.c ****           (pcb->keep_idle + TCP_KEEP_DUR(pcb)) / TCP_SLOW_INTERVAL) {
 6052              		.loc 1 1332 29 view .LVU1815
 6053 01f0 D21A     		subs	r2, r2, r3
1333:c:/Users/Black_Life/STM32Cube/Repository/STM32Cube_FW_F4_V1.26.2/Middlewares/Third_Party/LwIP/src/core\tcp.c ****         LWIP_DEBUGF(TCP_DEBUG, ("tcp_slowtmr: KEEPALIVE timeout. Aborting connection to "));
 6054              		.loc 1 1333 15 view .LVU1816
 6055 01f2 D4F89410 		ldr	r1, [r4, #148]
1333:c:/Users/Black_Life/STM32Cube/Repository/STM32Cube_FW_F4_V1.26.2/Middlewares/Third_Party/LwIP/src/core\tcp.c ****         LWIP_DEBUGF(TCP_DEBUG, ("tcp_slowtmr: KEEPALIVE timeout. Aborting connection to "));
 6056              		.loc 1 1333 27 view .LVU1817
 6057 01f6 01F52423 		add	r3, r1, #671744
 6058 01fa 03F6B843 		addw	r3, r3, #3256
1333:c:/Users/Black_Life/STM32Cube/Repository/STM32Cube_FW_F4_V1.26.2/Middlewares/Third_Party/LwIP/src/core\tcp.c ****         LWIP_DEBUGF(TCP_DEBUG, ("tcp_slowtmr: KEEPALIVE timeout. Aborting connection to "));
 6059              		.loc 1 1333 48 view .LVU1818
 6060 01fe 2848     		ldr	r0, .L598+44
 6061 0200 A0FB0303 		umull	r0, r3, r0, r3
1332:c:/Users/Black_Life/STM32Cube/Repository/STM32Cube_FW_F4_V1.26.2/Middlewares/Third_Party/LwIP/src/core\tcp.c ****           (pcb->keep_idle + TCP_KEEP_DUR(pcb)) / TCP_SLOW_INTERVAL) {
 6062              		.loc 1 1332 10 view .LVU1819
 6063 0204 B2EB531F 		cmp	r2, r3, lsr #5
 6064 0208 03D9     		bls	.L538
1334:c:/Users/Black_Life/STM32Cube/Repository/STM32Cube_FW_F4_V1.26.2/Middlewares/Third_Party/LwIP/src/core\tcp.c ****         ip_addr_debug_print_val(TCP_DEBUG, pcb->remote_ip);
 6065              		.loc 1 1334 92 is_stmt 1 view .LVU1820
1335:c:/Users/Black_Life/STM32Cube/Repository/STM32Cube_FW_F4_V1.26.2/Middlewares/Third_Party/LwIP/src/core\tcp.c ****         LWIP_DEBUGF(TCP_DEBUG, ("\n"));
 6066              		.loc 1 1335 59 view .LVU1821
1336:c:/Users/Black_Life/STM32Cube/Repository/STM32Cube_FW_F4_V1.26.2/Middlewares/Third_Party/LwIP/src/core\tcp.c **** 
 6067              		.loc 1 1336 39 view .LVU1822
1338:c:/Users/Black_Life/STM32Cube/Repository/STM32Cube_FW_F4_V1.26.2/Middlewares/Third_Party/LwIP/src/core\tcp.c ****         ++pcb_reset;
 6068              		.loc 1 1338 9 view .LVU1823
 6069 020a 0135     		adds	r5, r5, #1
 6070              	.LVL589:
1338:c:/Users/Black_Life/STM32Cube/Repository/STM32Cube_FW_F4_V1.26.2/Middlewares/Third_Party/LwIP/src/core\tcp.c ****         ++pcb_reset;
 6071              		.loc 1 1338 9 is_stmt 0 view .LVU1824
 6072 020c EDB2     		uxtb	r5, r5
 6073              	.LVL590:
1339:c:/Users/Black_Life/STM32Cube/Repository/STM32Cube_FW_F4_V1.26.2/Middlewares/Third_Party/LwIP/src/core\tcp.c ****       } else if ((u32_t)(tcp_ticks - pcb->tmr) >
 6074              		.loc 1 1339 9 is_stmt 1 view .LVU1825
1339:c:/Users/Black_Life/STM32Cube/Repository/STM32Cube_FW_F4_V1.26.2/Middlewares/Third_Party/LwIP/src/core\tcp.c ****       } else if ((u32_t)(tcp_ticks - pcb->tmr) >
 6075              		.loc 1 1339 9 is_stmt 0 view .LVU1826
 6076 020e 0127     		movs	r7, #1
 6077 0210 A3E7     		b	.L536
 6078              	.LVL591:
 6079              	.L538:
1340:c:/Users/Black_Life/STM32Cube/Repository/STM32Cube_FW_F4_V1.26.2/Middlewares/Third_Party/LwIP/src/core\tcp.c ****                  (pcb->keep_idle + pcb->keep_cnt_sent * TCP_KEEP_INTVL(pcb))
 6080              		.loc 1 1340 14 is_stmt 1 view .LVU1827
1341:c:/Users/Black_Life/STM32Cube/Repository/STM32Cube_FW_F4_V1.26.2/Middlewares/Third_Party/LwIP/src/core\tcp.c ****                  / TCP_SLOW_INTERVAL) {
 6081              		.loc 1 1341 39 is_stmt 0 view .LVU1828
 6082 0212 94F89B30 		ldrb	r3, [r4, #155]	@ zero_extendqisi2
1341:c:/Users/Black_Life/STM32Cube/Repository/STM32Cube_FW_F4_V1.26.2/Middlewares/Third_Party/LwIP/src/core\tcp.c ****                  / TCP_SLOW_INTERVAL) {
 6083              		.loc 1 1341 34 view .LVU1829
 6084 0216 2348     		ldr	r0, .L598+48
 6085 0218 00FB0311 		mla	r1, r0, r3, r1
1342:c:/Users/Black_Life/STM32Cube/Repository/STM32Cube_FW_F4_V1.26.2/Middlewares/Third_Party/LwIP/src/core\tcp.c ****         err = tcp_keepalive(pcb);
 6086              		.loc 1 1342 18 view .LVU1830
ARM GAS  C:\Users\BLACK_~1\AppData\Local\Temp\ccRovO0r.s 			page 181


 6087 021c 204B     		ldr	r3, .L598+44
 6088 021e A3FB0131 		umull	r3, r1, r3, r1
1340:c:/Users/Black_Life/STM32Cube/Repository/STM32Cube_FW_F4_V1.26.2/Middlewares/Third_Party/LwIP/src/core\tcp.c ****                  (pcb->keep_idle + pcb->keep_cnt_sent * TCP_KEEP_INTVL(pcb))
 6089              		.loc 1 1340 17 view .LVU1831
 6090 0222 B2EB511F 		cmp	r2, r1, lsr #5
 6091 0226 01D8     		bhi	.L584
1226:c:/Users/Black_Life/STM32Cube/Repository/STM32Cube_FW_F4_V1.26.2/Middlewares/Third_Party/LwIP/src/core\tcp.c **** 
 6092              		.loc 1 1226 15 view .LVU1832
 6093 0228 0027     		movs	r7, #0
 6094 022a 96E7     		b	.L536
 6095              	.L584:
1343:c:/Users/Black_Life/STM32Cube/Repository/STM32Cube_FW_F4_V1.26.2/Middlewares/Third_Party/LwIP/src/core\tcp.c ****         if (err == ERR_OK) {
 6096              		.loc 1 1343 9 is_stmt 1 view .LVU1833
1343:c:/Users/Black_Life/STM32Cube/Repository/STM32Cube_FW_F4_V1.26.2/Middlewares/Third_Party/LwIP/src/core\tcp.c ****         if (err == ERR_OK) {
 6097              		.loc 1 1343 15 is_stmt 0 view .LVU1834
 6098 022c 2046     		mov	r0, r4
 6099 022e FFF7FEFF 		bl	tcp_keepalive
 6100              	.LVL592:
1344:c:/Users/Black_Life/STM32Cube/Repository/STM32Cube_FW_F4_V1.26.2/Middlewares/Third_Party/LwIP/src/core\tcp.c ****           pcb->keep_cnt_sent++;
 6101              		.loc 1 1344 9 is_stmt 1 view .LVU1835
1344:c:/Users/Black_Life/STM32Cube/Repository/STM32Cube_FW_F4_V1.26.2/Middlewares/Third_Party/LwIP/src/core\tcp.c ****           pcb->keep_cnt_sent++;
 6102              		.loc 1 1344 12 is_stmt 0 view .LVU1836
 6103 0232 30B9     		cbnz	r0, .L571
1345:c:/Users/Black_Life/STM32Cube/Repository/STM32Cube_FW_F4_V1.26.2/Middlewares/Third_Party/LwIP/src/core\tcp.c ****         }
 6104              		.loc 1 1345 11 is_stmt 1 view .LVU1837
1345:c:/Users/Black_Life/STM32Cube/Repository/STM32Cube_FW_F4_V1.26.2/Middlewares/Third_Party/LwIP/src/core\tcp.c ****         }
 6105              		.loc 1 1345 14 is_stmt 0 view .LVU1838
 6106 0234 94F89B30 		ldrb	r3, [r4, #155]	@ zero_extendqisi2
1345:c:/Users/Black_Life/STM32Cube/Repository/STM32Cube_FW_F4_V1.26.2/Middlewares/Third_Party/LwIP/src/core\tcp.c ****         }
 6107              		.loc 1 1345 29 view .LVU1839
 6108 0238 0133     		adds	r3, r3, #1
 6109 023a 84F89B30 		strb	r3, [r4, #155]
1226:c:/Users/Black_Life/STM32Cube/Repository/STM32Cube_FW_F4_V1.26.2/Middlewares/Third_Party/LwIP/src/core\tcp.c **** 
 6110              		.loc 1 1226 15 view .LVU1840
 6111 023e 0027     		movs	r7, #0
 6112 0240 8BE7     		b	.L536
 6113              	.L571:
 6114 0242 0027     		movs	r7, #0
 6115 0244 89E7     		b	.L536
 6116              	.LVL593:
 6117              	.L579:
1356:c:/Users/Black_Life/STM32Cube/Repository/STM32Cube_FW_F4_V1.26.2/Middlewares/Third_Party/LwIP/src/core\tcp.c ****       tcp_free_ooseq(pcb);
 6118              		.loc 1 1356 81 is_stmt 1 view .LVU1841
1357:c:/Users/Black_Life/STM32Cube/Repository/STM32Cube_FW_F4_V1.26.2/Middlewares/Third_Party/LwIP/src/core\tcp.c ****     }
 6119              		.loc 1 1357 7 view .LVU1842
 6120 0246 2046     		mov	r0, r4
 6121 0248 FFF7FEFF 		bl	tcp_free_ooseq
 6122              	.LVL594:
 6123 024c 92E7     		b	.L539
 6124              	.L580:
1363:c:/Users/Black_Life/STM32Cube/Repository/STM32Cube_FW_F4_V1.26.2/Middlewares/Third_Party/LwIP/src/core\tcp.c ****           TCP_SYN_RCVD_TIMEOUT / TCP_SLOW_INTERVAL) {
 6125              		.loc 1 1363 7 view .LVU1843
1363:c:/Users/Black_Life/STM32Cube/Repository/STM32Cube_FW_F4_V1.26.2/Middlewares/Third_Party/LwIP/src/core\tcp.c ****           TCP_SYN_RCVD_TIMEOUT / TCP_SLOW_INTERVAL) {
 6126              		.loc 1 1363 34 is_stmt 0 view .LVU1844
 6127 024e 216A     		ldr	r1, [r4, #32]
1363:c:/Users/Black_Life/STM32Cube/Repository/STM32Cube_FW_F4_V1.26.2/Middlewares/Third_Party/LwIP/src/core\tcp.c ****           TCP_SYN_RCVD_TIMEOUT / TCP_SLOW_INTERVAL) {
 6128              		.loc 1 1363 29 view .LVU1845
ARM GAS  C:\Users\BLACK_~1\AppData\Local\Temp\ccRovO0r.s 			page 182


 6129 0250 084A     		ldr	r2, .L598
 6130 0252 1268     		ldr	r2, [r2]
 6131 0254 521A     		subs	r2, r2, r1
1363:c:/Users/Black_Life/STM32Cube/Repository/STM32Cube_FW_F4_V1.26.2/Middlewares/Third_Party/LwIP/src/core\tcp.c ****           TCP_SYN_RCVD_TIMEOUT / TCP_SLOW_INTERVAL) {
 6132              		.loc 1 1363 10 view .LVU1846
 6133 0256 282A     		cmp	r2, #40
 6134 0258 8FD9     		bls	.L540
1365:c:/Users/Black_Life/STM32Cube/Repository/STM32Cube_FW_F4_V1.26.2/Middlewares/Third_Party/LwIP/src/core\tcp.c ****         LWIP_DEBUGF(TCP_DEBUG, ("tcp_slowtmr: removing pcb stuck in SYN-RCVD\n"));
 6135              		.loc 1 1365 9 is_stmt 1 view .LVU1847
 6136 025a 0135     		adds	r5, r5, #1
 6137              	.LVL595:
1365:c:/Users/Black_Life/STM32Cube/Repository/STM32Cube_FW_F4_V1.26.2/Middlewares/Third_Party/LwIP/src/core\tcp.c ****         LWIP_DEBUGF(TCP_DEBUG, ("tcp_slowtmr: removing pcb stuck in SYN-RCVD\n"));
 6138              		.loc 1 1365 9 is_stmt 0 view .LVU1848
 6139 025c EDB2     		uxtb	r5, r5
 6140              	.LVL596:
1365:c:/Users/Black_Life/STM32Cube/Repository/STM32Cube_FW_F4_V1.26.2/Middlewares/Third_Party/LwIP/src/core\tcp.c ****         LWIP_DEBUGF(TCP_DEBUG, ("tcp_slowtmr: removing pcb stuck in SYN-RCVD\n"));
 6141              		.loc 1 1365 9 view .LVU1849
 6142 025e 8CE7     		b	.L540
 6143              	.L581:
1372:c:/Users/Black_Life/STM32Cube/Repository/STM32Cube_FW_F4_V1.26.2/Middlewares/Third_Party/LwIP/src/core\tcp.c ****         ++pcb_remove;
 6144              		.loc 1 1372 7 is_stmt 1 view .LVU1850
1372:c:/Users/Black_Life/STM32Cube/Repository/STM32Cube_FW_F4_V1.26.2/Middlewares/Third_Party/LwIP/src/core\tcp.c ****         ++pcb_remove;
 6145              		.loc 1 1372 34 is_stmt 0 view .LVU1851
 6146 0260 226A     		ldr	r2, [r4, #32]
1372:c:/Users/Black_Life/STM32Cube/Repository/STM32Cube_FW_F4_V1.26.2/Middlewares/Third_Party/LwIP/src/core\tcp.c ****         ++pcb_remove;
 6147              		.loc 1 1372 29 view .LVU1852
 6148 0262 044B     		ldr	r3, .L598
 6149 0264 1B68     		ldr	r3, [r3]
 6150 0266 9B1A     		subs	r3, r3, r2
1372:c:/Users/Black_Life/STM32Cube/Repository/STM32Cube_FW_F4_V1.26.2/Middlewares/Third_Party/LwIP/src/core\tcp.c ****         ++pcb_remove;
 6151              		.loc 1 1372 10 view .LVU1853
 6152 0268 F02B     		cmp	r3, #240
 6153 026a 88D9     		bls	.L541
1373:c:/Users/Black_Life/STM32Cube/Repository/STM32Cube_FW_F4_V1.26.2/Middlewares/Third_Party/LwIP/src/core\tcp.c ****         LWIP_DEBUGF(TCP_DEBUG, ("tcp_slowtmr: removing pcb stuck in LAST-ACK\n"));
 6154              		.loc 1 1373 9 is_stmt 1 view .LVU1854
 6155 026c 0135     		adds	r5, r5, #1
 6156              	.LVL597:
1373:c:/Users/Black_Life/STM32Cube/Repository/STM32Cube_FW_F4_V1.26.2/Middlewares/Third_Party/LwIP/src/core\tcp.c ****         LWIP_DEBUGF(TCP_DEBUG, ("tcp_slowtmr: removing pcb stuck in LAST-ACK\n"));
 6157              		.loc 1 1373 9 is_stmt 0 view .LVU1855
 6158 026e EDB2     		uxtb	r5, r5
 6159              	.LVL598:
1373:c:/Users/Black_Life/STM32Cube/Repository/STM32Cube_FW_F4_V1.26.2/Middlewares/Third_Party/LwIP/src/core\tcp.c ****         LWIP_DEBUGF(TCP_DEBUG, ("tcp_slowtmr: removing pcb stuck in LAST-ACK\n"));
 6160              		.loc 1 1373 9 view .LVU1856
 6161 0270 85E7     		b	.L541
 6162              	.L599:
 6163 0272 00BF     		.align	2
 6164              	.L598:
 6165 0274 00000000 		.word	.LANCHOR6
 6166 0278 00000000 		.word	.LANCHOR10
 6167 027c 00000000 		.word	.LANCHOR2
 6168 0280 00000000 		.word	.LC0
 6169 0284 00000000 		.word	.LC44
 6170 0288 98000000 		.word	.LC2
 6171 028c 2C000000 		.word	.LC45
 6172 0290 58000000 		.word	.LC46
 6173 0294 BC000000 		.word	.LC48
 6174 0298 00000000 		.word	.LANCHOR12
ARM GAS  C:\Users\BLACK_~1\AppData\Local\Temp\ccRovO0r.s 			page 183


 6175 029c 00000000 		.word	.LANCHOR7
 6176 02a0 D34D6210 		.word	274877907
 6177 02a4 F8240100 		.word	75000
 6178              	.L582:
 6179              	.LBB37:
1380:c:/Users/Black_Life/STM32Cube/Repository/STM32Cube_FW_F4_V1.26.2/Middlewares/Third_Party/LwIP/src/core\tcp.c **** #if LWIP_CALLBACK_API
 6180              		.loc 1 1380 7 is_stmt 1 view .LVU1857
1382:c:/Users/Black_Life/STM32Cube/Repository/STM32Cube_FW_F4_V1.26.2/Middlewares/Third_Party/LwIP/src/core\tcp.c **** #endif /* LWIP_CALLBACK_API */
 6181              		.loc 1 1382 7 view .LVU1858
1382:c:/Users/Black_Life/STM32Cube/Repository/STM32Cube_FW_F4_V1.26.2/Middlewares/Third_Party/LwIP/src/core\tcp.c **** #endif /* LWIP_CALLBACK_API */
 6182              		.loc 1 1382 18 is_stmt 0 view .LVU1859
 6183 02a8 D4F89050 		ldr	r5, [r4, #144]
 6184              	.LVL599:
1384:c:/Users/Black_Life/STM32Cube/Repository/STM32Cube_FW_F4_V1.26.2/Middlewares/Third_Party/LwIP/src/core\tcp.c ****       enum tcp_state last_state;
 6185              		.loc 1 1384 7 is_stmt 1 view .LVU1860
1385:c:/Users/Black_Life/STM32Cube/Repository/STM32Cube_FW_F4_V1.26.2/Middlewares/Third_Party/LwIP/src/core\tcp.c ****       tcp_pcb_purge(pcb);
 6186              		.loc 1 1385 7 view .LVU1861
1386:c:/Users/Black_Life/STM32Cube/Repository/STM32Cube_FW_F4_V1.26.2/Middlewares/Third_Party/LwIP/src/core\tcp.c ****       /* Remove PCB from tcp_active_pcbs list. */
 6187              		.loc 1 1386 7 view .LVU1862
 6188 02ac 2046     		mov	r0, r4
 6189 02ae FFF7FEFF 		bl	tcp_pcb_purge
 6190              	.LVL600:
1388:c:/Users/Black_Life/STM32Cube/Repository/STM32Cube_FW_F4_V1.26.2/Middlewares/Third_Party/LwIP/src/core\tcp.c ****         LWIP_ASSERT("tcp_slowtmr: middle tcp != tcp_active_pcbs", pcb != tcp_active_pcbs);
 6191              		.loc 1 1388 7 view .LVU1863
1388:c:/Users/Black_Life/STM32Cube/Repository/STM32Cube_FW_F4_V1.26.2/Middlewares/Third_Party/LwIP/src/core\tcp.c ****         LWIP_ASSERT("tcp_slowtmr: middle tcp != tcp_active_pcbs", pcb != tcp_active_pcbs);
 6192              		.loc 1 1388 10 is_stmt 0 view .LVU1864
 6193 02b2 1EB3     		cbz	r6, .L543
1389:c:/Users/Black_Life/STM32Cube/Repository/STM32Cube_FW_F4_V1.26.2/Middlewares/Third_Party/LwIP/src/core\tcp.c ****         prev->next = pcb->next;
 6194              		.loc 1 1389 9 is_stmt 1 view .LVU1865
1389:c:/Users/Black_Life/STM32Cube/Repository/STM32Cube_FW_F4_V1.26.2/Middlewares/Third_Party/LwIP/src/core\tcp.c ****         prev->next = pcb->next;
 6195              		.loc 1 1389 9 view .LVU1866
 6196 02b4 6F4B     		ldr	r3, .L600
 6197 02b6 1B68     		ldr	r3, [r3]
 6198 02b8 A342     		cmp	r3, r4
 6199 02ba 17D0     		beq	.L585
 6200              	.L544:
1389:c:/Users/Black_Life/STM32Cube/Repository/STM32Cube_FW_F4_V1.26.2/Middlewares/Third_Party/LwIP/src/core\tcp.c ****         prev->next = pcb->next;
 6201              		.loc 1 1389 9 discriminator 3 view .LVU1867
1389:c:/Users/Black_Life/STM32Cube/Repository/STM32Cube_FW_F4_V1.26.2/Middlewares/Third_Party/LwIP/src/core\tcp.c ****         prev->next = pcb->next;
 6202              		.loc 1 1389 9 discriminator 3 view .LVU1868
1390:c:/Users/Black_Life/STM32Cube/Repository/STM32Cube_FW_F4_V1.26.2/Middlewares/Third_Party/LwIP/src/core\tcp.c ****       } else {
 6203              		.loc 1 1390 9 discriminator 3 view .LVU1869
1390:c:/Users/Black_Life/STM32Cube/Repository/STM32Cube_FW_F4_V1.26.2/Middlewares/Third_Party/LwIP/src/core\tcp.c ****       } else {
 6204              		.loc 1 1390 25 is_stmt 0 discriminator 3 view .LVU1870
 6205 02bc E368     		ldr	r3, [r4, #12]
1390:c:/Users/Black_Life/STM32Cube/Repository/STM32Cube_FW_F4_V1.26.2/Middlewares/Third_Party/LwIP/src/core\tcp.c ****       } else {
 6206              		.loc 1 1390 20 discriminator 3 view .LVU1871
 6207 02be F360     		str	r3, [r6, #12]
 6208              	.L545:
1397:c:/Users/Black_Life/STM32Cube/Repository/STM32Cube_FW_F4_V1.26.2/Middlewares/Third_Party/LwIP/src/core\tcp.c ****         tcp_rst(pcb, pcb->snd_nxt, pcb->rcv_nxt, &pcb->local_ip, &pcb->remote_ip,
 6209              		.loc 1 1397 7 is_stmt 1 view .LVU1872
1397:c:/Users/Black_Life/STM32Cube/Repository/STM32Cube_FW_F4_V1.26.2/Middlewares/Third_Party/LwIP/src/core\tcp.c ****         tcp_rst(pcb, pcb->snd_nxt, pcb->rcv_nxt, &pcb->local_ip, &pcb->remote_ip,
 6210              		.loc 1 1397 10 is_stmt 0 view .LVU1873
 6211 02c0 5FBB     		cbnz	r7, .L586
 6212              	.L547:
1402:c:/Users/Black_Life/STM32Cube/Repository/STM32Cube_FW_F4_V1.26.2/Middlewares/Third_Party/LwIP/src/core\tcp.c ****       last_state = pcb->state;
 6213              		.loc 1 1402 7 is_stmt 1 view .LVU1874
ARM GAS  C:\Users\BLACK_~1\AppData\Local\Temp\ccRovO0r.s 			page 184


1402:c:/Users/Black_Life/STM32Cube/Repository/STM32Cube_FW_F4_V1.26.2/Middlewares/Third_Party/LwIP/src/core\tcp.c ****       last_state = pcb->state;
 6214              		.loc 1 1402 15 is_stmt 0 view .LVU1875
 6215 02c2 D4F81080 		ldr	r8, [r4, #16]
 6216              	.LVL601:
1403:c:/Users/Black_Life/STM32Cube/Repository/STM32Cube_FW_F4_V1.26.2/Middlewares/Third_Party/LwIP/src/core\tcp.c ****       pcb2 = pcb;
 6217              		.loc 1 1403 7 is_stmt 1 view .LVU1876
1404:c:/Users/Black_Life/STM32Cube/Repository/STM32Cube_FW_F4_V1.26.2/Middlewares/Third_Party/LwIP/src/core\tcp.c ****       pcb = pcb->next;
 6218              		.loc 1 1404 7 view .LVU1877
1405:c:/Users/Black_Life/STM32Cube/Repository/STM32Cube_FW_F4_V1.26.2/Middlewares/Third_Party/LwIP/src/core\tcp.c ****       tcp_free(pcb2);
 6219              		.loc 1 1405 7 view .LVU1878
1405:c:/Users/Black_Life/STM32Cube/Repository/STM32Cube_FW_F4_V1.26.2/Middlewares/Third_Party/LwIP/src/core\tcp.c ****       tcp_free(pcb2);
 6220              		.loc 1 1405 11 is_stmt 0 view .LVU1879
 6221 02c6 E768     		ldr	r7, [r4, #12]
 6222              	.LVL602:
1406:c:/Users/Black_Life/STM32Cube/Repository/STM32Cube_FW_F4_V1.26.2/Middlewares/Third_Party/LwIP/src/core\tcp.c **** 
 6223              		.loc 1 1406 7 is_stmt 1 view .LVU1880
 6224 02c8 2046     		mov	r0, r4
 6225 02ca FFF7FEFF 		bl	tcp_free
 6226              	.LVL603:
1408:c:/Users/Black_Life/STM32Cube/Repository/STM32Cube_FW_F4_V1.26.2/Middlewares/Third_Party/LwIP/src/core\tcp.c ****       TCP_EVENT_ERR(last_state, err_fn, err_arg, ERR_ABRT);
 6227              		.loc 1 1408 7 view .LVU1881
1408:c:/Users/Black_Life/STM32Cube/Repository/STM32Cube_FW_F4_V1.26.2/Middlewares/Third_Party/LwIP/src/core\tcp.c ****       TCP_EVENT_ERR(last_state, err_fn, err_arg, ERR_ABRT);
 6228              		.loc 1 1408 31 is_stmt 0 view .LVU1882
 6229 02ce 6A4B     		ldr	r3, .L600+4
 6230 02d0 0022     		movs	r2, #0
 6231 02d2 1A70     		strb	r2, [r3]
1409:c:/Users/Black_Life/STM32Cube/Repository/STM32Cube_FW_F4_V1.26.2/Middlewares/Third_Party/LwIP/src/core\tcp.c ****       if (tcp_active_pcbs_changed) {
 6232              		.loc 1 1409 7 is_stmt 1 view .LVU1883
1409:c:/Users/Black_Life/STM32Cube/Repository/STM32Cube_FW_F4_V1.26.2/Middlewares/Third_Party/LwIP/src/core\tcp.c ****       if (tcp_active_pcbs_changed) {
 6233              		.loc 1 1409 7 view .LVU1884
1409:c:/Users/Black_Life/STM32Cube/Repository/STM32Cube_FW_F4_V1.26.2/Middlewares/Third_Party/LwIP/src/core\tcp.c ****       if (tcp_active_pcbs_changed) {
 6234              		.loc 1 1409 7 view .LVU1885
 6235 02d4 1DB1     		cbz	r5, .L548
1409:c:/Users/Black_Life/STM32Cube/Repository/STM32Cube_FW_F4_V1.26.2/Middlewares/Third_Party/LwIP/src/core\tcp.c ****       if (tcp_active_pcbs_changed) {
 6236              		.loc 1 1409 7 discriminator 1 view .LVU1886
 6237 02d6 6FF00C01 		mvn	r1, #12
 6238 02da 4046     		mov	r0, r8
 6239 02dc A847     		blx	r5
 6240              	.LVL604:
 6241              	.L548:
1409:c:/Users/Black_Life/STM32Cube/Repository/STM32Cube_FW_F4_V1.26.2/Middlewares/Third_Party/LwIP/src/core\tcp.c ****       if (tcp_active_pcbs_changed) {
 6242              		.loc 1 1409 7 discriminator 3 view .LVU1887
1410:c:/Users/Black_Life/STM32Cube/Repository/STM32Cube_FW_F4_V1.26.2/Middlewares/Third_Party/LwIP/src/core\tcp.c ****         goto tcp_slowtmr_start;
 6243              		.loc 1 1410 7 discriminator 3 view .LVU1888
1410:c:/Users/Black_Life/STM32Cube/Repository/STM32Cube_FW_F4_V1.26.2/Middlewares/Third_Party/LwIP/src/core\tcp.c ****         goto tcp_slowtmr_start;
 6244              		.loc 1 1410 11 is_stmt 0 discriminator 3 view .LVU1889
 6245 02de 664B     		ldr	r3, .L600+4
 6246 02e0 1B78     		ldrb	r3, [r3]	@ zero_extendqisi2
1410:c:/Users/Black_Life/STM32Cube/Repository/STM32Cube_FW_F4_V1.26.2/Middlewares/Third_Party/LwIP/src/core\tcp.c ****         goto tcp_slowtmr_start;
 6247              		.loc 1 1410 10 discriminator 3 view .LVU1890
 6248 02e2 002B     		cmp	r3, #0
 6249 02e4 7FF497AE 		bne	.L514
1405:c:/Users/Black_Life/STM32Cube/Repository/STM32Cube_FW_F4_V1.26.2/Middlewares/Third_Party/LwIP/src/core\tcp.c ****       tcp_free(pcb2);
 6250              		.loc 1 1405 11 view .LVU1891
 6251 02e8 3C46     		mov	r4, r7
 6252              	.LVL605:
1405:c:/Users/Black_Life/STM32Cube/Repository/STM32Cube_FW_F4_V1.26.2/Middlewares/Third_Party/LwIP/src/core\tcp.c ****       tcp_free(pcb2);
ARM GAS  C:\Users\BLACK_~1\AppData\Local\Temp\ccRovO0r.s 			page 185


 6253              		.loc 1 1405 11 view .LVU1892
 6254 02ea 2DE0     		b	.L516
 6255              	.LVL606:
 6256              	.L585:
1389:c:/Users/Black_Life/STM32Cube/Repository/STM32Cube_FW_F4_V1.26.2/Middlewares/Third_Party/LwIP/src/core\tcp.c ****         prev->next = pcb->next;
 6257              		.loc 1 1389 9 is_stmt 1 discriminator 1 view .LVU1893
1389:c:/Users/Black_Life/STM32Cube/Repository/STM32Cube_FW_F4_V1.26.2/Middlewares/Third_Party/LwIP/src/core\tcp.c ****         prev->next = pcb->next;
 6258              		.loc 1 1389 9 discriminator 1 view .LVU1894
 6259 02ec 634B     		ldr	r3, .L600+8
 6260 02ee 40F26D52 		movw	r2, #1389
 6261 02f2 6349     		ldr	r1, .L600+12
 6262 02f4 6348     		ldr	r0, .L600+16
 6263 02f6 FFF7FEFF 		bl	printf
 6264              	.LVL607:
 6265 02fa DFE7     		b	.L544
 6266              	.L543:
1393:c:/Users/Black_Life/STM32Cube/Repository/STM32Cube_FW_F4_V1.26.2/Middlewares/Third_Party/LwIP/src/core\tcp.c ****         tcp_active_pcbs = pcb->next;
 6267              		.loc 1 1393 9 view .LVU1895
1393:c:/Users/Black_Life/STM32Cube/Repository/STM32Cube_FW_F4_V1.26.2/Middlewares/Third_Party/LwIP/src/core\tcp.c ****         tcp_active_pcbs = pcb->next;
 6268              		.loc 1 1393 9 view .LVU1896
 6269 02fc 5D4B     		ldr	r3, .L600
 6270 02fe 1B68     		ldr	r3, [r3]
 6271 0300 A342     		cmp	r3, r4
 6272 0302 06D0     		beq	.L546
1393:c:/Users/Black_Life/STM32Cube/Repository/STM32Cube_FW_F4_V1.26.2/Middlewares/Third_Party/LwIP/src/core\tcp.c ****         tcp_active_pcbs = pcb->next;
 6273              		.loc 1 1393 9 discriminator 1 view .LVU1897
1393:c:/Users/Black_Life/STM32Cube/Repository/STM32Cube_FW_F4_V1.26.2/Middlewares/Third_Party/LwIP/src/core\tcp.c ****         tcp_active_pcbs = pcb->next;
 6274              		.loc 1 1393 9 discriminator 1 view .LVU1898
 6275 0304 5D4B     		ldr	r3, .L600+8
 6276 0306 40F27152 		movw	r2, #1393
 6277 030a 5F49     		ldr	r1, .L600+20
 6278 030c 5D48     		ldr	r0, .L600+16
 6279 030e FFF7FEFF 		bl	printf
 6280              	.LVL608:
 6281              	.L546:
1393:c:/Users/Black_Life/STM32Cube/Repository/STM32Cube_FW_F4_V1.26.2/Middlewares/Third_Party/LwIP/src/core\tcp.c ****         tcp_active_pcbs = pcb->next;
 6282              		.loc 1 1393 9 discriminator 3 view .LVU1899
1393:c:/Users/Black_Life/STM32Cube/Repository/STM32Cube_FW_F4_V1.26.2/Middlewares/Third_Party/LwIP/src/core\tcp.c ****         tcp_active_pcbs = pcb->next;
 6283              		.loc 1 1393 9 discriminator 3 view .LVU1900
1394:c:/Users/Black_Life/STM32Cube/Repository/STM32Cube_FW_F4_V1.26.2/Middlewares/Third_Party/LwIP/src/core\tcp.c ****       }
 6284              		.loc 1 1394 9 discriminator 3 view .LVU1901
1394:c:/Users/Black_Life/STM32Cube/Repository/STM32Cube_FW_F4_V1.26.2/Middlewares/Third_Party/LwIP/src/core\tcp.c ****       }
 6285              		.loc 1 1394 30 is_stmt 0 discriminator 3 view .LVU1902
 6286 0312 E268     		ldr	r2, [r4, #12]
1394:c:/Users/Black_Life/STM32Cube/Repository/STM32Cube_FW_F4_V1.26.2/Middlewares/Third_Party/LwIP/src/core\tcp.c ****       }
 6287              		.loc 1 1394 25 discriminator 3 view .LVU1903
 6288 0314 574B     		ldr	r3, .L600
 6289 0316 1A60     		str	r2, [r3]
 6290 0318 D2E7     		b	.L545
 6291              	.L586:
1398:c:/Users/Black_Life/STM32Cube/Repository/STM32Cube_FW_F4_V1.26.2/Middlewares/Third_Party/LwIP/src/core\tcp.c ****                 pcb->local_port, pcb->remote_port);
 6292              		.loc 1 1398 9 is_stmt 1 view .LVU1904
1398:c:/Users/Black_Life/STM32Cube/Repository/STM32Cube_FW_F4_V1.26.2/Middlewares/Third_Party/LwIP/src/core\tcp.c ****                 pcb->local_port, pcb->remote_port);
 6293              		.loc 1 1398 66 is_stmt 0 view .LVU1905
 6294 031a 231D     		adds	r3, r4, #4
1398:c:/Users/Black_Life/STM32Cube/Repository/STM32Cube_FW_F4_V1.26.2/Middlewares/Third_Party/LwIP/src/core\tcp.c ****                 pcb->local_port, pcb->remote_port);
 6295              		.loc 1 1398 9 view .LVU1906
ARM GAS  C:\Users\BLACK_~1\AppData\Local\Temp\ccRovO0r.s 			page 186


 6296 031c 626A     		ldr	r2, [r4, #36]
 6297 031e 216D     		ldr	r1, [r4, #80]
 6298 0320 208B     		ldrh	r0, [r4, #24]
 6299 0322 0290     		str	r0, [sp, #8]
 6300 0324 E08A     		ldrh	r0, [r4, #22]
 6301 0326 0190     		str	r0, [sp, #4]
 6302 0328 0093     		str	r3, [sp]
 6303 032a 2346     		mov	r3, r4
 6304 032c 2046     		mov	r0, r4
 6305 032e FFF7FEFF 		bl	tcp_rst
 6306              	.LVL609:
 6307 0332 C6E7     		b	.L547
 6308              	.LVL610:
 6309              	.L573:
1398:c:/Users/Black_Life/STM32Cube/Repository/STM32Cube_FW_F4_V1.26.2/Middlewares/Third_Party/LwIP/src/core\tcp.c ****                 pcb->local_port, pcb->remote_port);
 6310              		.loc 1 1398 9 view .LVU1907
 6311              	.LBE37:
1424:c:/Users/Black_Life/STM32Cube/Repository/STM32Cube_FW_F4_V1.26.2/Middlewares/Third_Party/LwIP/src/core\tcp.c ****         if (tcp_active_pcbs_changed) {
 6312              		.loc 1 1424 9 view .LVU1908
 6313 0334 0020     		movs	r0, #0
 6314 0336 3AE7     		b	.L549
 6315              	.LVL611:
 6316              	.L583:
1430:c:/Users/Black_Life/STM32Cube/Repository/STM32Cube_FW_F4_V1.26.2/Middlewares/Third_Party/LwIP/src/core\tcp.c ****         }
 6317              		.loc 1 1430 11 is_stmt 1 view .LVU1909
 6318 0338 2046     		mov	r0, r4
 6319              	.LVL612:
1430:c:/Users/Black_Life/STM32Cube/Repository/STM32Cube_FW_F4_V1.26.2/Middlewares/Third_Party/LwIP/src/core\tcp.c ****         }
 6320              		.loc 1 1430 11 is_stmt 0 view .LVU1910
 6321 033a FFF7FEFF 		bl	tcp_output
 6322              	.LVL613:
1415:c:/Users/Black_Life/STM32Cube/Repository/STM32Cube_FW_F4_V1.26.2/Middlewares/Third_Party/LwIP/src/core\tcp.c ****       pcb = pcb->next;
 6323              		.loc 1 1415 12 view .LVU1911
 6324 033e 2646     		mov	r6, r4
1416:c:/Users/Black_Life/STM32Cube/Repository/STM32Cube_FW_F4_V1.26.2/Middlewares/Third_Party/LwIP/src/core\tcp.c **** 
 6325              		.loc 1 1416 11 view .LVU1912
 6326 0340 2C46     		mov	r4, r5
 6327              	.LVL614:
1416:c:/Users/Black_Life/STM32Cube/Repository/STM32Cube_FW_F4_V1.26.2/Middlewares/Third_Party/LwIP/src/core\tcp.c **** 
 6328              		.loc 1 1416 11 view .LVU1913
 6329 0342 01E0     		b	.L516
 6330              	.LVL615:
 6331              	.L572:
1415:c:/Users/Black_Life/STM32Cube/Repository/STM32Cube_FW_F4_V1.26.2/Middlewares/Third_Party/LwIP/src/core\tcp.c ****       pcb = pcb->next;
 6332              		.loc 1 1415 12 view .LVU1914
 6333 0344 2646     		mov	r6, r4
1416:c:/Users/Black_Life/STM32Cube/Repository/STM32Cube_FW_F4_V1.26.2/Middlewares/Third_Party/LwIP/src/core\tcp.c **** 
 6334              		.loc 1 1416 11 view .LVU1915
 6335 0346 2C46     		mov	r4, r5
 6336              	.LVL616:
 6337              	.L516:
1212:c:/Users/Black_Life/STM32Cube/Repository/STM32Cube_FW_F4_V1.26.2/Middlewares/Third_Party/LwIP/src/core\tcp.c ****     LWIP_DEBUGF(TCP_DEBUG, ("tcp_slowtmr: processing active pcb\n"));
 6338              		.loc 1 1212 9 is_stmt 1 view .LVU1916
 6339 0348 002C     		cmp	r4, #0
 6340 034a 50D0     		beq	.L587
1213:c:/Users/Black_Life/STM32Cube/Repository/STM32Cube_FW_F4_V1.26.2/Middlewares/Third_Party/LwIP/src/core\tcp.c ****     LWIP_ASSERT("tcp_slowtmr: active pcb->state != CLOSED\n", pcb->state != CLOSED);
 6341              		.loc 1 1213 69 view .LVU1917
ARM GAS  C:\Users\BLACK_~1\AppData\Local\Temp\ccRovO0r.s 			page 187


1214:c:/Users/Black_Life/STM32Cube/Repository/STM32Cube_FW_F4_V1.26.2/Middlewares/Third_Party/LwIP/src/core\tcp.c ****     LWIP_ASSERT("tcp_slowtmr: active pcb->state != LISTEN\n", pcb->state != LISTEN);
 6342              		.loc 1 1214 5 view .LVU1918
1214:c:/Users/Black_Life/STM32Cube/Repository/STM32Cube_FW_F4_V1.26.2/Middlewares/Third_Party/LwIP/src/core\tcp.c ****     LWIP_ASSERT("tcp_slowtmr: active pcb->state != LISTEN\n", pcb->state != LISTEN);
 6343              		.loc 1 1214 5 view .LVU1919
 6344 034c 237D     		ldrb	r3, [r4, #20]	@ zero_extendqisi2
 6345 034e 002B     		cmp	r3, #0
 6346 0350 3FF465AE 		beq	.L588
 6347              	.L517:
1214:c:/Users/Black_Life/STM32Cube/Repository/STM32Cube_FW_F4_V1.26.2/Middlewares/Third_Party/LwIP/src/core\tcp.c ****     LWIP_ASSERT("tcp_slowtmr: active pcb->state != LISTEN\n", pcb->state != LISTEN);
 6348              		.loc 1 1214 5 discriminator 3 view .LVU1920
1214:c:/Users/Black_Life/STM32Cube/Repository/STM32Cube_FW_F4_V1.26.2/Middlewares/Third_Party/LwIP/src/core\tcp.c ****     LWIP_ASSERT("tcp_slowtmr: active pcb->state != LISTEN\n", pcb->state != LISTEN);
 6349              		.loc 1 1214 5 discriminator 3 view .LVU1921
1215:c:/Users/Black_Life/STM32Cube/Repository/STM32Cube_FW_F4_V1.26.2/Middlewares/Third_Party/LwIP/src/core\tcp.c ****     LWIP_ASSERT("tcp_slowtmr: active pcb->state != TIME-WAIT\n", pcb->state != TIME_WAIT);
 6350              		.loc 1 1215 5 discriminator 3 view .LVU1922
1215:c:/Users/Black_Life/STM32Cube/Repository/STM32Cube_FW_F4_V1.26.2/Middlewares/Third_Party/LwIP/src/core\tcp.c ****     LWIP_ASSERT("tcp_slowtmr: active pcb->state != TIME-WAIT\n", pcb->state != TIME_WAIT);
 6351              		.loc 1 1215 5 discriminator 3 view .LVU1923
 6352 0354 237D     		ldrb	r3, [r4, #20]	@ zero_extendqisi2
 6353 0356 012B     		cmp	r3, #1
 6354 0358 3FF469AE 		beq	.L589
 6355              	.L518:
1215:c:/Users/Black_Life/STM32Cube/Repository/STM32Cube_FW_F4_V1.26.2/Middlewares/Third_Party/LwIP/src/core\tcp.c ****     LWIP_ASSERT("tcp_slowtmr: active pcb->state != TIME-WAIT\n", pcb->state != TIME_WAIT);
 6356              		.loc 1 1215 5 discriminator 3 view .LVU1924
1215:c:/Users/Black_Life/STM32Cube/Repository/STM32Cube_FW_F4_V1.26.2/Middlewares/Third_Party/LwIP/src/core\tcp.c ****     LWIP_ASSERT("tcp_slowtmr: active pcb->state != TIME-WAIT\n", pcb->state != TIME_WAIT);
 6357              		.loc 1 1215 5 discriminator 3 view .LVU1925
1216:c:/Users/Black_Life/STM32Cube/Repository/STM32Cube_FW_F4_V1.26.2/Middlewares/Third_Party/LwIP/src/core\tcp.c ****     if (pcb->last_timer == tcp_timer_ctr) {
 6358              		.loc 1 1216 5 discriminator 3 view .LVU1926
1216:c:/Users/Black_Life/STM32Cube/Repository/STM32Cube_FW_F4_V1.26.2/Middlewares/Third_Party/LwIP/src/core\tcp.c ****     if (pcb->last_timer == tcp_timer_ctr) {
 6359              		.loc 1 1216 5 discriminator 3 view .LVU1927
 6360 035c 237D     		ldrb	r3, [r4, #20]	@ zero_extendqisi2
 6361 035e 0A2B     		cmp	r3, #10
 6362 0360 3FF46DAE 		beq	.L590
 6363              	.L519:
1216:c:/Users/Black_Life/STM32Cube/Repository/STM32Cube_FW_F4_V1.26.2/Middlewares/Third_Party/LwIP/src/core\tcp.c ****     if (pcb->last_timer == tcp_timer_ctr) {
 6364              		.loc 1 1216 5 discriminator 3 view .LVU1928
1216:c:/Users/Black_Life/STM32Cube/Repository/STM32Cube_FW_F4_V1.26.2/Middlewares/Third_Party/LwIP/src/core\tcp.c ****     if (pcb->last_timer == tcp_timer_ctr) {
 6365              		.loc 1 1216 5 discriminator 3 view .LVU1929
1217:c:/Users/Black_Life/STM32Cube/Repository/STM32Cube_FW_F4_V1.26.2/Middlewares/Third_Party/LwIP/src/core\tcp.c ****       /* skip this pcb, we have already processed it */
 6366              		.loc 1 1217 5 discriminator 3 view .LVU1930
1217:c:/Users/Black_Life/STM32Cube/Repository/STM32Cube_FW_F4_V1.26.2/Middlewares/Third_Party/LwIP/src/core\tcp.c ****       /* skip this pcb, we have already processed it */
 6367              		.loc 1 1217 12 is_stmt 0 discriminator 3 view .LVU1931
 6368 0364 A27F     		ldrb	r2, [r4, #30]	@ zero_extendqisi2
1217:c:/Users/Black_Life/STM32Cube/Repository/STM32Cube_FW_F4_V1.26.2/Middlewares/Third_Party/LwIP/src/core\tcp.c ****       /* skip this pcb, we have already processed it */
 6369              		.loc 1 1217 25 discriminator 3 view .LVU1932
 6370 0366 494B     		ldr	r3, .L600+24
 6371 0368 1B78     		ldrb	r3, [r3]	@ zero_extendqisi2
1217:c:/Users/Black_Life/STM32Cube/Repository/STM32Cube_FW_F4_V1.26.2/Middlewares/Third_Party/LwIP/src/core\tcp.c ****       /* skip this pcb, we have already processed it */
 6372              		.loc 1 1217 8 discriminator 3 view .LVU1933
 6373 036a 9A42     		cmp	r2, r3
 6374 036c 3FF46FAE 		beq	.L591
1223:c:/Users/Black_Life/STM32Cube/Repository/STM32Cube_FW_F4_V1.26.2/Middlewares/Third_Party/LwIP/src/core\tcp.c **** 
 6375              		.loc 1 1223 5 is_stmt 1 view .LVU1934
1223:c:/Users/Black_Life/STM32Cube/Repository/STM32Cube_FW_F4_V1.26.2/Middlewares/Third_Party/LwIP/src/core\tcp.c **** 
 6376              		.loc 1 1223 21 is_stmt 0 view .LVU1935
 6377 0370 A377     		strb	r3, [r4, #30]
1225:c:/Users/Black_Life/STM32Cube/Repository/STM32Cube_FW_F4_V1.26.2/Middlewares/Third_Party/LwIP/src/core\tcp.c ****     pcb_reset = 0;
 6378              		.loc 1 1225 5 is_stmt 1 view .LVU1936
 6379              	.LVL617:
ARM GAS  C:\Users\BLACK_~1\AppData\Local\Temp\ccRovO0r.s 			page 188


1226:c:/Users/Black_Life/STM32Cube/Repository/STM32Cube_FW_F4_V1.26.2/Middlewares/Third_Party/LwIP/src/core\tcp.c **** 
 6380              		.loc 1 1226 5 view .LVU1937
1228:c:/Users/Black_Life/STM32Cube/Repository/STM32Cube_FW_F4_V1.26.2/Middlewares/Third_Party/LwIP/src/core\tcp.c ****       ++pcb_remove;
 6381              		.loc 1 1228 5 view .LVU1938
1228:c:/Users/Black_Life/STM32Cube/Repository/STM32Cube_FW_F4_V1.26.2/Middlewares/Third_Party/LwIP/src/core\tcp.c ****       ++pcb_remove;
 6382              		.loc 1 1228 12 is_stmt 0 view .LVU1939
 6383 0372 237D     		ldrb	r3, [r4, #20]	@ zero_extendqisi2
1228:c:/Users/Black_Life/STM32Cube/Repository/STM32Cube_FW_F4_V1.26.2/Middlewares/Third_Party/LwIP/src/core\tcp.c ****       ++pcb_remove;
 6384              		.loc 1 1228 8 view .LVU1940
 6385 0374 022B     		cmp	r3, #2
 6386 0376 3FF46DAE 		beq	.L592
 6387              	.L522:
1231:c:/Users/Black_Life/STM32Cube/Repository/STM32Cube_FW_F4_V1.26.2/Middlewares/Third_Party/LwIP/src/core\tcp.c ****       ++pcb_remove;
 6388              		.loc 1 1231 12 is_stmt 1 view .LVU1941
1231:c:/Users/Black_Life/STM32Cube/Repository/STM32Cube_FW_F4_V1.26.2/Middlewares/Third_Party/LwIP/src/core\tcp.c ****       ++pcb_remove;
 6389              		.loc 1 1231 19 is_stmt 0 view .LVU1942
 6390 037a 94F84230 		ldrb	r3, [r4, #66]	@ zero_extendqisi2
1231:c:/Users/Black_Life/STM32Cube/Repository/STM32Cube_FW_F4_V1.26.2/Middlewares/Third_Party/LwIP/src/core\tcp.c ****       ++pcb_remove;
 6391              		.loc 1 1231 15 view .LVU1943
 6392 037e 0B2B     		cmp	r3, #11
 6393 0380 3FF6DEAE 		bhi	.L562
1235:c:/Users/Black_Life/STM32Cube/Repository/STM32Cube_FW_F4_V1.26.2/Middlewares/Third_Party/LwIP/src/core\tcp.c ****         LWIP_ASSERT("tcp_slowtimr: persist ticking with in-flight data", pcb->unacked == NULL);
 6394              		.loc 1 1235 7 is_stmt 1 view .LVU1944
1235:c:/Users/Black_Life/STM32Cube/Repository/STM32Cube_FW_F4_V1.26.2/Middlewares/Third_Party/LwIP/src/core\tcp.c ****         LWIP_ASSERT("tcp_slowtimr: persist ticking with in-flight data", pcb->unacked == NULL);
 6395              		.loc 1 1235 14 is_stmt 0 view .LVU1945
 6396 0384 94F89950 		ldrb	r5, [r4, #153]	@ zero_extendqisi2
1235:c:/Users/Black_Life/STM32Cube/Repository/STM32Cube_FW_F4_V1.26.2/Middlewares/Third_Party/LwIP/src/core\tcp.c ****         LWIP_ASSERT("tcp_slowtimr: persist ticking with in-flight data", pcb->unacked == NULL);
 6397              		.loc 1 1235 10 view .LVU1946
 6398 0388 002D     		cmp	r5, #0
 6399 038a 3FF48AAE 		beq	.L524
1236:c:/Users/Black_Life/STM32Cube/Repository/STM32Cube_FW_F4_V1.26.2/Middlewares/Third_Party/LwIP/src/core\tcp.c ****         LWIP_ASSERT("tcp_slowtimr: persist ticking with empty send buffer", pcb->unsent != NULL);
 6400              		.loc 1 1236 9 is_stmt 1 view .LVU1947
1236:c:/Users/Black_Life/STM32Cube/Repository/STM32Cube_FW_F4_V1.26.2/Middlewares/Third_Party/LwIP/src/core\tcp.c ****         LWIP_ASSERT("tcp_slowtimr: persist ticking with empty send buffer", pcb->unsent != NULL);
 6401              		.loc 1 1236 9 view .LVU1948
 6402 038e 236F     		ldr	r3, [r4, #112]
 6403 0390 33B1     		cbz	r3, .L525
1236:c:/Users/Black_Life/STM32Cube/Repository/STM32Cube_FW_F4_V1.26.2/Middlewares/Third_Party/LwIP/src/core\tcp.c ****         LWIP_ASSERT("tcp_slowtimr: persist ticking with empty send buffer", pcb->unsent != NULL);
 6404              		.loc 1 1236 9 discriminator 1 view .LVU1949
1236:c:/Users/Black_Life/STM32Cube/Repository/STM32Cube_FW_F4_V1.26.2/Middlewares/Third_Party/LwIP/src/core\tcp.c ****         LWIP_ASSERT("tcp_slowtimr: persist ticking with empty send buffer", pcb->unsent != NULL);
 6405              		.loc 1 1236 9 discriminator 1 view .LVU1950
 6406 0392 3A4B     		ldr	r3, .L600+8
 6407 0394 40F2D442 		movw	r2, #1236
 6408 0398 3D49     		ldr	r1, .L600+28
 6409 039a 3A48     		ldr	r0, .L600+16
 6410 039c FFF7FEFF 		bl	printf
 6411              	.LVL618:
 6412              	.L525:
1236:c:/Users/Black_Life/STM32Cube/Repository/STM32Cube_FW_F4_V1.26.2/Middlewares/Third_Party/LwIP/src/core\tcp.c ****         LWIP_ASSERT("tcp_slowtimr: persist ticking with empty send buffer", pcb->unsent != NULL);
 6413              		.loc 1 1236 9 discriminator 3 view .LVU1951
1236:c:/Users/Black_Life/STM32Cube/Repository/STM32Cube_FW_F4_V1.26.2/Middlewares/Third_Party/LwIP/src/core\tcp.c ****         LWIP_ASSERT("tcp_slowtimr: persist ticking with empty send buffer", pcb->unsent != NULL);
 6414              		.loc 1 1236 9 discriminator 3 view .LVU1952
1237:c:/Users/Black_Life/STM32Cube/Repository/STM32Cube_FW_F4_V1.26.2/Middlewares/Third_Party/LwIP/src/core\tcp.c ****         if (pcb->persist_probe >= TCP_MAXRTX) {
 6415              		.loc 1 1237 9 discriminator 3 view .LVU1953
1237:c:/Users/Black_Life/STM32Cube/Repository/STM32Cube_FW_F4_V1.26.2/Middlewares/Third_Party/LwIP/src/core\tcp.c ****         if (pcb->persist_probe >= TCP_MAXRTX) {
 6416              		.loc 1 1237 9 discriminator 3 view .LVU1954
 6417 03a0 E36E     		ldr	r3, [r4, #108]
 6418 03a2 002B     		cmp	r3, #0
ARM GAS  C:\Users\BLACK_~1\AppData\Local\Temp\ccRovO0r.s 			page 189


 6419 03a4 3FF45DAE 		beq	.L593
 6420              	.L526:
1237:c:/Users/Black_Life/STM32Cube/Repository/STM32Cube_FW_F4_V1.26.2/Middlewares/Third_Party/LwIP/src/core\tcp.c ****         if (pcb->persist_probe >= TCP_MAXRTX) {
 6421              		.loc 1 1237 9 discriminator 3 view .LVU1955
1237:c:/Users/Black_Life/STM32Cube/Repository/STM32Cube_FW_F4_V1.26.2/Middlewares/Third_Party/LwIP/src/core\tcp.c ****         if (pcb->persist_probe >= TCP_MAXRTX) {
 6422              		.loc 1 1237 9 discriminator 3 view .LVU1956
1238:c:/Users/Black_Life/STM32Cube/Repository/STM32Cube_FW_F4_V1.26.2/Middlewares/Third_Party/LwIP/src/core\tcp.c ****           ++pcb_remove; /* max probes reached */
 6423              		.loc 1 1238 9 discriminator 3 view .LVU1957
1238:c:/Users/Black_Life/STM32Cube/Repository/STM32Cube_FW_F4_V1.26.2/Middlewares/Third_Party/LwIP/src/core\tcp.c ****           ++pcb_remove; /* max probes reached */
 6424              		.loc 1 1238 16 is_stmt 0 discriminator 3 view .LVU1958
 6425 03a8 94F89A30 		ldrb	r3, [r4, #154]	@ zero_extendqisi2
1238:c:/Users/Black_Life/STM32Cube/Repository/STM32Cube_FW_F4_V1.26.2/Middlewares/Third_Party/LwIP/src/core\tcp.c ****           ++pcb_remove; /* max probes reached */
 6426              		.loc 1 1238 12 discriminator 3 view .LVU1959
 6427 03ac 0B2B     		cmp	r3, #11
 6428 03ae 3FF609AF 		bhi	.L563
 6429              	.LBB38:
1241:c:/Users/Black_Life/STM32Cube/Repository/STM32Cube_FW_F4_V1.26.2/Middlewares/Third_Party/LwIP/src/core\tcp.c ****           if (pcb->persist_cnt < backoff_cnt) {
 6430              		.loc 1 1241 11 is_stmt 1 view .LVU1960
1241:c:/Users/Black_Life/STM32Cube/Repository/STM32Cube_FW_F4_V1.26.2/Middlewares/Third_Party/LwIP/src/core\tcp.c ****           if (pcb->persist_cnt < backoff_cnt) {
 6431              		.loc 1 1241 53 is_stmt 0 view .LVU1961
 6432 03b2 94F89930 		ldrb	r3, [r4, #153]	@ zero_extendqisi2
1241:c:/Users/Black_Life/STM32Cube/Repository/STM32Cube_FW_F4_V1.26.2/Middlewares/Third_Party/LwIP/src/core\tcp.c ****           if (pcb->persist_cnt < backoff_cnt) {
 6433              		.loc 1 1241 71 view .LVU1962
 6434 03b6 013B     		subs	r3, r3, #1
1241:c:/Users/Black_Life/STM32Cube/Repository/STM32Cube_FW_F4_V1.26.2/Middlewares/Third_Party/LwIP/src/core\tcp.c ****           if (pcb->persist_cnt < backoff_cnt) {
 6435              		.loc 1 1241 16 view .LVU1963
 6436 03b8 364A     		ldr	r2, .L600+32
 6437 03ba D25C     		ldrb	r2, [r2, r3]	@ zero_extendqisi2
 6438              	.LVL619:
1242:c:/Users/Black_Life/STM32Cube/Repository/STM32Cube_FW_F4_V1.26.2/Middlewares/Third_Party/LwIP/src/core\tcp.c ****             pcb->persist_cnt++;
 6439              		.loc 1 1242 11 is_stmt 1 view .LVU1964
1242:c:/Users/Black_Life/STM32Cube/Repository/STM32Cube_FW_F4_V1.26.2/Middlewares/Third_Party/LwIP/src/core\tcp.c ****             pcb->persist_cnt++;
 6440              		.loc 1 1242 18 is_stmt 0 view .LVU1965
 6441 03bc 94F89830 		ldrb	r3, [r4, #152]	@ zero_extendqisi2
1242:c:/Users/Black_Life/STM32Cube/Repository/STM32Cube_FW_F4_V1.26.2/Middlewares/Third_Party/LwIP/src/core\tcp.c ****             pcb->persist_cnt++;
 6442              		.loc 1 1242 14 view .LVU1966
 6443 03c0 9342     		cmp	r3, r2
 6444 03c2 02D2     		bcs	.L527
1243:c:/Users/Black_Life/STM32Cube/Repository/STM32Cube_FW_F4_V1.26.2/Middlewares/Third_Party/LwIP/src/core\tcp.c ****           }
 6445              		.loc 1 1243 13 is_stmt 1 view .LVU1967
1243:c:/Users/Black_Life/STM32Cube/Repository/STM32Cube_FW_F4_V1.26.2/Middlewares/Third_Party/LwIP/src/core\tcp.c ****           }
 6446              		.loc 1 1243 29 is_stmt 0 view .LVU1968
 6447 03c4 0133     		adds	r3, r3, #1
 6448 03c6 84F89830 		strb	r3, [r4, #152]
 6449              	.L527:
1245:c:/Users/Black_Life/STM32Cube/Repository/STM32Cube_FW_F4_V1.26.2/Middlewares/Third_Party/LwIP/src/core\tcp.c ****             int next_slot = 1; /* increment timer to next slot */
 6450              		.loc 1 1245 11 is_stmt 1 view .LVU1969
1245:c:/Users/Black_Life/STM32Cube/Repository/STM32Cube_FW_F4_V1.26.2/Middlewares/Third_Party/LwIP/src/core\tcp.c ****             int next_slot = 1; /* increment timer to next slot */
 6451              		.loc 1 1245 18 is_stmt 0 view .LVU1970
 6452 03ca 94F89830 		ldrb	r3, [r4, #152]	@ zero_extendqisi2
1245:c:/Users/Black_Life/STM32Cube/Repository/STM32Cube_FW_F4_V1.26.2/Middlewares/Third_Party/LwIP/src/core\tcp.c ****             int next_slot = 1; /* increment timer to next slot */
 6453              		.loc 1 1245 14 view .LVU1971
 6454 03ce 9342     		cmp	r3, r2
 6455 03d0 FFF4FAAE 		bcc	.L564
 6456              	.LBB33:
1246:c:/Users/Black_Life/STM32Cube/Repository/STM32Cube_FW_F4_V1.26.2/Middlewares/Third_Party/LwIP/src/core\tcp.c ****             /* If snd_wnd is zero, send 1 byte probes */
 6457              		.loc 1 1246 13 is_stmt 1 view .LVU1972
ARM GAS  C:\Users\BLACK_~1\AppData\Local\Temp\ccRovO0r.s 			page 190


 6458              	.LVL620:
1248:c:/Users/Black_Life/STM32Cube/Repository/STM32Cube_FW_F4_V1.26.2/Middlewares/Third_Party/LwIP/src/core\tcp.c ****               if (tcp_zero_window_probe(pcb) != ERR_OK) {
 6459              		.loc 1 1248 13 view .LVU1973
1248:c:/Users/Black_Life/STM32Cube/Repository/STM32Cube_FW_F4_V1.26.2/Middlewares/Third_Party/LwIP/src/core\tcp.c ****               if (tcp_zero_window_probe(pcb) != ERR_OK) {
 6460              		.loc 1 1248 20 is_stmt 0 view .LVU1974
 6461 03d4 B4F86010 		ldrh	r1, [r4, #96]
1248:c:/Users/Black_Life/STM32Cube/Repository/STM32Cube_FW_F4_V1.26.2/Middlewares/Third_Party/LwIP/src/core\tcp.c ****               if (tcp_zero_window_probe(pcb) != ERR_OK) {
 6462              		.loc 1 1248 16 view .LVU1975
 6463 03d8 0029     		cmp	r1, #0
 6464 03da 7FF44AAE 		bne	.L528
1249:c:/Users/Black_Life/STM32Cube/Repository/STM32Cube_FW_F4_V1.26.2/Middlewares/Third_Party/LwIP/src/core\tcp.c ****                 next_slot = 0; /* try probe again with current slot */
 6465              		.loc 1 1249 15 is_stmt 1 view .LVU1976
1249:c:/Users/Black_Life/STM32Cube/Repository/STM32Cube_FW_F4_V1.26.2/Middlewares/Third_Party/LwIP/src/core\tcp.c ****                 next_slot = 0; /* try probe again with current slot */
 6466              		.loc 1 1249 19 is_stmt 0 view .LVU1977
 6467 03de 2046     		mov	r0, r4
 6468 03e0 FFF7FEFF 		bl	tcp_zero_window_probe
 6469              	.LVL621:
1249:c:/Users/Black_Life/STM32Cube/Repository/STM32Cube_FW_F4_V1.26.2/Middlewares/Third_Party/LwIP/src/core\tcp.c ****                 next_slot = 0; /* try probe again with current slot */
 6470              		.loc 1 1249 18 view .LVU1978
 6471 03e4 0028     		cmp	r0, #0
 6472 03e6 3FF448AE 		beq	.L529
 6473              	.LBE33:
 6474              	.LBE38:
1225:c:/Users/Black_Life/STM32Cube/Repository/STM32Cube_FW_F4_V1.26.2/Middlewares/Third_Party/LwIP/src/core\tcp.c ****     pcb_reset = 0;
 6475              		.loc 1 1225 16 view .LVU1979
 6476 03ea 0025     		movs	r5, #0
 6477 03ec A9E6     		b	.L523
 6478              	.LVL622:
 6479              	.L587:
1438:c:/Users/Black_Life/STM32Cube/Repository/STM32Cube_FW_F4_V1.26.2/Middlewares/Third_Party/LwIP/src/core\tcp.c ****   pcb = tcp_tw_pcbs;
 6480              		.loc 1 1438 3 is_stmt 1 view .LVU1980
1439:c:/Users/Black_Life/STM32Cube/Repository/STM32Cube_FW_F4_V1.26.2/Middlewares/Third_Party/LwIP/src/core\tcp.c ****   while (pcb != NULL) {
 6481              		.loc 1 1439 3 view .LVU1981
1439:c:/Users/Black_Life/STM32Cube/Repository/STM32Cube_FW_F4_V1.26.2/Middlewares/Third_Party/LwIP/src/core\tcp.c ****   while (pcb != NULL) {
 6482              		.loc 1 1439 7 is_stmt 0 view .LVU1982
 6483 03ee 2A4B     		ldr	r3, .L600+36
 6484 03f0 1D68     		ldr	r5, [r3]
 6485              	.LVL623:
1440:c:/Users/Black_Life/STM32Cube/Repository/STM32Cube_FW_F4_V1.26.2/Middlewares/Third_Party/LwIP/src/core\tcp.c ****     LWIP_ASSERT("tcp_slowtmr: TIME-WAIT pcb->state == TIME-WAIT", pcb->state == TIME_WAIT);
 6486              		.loc 1 1440 3 is_stmt 1 view .LVU1983
1440:c:/Users/Black_Life/STM32Cube/Repository/STM32Cube_FW_F4_V1.26.2/Middlewares/Third_Party/LwIP/src/core\tcp.c ****     LWIP_ASSERT("tcp_slowtmr: TIME-WAIT pcb->state == TIME-WAIT", pcb->state == TIME_WAIT);
 6487              		.loc 1 1440 9 is_stmt 0 view .LVU1984
 6488 03f2 07E0     		b	.L551
 6489              	.LVL624:
 6490              	.L552:
1441:c:/Users/Black_Life/STM32Cube/Repository/STM32Cube_FW_F4_V1.26.2/Middlewares/Third_Party/LwIP/src/core\tcp.c ****     pcb_remove = 0;
 6491              		.loc 1 1441 5 is_stmt 1 discriminator 3 view .LVU1985
1441:c:/Users/Black_Life/STM32Cube/Repository/STM32Cube_FW_F4_V1.26.2/Middlewares/Third_Party/LwIP/src/core\tcp.c ****     pcb_remove = 0;
 6492              		.loc 1 1441 5 discriminator 3 view .LVU1986
1442:c:/Users/Black_Life/STM32Cube/Repository/STM32Cube_FW_F4_V1.26.2/Middlewares/Third_Party/LwIP/src/core\tcp.c **** 
 6493              		.loc 1 1442 5 discriminator 3 view .LVU1987
1445:c:/Users/Black_Life/STM32Cube/Repository/STM32Cube_FW_F4_V1.26.2/Middlewares/Third_Party/LwIP/src/core\tcp.c ****       ++pcb_remove;
 6494              		.loc 1 1445 5 discriminator 3 view .LVU1988
1445:c:/Users/Black_Life/STM32Cube/Repository/STM32Cube_FW_F4_V1.26.2/Middlewares/Third_Party/LwIP/src/core\tcp.c ****       ++pcb_remove;
 6495              		.loc 1 1445 32 is_stmt 0 discriminator 3 view .LVU1989
 6496 03f4 2A6A     		ldr	r2, [r5, #32]
1445:c:/Users/Black_Life/STM32Cube/Repository/STM32Cube_FW_F4_V1.26.2/Middlewares/Third_Party/LwIP/src/core\tcp.c ****       ++pcb_remove;
ARM GAS  C:\Users\BLACK_~1\AppData\Local\Temp\ccRovO0r.s 			page 191


 6497              		.loc 1 1445 27 discriminator 3 view .LVU1990
 6498 03f6 294B     		ldr	r3, .L600+40
 6499 03f8 1B68     		ldr	r3, [r3]
 6500 03fa 9B1A     		subs	r3, r3, r2
1445:c:/Users/Black_Life/STM32Cube/Repository/STM32Cube_FW_F4_V1.26.2/Middlewares/Third_Party/LwIP/src/core\tcp.c ****       ++pcb_remove;
 6501              		.loc 1 1445 8 discriminator 3 view .LVU1991
 6502 03fc F02B     		cmp	r3, #240
 6503 03fe 0ED8     		bhi	.L594
1450:c:/Users/Black_Life/STM32Cube/Repository/STM32Cube_FW_F4_V1.26.2/Middlewares/Third_Party/LwIP/src/core\tcp.c ****       struct tcp_pcb *pcb2;
 6504              		.loc 1 1450 5 is_stmt 1 view .LVU1992
1466:c:/Users/Black_Life/STM32Cube/Repository/STM32Cube_FW_F4_V1.26.2/Middlewares/Third_Party/LwIP/src/core\tcp.c ****       pcb = pcb->next;
 6505              		.loc 1 1466 7 view .LVU1993
 6506              	.LVL625:
1467:c:/Users/Black_Life/STM32Cube/Repository/STM32Cube_FW_F4_V1.26.2/Middlewares/Third_Party/LwIP/src/core\tcp.c ****     }
 6507              		.loc 1 1467 7 view .LVU1994
1466:c:/Users/Black_Life/STM32Cube/Repository/STM32Cube_FW_F4_V1.26.2/Middlewares/Third_Party/LwIP/src/core\tcp.c ****       pcb = pcb->next;
 6508              		.loc 1 1466 12 is_stmt 0 view .LVU1995
 6509 0400 2C46     		mov	r4, r5
1467:c:/Users/Black_Life/STM32Cube/Repository/STM32Cube_FW_F4_V1.26.2/Middlewares/Third_Party/LwIP/src/core\tcp.c ****     }
 6510              		.loc 1 1467 11 view .LVU1996
 6511 0402 ED68     		ldr	r5, [r5, #12]
 6512              	.LVL626:
 6513              	.L551:
1440:c:/Users/Black_Life/STM32Cube/Repository/STM32Cube_FW_F4_V1.26.2/Middlewares/Third_Party/LwIP/src/core\tcp.c ****     LWIP_ASSERT("tcp_slowtmr: TIME-WAIT pcb->state == TIME-WAIT", pcb->state == TIME_WAIT);
 6514              		.loc 1 1440 9 is_stmt 1 view .LVU1997
 6515 0404 002D     		cmp	r5, #0
 6516 0406 31D0     		beq	.L595
1441:c:/Users/Black_Life/STM32Cube/Repository/STM32Cube_FW_F4_V1.26.2/Middlewares/Third_Party/LwIP/src/core\tcp.c ****     pcb_remove = 0;
 6517              		.loc 1 1441 5 view .LVU1998
1441:c:/Users/Black_Life/STM32Cube/Repository/STM32Cube_FW_F4_V1.26.2/Middlewares/Third_Party/LwIP/src/core\tcp.c ****     pcb_remove = 0;
 6518              		.loc 1 1441 5 view .LVU1999
 6519 0408 2B7D     		ldrb	r3, [r5, #20]	@ zero_extendqisi2
 6520 040a 0A2B     		cmp	r3, #10
 6521 040c F2D0     		beq	.L552
1441:c:/Users/Black_Life/STM32Cube/Repository/STM32Cube_FW_F4_V1.26.2/Middlewares/Third_Party/LwIP/src/core\tcp.c ****     pcb_remove = 0;
 6522              		.loc 1 1441 5 discriminator 1 view .LVU2000
1441:c:/Users/Black_Life/STM32Cube/Repository/STM32Cube_FW_F4_V1.26.2/Middlewares/Third_Party/LwIP/src/core\tcp.c ****     pcb_remove = 0;
 6523              		.loc 1 1441 5 discriminator 1 view .LVU2001
 6524 040e 1B4B     		ldr	r3, .L600+8
 6525 0410 40F2A152 		movw	r2, #1441
 6526 0414 2249     		ldr	r1, .L600+44
 6527 0416 1B48     		ldr	r0, .L600+16
 6528 0418 FFF7FEFF 		bl	printf
 6529              	.LVL627:
 6530 041c EAE7     		b	.L552
 6531              	.LVL628:
 6532              	.L594:
1446:c:/Users/Black_Life/STM32Cube/Repository/STM32Cube_FW_F4_V1.26.2/Middlewares/Third_Party/LwIP/src/core\tcp.c ****     }
 6533              		.loc 1 1446 7 view .LVU2002
1450:c:/Users/Black_Life/STM32Cube/Repository/STM32Cube_FW_F4_V1.26.2/Middlewares/Third_Party/LwIP/src/core\tcp.c ****       struct tcp_pcb *pcb2;
 6534              		.loc 1 1450 5 view .LVU2003
 6535              	.LBB39:
1451:c:/Users/Black_Life/STM32Cube/Repository/STM32Cube_FW_F4_V1.26.2/Middlewares/Third_Party/LwIP/src/core\tcp.c ****       tcp_pcb_purge(pcb);
 6536              		.loc 1 1451 7 view .LVU2004
1452:c:/Users/Black_Life/STM32Cube/Repository/STM32Cube_FW_F4_V1.26.2/Middlewares/Third_Party/LwIP/src/core\tcp.c ****       /* Remove PCB from tcp_tw_pcbs list. */
 6537              		.loc 1 1452 7 view .LVU2005
 6538 041e 2846     		mov	r0, r5
ARM GAS  C:\Users\BLACK_~1\AppData\Local\Temp\ccRovO0r.s 			page 192


 6539 0420 FFF7FEFF 		bl	tcp_pcb_purge
 6540              	.LVL629:
1454:c:/Users/Black_Life/STM32Cube/Repository/STM32Cube_FW_F4_V1.26.2/Middlewares/Third_Party/LwIP/src/core\tcp.c ****         LWIP_ASSERT("tcp_slowtmr: middle tcp != tcp_tw_pcbs", pcb != tcp_tw_pcbs);
 6541              		.loc 1 1454 7 view .LVU2006
1454:c:/Users/Black_Life/STM32Cube/Repository/STM32Cube_FW_F4_V1.26.2/Middlewares/Third_Party/LwIP/src/core\tcp.c ****         LWIP_ASSERT("tcp_slowtmr: middle tcp != tcp_tw_pcbs", pcb != tcp_tw_pcbs);
 6542              		.loc 1 1454 10 is_stmt 0 view .LVU2007
 6543 0424 9CB1     		cbz	r4, .L596
1455:c:/Users/Black_Life/STM32Cube/Repository/STM32Cube_FW_F4_V1.26.2/Middlewares/Third_Party/LwIP/src/core\tcp.c ****         prev->next = pcb->next;
 6544              		.loc 1 1455 9 is_stmt 1 view .LVU2008
1455:c:/Users/Black_Life/STM32Cube/Repository/STM32Cube_FW_F4_V1.26.2/Middlewares/Third_Party/LwIP/src/core\tcp.c ****         prev->next = pcb->next;
 6545              		.loc 1 1455 9 view .LVU2009
 6546 0426 1C4B     		ldr	r3, .L600+36
 6547 0428 1B68     		ldr	r3, [r3]
 6548 042a AB42     		cmp	r3, r5
 6549 042c 07D0     		beq	.L597
 6550              	.L557:
1455:c:/Users/Black_Life/STM32Cube/Repository/STM32Cube_FW_F4_V1.26.2/Middlewares/Third_Party/LwIP/src/core\tcp.c ****         prev->next = pcb->next;
 6551              		.loc 1 1455 9 discriminator 3 view .LVU2010
1455:c:/Users/Black_Life/STM32Cube/Repository/STM32Cube_FW_F4_V1.26.2/Middlewares/Third_Party/LwIP/src/core\tcp.c ****         prev->next = pcb->next;
 6552              		.loc 1 1455 9 discriminator 3 view .LVU2011
1456:c:/Users/Black_Life/STM32Cube/Repository/STM32Cube_FW_F4_V1.26.2/Middlewares/Third_Party/LwIP/src/core\tcp.c ****       } else {
 6553              		.loc 1 1456 9 discriminator 3 view .LVU2012
1456:c:/Users/Black_Life/STM32Cube/Repository/STM32Cube_FW_F4_V1.26.2/Middlewares/Third_Party/LwIP/src/core\tcp.c ****       } else {
 6554              		.loc 1 1456 25 is_stmt 0 discriminator 3 view .LVU2013
 6555 042e EB68     		ldr	r3, [r5, #12]
1456:c:/Users/Black_Life/STM32Cube/Repository/STM32Cube_FW_F4_V1.26.2/Middlewares/Third_Party/LwIP/src/core\tcp.c ****       } else {
 6556              		.loc 1 1456 20 discriminator 3 view .LVU2014
 6557 0430 E360     		str	r3, [r4, #12]
 6558              	.L558:
1462:c:/Users/Black_Life/STM32Cube/Repository/STM32Cube_FW_F4_V1.26.2/Middlewares/Third_Party/LwIP/src/core\tcp.c ****       pcb = pcb->next;
 6559              		.loc 1 1462 7 is_stmt 1 view .LVU2015
 6560              	.LVL630:
1463:c:/Users/Black_Life/STM32Cube/Repository/STM32Cube_FW_F4_V1.26.2/Middlewares/Third_Party/LwIP/src/core\tcp.c ****       tcp_free(pcb2);
 6561              		.loc 1 1463 7 view .LVU2016
1463:c:/Users/Black_Life/STM32Cube/Repository/STM32Cube_FW_F4_V1.26.2/Middlewares/Third_Party/LwIP/src/core\tcp.c ****       tcp_free(pcb2);
 6562              		.loc 1 1463 11 is_stmt 0 view .LVU2017
 6563 0432 EE68     		ldr	r6, [r5, #12]
 6564              	.LVL631:
1464:c:/Users/Black_Life/STM32Cube/Repository/STM32Cube_FW_F4_V1.26.2/Middlewares/Third_Party/LwIP/src/core\tcp.c ****     } else {
 6565              		.loc 1 1464 7 is_stmt 1 view .LVU2018
 6566 0434 2846     		mov	r0, r5
 6567 0436 FFF7FEFF 		bl	tcp_free
 6568              	.LVL632:
1463:c:/Users/Black_Life/STM32Cube/Repository/STM32Cube_FW_F4_V1.26.2/Middlewares/Third_Party/LwIP/src/core\tcp.c ****       tcp_free(pcb2);
 6569              		.loc 1 1463 11 is_stmt 0 view .LVU2019
 6570 043a 3546     		mov	r5, r6
 6571              	.LVL633:
1463:c:/Users/Black_Life/STM32Cube/Repository/STM32Cube_FW_F4_V1.26.2/Middlewares/Third_Party/LwIP/src/core\tcp.c ****       tcp_free(pcb2);
 6572              		.loc 1 1463 11 view .LVU2020
 6573              	.LBE39:
 6574 043c E2E7     		b	.L551
 6575              	.LVL634:
 6576              	.L597:
 6577              	.LBB40:
1455:c:/Users/Black_Life/STM32Cube/Repository/STM32Cube_FW_F4_V1.26.2/Middlewares/Third_Party/LwIP/src/core\tcp.c ****         prev->next = pcb->next;
 6578              		.loc 1 1455 9 is_stmt 1 discriminator 1 view .LVU2021
1455:c:/Users/Black_Life/STM32Cube/Repository/STM32Cube_FW_F4_V1.26.2/Middlewares/Third_Party/LwIP/src/core\tcp.c ****         prev->next = pcb->next;
ARM GAS  C:\Users\BLACK_~1\AppData\Local\Temp\ccRovO0r.s 			page 193


 6579              		.loc 1 1455 9 discriminator 1 view .LVU2022
 6580 043e 0F4B     		ldr	r3, .L600+8
 6581 0440 40F2AF52 		movw	r2, #1455
 6582 0444 1749     		ldr	r1, .L600+48
 6583 0446 0F48     		ldr	r0, .L600+16
 6584 0448 FFF7FEFF 		bl	printf
 6585              	.LVL635:
 6586 044c EFE7     		b	.L557
 6587              	.L596:
1459:c:/Users/Black_Life/STM32Cube/Repository/STM32Cube_FW_F4_V1.26.2/Middlewares/Third_Party/LwIP/src/core\tcp.c ****         tcp_tw_pcbs = pcb->next;
 6588              		.loc 1 1459 9 view .LVU2023
1459:c:/Users/Black_Life/STM32Cube/Repository/STM32Cube_FW_F4_V1.26.2/Middlewares/Third_Party/LwIP/src/core\tcp.c ****         tcp_tw_pcbs = pcb->next;
 6589              		.loc 1 1459 9 view .LVU2024
 6590 044e 124B     		ldr	r3, .L600+36
 6591 0450 1B68     		ldr	r3, [r3]
 6592 0452 AB42     		cmp	r3, r5
 6593 0454 06D0     		beq	.L559
1459:c:/Users/Black_Life/STM32Cube/Repository/STM32Cube_FW_F4_V1.26.2/Middlewares/Third_Party/LwIP/src/core\tcp.c ****         tcp_tw_pcbs = pcb->next;
 6594              		.loc 1 1459 9 discriminator 1 view .LVU2025
1459:c:/Users/Black_Life/STM32Cube/Repository/STM32Cube_FW_F4_V1.26.2/Middlewares/Third_Party/LwIP/src/core\tcp.c ****         tcp_tw_pcbs = pcb->next;
 6595              		.loc 1 1459 9 discriminator 1 view .LVU2026
 6596 0456 094B     		ldr	r3, .L600+8
 6597 0458 40F2B352 		movw	r2, #1459
 6598 045c 1249     		ldr	r1, .L600+52
 6599 045e 0948     		ldr	r0, .L600+16
 6600 0460 FFF7FEFF 		bl	printf
 6601              	.LVL636:
 6602              	.L559:
1459:c:/Users/Black_Life/STM32Cube/Repository/STM32Cube_FW_F4_V1.26.2/Middlewares/Third_Party/LwIP/src/core\tcp.c ****         tcp_tw_pcbs = pcb->next;
 6603              		.loc 1 1459 9 discriminator 3 view .LVU2027
1459:c:/Users/Black_Life/STM32Cube/Repository/STM32Cube_FW_F4_V1.26.2/Middlewares/Third_Party/LwIP/src/core\tcp.c ****         tcp_tw_pcbs = pcb->next;
 6604              		.loc 1 1459 9 discriminator 3 view .LVU2028
1460:c:/Users/Black_Life/STM32Cube/Repository/STM32Cube_FW_F4_V1.26.2/Middlewares/Third_Party/LwIP/src/core\tcp.c ****       }
 6605              		.loc 1 1460 9 discriminator 3 view .LVU2029
1460:c:/Users/Black_Life/STM32Cube/Repository/STM32Cube_FW_F4_V1.26.2/Middlewares/Third_Party/LwIP/src/core\tcp.c ****       }
 6606              		.loc 1 1460 26 is_stmt 0 discriminator 3 view .LVU2030
 6607 0464 EA68     		ldr	r2, [r5, #12]
1460:c:/Users/Black_Life/STM32Cube/Repository/STM32Cube_FW_F4_V1.26.2/Middlewares/Third_Party/LwIP/src/core\tcp.c ****       }
 6608              		.loc 1 1460 21 discriminator 3 view .LVU2031
 6609 0466 0C4B     		ldr	r3, .L600+36
 6610 0468 1A60     		str	r2, [r3]
 6611 046a E2E7     		b	.L558
 6612              	.LVL637:
 6613              	.L595:
1460:c:/Users/Black_Life/STM32Cube/Repository/STM32Cube_FW_F4_V1.26.2/Middlewares/Third_Party/LwIP/src/core\tcp.c ****       }
 6614              		.loc 1 1460 21 discriminator 3 view .LVU2032
 6615              	.LBE40:
1470:c:/Users/Black_Life/STM32Cube/Repository/STM32Cube_FW_F4_V1.26.2/Middlewares/Third_Party/LwIP/src/core\tcp.c **** 
 6616              		.loc 1 1470 1 view .LVU2033
 6617 046c 04B0     		add	sp, sp, #16
 6618              	.LCFI59:
 6619              		.cfi_def_cfa_offset 24
 6620              		@ sp needed
 6621 046e BDE8F081 		pop	{r4, r5, r6, r7, r8, pc}
 6622              	.LVL638:
 6623              	.L601:
1470:c:/Users/Black_Life/STM32Cube/Repository/STM32Cube_FW_F4_V1.26.2/Middlewares/Third_Party/LwIP/src/core\tcp.c **** 
ARM GAS  C:\Users\BLACK_~1\AppData\Local\Temp\ccRovO0r.s 			page 194


 6624              		.loc 1 1470 1 view .LVU2034
 6625 0472 00BF     		.align	2
 6626              	.L600:
 6627 0474 00000000 		.word	.LANCHOR2
 6628 0478 00000000 		.word	.LANCHOR7
 6629 047c 00000000 		.word	.LC0
 6630 0480 F4000000 		.word	.LC49
 6631 0484 98000000 		.word	.LC2
 6632 0488 20010000 		.word	.LC50
 6633 048c 00000000 		.word	.LANCHOR10
 6634 0490 88000000 		.word	.LC47
 6635 0494 00000000 		.word	.LANCHOR11
 6636 0498 00000000 		.word	.LANCHOR9
 6637 049c 00000000 		.word	.LANCHOR6
 6638 04a0 4C010000 		.word	.LC51
 6639 04a4 7C010000 		.word	.LC52
 6640 04a8 A4010000 		.word	.LC53
 6641              		.cfi_endproc
 6642              	.LFE177:
 6644              		.section	.text.tcp_tmr,"ax",%progbits
 6645              		.align	1
 6646              		.global	tcp_tmr
 6647              		.syntax unified
 6648              		.thumb
 6649              		.thumb_func
 6651              	tcp_tmr:
 6652              	.LFB159:
 235:c:/Users/Black_Life/STM32Cube/Repository/STM32Cube_FW_F4_V1.26.2/Middlewares/Third_Party/LwIP/src/core\tcp.c ****   /* Call tcp_fasttmr() every 250 ms */
 6653              		.loc 1 235 1 is_stmt 1 view -0
 6654              		.cfi_startproc
 6655              		@ args = 0, pretend = 0, frame = 0
 6656              		@ frame_needed = 0, uses_anonymous_args = 0
 6657 0000 08B5     		push	{r3, lr}
 6658              	.LCFI60:
 6659              		.cfi_def_cfa_offset 8
 6660              		.cfi_offset 3, -8
 6661              		.cfi_offset 14, -4
 237:c:/Users/Black_Life/STM32Cube/Repository/STM32Cube_FW_F4_V1.26.2/Middlewares/Third_Party/LwIP/src/core\tcp.c **** 
 6662              		.loc 1 237 3 view .LVU2036
 6663 0002 FFF7FEFF 		bl	tcp_fasttmr
 6664              	.LVL639:
 239:c:/Users/Black_Life/STM32Cube/Repository/STM32Cube_FW_F4_V1.26.2/Middlewares/Third_Party/LwIP/src/core\tcp.c ****     /* Call tcp_slowtmr() every 500 ms, i.e., every other timer
 6665              		.loc 1 239 3 view .LVU2037
 239:c:/Users/Black_Life/STM32Cube/Repository/STM32Cube_FW_F4_V1.26.2/Middlewares/Third_Party/LwIP/src/core\tcp.c ****     /* Call tcp_slowtmr() every 500 ms, i.e., every other timer
 6666              		.loc 1 239 7 is_stmt 0 view .LVU2038
 6667 0006 064A     		ldr	r2, .L606
 6668 0008 1378     		ldrb	r3, [r2]	@ zero_extendqisi2
 6669 000a 0133     		adds	r3, r3, #1
 6670 000c DBB2     		uxtb	r3, r3
 239:c:/Users/Black_Life/STM32Cube/Repository/STM32Cube_FW_F4_V1.26.2/Middlewares/Third_Party/LwIP/src/core\tcp.c ****     /* Call tcp_slowtmr() every 500 ms, i.e., every other timer
 6671              		.loc 1 239 6 view .LVU2039
 6672 000e 1370     		strb	r3, [r2]
 6673 0010 13F0010F 		tst	r3, #1
 6674 0014 00D1     		bne	.L605
 6675              	.L602:
 244:c:/Users/Black_Life/STM32Cube/Repository/STM32Cube_FW_F4_V1.26.2/Middlewares/Third_Party/LwIP/src/core\tcp.c **** 
 6676              		.loc 1 244 1 view .LVU2040
ARM GAS  C:\Users\BLACK_~1\AppData\Local\Temp\ccRovO0r.s 			page 195


 6677 0016 08BD     		pop	{r3, pc}
 6678              	.L605:
 242:c:/Users/Black_Life/STM32Cube/Repository/STM32Cube_FW_F4_V1.26.2/Middlewares/Third_Party/LwIP/src/core\tcp.c ****   }
 6679              		.loc 1 242 5 is_stmt 1 view .LVU2041
 6680 0018 FFF7FEFF 		bl	tcp_slowtmr
 6681              	.LVL640:
 244:c:/Users/Black_Life/STM32Cube/Repository/STM32Cube_FW_F4_V1.26.2/Middlewares/Third_Party/LwIP/src/core\tcp.c **** 
 6682              		.loc 1 244 1 is_stmt 0 view .LVU2042
 6683 001c FBE7     		b	.L602
 6684              	.L607:
 6685 001e 00BF     		.align	2
 6686              	.L606:
 6687 0020 00000000 		.word	.LANCHOR13
 6688              		.cfi_endproc
 6689              	.LFE159:
 6691              		.global	tcp_active_pcbs_changed
 6692              		.global	tcp_pcb_lists
 6693              		.global	tcp_tw_pcbs
 6694              		.global	tcp_active_pcbs
 6695              		.global	tcp_listen_pcbs
 6696              		.global	tcp_bound_pcbs
 6697              		.global	tcp_ticks
 6698              		.section	.rodata.str1.4,"aMS",%progbits,1
 6699              		.align	2
 6700              	.LC54:
 6701 0000 434C4F53 		.ascii	"CLOSED\000"
 6701      454400
 6702 0007 00       		.align	2
 6703              	.LC55:
 6704 0008 4C495354 		.ascii	"LISTEN\000"
 6704      454E00
 6705 000f 00       		.align	2
 6706              	.LC56:
 6707 0010 53594E5F 		.ascii	"SYN_SENT\000"
 6707      53454E54 
 6707      00
 6708 0019 000000   		.align	2
 6709              	.LC57:
 6710 001c 53594E5F 		.ascii	"SYN_RCVD\000"
 6710      52435644 
 6710      00
 6711 0025 000000   		.align	2
 6712              	.LC58:
 6713 0028 45535441 		.ascii	"ESTABLISHED\000"
 6713      424C4953 
 6713      48454400 
 6714              		.align	2
 6715              	.LC59:
 6716 0034 46494E5F 		.ascii	"FIN_WAIT_1\000"
 6716      57414954 
 6716      5F3100
 6717 003f 00       		.align	2
 6718              	.LC60:
 6719 0040 46494E5F 		.ascii	"FIN_WAIT_2\000"
 6719      57414954 
 6719      5F3200
 6720 004b 00       		.align	2
ARM GAS  C:\Users\BLACK_~1\AppData\Local\Temp\ccRovO0r.s 			page 196


 6721              	.LC61:
 6722 004c 434C4F53 		.ascii	"CLOSE_WAIT\000"
 6722      455F5741 
 6722      495400
 6723 0057 00       		.align	2
 6724              	.LC62:
 6725 0058 434C4F53 		.ascii	"CLOSING\000"
 6725      494E4700 
 6726              		.align	2
 6727              	.LC63:
 6728 0060 4C415354 		.ascii	"LAST_ACK\000"
 6728      5F41434B 
 6728      00
 6729 0069 000000   		.align	2
 6730              	.LC64:
 6731 006c 54494D45 		.ascii	"TIME_WAIT\000"
 6731      5F574149 
 6731      5400
 6732              		.section	.bss.tcp_active_pcbs,"aw",%nobits
 6733              		.align	2
 6734              		.set	.LANCHOR2,. + 0
 6737              	tcp_active_pcbs:
 6738 0000 00000000 		.space	4
 6739              		.section	.bss.tcp_active_pcbs_changed,"aw",%nobits
 6740              		.set	.LANCHOR7,. + 0
 6743              	tcp_active_pcbs_changed:
 6744 0000 00       		.space	1
 6745              		.section	.bss.tcp_bound_pcbs,"aw",%nobits
 6746              		.align	2
 6747              		.set	.LANCHOR3,. + 0
 6750              	tcp_bound_pcbs:
 6751 0000 00000000 		.space	4
 6752              		.section	.bss.tcp_listen_pcbs,"aw",%nobits
 6753              		.align	2
 6754              		.set	.LANCHOR4,. + 0
 6757              	tcp_listen_pcbs:
 6758 0000 00000000 		.space	4
 6759              		.section	.bss.tcp_ticks,"aw",%nobits
 6760              		.align	2
 6761              		.set	.LANCHOR6,. + 0
 6764              	tcp_ticks:
 6765 0000 00000000 		.space	4
 6766              		.section	.bss.tcp_timer,"aw",%nobits
 6767              		.set	.LANCHOR13,. + 0
 6770              	tcp_timer:
 6771 0000 00       		.space	1
 6772              		.section	.bss.tcp_timer_ctr,"aw",%nobits
 6773              		.set	.LANCHOR10,. + 0
 6776              	tcp_timer_ctr:
 6777 0000 00       		.space	1
 6778              		.section	.bss.tcp_tw_pcbs,"aw",%nobits
 6779              		.align	2
 6780              		.set	.LANCHOR9,. + 0
 6783              	tcp_tw_pcbs:
 6784 0000 00000000 		.space	4
 6785              		.section	.data.iss.0,"aw"
 6786              		.align	2
ARM GAS  C:\Users\BLACK_~1\AppData\Local\Temp\ccRovO0r.s 			page 197


 6787              		.set	.LANCHOR5,. + 0
 6790              	iss.0:
 6791 0000 6E190000 		.word	6510
 6792              		.section	.data.tcp_port,"aw"
 6793              		.align	1
 6794              		.set	.LANCHOR0,. + 0
 6797              	tcp_port:
 6798 0000 00C0     		.short	-16384
 6799              		.section	.rodata.tcp_backoff,"a"
 6800              		.align	2
 6801              		.set	.LANCHOR12,. + 0
 6804              	tcp_backoff:
 6805 0000 01020304 		.ascii	"\001\002\003\004\005\006\007\007\007\007\007\007\007"
 6805      05060707 
 6805      07070707 
 6805      07
 6806              		.section	.rodata.tcp_pcb_lists,"a"
 6807              		.align	2
 6808              		.set	.LANCHOR1,. + 0
 6811              	tcp_pcb_lists:
 6812 0000 00000000 		.word	tcp_listen_pcbs
 6813 0004 00000000 		.word	tcp_bound_pcbs
 6814 0008 00000000 		.word	tcp_active_pcbs
 6815 000c 00000000 		.word	tcp_tw_pcbs
 6816              		.section	.rodata.tcp_persist_backoff,"a"
 6817              		.align	2
 6818              		.set	.LANCHOR11,. + 0
 6821              	tcp_persist_backoff:
 6822 0000 03060C18 		.ascii	"\003\006\014\0300`x"
 6822      306078
 6823              		.section	.rodata.tcp_state_str,"a"
 6824              		.align	2
 6825              		.set	.LANCHOR8,. + 0
 6828              	tcp_state_str:
 6829 0000 00000000 		.word	.LC54
 6830 0004 08000000 		.word	.LC55
 6831 0008 10000000 		.word	.LC56
 6832 000c 1C000000 		.word	.LC57
 6833 0010 28000000 		.word	.LC58
 6834 0014 34000000 		.word	.LC59
 6835 0018 40000000 		.word	.LC60
 6836 001c 4C000000 		.word	.LC61
 6837 0020 58000000 		.word	.LC62
 6838 0024 60000000 		.word	.LC63
 6839 0028 6C000000 		.word	.LC64
 6840              		.text
 6841              	.Letext0:
 6842              		.file 2 "e:\\gnu arm embedded toolchain\\10 2021.10\\arm-none-eabi\\include\\machine\\_default_typ
 6843              		.file 3 "e:\\gnu arm embedded toolchain\\10 2021.10\\arm-none-eabi\\include\\sys\\_stdint.h"
 6844              		.file 4 "e:\\gnu arm embedded toolchain\\10 2021.10\\lib\\gcc\\arm-none-eabi\\10.3.1\\include\\std
 6845              		.file 5 "c:/Users/Black_Life/STM32Cube/Repository/STM32Cube_FW_F4_V1.26.2/Middlewares/Third_Party/
 6846              		.file 6 "c:/Users/Black_Life/STM32Cube/Repository/STM32Cube_FW_F4_V1.26.2/Middlewares/Third_Party/
 6847              		.file 7 "c:/Users/Black_Life/STM32Cube/Repository/STM32Cube_FW_F4_V1.26.2/Middlewares/Third_Party/
 6848              		.file 8 "c:/Users/Black_Life/STM32Cube/Repository/STM32Cube_FW_F4_V1.26.2/Middlewares/Third_Party/
 6849              		.file 9 "c:/Users/Black_Life/STM32Cube/Repository/STM32Cube_FW_F4_V1.26.2/Middlewares/Third_Party/
 6850              		.file 10 "c:/Users/Black_Life/STM32Cube/Repository/STM32Cube_FW_F4_V1.26.2/Middlewares/Third_Party
 6851              		.file 11 "c:/Users/Black_Life/STM32Cube/Repository/STM32Cube_FW_F4_V1.26.2/Middlewares/Third_Party
ARM GAS  C:\Users\BLACK_~1\AppData\Local\Temp\ccRovO0r.s 			page 198


 6852              		.file 12 "c:/Users/Black_Life/STM32Cube/Repository/STM32Cube_FW_F4_V1.26.2/Middlewares/Third_Party
 6853              		.file 13 "c:/Users/Black_Life/STM32Cube/Repository/STM32Cube_FW_F4_V1.26.2/Middlewares/Third_Party
 6854              		.file 14 "c:/Users/Black_Life/STM32Cube/Repository/STM32Cube_FW_F4_V1.26.2/Middlewares/Third_Party
 6855              		.file 15 "c:/Users/Black_Life/STM32Cube/Repository/STM32Cube_FW_F4_V1.26.2/Middlewares/Third_Party
 6856              		.file 16 "e:\\gnu arm embedded toolchain\\10 2021.10\\arm-none-eabi\\include\\stdio.h"
 6857              		.file 17 "c:/Users/Black_Life/STM32Cube/Repository/STM32Cube_FW_F4_V1.26.2/Middlewares/Third_Party
 6858              		.file 18 "e:\\gnu arm embedded toolchain\\10 2021.10\\arm-none-eabi\\include\\stdlib.h"
 6859              		.file 19 "<built-in>"
ARM GAS  C:\Users\BLACK_~1\AppData\Local\Temp\ccRovO0r.s 			page 199


DEFINED SYMBOLS
                            *ABS*:00000000 tcp.c
C:\Users\BLACK_~1\AppData\Local\Temp\ccRovO0r.s:20     .text.tcp_new_port:00000000 $t
C:\Users\BLACK_~1\AppData\Local\Temp\ccRovO0r.s:25     .text.tcp_new_port:00000000 tcp_new_port
C:\Users\BLACK_~1\AppData\Local\Temp\ccRovO0r.s:141    .text.tcp_new_port:00000060 $d
C:\Users\BLACK_~1\AppData\Local\Temp\ccRovO0r.s:147    .rodata.tcp_remove_listener.str1.4:00000000 $d
C:\Users\BLACK_~1\AppData\Local\Temp\ccRovO0r.s:159    .text.tcp_remove_listener:00000000 $t
C:\Users\BLACK_~1\AppData\Local\Temp\ccRovO0r.s:164    .text.tcp_remove_listener:00000000 tcp_remove_listener
C:\Users\BLACK_~1\AppData\Local\Temp\ccRovO0r.s:227    .text.tcp_remove_listener:00000028 $d
C:\Users\BLACK_~1\AppData\Local\Temp\ccRovO0r.s:234    .rodata.tcp_listen_closed.str1.4:00000000 $d
C:\Users\BLACK_~1\AppData\Local\Temp\ccRovO0r.s:241    .text.tcp_listen_closed:00000000 $t
C:\Users\BLACK_~1\AppData\Local\Temp\ccRovO0r.s:246    .text.tcp_listen_closed:00000000 tcp_listen_closed
C:\Users\BLACK_~1\AppData\Local\Temp\ccRovO0r.s:329    .text.tcp_listen_closed:00000048 $d
C:\Users\BLACK_~1\AppData\Local\Temp\ccRovO0r.s:338    .rodata.tcp_free_listen.str1.4:00000000 $d
C:\Users\BLACK_~1\AppData\Local\Temp\ccRovO0r.s:342    .text.tcp_free_listen:00000000 $t
C:\Users\BLACK_~1\AppData\Local\Temp\ccRovO0r.s:347    .text.tcp_free_listen:00000000 tcp_free_listen
C:\Users\BLACK_~1\AppData\Local\Temp\ccRovO0r.s:393    .text.tcp_free_listen:00000024 $d
C:\Users\BLACK_~1\AppData\Local\Temp\ccRovO0r.s:400    .text.tcp_close_shutdown_fin:00000000 $t
C:\Users\BLACK_~1\AppData\Local\Temp\ccRovO0r.s:405    .text.tcp_close_shutdown_fin:00000000 tcp_close_shutdown_fin
C:\Users\BLACK_~1\AppData\Local\Temp\ccRovO0r.s:540    .text.tcp_close_shutdown_fin:00000078 $d
C:\Users\BLACK_~1\AppData\Local\Temp\ccRovO0r.s:547    .text.tcp_handle_closepend:00000000 $t
C:\Users\BLACK_~1\AppData\Local\Temp\ccRovO0r.s:552    .text.tcp_handle_closepend:00000000 tcp_handle_closepend
C:\Users\BLACK_~1\AppData\Local\Temp\ccRovO0r.s:621    .text.tcp_handle_closepend:00000028 $d
C:\Users\BLACK_~1\AppData\Local\Temp\ccRovO0r.s:626    .text.tcp_init:00000000 $t
C:\Users\BLACK_~1\AppData\Local\Temp\ccRovO0r.s:632    .text.tcp_init:00000000 tcp_init
C:\Users\BLACK_~1\AppData\Local\Temp\ccRovO0r.s:657    .text.tcp_init:00000014 $d
C:\Users\BLACK_~1\AppData\Local\Temp\ccRovO0r.s:662    .rodata.tcp_free.str1.4:00000000 $d
C:\Users\BLACK_~1\AppData\Local\Temp\ccRovO0r.s:666    .text.tcp_free:00000000 $t
C:\Users\BLACK_~1\AppData\Local\Temp\ccRovO0r.s:672    .text.tcp_free:00000000 tcp_free
C:\Users\BLACK_~1\AppData\Local\Temp\ccRovO0r.s:718    .text.tcp_free:00000024 $d
C:\Users\BLACK_~1\AppData\Local\Temp\ccRovO0r.s:725    .rodata.tcp_bind.str1.4:00000000 $d
C:\Users\BLACK_~1\AppData\Local\Temp\ccRovO0r.s:732    .text.tcp_bind:00000000 $t
C:\Users\BLACK_~1\AppData\Local\Temp\ccRovO0r.s:738    .text.tcp_bind:00000000 tcp_bind
C:\Users\BLACK_~1\AppData\Local\Temp\ccRovO0r.s:961    .text.tcp_bind:000000b0 $d
C:\Users\BLACK_~1\AppData\Local\Temp\ccRovO0r.s:972    .text.tcp_bind_netif:00000000 $t
C:\Users\BLACK_~1\AppData\Local\Temp\ccRovO0r.s:978    .text.tcp_bind_netif:00000000 tcp_bind_netif
C:\Users\BLACK_~1\AppData\Local\Temp\ccRovO0r.s:1008   .rodata.tcp_listen_with_backlog_and_err.str1.4:00000000 $d
C:\Users\BLACK_~1\AppData\Local\Temp\ccRovO0r.s:1016   .text.tcp_listen_with_backlog_and_err:00000000 $t
C:\Users\BLACK_~1\AppData\Local\Temp\ccRovO0r.s:1022   .text.tcp_listen_with_backlog_and_err:00000000 tcp_listen_with_backlog_and_err
C:\Users\BLACK_~1\AppData\Local\Temp\ccRovO0r.s:1261   .text.tcp_listen_with_backlog_and_err:000000c4 $d
C:\Users\BLACK_~1\AppData\Local\Temp\ccRovO0r.s:3716   .text.tcp_accept_null:00000000 tcp_accept_null
C:\Users\BLACK_~1\AppData\Local\Temp\ccRovO0r.s:1272   .text.tcp_listen_with_backlog:00000000 $t
C:\Users\BLACK_~1\AppData\Local\Temp\ccRovO0r.s:1278   .text.tcp_listen_with_backlog:00000000 tcp_listen_with_backlog
C:\Users\BLACK_~1\AppData\Local\Temp\ccRovO0r.s:1303   .rodata.tcp_update_rcv_ann_wnd.str1.4:00000000 $d
C:\Users\BLACK_~1\AppData\Local\Temp\ccRovO0r.s:1310   .text.tcp_update_rcv_ann_wnd:00000000 $t
C:\Users\BLACK_~1\AppData\Local\Temp\ccRovO0r.s:1316   .text.tcp_update_rcv_ann_wnd:00000000 tcp_update_rcv_ann_wnd
C:\Users\BLACK_~1\AppData\Local\Temp\ccRovO0r.s:1437   .text.tcp_update_rcv_ann_wnd:00000068 $d
C:\Users\BLACK_~1\AppData\Local\Temp\ccRovO0r.s:1446   .rodata.tcp_recved.str1.4:00000000 $d
C:\Users\BLACK_~1\AppData\Local\Temp\ccRovO0r.s:1453   .text.tcp_recved:00000000 $t
C:\Users\BLACK_~1\AppData\Local\Temp\ccRovO0r.s:1459   .text.tcp_recved:00000000 tcp_recved
C:\Users\BLACK_~1\AppData\Local\Temp\ccRovO0r.s:1583   .text.tcp_recved:00000068 $d
C:\Users\BLACK_~1\AppData\Local\Temp\ccRovO0r.s:1591   .text.tcp_txnow:00000000 $t
C:\Users\BLACK_~1\AppData\Local\Temp\ccRovO0r.s:1597   .text.tcp_txnow:00000000 tcp_txnow
C:\Users\BLACK_~1\AppData\Local\Temp\ccRovO0r.s:1644   .text.tcp_txnow:00000020 $d
C:\Users\BLACK_~1\AppData\Local\Temp\ccRovO0r.s:1649   .text.tcp_seg_free:00000000 $t
C:\Users\BLACK_~1\AppData\Local\Temp\ccRovO0r.s:1655   .text.tcp_seg_free:00000000 tcp_seg_free
C:\Users\BLACK_~1\AppData\Local\Temp\ccRovO0r.s:1701   .text.tcp_segs_free:00000000 $t
ARM GAS  C:\Users\BLACK_~1\AppData\Local\Temp\ccRovO0r.s 			page 200


C:\Users\BLACK_~1\AppData\Local\Temp\ccRovO0r.s:1707   .text.tcp_segs_free:00000000 tcp_segs_free
C:\Users\BLACK_~1\AppData\Local\Temp\ccRovO0r.s:1754   .rodata.tcp_setprio.str1.4:00000000 $d
C:\Users\BLACK_~1\AppData\Local\Temp\ccRovO0r.s:1758   .text.tcp_setprio:00000000 $t
C:\Users\BLACK_~1\AppData\Local\Temp\ccRovO0r.s:1764   .text.tcp_setprio:00000000 tcp_setprio
C:\Users\BLACK_~1\AppData\Local\Temp\ccRovO0r.s:1809   .text.tcp_setprio:00000018 $d
C:\Users\BLACK_~1\AppData\Local\Temp\ccRovO0r.s:1816   .rodata.tcp_seg_copy.str1.4:00000000 $d
C:\Users\BLACK_~1\AppData\Local\Temp\ccRovO0r.s:1820   .text.tcp_seg_copy:00000000 $t
C:\Users\BLACK_~1\AppData\Local\Temp\ccRovO0r.s:1826   .text.tcp_seg_copy:00000000 tcp_seg_copy
C:\Users\BLACK_~1\AppData\Local\Temp\ccRovO0r.s:1895   .text.tcp_seg_copy:0000003c $d
C:\Users\BLACK_~1\AppData\Local\Temp\ccRovO0r.s:1902   .text.tcp_arg:00000000 $t
C:\Users\BLACK_~1\AppData\Local\Temp\ccRovO0r.s:1908   .text.tcp_arg:00000000 tcp_arg
C:\Users\BLACK_~1\AppData\Local\Temp\ccRovO0r.s:1930   .rodata.tcp_recv.str1.4:00000000 $d
C:\Users\BLACK_~1\AppData\Local\Temp\ccRovO0r.s:1934   .text.tcp_recv:00000000 $t
C:\Users\BLACK_~1\AppData\Local\Temp\ccRovO0r.s:1940   .text.tcp_recv:00000000 tcp_recv
C:\Users\BLACK_~1\AppData\Local\Temp\ccRovO0r.s:2003   .text.tcp_recv:00000028 $d
C:\Users\BLACK_~1\AppData\Local\Temp\ccRovO0r.s:2010   .rodata.tcp_sent.str1.4:00000000 $d
C:\Users\BLACK_~1\AppData\Local\Temp\ccRovO0r.s:2014   .text.tcp_sent:00000000 $t
C:\Users\BLACK_~1\AppData\Local\Temp\ccRovO0r.s:2020   .text.tcp_sent:00000000 tcp_sent
C:\Users\BLACK_~1\AppData\Local\Temp\ccRovO0r.s:2083   .text.tcp_sent:00000028 $d
C:\Users\BLACK_~1\AppData\Local\Temp\ccRovO0r.s:2090   .rodata.tcp_err.str1.4:00000000 $d
C:\Users\BLACK_~1\AppData\Local\Temp\ccRovO0r.s:2094   .text.tcp_err:00000000 $t
C:\Users\BLACK_~1\AppData\Local\Temp\ccRovO0r.s:2100   .text.tcp_err:00000000 tcp_err
C:\Users\BLACK_~1\AppData\Local\Temp\ccRovO0r.s:2163   .text.tcp_err:00000028 $d
C:\Users\BLACK_~1\AppData\Local\Temp\ccRovO0r.s:2170   .text.tcp_accept:00000000 $t
C:\Users\BLACK_~1\AppData\Local\Temp\ccRovO0r.s:2176   .text.tcp_accept:00000000 tcp_accept
C:\Users\BLACK_~1\AppData\Local\Temp\ccRovO0r.s:2210   .rodata.tcp_poll.str1.4:00000000 $d
C:\Users\BLACK_~1\AppData\Local\Temp\ccRovO0r.s:2217   .text.tcp_poll:00000000 $t
C:\Users\BLACK_~1\AppData\Local\Temp\ccRovO0r.s:2223   .text.tcp_poll:00000000 tcp_poll
C:\Users\BLACK_~1\AppData\Local\Temp\ccRovO0r.s:2304   .text.tcp_poll:00000038 $d
C:\Users\BLACK_~1\AppData\Local\Temp\ccRovO0r.s:2312   .rodata.tcp_next_iss.str1.4:00000000 $d
C:\Users\BLACK_~1\AppData\Local\Temp\ccRovO0r.s:2316   .text.tcp_next_iss:00000000 $t
C:\Users\BLACK_~1\AppData\Local\Temp\ccRovO0r.s:2322   .text.tcp_next_iss:00000000 tcp_next_iss
C:\Users\BLACK_~1\AppData\Local\Temp\ccRovO0r.s:2371   .text.tcp_next_iss:00000024 $d
C:\Users\BLACK_~1\AppData\Local\Temp\ccRovO0r.s:2380   .rodata.tcp_eff_send_mss_netif.str1.4:00000000 $d
C:\Users\BLACK_~1\AppData\Local\Temp\ccRovO0r.s:2384   .text.tcp_eff_send_mss_netif:00000000 $t
C:\Users\BLACK_~1\AppData\Local\Temp\ccRovO0r.s:2390   .text.tcp_eff_send_mss_netif:00000000 tcp_eff_send_mss_netif
C:\Users\BLACK_~1\AppData\Local\Temp\ccRovO0r.s:2482   .text.tcp_eff_send_mss_netif:00000034 $d
C:\Users\BLACK_~1\AppData\Local\Temp\ccRovO0r.s:2490   .rodata.tcp_connect.str1.4:00000000 $d
C:\Users\BLACK_~1\AppData\Local\Temp\ccRovO0r.s:2500   .text.tcp_connect:00000000 $t
C:\Users\BLACK_~1\AppData\Local\Temp\ccRovO0r.s:2506   .text.tcp_connect:00000000 tcp_connect
C:\Users\BLACK_~1\AppData\Local\Temp\ccRovO0r.s:2861   .text.tcp_connect:00000134 $d
C:\Users\BLACK_~1\AppData\Local\Temp\ccRovO0r.s:2873   .text.tcp_debug_state_str:00000000 $t
C:\Users\BLACK_~1\AppData\Local\Temp\ccRovO0r.s:2879   .text.tcp_debug_state_str:00000000 tcp_debug_state_str
C:\Users\BLACK_~1\AppData\Local\Temp\ccRovO0r.s:2897   .text.tcp_debug_state_str:00000008 $d
C:\Users\BLACK_~1\AppData\Local\Temp\ccRovO0r.s:2902   .text.tcp_tcp_get_tcp_addrinfo:00000000 $t
C:\Users\BLACK_~1\AppData\Local\Temp\ccRovO0r.s:2908   .text.tcp_tcp_get_tcp_addrinfo:00000000 tcp_tcp_get_tcp_addrinfo
C:\Users\BLACK_~1\AppData\Local\Temp\ccRovO0r.s:2983   .text.tcp_free_ooseq:00000000 $t
C:\Users\BLACK_~1\AppData\Local\Temp\ccRovO0r.s:2989   .text.tcp_free_ooseq:00000000 tcp_free_ooseq
C:\Users\BLACK_~1\AppData\Local\Temp\ccRovO0r.s:3024   .rodata.tcp_pcb_purge.str1.4:00000000 $d
C:\Users\BLACK_~1\AppData\Local\Temp\ccRovO0r.s:3028   .text.tcp_pcb_purge:00000000 $t
C:\Users\BLACK_~1\AppData\Local\Temp\ccRovO0r.s:3034   .text.tcp_pcb_purge:00000000 tcp_pcb_purge
C:\Users\BLACK_~1\AppData\Local\Temp\ccRovO0r.s:3138   .text.tcp_pcb_purge:00000058 $d
C:\Users\BLACK_~1\AppData\Local\Temp\ccRovO0r.s:3145   .rodata.tcp_pcb_remove.str1.4:00000000 $d
C:\Users\BLACK_~1\AppData\Local\Temp\ccRovO0r.s:3161   .text.tcp_pcb_remove:00000000 $t
C:\Users\BLACK_~1\AppData\Local\Temp\ccRovO0r.s:3167   .text.tcp_pcb_remove:00000000 tcp_pcb_remove
C:\Users\BLACK_~1\AppData\Local\Temp\ccRovO0r.s:3361   .text.tcp_pcb_remove:000000b4 $d
C:\Users\BLACK_~1\AppData\Local\Temp\ccRovO0r.s:3372   .rodata.tcp_abandon.str1.4:00000000 $d
ARM GAS  C:\Users\BLACK_~1\AppData\Local\Temp\ccRovO0r.s 			page 201


C:\Users\BLACK_~1\AppData\Local\Temp\ccRovO0r.s:3379   .text.tcp_abandon:00000000 $t
C:\Users\BLACK_~1\AppData\Local\Temp\ccRovO0r.s:3385   .text.tcp_abandon:00000000 tcp_abandon
C:\Users\BLACK_~1\AppData\Local\Temp\ccRovO0r.s:3665   .text.tcp_abandon:000000ec $d
C:\Users\BLACK_~1\AppData\Local\Temp\ccRovO0r.s:3678   .text.tcp_abort:00000000 $t
C:\Users\BLACK_~1\AppData\Local\Temp\ccRovO0r.s:3684   .text.tcp_abort:00000000 tcp_abort
C:\Users\BLACK_~1\AppData\Local\Temp\ccRovO0r.s:3707   .rodata.tcp_accept_null.str1.4:00000000 $d
C:\Users\BLACK_~1\AppData\Local\Temp\ccRovO0r.s:3711   .text.tcp_accept_null:00000000 $t
C:\Users\BLACK_~1\AppData\Local\Temp\ccRovO0r.s:3767   .text.tcp_accept_null:00000024 $d
C:\Users\BLACK_~1\AppData\Local\Temp\ccRovO0r.s:3774   .text.tcp_kill_timewait:00000000 $t
C:\Users\BLACK_~1\AppData\Local\Temp\ccRovO0r.s:3779   .text.tcp_kill_timewait:00000000 tcp_kill_timewait
C:\Users\BLACK_~1\AppData\Local\Temp\ccRovO0r.s:3849   .text.tcp_kill_timewait:0000002c $d
C:\Users\BLACK_~1\AppData\Local\Temp\ccRovO0r.s:3855   .text.tcp_kill_prio:00000000 $t
C:\Users\BLACK_~1\AppData\Local\Temp\ccRovO0r.s:3860   .text.tcp_kill_prio:00000000 tcp_kill_prio
C:\Users\BLACK_~1\AppData\Local\Temp\ccRovO0r.s:3972   .text.tcp_kill_prio:00000050 $d
C:\Users\BLACK_~1\AppData\Local\Temp\ccRovO0r.s:3978   .rodata.tcp_netif_ip_addr_changed_pcblist.str1.4:00000000 $d
C:\Users\BLACK_~1\AppData\Local\Temp\ccRovO0r.s:3983   .text.tcp_netif_ip_addr_changed_pcblist:00000000 $t
C:\Users\BLACK_~1\AppData\Local\Temp\ccRovO0r.s:3988   .text.tcp_netif_ip_addr_changed_pcblist:00000000 tcp_netif_ip_addr_changed_pcblist
C:\Users\BLACK_~1\AppData\Local\Temp\ccRovO0r.s:4066   .text.tcp_netif_ip_addr_changed_pcblist:00000034 $d
C:\Users\BLACK_~1\AppData\Local\Temp\ccRovO0r.s:4073   .text.tcp_netif_ip_addr_changed:00000000 $t
C:\Users\BLACK_~1\AppData\Local\Temp\ccRovO0r.s:4079   .text.tcp_netif_ip_addr_changed:00000000 tcp_netif_ip_addr_changed
C:\Users\BLACK_~1\AppData\Local\Temp\ccRovO0r.s:4173   .text.tcp_netif_ip_addr_changed:00000048 $d
C:\Users\BLACK_~1\AppData\Local\Temp\ccRovO0r.s:4180   .rodata.tcp_kill_state.str1.4:00000000 $d
C:\Users\BLACK_~1\AppData\Local\Temp\ccRovO0r.s:4184   .text.tcp_kill_state:00000000 $t
C:\Users\BLACK_~1\AppData\Local\Temp\ccRovO0r.s:4189   .text.tcp_kill_state:00000000 tcp_kill_state
C:\Users\BLACK_~1\AppData\Local\Temp\ccRovO0r.s:4294   .text.tcp_kill_state:00000050 $d
C:\Users\BLACK_~1\AppData\Local\Temp\ccRovO0r.s:4303   .text.tcp_alloc:00000000 $t
C:\Users\BLACK_~1\AppData\Local\Temp\ccRovO0r.s:4309   .text.tcp_alloc:00000000 tcp_alloc
C:\Users\BLACK_~1\AppData\Local\Temp\ccRovO0r.s:4484   .text.tcp_alloc:000000b4 $d
C:\Users\BLACK_~1\AppData\Local\Temp\ccRovO0r.s:4974   .text.tcp_recv_null:00000000 tcp_recv_null
C:\Users\BLACK_~1\AppData\Local\Temp\ccRovO0r.s:4492   .text.tcp_new:00000000 $t
C:\Users\BLACK_~1\AppData\Local\Temp\ccRovO0r.s:4498   .text.tcp_new:00000000 tcp_new
C:\Users\BLACK_~1\AppData\Local\Temp\ccRovO0r.s:4520   .text.tcp_new_ip_type:00000000 $t
C:\Users\BLACK_~1\AppData\Local\Temp\ccRovO0r.s:4526   .text.tcp_new_ip_type:00000000 tcp_new_ip_type
C:\Users\BLACK_~1\AppData\Local\Temp\ccRovO0r.s:4555   .rodata.tcp_close_shutdown.str1.4:00000000 $d
C:\Users\BLACK_~1\AppData\Local\Temp\ccRovO0r.s:4562   .text.tcp_close_shutdown:00000000 $t
C:\Users\BLACK_~1\AppData\Local\Temp\ccRovO0r.s:4567   .text.tcp_close_shutdown:00000000 tcp_close_shutdown
C:\Users\BLACK_~1\AppData\Local\Temp\ccRovO0r.s:4870   .text.tcp_close_shutdown:00000128 $d
C:\Users\BLACK_~1\AppData\Local\Temp\ccRovO0r.s:4883   .rodata.tcp_close.str1.4:00000000 $d
C:\Users\BLACK_~1\AppData\Local\Temp\ccRovO0r.s:4887   .text.tcp_close:00000000 $t
C:\Users\BLACK_~1\AppData\Local\Temp\ccRovO0r.s:4893   .text.tcp_close:00000000 tcp_close
C:\Users\BLACK_~1\AppData\Local\Temp\ccRovO0r.s:4957   .text.tcp_close:00000034 $d
C:\Users\BLACK_~1\AppData\Local\Temp\ccRovO0r.s:4964   .rodata.tcp_recv_null.str1.4:00000000 $d
C:\Users\BLACK_~1\AppData\Local\Temp\ccRovO0r.s:4968   .text.tcp_recv_null:00000000 $t
C:\Users\BLACK_~1\AppData\Local\Temp\ccRovO0r.s:5057   .text.tcp_recv_null:0000003c $d
C:\Users\BLACK_~1\AppData\Local\Temp\ccRovO0r.s:5064   .rodata.tcp_process_refused_data.str1.4:00000000 $d
C:\Users\BLACK_~1\AppData\Local\Temp\ccRovO0r.s:5068   .text.tcp_process_refused_data:00000000 $t
C:\Users\BLACK_~1\AppData\Local\Temp\ccRovO0r.s:5074   .text.tcp_process_refused_data:00000000 tcp_process_refused_data
C:\Users\BLACK_~1\AppData\Local\Temp\ccRovO0r.s:5221   .text.tcp_process_refused_data:00000080 $d
C:\Users\BLACK_~1\AppData\Local\Temp\ccRovO0r.s:5228   .text.tcp_fasttmr:00000000 $t
C:\Users\BLACK_~1\AppData\Local\Temp\ccRovO0r.s:5234   .text.tcp_fasttmr:00000000 tcp_fasttmr
C:\Users\BLACK_~1\AppData\Local\Temp\ccRovO0r.s:5372   .text.tcp_fasttmr:00000074 $d
C:\Users\BLACK_~1\AppData\Local\Temp\ccRovO0r.s:5379   .rodata.tcp_shutdown.str1.4:00000000 $d
C:\Users\BLACK_~1\AppData\Local\Temp\ccRovO0r.s:5383   .text.tcp_shutdown:00000000 $t
C:\Users\BLACK_~1\AppData\Local\Temp\ccRovO0r.s:5389   .text.tcp_shutdown:00000000 tcp_shutdown
C:\Users\BLACK_~1\AppData\Local\Temp\ccRovO0r.s:5523   .text.tcp_shutdown:00000074 $d
C:\Users\BLACK_~1\AppData\Local\Temp\ccRovO0r.s:5530   .rodata.tcp_slowtmr.str1.4:00000000 $d
C:\Users\BLACK_~1\AppData\Local\Temp\ccRovO0r.s:5562   .text.tcp_slowtmr:00000000 $t
ARM GAS  C:\Users\BLACK_~1\AppData\Local\Temp\ccRovO0r.s 			page 202


C:\Users\BLACK_~1\AppData\Local\Temp\ccRovO0r.s:5568   .text.tcp_slowtmr:00000000 tcp_slowtmr
C:\Users\BLACK_~1\AppData\Local\Temp\ccRovO0r.s:6165   .text.tcp_slowtmr:00000274 $d
C:\Users\BLACK_~1\AppData\Local\Temp\ccRovO0r.s:6183   .text.tcp_slowtmr:000002a8 $t
C:\Users\BLACK_~1\AppData\Local\Temp\ccRovO0r.s:6627   .text.tcp_slowtmr:00000474 $d
C:\Users\BLACK_~1\AppData\Local\Temp\ccRovO0r.s:6645   .text.tcp_tmr:00000000 $t
C:\Users\BLACK_~1\AppData\Local\Temp\ccRovO0r.s:6651   .text.tcp_tmr:00000000 tcp_tmr
C:\Users\BLACK_~1\AppData\Local\Temp\ccRovO0r.s:6687   .text.tcp_tmr:00000020 $d
C:\Users\BLACK_~1\AppData\Local\Temp\ccRovO0r.s:6743   .bss.tcp_active_pcbs_changed:00000000 tcp_active_pcbs_changed
C:\Users\BLACK_~1\AppData\Local\Temp\ccRovO0r.s:6811   .rodata.tcp_pcb_lists:00000000 tcp_pcb_lists
C:\Users\BLACK_~1\AppData\Local\Temp\ccRovO0r.s:6783   .bss.tcp_tw_pcbs:00000000 tcp_tw_pcbs
C:\Users\BLACK_~1\AppData\Local\Temp\ccRovO0r.s:6737   .bss.tcp_active_pcbs:00000000 tcp_active_pcbs
C:\Users\BLACK_~1\AppData\Local\Temp\ccRovO0r.s:6757   .bss.tcp_listen_pcbs:00000000 tcp_listen_pcbs
C:\Users\BLACK_~1\AppData\Local\Temp\ccRovO0r.s:6750   .bss.tcp_bound_pcbs:00000000 tcp_bound_pcbs
C:\Users\BLACK_~1\AppData\Local\Temp\ccRovO0r.s:6764   .bss.tcp_ticks:00000000 tcp_ticks
C:\Users\BLACK_~1\AppData\Local\Temp\ccRovO0r.s:6699   .rodata.str1.4:00000000 $d
C:\Users\BLACK_~1\AppData\Local\Temp\ccRovO0r.s:6733   .bss.tcp_active_pcbs:00000000 $d
C:\Users\BLACK_~1\AppData\Local\Temp\ccRovO0r.s:6744   .bss.tcp_active_pcbs_changed:00000000 $d
C:\Users\BLACK_~1\AppData\Local\Temp\ccRovO0r.s:6746   .bss.tcp_bound_pcbs:00000000 $d
C:\Users\BLACK_~1\AppData\Local\Temp\ccRovO0r.s:6753   .bss.tcp_listen_pcbs:00000000 $d
C:\Users\BLACK_~1\AppData\Local\Temp\ccRovO0r.s:6760   .bss.tcp_ticks:00000000 $d
C:\Users\BLACK_~1\AppData\Local\Temp\ccRovO0r.s:6770   .bss.tcp_timer:00000000 tcp_timer
C:\Users\BLACK_~1\AppData\Local\Temp\ccRovO0r.s:6771   .bss.tcp_timer:00000000 $d
C:\Users\BLACK_~1\AppData\Local\Temp\ccRovO0r.s:6776   .bss.tcp_timer_ctr:00000000 tcp_timer_ctr
C:\Users\BLACK_~1\AppData\Local\Temp\ccRovO0r.s:6777   .bss.tcp_timer_ctr:00000000 $d
C:\Users\BLACK_~1\AppData\Local\Temp\ccRovO0r.s:6779   .bss.tcp_tw_pcbs:00000000 $d
C:\Users\BLACK_~1\AppData\Local\Temp\ccRovO0r.s:6786   .data.iss.0:00000000 $d
C:\Users\BLACK_~1\AppData\Local\Temp\ccRovO0r.s:6790   .data.iss.0:00000000 iss.0
C:\Users\BLACK_~1\AppData\Local\Temp\ccRovO0r.s:6793   .data.tcp_port:00000000 $d
C:\Users\BLACK_~1\AppData\Local\Temp\ccRovO0r.s:6797   .data.tcp_port:00000000 tcp_port
C:\Users\BLACK_~1\AppData\Local\Temp\ccRovO0r.s:6800   .rodata.tcp_backoff:00000000 $d
C:\Users\BLACK_~1\AppData\Local\Temp\ccRovO0r.s:6804   .rodata.tcp_backoff:00000000 tcp_backoff
C:\Users\BLACK_~1\AppData\Local\Temp\ccRovO0r.s:6807   .rodata.tcp_pcb_lists:00000000 $d
C:\Users\BLACK_~1\AppData\Local\Temp\ccRovO0r.s:6817   .rodata.tcp_persist_backoff:00000000 $d
C:\Users\BLACK_~1\AppData\Local\Temp\ccRovO0r.s:6821   .rodata.tcp_persist_backoff:00000000 tcp_persist_backoff
C:\Users\BLACK_~1\AppData\Local\Temp\ccRovO0r.s:6824   .rodata.tcp_state_str:00000000 $d
C:\Users\BLACK_~1\AppData\Local\Temp\ccRovO0r.s:6828   .rodata.tcp_state_str:00000000 tcp_state_str

UNDEFINED SYMBOLS
printf
memp_free
tcp_send_fin
tcp_output
rand
tcp_timer_needed
ip_addr_any
memp_malloc
pbuf_free
pbuf_ref
netif_get_by_index
tcp_enqueue_flags
ip4_route
tcp_rst
memset
tcp_trigger_input_pcb_close
tcp_input_pcb
tcp_split_unsent_seg
tcp_rexmit_rto_prepare
ARM GAS  C:\Users\BLACK_~1\AppData\Local\Temp\ccRovO0r.s 			page 203


tcp_rexmit_rto_commit
tcp_keepalive
tcp_zero_window_probe
