ARM GAS  C:\Users\BLACK_~1\AppData\Local\Temp\ccsw9P1a.s 			page 1


   1              		.cpu cortex-m4
   2              		.arch armv7e-m
   3              		.fpu fpv4-sp-d16
   4              		.eabi_attribute 27, 1
   5              		.eabi_attribute 28, 1
   6              		.eabi_attribute 20, 1
   7              		.eabi_attribute 21, 1
   8              		.eabi_attribute 23, 3
   9              		.eabi_attribute 24, 1
  10              		.eabi_attribute 25, 1
  11              		.eabi_attribute 26, 1
  12              		.eabi_attribute 30, 1
  13              		.eabi_attribute 34, 1
  14              		.eabi_attribute 18, 4
  15              		.file	"tcp_out.c"
  16              		.text
  17              	.Ltext0:
  18              		.cfi_sections	.debug_frame
  19              		.section	.rodata.tcp_write_checks.str1.4,"aMS",%progbits,1
  20              		.align	2
  21              	.LC0:
  22 0000 633A2F55 		.ascii	"c:/Users/Black_Life/STM32Cube/Repository/STM32Cube_"
  22      73657273 
  22      2F426C61 
  22      636B5F4C 
  22      6966652F 
  23 0033 46575F46 		.ascii	"FW_F4_V1.26.2/Middlewares/Third_Party/LwIP/src/core"
  23      345F5631 
  23      2E32362E 
  23      322F4D69 
  23      64646C65 
  24 0066 2F746370 		.ascii	"/tcp_out.c\000"
  24      5F6F7574 
  24      2E6300
  25 0071 000000   		.align	2
  26              	.LC1:
  27 0074 7463705F 		.ascii	"tcp_write_checks: invalid pcb\000"
  27      77726974 
  27      655F6368 
  27      65636B73 
  27      3A20696E 
  28 0092 0000     		.align	2
  29              	.LC2:
  30 0094 41737365 		.ascii	"Assertion \"%s\" failed at line %d in %s\012\000"
  30      7274696F 
  30      6E202225 
  30      73222066 
  30      61696C65 
  31              		.align	2
  32              	.LC3:
  33 00bc 7463705F 		.ascii	"tcp_write: pbufs on queue => at least one queue non"
  33      77726974 
  33      653A2070 
  33      62756673 
  33      206F6E20 
  34 00ef 2D656D70 		.ascii	"-empty\000"
  34      747900
ARM GAS  C:\Users\BLACK_~1\AppData\Local\Temp\ccsw9P1a.s 			page 2


  35 00f6 0000     		.align	2
  36              	.LC4:
  37 00f8 7463705F 		.ascii	"tcp_write: no pbufs on queue => both queues empty\000"
  37      77726974 
  37      653A206E 
  37      6F207062 
  37      75667320 
  38              		.section	.text.tcp_write_checks,"ax",%progbits
  39              		.align	1
  40              		.syntax unified
  41              		.thumb
  42              		.thumb_func
  44              	tcp_write_checks:
  45              	.LVL0:
  46              	.LFB159:
  47              		.file 1 "c:/Users/Black_Life/STM32Cube/Repository/STM32Cube_FW_F4_V1.26.2/Middlewares/Third_Party/
   1:c:/Users/Black_Life/STM32Cube/Repository/STM32Cube_FW_F4_V1.26.2/Middlewares/Third_Party/LwIP/src/core\tcp_out.c **** /**
   2:c:/Users/Black_Life/STM32Cube/Repository/STM32Cube_FW_F4_V1.26.2/Middlewares/Third_Party/LwIP/src/core\tcp_out.c ****  * @file
   3:c:/Users/Black_Life/STM32Cube/Repository/STM32Cube_FW_F4_V1.26.2/Middlewares/Third_Party/LwIP/src/core\tcp_out.c ****  * Transmission Control Protocol, outgoing traffic
   4:c:/Users/Black_Life/STM32Cube/Repository/STM32Cube_FW_F4_V1.26.2/Middlewares/Third_Party/LwIP/src/core\tcp_out.c ****  *
   5:c:/Users/Black_Life/STM32Cube/Repository/STM32Cube_FW_F4_V1.26.2/Middlewares/Third_Party/LwIP/src/core\tcp_out.c ****  * The output functions of TCP.
   6:c:/Users/Black_Life/STM32Cube/Repository/STM32Cube_FW_F4_V1.26.2/Middlewares/Third_Party/LwIP/src/core\tcp_out.c ****  *
   7:c:/Users/Black_Life/STM32Cube/Repository/STM32Cube_FW_F4_V1.26.2/Middlewares/Third_Party/LwIP/src/core\tcp_out.c ****  * There are two distinct ways for TCP segments to get sent:
   8:c:/Users/Black_Life/STM32Cube/Repository/STM32Cube_FW_F4_V1.26.2/Middlewares/Third_Party/LwIP/src/core\tcp_out.c ****  * - queued data: these are segments transferring data or segments containing
   9:c:/Users/Black_Life/STM32Cube/Repository/STM32Cube_FW_F4_V1.26.2/Middlewares/Third_Party/LwIP/src/core\tcp_out.c ****  *   SYN or FIN (which both count as one sequence number). They are created as
  10:c:/Users/Black_Life/STM32Cube/Repository/STM32Cube_FW_F4_V1.26.2/Middlewares/Third_Party/LwIP/src/core\tcp_out.c ****  *   struct @ref pbuf together with a struct tcp_seg and enqueue to the
  11:c:/Users/Black_Life/STM32Cube/Repository/STM32Cube_FW_F4_V1.26.2/Middlewares/Third_Party/LwIP/src/core\tcp_out.c ****  *   unsent list of the pcb. They are sent by tcp_output:
  12:c:/Users/Black_Life/STM32Cube/Repository/STM32Cube_FW_F4_V1.26.2/Middlewares/Third_Party/LwIP/src/core\tcp_out.c ****  *   - @ref tcp_write : creates data segments
  13:c:/Users/Black_Life/STM32Cube/Repository/STM32Cube_FW_F4_V1.26.2/Middlewares/Third_Party/LwIP/src/core\tcp_out.c ****  *   - @ref tcp_split_unsent_seg : splits a data segment
  14:c:/Users/Black_Life/STM32Cube/Repository/STM32Cube_FW_F4_V1.26.2/Middlewares/Third_Party/LwIP/src/core\tcp_out.c ****  *   - @ref tcp_enqueue_flags : creates SYN-only or FIN-only segments
  15:c:/Users/Black_Life/STM32Cube/Repository/STM32Cube_FW_F4_V1.26.2/Middlewares/Third_Party/LwIP/src/core\tcp_out.c ****  *   - @ref tcp_output / tcp_output_segment : finalize the tcp header
  16:c:/Users/Black_Life/STM32Cube/Repository/STM32Cube_FW_F4_V1.26.2/Middlewares/Third_Party/LwIP/src/core\tcp_out.c ****  *      (e.g. sequence numbers, options, checksum) and output to IP
  17:c:/Users/Black_Life/STM32Cube/Repository/STM32Cube_FW_F4_V1.26.2/Middlewares/Third_Party/LwIP/src/core\tcp_out.c ****  *   - the various tcp_rexmit functions shuffle around segments between the
  18:c:/Users/Black_Life/STM32Cube/Repository/STM32Cube_FW_F4_V1.26.2/Middlewares/Third_Party/LwIP/src/core\tcp_out.c ****  *     unsent an unacked lists to retransmit them
  19:c:/Users/Black_Life/STM32Cube/Repository/STM32Cube_FW_F4_V1.26.2/Middlewares/Third_Party/LwIP/src/core\tcp_out.c ****  *   - tcp_create_segment and tcp_pbuf_prealloc allocate pbuf and
  20:c:/Users/Black_Life/STM32Cube/Repository/STM32Cube_FW_F4_V1.26.2/Middlewares/Third_Party/LwIP/src/core\tcp_out.c ****  *     segment for these functions
  21:c:/Users/Black_Life/STM32Cube/Repository/STM32Cube_FW_F4_V1.26.2/Middlewares/Third_Party/LwIP/src/core\tcp_out.c ****  * - direct send: these segments don't contain data but control the connection
  22:c:/Users/Black_Life/STM32Cube/Repository/STM32Cube_FW_F4_V1.26.2/Middlewares/Third_Party/LwIP/src/core\tcp_out.c ****  *   behaviour. They are created as pbuf only and sent directly without
  23:c:/Users/Black_Life/STM32Cube/Repository/STM32Cube_FW_F4_V1.26.2/Middlewares/Third_Party/LwIP/src/core\tcp_out.c ****  *   enqueueing them:
  24:c:/Users/Black_Life/STM32Cube/Repository/STM32Cube_FW_F4_V1.26.2/Middlewares/Third_Party/LwIP/src/core\tcp_out.c ****  *   - @ref tcp_send_empty_ack sends an ACK-only segment
  25:c:/Users/Black_Life/STM32Cube/Repository/STM32Cube_FW_F4_V1.26.2/Middlewares/Third_Party/LwIP/src/core\tcp_out.c ****  *   - @ref tcp_rst sends a RST segment
  26:c:/Users/Black_Life/STM32Cube/Repository/STM32Cube_FW_F4_V1.26.2/Middlewares/Third_Party/LwIP/src/core\tcp_out.c ****  *   - @ref tcp_keepalive sends a keepalive segment
  27:c:/Users/Black_Life/STM32Cube/Repository/STM32Cube_FW_F4_V1.26.2/Middlewares/Third_Party/LwIP/src/core\tcp_out.c ****  *   - @ref tcp_zero_window_probe sends a window probe segment
  28:c:/Users/Black_Life/STM32Cube/Repository/STM32Cube_FW_F4_V1.26.2/Middlewares/Third_Party/LwIP/src/core\tcp_out.c ****  *   - tcp_output_alloc_header allocates a header-only pbuf for these functions
  29:c:/Users/Black_Life/STM32Cube/Repository/STM32Cube_FW_F4_V1.26.2/Middlewares/Third_Party/LwIP/src/core\tcp_out.c ****  */
  30:c:/Users/Black_Life/STM32Cube/Repository/STM32Cube_FW_F4_V1.26.2/Middlewares/Third_Party/LwIP/src/core\tcp_out.c **** 
  31:c:/Users/Black_Life/STM32Cube/Repository/STM32Cube_FW_F4_V1.26.2/Middlewares/Third_Party/LwIP/src/core\tcp_out.c **** /*
  32:c:/Users/Black_Life/STM32Cube/Repository/STM32Cube_FW_F4_V1.26.2/Middlewares/Third_Party/LwIP/src/core\tcp_out.c ****  * Copyright (c) 2001-2004 Swedish Institute of Computer Science.
  33:c:/Users/Black_Life/STM32Cube/Repository/STM32Cube_FW_F4_V1.26.2/Middlewares/Third_Party/LwIP/src/core\tcp_out.c ****  * All rights reserved.
  34:c:/Users/Black_Life/STM32Cube/Repository/STM32Cube_FW_F4_V1.26.2/Middlewares/Third_Party/LwIP/src/core\tcp_out.c ****  *
  35:c:/Users/Black_Life/STM32Cube/Repository/STM32Cube_FW_F4_V1.26.2/Middlewares/Third_Party/LwIP/src/core\tcp_out.c ****  * Redistribution and use in source and binary forms, with or without modification,
  36:c:/Users/Black_Life/STM32Cube/Repository/STM32Cube_FW_F4_V1.26.2/Middlewares/Third_Party/LwIP/src/core\tcp_out.c ****  * are permitted provided that the following conditions are met:
  37:c:/Users/Black_Life/STM32Cube/Repository/STM32Cube_FW_F4_V1.26.2/Middlewares/Third_Party/LwIP/src/core\tcp_out.c ****  *
  38:c:/Users/Black_Life/STM32Cube/Repository/STM32Cube_FW_F4_V1.26.2/Middlewares/Third_Party/LwIP/src/core\tcp_out.c ****  * 1. Redistributions of source code must retain the above copyright notice,
  39:c:/Users/Black_Life/STM32Cube/Repository/STM32Cube_FW_F4_V1.26.2/Middlewares/Third_Party/LwIP/src/core\tcp_out.c ****  *    this list of conditions and the following disclaimer.
  40:c:/Users/Black_Life/STM32Cube/Repository/STM32Cube_FW_F4_V1.26.2/Middlewares/Third_Party/LwIP/src/core\tcp_out.c ****  * 2. Redistributions in binary form must reproduce the above copyright notice,
  41:c:/Users/Black_Life/STM32Cube/Repository/STM32Cube_FW_F4_V1.26.2/Middlewares/Third_Party/LwIP/src/core\tcp_out.c ****  *    this list of conditions and the following disclaimer in the documentation
ARM GAS  C:\Users\BLACK_~1\AppData\Local\Temp\ccsw9P1a.s 			page 3


  42:c:/Users/Black_Life/STM32Cube/Repository/STM32Cube_FW_F4_V1.26.2/Middlewares/Third_Party/LwIP/src/core\tcp_out.c ****  *    and/or other materials provided with the distribution.
  43:c:/Users/Black_Life/STM32Cube/Repository/STM32Cube_FW_F4_V1.26.2/Middlewares/Third_Party/LwIP/src/core\tcp_out.c ****  * 3. The name of the author may not be used to endorse or promote products
  44:c:/Users/Black_Life/STM32Cube/Repository/STM32Cube_FW_F4_V1.26.2/Middlewares/Third_Party/LwIP/src/core\tcp_out.c ****  *    derived from this software without specific prior written permission.
  45:c:/Users/Black_Life/STM32Cube/Repository/STM32Cube_FW_F4_V1.26.2/Middlewares/Third_Party/LwIP/src/core\tcp_out.c ****  *
  46:c:/Users/Black_Life/STM32Cube/Repository/STM32Cube_FW_F4_V1.26.2/Middlewares/Third_Party/LwIP/src/core\tcp_out.c ****  * THIS SOFTWARE IS PROVIDED BY THE AUTHOR ``AS IS'' AND ANY EXPRESS OR IMPLIED
  47:c:/Users/Black_Life/STM32Cube/Repository/STM32Cube_FW_F4_V1.26.2/Middlewares/Third_Party/LwIP/src/core\tcp_out.c ****  * WARRANTIES, INCLUDING, BUT NOT LIMITED TO, THE IMPLIED WARRANTIES OF
  48:c:/Users/Black_Life/STM32Cube/Repository/STM32Cube_FW_F4_V1.26.2/Middlewares/Third_Party/LwIP/src/core\tcp_out.c ****  * MERCHANTABILITY AND FITNESS FOR A PARTICULAR PURPOSE ARE DISCLAIMED. IN NO EVENT
  49:c:/Users/Black_Life/STM32Cube/Repository/STM32Cube_FW_F4_V1.26.2/Middlewares/Third_Party/LwIP/src/core\tcp_out.c ****  * SHALL THE AUTHOR BE LIABLE FOR ANY DIRECT, INDIRECT, INCIDENTAL, SPECIAL,
  50:c:/Users/Black_Life/STM32Cube/Repository/STM32Cube_FW_F4_V1.26.2/Middlewares/Third_Party/LwIP/src/core\tcp_out.c ****  * EXEMPLARY, OR CONSEQUENTIAL DAMAGES (INCLUDING, BUT NOT LIMITED TO, PROCUREMENT
  51:c:/Users/Black_Life/STM32Cube/Repository/STM32Cube_FW_F4_V1.26.2/Middlewares/Third_Party/LwIP/src/core\tcp_out.c ****  * OF SUBSTITUTE GOODS OR SERVICES; LOSS OF USE, DATA, OR PROFITS; OR BUSINESS
  52:c:/Users/Black_Life/STM32Cube/Repository/STM32Cube_FW_F4_V1.26.2/Middlewares/Third_Party/LwIP/src/core\tcp_out.c ****  * INTERRUPTION) HOWEVER CAUSED AND ON ANY THEORY OF LIABILITY, WHETHER IN
  53:c:/Users/Black_Life/STM32Cube/Repository/STM32Cube_FW_F4_V1.26.2/Middlewares/Third_Party/LwIP/src/core\tcp_out.c ****  * CONTRACT, STRICT LIABILITY, OR TORT (INCLUDING NEGLIGENCE OR OTHERWISE) ARISING
  54:c:/Users/Black_Life/STM32Cube/Repository/STM32Cube_FW_F4_V1.26.2/Middlewares/Third_Party/LwIP/src/core\tcp_out.c ****  * IN ANY WAY OUT OF THE USE OF THIS SOFTWARE, EVEN IF ADVISED OF THE POSSIBILITY
  55:c:/Users/Black_Life/STM32Cube/Repository/STM32Cube_FW_F4_V1.26.2/Middlewares/Third_Party/LwIP/src/core\tcp_out.c ****  * OF SUCH DAMAGE.
  56:c:/Users/Black_Life/STM32Cube/Repository/STM32Cube_FW_F4_V1.26.2/Middlewares/Third_Party/LwIP/src/core\tcp_out.c ****  *
  57:c:/Users/Black_Life/STM32Cube/Repository/STM32Cube_FW_F4_V1.26.2/Middlewares/Third_Party/LwIP/src/core\tcp_out.c ****  * This file is part of the lwIP TCP/IP stack.
  58:c:/Users/Black_Life/STM32Cube/Repository/STM32Cube_FW_F4_V1.26.2/Middlewares/Third_Party/LwIP/src/core\tcp_out.c ****  *
  59:c:/Users/Black_Life/STM32Cube/Repository/STM32Cube_FW_F4_V1.26.2/Middlewares/Third_Party/LwIP/src/core\tcp_out.c ****  * Author: Adam Dunkels <adam@sics.se>
  60:c:/Users/Black_Life/STM32Cube/Repository/STM32Cube_FW_F4_V1.26.2/Middlewares/Third_Party/LwIP/src/core\tcp_out.c ****  *
  61:c:/Users/Black_Life/STM32Cube/Repository/STM32Cube_FW_F4_V1.26.2/Middlewares/Third_Party/LwIP/src/core\tcp_out.c ****  */
  62:c:/Users/Black_Life/STM32Cube/Repository/STM32Cube_FW_F4_V1.26.2/Middlewares/Third_Party/LwIP/src/core\tcp_out.c **** 
  63:c:/Users/Black_Life/STM32Cube/Repository/STM32Cube_FW_F4_V1.26.2/Middlewares/Third_Party/LwIP/src/core\tcp_out.c **** #include "lwip/opt.h"
  64:c:/Users/Black_Life/STM32Cube/Repository/STM32Cube_FW_F4_V1.26.2/Middlewares/Third_Party/LwIP/src/core\tcp_out.c **** 
  65:c:/Users/Black_Life/STM32Cube/Repository/STM32Cube_FW_F4_V1.26.2/Middlewares/Third_Party/LwIP/src/core\tcp_out.c **** #if LWIP_TCP /* don't build if not configured for use in lwipopts.h */
  66:c:/Users/Black_Life/STM32Cube/Repository/STM32Cube_FW_F4_V1.26.2/Middlewares/Third_Party/LwIP/src/core\tcp_out.c **** 
  67:c:/Users/Black_Life/STM32Cube/Repository/STM32Cube_FW_F4_V1.26.2/Middlewares/Third_Party/LwIP/src/core\tcp_out.c **** #include "lwip/priv/tcp_priv.h"
  68:c:/Users/Black_Life/STM32Cube/Repository/STM32Cube_FW_F4_V1.26.2/Middlewares/Third_Party/LwIP/src/core\tcp_out.c **** #include "lwip/def.h"
  69:c:/Users/Black_Life/STM32Cube/Repository/STM32Cube_FW_F4_V1.26.2/Middlewares/Third_Party/LwIP/src/core\tcp_out.c **** #include "lwip/mem.h"
  70:c:/Users/Black_Life/STM32Cube/Repository/STM32Cube_FW_F4_V1.26.2/Middlewares/Third_Party/LwIP/src/core\tcp_out.c **** #include "lwip/memp.h"
  71:c:/Users/Black_Life/STM32Cube/Repository/STM32Cube_FW_F4_V1.26.2/Middlewares/Third_Party/LwIP/src/core\tcp_out.c **** #include "lwip/ip_addr.h"
  72:c:/Users/Black_Life/STM32Cube/Repository/STM32Cube_FW_F4_V1.26.2/Middlewares/Third_Party/LwIP/src/core\tcp_out.c **** #include "lwip/netif.h"
  73:c:/Users/Black_Life/STM32Cube/Repository/STM32Cube_FW_F4_V1.26.2/Middlewares/Third_Party/LwIP/src/core\tcp_out.c **** #include "lwip/inet_chksum.h"
  74:c:/Users/Black_Life/STM32Cube/Repository/STM32Cube_FW_F4_V1.26.2/Middlewares/Third_Party/LwIP/src/core\tcp_out.c **** #include "lwip/stats.h"
  75:c:/Users/Black_Life/STM32Cube/Repository/STM32Cube_FW_F4_V1.26.2/Middlewares/Third_Party/LwIP/src/core\tcp_out.c **** #include "lwip/ip6.h"
  76:c:/Users/Black_Life/STM32Cube/Repository/STM32Cube_FW_F4_V1.26.2/Middlewares/Third_Party/LwIP/src/core\tcp_out.c **** #include "lwip/ip6_addr.h"
  77:c:/Users/Black_Life/STM32Cube/Repository/STM32Cube_FW_F4_V1.26.2/Middlewares/Third_Party/LwIP/src/core\tcp_out.c **** #if LWIP_TCP_TIMESTAMPS
  78:c:/Users/Black_Life/STM32Cube/Repository/STM32Cube_FW_F4_V1.26.2/Middlewares/Third_Party/LwIP/src/core\tcp_out.c **** #include "lwip/sys.h"
  79:c:/Users/Black_Life/STM32Cube/Repository/STM32Cube_FW_F4_V1.26.2/Middlewares/Third_Party/LwIP/src/core\tcp_out.c **** #endif
  80:c:/Users/Black_Life/STM32Cube/Repository/STM32Cube_FW_F4_V1.26.2/Middlewares/Third_Party/LwIP/src/core\tcp_out.c **** 
  81:c:/Users/Black_Life/STM32Cube/Repository/STM32Cube_FW_F4_V1.26.2/Middlewares/Third_Party/LwIP/src/core\tcp_out.c **** #include <string.h>
  82:c:/Users/Black_Life/STM32Cube/Repository/STM32Cube_FW_F4_V1.26.2/Middlewares/Third_Party/LwIP/src/core\tcp_out.c **** 
  83:c:/Users/Black_Life/STM32Cube/Repository/STM32Cube_FW_F4_V1.26.2/Middlewares/Third_Party/LwIP/src/core\tcp_out.c **** #ifdef LWIP_HOOK_FILENAME
  84:c:/Users/Black_Life/STM32Cube/Repository/STM32Cube_FW_F4_V1.26.2/Middlewares/Third_Party/LwIP/src/core\tcp_out.c **** #include LWIP_HOOK_FILENAME
  85:c:/Users/Black_Life/STM32Cube/Repository/STM32Cube_FW_F4_V1.26.2/Middlewares/Third_Party/LwIP/src/core\tcp_out.c **** #endif
  86:c:/Users/Black_Life/STM32Cube/Repository/STM32Cube_FW_F4_V1.26.2/Middlewares/Third_Party/LwIP/src/core\tcp_out.c **** 
  87:c:/Users/Black_Life/STM32Cube/Repository/STM32Cube_FW_F4_V1.26.2/Middlewares/Third_Party/LwIP/src/core\tcp_out.c **** /* Allow to add custom TCP header options by defining this hook */
  88:c:/Users/Black_Life/STM32Cube/Repository/STM32Cube_FW_F4_V1.26.2/Middlewares/Third_Party/LwIP/src/core\tcp_out.c **** #ifdef LWIP_HOOK_TCP_OUT_TCPOPT_LENGTH
  89:c:/Users/Black_Life/STM32Cube/Repository/STM32Cube_FW_F4_V1.26.2/Middlewares/Third_Party/LwIP/src/core\tcp_out.c **** #define LWIP_TCP_OPT_LENGTH_SEGMENT(flags, pcb) LWIP_HOOK_TCP_OUT_TCPOPT_LENGTH(pcb, LWIP_TCP_OPT_L
  90:c:/Users/Black_Life/STM32Cube/Repository/STM32Cube_FW_F4_V1.26.2/Middlewares/Third_Party/LwIP/src/core\tcp_out.c **** #else
  91:c:/Users/Black_Life/STM32Cube/Repository/STM32Cube_FW_F4_V1.26.2/Middlewares/Third_Party/LwIP/src/core\tcp_out.c **** #define LWIP_TCP_OPT_LENGTH_SEGMENT(flags, pcb) LWIP_TCP_OPT_LENGTH(flags)
  92:c:/Users/Black_Life/STM32Cube/Repository/STM32Cube_FW_F4_V1.26.2/Middlewares/Third_Party/LwIP/src/core\tcp_out.c **** #endif
  93:c:/Users/Black_Life/STM32Cube/Repository/STM32Cube_FW_F4_V1.26.2/Middlewares/Third_Party/LwIP/src/core\tcp_out.c **** 
  94:c:/Users/Black_Life/STM32Cube/Repository/STM32Cube_FW_F4_V1.26.2/Middlewares/Third_Party/LwIP/src/core\tcp_out.c **** /* Define some copy-macros for checksum-on-copy so that the code looks
  95:c:/Users/Black_Life/STM32Cube/Repository/STM32Cube_FW_F4_V1.26.2/Middlewares/Third_Party/LwIP/src/core\tcp_out.c ****    nicer by preventing too many ifdef's. */
  96:c:/Users/Black_Life/STM32Cube/Repository/STM32Cube_FW_F4_V1.26.2/Middlewares/Third_Party/LwIP/src/core\tcp_out.c **** #if TCP_CHECKSUM_ON_COPY
  97:c:/Users/Black_Life/STM32Cube/Repository/STM32Cube_FW_F4_V1.26.2/Middlewares/Third_Party/LwIP/src/core\tcp_out.c **** #define TCP_DATA_COPY(dst, src, len, seg) do { \
  98:c:/Users/Black_Life/STM32Cube/Repository/STM32Cube_FW_F4_V1.26.2/Middlewares/Third_Party/LwIP/src/core\tcp_out.c ****   tcp_seg_add_chksum(LWIP_CHKSUM_COPY(dst, src, len), \
ARM GAS  C:\Users\BLACK_~1\AppData\Local\Temp\ccsw9P1a.s 			page 4


  99:c:/Users/Black_Life/STM32Cube/Repository/STM32Cube_FW_F4_V1.26.2/Middlewares/Third_Party/LwIP/src/core\tcp_out.c ****                      len, &seg->chksum, &seg->chksum_swapped); \
 100:c:/Users/Black_Life/STM32Cube/Repository/STM32Cube_FW_F4_V1.26.2/Middlewares/Third_Party/LwIP/src/core\tcp_out.c ****   seg->flags |= TF_SEG_DATA_CHECKSUMMED; } while(0)
 101:c:/Users/Black_Life/STM32Cube/Repository/STM32Cube_FW_F4_V1.26.2/Middlewares/Third_Party/LwIP/src/core\tcp_out.c **** #define TCP_DATA_COPY2(dst, src, len, chksum, chksum_swapped)  \
 102:c:/Users/Black_Life/STM32Cube/Repository/STM32Cube_FW_F4_V1.26.2/Middlewares/Third_Party/LwIP/src/core\tcp_out.c ****   tcp_seg_add_chksum(LWIP_CHKSUM_COPY(dst, src, len), len, chksum, chksum_swapped);
 103:c:/Users/Black_Life/STM32Cube/Repository/STM32Cube_FW_F4_V1.26.2/Middlewares/Third_Party/LwIP/src/core\tcp_out.c **** #else /* TCP_CHECKSUM_ON_COPY*/
 104:c:/Users/Black_Life/STM32Cube/Repository/STM32Cube_FW_F4_V1.26.2/Middlewares/Third_Party/LwIP/src/core\tcp_out.c **** #define TCP_DATA_COPY(dst, src, len, seg)                     MEMCPY(dst, src, len)
 105:c:/Users/Black_Life/STM32Cube/Repository/STM32Cube_FW_F4_V1.26.2/Middlewares/Third_Party/LwIP/src/core\tcp_out.c **** #define TCP_DATA_COPY2(dst, src, len, chksum, chksum_swapped) MEMCPY(dst, src, len)
 106:c:/Users/Black_Life/STM32Cube/Repository/STM32Cube_FW_F4_V1.26.2/Middlewares/Third_Party/LwIP/src/core\tcp_out.c **** #endif /* TCP_CHECKSUM_ON_COPY*/
 107:c:/Users/Black_Life/STM32Cube/Repository/STM32Cube_FW_F4_V1.26.2/Middlewares/Third_Party/LwIP/src/core\tcp_out.c **** 
 108:c:/Users/Black_Life/STM32Cube/Repository/STM32Cube_FW_F4_V1.26.2/Middlewares/Third_Party/LwIP/src/core\tcp_out.c **** /** Define this to 1 for an extra check that the output checksum is valid
 109:c:/Users/Black_Life/STM32Cube/Repository/STM32Cube_FW_F4_V1.26.2/Middlewares/Third_Party/LwIP/src/core\tcp_out.c ****  * (usefule when the checksum is generated by the application, not the stack) */
 110:c:/Users/Black_Life/STM32Cube/Repository/STM32Cube_FW_F4_V1.26.2/Middlewares/Third_Party/LwIP/src/core\tcp_out.c **** #ifndef TCP_CHECKSUM_ON_COPY_SANITY_CHECK
 111:c:/Users/Black_Life/STM32Cube/Repository/STM32Cube_FW_F4_V1.26.2/Middlewares/Third_Party/LwIP/src/core\tcp_out.c **** #define TCP_CHECKSUM_ON_COPY_SANITY_CHECK   0
 112:c:/Users/Black_Life/STM32Cube/Repository/STM32Cube_FW_F4_V1.26.2/Middlewares/Third_Party/LwIP/src/core\tcp_out.c **** #endif
 113:c:/Users/Black_Life/STM32Cube/Repository/STM32Cube_FW_F4_V1.26.2/Middlewares/Third_Party/LwIP/src/core\tcp_out.c **** /* Allow to override the failure of sanity check from warning to e.g. hard failure */
 114:c:/Users/Black_Life/STM32Cube/Repository/STM32Cube_FW_F4_V1.26.2/Middlewares/Third_Party/LwIP/src/core\tcp_out.c **** #if TCP_CHECKSUM_ON_COPY_SANITY_CHECK
 115:c:/Users/Black_Life/STM32Cube/Repository/STM32Cube_FW_F4_V1.26.2/Middlewares/Third_Party/LwIP/src/core\tcp_out.c **** #ifndef TCP_CHECKSUM_ON_COPY_SANITY_CHECK_FAIL
 116:c:/Users/Black_Life/STM32Cube/Repository/STM32Cube_FW_F4_V1.26.2/Middlewares/Third_Party/LwIP/src/core\tcp_out.c **** #define TCP_CHECKSUM_ON_COPY_SANITY_CHECK_FAIL(msg) LWIP_DEBUGF(TCP_DEBUG | LWIP_DBG_LEVEL_WARNING,
 117:c:/Users/Black_Life/STM32Cube/Repository/STM32Cube_FW_F4_V1.26.2/Middlewares/Third_Party/LwIP/src/core\tcp_out.c **** #endif
 118:c:/Users/Black_Life/STM32Cube/Repository/STM32Cube_FW_F4_V1.26.2/Middlewares/Third_Party/LwIP/src/core\tcp_out.c **** #endif
 119:c:/Users/Black_Life/STM32Cube/Repository/STM32Cube_FW_F4_V1.26.2/Middlewares/Third_Party/LwIP/src/core\tcp_out.c **** 
 120:c:/Users/Black_Life/STM32Cube/Repository/STM32Cube_FW_F4_V1.26.2/Middlewares/Third_Party/LwIP/src/core\tcp_out.c **** #if TCP_OVERSIZE
 121:c:/Users/Black_Life/STM32Cube/Repository/STM32Cube_FW_F4_V1.26.2/Middlewares/Third_Party/LwIP/src/core\tcp_out.c **** /** The size of segment pbufs created when TCP_OVERSIZE is enabled */
 122:c:/Users/Black_Life/STM32Cube/Repository/STM32Cube_FW_F4_V1.26.2/Middlewares/Third_Party/LwIP/src/core\tcp_out.c **** #ifndef TCP_OVERSIZE_CALC_LENGTH
 123:c:/Users/Black_Life/STM32Cube/Repository/STM32Cube_FW_F4_V1.26.2/Middlewares/Third_Party/LwIP/src/core\tcp_out.c **** #define TCP_OVERSIZE_CALC_LENGTH(length) ((length) + TCP_OVERSIZE)
 124:c:/Users/Black_Life/STM32Cube/Repository/STM32Cube_FW_F4_V1.26.2/Middlewares/Third_Party/LwIP/src/core\tcp_out.c **** #endif
 125:c:/Users/Black_Life/STM32Cube/Repository/STM32Cube_FW_F4_V1.26.2/Middlewares/Third_Party/LwIP/src/core\tcp_out.c **** #endif
 126:c:/Users/Black_Life/STM32Cube/Repository/STM32Cube_FW_F4_V1.26.2/Middlewares/Third_Party/LwIP/src/core\tcp_out.c **** 
 127:c:/Users/Black_Life/STM32Cube/Repository/STM32Cube_FW_F4_V1.26.2/Middlewares/Third_Party/LwIP/src/core\tcp_out.c **** /* Forward declarations.*/
 128:c:/Users/Black_Life/STM32Cube/Repository/STM32Cube_FW_F4_V1.26.2/Middlewares/Third_Party/LwIP/src/core\tcp_out.c **** static err_t tcp_output_segment(struct tcp_seg *seg, struct tcp_pcb *pcb, struct netif *netif);
 129:c:/Users/Black_Life/STM32Cube/Repository/STM32Cube_FW_F4_V1.26.2/Middlewares/Third_Party/LwIP/src/core\tcp_out.c **** 
 130:c:/Users/Black_Life/STM32Cube/Repository/STM32Cube_FW_F4_V1.26.2/Middlewares/Third_Party/LwIP/src/core\tcp_out.c **** /* tcp_route: common code that returns a fixed bound netif or calls ip_route */
 131:c:/Users/Black_Life/STM32Cube/Repository/STM32Cube_FW_F4_V1.26.2/Middlewares/Third_Party/LwIP/src/core\tcp_out.c **** static struct netif *
 132:c:/Users/Black_Life/STM32Cube/Repository/STM32Cube_FW_F4_V1.26.2/Middlewares/Third_Party/LwIP/src/core\tcp_out.c **** tcp_route(const struct tcp_pcb *pcb, const ip_addr_t *src, const ip_addr_t *dst)
 133:c:/Users/Black_Life/STM32Cube/Repository/STM32Cube_FW_F4_V1.26.2/Middlewares/Third_Party/LwIP/src/core\tcp_out.c **** {
 134:c:/Users/Black_Life/STM32Cube/Repository/STM32Cube_FW_F4_V1.26.2/Middlewares/Third_Party/LwIP/src/core\tcp_out.c ****   LWIP_UNUSED_ARG(src); /* in case IPv4-only and source-based routing is disabled */
 135:c:/Users/Black_Life/STM32Cube/Repository/STM32Cube_FW_F4_V1.26.2/Middlewares/Third_Party/LwIP/src/core\tcp_out.c **** 
 136:c:/Users/Black_Life/STM32Cube/Repository/STM32Cube_FW_F4_V1.26.2/Middlewares/Third_Party/LwIP/src/core\tcp_out.c ****   if ((pcb != NULL) && (pcb->netif_idx != NETIF_NO_INDEX)) {
 137:c:/Users/Black_Life/STM32Cube/Repository/STM32Cube_FW_F4_V1.26.2/Middlewares/Third_Party/LwIP/src/core\tcp_out.c ****     return netif_get_by_index(pcb->netif_idx);
 138:c:/Users/Black_Life/STM32Cube/Repository/STM32Cube_FW_F4_V1.26.2/Middlewares/Third_Party/LwIP/src/core\tcp_out.c ****   } else {
 139:c:/Users/Black_Life/STM32Cube/Repository/STM32Cube_FW_F4_V1.26.2/Middlewares/Third_Party/LwIP/src/core\tcp_out.c ****     return ip_route(src, dst);
 140:c:/Users/Black_Life/STM32Cube/Repository/STM32Cube_FW_F4_V1.26.2/Middlewares/Third_Party/LwIP/src/core\tcp_out.c ****   }
 141:c:/Users/Black_Life/STM32Cube/Repository/STM32Cube_FW_F4_V1.26.2/Middlewares/Third_Party/LwIP/src/core\tcp_out.c **** }
 142:c:/Users/Black_Life/STM32Cube/Repository/STM32Cube_FW_F4_V1.26.2/Middlewares/Third_Party/LwIP/src/core\tcp_out.c **** 
 143:c:/Users/Black_Life/STM32Cube/Repository/STM32Cube_FW_F4_V1.26.2/Middlewares/Third_Party/LwIP/src/core\tcp_out.c **** /**
 144:c:/Users/Black_Life/STM32Cube/Repository/STM32Cube_FW_F4_V1.26.2/Middlewares/Third_Party/LwIP/src/core\tcp_out.c ****  * Create a TCP segment with prefilled header.
 145:c:/Users/Black_Life/STM32Cube/Repository/STM32Cube_FW_F4_V1.26.2/Middlewares/Third_Party/LwIP/src/core\tcp_out.c ****  *
 146:c:/Users/Black_Life/STM32Cube/Repository/STM32Cube_FW_F4_V1.26.2/Middlewares/Third_Party/LwIP/src/core\tcp_out.c ****  * Called by @ref tcp_write, @ref tcp_enqueue_flags and @ref tcp_split_unsent_seg
 147:c:/Users/Black_Life/STM32Cube/Repository/STM32Cube_FW_F4_V1.26.2/Middlewares/Third_Party/LwIP/src/core\tcp_out.c ****  *
 148:c:/Users/Black_Life/STM32Cube/Repository/STM32Cube_FW_F4_V1.26.2/Middlewares/Third_Party/LwIP/src/core\tcp_out.c ****  * @param pcb Protocol control block for the TCP connection.
 149:c:/Users/Black_Life/STM32Cube/Repository/STM32Cube_FW_F4_V1.26.2/Middlewares/Third_Party/LwIP/src/core\tcp_out.c ****  * @param p pbuf that is used to hold the TCP header.
 150:c:/Users/Black_Life/STM32Cube/Repository/STM32Cube_FW_F4_V1.26.2/Middlewares/Third_Party/LwIP/src/core\tcp_out.c ****  * @param hdrflags TCP flags for header.
 151:c:/Users/Black_Life/STM32Cube/Repository/STM32Cube_FW_F4_V1.26.2/Middlewares/Third_Party/LwIP/src/core\tcp_out.c ****  * @param seqno TCP sequence number of this packet
 152:c:/Users/Black_Life/STM32Cube/Repository/STM32Cube_FW_F4_V1.26.2/Middlewares/Third_Party/LwIP/src/core\tcp_out.c ****  * @param optflags options to include in TCP header
 153:c:/Users/Black_Life/STM32Cube/Repository/STM32Cube_FW_F4_V1.26.2/Middlewares/Third_Party/LwIP/src/core\tcp_out.c ****  * @return a new tcp_seg pointing to p, or NULL.
 154:c:/Users/Black_Life/STM32Cube/Repository/STM32Cube_FW_F4_V1.26.2/Middlewares/Third_Party/LwIP/src/core\tcp_out.c ****  * The TCP header is filled in except ackno and wnd.
 155:c:/Users/Black_Life/STM32Cube/Repository/STM32Cube_FW_F4_V1.26.2/Middlewares/Third_Party/LwIP/src/core\tcp_out.c ****  * p is freed on failure.
ARM GAS  C:\Users\BLACK_~1\AppData\Local\Temp\ccsw9P1a.s 			page 5


 156:c:/Users/Black_Life/STM32Cube/Repository/STM32Cube_FW_F4_V1.26.2/Middlewares/Third_Party/LwIP/src/core\tcp_out.c ****  */
 157:c:/Users/Black_Life/STM32Cube/Repository/STM32Cube_FW_F4_V1.26.2/Middlewares/Third_Party/LwIP/src/core\tcp_out.c **** static struct tcp_seg *
 158:c:/Users/Black_Life/STM32Cube/Repository/STM32Cube_FW_F4_V1.26.2/Middlewares/Third_Party/LwIP/src/core\tcp_out.c **** tcp_create_segment(const struct tcp_pcb *pcb, struct pbuf *p, u8_t hdrflags, u32_t seqno, u8_t optf
 159:c:/Users/Black_Life/STM32Cube/Repository/STM32Cube_FW_F4_V1.26.2/Middlewares/Third_Party/LwIP/src/core\tcp_out.c **** {
 160:c:/Users/Black_Life/STM32Cube/Repository/STM32Cube_FW_F4_V1.26.2/Middlewares/Third_Party/LwIP/src/core\tcp_out.c ****   struct tcp_seg *seg;
 161:c:/Users/Black_Life/STM32Cube/Repository/STM32Cube_FW_F4_V1.26.2/Middlewares/Third_Party/LwIP/src/core\tcp_out.c ****   u8_t optlen;
 162:c:/Users/Black_Life/STM32Cube/Repository/STM32Cube_FW_F4_V1.26.2/Middlewares/Third_Party/LwIP/src/core\tcp_out.c **** 
 163:c:/Users/Black_Life/STM32Cube/Repository/STM32Cube_FW_F4_V1.26.2/Middlewares/Third_Party/LwIP/src/core\tcp_out.c ****   LWIP_ASSERT("tcp_create_segment: invalid pcb", pcb != NULL);
 164:c:/Users/Black_Life/STM32Cube/Repository/STM32Cube_FW_F4_V1.26.2/Middlewares/Third_Party/LwIP/src/core\tcp_out.c ****   LWIP_ASSERT("tcp_create_segment: invalid pbuf", p != NULL);
 165:c:/Users/Black_Life/STM32Cube/Repository/STM32Cube_FW_F4_V1.26.2/Middlewares/Third_Party/LwIP/src/core\tcp_out.c **** 
 166:c:/Users/Black_Life/STM32Cube/Repository/STM32Cube_FW_F4_V1.26.2/Middlewares/Third_Party/LwIP/src/core\tcp_out.c ****   optlen = LWIP_TCP_OPT_LENGTH_SEGMENT(optflags, pcb);
 167:c:/Users/Black_Life/STM32Cube/Repository/STM32Cube_FW_F4_V1.26.2/Middlewares/Third_Party/LwIP/src/core\tcp_out.c **** 
 168:c:/Users/Black_Life/STM32Cube/Repository/STM32Cube_FW_F4_V1.26.2/Middlewares/Third_Party/LwIP/src/core\tcp_out.c ****   if ((seg = (struct tcp_seg *)memp_malloc(MEMP_TCP_SEG)) == NULL) {
 169:c:/Users/Black_Life/STM32Cube/Repository/STM32Cube_FW_F4_V1.26.2/Middlewares/Third_Party/LwIP/src/core\tcp_out.c ****     LWIP_DEBUGF(TCP_OUTPUT_DEBUG | LWIP_DBG_LEVEL_SERIOUS, ("tcp_create_segment: no memory.\n"));
 170:c:/Users/Black_Life/STM32Cube/Repository/STM32Cube_FW_F4_V1.26.2/Middlewares/Third_Party/LwIP/src/core\tcp_out.c ****     pbuf_free(p);
 171:c:/Users/Black_Life/STM32Cube/Repository/STM32Cube_FW_F4_V1.26.2/Middlewares/Third_Party/LwIP/src/core\tcp_out.c ****     return NULL;
 172:c:/Users/Black_Life/STM32Cube/Repository/STM32Cube_FW_F4_V1.26.2/Middlewares/Third_Party/LwIP/src/core\tcp_out.c ****   }
 173:c:/Users/Black_Life/STM32Cube/Repository/STM32Cube_FW_F4_V1.26.2/Middlewares/Third_Party/LwIP/src/core\tcp_out.c ****   seg->flags = optflags;
 174:c:/Users/Black_Life/STM32Cube/Repository/STM32Cube_FW_F4_V1.26.2/Middlewares/Third_Party/LwIP/src/core\tcp_out.c ****   seg->next = NULL;
 175:c:/Users/Black_Life/STM32Cube/Repository/STM32Cube_FW_F4_V1.26.2/Middlewares/Third_Party/LwIP/src/core\tcp_out.c ****   seg->p = p;
 176:c:/Users/Black_Life/STM32Cube/Repository/STM32Cube_FW_F4_V1.26.2/Middlewares/Third_Party/LwIP/src/core\tcp_out.c ****   LWIP_ASSERT("p->tot_len >= optlen", p->tot_len >= optlen);
 177:c:/Users/Black_Life/STM32Cube/Repository/STM32Cube_FW_F4_V1.26.2/Middlewares/Third_Party/LwIP/src/core\tcp_out.c ****   seg->len = p->tot_len - optlen;
 178:c:/Users/Black_Life/STM32Cube/Repository/STM32Cube_FW_F4_V1.26.2/Middlewares/Third_Party/LwIP/src/core\tcp_out.c **** #if TCP_OVERSIZE_DBGCHECK
 179:c:/Users/Black_Life/STM32Cube/Repository/STM32Cube_FW_F4_V1.26.2/Middlewares/Third_Party/LwIP/src/core\tcp_out.c ****   seg->oversize_left = 0;
 180:c:/Users/Black_Life/STM32Cube/Repository/STM32Cube_FW_F4_V1.26.2/Middlewares/Third_Party/LwIP/src/core\tcp_out.c **** #endif /* TCP_OVERSIZE_DBGCHECK */
 181:c:/Users/Black_Life/STM32Cube/Repository/STM32Cube_FW_F4_V1.26.2/Middlewares/Third_Party/LwIP/src/core\tcp_out.c **** #if TCP_CHECKSUM_ON_COPY
 182:c:/Users/Black_Life/STM32Cube/Repository/STM32Cube_FW_F4_V1.26.2/Middlewares/Third_Party/LwIP/src/core\tcp_out.c ****   seg->chksum = 0;
 183:c:/Users/Black_Life/STM32Cube/Repository/STM32Cube_FW_F4_V1.26.2/Middlewares/Third_Party/LwIP/src/core\tcp_out.c ****   seg->chksum_swapped = 0;
 184:c:/Users/Black_Life/STM32Cube/Repository/STM32Cube_FW_F4_V1.26.2/Middlewares/Third_Party/LwIP/src/core\tcp_out.c ****   /* check optflags */
 185:c:/Users/Black_Life/STM32Cube/Repository/STM32Cube_FW_F4_V1.26.2/Middlewares/Third_Party/LwIP/src/core\tcp_out.c ****   LWIP_ASSERT("invalid optflags passed: TF_SEG_DATA_CHECKSUMMED",
 186:c:/Users/Black_Life/STM32Cube/Repository/STM32Cube_FW_F4_V1.26.2/Middlewares/Third_Party/LwIP/src/core\tcp_out.c ****               (optflags & TF_SEG_DATA_CHECKSUMMED) == 0);
 187:c:/Users/Black_Life/STM32Cube/Repository/STM32Cube_FW_F4_V1.26.2/Middlewares/Third_Party/LwIP/src/core\tcp_out.c **** #endif /* TCP_CHECKSUM_ON_COPY */
 188:c:/Users/Black_Life/STM32Cube/Repository/STM32Cube_FW_F4_V1.26.2/Middlewares/Third_Party/LwIP/src/core\tcp_out.c **** 
 189:c:/Users/Black_Life/STM32Cube/Repository/STM32Cube_FW_F4_V1.26.2/Middlewares/Third_Party/LwIP/src/core\tcp_out.c ****   /* build TCP header */
 190:c:/Users/Black_Life/STM32Cube/Repository/STM32Cube_FW_F4_V1.26.2/Middlewares/Third_Party/LwIP/src/core\tcp_out.c ****   if (pbuf_add_header(p, TCP_HLEN)) {
 191:c:/Users/Black_Life/STM32Cube/Repository/STM32Cube_FW_F4_V1.26.2/Middlewares/Third_Party/LwIP/src/core\tcp_out.c ****     LWIP_DEBUGF(TCP_OUTPUT_DEBUG | LWIP_DBG_LEVEL_SERIOUS, ("tcp_create_segment: no room for TCP he
 192:c:/Users/Black_Life/STM32Cube/Repository/STM32Cube_FW_F4_V1.26.2/Middlewares/Third_Party/LwIP/src/core\tcp_out.c ****     TCP_STATS_INC(tcp.err);
 193:c:/Users/Black_Life/STM32Cube/Repository/STM32Cube_FW_F4_V1.26.2/Middlewares/Third_Party/LwIP/src/core\tcp_out.c ****     tcp_seg_free(seg);
 194:c:/Users/Black_Life/STM32Cube/Repository/STM32Cube_FW_F4_V1.26.2/Middlewares/Third_Party/LwIP/src/core\tcp_out.c ****     return NULL;
 195:c:/Users/Black_Life/STM32Cube/Repository/STM32Cube_FW_F4_V1.26.2/Middlewares/Third_Party/LwIP/src/core\tcp_out.c ****   }
 196:c:/Users/Black_Life/STM32Cube/Repository/STM32Cube_FW_F4_V1.26.2/Middlewares/Third_Party/LwIP/src/core\tcp_out.c ****   seg->tcphdr = (struct tcp_hdr *)seg->p->payload;
 197:c:/Users/Black_Life/STM32Cube/Repository/STM32Cube_FW_F4_V1.26.2/Middlewares/Third_Party/LwIP/src/core\tcp_out.c ****   seg->tcphdr->src = lwip_htons(pcb->local_port);
 198:c:/Users/Black_Life/STM32Cube/Repository/STM32Cube_FW_F4_V1.26.2/Middlewares/Third_Party/LwIP/src/core\tcp_out.c ****   seg->tcphdr->dest = lwip_htons(pcb->remote_port);
 199:c:/Users/Black_Life/STM32Cube/Repository/STM32Cube_FW_F4_V1.26.2/Middlewares/Third_Party/LwIP/src/core\tcp_out.c ****   seg->tcphdr->seqno = lwip_htonl(seqno);
 200:c:/Users/Black_Life/STM32Cube/Repository/STM32Cube_FW_F4_V1.26.2/Middlewares/Third_Party/LwIP/src/core\tcp_out.c ****   /* ackno is set in tcp_output */
 201:c:/Users/Black_Life/STM32Cube/Repository/STM32Cube_FW_F4_V1.26.2/Middlewares/Third_Party/LwIP/src/core\tcp_out.c ****   TCPH_HDRLEN_FLAGS_SET(seg->tcphdr, (5 + optlen / 4), hdrflags);
 202:c:/Users/Black_Life/STM32Cube/Repository/STM32Cube_FW_F4_V1.26.2/Middlewares/Third_Party/LwIP/src/core\tcp_out.c ****   /* wnd and chksum are set in tcp_output */
 203:c:/Users/Black_Life/STM32Cube/Repository/STM32Cube_FW_F4_V1.26.2/Middlewares/Third_Party/LwIP/src/core\tcp_out.c ****   seg->tcphdr->urgp = 0;
 204:c:/Users/Black_Life/STM32Cube/Repository/STM32Cube_FW_F4_V1.26.2/Middlewares/Third_Party/LwIP/src/core\tcp_out.c ****   return seg;
 205:c:/Users/Black_Life/STM32Cube/Repository/STM32Cube_FW_F4_V1.26.2/Middlewares/Third_Party/LwIP/src/core\tcp_out.c **** }
 206:c:/Users/Black_Life/STM32Cube/Repository/STM32Cube_FW_F4_V1.26.2/Middlewares/Third_Party/LwIP/src/core\tcp_out.c **** 
 207:c:/Users/Black_Life/STM32Cube/Repository/STM32Cube_FW_F4_V1.26.2/Middlewares/Third_Party/LwIP/src/core\tcp_out.c **** /**
 208:c:/Users/Black_Life/STM32Cube/Repository/STM32Cube_FW_F4_V1.26.2/Middlewares/Third_Party/LwIP/src/core\tcp_out.c ****  * Allocate a PBUF_RAM pbuf, perhaps with extra space at the end.
 209:c:/Users/Black_Life/STM32Cube/Repository/STM32Cube_FW_F4_V1.26.2/Middlewares/Third_Party/LwIP/src/core\tcp_out.c ****  *
 210:c:/Users/Black_Life/STM32Cube/Repository/STM32Cube_FW_F4_V1.26.2/Middlewares/Third_Party/LwIP/src/core\tcp_out.c ****  * This function is like pbuf_alloc(layer, length, PBUF_RAM) except
 211:c:/Users/Black_Life/STM32Cube/Repository/STM32Cube_FW_F4_V1.26.2/Middlewares/Third_Party/LwIP/src/core\tcp_out.c ****  * there may be extra bytes available at the end.
 212:c:/Users/Black_Life/STM32Cube/Repository/STM32Cube_FW_F4_V1.26.2/Middlewares/Third_Party/LwIP/src/core\tcp_out.c ****  *
ARM GAS  C:\Users\BLACK_~1\AppData\Local\Temp\ccsw9P1a.s 			page 6


 213:c:/Users/Black_Life/STM32Cube/Repository/STM32Cube_FW_F4_V1.26.2/Middlewares/Third_Party/LwIP/src/core\tcp_out.c ****  * Called by @ref tcp_write
 214:c:/Users/Black_Life/STM32Cube/Repository/STM32Cube_FW_F4_V1.26.2/Middlewares/Third_Party/LwIP/src/core\tcp_out.c ****  *
 215:c:/Users/Black_Life/STM32Cube/Repository/STM32Cube_FW_F4_V1.26.2/Middlewares/Third_Party/LwIP/src/core\tcp_out.c ****  * @param layer flag to define header size.
 216:c:/Users/Black_Life/STM32Cube/Repository/STM32Cube_FW_F4_V1.26.2/Middlewares/Third_Party/LwIP/src/core\tcp_out.c ****  * @param length size of the pbuf's payload.
 217:c:/Users/Black_Life/STM32Cube/Repository/STM32Cube_FW_F4_V1.26.2/Middlewares/Third_Party/LwIP/src/core\tcp_out.c ****  * @param max_length maximum usable size of payload+oversize.
 218:c:/Users/Black_Life/STM32Cube/Repository/STM32Cube_FW_F4_V1.26.2/Middlewares/Third_Party/LwIP/src/core\tcp_out.c ****  * @param oversize pointer to a u16_t that will receive the number of usable tail bytes.
 219:c:/Users/Black_Life/STM32Cube/Repository/STM32Cube_FW_F4_V1.26.2/Middlewares/Third_Party/LwIP/src/core\tcp_out.c ****  * @param pcb The TCP connection that will enqueue the pbuf.
 220:c:/Users/Black_Life/STM32Cube/Repository/STM32Cube_FW_F4_V1.26.2/Middlewares/Third_Party/LwIP/src/core\tcp_out.c ****  * @param apiflags API flags given to tcp_write.
 221:c:/Users/Black_Life/STM32Cube/Repository/STM32Cube_FW_F4_V1.26.2/Middlewares/Third_Party/LwIP/src/core\tcp_out.c ****  * @param first_seg true when this pbuf will be used in the first enqueued segment.
 222:c:/Users/Black_Life/STM32Cube/Repository/STM32Cube_FW_F4_V1.26.2/Middlewares/Third_Party/LwIP/src/core\tcp_out.c ****  */
 223:c:/Users/Black_Life/STM32Cube/Repository/STM32Cube_FW_F4_V1.26.2/Middlewares/Third_Party/LwIP/src/core\tcp_out.c **** #if TCP_OVERSIZE
 224:c:/Users/Black_Life/STM32Cube/Repository/STM32Cube_FW_F4_V1.26.2/Middlewares/Third_Party/LwIP/src/core\tcp_out.c **** static struct pbuf *
 225:c:/Users/Black_Life/STM32Cube/Repository/STM32Cube_FW_F4_V1.26.2/Middlewares/Third_Party/LwIP/src/core\tcp_out.c **** tcp_pbuf_prealloc(pbuf_layer layer, u16_t length, u16_t max_length,
 226:c:/Users/Black_Life/STM32Cube/Repository/STM32Cube_FW_F4_V1.26.2/Middlewares/Third_Party/LwIP/src/core\tcp_out.c ****                   u16_t *oversize, const struct tcp_pcb *pcb, u8_t apiflags,
 227:c:/Users/Black_Life/STM32Cube/Repository/STM32Cube_FW_F4_V1.26.2/Middlewares/Third_Party/LwIP/src/core\tcp_out.c ****                   u8_t first_seg)
 228:c:/Users/Black_Life/STM32Cube/Repository/STM32Cube_FW_F4_V1.26.2/Middlewares/Third_Party/LwIP/src/core\tcp_out.c **** {
 229:c:/Users/Black_Life/STM32Cube/Repository/STM32Cube_FW_F4_V1.26.2/Middlewares/Third_Party/LwIP/src/core\tcp_out.c ****   struct pbuf *p;
 230:c:/Users/Black_Life/STM32Cube/Repository/STM32Cube_FW_F4_V1.26.2/Middlewares/Third_Party/LwIP/src/core\tcp_out.c ****   u16_t alloc = length;
 231:c:/Users/Black_Life/STM32Cube/Repository/STM32Cube_FW_F4_V1.26.2/Middlewares/Third_Party/LwIP/src/core\tcp_out.c **** 
 232:c:/Users/Black_Life/STM32Cube/Repository/STM32Cube_FW_F4_V1.26.2/Middlewares/Third_Party/LwIP/src/core\tcp_out.c ****   LWIP_ASSERT("tcp_pbuf_prealloc: invalid oversize", oversize != NULL);
 233:c:/Users/Black_Life/STM32Cube/Repository/STM32Cube_FW_F4_V1.26.2/Middlewares/Third_Party/LwIP/src/core\tcp_out.c ****   LWIP_ASSERT("tcp_pbuf_prealloc: invalid pcb", pcb != NULL);
 234:c:/Users/Black_Life/STM32Cube/Repository/STM32Cube_FW_F4_V1.26.2/Middlewares/Third_Party/LwIP/src/core\tcp_out.c **** 
 235:c:/Users/Black_Life/STM32Cube/Repository/STM32Cube_FW_F4_V1.26.2/Middlewares/Third_Party/LwIP/src/core\tcp_out.c **** #if LWIP_NETIF_TX_SINGLE_PBUF
 236:c:/Users/Black_Life/STM32Cube/Repository/STM32Cube_FW_F4_V1.26.2/Middlewares/Third_Party/LwIP/src/core\tcp_out.c ****   LWIP_UNUSED_ARG(max_length);
 237:c:/Users/Black_Life/STM32Cube/Repository/STM32Cube_FW_F4_V1.26.2/Middlewares/Third_Party/LwIP/src/core\tcp_out.c ****   LWIP_UNUSED_ARG(pcb);
 238:c:/Users/Black_Life/STM32Cube/Repository/STM32Cube_FW_F4_V1.26.2/Middlewares/Third_Party/LwIP/src/core\tcp_out.c ****   LWIP_UNUSED_ARG(apiflags);
 239:c:/Users/Black_Life/STM32Cube/Repository/STM32Cube_FW_F4_V1.26.2/Middlewares/Third_Party/LwIP/src/core\tcp_out.c ****   LWIP_UNUSED_ARG(first_seg);
 240:c:/Users/Black_Life/STM32Cube/Repository/STM32Cube_FW_F4_V1.26.2/Middlewares/Third_Party/LwIP/src/core\tcp_out.c ****   alloc = max_length;
 241:c:/Users/Black_Life/STM32Cube/Repository/STM32Cube_FW_F4_V1.26.2/Middlewares/Third_Party/LwIP/src/core\tcp_out.c **** #else /* LWIP_NETIF_TX_SINGLE_PBUF */
 242:c:/Users/Black_Life/STM32Cube/Repository/STM32Cube_FW_F4_V1.26.2/Middlewares/Third_Party/LwIP/src/core\tcp_out.c ****   if (length < max_length) {
 243:c:/Users/Black_Life/STM32Cube/Repository/STM32Cube_FW_F4_V1.26.2/Middlewares/Third_Party/LwIP/src/core\tcp_out.c ****     /* Should we allocate an oversized pbuf, or just the minimum
 244:c:/Users/Black_Life/STM32Cube/Repository/STM32Cube_FW_F4_V1.26.2/Middlewares/Third_Party/LwIP/src/core\tcp_out.c ****      * length required? If tcp_write is going to be called again
 245:c:/Users/Black_Life/STM32Cube/Repository/STM32Cube_FW_F4_V1.26.2/Middlewares/Third_Party/LwIP/src/core\tcp_out.c ****      * before this segment is transmitted, we want the oversized
 246:c:/Users/Black_Life/STM32Cube/Repository/STM32Cube_FW_F4_V1.26.2/Middlewares/Third_Party/LwIP/src/core\tcp_out.c ****      * buffer. If the segment will be transmitted immediately, we can
 247:c:/Users/Black_Life/STM32Cube/Repository/STM32Cube_FW_F4_V1.26.2/Middlewares/Third_Party/LwIP/src/core\tcp_out.c ****      * save memory by allocating only length. We use a simple
 248:c:/Users/Black_Life/STM32Cube/Repository/STM32Cube_FW_F4_V1.26.2/Middlewares/Third_Party/LwIP/src/core\tcp_out.c ****      * heuristic based on the following information:
 249:c:/Users/Black_Life/STM32Cube/Repository/STM32Cube_FW_F4_V1.26.2/Middlewares/Third_Party/LwIP/src/core\tcp_out.c ****      *
 250:c:/Users/Black_Life/STM32Cube/Repository/STM32Cube_FW_F4_V1.26.2/Middlewares/Third_Party/LwIP/src/core\tcp_out.c ****      * Did the user set TCP_WRITE_FLAG_MORE?
 251:c:/Users/Black_Life/STM32Cube/Repository/STM32Cube_FW_F4_V1.26.2/Middlewares/Third_Party/LwIP/src/core\tcp_out.c ****      *
 252:c:/Users/Black_Life/STM32Cube/Repository/STM32Cube_FW_F4_V1.26.2/Middlewares/Third_Party/LwIP/src/core\tcp_out.c ****      * Will the Nagle algorithm defer transmission of this segment?
 253:c:/Users/Black_Life/STM32Cube/Repository/STM32Cube_FW_F4_V1.26.2/Middlewares/Third_Party/LwIP/src/core\tcp_out.c ****      */
 254:c:/Users/Black_Life/STM32Cube/Repository/STM32Cube_FW_F4_V1.26.2/Middlewares/Third_Party/LwIP/src/core\tcp_out.c ****     if ((apiflags & TCP_WRITE_FLAG_MORE) ||
 255:c:/Users/Black_Life/STM32Cube/Repository/STM32Cube_FW_F4_V1.26.2/Middlewares/Third_Party/LwIP/src/core\tcp_out.c ****         (!(pcb->flags & TF_NODELAY) &&
 256:c:/Users/Black_Life/STM32Cube/Repository/STM32Cube_FW_F4_V1.26.2/Middlewares/Third_Party/LwIP/src/core\tcp_out.c ****          (!first_seg ||
 257:c:/Users/Black_Life/STM32Cube/Repository/STM32Cube_FW_F4_V1.26.2/Middlewares/Third_Party/LwIP/src/core\tcp_out.c ****           pcb->unsent != NULL ||
 258:c:/Users/Black_Life/STM32Cube/Repository/STM32Cube_FW_F4_V1.26.2/Middlewares/Third_Party/LwIP/src/core\tcp_out.c ****           pcb->unacked != NULL))) {
 259:c:/Users/Black_Life/STM32Cube/Repository/STM32Cube_FW_F4_V1.26.2/Middlewares/Third_Party/LwIP/src/core\tcp_out.c ****       alloc = LWIP_MIN(max_length, LWIP_MEM_ALIGN_SIZE(TCP_OVERSIZE_CALC_LENGTH(length)));
 260:c:/Users/Black_Life/STM32Cube/Repository/STM32Cube_FW_F4_V1.26.2/Middlewares/Third_Party/LwIP/src/core\tcp_out.c ****     }
 261:c:/Users/Black_Life/STM32Cube/Repository/STM32Cube_FW_F4_V1.26.2/Middlewares/Third_Party/LwIP/src/core\tcp_out.c ****   }
 262:c:/Users/Black_Life/STM32Cube/Repository/STM32Cube_FW_F4_V1.26.2/Middlewares/Third_Party/LwIP/src/core\tcp_out.c **** #endif /* LWIP_NETIF_TX_SINGLE_PBUF */
 263:c:/Users/Black_Life/STM32Cube/Repository/STM32Cube_FW_F4_V1.26.2/Middlewares/Third_Party/LwIP/src/core\tcp_out.c ****   p = pbuf_alloc(layer, alloc, PBUF_RAM);
 264:c:/Users/Black_Life/STM32Cube/Repository/STM32Cube_FW_F4_V1.26.2/Middlewares/Third_Party/LwIP/src/core\tcp_out.c ****   if (p == NULL) {
 265:c:/Users/Black_Life/STM32Cube/Repository/STM32Cube_FW_F4_V1.26.2/Middlewares/Third_Party/LwIP/src/core\tcp_out.c ****     return NULL;
 266:c:/Users/Black_Life/STM32Cube/Repository/STM32Cube_FW_F4_V1.26.2/Middlewares/Third_Party/LwIP/src/core\tcp_out.c ****   }
 267:c:/Users/Black_Life/STM32Cube/Repository/STM32Cube_FW_F4_V1.26.2/Middlewares/Third_Party/LwIP/src/core\tcp_out.c ****   LWIP_ASSERT("need unchained pbuf", p->next == NULL);
 268:c:/Users/Black_Life/STM32Cube/Repository/STM32Cube_FW_F4_V1.26.2/Middlewares/Third_Party/LwIP/src/core\tcp_out.c ****   *oversize = p->len - length;
 269:c:/Users/Black_Life/STM32Cube/Repository/STM32Cube_FW_F4_V1.26.2/Middlewares/Third_Party/LwIP/src/core\tcp_out.c ****   /* trim p->len to the currently used size */
ARM GAS  C:\Users\BLACK_~1\AppData\Local\Temp\ccsw9P1a.s 			page 7


 270:c:/Users/Black_Life/STM32Cube/Repository/STM32Cube_FW_F4_V1.26.2/Middlewares/Third_Party/LwIP/src/core\tcp_out.c ****   p->len = p->tot_len = length;
 271:c:/Users/Black_Life/STM32Cube/Repository/STM32Cube_FW_F4_V1.26.2/Middlewares/Third_Party/LwIP/src/core\tcp_out.c ****   return p;
 272:c:/Users/Black_Life/STM32Cube/Repository/STM32Cube_FW_F4_V1.26.2/Middlewares/Third_Party/LwIP/src/core\tcp_out.c **** }
 273:c:/Users/Black_Life/STM32Cube/Repository/STM32Cube_FW_F4_V1.26.2/Middlewares/Third_Party/LwIP/src/core\tcp_out.c **** #else /* TCP_OVERSIZE */
 274:c:/Users/Black_Life/STM32Cube/Repository/STM32Cube_FW_F4_V1.26.2/Middlewares/Third_Party/LwIP/src/core\tcp_out.c **** #define tcp_pbuf_prealloc(layer, length, mx, os, pcb, api, fst) pbuf_alloc((layer), (length), PBUF_
 275:c:/Users/Black_Life/STM32Cube/Repository/STM32Cube_FW_F4_V1.26.2/Middlewares/Third_Party/LwIP/src/core\tcp_out.c **** #endif /* TCP_OVERSIZE */
 276:c:/Users/Black_Life/STM32Cube/Repository/STM32Cube_FW_F4_V1.26.2/Middlewares/Third_Party/LwIP/src/core\tcp_out.c **** 
 277:c:/Users/Black_Life/STM32Cube/Repository/STM32Cube_FW_F4_V1.26.2/Middlewares/Third_Party/LwIP/src/core\tcp_out.c **** #if TCP_CHECKSUM_ON_COPY
 278:c:/Users/Black_Life/STM32Cube/Repository/STM32Cube_FW_F4_V1.26.2/Middlewares/Third_Party/LwIP/src/core\tcp_out.c **** /** Add a checksum of newly added data to the segment.
 279:c:/Users/Black_Life/STM32Cube/Repository/STM32Cube_FW_F4_V1.26.2/Middlewares/Third_Party/LwIP/src/core\tcp_out.c ****  *
 280:c:/Users/Black_Life/STM32Cube/Repository/STM32Cube_FW_F4_V1.26.2/Middlewares/Third_Party/LwIP/src/core\tcp_out.c ****  * Called by tcp_write and tcp_split_unsent_seg.
 281:c:/Users/Black_Life/STM32Cube/Repository/STM32Cube_FW_F4_V1.26.2/Middlewares/Third_Party/LwIP/src/core\tcp_out.c ****  */
 282:c:/Users/Black_Life/STM32Cube/Repository/STM32Cube_FW_F4_V1.26.2/Middlewares/Third_Party/LwIP/src/core\tcp_out.c **** static void
 283:c:/Users/Black_Life/STM32Cube/Repository/STM32Cube_FW_F4_V1.26.2/Middlewares/Third_Party/LwIP/src/core\tcp_out.c **** tcp_seg_add_chksum(u16_t chksum, u16_t len, u16_t *seg_chksum,
 284:c:/Users/Black_Life/STM32Cube/Repository/STM32Cube_FW_F4_V1.26.2/Middlewares/Third_Party/LwIP/src/core\tcp_out.c ****                    u8_t *seg_chksum_swapped)
 285:c:/Users/Black_Life/STM32Cube/Repository/STM32Cube_FW_F4_V1.26.2/Middlewares/Third_Party/LwIP/src/core\tcp_out.c **** {
 286:c:/Users/Black_Life/STM32Cube/Repository/STM32Cube_FW_F4_V1.26.2/Middlewares/Third_Party/LwIP/src/core\tcp_out.c ****   u32_t helper;
 287:c:/Users/Black_Life/STM32Cube/Repository/STM32Cube_FW_F4_V1.26.2/Middlewares/Third_Party/LwIP/src/core\tcp_out.c ****   /* add chksum to old chksum and fold to u16_t */
 288:c:/Users/Black_Life/STM32Cube/Repository/STM32Cube_FW_F4_V1.26.2/Middlewares/Third_Party/LwIP/src/core\tcp_out.c ****   helper = chksum + *seg_chksum;
 289:c:/Users/Black_Life/STM32Cube/Repository/STM32Cube_FW_F4_V1.26.2/Middlewares/Third_Party/LwIP/src/core\tcp_out.c ****   chksum = FOLD_U32T(helper);
 290:c:/Users/Black_Life/STM32Cube/Repository/STM32Cube_FW_F4_V1.26.2/Middlewares/Third_Party/LwIP/src/core\tcp_out.c ****   if ((len & 1) != 0) {
 291:c:/Users/Black_Life/STM32Cube/Repository/STM32Cube_FW_F4_V1.26.2/Middlewares/Third_Party/LwIP/src/core\tcp_out.c ****     *seg_chksum_swapped = 1 - *seg_chksum_swapped;
 292:c:/Users/Black_Life/STM32Cube/Repository/STM32Cube_FW_F4_V1.26.2/Middlewares/Third_Party/LwIP/src/core\tcp_out.c ****     chksum = SWAP_BYTES_IN_WORD(chksum);
 293:c:/Users/Black_Life/STM32Cube/Repository/STM32Cube_FW_F4_V1.26.2/Middlewares/Third_Party/LwIP/src/core\tcp_out.c ****   }
 294:c:/Users/Black_Life/STM32Cube/Repository/STM32Cube_FW_F4_V1.26.2/Middlewares/Third_Party/LwIP/src/core\tcp_out.c ****   *seg_chksum = chksum;
 295:c:/Users/Black_Life/STM32Cube/Repository/STM32Cube_FW_F4_V1.26.2/Middlewares/Third_Party/LwIP/src/core\tcp_out.c **** }
 296:c:/Users/Black_Life/STM32Cube/Repository/STM32Cube_FW_F4_V1.26.2/Middlewares/Third_Party/LwIP/src/core\tcp_out.c **** #endif /* TCP_CHECKSUM_ON_COPY */
 297:c:/Users/Black_Life/STM32Cube/Repository/STM32Cube_FW_F4_V1.26.2/Middlewares/Third_Party/LwIP/src/core\tcp_out.c **** 
 298:c:/Users/Black_Life/STM32Cube/Repository/STM32Cube_FW_F4_V1.26.2/Middlewares/Third_Party/LwIP/src/core\tcp_out.c **** /** Checks if tcp_write is allowed or not (checks state, snd_buf and snd_queuelen).
 299:c:/Users/Black_Life/STM32Cube/Repository/STM32Cube_FW_F4_V1.26.2/Middlewares/Third_Party/LwIP/src/core\tcp_out.c ****  *
 300:c:/Users/Black_Life/STM32Cube/Repository/STM32Cube_FW_F4_V1.26.2/Middlewares/Third_Party/LwIP/src/core\tcp_out.c ****  * @param pcb the tcp pcb to check for
 301:c:/Users/Black_Life/STM32Cube/Repository/STM32Cube_FW_F4_V1.26.2/Middlewares/Third_Party/LwIP/src/core\tcp_out.c ****  * @param len length of data to send (checked agains snd_buf)
 302:c:/Users/Black_Life/STM32Cube/Repository/STM32Cube_FW_F4_V1.26.2/Middlewares/Third_Party/LwIP/src/core\tcp_out.c ****  * @return ERR_OK if tcp_write is allowed to proceed, another err_t otherwise
 303:c:/Users/Black_Life/STM32Cube/Repository/STM32Cube_FW_F4_V1.26.2/Middlewares/Third_Party/LwIP/src/core\tcp_out.c ****  */
 304:c:/Users/Black_Life/STM32Cube/Repository/STM32Cube_FW_F4_V1.26.2/Middlewares/Third_Party/LwIP/src/core\tcp_out.c **** static err_t
 305:c:/Users/Black_Life/STM32Cube/Repository/STM32Cube_FW_F4_V1.26.2/Middlewares/Third_Party/LwIP/src/core\tcp_out.c **** tcp_write_checks(struct tcp_pcb *pcb, u16_t len)
 306:c:/Users/Black_Life/STM32Cube/Repository/STM32Cube_FW_F4_V1.26.2/Middlewares/Third_Party/LwIP/src/core\tcp_out.c **** {
  48              		.loc 1 306 1 view -0
  49              		.cfi_startproc
  50              		@ args = 0, pretend = 0, frame = 0
  51              		@ frame_needed = 0, uses_anonymous_args = 0
  52              		.loc 1 306 1 is_stmt 0 view .LVU1
  53 0000 38B5     		push	{r3, r4, r5, lr}
  54              	.LCFI0:
  55              		.cfi_def_cfa_offset 16
  56              		.cfi_offset 3, -16
  57              		.cfi_offset 4, -12
  58              		.cfi_offset 5, -8
  59              		.cfi_offset 14, -4
  60 0002 0C46     		mov	r4, r1
 307:c:/Users/Black_Life/STM32Cube/Repository/STM32Cube_FW_F4_V1.26.2/Middlewares/Third_Party/LwIP/src/core\tcp_out.c ****   LWIP_ASSERT("tcp_write_checks: invalid pcb", pcb != NULL);
  61              		.loc 1 307 3 is_stmt 1 view .LVU2
  62              		.loc 1 307 3 view .LVU3
  63 0004 0546     		mov	r5, r0
  64 0006 B8B1     		cbz	r0, .L15
  65              	.LVL1:
  66              	.L2:
ARM GAS  C:\Users\BLACK_~1\AppData\Local\Temp\ccsw9P1a.s 			page 8


  67              		.loc 1 307 3 discriminator 3 view .LVU4
  68              		.loc 1 307 3 discriminator 3 view .LVU5
 308:c:/Users/Black_Life/STM32Cube/Repository/STM32Cube_FW_F4_V1.26.2/Middlewares/Third_Party/LwIP/src/core\tcp_out.c **** 
 309:c:/Users/Black_Life/STM32Cube/Repository/STM32Cube_FW_F4_V1.26.2/Middlewares/Third_Party/LwIP/src/core\tcp_out.c ****   /* connection is in invalid state for data transmission? */
 310:c:/Users/Black_Life/STM32Cube/Repository/STM32Cube_FW_F4_V1.26.2/Middlewares/Third_Party/LwIP/src/core\tcp_out.c ****   if ((pcb->state != ESTABLISHED) &&
  69              		.loc 1 310 3 discriminator 3 view .LVU6
  70              		.loc 1 310 11 is_stmt 0 discriminator 3 view .LVU7
  71 0008 2B7D     		ldrb	r3, [r5, #20]	@ zero_extendqisi2
  72              		.loc 1 310 6 discriminator 3 view .LVU8
  73 000a 042B     		cmp	r3, #4
  74 000c 05D0     		beq	.L3
  75              		.loc 1 310 35 discriminator 1 view .LVU9
  76 000e 072B     		cmp	r3, #7
  77 0010 03D0     		beq	.L3
 311:c:/Users/Black_Life/STM32Cube/Repository/STM32Cube_FW_F4_V1.26.2/Middlewares/Third_Party/LwIP/src/core\tcp_out.c ****       (pcb->state != CLOSE_WAIT) &&
  78              		.loc 1 311 34 view .LVU10
  79 0012 022B     		cmp	r3, #2
  80 0014 01D0     		beq	.L3
 312:c:/Users/Black_Life/STM32Cube/Repository/STM32Cube_FW_F4_V1.26.2/Middlewares/Third_Party/LwIP/src/core\tcp_out.c ****       (pcb->state != SYN_SENT) &&
  81              		.loc 1 312 32 view .LVU11
  82 0016 032B     		cmp	r3, #3
  83 0018 41D1     		bne	.L9
  84              	.L3:
 313:c:/Users/Black_Life/STM32Cube/Repository/STM32Cube_FW_F4_V1.26.2/Middlewares/Third_Party/LwIP/src/core\tcp_out.c ****       (pcb->state != SYN_RCVD)) {
 314:c:/Users/Black_Life/STM32Cube/Repository/STM32Cube_FW_F4_V1.26.2/Middlewares/Third_Party/LwIP/src/core\tcp_out.c ****     LWIP_DEBUGF(TCP_OUTPUT_DEBUG | LWIP_DBG_STATE | LWIP_DBG_LEVEL_SEVERE, ("tcp_write() called in 
 315:c:/Users/Black_Life/STM32Cube/Repository/STM32Cube_FW_F4_V1.26.2/Middlewares/Third_Party/LwIP/src/core\tcp_out.c ****     return ERR_CONN;
 316:c:/Users/Black_Life/STM32Cube/Repository/STM32Cube_FW_F4_V1.26.2/Middlewares/Third_Party/LwIP/src/core\tcp_out.c ****   } else if (len == 0) {
  85              		.loc 1 316 10 is_stmt 1 view .LVU12
  86              		.loc 1 316 13 is_stmt 0 view .LVU13
  87 001a 002C     		cmp	r4, #0
  88 001c 42D0     		beq	.L10
 317:c:/Users/Black_Life/STM32Cube/Repository/STM32Cube_FW_F4_V1.26.2/Middlewares/Third_Party/LwIP/src/core\tcp_out.c ****     return ERR_OK;
 318:c:/Users/Black_Life/STM32Cube/Repository/STM32Cube_FW_F4_V1.26.2/Middlewares/Third_Party/LwIP/src/core\tcp_out.c ****   }
 319:c:/Users/Black_Life/STM32Cube/Repository/STM32Cube_FW_F4_V1.26.2/Middlewares/Third_Party/LwIP/src/core\tcp_out.c **** 
 320:c:/Users/Black_Life/STM32Cube/Repository/STM32Cube_FW_F4_V1.26.2/Middlewares/Third_Party/LwIP/src/core\tcp_out.c ****   /* fail on too much data */
 321:c:/Users/Black_Life/STM32Cube/Repository/STM32Cube_FW_F4_V1.26.2/Middlewares/Third_Party/LwIP/src/core\tcp_out.c ****   if (len > pcb->snd_buf) {
  89              		.loc 1 321 3 is_stmt 1 view .LVU14
  90              		.loc 1 321 16 is_stmt 0 view .LVU15
  91 001e B5F86430 		ldrh	r3, [r5, #100]
  92              		.loc 1 321 6 view .LVU16
  93 0022 A342     		cmp	r3, r4
  94 0024 10D3     		bcc	.L16
 322:c:/Users/Black_Life/STM32Cube/Repository/STM32Cube_FW_F4_V1.26.2/Middlewares/Third_Party/LwIP/src/core\tcp_out.c ****     LWIP_DEBUGF(TCP_OUTPUT_DEBUG | LWIP_DBG_LEVEL_SEVERE, ("tcp_write: too much data (len=%"U16_F" 
 323:c:/Users/Black_Life/STM32Cube/Repository/STM32Cube_FW_F4_V1.26.2/Middlewares/Third_Party/LwIP/src/core\tcp_out.c ****                 len, pcb->snd_buf));
 324:c:/Users/Black_Life/STM32Cube/Repository/STM32Cube_FW_F4_V1.26.2/Middlewares/Third_Party/LwIP/src/core\tcp_out.c ****     tcp_set_flags(pcb, TF_NAGLEMEMERR);
 325:c:/Users/Black_Life/STM32Cube/Repository/STM32Cube_FW_F4_V1.26.2/Middlewares/Third_Party/LwIP/src/core\tcp_out.c ****     return ERR_MEM;
 326:c:/Users/Black_Life/STM32Cube/Repository/STM32Cube_FW_F4_V1.26.2/Middlewares/Third_Party/LwIP/src/core\tcp_out.c ****   }
 327:c:/Users/Black_Life/STM32Cube/Repository/STM32Cube_FW_F4_V1.26.2/Middlewares/Third_Party/LwIP/src/core\tcp_out.c **** 
 328:c:/Users/Black_Life/STM32Cube/Repository/STM32Cube_FW_F4_V1.26.2/Middlewares/Third_Party/LwIP/src/core\tcp_out.c ****   LWIP_DEBUGF(TCP_QLEN_DEBUG, ("tcp_write: queuelen: %"TCPWNDSIZE_F"\n", (tcpwnd_size_t)pcb->snd_qu
  95              		.loc 1 328 108 is_stmt 1 view .LVU17
 329:c:/Users/Black_Life/STM32Cube/Repository/STM32Cube_FW_F4_V1.26.2/Middlewares/Third_Party/LwIP/src/core\tcp_out.c **** 
 330:c:/Users/Black_Life/STM32Cube/Repository/STM32Cube_FW_F4_V1.26.2/Middlewares/Third_Party/LwIP/src/core\tcp_out.c ****   /* If total number of pbufs on the unsent/unacked queues exceeds the
 331:c:/Users/Black_Life/STM32Cube/Repository/STM32Cube_FW_F4_V1.26.2/Middlewares/Third_Party/LwIP/src/core\tcp_out.c ****    * configured maximum, return an error */
 332:c:/Users/Black_Life/STM32Cube/Repository/STM32Cube_FW_F4_V1.26.2/Middlewares/Third_Party/LwIP/src/core\tcp_out.c ****   /* check for configured max queuelen and possible overflow */
 333:c:/Users/Black_Life/STM32Cube/Repository/STM32Cube_FW_F4_V1.26.2/Middlewares/Third_Party/LwIP/src/core\tcp_out.c ****   if (pcb->snd_queuelen >= LWIP_MIN(TCP_SND_QUEUELEN, (TCP_SNDQUEUELEN_OVERFLOW + 1))) {
  96              		.loc 1 333 3 view .LVU18
  97              		.loc 1 333 10 is_stmt 0 view .LVU19
ARM GAS  C:\Users\BLACK_~1\AppData\Local\Temp\ccsw9P1a.s 			page 9


  98 0026 B5F86630 		ldrh	r3, [r5, #102]
  99              		.loc 1 333 6 view .LVU20
 100 002a 082B     		cmp	r3, #8
 101 002c 13D8     		bhi	.L17
 334:c:/Users/Black_Life/STM32Cube/Repository/STM32Cube_FW_F4_V1.26.2/Middlewares/Third_Party/LwIP/src/core\tcp_out.c ****     LWIP_DEBUGF(TCP_OUTPUT_DEBUG | LWIP_DBG_LEVEL_SEVERE, ("tcp_write: too long queue %"U16_F" (max
 335:c:/Users/Black_Life/STM32Cube/Repository/STM32Cube_FW_F4_V1.26.2/Middlewares/Third_Party/LwIP/src/core\tcp_out.c ****                 pcb->snd_queuelen, (u16_t)TCP_SND_QUEUELEN));
 336:c:/Users/Black_Life/STM32Cube/Repository/STM32Cube_FW_F4_V1.26.2/Middlewares/Third_Party/LwIP/src/core\tcp_out.c ****     TCP_STATS_INC(tcp.memerr);
 337:c:/Users/Black_Life/STM32Cube/Repository/STM32Cube_FW_F4_V1.26.2/Middlewares/Third_Party/LwIP/src/core\tcp_out.c ****     tcp_set_flags(pcb, TF_NAGLEMEMERR);
 338:c:/Users/Black_Life/STM32Cube/Repository/STM32Cube_FW_F4_V1.26.2/Middlewares/Third_Party/LwIP/src/core\tcp_out.c ****     return ERR_MEM;
 339:c:/Users/Black_Life/STM32Cube/Repository/STM32Cube_FW_F4_V1.26.2/Middlewares/Third_Party/LwIP/src/core\tcp_out.c ****   }
 340:c:/Users/Black_Life/STM32Cube/Repository/STM32Cube_FW_F4_V1.26.2/Middlewares/Third_Party/LwIP/src/core\tcp_out.c ****   if (pcb->snd_queuelen != 0) {
 102              		.loc 1 340 3 is_stmt 1 view .LVU21
 103              		.loc 1 340 6 is_stmt 0 view .LVU22
 104 002e 33B3     		cbz	r3, .L7
 341:c:/Users/Black_Life/STM32Cube/Repository/STM32Cube_FW_F4_V1.26.2/Middlewares/Third_Party/LwIP/src/core\tcp_out.c ****     LWIP_ASSERT("tcp_write: pbufs on queue => at least one queue non-empty",
 105              		.loc 1 341 5 is_stmt 1 view .LVU23
 106              		.loc 1 341 5 view .LVU24
 107 0030 2B6F     		ldr	r3, [r5, #112]
 108 0032 BBB1     		cbz	r3, .L18
 342:c:/Users/Black_Life/STM32Cube/Repository/STM32Cube_FW_F4_V1.26.2/Middlewares/Third_Party/LwIP/src/core\tcp_out.c ****                 pcb->unacked != NULL || pcb->unsent != NULL);
 343:c:/Users/Black_Life/STM32Cube/Repository/STM32Cube_FW_F4_V1.26.2/Middlewares/Third_Party/LwIP/src/core\tcp_out.c ****   } else {
 344:c:/Users/Black_Life/STM32Cube/Repository/STM32Cube_FW_F4_V1.26.2/Middlewares/Third_Party/LwIP/src/core\tcp_out.c ****     LWIP_ASSERT("tcp_write: no pbufs on queue => both queues empty",
 345:c:/Users/Black_Life/STM32Cube/Repository/STM32Cube_FW_F4_V1.26.2/Middlewares/Third_Party/LwIP/src/core\tcp_out.c ****                 pcb->unacked == NULL && pcb->unsent == NULL);
 346:c:/Users/Black_Life/STM32Cube/Repository/STM32Cube_FW_F4_V1.26.2/Middlewares/Third_Party/LwIP/src/core\tcp_out.c ****   }
 347:c:/Users/Black_Life/STM32Cube/Repository/STM32Cube_FW_F4_V1.26.2/Middlewares/Third_Party/LwIP/src/core\tcp_out.c ****   return ERR_OK;
 109              		.loc 1 347 10 is_stmt 0 view .LVU25
 110 0034 0020     		movs	r0, #0
 111 0036 36E0     		b	.L4
 112              	.LVL2:
 113              	.L15:
 307:c:/Users/Black_Life/STM32Cube/Repository/STM32Cube_FW_F4_V1.26.2/Middlewares/Third_Party/LwIP/src/core\tcp_out.c **** 
 114              		.loc 1 307 3 is_stmt 1 discriminator 1 view .LVU26
 307:c:/Users/Black_Life/STM32Cube/Repository/STM32Cube_FW_F4_V1.26.2/Middlewares/Third_Party/LwIP/src/core\tcp_out.c **** 
 115              		.loc 1 307 3 discriminator 1 view .LVU27
 116 0038 1B4B     		ldr	r3, .L21
 117 003a 40F23312 		movw	r2, #307
 118 003e 1B49     		ldr	r1, .L21+4
 119              	.LVL3:
 307:c:/Users/Black_Life/STM32Cube/Repository/STM32Cube_FW_F4_V1.26.2/Middlewares/Third_Party/LwIP/src/core\tcp_out.c **** 
 120              		.loc 1 307 3 is_stmt 0 discriminator 1 view .LVU28
 121 0040 1B48     		ldr	r0, .L21+8
 122              	.LVL4:
 307:c:/Users/Black_Life/STM32Cube/Repository/STM32Cube_FW_F4_V1.26.2/Middlewares/Third_Party/LwIP/src/core\tcp_out.c **** 
 123              		.loc 1 307 3 discriminator 1 view .LVU29
 124 0042 FFF7FEFF 		bl	printf
 125              	.LVL5:
 126 0046 DFE7     		b	.L2
 127              	.L16:
 323:c:/Users/Black_Life/STM32Cube/Repository/STM32Cube_FW_F4_V1.26.2/Middlewares/Third_Party/LwIP/src/core\tcp_out.c ****     tcp_set_flags(pcb, TF_NAGLEMEMERR);
 128              		.loc 1 323 36 is_stmt 1 view .LVU30
 324:c:/Users/Black_Life/STM32Cube/Repository/STM32Cube_FW_F4_V1.26.2/Middlewares/Third_Party/LwIP/src/core\tcp_out.c ****     return ERR_MEM;
 129              		.loc 1 324 5 view .LVU31
 324:c:/Users/Black_Life/STM32Cube/Repository/STM32Cube_FW_F4_V1.26.2/Middlewares/Third_Party/LwIP/src/core\tcp_out.c ****     return ERR_MEM;
 130              		.loc 1 324 5 view .LVU32
 131 0048 6B8B     		ldrh	r3, [r5, #26]
 132 004a 43F08003 		orr	r3, r3, #128
 133 004e 6B83     		strh	r3, [r5, #26]	@ movhi
ARM GAS  C:\Users\BLACK_~1\AppData\Local\Temp\ccsw9P1a.s 			page 10


 324:c:/Users/Black_Life/STM32Cube/Repository/STM32Cube_FW_F4_V1.26.2/Middlewares/Third_Party/LwIP/src/core\tcp_out.c ****     return ERR_MEM;
 134              		.loc 1 324 5 view .LVU33
 325:c:/Users/Black_Life/STM32Cube/Repository/STM32Cube_FW_F4_V1.26.2/Middlewares/Third_Party/LwIP/src/core\tcp_out.c ****   }
 135              		.loc 1 325 5 view .LVU34
 325:c:/Users/Black_Life/STM32Cube/Repository/STM32Cube_FW_F4_V1.26.2/Middlewares/Third_Party/LwIP/src/core\tcp_out.c ****   }
 136              		.loc 1 325 12 is_stmt 0 view .LVU35
 137 0050 4FF0FF30 		mov	r0, #-1
 138 0054 27E0     		b	.L4
 139              	.L17:
 335:c:/Users/Black_Life/STM32Cube/Repository/STM32Cube_FW_F4_V1.26.2/Middlewares/Third_Party/LwIP/src/core\tcp_out.c ****     TCP_STATS_INC(tcp.memerr);
 140              		.loc 1 335 61 is_stmt 1 view .LVU36
 336:c:/Users/Black_Life/STM32Cube/Repository/STM32Cube_FW_F4_V1.26.2/Middlewares/Third_Party/LwIP/src/core\tcp_out.c ****     tcp_set_flags(pcb, TF_NAGLEMEMERR);
 141              		.loc 1 336 30 view .LVU37
 337:c:/Users/Black_Life/STM32Cube/Repository/STM32Cube_FW_F4_V1.26.2/Middlewares/Third_Party/LwIP/src/core\tcp_out.c ****     return ERR_MEM;
 142              		.loc 1 337 5 view .LVU38
 337:c:/Users/Black_Life/STM32Cube/Repository/STM32Cube_FW_F4_V1.26.2/Middlewares/Third_Party/LwIP/src/core\tcp_out.c ****     return ERR_MEM;
 143              		.loc 1 337 5 view .LVU39
 144 0056 6B8B     		ldrh	r3, [r5, #26]
 145 0058 43F08003 		orr	r3, r3, #128
 146 005c 6B83     		strh	r3, [r5, #26]	@ movhi
 337:c:/Users/Black_Life/STM32Cube/Repository/STM32Cube_FW_F4_V1.26.2/Middlewares/Third_Party/LwIP/src/core\tcp_out.c ****     return ERR_MEM;
 147              		.loc 1 337 5 view .LVU40
 338:c:/Users/Black_Life/STM32Cube/Repository/STM32Cube_FW_F4_V1.26.2/Middlewares/Third_Party/LwIP/src/core\tcp_out.c ****   }
 148              		.loc 1 338 5 view .LVU41
 338:c:/Users/Black_Life/STM32Cube/Repository/STM32Cube_FW_F4_V1.26.2/Middlewares/Third_Party/LwIP/src/core\tcp_out.c ****   }
 149              		.loc 1 338 12 is_stmt 0 view .LVU42
 150 005e 4FF0FF30 		mov	r0, #-1
 151 0062 20E0     		b	.L4
 152              	.L18:
 341:c:/Users/Black_Life/STM32Cube/Repository/STM32Cube_FW_F4_V1.26.2/Middlewares/Third_Party/LwIP/src/core\tcp_out.c ****                 pcb->unacked != NULL || pcb->unsent != NULL);
 153              		.loc 1 341 5 discriminator 1 view .LVU43
 154 0064 EB6E     		ldr	r3, [r5, #108]
 155 0066 0BB1     		cbz	r3, .L19
 156              		.loc 1 347 10 view .LVU44
 157 0068 0020     		movs	r0, #0
 158 006a 1CE0     		b	.L4
 159              	.L19:
 341:c:/Users/Black_Life/STM32Cube/Repository/STM32Cube_FW_F4_V1.26.2/Middlewares/Third_Party/LwIP/src/core\tcp_out.c ****                 pcb->unacked != NULL || pcb->unsent != NULL);
 160              		.loc 1 341 5 is_stmt 1 discriminator 3 view .LVU45
 341:c:/Users/Black_Life/STM32Cube/Repository/STM32Cube_FW_F4_V1.26.2/Middlewares/Third_Party/LwIP/src/core\tcp_out.c ****                 pcb->unacked != NULL || pcb->unsent != NULL);
 161              		.loc 1 341 5 discriminator 3 view .LVU46
 162 006c 0E4B     		ldr	r3, .L21
 163 006e 40F25512 		movw	r2, #341
 164 0072 1049     		ldr	r1, .L21+12
 165 0074 0E48     		ldr	r0, .L21+8
 166 0076 FFF7FEFF 		bl	printf
 167              	.LVL6:
 168              		.loc 1 347 10 is_stmt 0 discriminator 3 view .LVU47
 169 007a 0020     		movs	r0, #0
 170 007c 13E0     		b	.L4
 171              	.L7:
 344:c:/Users/Black_Life/STM32Cube/Repository/STM32Cube_FW_F4_V1.26.2/Middlewares/Third_Party/LwIP/src/core\tcp_out.c ****                 pcb->unacked == NULL && pcb->unsent == NULL);
 172              		.loc 1 344 5 is_stmt 1 view .LVU48
 344:c:/Users/Black_Life/STM32Cube/Repository/STM32Cube_FW_F4_V1.26.2/Middlewares/Third_Party/LwIP/src/core\tcp_out.c ****                 pcb->unacked == NULL && pcb->unsent == NULL);
 173              		.loc 1 344 5 view .LVU49
 174 007e 2B6F     		ldr	r3, [r5, #112]
 175 0080 43B1     		cbz	r3, .L20
ARM GAS  C:\Users\BLACK_~1\AppData\Local\Temp\ccsw9P1a.s 			page 11


 176              	.L8:
 344:c:/Users/Black_Life/STM32Cube/Repository/STM32Cube_FW_F4_V1.26.2/Middlewares/Third_Party/LwIP/src/core\tcp_out.c ****                 pcb->unacked == NULL && pcb->unsent == NULL);
 177              		.loc 1 344 5 discriminator 3 view .LVU50
 344:c:/Users/Black_Life/STM32Cube/Repository/STM32Cube_FW_F4_V1.26.2/Middlewares/Third_Party/LwIP/src/core\tcp_out.c ****                 pcb->unacked == NULL && pcb->unsent == NULL);
 178              		.loc 1 344 5 discriminator 3 view .LVU51
 179 0082 094B     		ldr	r3, .L21
 180 0084 4FF4AC72 		mov	r2, #344
 181 0088 0B49     		ldr	r1, .L21+16
 182 008a 0948     		ldr	r0, .L21+8
 183 008c FFF7FEFF 		bl	printf
 184              	.LVL7:
 185              		.loc 1 347 10 is_stmt 0 discriminator 3 view .LVU52
 186 0090 0020     		movs	r0, #0
 187 0092 08E0     		b	.L4
 188              	.L20:
 344:c:/Users/Black_Life/STM32Cube/Repository/STM32Cube_FW_F4_V1.26.2/Middlewares/Third_Party/LwIP/src/core\tcp_out.c ****                 pcb->unacked == NULL && pcb->unsent == NULL);
 189              		.loc 1 344 5 discriminator 2 view .LVU53
 190 0094 EB6E     		ldr	r3, [r5, #108]
 191 0096 002B     		cmp	r3, #0
 192 0098 F3D1     		bne	.L8
 193              		.loc 1 347 10 view .LVU54
 194 009a 0020     		movs	r0, #0
 195 009c 03E0     		b	.L4
 196              	.L9:
 315:c:/Users/Black_Life/STM32Cube/Repository/STM32Cube_FW_F4_V1.26.2/Middlewares/Third_Party/LwIP/src/core\tcp_out.c ****   } else if (len == 0) {
 197              		.loc 1 315 12 view .LVU55
 198 009e 6FF00A00 		mvn	r0, #10
 199 00a2 00E0     		b	.L4
 200              	.L10:
 317:c:/Users/Black_Life/STM32Cube/Repository/STM32Cube_FW_F4_V1.26.2/Middlewares/Third_Party/LwIP/src/core\tcp_out.c ****   }
 201              		.loc 1 317 12 view .LVU56
 202 00a4 0020     		movs	r0, #0
 203              	.L4:
 348:c:/Users/Black_Life/STM32Cube/Repository/STM32Cube_FW_F4_V1.26.2/Middlewares/Third_Party/LwIP/src/core\tcp_out.c **** }
 204              		.loc 1 348 1 view .LVU57
 205 00a6 38BD     		pop	{r3, r4, r5, pc}
 206              	.LVL8:
 207              	.L22:
 208              		.loc 1 348 1 view .LVU58
 209              		.align	2
 210              	.L21:
 211 00a8 00000000 		.word	.LC0
 212 00ac 74000000 		.word	.LC1
 213 00b0 94000000 		.word	.LC2
 214 00b4 BC000000 		.word	.LC3
 215 00b8 F8000000 		.word	.LC4
 216              		.cfi_endproc
 217              	.LFE159:
 219              		.section	.rodata.tcp_output_segment_busy.str1.4,"aMS",%progbits,1
 220              		.align	2
 221              	.LC5:
 222 0000 7463705F 		.ascii	"tcp_output_segment_busy: invalid seg\000"
 222      6F757470 
 222      75745F73 
 222      65676D65 
 222      6E745F62 
 223              		.section	.text.tcp_output_segment_busy,"ax",%progbits
ARM GAS  C:\Users\BLACK_~1\AppData\Local\Temp\ccsw9P1a.s 			page 12


 224              		.align	1
 225              		.syntax unified
 226              		.thumb
 227              		.thumb_func
 229              	tcp_output_segment_busy:
 230              	.LVL9:
 231              	.LFB165:
 349:c:/Users/Black_Life/STM32Cube/Repository/STM32Cube_FW_F4_V1.26.2/Middlewares/Third_Party/LwIP/src/core\tcp_out.c **** 
 350:c:/Users/Black_Life/STM32Cube/Repository/STM32Cube_FW_F4_V1.26.2/Middlewares/Third_Party/LwIP/src/core\tcp_out.c **** /**
 351:c:/Users/Black_Life/STM32Cube/Repository/STM32Cube_FW_F4_V1.26.2/Middlewares/Third_Party/LwIP/src/core\tcp_out.c ****  * @ingroup tcp_raw
 352:c:/Users/Black_Life/STM32Cube/Repository/STM32Cube_FW_F4_V1.26.2/Middlewares/Third_Party/LwIP/src/core\tcp_out.c ****  * Write data for sending (but does not send it immediately).
 353:c:/Users/Black_Life/STM32Cube/Repository/STM32Cube_FW_F4_V1.26.2/Middlewares/Third_Party/LwIP/src/core\tcp_out.c ****  *
 354:c:/Users/Black_Life/STM32Cube/Repository/STM32Cube_FW_F4_V1.26.2/Middlewares/Third_Party/LwIP/src/core\tcp_out.c ****  * It waits in the expectation of more data being sent soon (as
 355:c:/Users/Black_Life/STM32Cube/Repository/STM32Cube_FW_F4_V1.26.2/Middlewares/Third_Party/LwIP/src/core\tcp_out.c ****  * it can send them more efficiently by combining them together).
 356:c:/Users/Black_Life/STM32Cube/Repository/STM32Cube_FW_F4_V1.26.2/Middlewares/Third_Party/LwIP/src/core\tcp_out.c ****  * To prompt the system to send data now, call tcp_output() after
 357:c:/Users/Black_Life/STM32Cube/Repository/STM32Cube_FW_F4_V1.26.2/Middlewares/Third_Party/LwIP/src/core\tcp_out.c ****  * calling tcp_write().
 358:c:/Users/Black_Life/STM32Cube/Repository/STM32Cube_FW_F4_V1.26.2/Middlewares/Third_Party/LwIP/src/core\tcp_out.c ****  * 
 359:c:/Users/Black_Life/STM32Cube/Repository/STM32Cube_FW_F4_V1.26.2/Middlewares/Third_Party/LwIP/src/core\tcp_out.c ****  * This function enqueues the data pointed to by the argument dataptr. The length of
 360:c:/Users/Black_Life/STM32Cube/Repository/STM32Cube_FW_F4_V1.26.2/Middlewares/Third_Party/LwIP/src/core\tcp_out.c ****  * the data is passed as the len parameter. The apiflags can be one or more of:
 361:c:/Users/Black_Life/STM32Cube/Repository/STM32Cube_FW_F4_V1.26.2/Middlewares/Third_Party/LwIP/src/core\tcp_out.c ****  * - TCP_WRITE_FLAG_COPY: indicates whether the new memory should be allocated
 362:c:/Users/Black_Life/STM32Cube/Repository/STM32Cube_FW_F4_V1.26.2/Middlewares/Third_Party/LwIP/src/core\tcp_out.c ****  *   for the data to be copied into. If this flag is not given, no new memory
 363:c:/Users/Black_Life/STM32Cube/Repository/STM32Cube_FW_F4_V1.26.2/Middlewares/Third_Party/LwIP/src/core\tcp_out.c ****  *   should be allocated and the data should only be referenced by pointer. This
 364:c:/Users/Black_Life/STM32Cube/Repository/STM32Cube_FW_F4_V1.26.2/Middlewares/Third_Party/LwIP/src/core\tcp_out.c ****  *   also means that the memory behind dataptr must not change until the data is
 365:c:/Users/Black_Life/STM32Cube/Repository/STM32Cube_FW_F4_V1.26.2/Middlewares/Third_Party/LwIP/src/core\tcp_out.c ****  *   ACKed by the remote host
 366:c:/Users/Black_Life/STM32Cube/Repository/STM32Cube_FW_F4_V1.26.2/Middlewares/Third_Party/LwIP/src/core\tcp_out.c ****  * - TCP_WRITE_FLAG_MORE: indicates that more data follows. If this is omitted,
 367:c:/Users/Black_Life/STM32Cube/Repository/STM32Cube_FW_F4_V1.26.2/Middlewares/Third_Party/LwIP/src/core\tcp_out.c ****  *   the PSH flag is set in the last segment created by this call to tcp_write.
 368:c:/Users/Black_Life/STM32Cube/Repository/STM32Cube_FW_F4_V1.26.2/Middlewares/Third_Party/LwIP/src/core\tcp_out.c ****  *   If this flag is given, the PSH flag is not set.
 369:c:/Users/Black_Life/STM32Cube/Repository/STM32Cube_FW_F4_V1.26.2/Middlewares/Third_Party/LwIP/src/core\tcp_out.c ****  *
 370:c:/Users/Black_Life/STM32Cube/Repository/STM32Cube_FW_F4_V1.26.2/Middlewares/Third_Party/LwIP/src/core\tcp_out.c ****  * The tcp_write() function will fail and return ERR_MEM if the length
 371:c:/Users/Black_Life/STM32Cube/Repository/STM32Cube_FW_F4_V1.26.2/Middlewares/Third_Party/LwIP/src/core\tcp_out.c ****  * of the data exceeds the current send buffer size or if the length of
 372:c:/Users/Black_Life/STM32Cube/Repository/STM32Cube_FW_F4_V1.26.2/Middlewares/Third_Party/LwIP/src/core\tcp_out.c ****  * the queue of outgoing segment is larger than the upper limit defined
 373:c:/Users/Black_Life/STM32Cube/Repository/STM32Cube_FW_F4_V1.26.2/Middlewares/Third_Party/LwIP/src/core\tcp_out.c ****  * in lwipopts.h. The number of bytes available in the output queue can
 374:c:/Users/Black_Life/STM32Cube/Repository/STM32Cube_FW_F4_V1.26.2/Middlewares/Third_Party/LwIP/src/core\tcp_out.c ****  * be retrieved with the tcp_sndbuf() function.
 375:c:/Users/Black_Life/STM32Cube/Repository/STM32Cube_FW_F4_V1.26.2/Middlewares/Third_Party/LwIP/src/core\tcp_out.c ****  *
 376:c:/Users/Black_Life/STM32Cube/Repository/STM32Cube_FW_F4_V1.26.2/Middlewares/Third_Party/LwIP/src/core\tcp_out.c ****  * The proper way to use this function is to call the function with at
 377:c:/Users/Black_Life/STM32Cube/Repository/STM32Cube_FW_F4_V1.26.2/Middlewares/Third_Party/LwIP/src/core\tcp_out.c ****  * most tcp_sndbuf() bytes of data. If the function returns ERR_MEM,
 378:c:/Users/Black_Life/STM32Cube/Repository/STM32Cube_FW_F4_V1.26.2/Middlewares/Third_Party/LwIP/src/core\tcp_out.c ****  * the application should wait until some of the currently enqueued
 379:c:/Users/Black_Life/STM32Cube/Repository/STM32Cube_FW_F4_V1.26.2/Middlewares/Third_Party/LwIP/src/core\tcp_out.c ****  * data has been successfully received by the other host and try again.
 380:c:/Users/Black_Life/STM32Cube/Repository/STM32Cube_FW_F4_V1.26.2/Middlewares/Third_Party/LwIP/src/core\tcp_out.c ****  *
 381:c:/Users/Black_Life/STM32Cube/Repository/STM32Cube_FW_F4_V1.26.2/Middlewares/Third_Party/LwIP/src/core\tcp_out.c ****  * @param pcb Protocol control block for the TCP connection to enqueue data for.
 382:c:/Users/Black_Life/STM32Cube/Repository/STM32Cube_FW_F4_V1.26.2/Middlewares/Third_Party/LwIP/src/core\tcp_out.c ****  * @param arg Pointer to the data to be enqueued for sending.
 383:c:/Users/Black_Life/STM32Cube/Repository/STM32Cube_FW_F4_V1.26.2/Middlewares/Third_Party/LwIP/src/core\tcp_out.c ****  * @param len Data length in bytes
 384:c:/Users/Black_Life/STM32Cube/Repository/STM32Cube_FW_F4_V1.26.2/Middlewares/Third_Party/LwIP/src/core\tcp_out.c ****  * @param apiflags combination of following flags :
 385:c:/Users/Black_Life/STM32Cube/Repository/STM32Cube_FW_F4_V1.26.2/Middlewares/Third_Party/LwIP/src/core\tcp_out.c ****  * - TCP_WRITE_FLAG_COPY (0x01) data will be copied into memory belonging to the stack
 386:c:/Users/Black_Life/STM32Cube/Repository/STM32Cube_FW_F4_V1.26.2/Middlewares/Third_Party/LwIP/src/core\tcp_out.c ****  * - TCP_WRITE_FLAG_MORE (0x02) for TCP connection, PSH flag will not be set on last segment sent,
 387:c:/Users/Black_Life/STM32Cube/Repository/STM32Cube_FW_F4_V1.26.2/Middlewares/Third_Party/LwIP/src/core\tcp_out.c ****  * @return ERR_OK if enqueued, another err_t on error
 388:c:/Users/Black_Life/STM32Cube/Repository/STM32Cube_FW_F4_V1.26.2/Middlewares/Third_Party/LwIP/src/core\tcp_out.c ****  */
 389:c:/Users/Black_Life/STM32Cube/Repository/STM32Cube_FW_F4_V1.26.2/Middlewares/Third_Party/LwIP/src/core\tcp_out.c **** err_t
 390:c:/Users/Black_Life/STM32Cube/Repository/STM32Cube_FW_F4_V1.26.2/Middlewares/Third_Party/LwIP/src/core\tcp_out.c **** tcp_write(struct tcp_pcb *pcb, const void *arg, u16_t len, u8_t apiflags)
 391:c:/Users/Black_Life/STM32Cube/Repository/STM32Cube_FW_F4_V1.26.2/Middlewares/Third_Party/LwIP/src/core\tcp_out.c **** {
 392:c:/Users/Black_Life/STM32Cube/Repository/STM32Cube_FW_F4_V1.26.2/Middlewares/Third_Party/LwIP/src/core\tcp_out.c ****   struct pbuf *concat_p = NULL;
 393:c:/Users/Black_Life/STM32Cube/Repository/STM32Cube_FW_F4_V1.26.2/Middlewares/Third_Party/LwIP/src/core\tcp_out.c ****   struct tcp_seg *last_unsent = NULL, *seg = NULL, *prev_seg = NULL, *queue = NULL;
 394:c:/Users/Black_Life/STM32Cube/Repository/STM32Cube_FW_F4_V1.26.2/Middlewares/Third_Party/LwIP/src/core\tcp_out.c ****   u16_t pos = 0; /* position in 'arg' data */
 395:c:/Users/Black_Life/STM32Cube/Repository/STM32Cube_FW_F4_V1.26.2/Middlewares/Third_Party/LwIP/src/core\tcp_out.c ****   u16_t queuelen;
 396:c:/Users/Black_Life/STM32Cube/Repository/STM32Cube_FW_F4_V1.26.2/Middlewares/Third_Party/LwIP/src/core\tcp_out.c ****   u8_t optlen;
 397:c:/Users/Black_Life/STM32Cube/Repository/STM32Cube_FW_F4_V1.26.2/Middlewares/Third_Party/LwIP/src/core\tcp_out.c ****   u8_t optflags = 0;
 398:c:/Users/Black_Life/STM32Cube/Repository/STM32Cube_FW_F4_V1.26.2/Middlewares/Third_Party/LwIP/src/core\tcp_out.c **** #if TCP_OVERSIZE
ARM GAS  C:\Users\BLACK_~1\AppData\Local\Temp\ccsw9P1a.s 			page 13


 399:c:/Users/Black_Life/STM32Cube/Repository/STM32Cube_FW_F4_V1.26.2/Middlewares/Third_Party/LwIP/src/core\tcp_out.c ****   u16_t oversize = 0;
 400:c:/Users/Black_Life/STM32Cube/Repository/STM32Cube_FW_F4_V1.26.2/Middlewares/Third_Party/LwIP/src/core\tcp_out.c ****   u16_t oversize_used = 0;
 401:c:/Users/Black_Life/STM32Cube/Repository/STM32Cube_FW_F4_V1.26.2/Middlewares/Third_Party/LwIP/src/core\tcp_out.c **** #if TCP_OVERSIZE_DBGCHECK
 402:c:/Users/Black_Life/STM32Cube/Repository/STM32Cube_FW_F4_V1.26.2/Middlewares/Third_Party/LwIP/src/core\tcp_out.c ****   u16_t oversize_add = 0;
 403:c:/Users/Black_Life/STM32Cube/Repository/STM32Cube_FW_F4_V1.26.2/Middlewares/Third_Party/LwIP/src/core\tcp_out.c **** #endif /* TCP_OVERSIZE_DBGCHECK*/
 404:c:/Users/Black_Life/STM32Cube/Repository/STM32Cube_FW_F4_V1.26.2/Middlewares/Third_Party/LwIP/src/core\tcp_out.c **** #endif /* TCP_OVERSIZE */
 405:c:/Users/Black_Life/STM32Cube/Repository/STM32Cube_FW_F4_V1.26.2/Middlewares/Third_Party/LwIP/src/core\tcp_out.c ****   u16_t extendlen = 0;
 406:c:/Users/Black_Life/STM32Cube/Repository/STM32Cube_FW_F4_V1.26.2/Middlewares/Third_Party/LwIP/src/core\tcp_out.c **** #if TCP_CHECKSUM_ON_COPY
 407:c:/Users/Black_Life/STM32Cube/Repository/STM32Cube_FW_F4_V1.26.2/Middlewares/Third_Party/LwIP/src/core\tcp_out.c ****   u16_t concat_chksum = 0;
 408:c:/Users/Black_Life/STM32Cube/Repository/STM32Cube_FW_F4_V1.26.2/Middlewares/Third_Party/LwIP/src/core\tcp_out.c ****   u8_t concat_chksum_swapped = 0;
 409:c:/Users/Black_Life/STM32Cube/Repository/STM32Cube_FW_F4_V1.26.2/Middlewares/Third_Party/LwIP/src/core\tcp_out.c ****   u16_t concat_chksummed = 0;
 410:c:/Users/Black_Life/STM32Cube/Repository/STM32Cube_FW_F4_V1.26.2/Middlewares/Third_Party/LwIP/src/core\tcp_out.c **** #endif /* TCP_CHECKSUM_ON_COPY */
 411:c:/Users/Black_Life/STM32Cube/Repository/STM32Cube_FW_F4_V1.26.2/Middlewares/Third_Party/LwIP/src/core\tcp_out.c ****   err_t err;
 412:c:/Users/Black_Life/STM32Cube/Repository/STM32Cube_FW_F4_V1.26.2/Middlewares/Third_Party/LwIP/src/core\tcp_out.c ****   u16_t mss_local;
 413:c:/Users/Black_Life/STM32Cube/Repository/STM32Cube_FW_F4_V1.26.2/Middlewares/Third_Party/LwIP/src/core\tcp_out.c **** 
 414:c:/Users/Black_Life/STM32Cube/Repository/STM32Cube_FW_F4_V1.26.2/Middlewares/Third_Party/LwIP/src/core\tcp_out.c ****   LWIP_ERROR("tcp_write: invalid pcb", pcb != NULL, return ERR_ARG);
 415:c:/Users/Black_Life/STM32Cube/Repository/STM32Cube_FW_F4_V1.26.2/Middlewares/Third_Party/LwIP/src/core\tcp_out.c **** 
 416:c:/Users/Black_Life/STM32Cube/Repository/STM32Cube_FW_F4_V1.26.2/Middlewares/Third_Party/LwIP/src/core\tcp_out.c ****   /* don't allocate segments bigger than half the maximum window we ever received */
 417:c:/Users/Black_Life/STM32Cube/Repository/STM32Cube_FW_F4_V1.26.2/Middlewares/Third_Party/LwIP/src/core\tcp_out.c ****   mss_local = LWIP_MIN(pcb->mss, TCPWND_MIN16(pcb->snd_wnd_max / 2));
 418:c:/Users/Black_Life/STM32Cube/Repository/STM32Cube_FW_F4_V1.26.2/Middlewares/Third_Party/LwIP/src/core\tcp_out.c ****   mss_local = mss_local ? mss_local : pcb->mss;
 419:c:/Users/Black_Life/STM32Cube/Repository/STM32Cube_FW_F4_V1.26.2/Middlewares/Third_Party/LwIP/src/core\tcp_out.c **** 
 420:c:/Users/Black_Life/STM32Cube/Repository/STM32Cube_FW_F4_V1.26.2/Middlewares/Third_Party/LwIP/src/core\tcp_out.c ****   LWIP_ASSERT_CORE_LOCKED();
 421:c:/Users/Black_Life/STM32Cube/Repository/STM32Cube_FW_F4_V1.26.2/Middlewares/Third_Party/LwIP/src/core\tcp_out.c **** 
 422:c:/Users/Black_Life/STM32Cube/Repository/STM32Cube_FW_F4_V1.26.2/Middlewares/Third_Party/LwIP/src/core\tcp_out.c **** #if LWIP_NETIF_TX_SINGLE_PBUF
 423:c:/Users/Black_Life/STM32Cube/Repository/STM32Cube_FW_F4_V1.26.2/Middlewares/Third_Party/LwIP/src/core\tcp_out.c ****   /* Always copy to try to create single pbufs for TX */
 424:c:/Users/Black_Life/STM32Cube/Repository/STM32Cube_FW_F4_V1.26.2/Middlewares/Third_Party/LwIP/src/core\tcp_out.c ****   apiflags |= TCP_WRITE_FLAG_COPY;
 425:c:/Users/Black_Life/STM32Cube/Repository/STM32Cube_FW_F4_V1.26.2/Middlewares/Third_Party/LwIP/src/core\tcp_out.c **** #endif /* LWIP_NETIF_TX_SINGLE_PBUF */
 426:c:/Users/Black_Life/STM32Cube/Repository/STM32Cube_FW_F4_V1.26.2/Middlewares/Third_Party/LwIP/src/core\tcp_out.c **** 
 427:c:/Users/Black_Life/STM32Cube/Repository/STM32Cube_FW_F4_V1.26.2/Middlewares/Third_Party/LwIP/src/core\tcp_out.c ****   LWIP_DEBUGF(TCP_OUTPUT_DEBUG, ("tcp_write(pcb=%p, data=%p, len=%"U16_F", apiflags=%"U16_F")\n",
 428:c:/Users/Black_Life/STM32Cube/Repository/STM32Cube_FW_F4_V1.26.2/Middlewares/Third_Party/LwIP/src/core\tcp_out.c ****                                  (void *)pcb, arg, len, (u16_t)apiflags));
 429:c:/Users/Black_Life/STM32Cube/Repository/STM32Cube_FW_F4_V1.26.2/Middlewares/Third_Party/LwIP/src/core\tcp_out.c ****   LWIP_ERROR("tcp_write: arg == NULL (programmer violates API)",
 430:c:/Users/Black_Life/STM32Cube/Repository/STM32Cube_FW_F4_V1.26.2/Middlewares/Third_Party/LwIP/src/core\tcp_out.c ****              arg != NULL, return ERR_ARG;);
 431:c:/Users/Black_Life/STM32Cube/Repository/STM32Cube_FW_F4_V1.26.2/Middlewares/Third_Party/LwIP/src/core\tcp_out.c **** 
 432:c:/Users/Black_Life/STM32Cube/Repository/STM32Cube_FW_F4_V1.26.2/Middlewares/Third_Party/LwIP/src/core\tcp_out.c ****   err = tcp_write_checks(pcb, len);
 433:c:/Users/Black_Life/STM32Cube/Repository/STM32Cube_FW_F4_V1.26.2/Middlewares/Third_Party/LwIP/src/core\tcp_out.c ****   if (err != ERR_OK) {
 434:c:/Users/Black_Life/STM32Cube/Repository/STM32Cube_FW_F4_V1.26.2/Middlewares/Third_Party/LwIP/src/core\tcp_out.c ****     return err;
 435:c:/Users/Black_Life/STM32Cube/Repository/STM32Cube_FW_F4_V1.26.2/Middlewares/Third_Party/LwIP/src/core\tcp_out.c ****   }
 436:c:/Users/Black_Life/STM32Cube/Repository/STM32Cube_FW_F4_V1.26.2/Middlewares/Third_Party/LwIP/src/core\tcp_out.c ****   queuelen = pcb->snd_queuelen;
 437:c:/Users/Black_Life/STM32Cube/Repository/STM32Cube_FW_F4_V1.26.2/Middlewares/Third_Party/LwIP/src/core\tcp_out.c **** 
 438:c:/Users/Black_Life/STM32Cube/Repository/STM32Cube_FW_F4_V1.26.2/Middlewares/Third_Party/LwIP/src/core\tcp_out.c **** #if LWIP_TCP_TIMESTAMPS
 439:c:/Users/Black_Life/STM32Cube/Repository/STM32Cube_FW_F4_V1.26.2/Middlewares/Third_Party/LwIP/src/core\tcp_out.c ****   if ((pcb->flags & TF_TIMESTAMP)) {
 440:c:/Users/Black_Life/STM32Cube/Repository/STM32Cube_FW_F4_V1.26.2/Middlewares/Third_Party/LwIP/src/core\tcp_out.c ****     /* Make sure the timestamp option is only included in data segments if we
 441:c:/Users/Black_Life/STM32Cube/Repository/STM32Cube_FW_F4_V1.26.2/Middlewares/Third_Party/LwIP/src/core\tcp_out.c ****        agreed about it with the remote host. */
 442:c:/Users/Black_Life/STM32Cube/Repository/STM32Cube_FW_F4_V1.26.2/Middlewares/Third_Party/LwIP/src/core\tcp_out.c ****     optflags = TF_SEG_OPTS_TS;
 443:c:/Users/Black_Life/STM32Cube/Repository/STM32Cube_FW_F4_V1.26.2/Middlewares/Third_Party/LwIP/src/core\tcp_out.c ****     optlen = LWIP_TCP_OPT_LENGTH_SEGMENT(TF_SEG_OPTS_TS, pcb);
 444:c:/Users/Black_Life/STM32Cube/Repository/STM32Cube_FW_F4_V1.26.2/Middlewares/Third_Party/LwIP/src/core\tcp_out.c ****     /* ensure that segments can hold at least one data byte... */
 445:c:/Users/Black_Life/STM32Cube/Repository/STM32Cube_FW_F4_V1.26.2/Middlewares/Third_Party/LwIP/src/core\tcp_out.c ****     mss_local = LWIP_MAX(mss_local, LWIP_TCP_OPT_LEN_TS + 1);
 446:c:/Users/Black_Life/STM32Cube/Repository/STM32Cube_FW_F4_V1.26.2/Middlewares/Third_Party/LwIP/src/core\tcp_out.c ****   } else
 447:c:/Users/Black_Life/STM32Cube/Repository/STM32Cube_FW_F4_V1.26.2/Middlewares/Third_Party/LwIP/src/core\tcp_out.c **** #endif /* LWIP_TCP_TIMESTAMPS */
 448:c:/Users/Black_Life/STM32Cube/Repository/STM32Cube_FW_F4_V1.26.2/Middlewares/Third_Party/LwIP/src/core\tcp_out.c ****   {
 449:c:/Users/Black_Life/STM32Cube/Repository/STM32Cube_FW_F4_V1.26.2/Middlewares/Third_Party/LwIP/src/core\tcp_out.c ****     optlen = LWIP_TCP_OPT_LENGTH_SEGMENT(0, pcb);
 450:c:/Users/Black_Life/STM32Cube/Repository/STM32Cube_FW_F4_V1.26.2/Middlewares/Third_Party/LwIP/src/core\tcp_out.c ****   }
 451:c:/Users/Black_Life/STM32Cube/Repository/STM32Cube_FW_F4_V1.26.2/Middlewares/Third_Party/LwIP/src/core\tcp_out.c **** 
 452:c:/Users/Black_Life/STM32Cube/Repository/STM32Cube_FW_F4_V1.26.2/Middlewares/Third_Party/LwIP/src/core\tcp_out.c **** 
 453:c:/Users/Black_Life/STM32Cube/Repository/STM32Cube_FW_F4_V1.26.2/Middlewares/Third_Party/LwIP/src/core\tcp_out.c ****   /*
 454:c:/Users/Black_Life/STM32Cube/Repository/STM32Cube_FW_F4_V1.26.2/Middlewares/Third_Party/LwIP/src/core\tcp_out.c ****    * TCP segmentation is done in three phases with increasing complexity:
 455:c:/Users/Black_Life/STM32Cube/Repository/STM32Cube_FW_F4_V1.26.2/Middlewares/Third_Party/LwIP/src/core\tcp_out.c ****    *
ARM GAS  C:\Users\BLACK_~1\AppData\Local\Temp\ccsw9P1a.s 			page 14


 456:c:/Users/Black_Life/STM32Cube/Repository/STM32Cube_FW_F4_V1.26.2/Middlewares/Third_Party/LwIP/src/core\tcp_out.c ****    * 1. Copy data directly into an oversized pbuf.
 457:c:/Users/Black_Life/STM32Cube/Repository/STM32Cube_FW_F4_V1.26.2/Middlewares/Third_Party/LwIP/src/core\tcp_out.c ****    * 2. Chain a new pbuf to the end of pcb->unsent.
 458:c:/Users/Black_Life/STM32Cube/Repository/STM32Cube_FW_F4_V1.26.2/Middlewares/Third_Party/LwIP/src/core\tcp_out.c ****    * 3. Create new segments.
 459:c:/Users/Black_Life/STM32Cube/Repository/STM32Cube_FW_F4_V1.26.2/Middlewares/Third_Party/LwIP/src/core\tcp_out.c ****    *
 460:c:/Users/Black_Life/STM32Cube/Repository/STM32Cube_FW_F4_V1.26.2/Middlewares/Third_Party/LwIP/src/core\tcp_out.c ****    * We may run out of memory at any point. In that case we must
 461:c:/Users/Black_Life/STM32Cube/Repository/STM32Cube_FW_F4_V1.26.2/Middlewares/Third_Party/LwIP/src/core\tcp_out.c ****    * return ERR_MEM and not change anything in pcb. Therefore, all
 462:c:/Users/Black_Life/STM32Cube/Repository/STM32Cube_FW_F4_V1.26.2/Middlewares/Third_Party/LwIP/src/core\tcp_out.c ****    * changes are recorded in local variables and committed at the end
 463:c:/Users/Black_Life/STM32Cube/Repository/STM32Cube_FW_F4_V1.26.2/Middlewares/Third_Party/LwIP/src/core\tcp_out.c ****    * of the function. Some pcb fields are maintained in local copies:
 464:c:/Users/Black_Life/STM32Cube/Repository/STM32Cube_FW_F4_V1.26.2/Middlewares/Third_Party/LwIP/src/core\tcp_out.c ****    *
 465:c:/Users/Black_Life/STM32Cube/Repository/STM32Cube_FW_F4_V1.26.2/Middlewares/Third_Party/LwIP/src/core\tcp_out.c ****    * queuelen = pcb->snd_queuelen
 466:c:/Users/Black_Life/STM32Cube/Repository/STM32Cube_FW_F4_V1.26.2/Middlewares/Third_Party/LwIP/src/core\tcp_out.c ****    * oversize = pcb->unsent_oversize
 467:c:/Users/Black_Life/STM32Cube/Repository/STM32Cube_FW_F4_V1.26.2/Middlewares/Third_Party/LwIP/src/core\tcp_out.c ****    *
 468:c:/Users/Black_Life/STM32Cube/Repository/STM32Cube_FW_F4_V1.26.2/Middlewares/Third_Party/LwIP/src/core\tcp_out.c ****    * These variables are set consistently by the phases:
 469:c:/Users/Black_Life/STM32Cube/Repository/STM32Cube_FW_F4_V1.26.2/Middlewares/Third_Party/LwIP/src/core\tcp_out.c ****    *
 470:c:/Users/Black_Life/STM32Cube/Repository/STM32Cube_FW_F4_V1.26.2/Middlewares/Third_Party/LwIP/src/core\tcp_out.c ****    * seg points to the last segment tampered with.
 471:c:/Users/Black_Life/STM32Cube/Repository/STM32Cube_FW_F4_V1.26.2/Middlewares/Third_Party/LwIP/src/core\tcp_out.c ****    *
 472:c:/Users/Black_Life/STM32Cube/Repository/STM32Cube_FW_F4_V1.26.2/Middlewares/Third_Party/LwIP/src/core\tcp_out.c ****    * pos records progress as data is segmented.
 473:c:/Users/Black_Life/STM32Cube/Repository/STM32Cube_FW_F4_V1.26.2/Middlewares/Third_Party/LwIP/src/core\tcp_out.c ****    */
 474:c:/Users/Black_Life/STM32Cube/Repository/STM32Cube_FW_F4_V1.26.2/Middlewares/Third_Party/LwIP/src/core\tcp_out.c **** 
 475:c:/Users/Black_Life/STM32Cube/Repository/STM32Cube_FW_F4_V1.26.2/Middlewares/Third_Party/LwIP/src/core\tcp_out.c ****   /* Find the tail of the unsent queue. */
 476:c:/Users/Black_Life/STM32Cube/Repository/STM32Cube_FW_F4_V1.26.2/Middlewares/Third_Party/LwIP/src/core\tcp_out.c ****   if (pcb->unsent != NULL) {
 477:c:/Users/Black_Life/STM32Cube/Repository/STM32Cube_FW_F4_V1.26.2/Middlewares/Third_Party/LwIP/src/core\tcp_out.c ****     u16_t space;
 478:c:/Users/Black_Life/STM32Cube/Repository/STM32Cube_FW_F4_V1.26.2/Middlewares/Third_Party/LwIP/src/core\tcp_out.c ****     u16_t unsent_optlen;
 479:c:/Users/Black_Life/STM32Cube/Repository/STM32Cube_FW_F4_V1.26.2/Middlewares/Third_Party/LwIP/src/core\tcp_out.c **** 
 480:c:/Users/Black_Life/STM32Cube/Repository/STM32Cube_FW_F4_V1.26.2/Middlewares/Third_Party/LwIP/src/core\tcp_out.c ****     /* @todo: this could be sped up by keeping last_unsent in the pcb */
 481:c:/Users/Black_Life/STM32Cube/Repository/STM32Cube_FW_F4_V1.26.2/Middlewares/Third_Party/LwIP/src/core\tcp_out.c ****     for (last_unsent = pcb->unsent; last_unsent->next != NULL;
 482:c:/Users/Black_Life/STM32Cube/Repository/STM32Cube_FW_F4_V1.26.2/Middlewares/Third_Party/LwIP/src/core\tcp_out.c ****          last_unsent = last_unsent->next);
 483:c:/Users/Black_Life/STM32Cube/Repository/STM32Cube_FW_F4_V1.26.2/Middlewares/Third_Party/LwIP/src/core\tcp_out.c **** 
 484:c:/Users/Black_Life/STM32Cube/Repository/STM32Cube_FW_F4_V1.26.2/Middlewares/Third_Party/LwIP/src/core\tcp_out.c ****     /* Usable space at the end of the last unsent segment */
 485:c:/Users/Black_Life/STM32Cube/Repository/STM32Cube_FW_F4_V1.26.2/Middlewares/Third_Party/LwIP/src/core\tcp_out.c ****     unsent_optlen = LWIP_TCP_OPT_LENGTH_SEGMENT(last_unsent->flags, pcb);
 486:c:/Users/Black_Life/STM32Cube/Repository/STM32Cube_FW_F4_V1.26.2/Middlewares/Third_Party/LwIP/src/core\tcp_out.c ****     LWIP_ASSERT("mss_local is too small", mss_local >= last_unsent->len + unsent_optlen);
 487:c:/Users/Black_Life/STM32Cube/Repository/STM32Cube_FW_F4_V1.26.2/Middlewares/Third_Party/LwIP/src/core\tcp_out.c ****     space = mss_local - (last_unsent->len + unsent_optlen);
 488:c:/Users/Black_Life/STM32Cube/Repository/STM32Cube_FW_F4_V1.26.2/Middlewares/Third_Party/LwIP/src/core\tcp_out.c **** 
 489:c:/Users/Black_Life/STM32Cube/Repository/STM32Cube_FW_F4_V1.26.2/Middlewares/Third_Party/LwIP/src/core\tcp_out.c ****     /*
 490:c:/Users/Black_Life/STM32Cube/Repository/STM32Cube_FW_F4_V1.26.2/Middlewares/Third_Party/LwIP/src/core\tcp_out.c ****      * Phase 1: Copy data directly into an oversized pbuf.
 491:c:/Users/Black_Life/STM32Cube/Repository/STM32Cube_FW_F4_V1.26.2/Middlewares/Third_Party/LwIP/src/core\tcp_out.c ****      *
 492:c:/Users/Black_Life/STM32Cube/Repository/STM32Cube_FW_F4_V1.26.2/Middlewares/Third_Party/LwIP/src/core\tcp_out.c ****      * The number of bytes copied is recorded in the oversize_used
 493:c:/Users/Black_Life/STM32Cube/Repository/STM32Cube_FW_F4_V1.26.2/Middlewares/Third_Party/LwIP/src/core\tcp_out.c ****      * variable. The actual copying is done at the bottom of the
 494:c:/Users/Black_Life/STM32Cube/Repository/STM32Cube_FW_F4_V1.26.2/Middlewares/Third_Party/LwIP/src/core\tcp_out.c ****      * function.
 495:c:/Users/Black_Life/STM32Cube/Repository/STM32Cube_FW_F4_V1.26.2/Middlewares/Third_Party/LwIP/src/core\tcp_out.c ****      */
 496:c:/Users/Black_Life/STM32Cube/Repository/STM32Cube_FW_F4_V1.26.2/Middlewares/Third_Party/LwIP/src/core\tcp_out.c **** #if TCP_OVERSIZE
 497:c:/Users/Black_Life/STM32Cube/Repository/STM32Cube_FW_F4_V1.26.2/Middlewares/Third_Party/LwIP/src/core\tcp_out.c **** #if TCP_OVERSIZE_DBGCHECK
 498:c:/Users/Black_Life/STM32Cube/Repository/STM32Cube_FW_F4_V1.26.2/Middlewares/Third_Party/LwIP/src/core\tcp_out.c ****     /* check that pcb->unsent_oversize matches last_unsent->oversize_left */
 499:c:/Users/Black_Life/STM32Cube/Repository/STM32Cube_FW_F4_V1.26.2/Middlewares/Third_Party/LwIP/src/core\tcp_out.c ****     LWIP_ASSERT("unsent_oversize mismatch (pcb vs. last_unsent)",
 500:c:/Users/Black_Life/STM32Cube/Repository/STM32Cube_FW_F4_V1.26.2/Middlewares/Third_Party/LwIP/src/core\tcp_out.c ****                 pcb->unsent_oversize == last_unsent->oversize_left);
 501:c:/Users/Black_Life/STM32Cube/Repository/STM32Cube_FW_F4_V1.26.2/Middlewares/Third_Party/LwIP/src/core\tcp_out.c **** #endif /* TCP_OVERSIZE_DBGCHECK */
 502:c:/Users/Black_Life/STM32Cube/Repository/STM32Cube_FW_F4_V1.26.2/Middlewares/Third_Party/LwIP/src/core\tcp_out.c ****     oversize = pcb->unsent_oversize;
 503:c:/Users/Black_Life/STM32Cube/Repository/STM32Cube_FW_F4_V1.26.2/Middlewares/Third_Party/LwIP/src/core\tcp_out.c ****     if (oversize > 0) {
 504:c:/Users/Black_Life/STM32Cube/Repository/STM32Cube_FW_F4_V1.26.2/Middlewares/Third_Party/LwIP/src/core\tcp_out.c ****       LWIP_ASSERT("inconsistent oversize vs. space", oversize <= space);
 505:c:/Users/Black_Life/STM32Cube/Repository/STM32Cube_FW_F4_V1.26.2/Middlewares/Third_Party/LwIP/src/core\tcp_out.c ****       seg = last_unsent;
 506:c:/Users/Black_Life/STM32Cube/Repository/STM32Cube_FW_F4_V1.26.2/Middlewares/Third_Party/LwIP/src/core\tcp_out.c ****       oversize_used = LWIP_MIN(space, LWIP_MIN(oversize, len));
 507:c:/Users/Black_Life/STM32Cube/Repository/STM32Cube_FW_F4_V1.26.2/Middlewares/Third_Party/LwIP/src/core\tcp_out.c ****       pos += oversize_used;
 508:c:/Users/Black_Life/STM32Cube/Repository/STM32Cube_FW_F4_V1.26.2/Middlewares/Third_Party/LwIP/src/core\tcp_out.c ****       oversize -= oversize_used;
 509:c:/Users/Black_Life/STM32Cube/Repository/STM32Cube_FW_F4_V1.26.2/Middlewares/Third_Party/LwIP/src/core\tcp_out.c ****       space -= oversize_used;
 510:c:/Users/Black_Life/STM32Cube/Repository/STM32Cube_FW_F4_V1.26.2/Middlewares/Third_Party/LwIP/src/core\tcp_out.c ****     }
 511:c:/Users/Black_Life/STM32Cube/Repository/STM32Cube_FW_F4_V1.26.2/Middlewares/Third_Party/LwIP/src/core\tcp_out.c ****     /* now we are either finished or oversize is zero */
 512:c:/Users/Black_Life/STM32Cube/Repository/STM32Cube_FW_F4_V1.26.2/Middlewares/Third_Party/LwIP/src/core\tcp_out.c ****     LWIP_ASSERT("inconsistent oversize vs. len", (oversize == 0) || (pos == len));
ARM GAS  C:\Users\BLACK_~1\AppData\Local\Temp\ccsw9P1a.s 			page 15


 513:c:/Users/Black_Life/STM32Cube/Repository/STM32Cube_FW_F4_V1.26.2/Middlewares/Third_Party/LwIP/src/core\tcp_out.c **** #endif /* TCP_OVERSIZE */
 514:c:/Users/Black_Life/STM32Cube/Repository/STM32Cube_FW_F4_V1.26.2/Middlewares/Third_Party/LwIP/src/core\tcp_out.c **** 
 515:c:/Users/Black_Life/STM32Cube/Repository/STM32Cube_FW_F4_V1.26.2/Middlewares/Third_Party/LwIP/src/core\tcp_out.c **** #if !LWIP_NETIF_TX_SINGLE_PBUF
 516:c:/Users/Black_Life/STM32Cube/Repository/STM32Cube_FW_F4_V1.26.2/Middlewares/Third_Party/LwIP/src/core\tcp_out.c ****     /*
 517:c:/Users/Black_Life/STM32Cube/Repository/STM32Cube_FW_F4_V1.26.2/Middlewares/Third_Party/LwIP/src/core\tcp_out.c ****      * Phase 2: Chain a new pbuf to the end of pcb->unsent.
 518:c:/Users/Black_Life/STM32Cube/Repository/STM32Cube_FW_F4_V1.26.2/Middlewares/Third_Party/LwIP/src/core\tcp_out.c ****      *
 519:c:/Users/Black_Life/STM32Cube/Repository/STM32Cube_FW_F4_V1.26.2/Middlewares/Third_Party/LwIP/src/core\tcp_out.c ****      * As an exception when NOT copying the data, if the given data buffer
 520:c:/Users/Black_Life/STM32Cube/Repository/STM32Cube_FW_F4_V1.26.2/Middlewares/Third_Party/LwIP/src/core\tcp_out.c ****      * directly follows the last unsent data buffer in memory, extend the last
 521:c:/Users/Black_Life/STM32Cube/Repository/STM32Cube_FW_F4_V1.26.2/Middlewares/Third_Party/LwIP/src/core\tcp_out.c ****      * ROM pbuf reference to the buffer, thus saving a ROM pbuf allocation.
 522:c:/Users/Black_Life/STM32Cube/Repository/STM32Cube_FW_F4_V1.26.2/Middlewares/Third_Party/LwIP/src/core\tcp_out.c ****      *
 523:c:/Users/Black_Life/STM32Cube/Repository/STM32Cube_FW_F4_V1.26.2/Middlewares/Third_Party/LwIP/src/core\tcp_out.c ****      * We don't extend segments containing SYN/FIN flags or options
 524:c:/Users/Black_Life/STM32Cube/Repository/STM32Cube_FW_F4_V1.26.2/Middlewares/Third_Party/LwIP/src/core\tcp_out.c ****      * (len==0). The new pbuf is kept in concat_p and pbuf_cat'ed at
 525:c:/Users/Black_Life/STM32Cube/Repository/STM32Cube_FW_F4_V1.26.2/Middlewares/Third_Party/LwIP/src/core\tcp_out.c ****      * the end.
 526:c:/Users/Black_Life/STM32Cube/Repository/STM32Cube_FW_F4_V1.26.2/Middlewares/Third_Party/LwIP/src/core\tcp_out.c ****      *
 527:c:/Users/Black_Life/STM32Cube/Repository/STM32Cube_FW_F4_V1.26.2/Middlewares/Third_Party/LwIP/src/core\tcp_out.c ****      * This phase is skipped for LWIP_NETIF_TX_SINGLE_PBUF as we could only execute
 528:c:/Users/Black_Life/STM32Cube/Repository/STM32Cube_FW_F4_V1.26.2/Middlewares/Third_Party/LwIP/src/core\tcp_out.c ****      * it after rexmit puts a segment from unacked to unsent and at this point,
 529:c:/Users/Black_Life/STM32Cube/Repository/STM32Cube_FW_F4_V1.26.2/Middlewares/Third_Party/LwIP/src/core\tcp_out.c ****      * oversize info is lost.
 530:c:/Users/Black_Life/STM32Cube/Repository/STM32Cube_FW_F4_V1.26.2/Middlewares/Third_Party/LwIP/src/core\tcp_out.c ****      */
 531:c:/Users/Black_Life/STM32Cube/Repository/STM32Cube_FW_F4_V1.26.2/Middlewares/Third_Party/LwIP/src/core\tcp_out.c ****     if ((pos < len) && (space > 0) && (last_unsent->len > 0)) {
 532:c:/Users/Black_Life/STM32Cube/Repository/STM32Cube_FW_F4_V1.26.2/Middlewares/Third_Party/LwIP/src/core\tcp_out.c ****       u16_t seglen = LWIP_MIN(space, len - pos);
 533:c:/Users/Black_Life/STM32Cube/Repository/STM32Cube_FW_F4_V1.26.2/Middlewares/Third_Party/LwIP/src/core\tcp_out.c ****       seg = last_unsent;
 534:c:/Users/Black_Life/STM32Cube/Repository/STM32Cube_FW_F4_V1.26.2/Middlewares/Third_Party/LwIP/src/core\tcp_out.c **** 
 535:c:/Users/Black_Life/STM32Cube/Repository/STM32Cube_FW_F4_V1.26.2/Middlewares/Third_Party/LwIP/src/core\tcp_out.c ****       /* Create a pbuf with a copy or reference to seglen bytes. We
 536:c:/Users/Black_Life/STM32Cube/Repository/STM32Cube_FW_F4_V1.26.2/Middlewares/Third_Party/LwIP/src/core\tcp_out.c ****        * can use PBUF_RAW here since the data appears in the middle of
 537:c:/Users/Black_Life/STM32Cube/Repository/STM32Cube_FW_F4_V1.26.2/Middlewares/Third_Party/LwIP/src/core\tcp_out.c ****        * a segment. A header will never be prepended. */
 538:c:/Users/Black_Life/STM32Cube/Repository/STM32Cube_FW_F4_V1.26.2/Middlewares/Third_Party/LwIP/src/core\tcp_out.c ****       if (apiflags & TCP_WRITE_FLAG_COPY) {
 539:c:/Users/Black_Life/STM32Cube/Repository/STM32Cube_FW_F4_V1.26.2/Middlewares/Third_Party/LwIP/src/core\tcp_out.c ****         /* Data is copied */
 540:c:/Users/Black_Life/STM32Cube/Repository/STM32Cube_FW_F4_V1.26.2/Middlewares/Third_Party/LwIP/src/core\tcp_out.c ****         if ((concat_p = tcp_pbuf_prealloc(PBUF_RAW, seglen, space, &oversize, pcb, apiflags, 1)) ==
 541:c:/Users/Black_Life/STM32Cube/Repository/STM32Cube_FW_F4_V1.26.2/Middlewares/Third_Party/LwIP/src/core\tcp_out.c ****           LWIP_DEBUGF(TCP_OUTPUT_DEBUG | LWIP_DBG_LEVEL_SERIOUS,
 542:c:/Users/Black_Life/STM32Cube/Repository/STM32Cube_FW_F4_V1.26.2/Middlewares/Third_Party/LwIP/src/core\tcp_out.c ****                       ("tcp_write : could not allocate memory for pbuf copy size %"U16_F"\n",
 543:c:/Users/Black_Life/STM32Cube/Repository/STM32Cube_FW_F4_V1.26.2/Middlewares/Third_Party/LwIP/src/core\tcp_out.c ****                        seglen));
 544:c:/Users/Black_Life/STM32Cube/Repository/STM32Cube_FW_F4_V1.26.2/Middlewares/Third_Party/LwIP/src/core\tcp_out.c ****           goto memerr;
 545:c:/Users/Black_Life/STM32Cube/Repository/STM32Cube_FW_F4_V1.26.2/Middlewares/Third_Party/LwIP/src/core\tcp_out.c ****         }
 546:c:/Users/Black_Life/STM32Cube/Repository/STM32Cube_FW_F4_V1.26.2/Middlewares/Third_Party/LwIP/src/core\tcp_out.c **** #if TCP_OVERSIZE_DBGCHECK
 547:c:/Users/Black_Life/STM32Cube/Repository/STM32Cube_FW_F4_V1.26.2/Middlewares/Third_Party/LwIP/src/core\tcp_out.c ****         oversize_add = oversize;
 548:c:/Users/Black_Life/STM32Cube/Repository/STM32Cube_FW_F4_V1.26.2/Middlewares/Third_Party/LwIP/src/core\tcp_out.c **** #endif /* TCP_OVERSIZE_DBGCHECK */
 549:c:/Users/Black_Life/STM32Cube/Repository/STM32Cube_FW_F4_V1.26.2/Middlewares/Third_Party/LwIP/src/core\tcp_out.c ****         TCP_DATA_COPY2(concat_p->payload, (const u8_t *)arg + pos, seglen, &concat_chksum, &concat_
 550:c:/Users/Black_Life/STM32Cube/Repository/STM32Cube_FW_F4_V1.26.2/Middlewares/Third_Party/LwIP/src/core\tcp_out.c **** #if TCP_CHECKSUM_ON_COPY
 551:c:/Users/Black_Life/STM32Cube/Repository/STM32Cube_FW_F4_V1.26.2/Middlewares/Third_Party/LwIP/src/core\tcp_out.c ****         concat_chksummed += seglen;
 552:c:/Users/Black_Life/STM32Cube/Repository/STM32Cube_FW_F4_V1.26.2/Middlewares/Third_Party/LwIP/src/core\tcp_out.c **** #endif /* TCP_CHECKSUM_ON_COPY */
 553:c:/Users/Black_Life/STM32Cube/Repository/STM32Cube_FW_F4_V1.26.2/Middlewares/Third_Party/LwIP/src/core\tcp_out.c ****         queuelen += pbuf_clen(concat_p);
 554:c:/Users/Black_Life/STM32Cube/Repository/STM32Cube_FW_F4_V1.26.2/Middlewares/Third_Party/LwIP/src/core\tcp_out.c ****       } else {
 555:c:/Users/Black_Life/STM32Cube/Repository/STM32Cube_FW_F4_V1.26.2/Middlewares/Third_Party/LwIP/src/core\tcp_out.c ****         /* Data is not copied */
 556:c:/Users/Black_Life/STM32Cube/Repository/STM32Cube_FW_F4_V1.26.2/Middlewares/Third_Party/LwIP/src/core\tcp_out.c ****         /* If the last unsent pbuf is of type PBUF_ROM, try to extend it. */
 557:c:/Users/Black_Life/STM32Cube/Repository/STM32Cube_FW_F4_V1.26.2/Middlewares/Third_Party/LwIP/src/core\tcp_out.c ****         struct pbuf *p;
 558:c:/Users/Black_Life/STM32Cube/Repository/STM32Cube_FW_F4_V1.26.2/Middlewares/Third_Party/LwIP/src/core\tcp_out.c ****         for (p = last_unsent->p; p->next != NULL; p = p->next);
 559:c:/Users/Black_Life/STM32Cube/Repository/STM32Cube_FW_F4_V1.26.2/Middlewares/Third_Party/LwIP/src/core\tcp_out.c ****         if (((p->type_internal & (PBUF_TYPE_FLAG_STRUCT_DATA_CONTIGUOUS | PBUF_TYPE_FLAG_DATA_VOLAT
 560:c:/Users/Black_Life/STM32Cube/Repository/STM32Cube_FW_F4_V1.26.2/Middlewares/Third_Party/LwIP/src/core\tcp_out.c ****             (const u8_t *)p->payload + p->len == (const u8_t *)arg) {
 561:c:/Users/Black_Life/STM32Cube/Repository/STM32Cube_FW_F4_V1.26.2/Middlewares/Third_Party/LwIP/src/core\tcp_out.c ****           LWIP_ASSERT("tcp_write: ROM pbufs cannot be oversized", pos == 0);
 562:c:/Users/Black_Life/STM32Cube/Repository/STM32Cube_FW_F4_V1.26.2/Middlewares/Third_Party/LwIP/src/core\tcp_out.c ****           extendlen = seglen;
 563:c:/Users/Black_Life/STM32Cube/Repository/STM32Cube_FW_F4_V1.26.2/Middlewares/Third_Party/LwIP/src/core\tcp_out.c ****         } else {
 564:c:/Users/Black_Life/STM32Cube/Repository/STM32Cube_FW_F4_V1.26.2/Middlewares/Third_Party/LwIP/src/core\tcp_out.c ****           if ((concat_p = pbuf_alloc(PBUF_RAW, seglen, PBUF_ROM)) == NULL) {
 565:c:/Users/Black_Life/STM32Cube/Repository/STM32Cube_FW_F4_V1.26.2/Middlewares/Third_Party/LwIP/src/core\tcp_out.c ****             LWIP_DEBUGF(TCP_OUTPUT_DEBUG | LWIP_DBG_LEVEL_SERIOUS,
 566:c:/Users/Black_Life/STM32Cube/Repository/STM32Cube_FW_F4_V1.26.2/Middlewares/Third_Party/LwIP/src/core\tcp_out.c ****                         ("tcp_write: could not allocate memory for zero-copy pbuf\n"));
 567:c:/Users/Black_Life/STM32Cube/Repository/STM32Cube_FW_F4_V1.26.2/Middlewares/Third_Party/LwIP/src/core\tcp_out.c ****             goto memerr;
 568:c:/Users/Black_Life/STM32Cube/Repository/STM32Cube_FW_F4_V1.26.2/Middlewares/Third_Party/LwIP/src/core\tcp_out.c ****           }
 569:c:/Users/Black_Life/STM32Cube/Repository/STM32Cube_FW_F4_V1.26.2/Middlewares/Third_Party/LwIP/src/core\tcp_out.c ****           /* reference the non-volatile payload data */
ARM GAS  C:\Users\BLACK_~1\AppData\Local\Temp\ccsw9P1a.s 			page 16


 570:c:/Users/Black_Life/STM32Cube/Repository/STM32Cube_FW_F4_V1.26.2/Middlewares/Third_Party/LwIP/src/core\tcp_out.c ****           ((struct pbuf_rom *)concat_p)->payload = (const u8_t *)arg + pos;
 571:c:/Users/Black_Life/STM32Cube/Repository/STM32Cube_FW_F4_V1.26.2/Middlewares/Third_Party/LwIP/src/core\tcp_out.c ****           queuelen += pbuf_clen(concat_p);
 572:c:/Users/Black_Life/STM32Cube/Repository/STM32Cube_FW_F4_V1.26.2/Middlewares/Third_Party/LwIP/src/core\tcp_out.c ****         }
 573:c:/Users/Black_Life/STM32Cube/Repository/STM32Cube_FW_F4_V1.26.2/Middlewares/Third_Party/LwIP/src/core\tcp_out.c **** #if TCP_CHECKSUM_ON_COPY
 574:c:/Users/Black_Life/STM32Cube/Repository/STM32Cube_FW_F4_V1.26.2/Middlewares/Third_Party/LwIP/src/core\tcp_out.c ****         /* calculate the checksum of nocopy-data */
 575:c:/Users/Black_Life/STM32Cube/Repository/STM32Cube_FW_F4_V1.26.2/Middlewares/Third_Party/LwIP/src/core\tcp_out.c ****         tcp_seg_add_chksum(~inet_chksum((const u8_t *)arg + pos, seglen), seglen,
 576:c:/Users/Black_Life/STM32Cube/Repository/STM32Cube_FW_F4_V1.26.2/Middlewares/Third_Party/LwIP/src/core\tcp_out.c ****                            &concat_chksum, &concat_chksum_swapped);
 577:c:/Users/Black_Life/STM32Cube/Repository/STM32Cube_FW_F4_V1.26.2/Middlewares/Third_Party/LwIP/src/core\tcp_out.c ****         concat_chksummed += seglen;
 578:c:/Users/Black_Life/STM32Cube/Repository/STM32Cube_FW_F4_V1.26.2/Middlewares/Third_Party/LwIP/src/core\tcp_out.c **** #endif /* TCP_CHECKSUM_ON_COPY */
 579:c:/Users/Black_Life/STM32Cube/Repository/STM32Cube_FW_F4_V1.26.2/Middlewares/Third_Party/LwIP/src/core\tcp_out.c ****       }
 580:c:/Users/Black_Life/STM32Cube/Repository/STM32Cube_FW_F4_V1.26.2/Middlewares/Third_Party/LwIP/src/core\tcp_out.c **** 
 581:c:/Users/Black_Life/STM32Cube/Repository/STM32Cube_FW_F4_V1.26.2/Middlewares/Third_Party/LwIP/src/core\tcp_out.c ****       pos += seglen;
 582:c:/Users/Black_Life/STM32Cube/Repository/STM32Cube_FW_F4_V1.26.2/Middlewares/Third_Party/LwIP/src/core\tcp_out.c ****     }
 583:c:/Users/Black_Life/STM32Cube/Repository/STM32Cube_FW_F4_V1.26.2/Middlewares/Third_Party/LwIP/src/core\tcp_out.c **** #endif /* !LWIP_NETIF_TX_SINGLE_PBUF */
 584:c:/Users/Black_Life/STM32Cube/Repository/STM32Cube_FW_F4_V1.26.2/Middlewares/Third_Party/LwIP/src/core\tcp_out.c ****   } else {
 585:c:/Users/Black_Life/STM32Cube/Repository/STM32Cube_FW_F4_V1.26.2/Middlewares/Third_Party/LwIP/src/core\tcp_out.c **** #if TCP_OVERSIZE
 586:c:/Users/Black_Life/STM32Cube/Repository/STM32Cube_FW_F4_V1.26.2/Middlewares/Third_Party/LwIP/src/core\tcp_out.c ****     LWIP_ASSERT("unsent_oversize mismatch (pcb->unsent is NULL)",
 587:c:/Users/Black_Life/STM32Cube/Repository/STM32Cube_FW_F4_V1.26.2/Middlewares/Third_Party/LwIP/src/core\tcp_out.c ****                 pcb->unsent_oversize == 0);
 588:c:/Users/Black_Life/STM32Cube/Repository/STM32Cube_FW_F4_V1.26.2/Middlewares/Third_Party/LwIP/src/core\tcp_out.c **** #endif /* TCP_OVERSIZE */
 589:c:/Users/Black_Life/STM32Cube/Repository/STM32Cube_FW_F4_V1.26.2/Middlewares/Third_Party/LwIP/src/core\tcp_out.c ****   }
 590:c:/Users/Black_Life/STM32Cube/Repository/STM32Cube_FW_F4_V1.26.2/Middlewares/Third_Party/LwIP/src/core\tcp_out.c **** 
 591:c:/Users/Black_Life/STM32Cube/Repository/STM32Cube_FW_F4_V1.26.2/Middlewares/Third_Party/LwIP/src/core\tcp_out.c ****   /*
 592:c:/Users/Black_Life/STM32Cube/Repository/STM32Cube_FW_F4_V1.26.2/Middlewares/Third_Party/LwIP/src/core\tcp_out.c ****    * Phase 3: Create new segments.
 593:c:/Users/Black_Life/STM32Cube/Repository/STM32Cube_FW_F4_V1.26.2/Middlewares/Third_Party/LwIP/src/core\tcp_out.c ****    *
 594:c:/Users/Black_Life/STM32Cube/Repository/STM32Cube_FW_F4_V1.26.2/Middlewares/Third_Party/LwIP/src/core\tcp_out.c ****    * The new segments are chained together in the local 'queue'
 595:c:/Users/Black_Life/STM32Cube/Repository/STM32Cube_FW_F4_V1.26.2/Middlewares/Third_Party/LwIP/src/core\tcp_out.c ****    * variable, ready to be appended to pcb->unsent.
 596:c:/Users/Black_Life/STM32Cube/Repository/STM32Cube_FW_F4_V1.26.2/Middlewares/Third_Party/LwIP/src/core\tcp_out.c ****    */
 597:c:/Users/Black_Life/STM32Cube/Repository/STM32Cube_FW_F4_V1.26.2/Middlewares/Third_Party/LwIP/src/core\tcp_out.c ****   while (pos < len) {
 598:c:/Users/Black_Life/STM32Cube/Repository/STM32Cube_FW_F4_V1.26.2/Middlewares/Third_Party/LwIP/src/core\tcp_out.c ****     struct pbuf *p;
 599:c:/Users/Black_Life/STM32Cube/Repository/STM32Cube_FW_F4_V1.26.2/Middlewares/Third_Party/LwIP/src/core\tcp_out.c ****     u16_t left = len - pos;
 600:c:/Users/Black_Life/STM32Cube/Repository/STM32Cube_FW_F4_V1.26.2/Middlewares/Third_Party/LwIP/src/core\tcp_out.c ****     u16_t max_len = mss_local - optlen;
 601:c:/Users/Black_Life/STM32Cube/Repository/STM32Cube_FW_F4_V1.26.2/Middlewares/Third_Party/LwIP/src/core\tcp_out.c ****     u16_t seglen = LWIP_MIN(left, max_len);
 602:c:/Users/Black_Life/STM32Cube/Repository/STM32Cube_FW_F4_V1.26.2/Middlewares/Third_Party/LwIP/src/core\tcp_out.c **** #if TCP_CHECKSUM_ON_COPY
 603:c:/Users/Black_Life/STM32Cube/Repository/STM32Cube_FW_F4_V1.26.2/Middlewares/Third_Party/LwIP/src/core\tcp_out.c ****     u16_t chksum = 0;
 604:c:/Users/Black_Life/STM32Cube/Repository/STM32Cube_FW_F4_V1.26.2/Middlewares/Third_Party/LwIP/src/core\tcp_out.c ****     u8_t chksum_swapped = 0;
 605:c:/Users/Black_Life/STM32Cube/Repository/STM32Cube_FW_F4_V1.26.2/Middlewares/Third_Party/LwIP/src/core\tcp_out.c **** #endif /* TCP_CHECKSUM_ON_COPY */
 606:c:/Users/Black_Life/STM32Cube/Repository/STM32Cube_FW_F4_V1.26.2/Middlewares/Third_Party/LwIP/src/core\tcp_out.c **** 
 607:c:/Users/Black_Life/STM32Cube/Repository/STM32Cube_FW_F4_V1.26.2/Middlewares/Third_Party/LwIP/src/core\tcp_out.c ****     if (apiflags & TCP_WRITE_FLAG_COPY) {
 608:c:/Users/Black_Life/STM32Cube/Repository/STM32Cube_FW_F4_V1.26.2/Middlewares/Third_Party/LwIP/src/core\tcp_out.c ****       /* If copy is set, memory should be allocated and data copied
 609:c:/Users/Black_Life/STM32Cube/Repository/STM32Cube_FW_F4_V1.26.2/Middlewares/Third_Party/LwIP/src/core\tcp_out.c ****        * into pbuf */
 610:c:/Users/Black_Life/STM32Cube/Repository/STM32Cube_FW_F4_V1.26.2/Middlewares/Third_Party/LwIP/src/core\tcp_out.c ****       if ((p = tcp_pbuf_prealloc(PBUF_TRANSPORT, seglen + optlen, mss_local, &oversize, pcb, apifla
 611:c:/Users/Black_Life/STM32Cube/Repository/STM32Cube_FW_F4_V1.26.2/Middlewares/Third_Party/LwIP/src/core\tcp_out.c ****         LWIP_DEBUGF(TCP_OUTPUT_DEBUG | LWIP_DBG_LEVEL_SERIOUS, ("tcp_write : could not allocate mem
 612:c:/Users/Black_Life/STM32Cube/Repository/STM32Cube_FW_F4_V1.26.2/Middlewares/Third_Party/LwIP/src/core\tcp_out.c ****         goto memerr;
 613:c:/Users/Black_Life/STM32Cube/Repository/STM32Cube_FW_F4_V1.26.2/Middlewares/Third_Party/LwIP/src/core\tcp_out.c ****       }
 614:c:/Users/Black_Life/STM32Cube/Repository/STM32Cube_FW_F4_V1.26.2/Middlewares/Third_Party/LwIP/src/core\tcp_out.c ****       LWIP_ASSERT("tcp_write: check that first pbuf can hold the complete seglen",
 615:c:/Users/Black_Life/STM32Cube/Repository/STM32Cube_FW_F4_V1.26.2/Middlewares/Third_Party/LwIP/src/core\tcp_out.c ****                   (p->len >= seglen));
 616:c:/Users/Black_Life/STM32Cube/Repository/STM32Cube_FW_F4_V1.26.2/Middlewares/Third_Party/LwIP/src/core\tcp_out.c ****       TCP_DATA_COPY2((char *)p->payload + optlen, (const u8_t *)arg + pos, seglen, &chksum, &chksum
 617:c:/Users/Black_Life/STM32Cube/Repository/STM32Cube_FW_F4_V1.26.2/Middlewares/Third_Party/LwIP/src/core\tcp_out.c ****     } else {
 618:c:/Users/Black_Life/STM32Cube/Repository/STM32Cube_FW_F4_V1.26.2/Middlewares/Third_Party/LwIP/src/core\tcp_out.c ****       /* Copy is not set: First allocate a pbuf for holding the data.
 619:c:/Users/Black_Life/STM32Cube/Repository/STM32Cube_FW_F4_V1.26.2/Middlewares/Third_Party/LwIP/src/core\tcp_out.c ****        * Since the referenced data is available at least until it is
 620:c:/Users/Black_Life/STM32Cube/Repository/STM32Cube_FW_F4_V1.26.2/Middlewares/Third_Party/LwIP/src/core\tcp_out.c ****        * sent out on the link (as it has to be ACKed by the remote
 621:c:/Users/Black_Life/STM32Cube/Repository/STM32Cube_FW_F4_V1.26.2/Middlewares/Third_Party/LwIP/src/core\tcp_out.c ****        * party) we can safely use PBUF_ROM instead of PBUF_REF here.
 622:c:/Users/Black_Life/STM32Cube/Repository/STM32Cube_FW_F4_V1.26.2/Middlewares/Third_Party/LwIP/src/core\tcp_out.c ****        */
 623:c:/Users/Black_Life/STM32Cube/Repository/STM32Cube_FW_F4_V1.26.2/Middlewares/Third_Party/LwIP/src/core\tcp_out.c ****       struct pbuf *p2;
 624:c:/Users/Black_Life/STM32Cube/Repository/STM32Cube_FW_F4_V1.26.2/Middlewares/Third_Party/LwIP/src/core\tcp_out.c **** #if TCP_OVERSIZE
 625:c:/Users/Black_Life/STM32Cube/Repository/STM32Cube_FW_F4_V1.26.2/Middlewares/Third_Party/LwIP/src/core\tcp_out.c ****       LWIP_ASSERT("oversize == 0", oversize == 0);
 626:c:/Users/Black_Life/STM32Cube/Repository/STM32Cube_FW_F4_V1.26.2/Middlewares/Third_Party/LwIP/src/core\tcp_out.c **** #endif /* TCP_OVERSIZE */
ARM GAS  C:\Users\BLACK_~1\AppData\Local\Temp\ccsw9P1a.s 			page 17


 627:c:/Users/Black_Life/STM32Cube/Repository/STM32Cube_FW_F4_V1.26.2/Middlewares/Third_Party/LwIP/src/core\tcp_out.c ****       if ((p2 = pbuf_alloc(PBUF_TRANSPORT, seglen, PBUF_ROM)) == NULL) {
 628:c:/Users/Black_Life/STM32Cube/Repository/STM32Cube_FW_F4_V1.26.2/Middlewares/Third_Party/LwIP/src/core\tcp_out.c ****         LWIP_DEBUGF(TCP_OUTPUT_DEBUG | LWIP_DBG_LEVEL_SERIOUS, ("tcp_write: could not allocate memo
 629:c:/Users/Black_Life/STM32Cube/Repository/STM32Cube_FW_F4_V1.26.2/Middlewares/Third_Party/LwIP/src/core\tcp_out.c ****         goto memerr;
 630:c:/Users/Black_Life/STM32Cube/Repository/STM32Cube_FW_F4_V1.26.2/Middlewares/Third_Party/LwIP/src/core\tcp_out.c ****       }
 631:c:/Users/Black_Life/STM32Cube/Repository/STM32Cube_FW_F4_V1.26.2/Middlewares/Third_Party/LwIP/src/core\tcp_out.c **** #if TCP_CHECKSUM_ON_COPY
 632:c:/Users/Black_Life/STM32Cube/Repository/STM32Cube_FW_F4_V1.26.2/Middlewares/Third_Party/LwIP/src/core\tcp_out.c ****       /* calculate the checksum of nocopy-data */
 633:c:/Users/Black_Life/STM32Cube/Repository/STM32Cube_FW_F4_V1.26.2/Middlewares/Third_Party/LwIP/src/core\tcp_out.c ****       chksum = ~inet_chksum((const u8_t *)arg + pos, seglen);
 634:c:/Users/Black_Life/STM32Cube/Repository/STM32Cube_FW_F4_V1.26.2/Middlewares/Third_Party/LwIP/src/core\tcp_out.c ****       if (seglen & 1) {
 635:c:/Users/Black_Life/STM32Cube/Repository/STM32Cube_FW_F4_V1.26.2/Middlewares/Third_Party/LwIP/src/core\tcp_out.c ****         chksum_swapped = 1;
 636:c:/Users/Black_Life/STM32Cube/Repository/STM32Cube_FW_F4_V1.26.2/Middlewares/Third_Party/LwIP/src/core\tcp_out.c ****         chksum = SWAP_BYTES_IN_WORD(chksum);
 637:c:/Users/Black_Life/STM32Cube/Repository/STM32Cube_FW_F4_V1.26.2/Middlewares/Third_Party/LwIP/src/core\tcp_out.c ****       }
 638:c:/Users/Black_Life/STM32Cube/Repository/STM32Cube_FW_F4_V1.26.2/Middlewares/Third_Party/LwIP/src/core\tcp_out.c **** #endif /* TCP_CHECKSUM_ON_COPY */
 639:c:/Users/Black_Life/STM32Cube/Repository/STM32Cube_FW_F4_V1.26.2/Middlewares/Third_Party/LwIP/src/core\tcp_out.c ****       /* reference the non-volatile payload data */
 640:c:/Users/Black_Life/STM32Cube/Repository/STM32Cube_FW_F4_V1.26.2/Middlewares/Third_Party/LwIP/src/core\tcp_out.c ****       ((struct pbuf_rom *)p2)->payload = (const u8_t *)arg + pos;
 641:c:/Users/Black_Life/STM32Cube/Repository/STM32Cube_FW_F4_V1.26.2/Middlewares/Third_Party/LwIP/src/core\tcp_out.c **** 
 642:c:/Users/Black_Life/STM32Cube/Repository/STM32Cube_FW_F4_V1.26.2/Middlewares/Third_Party/LwIP/src/core\tcp_out.c ****       /* Second, allocate a pbuf for the headers. */
 643:c:/Users/Black_Life/STM32Cube/Repository/STM32Cube_FW_F4_V1.26.2/Middlewares/Third_Party/LwIP/src/core\tcp_out.c ****       if ((p = pbuf_alloc(PBUF_TRANSPORT, optlen, PBUF_RAM)) == NULL) {
 644:c:/Users/Black_Life/STM32Cube/Repository/STM32Cube_FW_F4_V1.26.2/Middlewares/Third_Party/LwIP/src/core\tcp_out.c ****         /* If allocation fails, we have to deallocate the data pbuf as
 645:c:/Users/Black_Life/STM32Cube/Repository/STM32Cube_FW_F4_V1.26.2/Middlewares/Third_Party/LwIP/src/core\tcp_out.c ****          * well. */
 646:c:/Users/Black_Life/STM32Cube/Repository/STM32Cube_FW_F4_V1.26.2/Middlewares/Third_Party/LwIP/src/core\tcp_out.c ****         pbuf_free(p2);
 647:c:/Users/Black_Life/STM32Cube/Repository/STM32Cube_FW_F4_V1.26.2/Middlewares/Third_Party/LwIP/src/core\tcp_out.c ****         LWIP_DEBUGF(TCP_OUTPUT_DEBUG | LWIP_DBG_LEVEL_SERIOUS, ("tcp_write: could not allocate memo
 648:c:/Users/Black_Life/STM32Cube/Repository/STM32Cube_FW_F4_V1.26.2/Middlewares/Third_Party/LwIP/src/core\tcp_out.c ****         goto memerr;
 649:c:/Users/Black_Life/STM32Cube/Repository/STM32Cube_FW_F4_V1.26.2/Middlewares/Third_Party/LwIP/src/core\tcp_out.c ****       }
 650:c:/Users/Black_Life/STM32Cube/Repository/STM32Cube_FW_F4_V1.26.2/Middlewares/Third_Party/LwIP/src/core\tcp_out.c ****       /* Concatenate the headers and data pbufs together. */
 651:c:/Users/Black_Life/STM32Cube/Repository/STM32Cube_FW_F4_V1.26.2/Middlewares/Third_Party/LwIP/src/core\tcp_out.c ****       pbuf_cat(p/*header*/, p2/*data*/);
 652:c:/Users/Black_Life/STM32Cube/Repository/STM32Cube_FW_F4_V1.26.2/Middlewares/Third_Party/LwIP/src/core\tcp_out.c ****     }
 653:c:/Users/Black_Life/STM32Cube/Repository/STM32Cube_FW_F4_V1.26.2/Middlewares/Third_Party/LwIP/src/core\tcp_out.c **** 
 654:c:/Users/Black_Life/STM32Cube/Repository/STM32Cube_FW_F4_V1.26.2/Middlewares/Third_Party/LwIP/src/core\tcp_out.c ****     queuelen += pbuf_clen(p);
 655:c:/Users/Black_Life/STM32Cube/Repository/STM32Cube_FW_F4_V1.26.2/Middlewares/Third_Party/LwIP/src/core\tcp_out.c **** 
 656:c:/Users/Black_Life/STM32Cube/Repository/STM32Cube_FW_F4_V1.26.2/Middlewares/Third_Party/LwIP/src/core\tcp_out.c ****     /* Now that there are more segments queued, we check again if the
 657:c:/Users/Black_Life/STM32Cube/Repository/STM32Cube_FW_F4_V1.26.2/Middlewares/Third_Party/LwIP/src/core\tcp_out.c ****      * length of the queue exceeds the configured maximum or
 658:c:/Users/Black_Life/STM32Cube/Repository/STM32Cube_FW_F4_V1.26.2/Middlewares/Third_Party/LwIP/src/core\tcp_out.c ****      * overflows. */
 659:c:/Users/Black_Life/STM32Cube/Repository/STM32Cube_FW_F4_V1.26.2/Middlewares/Third_Party/LwIP/src/core\tcp_out.c ****     if (queuelen > LWIP_MIN(TCP_SND_QUEUELEN, TCP_SNDQUEUELEN_OVERFLOW)) {
 660:c:/Users/Black_Life/STM32Cube/Repository/STM32Cube_FW_F4_V1.26.2/Middlewares/Third_Party/LwIP/src/core\tcp_out.c ****       LWIP_DEBUGF(TCP_OUTPUT_DEBUG | LWIP_DBG_LEVEL_SERIOUS, ("tcp_write: queue too long %"U16_F" (
 661:c:/Users/Black_Life/STM32Cube/Repository/STM32Cube_FW_F4_V1.26.2/Middlewares/Third_Party/LwIP/src/core\tcp_out.c ****                   queuelen, (int)TCP_SND_QUEUELEN));
 662:c:/Users/Black_Life/STM32Cube/Repository/STM32Cube_FW_F4_V1.26.2/Middlewares/Third_Party/LwIP/src/core\tcp_out.c ****       pbuf_free(p);
 663:c:/Users/Black_Life/STM32Cube/Repository/STM32Cube_FW_F4_V1.26.2/Middlewares/Third_Party/LwIP/src/core\tcp_out.c ****       goto memerr;
 664:c:/Users/Black_Life/STM32Cube/Repository/STM32Cube_FW_F4_V1.26.2/Middlewares/Third_Party/LwIP/src/core\tcp_out.c ****     }
 665:c:/Users/Black_Life/STM32Cube/Repository/STM32Cube_FW_F4_V1.26.2/Middlewares/Third_Party/LwIP/src/core\tcp_out.c **** 
 666:c:/Users/Black_Life/STM32Cube/Repository/STM32Cube_FW_F4_V1.26.2/Middlewares/Third_Party/LwIP/src/core\tcp_out.c ****     if ((seg = tcp_create_segment(pcb, p, 0, pcb->snd_lbb + pos, optflags)) == NULL) {
 667:c:/Users/Black_Life/STM32Cube/Repository/STM32Cube_FW_F4_V1.26.2/Middlewares/Third_Party/LwIP/src/core\tcp_out.c ****       goto memerr;
 668:c:/Users/Black_Life/STM32Cube/Repository/STM32Cube_FW_F4_V1.26.2/Middlewares/Third_Party/LwIP/src/core\tcp_out.c ****     }
 669:c:/Users/Black_Life/STM32Cube/Repository/STM32Cube_FW_F4_V1.26.2/Middlewares/Third_Party/LwIP/src/core\tcp_out.c **** #if TCP_OVERSIZE_DBGCHECK
 670:c:/Users/Black_Life/STM32Cube/Repository/STM32Cube_FW_F4_V1.26.2/Middlewares/Third_Party/LwIP/src/core\tcp_out.c ****     seg->oversize_left = oversize;
 671:c:/Users/Black_Life/STM32Cube/Repository/STM32Cube_FW_F4_V1.26.2/Middlewares/Third_Party/LwIP/src/core\tcp_out.c **** #endif /* TCP_OVERSIZE_DBGCHECK */
 672:c:/Users/Black_Life/STM32Cube/Repository/STM32Cube_FW_F4_V1.26.2/Middlewares/Third_Party/LwIP/src/core\tcp_out.c **** #if TCP_CHECKSUM_ON_COPY
 673:c:/Users/Black_Life/STM32Cube/Repository/STM32Cube_FW_F4_V1.26.2/Middlewares/Third_Party/LwIP/src/core\tcp_out.c ****     seg->chksum = chksum;
 674:c:/Users/Black_Life/STM32Cube/Repository/STM32Cube_FW_F4_V1.26.2/Middlewares/Third_Party/LwIP/src/core\tcp_out.c ****     seg->chksum_swapped = chksum_swapped;
 675:c:/Users/Black_Life/STM32Cube/Repository/STM32Cube_FW_F4_V1.26.2/Middlewares/Third_Party/LwIP/src/core\tcp_out.c ****     seg->flags |= TF_SEG_DATA_CHECKSUMMED;
 676:c:/Users/Black_Life/STM32Cube/Repository/STM32Cube_FW_F4_V1.26.2/Middlewares/Third_Party/LwIP/src/core\tcp_out.c **** #endif /* TCP_CHECKSUM_ON_COPY */
 677:c:/Users/Black_Life/STM32Cube/Repository/STM32Cube_FW_F4_V1.26.2/Middlewares/Third_Party/LwIP/src/core\tcp_out.c **** 
 678:c:/Users/Black_Life/STM32Cube/Repository/STM32Cube_FW_F4_V1.26.2/Middlewares/Third_Party/LwIP/src/core\tcp_out.c ****     /* first segment of to-be-queued data? */
 679:c:/Users/Black_Life/STM32Cube/Repository/STM32Cube_FW_F4_V1.26.2/Middlewares/Third_Party/LwIP/src/core\tcp_out.c ****     if (queue == NULL) {
 680:c:/Users/Black_Life/STM32Cube/Repository/STM32Cube_FW_F4_V1.26.2/Middlewares/Third_Party/LwIP/src/core\tcp_out.c ****       queue = seg;
 681:c:/Users/Black_Life/STM32Cube/Repository/STM32Cube_FW_F4_V1.26.2/Middlewares/Third_Party/LwIP/src/core\tcp_out.c ****     } else {
 682:c:/Users/Black_Life/STM32Cube/Repository/STM32Cube_FW_F4_V1.26.2/Middlewares/Third_Party/LwIP/src/core\tcp_out.c ****       /* Attach the segment to the end of the queued segments */
 683:c:/Users/Black_Life/STM32Cube/Repository/STM32Cube_FW_F4_V1.26.2/Middlewares/Third_Party/LwIP/src/core\tcp_out.c ****       LWIP_ASSERT("prev_seg != NULL", prev_seg != NULL);
ARM GAS  C:\Users\BLACK_~1\AppData\Local\Temp\ccsw9P1a.s 			page 18


 684:c:/Users/Black_Life/STM32Cube/Repository/STM32Cube_FW_F4_V1.26.2/Middlewares/Third_Party/LwIP/src/core\tcp_out.c ****       prev_seg->next = seg;
 685:c:/Users/Black_Life/STM32Cube/Repository/STM32Cube_FW_F4_V1.26.2/Middlewares/Third_Party/LwIP/src/core\tcp_out.c ****     }
 686:c:/Users/Black_Life/STM32Cube/Repository/STM32Cube_FW_F4_V1.26.2/Middlewares/Third_Party/LwIP/src/core\tcp_out.c ****     /* remember last segment of to-be-queued data for next iteration */
 687:c:/Users/Black_Life/STM32Cube/Repository/STM32Cube_FW_F4_V1.26.2/Middlewares/Third_Party/LwIP/src/core\tcp_out.c ****     prev_seg = seg;
 688:c:/Users/Black_Life/STM32Cube/Repository/STM32Cube_FW_F4_V1.26.2/Middlewares/Third_Party/LwIP/src/core\tcp_out.c **** 
 689:c:/Users/Black_Life/STM32Cube/Repository/STM32Cube_FW_F4_V1.26.2/Middlewares/Third_Party/LwIP/src/core\tcp_out.c ****     LWIP_DEBUGF(TCP_OUTPUT_DEBUG | LWIP_DBG_TRACE, ("tcp_write: queueing %"U32_F":%"U32_F"\n",
 690:c:/Users/Black_Life/STM32Cube/Repository/STM32Cube_FW_F4_V1.26.2/Middlewares/Third_Party/LwIP/src/core\tcp_out.c ****                 lwip_ntohl(seg->tcphdr->seqno),
 691:c:/Users/Black_Life/STM32Cube/Repository/STM32Cube_FW_F4_V1.26.2/Middlewares/Third_Party/LwIP/src/core\tcp_out.c ****                 lwip_ntohl(seg->tcphdr->seqno) + TCP_TCPLEN(seg)));
 692:c:/Users/Black_Life/STM32Cube/Repository/STM32Cube_FW_F4_V1.26.2/Middlewares/Third_Party/LwIP/src/core\tcp_out.c **** 
 693:c:/Users/Black_Life/STM32Cube/Repository/STM32Cube_FW_F4_V1.26.2/Middlewares/Third_Party/LwIP/src/core\tcp_out.c ****     pos += seglen;
 694:c:/Users/Black_Life/STM32Cube/Repository/STM32Cube_FW_F4_V1.26.2/Middlewares/Third_Party/LwIP/src/core\tcp_out.c ****   }
 695:c:/Users/Black_Life/STM32Cube/Repository/STM32Cube_FW_F4_V1.26.2/Middlewares/Third_Party/LwIP/src/core\tcp_out.c **** 
 696:c:/Users/Black_Life/STM32Cube/Repository/STM32Cube_FW_F4_V1.26.2/Middlewares/Third_Party/LwIP/src/core\tcp_out.c ****   /*
 697:c:/Users/Black_Life/STM32Cube/Repository/STM32Cube_FW_F4_V1.26.2/Middlewares/Third_Party/LwIP/src/core\tcp_out.c ****    * All three segmentation phases were successful. We can commit the
 698:c:/Users/Black_Life/STM32Cube/Repository/STM32Cube_FW_F4_V1.26.2/Middlewares/Third_Party/LwIP/src/core\tcp_out.c ****    * transaction.
 699:c:/Users/Black_Life/STM32Cube/Repository/STM32Cube_FW_F4_V1.26.2/Middlewares/Third_Party/LwIP/src/core\tcp_out.c ****    */
 700:c:/Users/Black_Life/STM32Cube/Repository/STM32Cube_FW_F4_V1.26.2/Middlewares/Third_Party/LwIP/src/core\tcp_out.c **** #if TCP_OVERSIZE_DBGCHECK
 701:c:/Users/Black_Life/STM32Cube/Repository/STM32Cube_FW_F4_V1.26.2/Middlewares/Third_Party/LwIP/src/core\tcp_out.c ****   if ((last_unsent != NULL) && (oversize_add != 0)) {
 702:c:/Users/Black_Life/STM32Cube/Repository/STM32Cube_FW_F4_V1.26.2/Middlewares/Third_Party/LwIP/src/core\tcp_out.c ****     last_unsent->oversize_left += oversize_add;
 703:c:/Users/Black_Life/STM32Cube/Repository/STM32Cube_FW_F4_V1.26.2/Middlewares/Third_Party/LwIP/src/core\tcp_out.c ****   }
 704:c:/Users/Black_Life/STM32Cube/Repository/STM32Cube_FW_F4_V1.26.2/Middlewares/Third_Party/LwIP/src/core\tcp_out.c **** #endif /* TCP_OVERSIZE_DBGCHECK */
 705:c:/Users/Black_Life/STM32Cube/Repository/STM32Cube_FW_F4_V1.26.2/Middlewares/Third_Party/LwIP/src/core\tcp_out.c **** 
 706:c:/Users/Black_Life/STM32Cube/Repository/STM32Cube_FW_F4_V1.26.2/Middlewares/Third_Party/LwIP/src/core\tcp_out.c ****   /*
 707:c:/Users/Black_Life/STM32Cube/Repository/STM32Cube_FW_F4_V1.26.2/Middlewares/Third_Party/LwIP/src/core\tcp_out.c ****    * Phase 1: If data has been added to the preallocated tail of
 708:c:/Users/Black_Life/STM32Cube/Repository/STM32Cube_FW_F4_V1.26.2/Middlewares/Third_Party/LwIP/src/core\tcp_out.c ****    * last_unsent, we update the length fields of the pbuf chain.
 709:c:/Users/Black_Life/STM32Cube/Repository/STM32Cube_FW_F4_V1.26.2/Middlewares/Third_Party/LwIP/src/core\tcp_out.c ****    */
 710:c:/Users/Black_Life/STM32Cube/Repository/STM32Cube_FW_F4_V1.26.2/Middlewares/Third_Party/LwIP/src/core\tcp_out.c **** #if TCP_OVERSIZE
 711:c:/Users/Black_Life/STM32Cube/Repository/STM32Cube_FW_F4_V1.26.2/Middlewares/Third_Party/LwIP/src/core\tcp_out.c ****   if (oversize_used > 0) {
 712:c:/Users/Black_Life/STM32Cube/Repository/STM32Cube_FW_F4_V1.26.2/Middlewares/Third_Party/LwIP/src/core\tcp_out.c ****     struct pbuf *p;
 713:c:/Users/Black_Life/STM32Cube/Repository/STM32Cube_FW_F4_V1.26.2/Middlewares/Third_Party/LwIP/src/core\tcp_out.c ****     /* Bump tot_len of whole chain, len of tail */
 714:c:/Users/Black_Life/STM32Cube/Repository/STM32Cube_FW_F4_V1.26.2/Middlewares/Third_Party/LwIP/src/core\tcp_out.c ****     for (p = last_unsent->p; p; p = p->next) {
 715:c:/Users/Black_Life/STM32Cube/Repository/STM32Cube_FW_F4_V1.26.2/Middlewares/Third_Party/LwIP/src/core\tcp_out.c ****       p->tot_len += oversize_used;
 716:c:/Users/Black_Life/STM32Cube/Repository/STM32Cube_FW_F4_V1.26.2/Middlewares/Third_Party/LwIP/src/core\tcp_out.c ****       if (p->next == NULL) {
 717:c:/Users/Black_Life/STM32Cube/Repository/STM32Cube_FW_F4_V1.26.2/Middlewares/Third_Party/LwIP/src/core\tcp_out.c ****         TCP_DATA_COPY((char *)p->payload + p->len, arg, oversize_used, last_unsent);
 718:c:/Users/Black_Life/STM32Cube/Repository/STM32Cube_FW_F4_V1.26.2/Middlewares/Third_Party/LwIP/src/core\tcp_out.c ****         p->len += oversize_used;
 719:c:/Users/Black_Life/STM32Cube/Repository/STM32Cube_FW_F4_V1.26.2/Middlewares/Third_Party/LwIP/src/core\tcp_out.c ****       }
 720:c:/Users/Black_Life/STM32Cube/Repository/STM32Cube_FW_F4_V1.26.2/Middlewares/Third_Party/LwIP/src/core\tcp_out.c ****     }
 721:c:/Users/Black_Life/STM32Cube/Repository/STM32Cube_FW_F4_V1.26.2/Middlewares/Third_Party/LwIP/src/core\tcp_out.c ****     last_unsent->len += oversize_used;
 722:c:/Users/Black_Life/STM32Cube/Repository/STM32Cube_FW_F4_V1.26.2/Middlewares/Third_Party/LwIP/src/core\tcp_out.c **** #if TCP_OVERSIZE_DBGCHECK
 723:c:/Users/Black_Life/STM32Cube/Repository/STM32Cube_FW_F4_V1.26.2/Middlewares/Third_Party/LwIP/src/core\tcp_out.c ****     LWIP_ASSERT("last_unsent->oversize_left >= oversize_used",
 724:c:/Users/Black_Life/STM32Cube/Repository/STM32Cube_FW_F4_V1.26.2/Middlewares/Third_Party/LwIP/src/core\tcp_out.c ****                 last_unsent->oversize_left >= oversize_used);
 725:c:/Users/Black_Life/STM32Cube/Repository/STM32Cube_FW_F4_V1.26.2/Middlewares/Third_Party/LwIP/src/core\tcp_out.c ****     last_unsent->oversize_left -= oversize_used;
 726:c:/Users/Black_Life/STM32Cube/Repository/STM32Cube_FW_F4_V1.26.2/Middlewares/Third_Party/LwIP/src/core\tcp_out.c **** #endif /* TCP_OVERSIZE_DBGCHECK */
 727:c:/Users/Black_Life/STM32Cube/Repository/STM32Cube_FW_F4_V1.26.2/Middlewares/Third_Party/LwIP/src/core\tcp_out.c ****   }
 728:c:/Users/Black_Life/STM32Cube/Repository/STM32Cube_FW_F4_V1.26.2/Middlewares/Third_Party/LwIP/src/core\tcp_out.c ****   pcb->unsent_oversize = oversize;
 729:c:/Users/Black_Life/STM32Cube/Repository/STM32Cube_FW_F4_V1.26.2/Middlewares/Third_Party/LwIP/src/core\tcp_out.c **** #endif /* TCP_OVERSIZE */
 730:c:/Users/Black_Life/STM32Cube/Repository/STM32Cube_FW_F4_V1.26.2/Middlewares/Third_Party/LwIP/src/core\tcp_out.c **** 
 731:c:/Users/Black_Life/STM32Cube/Repository/STM32Cube_FW_F4_V1.26.2/Middlewares/Third_Party/LwIP/src/core\tcp_out.c ****   /*
 732:c:/Users/Black_Life/STM32Cube/Repository/STM32Cube_FW_F4_V1.26.2/Middlewares/Third_Party/LwIP/src/core\tcp_out.c ****    * Phase 2: concat_p can be concatenated onto last_unsent->p, unless we
 733:c:/Users/Black_Life/STM32Cube/Repository/STM32Cube_FW_F4_V1.26.2/Middlewares/Third_Party/LwIP/src/core\tcp_out.c ****    * determined that the last ROM pbuf can be extended to include the new data.
 734:c:/Users/Black_Life/STM32Cube/Repository/STM32Cube_FW_F4_V1.26.2/Middlewares/Third_Party/LwIP/src/core\tcp_out.c ****    */
 735:c:/Users/Black_Life/STM32Cube/Repository/STM32Cube_FW_F4_V1.26.2/Middlewares/Third_Party/LwIP/src/core\tcp_out.c ****   if (concat_p != NULL) {
 736:c:/Users/Black_Life/STM32Cube/Repository/STM32Cube_FW_F4_V1.26.2/Middlewares/Third_Party/LwIP/src/core\tcp_out.c ****     LWIP_ASSERT("tcp_write: cannot concatenate when pcb->unsent is empty",
 737:c:/Users/Black_Life/STM32Cube/Repository/STM32Cube_FW_F4_V1.26.2/Middlewares/Third_Party/LwIP/src/core\tcp_out.c ****                 (last_unsent != NULL));
 738:c:/Users/Black_Life/STM32Cube/Repository/STM32Cube_FW_F4_V1.26.2/Middlewares/Third_Party/LwIP/src/core\tcp_out.c ****     pbuf_cat(last_unsent->p, concat_p);
 739:c:/Users/Black_Life/STM32Cube/Repository/STM32Cube_FW_F4_V1.26.2/Middlewares/Third_Party/LwIP/src/core\tcp_out.c ****     last_unsent->len += concat_p->tot_len;
 740:c:/Users/Black_Life/STM32Cube/Repository/STM32Cube_FW_F4_V1.26.2/Middlewares/Third_Party/LwIP/src/core\tcp_out.c ****   } else if (extendlen > 0) {
ARM GAS  C:\Users\BLACK_~1\AppData\Local\Temp\ccsw9P1a.s 			page 19


 741:c:/Users/Black_Life/STM32Cube/Repository/STM32Cube_FW_F4_V1.26.2/Middlewares/Third_Party/LwIP/src/core\tcp_out.c ****     struct pbuf *p;
 742:c:/Users/Black_Life/STM32Cube/Repository/STM32Cube_FW_F4_V1.26.2/Middlewares/Third_Party/LwIP/src/core\tcp_out.c ****     LWIP_ASSERT("tcp_write: extension of reference requires reference",
 743:c:/Users/Black_Life/STM32Cube/Repository/STM32Cube_FW_F4_V1.26.2/Middlewares/Third_Party/LwIP/src/core\tcp_out.c ****                 last_unsent != NULL && last_unsent->p != NULL);
 744:c:/Users/Black_Life/STM32Cube/Repository/STM32Cube_FW_F4_V1.26.2/Middlewares/Third_Party/LwIP/src/core\tcp_out.c ****     for (p = last_unsent->p; p->next != NULL; p = p->next) {
 745:c:/Users/Black_Life/STM32Cube/Repository/STM32Cube_FW_F4_V1.26.2/Middlewares/Third_Party/LwIP/src/core\tcp_out.c ****       p->tot_len += extendlen;
 746:c:/Users/Black_Life/STM32Cube/Repository/STM32Cube_FW_F4_V1.26.2/Middlewares/Third_Party/LwIP/src/core\tcp_out.c ****     }
 747:c:/Users/Black_Life/STM32Cube/Repository/STM32Cube_FW_F4_V1.26.2/Middlewares/Third_Party/LwIP/src/core\tcp_out.c ****     p->tot_len += extendlen;
 748:c:/Users/Black_Life/STM32Cube/Repository/STM32Cube_FW_F4_V1.26.2/Middlewares/Third_Party/LwIP/src/core\tcp_out.c ****     p->len += extendlen;
 749:c:/Users/Black_Life/STM32Cube/Repository/STM32Cube_FW_F4_V1.26.2/Middlewares/Third_Party/LwIP/src/core\tcp_out.c ****     last_unsent->len += extendlen;
 750:c:/Users/Black_Life/STM32Cube/Repository/STM32Cube_FW_F4_V1.26.2/Middlewares/Third_Party/LwIP/src/core\tcp_out.c ****   }
 751:c:/Users/Black_Life/STM32Cube/Repository/STM32Cube_FW_F4_V1.26.2/Middlewares/Third_Party/LwIP/src/core\tcp_out.c **** 
 752:c:/Users/Black_Life/STM32Cube/Repository/STM32Cube_FW_F4_V1.26.2/Middlewares/Third_Party/LwIP/src/core\tcp_out.c **** #if TCP_CHECKSUM_ON_COPY
 753:c:/Users/Black_Life/STM32Cube/Repository/STM32Cube_FW_F4_V1.26.2/Middlewares/Third_Party/LwIP/src/core\tcp_out.c ****   if (concat_chksummed) {
 754:c:/Users/Black_Life/STM32Cube/Repository/STM32Cube_FW_F4_V1.26.2/Middlewares/Third_Party/LwIP/src/core\tcp_out.c ****     LWIP_ASSERT("tcp_write: concat checksum needs concatenated data",
 755:c:/Users/Black_Life/STM32Cube/Repository/STM32Cube_FW_F4_V1.26.2/Middlewares/Third_Party/LwIP/src/core\tcp_out.c ****                 concat_p != NULL || extendlen > 0);
 756:c:/Users/Black_Life/STM32Cube/Repository/STM32Cube_FW_F4_V1.26.2/Middlewares/Third_Party/LwIP/src/core\tcp_out.c ****     /*if concat checksumm swapped - swap it back */
 757:c:/Users/Black_Life/STM32Cube/Repository/STM32Cube_FW_F4_V1.26.2/Middlewares/Third_Party/LwIP/src/core\tcp_out.c ****     if (concat_chksum_swapped) {
 758:c:/Users/Black_Life/STM32Cube/Repository/STM32Cube_FW_F4_V1.26.2/Middlewares/Third_Party/LwIP/src/core\tcp_out.c ****       concat_chksum = SWAP_BYTES_IN_WORD(concat_chksum);
 759:c:/Users/Black_Life/STM32Cube/Repository/STM32Cube_FW_F4_V1.26.2/Middlewares/Third_Party/LwIP/src/core\tcp_out.c ****     }
 760:c:/Users/Black_Life/STM32Cube/Repository/STM32Cube_FW_F4_V1.26.2/Middlewares/Third_Party/LwIP/src/core\tcp_out.c ****     tcp_seg_add_chksum(concat_chksum, concat_chksummed, &last_unsent->chksum,
 761:c:/Users/Black_Life/STM32Cube/Repository/STM32Cube_FW_F4_V1.26.2/Middlewares/Third_Party/LwIP/src/core\tcp_out.c ****                        &last_unsent->chksum_swapped);
 762:c:/Users/Black_Life/STM32Cube/Repository/STM32Cube_FW_F4_V1.26.2/Middlewares/Third_Party/LwIP/src/core\tcp_out.c ****     last_unsent->flags |= TF_SEG_DATA_CHECKSUMMED;
 763:c:/Users/Black_Life/STM32Cube/Repository/STM32Cube_FW_F4_V1.26.2/Middlewares/Third_Party/LwIP/src/core\tcp_out.c ****   }
 764:c:/Users/Black_Life/STM32Cube/Repository/STM32Cube_FW_F4_V1.26.2/Middlewares/Third_Party/LwIP/src/core\tcp_out.c **** #endif /* TCP_CHECKSUM_ON_COPY */
 765:c:/Users/Black_Life/STM32Cube/Repository/STM32Cube_FW_F4_V1.26.2/Middlewares/Third_Party/LwIP/src/core\tcp_out.c **** 
 766:c:/Users/Black_Life/STM32Cube/Repository/STM32Cube_FW_F4_V1.26.2/Middlewares/Third_Party/LwIP/src/core\tcp_out.c ****   /*
 767:c:/Users/Black_Life/STM32Cube/Repository/STM32Cube_FW_F4_V1.26.2/Middlewares/Third_Party/LwIP/src/core\tcp_out.c ****    * Phase 3: Append queue to pcb->unsent. Queue may be NULL, but that
 768:c:/Users/Black_Life/STM32Cube/Repository/STM32Cube_FW_F4_V1.26.2/Middlewares/Third_Party/LwIP/src/core\tcp_out.c ****    * is harmless
 769:c:/Users/Black_Life/STM32Cube/Repository/STM32Cube_FW_F4_V1.26.2/Middlewares/Third_Party/LwIP/src/core\tcp_out.c ****    */
 770:c:/Users/Black_Life/STM32Cube/Repository/STM32Cube_FW_F4_V1.26.2/Middlewares/Third_Party/LwIP/src/core\tcp_out.c ****   if (last_unsent == NULL) {
 771:c:/Users/Black_Life/STM32Cube/Repository/STM32Cube_FW_F4_V1.26.2/Middlewares/Third_Party/LwIP/src/core\tcp_out.c ****     pcb->unsent = queue;
 772:c:/Users/Black_Life/STM32Cube/Repository/STM32Cube_FW_F4_V1.26.2/Middlewares/Third_Party/LwIP/src/core\tcp_out.c ****   } else {
 773:c:/Users/Black_Life/STM32Cube/Repository/STM32Cube_FW_F4_V1.26.2/Middlewares/Third_Party/LwIP/src/core\tcp_out.c ****     last_unsent->next = queue;
 774:c:/Users/Black_Life/STM32Cube/Repository/STM32Cube_FW_F4_V1.26.2/Middlewares/Third_Party/LwIP/src/core\tcp_out.c ****   }
 775:c:/Users/Black_Life/STM32Cube/Repository/STM32Cube_FW_F4_V1.26.2/Middlewares/Third_Party/LwIP/src/core\tcp_out.c **** 
 776:c:/Users/Black_Life/STM32Cube/Repository/STM32Cube_FW_F4_V1.26.2/Middlewares/Third_Party/LwIP/src/core\tcp_out.c ****   /*
 777:c:/Users/Black_Life/STM32Cube/Repository/STM32Cube_FW_F4_V1.26.2/Middlewares/Third_Party/LwIP/src/core\tcp_out.c ****    * Finally update the pcb state.
 778:c:/Users/Black_Life/STM32Cube/Repository/STM32Cube_FW_F4_V1.26.2/Middlewares/Third_Party/LwIP/src/core\tcp_out.c ****    */
 779:c:/Users/Black_Life/STM32Cube/Repository/STM32Cube_FW_F4_V1.26.2/Middlewares/Third_Party/LwIP/src/core\tcp_out.c ****   pcb->snd_lbb += len;
 780:c:/Users/Black_Life/STM32Cube/Repository/STM32Cube_FW_F4_V1.26.2/Middlewares/Third_Party/LwIP/src/core\tcp_out.c ****   pcb->snd_buf -= len;
 781:c:/Users/Black_Life/STM32Cube/Repository/STM32Cube_FW_F4_V1.26.2/Middlewares/Third_Party/LwIP/src/core\tcp_out.c ****   pcb->snd_queuelen = queuelen;
 782:c:/Users/Black_Life/STM32Cube/Repository/STM32Cube_FW_F4_V1.26.2/Middlewares/Third_Party/LwIP/src/core\tcp_out.c **** 
 783:c:/Users/Black_Life/STM32Cube/Repository/STM32Cube_FW_F4_V1.26.2/Middlewares/Third_Party/LwIP/src/core\tcp_out.c ****   LWIP_DEBUGF(TCP_QLEN_DEBUG, ("tcp_write: %"S16_F" (after enqueued)\n",
 784:c:/Users/Black_Life/STM32Cube/Repository/STM32Cube_FW_F4_V1.26.2/Middlewares/Third_Party/LwIP/src/core\tcp_out.c ****                                pcb->snd_queuelen));
 785:c:/Users/Black_Life/STM32Cube/Repository/STM32Cube_FW_F4_V1.26.2/Middlewares/Third_Party/LwIP/src/core\tcp_out.c ****   if (pcb->snd_queuelen != 0) {
 786:c:/Users/Black_Life/STM32Cube/Repository/STM32Cube_FW_F4_V1.26.2/Middlewares/Third_Party/LwIP/src/core\tcp_out.c ****     LWIP_ASSERT("tcp_write: valid queue length",
 787:c:/Users/Black_Life/STM32Cube/Repository/STM32Cube_FW_F4_V1.26.2/Middlewares/Third_Party/LwIP/src/core\tcp_out.c ****                 pcb->unacked != NULL || pcb->unsent != NULL);
 788:c:/Users/Black_Life/STM32Cube/Repository/STM32Cube_FW_F4_V1.26.2/Middlewares/Third_Party/LwIP/src/core\tcp_out.c ****   }
 789:c:/Users/Black_Life/STM32Cube/Repository/STM32Cube_FW_F4_V1.26.2/Middlewares/Third_Party/LwIP/src/core\tcp_out.c **** 
 790:c:/Users/Black_Life/STM32Cube/Repository/STM32Cube_FW_F4_V1.26.2/Middlewares/Third_Party/LwIP/src/core\tcp_out.c ****   /* Set the PSH flag in the last segment that we enqueued. */
 791:c:/Users/Black_Life/STM32Cube/Repository/STM32Cube_FW_F4_V1.26.2/Middlewares/Third_Party/LwIP/src/core\tcp_out.c ****   if (seg != NULL && seg->tcphdr != NULL && ((apiflags & TCP_WRITE_FLAG_MORE) == 0)) {
 792:c:/Users/Black_Life/STM32Cube/Repository/STM32Cube_FW_F4_V1.26.2/Middlewares/Third_Party/LwIP/src/core\tcp_out.c ****     TCPH_SET_FLAG(seg->tcphdr, TCP_PSH);
 793:c:/Users/Black_Life/STM32Cube/Repository/STM32Cube_FW_F4_V1.26.2/Middlewares/Third_Party/LwIP/src/core\tcp_out.c ****   }
 794:c:/Users/Black_Life/STM32Cube/Repository/STM32Cube_FW_F4_V1.26.2/Middlewares/Third_Party/LwIP/src/core\tcp_out.c **** 
 795:c:/Users/Black_Life/STM32Cube/Repository/STM32Cube_FW_F4_V1.26.2/Middlewares/Third_Party/LwIP/src/core\tcp_out.c ****   return ERR_OK;
 796:c:/Users/Black_Life/STM32Cube/Repository/STM32Cube_FW_F4_V1.26.2/Middlewares/Third_Party/LwIP/src/core\tcp_out.c **** memerr:
 797:c:/Users/Black_Life/STM32Cube/Repository/STM32Cube_FW_F4_V1.26.2/Middlewares/Third_Party/LwIP/src/core\tcp_out.c ****   tcp_set_flags(pcb, TF_NAGLEMEMERR);
ARM GAS  C:\Users\BLACK_~1\AppData\Local\Temp\ccsw9P1a.s 			page 20


 798:c:/Users/Black_Life/STM32Cube/Repository/STM32Cube_FW_F4_V1.26.2/Middlewares/Third_Party/LwIP/src/core\tcp_out.c ****   TCP_STATS_INC(tcp.memerr);
 799:c:/Users/Black_Life/STM32Cube/Repository/STM32Cube_FW_F4_V1.26.2/Middlewares/Third_Party/LwIP/src/core\tcp_out.c **** 
 800:c:/Users/Black_Life/STM32Cube/Repository/STM32Cube_FW_F4_V1.26.2/Middlewares/Third_Party/LwIP/src/core\tcp_out.c ****   if (concat_p != NULL) {
 801:c:/Users/Black_Life/STM32Cube/Repository/STM32Cube_FW_F4_V1.26.2/Middlewares/Third_Party/LwIP/src/core\tcp_out.c ****     pbuf_free(concat_p);
 802:c:/Users/Black_Life/STM32Cube/Repository/STM32Cube_FW_F4_V1.26.2/Middlewares/Third_Party/LwIP/src/core\tcp_out.c ****   }
 803:c:/Users/Black_Life/STM32Cube/Repository/STM32Cube_FW_F4_V1.26.2/Middlewares/Third_Party/LwIP/src/core\tcp_out.c ****   if (queue != NULL) {
 804:c:/Users/Black_Life/STM32Cube/Repository/STM32Cube_FW_F4_V1.26.2/Middlewares/Third_Party/LwIP/src/core\tcp_out.c ****     tcp_segs_free(queue);
 805:c:/Users/Black_Life/STM32Cube/Repository/STM32Cube_FW_F4_V1.26.2/Middlewares/Third_Party/LwIP/src/core\tcp_out.c ****   }
 806:c:/Users/Black_Life/STM32Cube/Repository/STM32Cube_FW_F4_V1.26.2/Middlewares/Third_Party/LwIP/src/core\tcp_out.c ****   if (pcb->snd_queuelen != 0) {
 807:c:/Users/Black_Life/STM32Cube/Repository/STM32Cube_FW_F4_V1.26.2/Middlewares/Third_Party/LwIP/src/core\tcp_out.c ****     LWIP_ASSERT("tcp_write: valid queue length", pcb->unacked != NULL ||
 808:c:/Users/Black_Life/STM32Cube/Repository/STM32Cube_FW_F4_V1.26.2/Middlewares/Third_Party/LwIP/src/core\tcp_out.c ****                 pcb->unsent != NULL);
 809:c:/Users/Black_Life/STM32Cube/Repository/STM32Cube_FW_F4_V1.26.2/Middlewares/Third_Party/LwIP/src/core\tcp_out.c ****   }
 810:c:/Users/Black_Life/STM32Cube/Repository/STM32Cube_FW_F4_V1.26.2/Middlewares/Third_Party/LwIP/src/core\tcp_out.c ****   LWIP_DEBUGF(TCP_QLEN_DEBUG | LWIP_DBG_STATE, ("tcp_write: %"S16_F" (with mem err)\n", pcb->snd_qu
 811:c:/Users/Black_Life/STM32Cube/Repository/STM32Cube_FW_F4_V1.26.2/Middlewares/Third_Party/LwIP/src/core\tcp_out.c ****   return ERR_MEM;
 812:c:/Users/Black_Life/STM32Cube/Repository/STM32Cube_FW_F4_V1.26.2/Middlewares/Third_Party/LwIP/src/core\tcp_out.c **** }
 813:c:/Users/Black_Life/STM32Cube/Repository/STM32Cube_FW_F4_V1.26.2/Middlewares/Third_Party/LwIP/src/core\tcp_out.c **** 
 814:c:/Users/Black_Life/STM32Cube/Repository/STM32Cube_FW_F4_V1.26.2/Middlewares/Third_Party/LwIP/src/core\tcp_out.c **** /**
 815:c:/Users/Black_Life/STM32Cube/Repository/STM32Cube_FW_F4_V1.26.2/Middlewares/Third_Party/LwIP/src/core\tcp_out.c ****  * Split segment on the head of the unsent queue.  If return is not
 816:c:/Users/Black_Life/STM32Cube/Repository/STM32Cube_FW_F4_V1.26.2/Middlewares/Third_Party/LwIP/src/core\tcp_out.c ****  * ERR_OK, existing head remains intact
 817:c:/Users/Black_Life/STM32Cube/Repository/STM32Cube_FW_F4_V1.26.2/Middlewares/Third_Party/LwIP/src/core\tcp_out.c ****  *
 818:c:/Users/Black_Life/STM32Cube/Repository/STM32Cube_FW_F4_V1.26.2/Middlewares/Third_Party/LwIP/src/core\tcp_out.c ****  * The split is accomplished by creating a new TCP segment and pbuf
 819:c:/Users/Black_Life/STM32Cube/Repository/STM32Cube_FW_F4_V1.26.2/Middlewares/Third_Party/LwIP/src/core\tcp_out.c ****  * which holds the remainder payload after the split.  The original
 820:c:/Users/Black_Life/STM32Cube/Repository/STM32Cube_FW_F4_V1.26.2/Middlewares/Third_Party/LwIP/src/core\tcp_out.c ****  * pbuf is trimmed to new length.  This allows splitting of read-only
 821:c:/Users/Black_Life/STM32Cube/Repository/STM32Cube_FW_F4_V1.26.2/Middlewares/Third_Party/LwIP/src/core\tcp_out.c ****  * pbufs
 822:c:/Users/Black_Life/STM32Cube/Repository/STM32Cube_FW_F4_V1.26.2/Middlewares/Third_Party/LwIP/src/core\tcp_out.c ****  *
 823:c:/Users/Black_Life/STM32Cube/Repository/STM32Cube_FW_F4_V1.26.2/Middlewares/Third_Party/LwIP/src/core\tcp_out.c ****  * @param pcb the tcp_pcb for which to split the unsent head
 824:c:/Users/Black_Life/STM32Cube/Repository/STM32Cube_FW_F4_V1.26.2/Middlewares/Third_Party/LwIP/src/core\tcp_out.c ****  * @param split the amount of payload to remain in the head
 825:c:/Users/Black_Life/STM32Cube/Repository/STM32Cube_FW_F4_V1.26.2/Middlewares/Third_Party/LwIP/src/core\tcp_out.c ****  */
 826:c:/Users/Black_Life/STM32Cube/Repository/STM32Cube_FW_F4_V1.26.2/Middlewares/Third_Party/LwIP/src/core\tcp_out.c **** err_t
 827:c:/Users/Black_Life/STM32Cube/Repository/STM32Cube_FW_F4_V1.26.2/Middlewares/Third_Party/LwIP/src/core\tcp_out.c **** tcp_split_unsent_seg(struct tcp_pcb *pcb, u16_t split)
 828:c:/Users/Black_Life/STM32Cube/Repository/STM32Cube_FW_F4_V1.26.2/Middlewares/Third_Party/LwIP/src/core\tcp_out.c **** {
 829:c:/Users/Black_Life/STM32Cube/Repository/STM32Cube_FW_F4_V1.26.2/Middlewares/Third_Party/LwIP/src/core\tcp_out.c ****   struct tcp_seg *seg = NULL, *useg = NULL;
 830:c:/Users/Black_Life/STM32Cube/Repository/STM32Cube_FW_F4_V1.26.2/Middlewares/Third_Party/LwIP/src/core\tcp_out.c ****   struct pbuf *p = NULL;
 831:c:/Users/Black_Life/STM32Cube/Repository/STM32Cube_FW_F4_V1.26.2/Middlewares/Third_Party/LwIP/src/core\tcp_out.c ****   u8_t optlen;
 832:c:/Users/Black_Life/STM32Cube/Repository/STM32Cube_FW_F4_V1.26.2/Middlewares/Third_Party/LwIP/src/core\tcp_out.c ****   u8_t optflags;
 833:c:/Users/Black_Life/STM32Cube/Repository/STM32Cube_FW_F4_V1.26.2/Middlewares/Third_Party/LwIP/src/core\tcp_out.c ****   u8_t split_flags;
 834:c:/Users/Black_Life/STM32Cube/Repository/STM32Cube_FW_F4_V1.26.2/Middlewares/Third_Party/LwIP/src/core\tcp_out.c ****   u8_t remainder_flags;
 835:c:/Users/Black_Life/STM32Cube/Repository/STM32Cube_FW_F4_V1.26.2/Middlewares/Third_Party/LwIP/src/core\tcp_out.c ****   u16_t remainder;
 836:c:/Users/Black_Life/STM32Cube/Repository/STM32Cube_FW_F4_V1.26.2/Middlewares/Third_Party/LwIP/src/core\tcp_out.c ****   u16_t offset;
 837:c:/Users/Black_Life/STM32Cube/Repository/STM32Cube_FW_F4_V1.26.2/Middlewares/Third_Party/LwIP/src/core\tcp_out.c **** #if TCP_CHECKSUM_ON_COPY
 838:c:/Users/Black_Life/STM32Cube/Repository/STM32Cube_FW_F4_V1.26.2/Middlewares/Third_Party/LwIP/src/core\tcp_out.c ****   u16_t chksum = 0;
 839:c:/Users/Black_Life/STM32Cube/Repository/STM32Cube_FW_F4_V1.26.2/Middlewares/Third_Party/LwIP/src/core\tcp_out.c ****   u8_t chksum_swapped = 0;
 840:c:/Users/Black_Life/STM32Cube/Repository/STM32Cube_FW_F4_V1.26.2/Middlewares/Third_Party/LwIP/src/core\tcp_out.c ****   struct pbuf *q;
 841:c:/Users/Black_Life/STM32Cube/Repository/STM32Cube_FW_F4_V1.26.2/Middlewares/Third_Party/LwIP/src/core\tcp_out.c **** #endif /* TCP_CHECKSUM_ON_COPY */
 842:c:/Users/Black_Life/STM32Cube/Repository/STM32Cube_FW_F4_V1.26.2/Middlewares/Third_Party/LwIP/src/core\tcp_out.c **** 
 843:c:/Users/Black_Life/STM32Cube/Repository/STM32Cube_FW_F4_V1.26.2/Middlewares/Third_Party/LwIP/src/core\tcp_out.c ****   LWIP_ASSERT("tcp_split_unsent_seg: invalid pcb", pcb != NULL);
 844:c:/Users/Black_Life/STM32Cube/Repository/STM32Cube_FW_F4_V1.26.2/Middlewares/Third_Party/LwIP/src/core\tcp_out.c **** 
 845:c:/Users/Black_Life/STM32Cube/Repository/STM32Cube_FW_F4_V1.26.2/Middlewares/Third_Party/LwIP/src/core\tcp_out.c ****   useg = pcb->unsent;
 846:c:/Users/Black_Life/STM32Cube/Repository/STM32Cube_FW_F4_V1.26.2/Middlewares/Third_Party/LwIP/src/core\tcp_out.c ****   if (useg == NULL) {
 847:c:/Users/Black_Life/STM32Cube/Repository/STM32Cube_FW_F4_V1.26.2/Middlewares/Third_Party/LwIP/src/core\tcp_out.c ****     return ERR_MEM;
 848:c:/Users/Black_Life/STM32Cube/Repository/STM32Cube_FW_F4_V1.26.2/Middlewares/Third_Party/LwIP/src/core\tcp_out.c ****   }
 849:c:/Users/Black_Life/STM32Cube/Repository/STM32Cube_FW_F4_V1.26.2/Middlewares/Third_Party/LwIP/src/core\tcp_out.c **** 
 850:c:/Users/Black_Life/STM32Cube/Repository/STM32Cube_FW_F4_V1.26.2/Middlewares/Third_Party/LwIP/src/core\tcp_out.c ****   if (split == 0) {
 851:c:/Users/Black_Life/STM32Cube/Repository/STM32Cube_FW_F4_V1.26.2/Middlewares/Third_Party/LwIP/src/core\tcp_out.c ****     LWIP_ASSERT("Can't split segment into length 0", 0);
 852:c:/Users/Black_Life/STM32Cube/Repository/STM32Cube_FW_F4_V1.26.2/Middlewares/Third_Party/LwIP/src/core\tcp_out.c ****     return ERR_VAL;
 853:c:/Users/Black_Life/STM32Cube/Repository/STM32Cube_FW_F4_V1.26.2/Middlewares/Third_Party/LwIP/src/core\tcp_out.c ****   }
 854:c:/Users/Black_Life/STM32Cube/Repository/STM32Cube_FW_F4_V1.26.2/Middlewares/Third_Party/LwIP/src/core\tcp_out.c **** 
ARM GAS  C:\Users\BLACK_~1\AppData\Local\Temp\ccsw9P1a.s 			page 21


 855:c:/Users/Black_Life/STM32Cube/Repository/STM32Cube_FW_F4_V1.26.2/Middlewares/Third_Party/LwIP/src/core\tcp_out.c ****   if (useg->len <= split) {
 856:c:/Users/Black_Life/STM32Cube/Repository/STM32Cube_FW_F4_V1.26.2/Middlewares/Third_Party/LwIP/src/core\tcp_out.c ****     return ERR_OK;
 857:c:/Users/Black_Life/STM32Cube/Repository/STM32Cube_FW_F4_V1.26.2/Middlewares/Third_Party/LwIP/src/core\tcp_out.c ****   }
 858:c:/Users/Black_Life/STM32Cube/Repository/STM32Cube_FW_F4_V1.26.2/Middlewares/Third_Party/LwIP/src/core\tcp_out.c **** 
 859:c:/Users/Black_Life/STM32Cube/Repository/STM32Cube_FW_F4_V1.26.2/Middlewares/Third_Party/LwIP/src/core\tcp_out.c ****   LWIP_ASSERT("split <= mss", split <= pcb->mss);
 860:c:/Users/Black_Life/STM32Cube/Repository/STM32Cube_FW_F4_V1.26.2/Middlewares/Third_Party/LwIP/src/core\tcp_out.c ****   LWIP_ASSERT("useg->len > 0", useg->len > 0);
 861:c:/Users/Black_Life/STM32Cube/Repository/STM32Cube_FW_F4_V1.26.2/Middlewares/Third_Party/LwIP/src/core\tcp_out.c **** 
 862:c:/Users/Black_Life/STM32Cube/Repository/STM32Cube_FW_F4_V1.26.2/Middlewares/Third_Party/LwIP/src/core\tcp_out.c ****   /* We should check that we don't exceed TCP_SND_QUEUELEN but we need
 863:c:/Users/Black_Life/STM32Cube/Repository/STM32Cube_FW_F4_V1.26.2/Middlewares/Third_Party/LwIP/src/core\tcp_out.c ****    * to split this packet so we may actually exceed the max value by
 864:c:/Users/Black_Life/STM32Cube/Repository/STM32Cube_FW_F4_V1.26.2/Middlewares/Third_Party/LwIP/src/core\tcp_out.c ****    * one!
 865:c:/Users/Black_Life/STM32Cube/Repository/STM32Cube_FW_F4_V1.26.2/Middlewares/Third_Party/LwIP/src/core\tcp_out.c ****    */
 866:c:/Users/Black_Life/STM32Cube/Repository/STM32Cube_FW_F4_V1.26.2/Middlewares/Third_Party/LwIP/src/core\tcp_out.c ****   LWIP_DEBUGF(TCP_QLEN_DEBUG, ("tcp_enqueue: split_unsent_seg: %u\n", (unsigned int)pcb->snd_queuel
 867:c:/Users/Black_Life/STM32Cube/Repository/STM32Cube_FW_F4_V1.26.2/Middlewares/Third_Party/LwIP/src/core\tcp_out.c **** 
 868:c:/Users/Black_Life/STM32Cube/Repository/STM32Cube_FW_F4_V1.26.2/Middlewares/Third_Party/LwIP/src/core\tcp_out.c ****   optflags = useg->flags;
 869:c:/Users/Black_Life/STM32Cube/Repository/STM32Cube_FW_F4_V1.26.2/Middlewares/Third_Party/LwIP/src/core\tcp_out.c **** #if TCP_CHECKSUM_ON_COPY
 870:c:/Users/Black_Life/STM32Cube/Repository/STM32Cube_FW_F4_V1.26.2/Middlewares/Third_Party/LwIP/src/core\tcp_out.c ****   /* Remove since checksum is not stored until after tcp_create_segment() */
 871:c:/Users/Black_Life/STM32Cube/Repository/STM32Cube_FW_F4_V1.26.2/Middlewares/Third_Party/LwIP/src/core\tcp_out.c ****   optflags &= ~TF_SEG_DATA_CHECKSUMMED;
 872:c:/Users/Black_Life/STM32Cube/Repository/STM32Cube_FW_F4_V1.26.2/Middlewares/Third_Party/LwIP/src/core\tcp_out.c **** #endif /* TCP_CHECKSUM_ON_COPY */
 873:c:/Users/Black_Life/STM32Cube/Repository/STM32Cube_FW_F4_V1.26.2/Middlewares/Third_Party/LwIP/src/core\tcp_out.c ****   optlen = LWIP_TCP_OPT_LENGTH(optflags);
 874:c:/Users/Black_Life/STM32Cube/Repository/STM32Cube_FW_F4_V1.26.2/Middlewares/Third_Party/LwIP/src/core\tcp_out.c ****   remainder = useg->len - split;
 875:c:/Users/Black_Life/STM32Cube/Repository/STM32Cube_FW_F4_V1.26.2/Middlewares/Third_Party/LwIP/src/core\tcp_out.c **** 
 876:c:/Users/Black_Life/STM32Cube/Repository/STM32Cube_FW_F4_V1.26.2/Middlewares/Third_Party/LwIP/src/core\tcp_out.c ****   /* Create new pbuf for the remainder of the split */
 877:c:/Users/Black_Life/STM32Cube/Repository/STM32Cube_FW_F4_V1.26.2/Middlewares/Third_Party/LwIP/src/core\tcp_out.c ****   p = pbuf_alloc(PBUF_TRANSPORT, remainder + optlen, PBUF_RAM);
 878:c:/Users/Black_Life/STM32Cube/Repository/STM32Cube_FW_F4_V1.26.2/Middlewares/Third_Party/LwIP/src/core\tcp_out.c ****   if (p == NULL) {
 879:c:/Users/Black_Life/STM32Cube/Repository/STM32Cube_FW_F4_V1.26.2/Middlewares/Third_Party/LwIP/src/core\tcp_out.c ****     LWIP_DEBUGF(TCP_OUTPUT_DEBUG | LWIP_DBG_LEVEL_SERIOUS,
 880:c:/Users/Black_Life/STM32Cube/Repository/STM32Cube_FW_F4_V1.26.2/Middlewares/Third_Party/LwIP/src/core\tcp_out.c ****                 ("tcp_split_unsent_seg: could not allocate memory for pbuf remainder %u\n", remaind
 881:c:/Users/Black_Life/STM32Cube/Repository/STM32Cube_FW_F4_V1.26.2/Middlewares/Third_Party/LwIP/src/core\tcp_out.c ****     goto memerr;
 882:c:/Users/Black_Life/STM32Cube/Repository/STM32Cube_FW_F4_V1.26.2/Middlewares/Third_Party/LwIP/src/core\tcp_out.c ****   }
 883:c:/Users/Black_Life/STM32Cube/Repository/STM32Cube_FW_F4_V1.26.2/Middlewares/Third_Party/LwIP/src/core\tcp_out.c **** 
 884:c:/Users/Black_Life/STM32Cube/Repository/STM32Cube_FW_F4_V1.26.2/Middlewares/Third_Party/LwIP/src/core\tcp_out.c ****   /* Offset into the original pbuf is past TCP/IP headers, options, and split amount */
 885:c:/Users/Black_Life/STM32Cube/Repository/STM32Cube_FW_F4_V1.26.2/Middlewares/Third_Party/LwIP/src/core\tcp_out.c ****   offset = useg->p->tot_len - useg->len + split;
 886:c:/Users/Black_Life/STM32Cube/Repository/STM32Cube_FW_F4_V1.26.2/Middlewares/Third_Party/LwIP/src/core\tcp_out.c ****   /* Copy remainder into new pbuf, headers and options will not be filled out */
 887:c:/Users/Black_Life/STM32Cube/Repository/STM32Cube_FW_F4_V1.26.2/Middlewares/Third_Party/LwIP/src/core\tcp_out.c ****   if (pbuf_copy_partial(useg->p, (u8_t *)p->payload + optlen, remainder, offset ) != remainder) {
 888:c:/Users/Black_Life/STM32Cube/Repository/STM32Cube_FW_F4_V1.26.2/Middlewares/Third_Party/LwIP/src/core\tcp_out.c ****     LWIP_DEBUGF(TCP_OUTPUT_DEBUG | LWIP_DBG_LEVEL_SERIOUS,
 889:c:/Users/Black_Life/STM32Cube/Repository/STM32Cube_FW_F4_V1.26.2/Middlewares/Third_Party/LwIP/src/core\tcp_out.c ****                 ("tcp_split_unsent_seg: could not copy pbuf remainder %u\n", remainder));
 890:c:/Users/Black_Life/STM32Cube/Repository/STM32Cube_FW_F4_V1.26.2/Middlewares/Third_Party/LwIP/src/core\tcp_out.c ****     goto memerr;
 891:c:/Users/Black_Life/STM32Cube/Repository/STM32Cube_FW_F4_V1.26.2/Middlewares/Third_Party/LwIP/src/core\tcp_out.c ****   }
 892:c:/Users/Black_Life/STM32Cube/Repository/STM32Cube_FW_F4_V1.26.2/Middlewares/Third_Party/LwIP/src/core\tcp_out.c **** #if TCP_CHECKSUM_ON_COPY
 893:c:/Users/Black_Life/STM32Cube/Repository/STM32Cube_FW_F4_V1.26.2/Middlewares/Third_Party/LwIP/src/core\tcp_out.c ****   /* calculate the checksum on remainder data */
 894:c:/Users/Black_Life/STM32Cube/Repository/STM32Cube_FW_F4_V1.26.2/Middlewares/Third_Party/LwIP/src/core\tcp_out.c ****   tcp_seg_add_chksum(~inet_chksum((const u8_t *)p->payload + optlen, remainder), remainder,
 895:c:/Users/Black_Life/STM32Cube/Repository/STM32Cube_FW_F4_V1.26.2/Middlewares/Third_Party/LwIP/src/core\tcp_out.c ****                      &chksum, &chksum_swapped);
 896:c:/Users/Black_Life/STM32Cube/Repository/STM32Cube_FW_F4_V1.26.2/Middlewares/Third_Party/LwIP/src/core\tcp_out.c **** #endif /* TCP_CHECKSUM_ON_COPY */
 897:c:/Users/Black_Life/STM32Cube/Repository/STM32Cube_FW_F4_V1.26.2/Middlewares/Third_Party/LwIP/src/core\tcp_out.c **** 
 898:c:/Users/Black_Life/STM32Cube/Repository/STM32Cube_FW_F4_V1.26.2/Middlewares/Third_Party/LwIP/src/core\tcp_out.c ****   /* Options are created when calling tcp_output() */
 899:c:/Users/Black_Life/STM32Cube/Repository/STM32Cube_FW_F4_V1.26.2/Middlewares/Third_Party/LwIP/src/core\tcp_out.c **** 
 900:c:/Users/Black_Life/STM32Cube/Repository/STM32Cube_FW_F4_V1.26.2/Middlewares/Third_Party/LwIP/src/core\tcp_out.c ****   /* Migrate flags from original segment */
 901:c:/Users/Black_Life/STM32Cube/Repository/STM32Cube_FW_F4_V1.26.2/Middlewares/Third_Party/LwIP/src/core\tcp_out.c ****   split_flags = TCPH_FLAGS(useg->tcphdr);
 902:c:/Users/Black_Life/STM32Cube/Repository/STM32Cube_FW_F4_V1.26.2/Middlewares/Third_Party/LwIP/src/core\tcp_out.c ****   remainder_flags = 0; /* ACK added in tcp_output() */
 903:c:/Users/Black_Life/STM32Cube/Repository/STM32Cube_FW_F4_V1.26.2/Middlewares/Third_Party/LwIP/src/core\tcp_out.c **** 
 904:c:/Users/Black_Life/STM32Cube/Repository/STM32Cube_FW_F4_V1.26.2/Middlewares/Third_Party/LwIP/src/core\tcp_out.c ****   if (split_flags & TCP_PSH) {
 905:c:/Users/Black_Life/STM32Cube/Repository/STM32Cube_FW_F4_V1.26.2/Middlewares/Third_Party/LwIP/src/core\tcp_out.c ****     split_flags &= ~TCP_PSH;
 906:c:/Users/Black_Life/STM32Cube/Repository/STM32Cube_FW_F4_V1.26.2/Middlewares/Third_Party/LwIP/src/core\tcp_out.c ****     remainder_flags |= TCP_PSH;
 907:c:/Users/Black_Life/STM32Cube/Repository/STM32Cube_FW_F4_V1.26.2/Middlewares/Third_Party/LwIP/src/core\tcp_out.c ****   }
 908:c:/Users/Black_Life/STM32Cube/Repository/STM32Cube_FW_F4_V1.26.2/Middlewares/Third_Party/LwIP/src/core\tcp_out.c ****   if (split_flags & TCP_FIN) {
 909:c:/Users/Black_Life/STM32Cube/Repository/STM32Cube_FW_F4_V1.26.2/Middlewares/Third_Party/LwIP/src/core\tcp_out.c ****     split_flags &= ~TCP_FIN;
 910:c:/Users/Black_Life/STM32Cube/Repository/STM32Cube_FW_F4_V1.26.2/Middlewares/Third_Party/LwIP/src/core\tcp_out.c ****     remainder_flags |= TCP_FIN;
 911:c:/Users/Black_Life/STM32Cube/Repository/STM32Cube_FW_F4_V1.26.2/Middlewares/Third_Party/LwIP/src/core\tcp_out.c ****   }
ARM GAS  C:\Users\BLACK_~1\AppData\Local\Temp\ccsw9P1a.s 			page 22


 912:c:/Users/Black_Life/STM32Cube/Repository/STM32Cube_FW_F4_V1.26.2/Middlewares/Third_Party/LwIP/src/core\tcp_out.c ****   /* SYN should be left on split, RST should not be present with data */
 913:c:/Users/Black_Life/STM32Cube/Repository/STM32Cube_FW_F4_V1.26.2/Middlewares/Third_Party/LwIP/src/core\tcp_out.c **** 
 914:c:/Users/Black_Life/STM32Cube/Repository/STM32Cube_FW_F4_V1.26.2/Middlewares/Third_Party/LwIP/src/core\tcp_out.c ****   seg = tcp_create_segment(pcb, p, remainder_flags, lwip_ntohl(useg->tcphdr->seqno) + split, optfla
 915:c:/Users/Black_Life/STM32Cube/Repository/STM32Cube_FW_F4_V1.26.2/Middlewares/Third_Party/LwIP/src/core\tcp_out.c ****   if (seg == NULL) {
 916:c:/Users/Black_Life/STM32Cube/Repository/STM32Cube_FW_F4_V1.26.2/Middlewares/Third_Party/LwIP/src/core\tcp_out.c ****     LWIP_DEBUGF(TCP_OUTPUT_DEBUG | LWIP_DBG_LEVEL_SERIOUS,
 917:c:/Users/Black_Life/STM32Cube/Repository/STM32Cube_FW_F4_V1.26.2/Middlewares/Third_Party/LwIP/src/core\tcp_out.c ****                 ("tcp_split_unsent_seg: could not create new TCP segment\n"));
 918:c:/Users/Black_Life/STM32Cube/Repository/STM32Cube_FW_F4_V1.26.2/Middlewares/Third_Party/LwIP/src/core\tcp_out.c ****     goto memerr;
 919:c:/Users/Black_Life/STM32Cube/Repository/STM32Cube_FW_F4_V1.26.2/Middlewares/Third_Party/LwIP/src/core\tcp_out.c ****   }
 920:c:/Users/Black_Life/STM32Cube/Repository/STM32Cube_FW_F4_V1.26.2/Middlewares/Third_Party/LwIP/src/core\tcp_out.c **** 
 921:c:/Users/Black_Life/STM32Cube/Repository/STM32Cube_FW_F4_V1.26.2/Middlewares/Third_Party/LwIP/src/core\tcp_out.c **** #if TCP_CHECKSUM_ON_COPY
 922:c:/Users/Black_Life/STM32Cube/Repository/STM32Cube_FW_F4_V1.26.2/Middlewares/Third_Party/LwIP/src/core\tcp_out.c ****   seg->chksum = chksum;
 923:c:/Users/Black_Life/STM32Cube/Repository/STM32Cube_FW_F4_V1.26.2/Middlewares/Third_Party/LwIP/src/core\tcp_out.c ****   seg->chksum_swapped = chksum_swapped;
 924:c:/Users/Black_Life/STM32Cube/Repository/STM32Cube_FW_F4_V1.26.2/Middlewares/Third_Party/LwIP/src/core\tcp_out.c ****   seg->flags |= TF_SEG_DATA_CHECKSUMMED;
 925:c:/Users/Black_Life/STM32Cube/Repository/STM32Cube_FW_F4_V1.26.2/Middlewares/Third_Party/LwIP/src/core\tcp_out.c **** #endif /* TCP_CHECKSUM_ON_COPY */
 926:c:/Users/Black_Life/STM32Cube/Repository/STM32Cube_FW_F4_V1.26.2/Middlewares/Third_Party/LwIP/src/core\tcp_out.c **** 
 927:c:/Users/Black_Life/STM32Cube/Repository/STM32Cube_FW_F4_V1.26.2/Middlewares/Third_Party/LwIP/src/core\tcp_out.c ****   /* Remove this segment from the queue since trimming it may free pbufs */
 928:c:/Users/Black_Life/STM32Cube/Repository/STM32Cube_FW_F4_V1.26.2/Middlewares/Third_Party/LwIP/src/core\tcp_out.c ****   pcb->snd_queuelen -= pbuf_clen(useg->p);
 929:c:/Users/Black_Life/STM32Cube/Repository/STM32Cube_FW_F4_V1.26.2/Middlewares/Third_Party/LwIP/src/core\tcp_out.c **** 
 930:c:/Users/Black_Life/STM32Cube/Repository/STM32Cube_FW_F4_V1.26.2/Middlewares/Third_Party/LwIP/src/core\tcp_out.c ****   /* Trim the original pbuf into our split size.  At this point our remainder segment must be setup
 931:c:/Users/Black_Life/STM32Cube/Repository/STM32Cube_FW_F4_V1.26.2/Middlewares/Third_Party/LwIP/src/core\tcp_out.c ****   successfully because we are modifying the original segment */
 932:c:/Users/Black_Life/STM32Cube/Repository/STM32Cube_FW_F4_V1.26.2/Middlewares/Third_Party/LwIP/src/core\tcp_out.c ****   pbuf_realloc(useg->p, useg->p->tot_len - remainder);
 933:c:/Users/Black_Life/STM32Cube/Repository/STM32Cube_FW_F4_V1.26.2/Middlewares/Third_Party/LwIP/src/core\tcp_out.c ****   useg->len -= remainder;
 934:c:/Users/Black_Life/STM32Cube/Repository/STM32Cube_FW_F4_V1.26.2/Middlewares/Third_Party/LwIP/src/core\tcp_out.c ****   TCPH_SET_FLAG(useg->tcphdr, split_flags);
 935:c:/Users/Black_Life/STM32Cube/Repository/STM32Cube_FW_F4_V1.26.2/Middlewares/Third_Party/LwIP/src/core\tcp_out.c **** #if TCP_OVERSIZE_DBGCHECK
 936:c:/Users/Black_Life/STM32Cube/Repository/STM32Cube_FW_F4_V1.26.2/Middlewares/Third_Party/LwIP/src/core\tcp_out.c ****   /* By trimming, realloc may have actually shrunk the pbuf, so clear oversize_left */
 937:c:/Users/Black_Life/STM32Cube/Repository/STM32Cube_FW_F4_V1.26.2/Middlewares/Third_Party/LwIP/src/core\tcp_out.c ****   useg->oversize_left = 0;
 938:c:/Users/Black_Life/STM32Cube/Repository/STM32Cube_FW_F4_V1.26.2/Middlewares/Third_Party/LwIP/src/core\tcp_out.c **** #endif /* TCP_OVERSIZE_DBGCHECK */
 939:c:/Users/Black_Life/STM32Cube/Repository/STM32Cube_FW_F4_V1.26.2/Middlewares/Third_Party/LwIP/src/core\tcp_out.c **** 
 940:c:/Users/Black_Life/STM32Cube/Repository/STM32Cube_FW_F4_V1.26.2/Middlewares/Third_Party/LwIP/src/core\tcp_out.c ****   /* Add back to the queue with new trimmed pbuf */
 941:c:/Users/Black_Life/STM32Cube/Repository/STM32Cube_FW_F4_V1.26.2/Middlewares/Third_Party/LwIP/src/core\tcp_out.c ****   pcb->snd_queuelen += pbuf_clen(useg->p);
 942:c:/Users/Black_Life/STM32Cube/Repository/STM32Cube_FW_F4_V1.26.2/Middlewares/Third_Party/LwIP/src/core\tcp_out.c **** 
 943:c:/Users/Black_Life/STM32Cube/Repository/STM32Cube_FW_F4_V1.26.2/Middlewares/Third_Party/LwIP/src/core\tcp_out.c **** #if TCP_CHECKSUM_ON_COPY
 944:c:/Users/Black_Life/STM32Cube/Repository/STM32Cube_FW_F4_V1.26.2/Middlewares/Third_Party/LwIP/src/core\tcp_out.c ****   /* The checksum on the split segment is now incorrect. We need to re-run it over the split */
 945:c:/Users/Black_Life/STM32Cube/Repository/STM32Cube_FW_F4_V1.26.2/Middlewares/Third_Party/LwIP/src/core\tcp_out.c ****   useg->chksum = 0;
 946:c:/Users/Black_Life/STM32Cube/Repository/STM32Cube_FW_F4_V1.26.2/Middlewares/Third_Party/LwIP/src/core\tcp_out.c ****   useg->chksum_swapped = 0;
 947:c:/Users/Black_Life/STM32Cube/Repository/STM32Cube_FW_F4_V1.26.2/Middlewares/Third_Party/LwIP/src/core\tcp_out.c ****   q = useg->p;
 948:c:/Users/Black_Life/STM32Cube/Repository/STM32Cube_FW_F4_V1.26.2/Middlewares/Third_Party/LwIP/src/core\tcp_out.c ****   offset = q->tot_len - useg->len; /* Offset due to exposed headers */
 949:c:/Users/Black_Life/STM32Cube/Repository/STM32Cube_FW_F4_V1.26.2/Middlewares/Third_Party/LwIP/src/core\tcp_out.c **** 
 950:c:/Users/Black_Life/STM32Cube/Repository/STM32Cube_FW_F4_V1.26.2/Middlewares/Third_Party/LwIP/src/core\tcp_out.c ****   /* Advance to the pbuf where the offset ends */
 951:c:/Users/Black_Life/STM32Cube/Repository/STM32Cube_FW_F4_V1.26.2/Middlewares/Third_Party/LwIP/src/core\tcp_out.c ****   while (q != NULL && offset > q->len) {
 952:c:/Users/Black_Life/STM32Cube/Repository/STM32Cube_FW_F4_V1.26.2/Middlewares/Third_Party/LwIP/src/core\tcp_out.c ****     offset -= q->len;
 953:c:/Users/Black_Life/STM32Cube/Repository/STM32Cube_FW_F4_V1.26.2/Middlewares/Third_Party/LwIP/src/core\tcp_out.c ****     q = q->next;
 954:c:/Users/Black_Life/STM32Cube/Repository/STM32Cube_FW_F4_V1.26.2/Middlewares/Third_Party/LwIP/src/core\tcp_out.c ****   }
 955:c:/Users/Black_Life/STM32Cube/Repository/STM32Cube_FW_F4_V1.26.2/Middlewares/Third_Party/LwIP/src/core\tcp_out.c ****   LWIP_ASSERT("Found start of payload pbuf", q != NULL);
 956:c:/Users/Black_Life/STM32Cube/Repository/STM32Cube_FW_F4_V1.26.2/Middlewares/Third_Party/LwIP/src/core\tcp_out.c ****   /* Checksum the first payload pbuf accounting for offset, then other pbufs are all payload */
 957:c:/Users/Black_Life/STM32Cube/Repository/STM32Cube_FW_F4_V1.26.2/Middlewares/Third_Party/LwIP/src/core\tcp_out.c ****   for (; q != NULL; offset = 0, q = q->next) {
 958:c:/Users/Black_Life/STM32Cube/Repository/STM32Cube_FW_F4_V1.26.2/Middlewares/Third_Party/LwIP/src/core\tcp_out.c ****     tcp_seg_add_chksum(~inet_chksum((const u8_t *)q->payload + offset, q->len - offset), q->len - o
 959:c:/Users/Black_Life/STM32Cube/Repository/STM32Cube_FW_F4_V1.26.2/Middlewares/Third_Party/LwIP/src/core\tcp_out.c ****                        &useg->chksum, &useg->chksum_swapped);
 960:c:/Users/Black_Life/STM32Cube/Repository/STM32Cube_FW_F4_V1.26.2/Middlewares/Third_Party/LwIP/src/core\tcp_out.c ****   }
 961:c:/Users/Black_Life/STM32Cube/Repository/STM32Cube_FW_F4_V1.26.2/Middlewares/Third_Party/LwIP/src/core\tcp_out.c **** #endif /* TCP_CHECKSUM_ON_COPY */
 962:c:/Users/Black_Life/STM32Cube/Repository/STM32Cube_FW_F4_V1.26.2/Middlewares/Third_Party/LwIP/src/core\tcp_out.c **** 
 963:c:/Users/Black_Life/STM32Cube/Repository/STM32Cube_FW_F4_V1.26.2/Middlewares/Third_Party/LwIP/src/core\tcp_out.c ****   /* Update number of segments on the queues. Note that length now may
 964:c:/Users/Black_Life/STM32Cube/Repository/STM32Cube_FW_F4_V1.26.2/Middlewares/Third_Party/LwIP/src/core\tcp_out.c ****    * exceed TCP_SND_QUEUELEN! We don't have to touch pcb->snd_buf
 965:c:/Users/Black_Life/STM32Cube/Repository/STM32Cube_FW_F4_V1.26.2/Middlewares/Third_Party/LwIP/src/core\tcp_out.c ****    * because the total amount of data is constant when packet is split */
 966:c:/Users/Black_Life/STM32Cube/Repository/STM32Cube_FW_F4_V1.26.2/Middlewares/Third_Party/LwIP/src/core\tcp_out.c ****   pcb->snd_queuelen += pbuf_clen(seg->p);
 967:c:/Users/Black_Life/STM32Cube/Repository/STM32Cube_FW_F4_V1.26.2/Middlewares/Third_Party/LwIP/src/core\tcp_out.c **** 
 968:c:/Users/Black_Life/STM32Cube/Repository/STM32Cube_FW_F4_V1.26.2/Middlewares/Third_Party/LwIP/src/core\tcp_out.c ****   /* Finally insert remainder into queue after split (which stays head) */
ARM GAS  C:\Users\BLACK_~1\AppData\Local\Temp\ccsw9P1a.s 			page 23


 969:c:/Users/Black_Life/STM32Cube/Repository/STM32Cube_FW_F4_V1.26.2/Middlewares/Third_Party/LwIP/src/core\tcp_out.c ****   seg->next = useg->next;
 970:c:/Users/Black_Life/STM32Cube/Repository/STM32Cube_FW_F4_V1.26.2/Middlewares/Third_Party/LwIP/src/core\tcp_out.c ****   useg->next = seg;
 971:c:/Users/Black_Life/STM32Cube/Repository/STM32Cube_FW_F4_V1.26.2/Middlewares/Third_Party/LwIP/src/core\tcp_out.c **** 
 972:c:/Users/Black_Life/STM32Cube/Repository/STM32Cube_FW_F4_V1.26.2/Middlewares/Third_Party/LwIP/src/core\tcp_out.c **** #if TCP_OVERSIZE
 973:c:/Users/Black_Life/STM32Cube/Repository/STM32Cube_FW_F4_V1.26.2/Middlewares/Third_Party/LwIP/src/core\tcp_out.c ****   /* If remainder is last segment on the unsent, ensure we clear the oversize amount
 974:c:/Users/Black_Life/STM32Cube/Repository/STM32Cube_FW_F4_V1.26.2/Middlewares/Third_Party/LwIP/src/core\tcp_out.c ****    * because the remainder is always sized to the exact remaining amount */
 975:c:/Users/Black_Life/STM32Cube/Repository/STM32Cube_FW_F4_V1.26.2/Middlewares/Third_Party/LwIP/src/core\tcp_out.c ****   if (seg->next == NULL) {
 976:c:/Users/Black_Life/STM32Cube/Repository/STM32Cube_FW_F4_V1.26.2/Middlewares/Third_Party/LwIP/src/core\tcp_out.c ****     pcb->unsent_oversize = 0;
 977:c:/Users/Black_Life/STM32Cube/Repository/STM32Cube_FW_F4_V1.26.2/Middlewares/Third_Party/LwIP/src/core\tcp_out.c ****   }
 978:c:/Users/Black_Life/STM32Cube/Repository/STM32Cube_FW_F4_V1.26.2/Middlewares/Third_Party/LwIP/src/core\tcp_out.c **** #endif /* TCP_OVERSIZE */
 979:c:/Users/Black_Life/STM32Cube/Repository/STM32Cube_FW_F4_V1.26.2/Middlewares/Third_Party/LwIP/src/core\tcp_out.c **** 
 980:c:/Users/Black_Life/STM32Cube/Repository/STM32Cube_FW_F4_V1.26.2/Middlewares/Third_Party/LwIP/src/core\tcp_out.c ****   return ERR_OK;
 981:c:/Users/Black_Life/STM32Cube/Repository/STM32Cube_FW_F4_V1.26.2/Middlewares/Third_Party/LwIP/src/core\tcp_out.c **** memerr:
 982:c:/Users/Black_Life/STM32Cube/Repository/STM32Cube_FW_F4_V1.26.2/Middlewares/Third_Party/LwIP/src/core\tcp_out.c ****   TCP_STATS_INC(tcp.memerr);
 983:c:/Users/Black_Life/STM32Cube/Repository/STM32Cube_FW_F4_V1.26.2/Middlewares/Third_Party/LwIP/src/core\tcp_out.c **** 
 984:c:/Users/Black_Life/STM32Cube/Repository/STM32Cube_FW_F4_V1.26.2/Middlewares/Third_Party/LwIP/src/core\tcp_out.c ****   LWIP_ASSERT("seg == NULL", seg == NULL);
 985:c:/Users/Black_Life/STM32Cube/Repository/STM32Cube_FW_F4_V1.26.2/Middlewares/Third_Party/LwIP/src/core\tcp_out.c ****   if (p != NULL) {
 986:c:/Users/Black_Life/STM32Cube/Repository/STM32Cube_FW_F4_V1.26.2/Middlewares/Third_Party/LwIP/src/core\tcp_out.c ****     pbuf_free(p);
 987:c:/Users/Black_Life/STM32Cube/Repository/STM32Cube_FW_F4_V1.26.2/Middlewares/Third_Party/LwIP/src/core\tcp_out.c ****   }
 988:c:/Users/Black_Life/STM32Cube/Repository/STM32Cube_FW_F4_V1.26.2/Middlewares/Third_Party/LwIP/src/core\tcp_out.c **** 
 989:c:/Users/Black_Life/STM32Cube/Repository/STM32Cube_FW_F4_V1.26.2/Middlewares/Third_Party/LwIP/src/core\tcp_out.c ****   return ERR_MEM;
 990:c:/Users/Black_Life/STM32Cube/Repository/STM32Cube_FW_F4_V1.26.2/Middlewares/Third_Party/LwIP/src/core\tcp_out.c **** }
 991:c:/Users/Black_Life/STM32Cube/Repository/STM32Cube_FW_F4_V1.26.2/Middlewares/Third_Party/LwIP/src/core\tcp_out.c **** 
 992:c:/Users/Black_Life/STM32Cube/Repository/STM32Cube_FW_F4_V1.26.2/Middlewares/Third_Party/LwIP/src/core\tcp_out.c **** /**
 993:c:/Users/Black_Life/STM32Cube/Repository/STM32Cube_FW_F4_V1.26.2/Middlewares/Third_Party/LwIP/src/core\tcp_out.c ****  * Called by tcp_close() to send a segment including FIN flag but not data.
 994:c:/Users/Black_Life/STM32Cube/Repository/STM32Cube_FW_F4_V1.26.2/Middlewares/Third_Party/LwIP/src/core\tcp_out.c ****  * This FIN may be added to an existing segment or a new, otherwise empty
 995:c:/Users/Black_Life/STM32Cube/Repository/STM32Cube_FW_F4_V1.26.2/Middlewares/Third_Party/LwIP/src/core\tcp_out.c ****  * segment is enqueued.
 996:c:/Users/Black_Life/STM32Cube/Repository/STM32Cube_FW_F4_V1.26.2/Middlewares/Third_Party/LwIP/src/core\tcp_out.c ****  *
 997:c:/Users/Black_Life/STM32Cube/Repository/STM32Cube_FW_F4_V1.26.2/Middlewares/Third_Party/LwIP/src/core\tcp_out.c ****  * @param pcb the tcp_pcb over which to send a segment
 998:c:/Users/Black_Life/STM32Cube/Repository/STM32Cube_FW_F4_V1.26.2/Middlewares/Third_Party/LwIP/src/core\tcp_out.c ****  * @return ERR_OK if sent, another err_t otherwise
 999:c:/Users/Black_Life/STM32Cube/Repository/STM32Cube_FW_F4_V1.26.2/Middlewares/Third_Party/LwIP/src/core\tcp_out.c ****  */
1000:c:/Users/Black_Life/STM32Cube/Repository/STM32Cube_FW_F4_V1.26.2/Middlewares/Third_Party/LwIP/src/core\tcp_out.c **** err_t
1001:c:/Users/Black_Life/STM32Cube/Repository/STM32Cube_FW_F4_V1.26.2/Middlewares/Third_Party/LwIP/src/core\tcp_out.c **** tcp_send_fin(struct tcp_pcb *pcb)
1002:c:/Users/Black_Life/STM32Cube/Repository/STM32Cube_FW_F4_V1.26.2/Middlewares/Third_Party/LwIP/src/core\tcp_out.c **** {
1003:c:/Users/Black_Life/STM32Cube/Repository/STM32Cube_FW_F4_V1.26.2/Middlewares/Third_Party/LwIP/src/core\tcp_out.c ****   LWIP_ASSERT("tcp_send_fin: invalid pcb", pcb != NULL);
1004:c:/Users/Black_Life/STM32Cube/Repository/STM32Cube_FW_F4_V1.26.2/Middlewares/Third_Party/LwIP/src/core\tcp_out.c **** 
1005:c:/Users/Black_Life/STM32Cube/Repository/STM32Cube_FW_F4_V1.26.2/Middlewares/Third_Party/LwIP/src/core\tcp_out.c ****   /* first, try to add the fin to the last unsent segment */
1006:c:/Users/Black_Life/STM32Cube/Repository/STM32Cube_FW_F4_V1.26.2/Middlewares/Third_Party/LwIP/src/core\tcp_out.c ****   if (pcb->unsent != NULL) {
1007:c:/Users/Black_Life/STM32Cube/Repository/STM32Cube_FW_F4_V1.26.2/Middlewares/Third_Party/LwIP/src/core\tcp_out.c ****     struct tcp_seg *last_unsent;
1008:c:/Users/Black_Life/STM32Cube/Repository/STM32Cube_FW_F4_V1.26.2/Middlewares/Third_Party/LwIP/src/core\tcp_out.c ****     for (last_unsent = pcb->unsent; last_unsent->next != NULL;
1009:c:/Users/Black_Life/STM32Cube/Repository/STM32Cube_FW_F4_V1.26.2/Middlewares/Third_Party/LwIP/src/core\tcp_out.c ****          last_unsent = last_unsent->next);
1010:c:/Users/Black_Life/STM32Cube/Repository/STM32Cube_FW_F4_V1.26.2/Middlewares/Third_Party/LwIP/src/core\tcp_out.c **** 
1011:c:/Users/Black_Life/STM32Cube/Repository/STM32Cube_FW_F4_V1.26.2/Middlewares/Third_Party/LwIP/src/core\tcp_out.c ****     if ((TCPH_FLAGS(last_unsent->tcphdr) & (TCP_SYN | TCP_FIN | TCP_RST)) == 0) {
1012:c:/Users/Black_Life/STM32Cube/Repository/STM32Cube_FW_F4_V1.26.2/Middlewares/Third_Party/LwIP/src/core\tcp_out.c ****       /* no SYN/FIN/RST flag in the header, we can add the FIN flag */
1013:c:/Users/Black_Life/STM32Cube/Repository/STM32Cube_FW_F4_V1.26.2/Middlewares/Third_Party/LwIP/src/core\tcp_out.c ****       TCPH_SET_FLAG(last_unsent->tcphdr, TCP_FIN);
1014:c:/Users/Black_Life/STM32Cube/Repository/STM32Cube_FW_F4_V1.26.2/Middlewares/Third_Party/LwIP/src/core\tcp_out.c ****       tcp_set_flags(pcb, TF_FIN);
1015:c:/Users/Black_Life/STM32Cube/Repository/STM32Cube_FW_F4_V1.26.2/Middlewares/Third_Party/LwIP/src/core\tcp_out.c ****       return ERR_OK;
1016:c:/Users/Black_Life/STM32Cube/Repository/STM32Cube_FW_F4_V1.26.2/Middlewares/Third_Party/LwIP/src/core\tcp_out.c ****     }
1017:c:/Users/Black_Life/STM32Cube/Repository/STM32Cube_FW_F4_V1.26.2/Middlewares/Third_Party/LwIP/src/core\tcp_out.c ****   }
1018:c:/Users/Black_Life/STM32Cube/Repository/STM32Cube_FW_F4_V1.26.2/Middlewares/Third_Party/LwIP/src/core\tcp_out.c ****   /* no data, no length, flags, copy=1, no optdata */
1019:c:/Users/Black_Life/STM32Cube/Repository/STM32Cube_FW_F4_V1.26.2/Middlewares/Third_Party/LwIP/src/core\tcp_out.c ****   return tcp_enqueue_flags(pcb, TCP_FIN);
1020:c:/Users/Black_Life/STM32Cube/Repository/STM32Cube_FW_F4_V1.26.2/Middlewares/Third_Party/LwIP/src/core\tcp_out.c **** }
1021:c:/Users/Black_Life/STM32Cube/Repository/STM32Cube_FW_F4_V1.26.2/Middlewares/Third_Party/LwIP/src/core\tcp_out.c **** 
1022:c:/Users/Black_Life/STM32Cube/Repository/STM32Cube_FW_F4_V1.26.2/Middlewares/Third_Party/LwIP/src/core\tcp_out.c **** /**
1023:c:/Users/Black_Life/STM32Cube/Repository/STM32Cube_FW_F4_V1.26.2/Middlewares/Third_Party/LwIP/src/core\tcp_out.c ****  * Enqueue SYN or FIN for transmission.
1024:c:/Users/Black_Life/STM32Cube/Repository/STM32Cube_FW_F4_V1.26.2/Middlewares/Third_Party/LwIP/src/core\tcp_out.c ****  *
1025:c:/Users/Black_Life/STM32Cube/Repository/STM32Cube_FW_F4_V1.26.2/Middlewares/Third_Party/LwIP/src/core\tcp_out.c ****  * Called by @ref tcp_connect, tcp_listen_input, and @ref tcp_close
ARM GAS  C:\Users\BLACK_~1\AppData\Local\Temp\ccsw9P1a.s 			page 24


1026:c:/Users/Black_Life/STM32Cube/Repository/STM32Cube_FW_F4_V1.26.2/Middlewares/Third_Party/LwIP/src/core\tcp_out.c ****  * (via @ref tcp_send_fin)
1027:c:/Users/Black_Life/STM32Cube/Repository/STM32Cube_FW_F4_V1.26.2/Middlewares/Third_Party/LwIP/src/core\tcp_out.c ****  *
1028:c:/Users/Black_Life/STM32Cube/Repository/STM32Cube_FW_F4_V1.26.2/Middlewares/Third_Party/LwIP/src/core\tcp_out.c ****  * @param pcb Protocol control block for the TCP connection.
1029:c:/Users/Black_Life/STM32Cube/Repository/STM32Cube_FW_F4_V1.26.2/Middlewares/Third_Party/LwIP/src/core\tcp_out.c ****  * @param flags TCP header flags to set in the outgoing segment.
1030:c:/Users/Black_Life/STM32Cube/Repository/STM32Cube_FW_F4_V1.26.2/Middlewares/Third_Party/LwIP/src/core\tcp_out.c ****  */
1031:c:/Users/Black_Life/STM32Cube/Repository/STM32Cube_FW_F4_V1.26.2/Middlewares/Third_Party/LwIP/src/core\tcp_out.c **** err_t
1032:c:/Users/Black_Life/STM32Cube/Repository/STM32Cube_FW_F4_V1.26.2/Middlewares/Third_Party/LwIP/src/core\tcp_out.c **** tcp_enqueue_flags(struct tcp_pcb *pcb, u8_t flags)
1033:c:/Users/Black_Life/STM32Cube/Repository/STM32Cube_FW_F4_V1.26.2/Middlewares/Third_Party/LwIP/src/core\tcp_out.c **** {
1034:c:/Users/Black_Life/STM32Cube/Repository/STM32Cube_FW_F4_V1.26.2/Middlewares/Third_Party/LwIP/src/core\tcp_out.c ****   struct pbuf *p;
1035:c:/Users/Black_Life/STM32Cube/Repository/STM32Cube_FW_F4_V1.26.2/Middlewares/Third_Party/LwIP/src/core\tcp_out.c ****   struct tcp_seg *seg;
1036:c:/Users/Black_Life/STM32Cube/Repository/STM32Cube_FW_F4_V1.26.2/Middlewares/Third_Party/LwIP/src/core\tcp_out.c ****   u8_t optflags = 0;
1037:c:/Users/Black_Life/STM32Cube/Repository/STM32Cube_FW_F4_V1.26.2/Middlewares/Third_Party/LwIP/src/core\tcp_out.c ****   u8_t optlen = 0;
1038:c:/Users/Black_Life/STM32Cube/Repository/STM32Cube_FW_F4_V1.26.2/Middlewares/Third_Party/LwIP/src/core\tcp_out.c **** 
1039:c:/Users/Black_Life/STM32Cube/Repository/STM32Cube_FW_F4_V1.26.2/Middlewares/Third_Party/LwIP/src/core\tcp_out.c ****   LWIP_DEBUGF(TCP_QLEN_DEBUG, ("tcp_enqueue_flags: queuelen: %"U16_F"\n", (u16_t)pcb->snd_queuelen)
1040:c:/Users/Black_Life/STM32Cube/Repository/STM32Cube_FW_F4_V1.26.2/Middlewares/Third_Party/LwIP/src/core\tcp_out.c **** 
1041:c:/Users/Black_Life/STM32Cube/Repository/STM32Cube_FW_F4_V1.26.2/Middlewares/Third_Party/LwIP/src/core\tcp_out.c ****   LWIP_ASSERT("tcp_enqueue_flags: need either TCP_SYN or TCP_FIN in flags (programmer violates API)
1042:c:/Users/Black_Life/STM32Cube/Repository/STM32Cube_FW_F4_V1.26.2/Middlewares/Third_Party/LwIP/src/core\tcp_out.c ****               (flags & (TCP_SYN | TCP_FIN)) != 0);
1043:c:/Users/Black_Life/STM32Cube/Repository/STM32Cube_FW_F4_V1.26.2/Middlewares/Third_Party/LwIP/src/core\tcp_out.c ****   LWIP_ASSERT("tcp_enqueue_flags: invalid pcb", pcb != NULL);
1044:c:/Users/Black_Life/STM32Cube/Repository/STM32Cube_FW_F4_V1.26.2/Middlewares/Third_Party/LwIP/src/core\tcp_out.c **** 
1045:c:/Users/Black_Life/STM32Cube/Repository/STM32Cube_FW_F4_V1.26.2/Middlewares/Third_Party/LwIP/src/core\tcp_out.c ****   /* No need to check pcb->snd_queuelen if only SYN or FIN are allowed! */
1046:c:/Users/Black_Life/STM32Cube/Repository/STM32Cube_FW_F4_V1.26.2/Middlewares/Third_Party/LwIP/src/core\tcp_out.c **** 
1047:c:/Users/Black_Life/STM32Cube/Repository/STM32Cube_FW_F4_V1.26.2/Middlewares/Third_Party/LwIP/src/core\tcp_out.c ****   /* Get options for this segment. This is a special case since this is the
1048:c:/Users/Black_Life/STM32Cube/Repository/STM32Cube_FW_F4_V1.26.2/Middlewares/Third_Party/LwIP/src/core\tcp_out.c ****      only place where a SYN can be sent. */
1049:c:/Users/Black_Life/STM32Cube/Repository/STM32Cube_FW_F4_V1.26.2/Middlewares/Third_Party/LwIP/src/core\tcp_out.c ****   if (flags & TCP_SYN) {
1050:c:/Users/Black_Life/STM32Cube/Repository/STM32Cube_FW_F4_V1.26.2/Middlewares/Third_Party/LwIP/src/core\tcp_out.c ****     optflags = TF_SEG_OPTS_MSS;
1051:c:/Users/Black_Life/STM32Cube/Repository/STM32Cube_FW_F4_V1.26.2/Middlewares/Third_Party/LwIP/src/core\tcp_out.c **** #if LWIP_WND_SCALE
1052:c:/Users/Black_Life/STM32Cube/Repository/STM32Cube_FW_F4_V1.26.2/Middlewares/Third_Party/LwIP/src/core\tcp_out.c ****     if ((pcb->state != SYN_RCVD) || (pcb->flags & TF_WND_SCALE)) {
1053:c:/Users/Black_Life/STM32Cube/Repository/STM32Cube_FW_F4_V1.26.2/Middlewares/Third_Party/LwIP/src/core\tcp_out.c ****       /* In a <SYN,ACK> (sent in state SYN_RCVD), the window scale option may only
1054:c:/Users/Black_Life/STM32Cube/Repository/STM32Cube_FW_F4_V1.26.2/Middlewares/Third_Party/LwIP/src/core\tcp_out.c ****          be sent if we received a window scale option from the remote host. */
1055:c:/Users/Black_Life/STM32Cube/Repository/STM32Cube_FW_F4_V1.26.2/Middlewares/Third_Party/LwIP/src/core\tcp_out.c ****       optflags |= TF_SEG_OPTS_WND_SCALE;
1056:c:/Users/Black_Life/STM32Cube/Repository/STM32Cube_FW_F4_V1.26.2/Middlewares/Third_Party/LwIP/src/core\tcp_out.c ****     }
1057:c:/Users/Black_Life/STM32Cube/Repository/STM32Cube_FW_F4_V1.26.2/Middlewares/Third_Party/LwIP/src/core\tcp_out.c **** #endif /* LWIP_WND_SCALE */
1058:c:/Users/Black_Life/STM32Cube/Repository/STM32Cube_FW_F4_V1.26.2/Middlewares/Third_Party/LwIP/src/core\tcp_out.c **** #if LWIP_TCP_SACK_OUT
1059:c:/Users/Black_Life/STM32Cube/Repository/STM32Cube_FW_F4_V1.26.2/Middlewares/Third_Party/LwIP/src/core\tcp_out.c ****     if ((pcb->state != SYN_RCVD) || (pcb->flags & TF_SACK)) {
1060:c:/Users/Black_Life/STM32Cube/Repository/STM32Cube_FW_F4_V1.26.2/Middlewares/Third_Party/LwIP/src/core\tcp_out.c ****       /* In a <SYN,ACK> (sent in state SYN_RCVD), the SACK_PERM option may only
1061:c:/Users/Black_Life/STM32Cube/Repository/STM32Cube_FW_F4_V1.26.2/Middlewares/Third_Party/LwIP/src/core\tcp_out.c ****          be sent if we received a SACK_PERM option from the remote host. */
1062:c:/Users/Black_Life/STM32Cube/Repository/STM32Cube_FW_F4_V1.26.2/Middlewares/Third_Party/LwIP/src/core\tcp_out.c ****       optflags |= TF_SEG_OPTS_SACK_PERM;
1063:c:/Users/Black_Life/STM32Cube/Repository/STM32Cube_FW_F4_V1.26.2/Middlewares/Third_Party/LwIP/src/core\tcp_out.c ****     }
1064:c:/Users/Black_Life/STM32Cube/Repository/STM32Cube_FW_F4_V1.26.2/Middlewares/Third_Party/LwIP/src/core\tcp_out.c **** #endif /* LWIP_TCP_SACK_OUT */
1065:c:/Users/Black_Life/STM32Cube/Repository/STM32Cube_FW_F4_V1.26.2/Middlewares/Third_Party/LwIP/src/core\tcp_out.c ****   }
1066:c:/Users/Black_Life/STM32Cube/Repository/STM32Cube_FW_F4_V1.26.2/Middlewares/Third_Party/LwIP/src/core\tcp_out.c **** #if LWIP_TCP_TIMESTAMPS
1067:c:/Users/Black_Life/STM32Cube/Repository/STM32Cube_FW_F4_V1.26.2/Middlewares/Third_Party/LwIP/src/core\tcp_out.c ****   if ((pcb->flags & TF_TIMESTAMP) || ((flags & TCP_SYN) && (pcb->state != SYN_RCVD))) {
1068:c:/Users/Black_Life/STM32Cube/Repository/STM32Cube_FW_F4_V1.26.2/Middlewares/Third_Party/LwIP/src/core\tcp_out.c ****     /* Make sure the timestamp option is only included in data segments if we
1069:c:/Users/Black_Life/STM32Cube/Repository/STM32Cube_FW_F4_V1.26.2/Middlewares/Third_Party/LwIP/src/core\tcp_out.c ****        agreed about it with the remote host (and in active open SYN segments). */
1070:c:/Users/Black_Life/STM32Cube/Repository/STM32Cube_FW_F4_V1.26.2/Middlewares/Third_Party/LwIP/src/core\tcp_out.c ****     optflags |= TF_SEG_OPTS_TS;
1071:c:/Users/Black_Life/STM32Cube/Repository/STM32Cube_FW_F4_V1.26.2/Middlewares/Third_Party/LwIP/src/core\tcp_out.c ****   }
1072:c:/Users/Black_Life/STM32Cube/Repository/STM32Cube_FW_F4_V1.26.2/Middlewares/Third_Party/LwIP/src/core\tcp_out.c **** #endif /* LWIP_TCP_TIMESTAMPS */
1073:c:/Users/Black_Life/STM32Cube/Repository/STM32Cube_FW_F4_V1.26.2/Middlewares/Third_Party/LwIP/src/core\tcp_out.c ****   optlen = LWIP_TCP_OPT_LENGTH_SEGMENT(optflags, pcb);
1074:c:/Users/Black_Life/STM32Cube/Repository/STM32Cube_FW_F4_V1.26.2/Middlewares/Third_Party/LwIP/src/core\tcp_out.c **** 
1075:c:/Users/Black_Life/STM32Cube/Repository/STM32Cube_FW_F4_V1.26.2/Middlewares/Third_Party/LwIP/src/core\tcp_out.c ****   /* Allocate pbuf with room for TCP header + options */
1076:c:/Users/Black_Life/STM32Cube/Repository/STM32Cube_FW_F4_V1.26.2/Middlewares/Third_Party/LwIP/src/core\tcp_out.c ****   if ((p = pbuf_alloc(PBUF_TRANSPORT, optlen, PBUF_RAM)) == NULL) {
1077:c:/Users/Black_Life/STM32Cube/Repository/STM32Cube_FW_F4_V1.26.2/Middlewares/Third_Party/LwIP/src/core\tcp_out.c ****     tcp_set_flags(pcb, TF_NAGLEMEMERR);
1078:c:/Users/Black_Life/STM32Cube/Repository/STM32Cube_FW_F4_V1.26.2/Middlewares/Third_Party/LwIP/src/core\tcp_out.c ****     TCP_STATS_INC(tcp.memerr);
1079:c:/Users/Black_Life/STM32Cube/Repository/STM32Cube_FW_F4_V1.26.2/Middlewares/Third_Party/LwIP/src/core\tcp_out.c ****     return ERR_MEM;
1080:c:/Users/Black_Life/STM32Cube/Repository/STM32Cube_FW_F4_V1.26.2/Middlewares/Third_Party/LwIP/src/core\tcp_out.c ****   }
1081:c:/Users/Black_Life/STM32Cube/Repository/STM32Cube_FW_F4_V1.26.2/Middlewares/Third_Party/LwIP/src/core\tcp_out.c ****   LWIP_ASSERT("tcp_enqueue_flags: check that first pbuf can hold optlen",
1082:c:/Users/Black_Life/STM32Cube/Repository/STM32Cube_FW_F4_V1.26.2/Middlewares/Third_Party/LwIP/src/core\tcp_out.c ****               (p->len >= optlen));
ARM GAS  C:\Users\BLACK_~1\AppData\Local\Temp\ccsw9P1a.s 			page 25


1083:c:/Users/Black_Life/STM32Cube/Repository/STM32Cube_FW_F4_V1.26.2/Middlewares/Third_Party/LwIP/src/core\tcp_out.c **** 
1084:c:/Users/Black_Life/STM32Cube/Repository/STM32Cube_FW_F4_V1.26.2/Middlewares/Third_Party/LwIP/src/core\tcp_out.c ****   /* Allocate memory for tcp_seg, and fill in fields. */
1085:c:/Users/Black_Life/STM32Cube/Repository/STM32Cube_FW_F4_V1.26.2/Middlewares/Third_Party/LwIP/src/core\tcp_out.c ****   if ((seg = tcp_create_segment(pcb, p, flags, pcb->snd_lbb, optflags)) == NULL) {
1086:c:/Users/Black_Life/STM32Cube/Repository/STM32Cube_FW_F4_V1.26.2/Middlewares/Third_Party/LwIP/src/core\tcp_out.c ****     tcp_set_flags(pcb, TF_NAGLEMEMERR);
1087:c:/Users/Black_Life/STM32Cube/Repository/STM32Cube_FW_F4_V1.26.2/Middlewares/Third_Party/LwIP/src/core\tcp_out.c ****     TCP_STATS_INC(tcp.memerr);
1088:c:/Users/Black_Life/STM32Cube/Repository/STM32Cube_FW_F4_V1.26.2/Middlewares/Third_Party/LwIP/src/core\tcp_out.c ****     return ERR_MEM;
1089:c:/Users/Black_Life/STM32Cube/Repository/STM32Cube_FW_F4_V1.26.2/Middlewares/Third_Party/LwIP/src/core\tcp_out.c ****   }
1090:c:/Users/Black_Life/STM32Cube/Repository/STM32Cube_FW_F4_V1.26.2/Middlewares/Third_Party/LwIP/src/core\tcp_out.c ****   LWIP_ASSERT("seg->tcphdr not aligned", ((mem_ptr_t)seg->tcphdr % LWIP_MIN(MEM_ALIGNMENT, 4)) == 0
1091:c:/Users/Black_Life/STM32Cube/Repository/STM32Cube_FW_F4_V1.26.2/Middlewares/Third_Party/LwIP/src/core\tcp_out.c ****   LWIP_ASSERT("tcp_enqueue_flags: invalid segment length", seg->len == 0);
1092:c:/Users/Black_Life/STM32Cube/Repository/STM32Cube_FW_F4_V1.26.2/Middlewares/Third_Party/LwIP/src/core\tcp_out.c **** 
1093:c:/Users/Black_Life/STM32Cube/Repository/STM32Cube_FW_F4_V1.26.2/Middlewares/Third_Party/LwIP/src/core\tcp_out.c ****   LWIP_DEBUGF(TCP_OUTPUT_DEBUG | LWIP_DBG_TRACE,
1094:c:/Users/Black_Life/STM32Cube/Repository/STM32Cube_FW_F4_V1.26.2/Middlewares/Third_Party/LwIP/src/core\tcp_out.c ****               ("tcp_enqueue_flags: queueing %"U32_F":%"U32_F" (0x%"X16_F")\n",
1095:c:/Users/Black_Life/STM32Cube/Repository/STM32Cube_FW_F4_V1.26.2/Middlewares/Third_Party/LwIP/src/core\tcp_out.c ****                lwip_ntohl(seg->tcphdr->seqno),
1096:c:/Users/Black_Life/STM32Cube/Repository/STM32Cube_FW_F4_V1.26.2/Middlewares/Third_Party/LwIP/src/core\tcp_out.c ****                lwip_ntohl(seg->tcphdr->seqno) + TCP_TCPLEN(seg),
1097:c:/Users/Black_Life/STM32Cube/Repository/STM32Cube_FW_F4_V1.26.2/Middlewares/Third_Party/LwIP/src/core\tcp_out.c ****                (u16_t)flags));
1098:c:/Users/Black_Life/STM32Cube/Repository/STM32Cube_FW_F4_V1.26.2/Middlewares/Third_Party/LwIP/src/core\tcp_out.c **** 
1099:c:/Users/Black_Life/STM32Cube/Repository/STM32Cube_FW_F4_V1.26.2/Middlewares/Third_Party/LwIP/src/core\tcp_out.c ****   /* Now append seg to pcb->unsent queue */
1100:c:/Users/Black_Life/STM32Cube/Repository/STM32Cube_FW_F4_V1.26.2/Middlewares/Third_Party/LwIP/src/core\tcp_out.c ****   if (pcb->unsent == NULL) {
1101:c:/Users/Black_Life/STM32Cube/Repository/STM32Cube_FW_F4_V1.26.2/Middlewares/Third_Party/LwIP/src/core\tcp_out.c ****     pcb->unsent = seg;
1102:c:/Users/Black_Life/STM32Cube/Repository/STM32Cube_FW_F4_V1.26.2/Middlewares/Third_Party/LwIP/src/core\tcp_out.c ****   } else {
1103:c:/Users/Black_Life/STM32Cube/Repository/STM32Cube_FW_F4_V1.26.2/Middlewares/Third_Party/LwIP/src/core\tcp_out.c ****     struct tcp_seg *useg;
1104:c:/Users/Black_Life/STM32Cube/Repository/STM32Cube_FW_F4_V1.26.2/Middlewares/Third_Party/LwIP/src/core\tcp_out.c ****     for (useg = pcb->unsent; useg->next != NULL; useg = useg->next);
1105:c:/Users/Black_Life/STM32Cube/Repository/STM32Cube_FW_F4_V1.26.2/Middlewares/Third_Party/LwIP/src/core\tcp_out.c ****     useg->next = seg;
1106:c:/Users/Black_Life/STM32Cube/Repository/STM32Cube_FW_F4_V1.26.2/Middlewares/Third_Party/LwIP/src/core\tcp_out.c ****   }
1107:c:/Users/Black_Life/STM32Cube/Repository/STM32Cube_FW_F4_V1.26.2/Middlewares/Third_Party/LwIP/src/core\tcp_out.c **** #if TCP_OVERSIZE
1108:c:/Users/Black_Life/STM32Cube/Repository/STM32Cube_FW_F4_V1.26.2/Middlewares/Third_Party/LwIP/src/core\tcp_out.c ****   /* The new unsent tail has no space */
1109:c:/Users/Black_Life/STM32Cube/Repository/STM32Cube_FW_F4_V1.26.2/Middlewares/Third_Party/LwIP/src/core\tcp_out.c ****   pcb->unsent_oversize = 0;
1110:c:/Users/Black_Life/STM32Cube/Repository/STM32Cube_FW_F4_V1.26.2/Middlewares/Third_Party/LwIP/src/core\tcp_out.c **** #endif /* TCP_OVERSIZE */
1111:c:/Users/Black_Life/STM32Cube/Repository/STM32Cube_FW_F4_V1.26.2/Middlewares/Third_Party/LwIP/src/core\tcp_out.c **** 
1112:c:/Users/Black_Life/STM32Cube/Repository/STM32Cube_FW_F4_V1.26.2/Middlewares/Third_Party/LwIP/src/core\tcp_out.c ****   /* SYN and FIN bump the sequence number */
1113:c:/Users/Black_Life/STM32Cube/Repository/STM32Cube_FW_F4_V1.26.2/Middlewares/Third_Party/LwIP/src/core\tcp_out.c ****   if ((flags & TCP_SYN) || (flags & TCP_FIN)) {
1114:c:/Users/Black_Life/STM32Cube/Repository/STM32Cube_FW_F4_V1.26.2/Middlewares/Third_Party/LwIP/src/core\tcp_out.c ****     pcb->snd_lbb++;
1115:c:/Users/Black_Life/STM32Cube/Repository/STM32Cube_FW_F4_V1.26.2/Middlewares/Third_Party/LwIP/src/core\tcp_out.c ****     /* optlen does not influence snd_buf */
1116:c:/Users/Black_Life/STM32Cube/Repository/STM32Cube_FW_F4_V1.26.2/Middlewares/Third_Party/LwIP/src/core\tcp_out.c ****   }
1117:c:/Users/Black_Life/STM32Cube/Repository/STM32Cube_FW_F4_V1.26.2/Middlewares/Third_Party/LwIP/src/core\tcp_out.c ****   if (flags & TCP_FIN) {
1118:c:/Users/Black_Life/STM32Cube/Repository/STM32Cube_FW_F4_V1.26.2/Middlewares/Third_Party/LwIP/src/core\tcp_out.c ****     tcp_set_flags(pcb, TF_FIN);
1119:c:/Users/Black_Life/STM32Cube/Repository/STM32Cube_FW_F4_V1.26.2/Middlewares/Third_Party/LwIP/src/core\tcp_out.c ****   }
1120:c:/Users/Black_Life/STM32Cube/Repository/STM32Cube_FW_F4_V1.26.2/Middlewares/Third_Party/LwIP/src/core\tcp_out.c **** 
1121:c:/Users/Black_Life/STM32Cube/Repository/STM32Cube_FW_F4_V1.26.2/Middlewares/Third_Party/LwIP/src/core\tcp_out.c ****   /* update number of segments on the queues */
1122:c:/Users/Black_Life/STM32Cube/Repository/STM32Cube_FW_F4_V1.26.2/Middlewares/Third_Party/LwIP/src/core\tcp_out.c ****   pcb->snd_queuelen += pbuf_clen(seg->p);
1123:c:/Users/Black_Life/STM32Cube/Repository/STM32Cube_FW_F4_V1.26.2/Middlewares/Third_Party/LwIP/src/core\tcp_out.c ****   LWIP_DEBUGF(TCP_QLEN_DEBUG, ("tcp_enqueue_flags: %"S16_F" (after enqueued)\n", pcb->snd_queuelen)
1124:c:/Users/Black_Life/STM32Cube/Repository/STM32Cube_FW_F4_V1.26.2/Middlewares/Third_Party/LwIP/src/core\tcp_out.c ****   if (pcb->snd_queuelen != 0) {
1125:c:/Users/Black_Life/STM32Cube/Repository/STM32Cube_FW_F4_V1.26.2/Middlewares/Third_Party/LwIP/src/core\tcp_out.c ****     LWIP_ASSERT("tcp_enqueue_flags: invalid queue length",
1126:c:/Users/Black_Life/STM32Cube/Repository/STM32Cube_FW_F4_V1.26.2/Middlewares/Third_Party/LwIP/src/core\tcp_out.c ****                 pcb->unacked != NULL || pcb->unsent != NULL);
1127:c:/Users/Black_Life/STM32Cube/Repository/STM32Cube_FW_F4_V1.26.2/Middlewares/Third_Party/LwIP/src/core\tcp_out.c ****   }
1128:c:/Users/Black_Life/STM32Cube/Repository/STM32Cube_FW_F4_V1.26.2/Middlewares/Third_Party/LwIP/src/core\tcp_out.c **** 
1129:c:/Users/Black_Life/STM32Cube/Repository/STM32Cube_FW_F4_V1.26.2/Middlewares/Third_Party/LwIP/src/core\tcp_out.c ****   return ERR_OK;
1130:c:/Users/Black_Life/STM32Cube/Repository/STM32Cube_FW_F4_V1.26.2/Middlewares/Third_Party/LwIP/src/core\tcp_out.c **** }
1131:c:/Users/Black_Life/STM32Cube/Repository/STM32Cube_FW_F4_V1.26.2/Middlewares/Third_Party/LwIP/src/core\tcp_out.c **** 
1132:c:/Users/Black_Life/STM32Cube/Repository/STM32Cube_FW_F4_V1.26.2/Middlewares/Third_Party/LwIP/src/core\tcp_out.c **** #if LWIP_TCP_TIMESTAMPS
1133:c:/Users/Black_Life/STM32Cube/Repository/STM32Cube_FW_F4_V1.26.2/Middlewares/Third_Party/LwIP/src/core\tcp_out.c **** /* Build a timestamp option (12 bytes long) at the specified options pointer)
1134:c:/Users/Black_Life/STM32Cube/Repository/STM32Cube_FW_F4_V1.26.2/Middlewares/Third_Party/LwIP/src/core\tcp_out.c ****  *
1135:c:/Users/Black_Life/STM32Cube/Repository/STM32Cube_FW_F4_V1.26.2/Middlewares/Third_Party/LwIP/src/core\tcp_out.c ****  * @param pcb tcp_pcb
1136:c:/Users/Black_Life/STM32Cube/Repository/STM32Cube_FW_F4_V1.26.2/Middlewares/Third_Party/LwIP/src/core\tcp_out.c ****  * @param opts option pointer where to store the timestamp option
1137:c:/Users/Black_Life/STM32Cube/Repository/STM32Cube_FW_F4_V1.26.2/Middlewares/Third_Party/LwIP/src/core\tcp_out.c ****  */
1138:c:/Users/Black_Life/STM32Cube/Repository/STM32Cube_FW_F4_V1.26.2/Middlewares/Third_Party/LwIP/src/core\tcp_out.c **** static void
1139:c:/Users/Black_Life/STM32Cube/Repository/STM32Cube_FW_F4_V1.26.2/Middlewares/Third_Party/LwIP/src/core\tcp_out.c **** tcp_build_timestamp_option(const struct tcp_pcb *pcb, u32_t *opts)
ARM GAS  C:\Users\BLACK_~1\AppData\Local\Temp\ccsw9P1a.s 			page 26


1140:c:/Users/Black_Life/STM32Cube/Repository/STM32Cube_FW_F4_V1.26.2/Middlewares/Third_Party/LwIP/src/core\tcp_out.c **** {
1141:c:/Users/Black_Life/STM32Cube/Repository/STM32Cube_FW_F4_V1.26.2/Middlewares/Third_Party/LwIP/src/core\tcp_out.c ****   LWIP_ASSERT("tcp_build_timestamp_option: invalid pcb", pcb != NULL);
1142:c:/Users/Black_Life/STM32Cube/Repository/STM32Cube_FW_F4_V1.26.2/Middlewares/Third_Party/LwIP/src/core\tcp_out.c **** 
1143:c:/Users/Black_Life/STM32Cube/Repository/STM32Cube_FW_F4_V1.26.2/Middlewares/Third_Party/LwIP/src/core\tcp_out.c ****   /* Pad with two NOP options to make everything nicely aligned */
1144:c:/Users/Black_Life/STM32Cube/Repository/STM32Cube_FW_F4_V1.26.2/Middlewares/Third_Party/LwIP/src/core\tcp_out.c ****   opts[0] = PP_HTONL(0x0101080A);
1145:c:/Users/Black_Life/STM32Cube/Repository/STM32Cube_FW_F4_V1.26.2/Middlewares/Third_Party/LwIP/src/core\tcp_out.c ****   opts[1] = lwip_htonl(sys_now());
1146:c:/Users/Black_Life/STM32Cube/Repository/STM32Cube_FW_F4_V1.26.2/Middlewares/Third_Party/LwIP/src/core\tcp_out.c ****   opts[2] = lwip_htonl(pcb->ts_recent);
1147:c:/Users/Black_Life/STM32Cube/Repository/STM32Cube_FW_F4_V1.26.2/Middlewares/Third_Party/LwIP/src/core\tcp_out.c **** }
1148:c:/Users/Black_Life/STM32Cube/Repository/STM32Cube_FW_F4_V1.26.2/Middlewares/Third_Party/LwIP/src/core\tcp_out.c **** #endif
1149:c:/Users/Black_Life/STM32Cube/Repository/STM32Cube_FW_F4_V1.26.2/Middlewares/Third_Party/LwIP/src/core\tcp_out.c **** 
1150:c:/Users/Black_Life/STM32Cube/Repository/STM32Cube_FW_F4_V1.26.2/Middlewares/Third_Party/LwIP/src/core\tcp_out.c **** #if LWIP_TCP_SACK_OUT
1151:c:/Users/Black_Life/STM32Cube/Repository/STM32Cube_FW_F4_V1.26.2/Middlewares/Third_Party/LwIP/src/core\tcp_out.c **** /**
1152:c:/Users/Black_Life/STM32Cube/Repository/STM32Cube_FW_F4_V1.26.2/Middlewares/Third_Party/LwIP/src/core\tcp_out.c ****  * Calculates the number of SACK entries that should be generated.
1153:c:/Users/Black_Life/STM32Cube/Repository/STM32Cube_FW_F4_V1.26.2/Middlewares/Third_Party/LwIP/src/core\tcp_out.c ****  * It takes into account whether TF_SACK flag is set,
1154:c:/Users/Black_Life/STM32Cube/Repository/STM32Cube_FW_F4_V1.26.2/Middlewares/Third_Party/LwIP/src/core\tcp_out.c ****  * the number of SACK entries in tcp_pcb that are valid,
1155:c:/Users/Black_Life/STM32Cube/Repository/STM32Cube_FW_F4_V1.26.2/Middlewares/Third_Party/LwIP/src/core\tcp_out.c ****  * as well as the available options size.
1156:c:/Users/Black_Life/STM32Cube/Repository/STM32Cube_FW_F4_V1.26.2/Middlewares/Third_Party/LwIP/src/core\tcp_out.c ****  *
1157:c:/Users/Black_Life/STM32Cube/Repository/STM32Cube_FW_F4_V1.26.2/Middlewares/Third_Party/LwIP/src/core\tcp_out.c ****  * @param pcb tcp_pcb
1158:c:/Users/Black_Life/STM32Cube/Repository/STM32Cube_FW_F4_V1.26.2/Middlewares/Third_Party/LwIP/src/core\tcp_out.c ****  * @param optlen the length of other TCP options (in bytes)
1159:c:/Users/Black_Life/STM32Cube/Repository/STM32Cube_FW_F4_V1.26.2/Middlewares/Third_Party/LwIP/src/core\tcp_out.c ****  * @return the number of SACK ranges that can be used
1160:c:/Users/Black_Life/STM32Cube/Repository/STM32Cube_FW_F4_V1.26.2/Middlewares/Third_Party/LwIP/src/core\tcp_out.c ****  */
1161:c:/Users/Black_Life/STM32Cube/Repository/STM32Cube_FW_F4_V1.26.2/Middlewares/Third_Party/LwIP/src/core\tcp_out.c **** static u8_t
1162:c:/Users/Black_Life/STM32Cube/Repository/STM32Cube_FW_F4_V1.26.2/Middlewares/Third_Party/LwIP/src/core\tcp_out.c **** tcp_get_num_sacks(const struct tcp_pcb *pcb, u8_t optlen)
1163:c:/Users/Black_Life/STM32Cube/Repository/STM32Cube_FW_F4_V1.26.2/Middlewares/Third_Party/LwIP/src/core\tcp_out.c **** {
1164:c:/Users/Black_Life/STM32Cube/Repository/STM32Cube_FW_F4_V1.26.2/Middlewares/Third_Party/LwIP/src/core\tcp_out.c ****   u8_t num_sacks = 0;
1165:c:/Users/Black_Life/STM32Cube/Repository/STM32Cube_FW_F4_V1.26.2/Middlewares/Third_Party/LwIP/src/core\tcp_out.c **** 
1166:c:/Users/Black_Life/STM32Cube/Repository/STM32Cube_FW_F4_V1.26.2/Middlewares/Third_Party/LwIP/src/core\tcp_out.c ****   LWIP_ASSERT("tcp_get_num_sacks: invalid pcb", pcb != NULL);
1167:c:/Users/Black_Life/STM32Cube/Repository/STM32Cube_FW_F4_V1.26.2/Middlewares/Third_Party/LwIP/src/core\tcp_out.c **** 
1168:c:/Users/Black_Life/STM32Cube/Repository/STM32Cube_FW_F4_V1.26.2/Middlewares/Third_Party/LwIP/src/core\tcp_out.c ****   if (pcb->flags & TF_SACK) {
1169:c:/Users/Black_Life/STM32Cube/Repository/STM32Cube_FW_F4_V1.26.2/Middlewares/Third_Party/LwIP/src/core\tcp_out.c ****     u8_t i;
1170:c:/Users/Black_Life/STM32Cube/Repository/STM32Cube_FW_F4_V1.26.2/Middlewares/Third_Party/LwIP/src/core\tcp_out.c **** 
1171:c:/Users/Black_Life/STM32Cube/Repository/STM32Cube_FW_F4_V1.26.2/Middlewares/Third_Party/LwIP/src/core\tcp_out.c ****     /* The first SACK takes up 12 bytes (it includes SACK header and two NOP options),
1172:c:/Users/Black_Life/STM32Cube/Repository/STM32Cube_FW_F4_V1.26.2/Middlewares/Third_Party/LwIP/src/core\tcp_out.c ****        each additional one - 8 bytes. */
1173:c:/Users/Black_Life/STM32Cube/Repository/STM32Cube_FW_F4_V1.26.2/Middlewares/Third_Party/LwIP/src/core\tcp_out.c ****     optlen += 12;
1174:c:/Users/Black_Life/STM32Cube/Repository/STM32Cube_FW_F4_V1.26.2/Middlewares/Third_Party/LwIP/src/core\tcp_out.c **** 
1175:c:/Users/Black_Life/STM32Cube/Repository/STM32Cube_FW_F4_V1.26.2/Middlewares/Third_Party/LwIP/src/core\tcp_out.c ****     /* Max options size = 40, number of SACK array entries = LWIP_TCP_MAX_SACK_NUM */
1176:c:/Users/Black_Life/STM32Cube/Repository/STM32Cube_FW_F4_V1.26.2/Middlewares/Third_Party/LwIP/src/core\tcp_out.c ****     for (i = 0; (i < LWIP_TCP_MAX_SACK_NUM) && (optlen <= TCP_MAX_OPTION_BYTES) &&
1177:c:/Users/Black_Life/STM32Cube/Repository/STM32Cube_FW_F4_V1.26.2/Middlewares/Third_Party/LwIP/src/core\tcp_out.c ****          LWIP_TCP_SACK_VALID(pcb, i); ++i) {
1178:c:/Users/Black_Life/STM32Cube/Repository/STM32Cube_FW_F4_V1.26.2/Middlewares/Third_Party/LwIP/src/core\tcp_out.c ****       ++num_sacks;
1179:c:/Users/Black_Life/STM32Cube/Repository/STM32Cube_FW_F4_V1.26.2/Middlewares/Third_Party/LwIP/src/core\tcp_out.c ****       optlen += 8;
1180:c:/Users/Black_Life/STM32Cube/Repository/STM32Cube_FW_F4_V1.26.2/Middlewares/Third_Party/LwIP/src/core\tcp_out.c ****     }
1181:c:/Users/Black_Life/STM32Cube/Repository/STM32Cube_FW_F4_V1.26.2/Middlewares/Third_Party/LwIP/src/core\tcp_out.c ****   }
1182:c:/Users/Black_Life/STM32Cube/Repository/STM32Cube_FW_F4_V1.26.2/Middlewares/Third_Party/LwIP/src/core\tcp_out.c **** 
1183:c:/Users/Black_Life/STM32Cube/Repository/STM32Cube_FW_F4_V1.26.2/Middlewares/Third_Party/LwIP/src/core\tcp_out.c ****   return num_sacks;
1184:c:/Users/Black_Life/STM32Cube/Repository/STM32Cube_FW_F4_V1.26.2/Middlewares/Third_Party/LwIP/src/core\tcp_out.c **** }
1185:c:/Users/Black_Life/STM32Cube/Repository/STM32Cube_FW_F4_V1.26.2/Middlewares/Third_Party/LwIP/src/core\tcp_out.c **** 
1186:c:/Users/Black_Life/STM32Cube/Repository/STM32Cube_FW_F4_V1.26.2/Middlewares/Third_Party/LwIP/src/core\tcp_out.c **** /** Build a SACK option (12 or more bytes long) at the specified options pointer)
1187:c:/Users/Black_Life/STM32Cube/Repository/STM32Cube_FW_F4_V1.26.2/Middlewares/Third_Party/LwIP/src/core\tcp_out.c ****  *
1188:c:/Users/Black_Life/STM32Cube/Repository/STM32Cube_FW_F4_V1.26.2/Middlewares/Third_Party/LwIP/src/core\tcp_out.c ****  * @param pcb tcp_pcb
1189:c:/Users/Black_Life/STM32Cube/Repository/STM32Cube_FW_F4_V1.26.2/Middlewares/Third_Party/LwIP/src/core\tcp_out.c ****  * @param opts option pointer where to store the SACK option
1190:c:/Users/Black_Life/STM32Cube/Repository/STM32Cube_FW_F4_V1.26.2/Middlewares/Third_Party/LwIP/src/core\tcp_out.c ****  * @param num_sacks the number of SACKs to store
1191:c:/Users/Black_Life/STM32Cube/Repository/STM32Cube_FW_F4_V1.26.2/Middlewares/Third_Party/LwIP/src/core\tcp_out.c ****  */
1192:c:/Users/Black_Life/STM32Cube/Repository/STM32Cube_FW_F4_V1.26.2/Middlewares/Third_Party/LwIP/src/core\tcp_out.c **** static void
1193:c:/Users/Black_Life/STM32Cube/Repository/STM32Cube_FW_F4_V1.26.2/Middlewares/Third_Party/LwIP/src/core\tcp_out.c **** tcp_build_sack_option(const struct tcp_pcb *pcb, u32_t *opts, u8_t num_sacks)
1194:c:/Users/Black_Life/STM32Cube/Repository/STM32Cube_FW_F4_V1.26.2/Middlewares/Third_Party/LwIP/src/core\tcp_out.c **** {
1195:c:/Users/Black_Life/STM32Cube/Repository/STM32Cube_FW_F4_V1.26.2/Middlewares/Third_Party/LwIP/src/core\tcp_out.c ****   u8_t i;
1196:c:/Users/Black_Life/STM32Cube/Repository/STM32Cube_FW_F4_V1.26.2/Middlewares/Third_Party/LwIP/src/core\tcp_out.c **** 
ARM GAS  C:\Users\BLACK_~1\AppData\Local\Temp\ccsw9P1a.s 			page 27


1197:c:/Users/Black_Life/STM32Cube/Repository/STM32Cube_FW_F4_V1.26.2/Middlewares/Third_Party/LwIP/src/core\tcp_out.c ****   LWIP_ASSERT("tcp_build_sack_option: invalid pcb", pcb != NULL);
1198:c:/Users/Black_Life/STM32Cube/Repository/STM32Cube_FW_F4_V1.26.2/Middlewares/Third_Party/LwIP/src/core\tcp_out.c ****   LWIP_ASSERT("tcp_build_sack_option: invalid opts", opts != NULL);
1199:c:/Users/Black_Life/STM32Cube/Repository/STM32Cube_FW_F4_V1.26.2/Middlewares/Third_Party/LwIP/src/core\tcp_out.c **** 
1200:c:/Users/Black_Life/STM32Cube/Repository/STM32Cube_FW_F4_V1.26.2/Middlewares/Third_Party/LwIP/src/core\tcp_out.c ****   /* Pad with two NOP options to make everything nicely aligned.
1201:c:/Users/Black_Life/STM32Cube/Repository/STM32Cube_FW_F4_V1.26.2/Middlewares/Third_Party/LwIP/src/core\tcp_out.c ****      We add the length (of just the SACK option, not the NOPs in front of it),
1202:c:/Users/Black_Life/STM32Cube/Repository/STM32Cube_FW_F4_V1.26.2/Middlewares/Third_Party/LwIP/src/core\tcp_out.c ****      which is 2B of header, plus 8B for each SACK. */
1203:c:/Users/Black_Life/STM32Cube/Repository/STM32Cube_FW_F4_V1.26.2/Middlewares/Third_Party/LwIP/src/core\tcp_out.c ****   *(opts++) = PP_HTONL(0x01010500 + 2 + num_sacks * 8);
1204:c:/Users/Black_Life/STM32Cube/Repository/STM32Cube_FW_F4_V1.26.2/Middlewares/Third_Party/LwIP/src/core\tcp_out.c **** 
1205:c:/Users/Black_Life/STM32Cube/Repository/STM32Cube_FW_F4_V1.26.2/Middlewares/Third_Party/LwIP/src/core\tcp_out.c ****   for (i = 0; i < num_sacks; ++i) {
1206:c:/Users/Black_Life/STM32Cube/Repository/STM32Cube_FW_F4_V1.26.2/Middlewares/Third_Party/LwIP/src/core\tcp_out.c ****     *(opts++) = lwip_htonl(pcb->rcv_sacks[i].left);
1207:c:/Users/Black_Life/STM32Cube/Repository/STM32Cube_FW_F4_V1.26.2/Middlewares/Third_Party/LwIP/src/core\tcp_out.c ****     *(opts++) = lwip_htonl(pcb->rcv_sacks[i].right);
1208:c:/Users/Black_Life/STM32Cube/Repository/STM32Cube_FW_F4_V1.26.2/Middlewares/Third_Party/LwIP/src/core\tcp_out.c ****   }
1209:c:/Users/Black_Life/STM32Cube/Repository/STM32Cube_FW_F4_V1.26.2/Middlewares/Third_Party/LwIP/src/core\tcp_out.c **** }
1210:c:/Users/Black_Life/STM32Cube/Repository/STM32Cube_FW_F4_V1.26.2/Middlewares/Third_Party/LwIP/src/core\tcp_out.c **** 
1211:c:/Users/Black_Life/STM32Cube/Repository/STM32Cube_FW_F4_V1.26.2/Middlewares/Third_Party/LwIP/src/core\tcp_out.c **** #endif
1212:c:/Users/Black_Life/STM32Cube/Repository/STM32Cube_FW_F4_V1.26.2/Middlewares/Third_Party/LwIP/src/core\tcp_out.c **** 
1213:c:/Users/Black_Life/STM32Cube/Repository/STM32Cube_FW_F4_V1.26.2/Middlewares/Third_Party/LwIP/src/core\tcp_out.c **** #if LWIP_WND_SCALE
1214:c:/Users/Black_Life/STM32Cube/Repository/STM32Cube_FW_F4_V1.26.2/Middlewares/Third_Party/LwIP/src/core\tcp_out.c **** /** Build a window scale option (3 bytes long) at the specified options pointer)
1215:c:/Users/Black_Life/STM32Cube/Repository/STM32Cube_FW_F4_V1.26.2/Middlewares/Third_Party/LwIP/src/core\tcp_out.c ****  *
1216:c:/Users/Black_Life/STM32Cube/Repository/STM32Cube_FW_F4_V1.26.2/Middlewares/Third_Party/LwIP/src/core\tcp_out.c ****  * @param opts option pointer where to store the window scale option
1217:c:/Users/Black_Life/STM32Cube/Repository/STM32Cube_FW_F4_V1.26.2/Middlewares/Third_Party/LwIP/src/core\tcp_out.c ****  */
1218:c:/Users/Black_Life/STM32Cube/Repository/STM32Cube_FW_F4_V1.26.2/Middlewares/Third_Party/LwIP/src/core\tcp_out.c **** static void
1219:c:/Users/Black_Life/STM32Cube/Repository/STM32Cube_FW_F4_V1.26.2/Middlewares/Third_Party/LwIP/src/core\tcp_out.c **** tcp_build_wnd_scale_option(u32_t *opts)
1220:c:/Users/Black_Life/STM32Cube/Repository/STM32Cube_FW_F4_V1.26.2/Middlewares/Third_Party/LwIP/src/core\tcp_out.c **** {
1221:c:/Users/Black_Life/STM32Cube/Repository/STM32Cube_FW_F4_V1.26.2/Middlewares/Third_Party/LwIP/src/core\tcp_out.c ****   LWIP_ASSERT("tcp_build_wnd_scale_option: invalid opts", opts != NULL);
1222:c:/Users/Black_Life/STM32Cube/Repository/STM32Cube_FW_F4_V1.26.2/Middlewares/Third_Party/LwIP/src/core\tcp_out.c **** 
1223:c:/Users/Black_Life/STM32Cube/Repository/STM32Cube_FW_F4_V1.26.2/Middlewares/Third_Party/LwIP/src/core\tcp_out.c ****   /* Pad with one NOP option to make everything nicely aligned */
1224:c:/Users/Black_Life/STM32Cube/Repository/STM32Cube_FW_F4_V1.26.2/Middlewares/Third_Party/LwIP/src/core\tcp_out.c ****   opts[0] = PP_HTONL(0x01030300 | TCP_RCV_SCALE);
1225:c:/Users/Black_Life/STM32Cube/Repository/STM32Cube_FW_F4_V1.26.2/Middlewares/Third_Party/LwIP/src/core\tcp_out.c **** }
1226:c:/Users/Black_Life/STM32Cube/Repository/STM32Cube_FW_F4_V1.26.2/Middlewares/Third_Party/LwIP/src/core\tcp_out.c **** #endif
1227:c:/Users/Black_Life/STM32Cube/Repository/STM32Cube_FW_F4_V1.26.2/Middlewares/Third_Party/LwIP/src/core\tcp_out.c **** 
1228:c:/Users/Black_Life/STM32Cube/Repository/STM32Cube_FW_F4_V1.26.2/Middlewares/Third_Party/LwIP/src/core\tcp_out.c **** /**
1229:c:/Users/Black_Life/STM32Cube/Repository/STM32Cube_FW_F4_V1.26.2/Middlewares/Third_Party/LwIP/src/core\tcp_out.c ****  * @ingroup tcp_raw
1230:c:/Users/Black_Life/STM32Cube/Repository/STM32Cube_FW_F4_V1.26.2/Middlewares/Third_Party/LwIP/src/core\tcp_out.c ****  * Find out what we can send and send it
1231:c:/Users/Black_Life/STM32Cube/Repository/STM32Cube_FW_F4_V1.26.2/Middlewares/Third_Party/LwIP/src/core\tcp_out.c ****  *
1232:c:/Users/Black_Life/STM32Cube/Repository/STM32Cube_FW_F4_V1.26.2/Middlewares/Third_Party/LwIP/src/core\tcp_out.c ****  * @param pcb Protocol control block for the TCP connection to send data
1233:c:/Users/Black_Life/STM32Cube/Repository/STM32Cube_FW_F4_V1.26.2/Middlewares/Third_Party/LwIP/src/core\tcp_out.c ****  * @return ERR_OK if data has been sent or nothing to send
1234:c:/Users/Black_Life/STM32Cube/Repository/STM32Cube_FW_F4_V1.26.2/Middlewares/Third_Party/LwIP/src/core\tcp_out.c ****  *         another err_t on error
1235:c:/Users/Black_Life/STM32Cube/Repository/STM32Cube_FW_F4_V1.26.2/Middlewares/Third_Party/LwIP/src/core\tcp_out.c ****  */
1236:c:/Users/Black_Life/STM32Cube/Repository/STM32Cube_FW_F4_V1.26.2/Middlewares/Third_Party/LwIP/src/core\tcp_out.c **** err_t
1237:c:/Users/Black_Life/STM32Cube/Repository/STM32Cube_FW_F4_V1.26.2/Middlewares/Third_Party/LwIP/src/core\tcp_out.c **** tcp_output(struct tcp_pcb *pcb)
1238:c:/Users/Black_Life/STM32Cube/Repository/STM32Cube_FW_F4_V1.26.2/Middlewares/Third_Party/LwIP/src/core\tcp_out.c **** {
1239:c:/Users/Black_Life/STM32Cube/Repository/STM32Cube_FW_F4_V1.26.2/Middlewares/Third_Party/LwIP/src/core\tcp_out.c ****   struct tcp_seg *seg, *useg;
1240:c:/Users/Black_Life/STM32Cube/Repository/STM32Cube_FW_F4_V1.26.2/Middlewares/Third_Party/LwIP/src/core\tcp_out.c ****   u32_t wnd, snd_nxt;
1241:c:/Users/Black_Life/STM32Cube/Repository/STM32Cube_FW_F4_V1.26.2/Middlewares/Third_Party/LwIP/src/core\tcp_out.c ****   err_t err;
1242:c:/Users/Black_Life/STM32Cube/Repository/STM32Cube_FW_F4_V1.26.2/Middlewares/Third_Party/LwIP/src/core\tcp_out.c ****   struct netif *netif;
1243:c:/Users/Black_Life/STM32Cube/Repository/STM32Cube_FW_F4_V1.26.2/Middlewares/Third_Party/LwIP/src/core\tcp_out.c **** #if TCP_CWND_DEBUG
1244:c:/Users/Black_Life/STM32Cube/Repository/STM32Cube_FW_F4_V1.26.2/Middlewares/Third_Party/LwIP/src/core\tcp_out.c ****   s16_t i = 0;
1245:c:/Users/Black_Life/STM32Cube/Repository/STM32Cube_FW_F4_V1.26.2/Middlewares/Third_Party/LwIP/src/core\tcp_out.c **** #endif /* TCP_CWND_DEBUG */
1246:c:/Users/Black_Life/STM32Cube/Repository/STM32Cube_FW_F4_V1.26.2/Middlewares/Third_Party/LwIP/src/core\tcp_out.c **** 
1247:c:/Users/Black_Life/STM32Cube/Repository/STM32Cube_FW_F4_V1.26.2/Middlewares/Third_Party/LwIP/src/core\tcp_out.c ****   LWIP_ASSERT_CORE_LOCKED();
1248:c:/Users/Black_Life/STM32Cube/Repository/STM32Cube_FW_F4_V1.26.2/Middlewares/Third_Party/LwIP/src/core\tcp_out.c **** 
1249:c:/Users/Black_Life/STM32Cube/Repository/STM32Cube_FW_F4_V1.26.2/Middlewares/Third_Party/LwIP/src/core\tcp_out.c ****   LWIP_ASSERT("tcp_output: invalid pcb", pcb != NULL);
1250:c:/Users/Black_Life/STM32Cube/Repository/STM32Cube_FW_F4_V1.26.2/Middlewares/Third_Party/LwIP/src/core\tcp_out.c ****   /* pcb->state LISTEN not allowed here */
1251:c:/Users/Black_Life/STM32Cube/Repository/STM32Cube_FW_F4_V1.26.2/Middlewares/Third_Party/LwIP/src/core\tcp_out.c ****   LWIP_ASSERT("don't call tcp_output for listen-pcbs",
1252:c:/Users/Black_Life/STM32Cube/Repository/STM32Cube_FW_F4_V1.26.2/Middlewares/Third_Party/LwIP/src/core\tcp_out.c ****               pcb->state != LISTEN);
1253:c:/Users/Black_Life/STM32Cube/Repository/STM32Cube_FW_F4_V1.26.2/Middlewares/Third_Party/LwIP/src/core\tcp_out.c **** 
ARM GAS  C:\Users\BLACK_~1\AppData\Local\Temp\ccsw9P1a.s 			page 28


1254:c:/Users/Black_Life/STM32Cube/Repository/STM32Cube_FW_F4_V1.26.2/Middlewares/Third_Party/LwIP/src/core\tcp_out.c ****   /* First, check if we are invoked by the TCP input processing
1255:c:/Users/Black_Life/STM32Cube/Repository/STM32Cube_FW_F4_V1.26.2/Middlewares/Third_Party/LwIP/src/core\tcp_out.c ****      code. If so, we do not output anything. Instead, we rely on the
1256:c:/Users/Black_Life/STM32Cube/Repository/STM32Cube_FW_F4_V1.26.2/Middlewares/Third_Party/LwIP/src/core\tcp_out.c ****      input processing code to call us when input processing is done
1257:c:/Users/Black_Life/STM32Cube/Repository/STM32Cube_FW_F4_V1.26.2/Middlewares/Third_Party/LwIP/src/core\tcp_out.c ****      with. */
1258:c:/Users/Black_Life/STM32Cube/Repository/STM32Cube_FW_F4_V1.26.2/Middlewares/Third_Party/LwIP/src/core\tcp_out.c ****   if (tcp_input_pcb == pcb) {
1259:c:/Users/Black_Life/STM32Cube/Repository/STM32Cube_FW_F4_V1.26.2/Middlewares/Third_Party/LwIP/src/core\tcp_out.c ****     return ERR_OK;
1260:c:/Users/Black_Life/STM32Cube/Repository/STM32Cube_FW_F4_V1.26.2/Middlewares/Third_Party/LwIP/src/core\tcp_out.c ****   }
1261:c:/Users/Black_Life/STM32Cube/Repository/STM32Cube_FW_F4_V1.26.2/Middlewares/Third_Party/LwIP/src/core\tcp_out.c **** 
1262:c:/Users/Black_Life/STM32Cube/Repository/STM32Cube_FW_F4_V1.26.2/Middlewares/Third_Party/LwIP/src/core\tcp_out.c ****   wnd = LWIP_MIN(pcb->snd_wnd, pcb->cwnd);
1263:c:/Users/Black_Life/STM32Cube/Repository/STM32Cube_FW_F4_V1.26.2/Middlewares/Third_Party/LwIP/src/core\tcp_out.c **** 
1264:c:/Users/Black_Life/STM32Cube/Repository/STM32Cube_FW_F4_V1.26.2/Middlewares/Third_Party/LwIP/src/core\tcp_out.c ****   seg = pcb->unsent;
1265:c:/Users/Black_Life/STM32Cube/Repository/STM32Cube_FW_F4_V1.26.2/Middlewares/Third_Party/LwIP/src/core\tcp_out.c **** 
1266:c:/Users/Black_Life/STM32Cube/Repository/STM32Cube_FW_F4_V1.26.2/Middlewares/Third_Party/LwIP/src/core\tcp_out.c ****   if (seg == NULL) {
1267:c:/Users/Black_Life/STM32Cube/Repository/STM32Cube_FW_F4_V1.26.2/Middlewares/Third_Party/LwIP/src/core\tcp_out.c ****     LWIP_DEBUGF(TCP_OUTPUT_DEBUG, ("tcp_output: nothing to send (%p)\n",
1268:c:/Users/Black_Life/STM32Cube/Repository/STM32Cube_FW_F4_V1.26.2/Middlewares/Third_Party/LwIP/src/core\tcp_out.c ****                                    (void *)pcb->unsent));
1269:c:/Users/Black_Life/STM32Cube/Repository/STM32Cube_FW_F4_V1.26.2/Middlewares/Third_Party/LwIP/src/core\tcp_out.c ****     LWIP_DEBUGF(TCP_CWND_DEBUG, ("tcp_output: snd_wnd %"TCPWNDSIZE_F
1270:c:/Users/Black_Life/STM32Cube/Repository/STM32Cube_FW_F4_V1.26.2/Middlewares/Third_Party/LwIP/src/core\tcp_out.c ****                                  ", cwnd %"TCPWNDSIZE_F", wnd %"U32_F
1271:c:/Users/Black_Life/STM32Cube/Repository/STM32Cube_FW_F4_V1.26.2/Middlewares/Third_Party/LwIP/src/core\tcp_out.c ****                                  ", seg == NULL, ack %"U32_F"\n",
1272:c:/Users/Black_Life/STM32Cube/Repository/STM32Cube_FW_F4_V1.26.2/Middlewares/Third_Party/LwIP/src/core\tcp_out.c ****                                  pcb->snd_wnd, pcb->cwnd, wnd, pcb->lastack));
1273:c:/Users/Black_Life/STM32Cube/Repository/STM32Cube_FW_F4_V1.26.2/Middlewares/Third_Party/LwIP/src/core\tcp_out.c **** 
1274:c:/Users/Black_Life/STM32Cube/Repository/STM32Cube_FW_F4_V1.26.2/Middlewares/Third_Party/LwIP/src/core\tcp_out.c ****     /* If the TF_ACK_NOW flag is set and the ->unsent queue is empty, construct
1275:c:/Users/Black_Life/STM32Cube/Repository/STM32Cube_FW_F4_V1.26.2/Middlewares/Third_Party/LwIP/src/core\tcp_out.c ****      * an empty ACK segment and send it. */
1276:c:/Users/Black_Life/STM32Cube/Repository/STM32Cube_FW_F4_V1.26.2/Middlewares/Third_Party/LwIP/src/core\tcp_out.c ****     if (pcb->flags & TF_ACK_NOW) {
1277:c:/Users/Black_Life/STM32Cube/Repository/STM32Cube_FW_F4_V1.26.2/Middlewares/Third_Party/LwIP/src/core\tcp_out.c ****       return tcp_send_empty_ack(pcb);
1278:c:/Users/Black_Life/STM32Cube/Repository/STM32Cube_FW_F4_V1.26.2/Middlewares/Third_Party/LwIP/src/core\tcp_out.c ****     }
1279:c:/Users/Black_Life/STM32Cube/Repository/STM32Cube_FW_F4_V1.26.2/Middlewares/Third_Party/LwIP/src/core\tcp_out.c ****     /* nothing to send: shortcut out of here */
1280:c:/Users/Black_Life/STM32Cube/Repository/STM32Cube_FW_F4_V1.26.2/Middlewares/Third_Party/LwIP/src/core\tcp_out.c ****     goto output_done;
1281:c:/Users/Black_Life/STM32Cube/Repository/STM32Cube_FW_F4_V1.26.2/Middlewares/Third_Party/LwIP/src/core\tcp_out.c ****   } else {
1282:c:/Users/Black_Life/STM32Cube/Repository/STM32Cube_FW_F4_V1.26.2/Middlewares/Third_Party/LwIP/src/core\tcp_out.c ****     LWIP_DEBUGF(TCP_CWND_DEBUG,
1283:c:/Users/Black_Life/STM32Cube/Repository/STM32Cube_FW_F4_V1.26.2/Middlewares/Third_Party/LwIP/src/core\tcp_out.c ****                 ("tcp_output: snd_wnd %"TCPWNDSIZE_F", cwnd %"TCPWNDSIZE_F", wnd %"U32_F
1284:c:/Users/Black_Life/STM32Cube/Repository/STM32Cube_FW_F4_V1.26.2/Middlewares/Third_Party/LwIP/src/core\tcp_out.c ****                  ", effwnd %"U32_F", seq %"U32_F", ack %"U32_F"\n",
1285:c:/Users/Black_Life/STM32Cube/Repository/STM32Cube_FW_F4_V1.26.2/Middlewares/Third_Party/LwIP/src/core\tcp_out.c ****                  pcb->snd_wnd, pcb->cwnd, wnd,
1286:c:/Users/Black_Life/STM32Cube/Repository/STM32Cube_FW_F4_V1.26.2/Middlewares/Third_Party/LwIP/src/core\tcp_out.c ****                  lwip_ntohl(seg->tcphdr->seqno) - pcb->lastack + seg->len,
1287:c:/Users/Black_Life/STM32Cube/Repository/STM32Cube_FW_F4_V1.26.2/Middlewares/Third_Party/LwIP/src/core\tcp_out.c ****                  lwip_ntohl(seg->tcphdr->seqno), pcb->lastack));
1288:c:/Users/Black_Life/STM32Cube/Repository/STM32Cube_FW_F4_V1.26.2/Middlewares/Third_Party/LwIP/src/core\tcp_out.c ****   }
1289:c:/Users/Black_Life/STM32Cube/Repository/STM32Cube_FW_F4_V1.26.2/Middlewares/Third_Party/LwIP/src/core\tcp_out.c **** 
1290:c:/Users/Black_Life/STM32Cube/Repository/STM32Cube_FW_F4_V1.26.2/Middlewares/Third_Party/LwIP/src/core\tcp_out.c ****   netif = tcp_route(pcb, &pcb->local_ip, &pcb->remote_ip);
1291:c:/Users/Black_Life/STM32Cube/Repository/STM32Cube_FW_F4_V1.26.2/Middlewares/Third_Party/LwIP/src/core\tcp_out.c ****   if (netif == NULL) {
1292:c:/Users/Black_Life/STM32Cube/Repository/STM32Cube_FW_F4_V1.26.2/Middlewares/Third_Party/LwIP/src/core\tcp_out.c ****     return ERR_RTE;
1293:c:/Users/Black_Life/STM32Cube/Repository/STM32Cube_FW_F4_V1.26.2/Middlewares/Third_Party/LwIP/src/core\tcp_out.c ****   }
1294:c:/Users/Black_Life/STM32Cube/Repository/STM32Cube_FW_F4_V1.26.2/Middlewares/Third_Party/LwIP/src/core\tcp_out.c **** 
1295:c:/Users/Black_Life/STM32Cube/Repository/STM32Cube_FW_F4_V1.26.2/Middlewares/Third_Party/LwIP/src/core\tcp_out.c ****   /* If we don't have a local IP address, we get one from netif */
1296:c:/Users/Black_Life/STM32Cube/Repository/STM32Cube_FW_F4_V1.26.2/Middlewares/Third_Party/LwIP/src/core\tcp_out.c ****   if (ip_addr_isany(&pcb->local_ip)) {
1297:c:/Users/Black_Life/STM32Cube/Repository/STM32Cube_FW_F4_V1.26.2/Middlewares/Third_Party/LwIP/src/core\tcp_out.c ****     const ip_addr_t *local_ip = ip_netif_get_local_ip(netif, &pcb->remote_ip);
1298:c:/Users/Black_Life/STM32Cube/Repository/STM32Cube_FW_F4_V1.26.2/Middlewares/Third_Party/LwIP/src/core\tcp_out.c ****     if (local_ip == NULL) {
1299:c:/Users/Black_Life/STM32Cube/Repository/STM32Cube_FW_F4_V1.26.2/Middlewares/Third_Party/LwIP/src/core\tcp_out.c ****       return ERR_RTE;
1300:c:/Users/Black_Life/STM32Cube/Repository/STM32Cube_FW_F4_V1.26.2/Middlewares/Third_Party/LwIP/src/core\tcp_out.c ****     }
1301:c:/Users/Black_Life/STM32Cube/Repository/STM32Cube_FW_F4_V1.26.2/Middlewares/Third_Party/LwIP/src/core\tcp_out.c ****     ip_addr_copy(pcb->local_ip, *local_ip);
1302:c:/Users/Black_Life/STM32Cube/Repository/STM32Cube_FW_F4_V1.26.2/Middlewares/Third_Party/LwIP/src/core\tcp_out.c ****   }
1303:c:/Users/Black_Life/STM32Cube/Repository/STM32Cube_FW_F4_V1.26.2/Middlewares/Third_Party/LwIP/src/core\tcp_out.c **** 
1304:c:/Users/Black_Life/STM32Cube/Repository/STM32Cube_FW_F4_V1.26.2/Middlewares/Third_Party/LwIP/src/core\tcp_out.c ****   /* Handle the current segment not fitting within the window */
1305:c:/Users/Black_Life/STM32Cube/Repository/STM32Cube_FW_F4_V1.26.2/Middlewares/Third_Party/LwIP/src/core\tcp_out.c ****   if (lwip_ntohl(seg->tcphdr->seqno) - pcb->lastack + seg->len > wnd) {
1306:c:/Users/Black_Life/STM32Cube/Repository/STM32Cube_FW_F4_V1.26.2/Middlewares/Third_Party/LwIP/src/core\tcp_out.c ****     /* We need to start the persistent timer when the next unsent segment does not fit
1307:c:/Users/Black_Life/STM32Cube/Repository/STM32Cube_FW_F4_V1.26.2/Middlewares/Third_Party/LwIP/src/core\tcp_out.c ****      * within the remaining (could be 0) send window and RTO timer is not running (we
1308:c:/Users/Black_Life/STM32Cube/Repository/STM32Cube_FW_F4_V1.26.2/Middlewares/Third_Party/LwIP/src/core\tcp_out.c ****      * have no in-flight data). If window is still too small after persist timer fires,
1309:c:/Users/Black_Life/STM32Cube/Repository/STM32Cube_FW_F4_V1.26.2/Middlewares/Third_Party/LwIP/src/core\tcp_out.c ****      * then we split the segment. We don't consider the congestion window since a cwnd
1310:c:/Users/Black_Life/STM32Cube/Repository/STM32Cube_FW_F4_V1.26.2/Middlewares/Third_Party/LwIP/src/core\tcp_out.c ****      * smaller than 1 SMSS implies in-flight data
ARM GAS  C:\Users\BLACK_~1\AppData\Local\Temp\ccsw9P1a.s 			page 29


1311:c:/Users/Black_Life/STM32Cube/Repository/STM32Cube_FW_F4_V1.26.2/Middlewares/Third_Party/LwIP/src/core\tcp_out.c ****      */
1312:c:/Users/Black_Life/STM32Cube/Repository/STM32Cube_FW_F4_V1.26.2/Middlewares/Third_Party/LwIP/src/core\tcp_out.c ****     if (wnd == pcb->snd_wnd && pcb->unacked == NULL && pcb->persist_backoff == 0) {
1313:c:/Users/Black_Life/STM32Cube/Repository/STM32Cube_FW_F4_V1.26.2/Middlewares/Third_Party/LwIP/src/core\tcp_out.c ****       pcb->persist_cnt = 0;
1314:c:/Users/Black_Life/STM32Cube/Repository/STM32Cube_FW_F4_V1.26.2/Middlewares/Third_Party/LwIP/src/core\tcp_out.c ****       pcb->persist_backoff = 1;
1315:c:/Users/Black_Life/STM32Cube/Repository/STM32Cube_FW_F4_V1.26.2/Middlewares/Third_Party/LwIP/src/core\tcp_out.c ****       pcb->persist_probe = 0;
1316:c:/Users/Black_Life/STM32Cube/Repository/STM32Cube_FW_F4_V1.26.2/Middlewares/Third_Party/LwIP/src/core\tcp_out.c ****     }
1317:c:/Users/Black_Life/STM32Cube/Repository/STM32Cube_FW_F4_V1.26.2/Middlewares/Third_Party/LwIP/src/core\tcp_out.c ****     /* We need an ACK, but can't send data now, so send an empty ACK */
1318:c:/Users/Black_Life/STM32Cube/Repository/STM32Cube_FW_F4_V1.26.2/Middlewares/Third_Party/LwIP/src/core\tcp_out.c ****     if (pcb->flags & TF_ACK_NOW) {
1319:c:/Users/Black_Life/STM32Cube/Repository/STM32Cube_FW_F4_V1.26.2/Middlewares/Third_Party/LwIP/src/core\tcp_out.c ****       return tcp_send_empty_ack(pcb);
1320:c:/Users/Black_Life/STM32Cube/Repository/STM32Cube_FW_F4_V1.26.2/Middlewares/Third_Party/LwIP/src/core\tcp_out.c ****     }
1321:c:/Users/Black_Life/STM32Cube/Repository/STM32Cube_FW_F4_V1.26.2/Middlewares/Third_Party/LwIP/src/core\tcp_out.c ****     goto output_done;
1322:c:/Users/Black_Life/STM32Cube/Repository/STM32Cube_FW_F4_V1.26.2/Middlewares/Third_Party/LwIP/src/core\tcp_out.c ****   }
1323:c:/Users/Black_Life/STM32Cube/Repository/STM32Cube_FW_F4_V1.26.2/Middlewares/Third_Party/LwIP/src/core\tcp_out.c ****   /* Stop persist timer, above conditions are not active */
1324:c:/Users/Black_Life/STM32Cube/Repository/STM32Cube_FW_F4_V1.26.2/Middlewares/Third_Party/LwIP/src/core\tcp_out.c ****   pcb->persist_backoff = 0;
1325:c:/Users/Black_Life/STM32Cube/Repository/STM32Cube_FW_F4_V1.26.2/Middlewares/Third_Party/LwIP/src/core\tcp_out.c **** 
1326:c:/Users/Black_Life/STM32Cube/Repository/STM32Cube_FW_F4_V1.26.2/Middlewares/Third_Party/LwIP/src/core\tcp_out.c ****   /* useg should point to last segment on unacked queue */
1327:c:/Users/Black_Life/STM32Cube/Repository/STM32Cube_FW_F4_V1.26.2/Middlewares/Third_Party/LwIP/src/core\tcp_out.c ****   useg = pcb->unacked;
1328:c:/Users/Black_Life/STM32Cube/Repository/STM32Cube_FW_F4_V1.26.2/Middlewares/Third_Party/LwIP/src/core\tcp_out.c ****   if (useg != NULL) {
1329:c:/Users/Black_Life/STM32Cube/Repository/STM32Cube_FW_F4_V1.26.2/Middlewares/Third_Party/LwIP/src/core\tcp_out.c ****     for (; useg->next != NULL; useg = useg->next);
1330:c:/Users/Black_Life/STM32Cube/Repository/STM32Cube_FW_F4_V1.26.2/Middlewares/Third_Party/LwIP/src/core\tcp_out.c ****   }
1331:c:/Users/Black_Life/STM32Cube/Repository/STM32Cube_FW_F4_V1.26.2/Middlewares/Third_Party/LwIP/src/core\tcp_out.c ****   /* data available and window allows it to be sent? */
1332:c:/Users/Black_Life/STM32Cube/Repository/STM32Cube_FW_F4_V1.26.2/Middlewares/Third_Party/LwIP/src/core\tcp_out.c ****   while (seg != NULL &&
1333:c:/Users/Black_Life/STM32Cube/Repository/STM32Cube_FW_F4_V1.26.2/Middlewares/Third_Party/LwIP/src/core\tcp_out.c ****          lwip_ntohl(seg->tcphdr->seqno) - pcb->lastack + seg->len <= wnd) {
1334:c:/Users/Black_Life/STM32Cube/Repository/STM32Cube_FW_F4_V1.26.2/Middlewares/Third_Party/LwIP/src/core\tcp_out.c ****     LWIP_ASSERT("RST not expected here!",
1335:c:/Users/Black_Life/STM32Cube/Repository/STM32Cube_FW_F4_V1.26.2/Middlewares/Third_Party/LwIP/src/core\tcp_out.c ****                 (TCPH_FLAGS(seg->tcphdr) & TCP_RST) == 0);
1336:c:/Users/Black_Life/STM32Cube/Repository/STM32Cube_FW_F4_V1.26.2/Middlewares/Third_Party/LwIP/src/core\tcp_out.c ****     /* Stop sending if the nagle algorithm would prevent it
1337:c:/Users/Black_Life/STM32Cube/Repository/STM32Cube_FW_F4_V1.26.2/Middlewares/Third_Party/LwIP/src/core\tcp_out.c ****      * Don't stop:
1338:c:/Users/Black_Life/STM32Cube/Repository/STM32Cube_FW_F4_V1.26.2/Middlewares/Third_Party/LwIP/src/core\tcp_out.c ****      * - if tcp_write had a memory error before (prevent delayed ACK timeout) or
1339:c:/Users/Black_Life/STM32Cube/Repository/STM32Cube_FW_F4_V1.26.2/Middlewares/Third_Party/LwIP/src/core\tcp_out.c ****      * - if FIN was already enqueued for this PCB (SYN is always alone in a segment -
1340:c:/Users/Black_Life/STM32Cube/Repository/STM32Cube_FW_F4_V1.26.2/Middlewares/Third_Party/LwIP/src/core\tcp_out.c ****      *   either seg->next != NULL or pcb->unacked == NULL;
1341:c:/Users/Black_Life/STM32Cube/Repository/STM32Cube_FW_F4_V1.26.2/Middlewares/Third_Party/LwIP/src/core\tcp_out.c ****      *   RST is no sent using tcp_write/tcp_output.
1342:c:/Users/Black_Life/STM32Cube/Repository/STM32Cube_FW_F4_V1.26.2/Middlewares/Third_Party/LwIP/src/core\tcp_out.c ****      */
1343:c:/Users/Black_Life/STM32Cube/Repository/STM32Cube_FW_F4_V1.26.2/Middlewares/Third_Party/LwIP/src/core\tcp_out.c ****     if ((tcp_do_output_nagle(pcb) == 0) &&
1344:c:/Users/Black_Life/STM32Cube/Repository/STM32Cube_FW_F4_V1.26.2/Middlewares/Third_Party/LwIP/src/core\tcp_out.c ****         ((pcb->flags & (TF_NAGLEMEMERR | TF_FIN)) == 0)) {
1345:c:/Users/Black_Life/STM32Cube/Repository/STM32Cube_FW_F4_V1.26.2/Middlewares/Third_Party/LwIP/src/core\tcp_out.c ****       break;
1346:c:/Users/Black_Life/STM32Cube/Repository/STM32Cube_FW_F4_V1.26.2/Middlewares/Third_Party/LwIP/src/core\tcp_out.c ****     }
1347:c:/Users/Black_Life/STM32Cube/Repository/STM32Cube_FW_F4_V1.26.2/Middlewares/Third_Party/LwIP/src/core\tcp_out.c **** #if TCP_CWND_DEBUG
1348:c:/Users/Black_Life/STM32Cube/Repository/STM32Cube_FW_F4_V1.26.2/Middlewares/Third_Party/LwIP/src/core\tcp_out.c ****     LWIP_DEBUGF(TCP_CWND_DEBUG, ("tcp_output: snd_wnd %"TCPWNDSIZE_F", cwnd %"TCPWNDSIZE_F", wnd %"
1349:c:/Users/Black_Life/STM32Cube/Repository/STM32Cube_FW_F4_V1.26.2/Middlewares/Third_Party/LwIP/src/core\tcp_out.c ****                                  pcb->snd_wnd, pcb->cwnd, wnd,
1350:c:/Users/Black_Life/STM32Cube/Repository/STM32Cube_FW_F4_V1.26.2/Middlewares/Third_Party/LwIP/src/core\tcp_out.c ****                                  lwip_ntohl(seg->tcphdr->seqno) + seg->len -
1351:c:/Users/Black_Life/STM32Cube/Repository/STM32Cube_FW_F4_V1.26.2/Middlewares/Third_Party/LwIP/src/core\tcp_out.c ****                                  pcb->lastack,
1352:c:/Users/Black_Life/STM32Cube/Repository/STM32Cube_FW_F4_V1.26.2/Middlewares/Third_Party/LwIP/src/core\tcp_out.c ****                                  lwip_ntohl(seg->tcphdr->seqno), pcb->lastack, i));
1353:c:/Users/Black_Life/STM32Cube/Repository/STM32Cube_FW_F4_V1.26.2/Middlewares/Third_Party/LwIP/src/core\tcp_out.c ****     ++i;
1354:c:/Users/Black_Life/STM32Cube/Repository/STM32Cube_FW_F4_V1.26.2/Middlewares/Third_Party/LwIP/src/core\tcp_out.c **** #endif /* TCP_CWND_DEBUG */
1355:c:/Users/Black_Life/STM32Cube/Repository/STM32Cube_FW_F4_V1.26.2/Middlewares/Third_Party/LwIP/src/core\tcp_out.c **** 
1356:c:/Users/Black_Life/STM32Cube/Repository/STM32Cube_FW_F4_V1.26.2/Middlewares/Third_Party/LwIP/src/core\tcp_out.c ****     if (pcb->state != SYN_SENT) {
1357:c:/Users/Black_Life/STM32Cube/Repository/STM32Cube_FW_F4_V1.26.2/Middlewares/Third_Party/LwIP/src/core\tcp_out.c ****       TCPH_SET_FLAG(seg->tcphdr, TCP_ACK);
1358:c:/Users/Black_Life/STM32Cube/Repository/STM32Cube_FW_F4_V1.26.2/Middlewares/Third_Party/LwIP/src/core\tcp_out.c ****     }
1359:c:/Users/Black_Life/STM32Cube/Repository/STM32Cube_FW_F4_V1.26.2/Middlewares/Third_Party/LwIP/src/core\tcp_out.c **** 
1360:c:/Users/Black_Life/STM32Cube/Repository/STM32Cube_FW_F4_V1.26.2/Middlewares/Third_Party/LwIP/src/core\tcp_out.c ****     err = tcp_output_segment(seg, pcb, netif);
1361:c:/Users/Black_Life/STM32Cube/Repository/STM32Cube_FW_F4_V1.26.2/Middlewares/Third_Party/LwIP/src/core\tcp_out.c ****     if (err != ERR_OK) {
1362:c:/Users/Black_Life/STM32Cube/Repository/STM32Cube_FW_F4_V1.26.2/Middlewares/Third_Party/LwIP/src/core\tcp_out.c ****       /* segment could not be sent, for whatever reason */
1363:c:/Users/Black_Life/STM32Cube/Repository/STM32Cube_FW_F4_V1.26.2/Middlewares/Third_Party/LwIP/src/core\tcp_out.c ****       tcp_set_flags(pcb, TF_NAGLEMEMERR);
1364:c:/Users/Black_Life/STM32Cube/Repository/STM32Cube_FW_F4_V1.26.2/Middlewares/Third_Party/LwIP/src/core\tcp_out.c ****       return err;
1365:c:/Users/Black_Life/STM32Cube/Repository/STM32Cube_FW_F4_V1.26.2/Middlewares/Third_Party/LwIP/src/core\tcp_out.c ****     }
1366:c:/Users/Black_Life/STM32Cube/Repository/STM32Cube_FW_F4_V1.26.2/Middlewares/Third_Party/LwIP/src/core\tcp_out.c **** #if TCP_OVERSIZE_DBGCHECK
1367:c:/Users/Black_Life/STM32Cube/Repository/STM32Cube_FW_F4_V1.26.2/Middlewares/Third_Party/LwIP/src/core\tcp_out.c ****     seg->oversize_left = 0;
ARM GAS  C:\Users\BLACK_~1\AppData\Local\Temp\ccsw9P1a.s 			page 30


1368:c:/Users/Black_Life/STM32Cube/Repository/STM32Cube_FW_F4_V1.26.2/Middlewares/Third_Party/LwIP/src/core\tcp_out.c **** #endif /* TCP_OVERSIZE_DBGCHECK */
1369:c:/Users/Black_Life/STM32Cube/Repository/STM32Cube_FW_F4_V1.26.2/Middlewares/Third_Party/LwIP/src/core\tcp_out.c ****     pcb->unsent = seg->next;
1370:c:/Users/Black_Life/STM32Cube/Repository/STM32Cube_FW_F4_V1.26.2/Middlewares/Third_Party/LwIP/src/core\tcp_out.c ****     if (pcb->state != SYN_SENT) {
1371:c:/Users/Black_Life/STM32Cube/Repository/STM32Cube_FW_F4_V1.26.2/Middlewares/Third_Party/LwIP/src/core\tcp_out.c ****       tcp_clear_flags(pcb, TF_ACK_DELAY | TF_ACK_NOW);
1372:c:/Users/Black_Life/STM32Cube/Repository/STM32Cube_FW_F4_V1.26.2/Middlewares/Third_Party/LwIP/src/core\tcp_out.c ****     }
1373:c:/Users/Black_Life/STM32Cube/Repository/STM32Cube_FW_F4_V1.26.2/Middlewares/Third_Party/LwIP/src/core\tcp_out.c ****     snd_nxt = lwip_ntohl(seg->tcphdr->seqno) + TCP_TCPLEN(seg);
1374:c:/Users/Black_Life/STM32Cube/Repository/STM32Cube_FW_F4_V1.26.2/Middlewares/Third_Party/LwIP/src/core\tcp_out.c ****     if (TCP_SEQ_LT(pcb->snd_nxt, snd_nxt)) {
1375:c:/Users/Black_Life/STM32Cube/Repository/STM32Cube_FW_F4_V1.26.2/Middlewares/Third_Party/LwIP/src/core\tcp_out.c ****       pcb->snd_nxt = snd_nxt;
1376:c:/Users/Black_Life/STM32Cube/Repository/STM32Cube_FW_F4_V1.26.2/Middlewares/Third_Party/LwIP/src/core\tcp_out.c ****     }
1377:c:/Users/Black_Life/STM32Cube/Repository/STM32Cube_FW_F4_V1.26.2/Middlewares/Third_Party/LwIP/src/core\tcp_out.c ****     /* put segment on unacknowledged list if length > 0 */
1378:c:/Users/Black_Life/STM32Cube/Repository/STM32Cube_FW_F4_V1.26.2/Middlewares/Third_Party/LwIP/src/core\tcp_out.c ****     if (TCP_TCPLEN(seg) > 0) {
1379:c:/Users/Black_Life/STM32Cube/Repository/STM32Cube_FW_F4_V1.26.2/Middlewares/Third_Party/LwIP/src/core\tcp_out.c ****       seg->next = NULL;
1380:c:/Users/Black_Life/STM32Cube/Repository/STM32Cube_FW_F4_V1.26.2/Middlewares/Third_Party/LwIP/src/core\tcp_out.c ****       /* unacked list is empty? */
1381:c:/Users/Black_Life/STM32Cube/Repository/STM32Cube_FW_F4_V1.26.2/Middlewares/Third_Party/LwIP/src/core\tcp_out.c ****       if (pcb->unacked == NULL) {
1382:c:/Users/Black_Life/STM32Cube/Repository/STM32Cube_FW_F4_V1.26.2/Middlewares/Third_Party/LwIP/src/core\tcp_out.c ****         pcb->unacked = seg;
1383:c:/Users/Black_Life/STM32Cube/Repository/STM32Cube_FW_F4_V1.26.2/Middlewares/Third_Party/LwIP/src/core\tcp_out.c ****         useg = seg;
1384:c:/Users/Black_Life/STM32Cube/Repository/STM32Cube_FW_F4_V1.26.2/Middlewares/Third_Party/LwIP/src/core\tcp_out.c ****         /* unacked list is not empty? */
1385:c:/Users/Black_Life/STM32Cube/Repository/STM32Cube_FW_F4_V1.26.2/Middlewares/Third_Party/LwIP/src/core\tcp_out.c ****       } else {
1386:c:/Users/Black_Life/STM32Cube/Repository/STM32Cube_FW_F4_V1.26.2/Middlewares/Third_Party/LwIP/src/core\tcp_out.c ****         /* In the case of fast retransmit, the packet should not go to the tail
1387:c:/Users/Black_Life/STM32Cube/Repository/STM32Cube_FW_F4_V1.26.2/Middlewares/Third_Party/LwIP/src/core\tcp_out.c ****          * of the unacked queue, but rather somewhere before it. We need to check for
1388:c:/Users/Black_Life/STM32Cube/Repository/STM32Cube_FW_F4_V1.26.2/Middlewares/Third_Party/LwIP/src/core\tcp_out.c ****          * this case. -STJ Jul 27, 2004 */
1389:c:/Users/Black_Life/STM32Cube/Repository/STM32Cube_FW_F4_V1.26.2/Middlewares/Third_Party/LwIP/src/core\tcp_out.c ****         if (TCP_SEQ_LT(lwip_ntohl(seg->tcphdr->seqno), lwip_ntohl(useg->tcphdr->seqno))) {
1390:c:/Users/Black_Life/STM32Cube/Repository/STM32Cube_FW_F4_V1.26.2/Middlewares/Third_Party/LwIP/src/core\tcp_out.c ****           /* add segment to before tail of unacked list, keeping the list sorted */
1391:c:/Users/Black_Life/STM32Cube/Repository/STM32Cube_FW_F4_V1.26.2/Middlewares/Third_Party/LwIP/src/core\tcp_out.c ****           struct tcp_seg **cur_seg = &(pcb->unacked);
1392:c:/Users/Black_Life/STM32Cube/Repository/STM32Cube_FW_F4_V1.26.2/Middlewares/Third_Party/LwIP/src/core\tcp_out.c ****           while (*cur_seg &&
1393:c:/Users/Black_Life/STM32Cube/Repository/STM32Cube_FW_F4_V1.26.2/Middlewares/Third_Party/LwIP/src/core\tcp_out.c ****                  TCP_SEQ_LT(lwip_ntohl((*cur_seg)->tcphdr->seqno), lwip_ntohl(seg->tcphdr->seqno)))
1394:c:/Users/Black_Life/STM32Cube/Repository/STM32Cube_FW_F4_V1.26.2/Middlewares/Third_Party/LwIP/src/core\tcp_out.c ****             cur_seg = &((*cur_seg)->next );
1395:c:/Users/Black_Life/STM32Cube/Repository/STM32Cube_FW_F4_V1.26.2/Middlewares/Third_Party/LwIP/src/core\tcp_out.c ****           }
1396:c:/Users/Black_Life/STM32Cube/Repository/STM32Cube_FW_F4_V1.26.2/Middlewares/Third_Party/LwIP/src/core\tcp_out.c ****           seg->next = (*cur_seg);
1397:c:/Users/Black_Life/STM32Cube/Repository/STM32Cube_FW_F4_V1.26.2/Middlewares/Third_Party/LwIP/src/core\tcp_out.c ****           (*cur_seg) = seg;
1398:c:/Users/Black_Life/STM32Cube/Repository/STM32Cube_FW_F4_V1.26.2/Middlewares/Third_Party/LwIP/src/core\tcp_out.c ****         } else {
1399:c:/Users/Black_Life/STM32Cube/Repository/STM32Cube_FW_F4_V1.26.2/Middlewares/Third_Party/LwIP/src/core\tcp_out.c ****           /* add segment to tail of unacked list */
1400:c:/Users/Black_Life/STM32Cube/Repository/STM32Cube_FW_F4_V1.26.2/Middlewares/Third_Party/LwIP/src/core\tcp_out.c ****           useg->next = seg;
1401:c:/Users/Black_Life/STM32Cube/Repository/STM32Cube_FW_F4_V1.26.2/Middlewares/Third_Party/LwIP/src/core\tcp_out.c ****           useg = useg->next;
1402:c:/Users/Black_Life/STM32Cube/Repository/STM32Cube_FW_F4_V1.26.2/Middlewares/Third_Party/LwIP/src/core\tcp_out.c ****         }
1403:c:/Users/Black_Life/STM32Cube/Repository/STM32Cube_FW_F4_V1.26.2/Middlewares/Third_Party/LwIP/src/core\tcp_out.c ****       }
1404:c:/Users/Black_Life/STM32Cube/Repository/STM32Cube_FW_F4_V1.26.2/Middlewares/Third_Party/LwIP/src/core\tcp_out.c ****       /* do not queue empty segments on the unacked list */
1405:c:/Users/Black_Life/STM32Cube/Repository/STM32Cube_FW_F4_V1.26.2/Middlewares/Third_Party/LwIP/src/core\tcp_out.c ****     } else {
1406:c:/Users/Black_Life/STM32Cube/Repository/STM32Cube_FW_F4_V1.26.2/Middlewares/Third_Party/LwIP/src/core\tcp_out.c ****       tcp_seg_free(seg);
1407:c:/Users/Black_Life/STM32Cube/Repository/STM32Cube_FW_F4_V1.26.2/Middlewares/Third_Party/LwIP/src/core\tcp_out.c ****     }
1408:c:/Users/Black_Life/STM32Cube/Repository/STM32Cube_FW_F4_V1.26.2/Middlewares/Third_Party/LwIP/src/core\tcp_out.c ****     seg = pcb->unsent;
1409:c:/Users/Black_Life/STM32Cube/Repository/STM32Cube_FW_F4_V1.26.2/Middlewares/Third_Party/LwIP/src/core\tcp_out.c ****   }
1410:c:/Users/Black_Life/STM32Cube/Repository/STM32Cube_FW_F4_V1.26.2/Middlewares/Third_Party/LwIP/src/core\tcp_out.c **** #if TCP_OVERSIZE
1411:c:/Users/Black_Life/STM32Cube/Repository/STM32Cube_FW_F4_V1.26.2/Middlewares/Third_Party/LwIP/src/core\tcp_out.c ****   if (pcb->unsent == NULL) {
1412:c:/Users/Black_Life/STM32Cube/Repository/STM32Cube_FW_F4_V1.26.2/Middlewares/Third_Party/LwIP/src/core\tcp_out.c ****     /* last unsent has been removed, reset unsent_oversize */
1413:c:/Users/Black_Life/STM32Cube/Repository/STM32Cube_FW_F4_V1.26.2/Middlewares/Third_Party/LwIP/src/core\tcp_out.c ****     pcb->unsent_oversize = 0;
1414:c:/Users/Black_Life/STM32Cube/Repository/STM32Cube_FW_F4_V1.26.2/Middlewares/Third_Party/LwIP/src/core\tcp_out.c ****   }
1415:c:/Users/Black_Life/STM32Cube/Repository/STM32Cube_FW_F4_V1.26.2/Middlewares/Third_Party/LwIP/src/core\tcp_out.c **** #endif /* TCP_OVERSIZE */
1416:c:/Users/Black_Life/STM32Cube/Repository/STM32Cube_FW_F4_V1.26.2/Middlewares/Third_Party/LwIP/src/core\tcp_out.c **** 
1417:c:/Users/Black_Life/STM32Cube/Repository/STM32Cube_FW_F4_V1.26.2/Middlewares/Third_Party/LwIP/src/core\tcp_out.c **** output_done:
1418:c:/Users/Black_Life/STM32Cube/Repository/STM32Cube_FW_F4_V1.26.2/Middlewares/Third_Party/LwIP/src/core\tcp_out.c ****   tcp_clear_flags(pcb, TF_NAGLEMEMERR);
1419:c:/Users/Black_Life/STM32Cube/Repository/STM32Cube_FW_F4_V1.26.2/Middlewares/Third_Party/LwIP/src/core\tcp_out.c ****   return ERR_OK;
1420:c:/Users/Black_Life/STM32Cube/Repository/STM32Cube_FW_F4_V1.26.2/Middlewares/Third_Party/LwIP/src/core\tcp_out.c **** }
1421:c:/Users/Black_Life/STM32Cube/Repository/STM32Cube_FW_F4_V1.26.2/Middlewares/Third_Party/LwIP/src/core\tcp_out.c **** 
1422:c:/Users/Black_Life/STM32Cube/Repository/STM32Cube_FW_F4_V1.26.2/Middlewares/Third_Party/LwIP/src/core\tcp_out.c **** /** Check if a segment's pbufs are used by someone else than TCP.
1423:c:/Users/Black_Life/STM32Cube/Repository/STM32Cube_FW_F4_V1.26.2/Middlewares/Third_Party/LwIP/src/core\tcp_out.c ****  * This can happen on retransmission if the pbuf of this segment is still
1424:c:/Users/Black_Life/STM32Cube/Repository/STM32Cube_FW_F4_V1.26.2/Middlewares/Third_Party/LwIP/src/core\tcp_out.c ****  * referenced by the netif driver due to deferred transmission.
ARM GAS  C:\Users\BLACK_~1\AppData\Local\Temp\ccsw9P1a.s 			page 31


1425:c:/Users/Black_Life/STM32Cube/Repository/STM32Cube_FW_F4_V1.26.2/Middlewares/Third_Party/LwIP/src/core\tcp_out.c ****  * This is the case (only!) if someone down the TX call path called
1426:c:/Users/Black_Life/STM32Cube/Repository/STM32Cube_FW_F4_V1.26.2/Middlewares/Third_Party/LwIP/src/core\tcp_out.c ****  * pbuf_ref() on one of the pbufs!
1427:c:/Users/Black_Life/STM32Cube/Repository/STM32Cube_FW_F4_V1.26.2/Middlewares/Third_Party/LwIP/src/core\tcp_out.c ****  *
1428:c:/Users/Black_Life/STM32Cube/Repository/STM32Cube_FW_F4_V1.26.2/Middlewares/Third_Party/LwIP/src/core\tcp_out.c ****  * @arg seg the tcp segment to check
1429:c:/Users/Black_Life/STM32Cube/Repository/STM32Cube_FW_F4_V1.26.2/Middlewares/Third_Party/LwIP/src/core\tcp_out.c ****  * @return 1 if ref != 1, 0 if ref == 1
1430:c:/Users/Black_Life/STM32Cube/Repository/STM32Cube_FW_F4_V1.26.2/Middlewares/Third_Party/LwIP/src/core\tcp_out.c ****  */
1431:c:/Users/Black_Life/STM32Cube/Repository/STM32Cube_FW_F4_V1.26.2/Middlewares/Third_Party/LwIP/src/core\tcp_out.c **** static int
1432:c:/Users/Black_Life/STM32Cube/Repository/STM32Cube_FW_F4_V1.26.2/Middlewares/Third_Party/LwIP/src/core\tcp_out.c **** tcp_output_segment_busy(const struct tcp_seg *seg)
1433:c:/Users/Black_Life/STM32Cube/Repository/STM32Cube_FW_F4_V1.26.2/Middlewares/Third_Party/LwIP/src/core\tcp_out.c **** {
 232              		.loc 1 1433 1 is_stmt 1 view -0
 233              		.cfi_startproc
 234              		@ args = 0, pretend = 0, frame = 0
 235              		@ frame_needed = 0, uses_anonymous_args = 0
 236              		.loc 1 1433 1 is_stmt 0 view .LVU60
 237 0000 10B5     		push	{r4, lr}
 238              	.LCFI1:
 239              		.cfi_def_cfa_offset 8
 240              		.cfi_offset 4, -8
 241              		.cfi_offset 14, -4
1434:c:/Users/Black_Life/STM32Cube/Repository/STM32Cube_FW_F4_V1.26.2/Middlewares/Third_Party/LwIP/src/core\tcp_out.c ****   LWIP_ASSERT("tcp_output_segment_busy: invalid seg", seg != NULL);
 242              		.loc 1 1434 3 is_stmt 1 view .LVU61
 243              		.loc 1 1434 3 view .LVU62
 244 0002 0446     		mov	r4, r0
 245 0004 28B1     		cbz	r0, .L28
 246              	.LVL10:
 247              	.L24:
 248              		.loc 1 1434 3 discriminator 3 view .LVU63
 249              		.loc 1 1434 3 discriminator 3 view .LVU64
1435:c:/Users/Black_Life/STM32Cube/Repository/STM32Cube_FW_F4_V1.26.2/Middlewares/Third_Party/LwIP/src/core\tcp_out.c **** 
1436:c:/Users/Black_Life/STM32Cube/Repository/STM32Cube_FW_F4_V1.26.2/Middlewares/Third_Party/LwIP/src/core\tcp_out.c ****   /* We only need to check the first pbuf here:
1437:c:/Users/Black_Life/STM32Cube/Repository/STM32Cube_FW_F4_V1.26.2/Middlewares/Third_Party/LwIP/src/core\tcp_out.c ****      If a pbuf is queued for transmission, a driver calls pbuf_ref(),
1438:c:/Users/Black_Life/STM32Cube/Repository/STM32Cube_FW_F4_V1.26.2/Middlewares/Third_Party/LwIP/src/core\tcp_out.c ****      which only changes the ref count of the first pbuf */
1439:c:/Users/Black_Life/STM32Cube/Repository/STM32Cube_FW_F4_V1.26.2/Middlewares/Third_Party/LwIP/src/core\tcp_out.c ****   if (seg->p->ref != 1) {
 250              		.loc 1 1439 3 discriminator 3 view .LVU65
 251              		.loc 1 1439 10 is_stmt 0 discriminator 3 view .LVU66
 252 0006 6368     		ldr	r3, [r4, #4]
 253              		.loc 1 1439 13 discriminator 3 view .LVU67
 254 0008 9B7B     		ldrb	r3, [r3, #14]	@ zero_extendqisi2
 255              		.loc 1 1439 6 discriminator 3 view .LVU68
 256 000a 012B     		cmp	r3, #1
 257 000c 09D1     		bne	.L26
1440:c:/Users/Black_Life/STM32Cube/Repository/STM32Cube_FW_F4_V1.26.2/Middlewares/Third_Party/LwIP/src/core\tcp_out.c ****     /* other reference found */
1441:c:/Users/Black_Life/STM32Cube/Repository/STM32Cube_FW_F4_V1.26.2/Middlewares/Third_Party/LwIP/src/core\tcp_out.c ****     return 1;
1442:c:/Users/Black_Life/STM32Cube/Repository/STM32Cube_FW_F4_V1.26.2/Middlewares/Third_Party/LwIP/src/core\tcp_out.c ****   }
1443:c:/Users/Black_Life/STM32Cube/Repository/STM32Cube_FW_F4_V1.26.2/Middlewares/Third_Party/LwIP/src/core\tcp_out.c ****   /* no other references found */
1444:c:/Users/Black_Life/STM32Cube/Repository/STM32Cube_FW_F4_V1.26.2/Middlewares/Third_Party/LwIP/src/core\tcp_out.c ****   return 0;
 258              		.loc 1 1444 10 view .LVU69
 259 000e 0020     		movs	r0, #0
 260              	.L23:
1445:c:/Users/Black_Life/STM32Cube/Repository/STM32Cube_FW_F4_V1.26.2/Middlewares/Third_Party/LwIP/src/core\tcp_out.c **** }
 261              		.loc 1 1445 1 view .LVU70
 262 0010 10BD     		pop	{r4, pc}
 263              	.LVL11:
 264              	.L28:
1434:c:/Users/Black_Life/STM32Cube/Repository/STM32Cube_FW_F4_V1.26.2/Middlewares/Third_Party/LwIP/src/core\tcp_out.c **** 
 265              		.loc 1 1434 3 is_stmt 1 discriminator 1 view .LVU71
1434:c:/Users/Black_Life/STM32Cube/Repository/STM32Cube_FW_F4_V1.26.2/Middlewares/Third_Party/LwIP/src/core\tcp_out.c **** 
ARM GAS  C:\Users\BLACK_~1\AppData\Local\Temp\ccsw9P1a.s 			page 32


 266              		.loc 1 1434 3 discriminator 1 view .LVU72
 267 0012 054B     		ldr	r3, .L29
 268 0014 40F29A52 		movw	r2, #1434
 269 0018 0449     		ldr	r1, .L29+4
 270 001a 0548     		ldr	r0, .L29+8
 271              	.LVL12:
1434:c:/Users/Black_Life/STM32Cube/Repository/STM32Cube_FW_F4_V1.26.2/Middlewares/Third_Party/LwIP/src/core\tcp_out.c **** 
 272              		.loc 1 1434 3 is_stmt 0 discriminator 1 view .LVU73
 273 001c FFF7FEFF 		bl	printf
 274              	.LVL13:
 275 0020 F1E7     		b	.L24
 276              	.L26:
1441:c:/Users/Black_Life/STM32Cube/Repository/STM32Cube_FW_F4_V1.26.2/Middlewares/Third_Party/LwIP/src/core\tcp_out.c ****   }
 277              		.loc 1 1441 12 view .LVU74
 278 0022 0120     		movs	r0, #1
 279 0024 F4E7     		b	.L23
 280              	.L30:
 281 0026 00BF     		.align	2
 282              	.L29:
 283 0028 00000000 		.word	.LC0
 284 002c 00000000 		.word	.LC5
 285 0030 94000000 		.word	.LC2
 286              		.cfi_endproc
 287              	.LFE165:
 289              		.section	.rodata.tcp_output_fill_options.str1.4,"aMS",%progbits,1
 290              		.align	2
 291              	.LC6:
 292 0000 7463705F 		.ascii	"tcp_output_fill_options: invalid pbuf\000"
 292      6F757470 
 292      75745F66 
 292      696C6C5F 
 292      6F707469 
 293 0026 0000     		.align	2
 294              	.LC7:
 295 0028 6F707469 		.ascii	"options not filled\000"
 295      6F6E7320 
 295      6E6F7420 
 295      66696C6C 
 295      656400
 296              		.section	.text.tcp_output_fill_options,"ax",%progbits
 297              		.align	1
 298              		.syntax unified
 299              		.thumb
 300              		.thumb_func
 302              	tcp_output_fill_options:
 303              	.LVL14:
 304              	.LFB174:
1446:c:/Users/Black_Life/STM32Cube/Repository/STM32Cube_FW_F4_V1.26.2/Middlewares/Third_Party/LwIP/src/core\tcp_out.c **** 
1447:c:/Users/Black_Life/STM32Cube/Repository/STM32Cube_FW_F4_V1.26.2/Middlewares/Third_Party/LwIP/src/core\tcp_out.c **** /**
