ARM GAS  /var/folders/k2/cd9bl_j17z77g23y6ffqb_400000gn/T//ccEkbS20.s 			page 1


   1              		.cpu cortex-m4
   2              		.eabi_attribute 27, 1
   3              		.eabi_attribute 28, 1
   4              		.eabi_attribute 20, 1
   5              		.eabi_attribute 21, 1
   6              		.eabi_attribute 23, 3
   7              		.eabi_attribute 24, 1
   8              		.eabi_attribute 25, 1
   9              		.eabi_attribute 26, 1
  10              		.eabi_attribute 30, 1
  11              		.eabi_attribute 34, 1
  12              		.eabi_attribute 18, 4
  13              		.file	"timeouts.c"
  14              		.text
  15              	.Ltext0:
  16              		.cfi_sections	.debug_frame
  17              		.section	.rodata.sys_timeout_abs.str1.4,"aMS",%progbits,1
  18              		.align	2
  19              	.LC0:
  20 0000 2F557365 		.ascii	"/Users/nhantt/STM32Cube/Repository/STM32Cube_FW_F4_"
  20      72732F6E 
  20      68616E74 
  20      742F5354 
  20      4D333243 
  21 0033 56312E32 		.ascii	"V1.26.0/Middlewares/Third_Party/LwIP/src/core/timeo"
  21      362E302F 
  21      4D696464 
  21      6C657761 
  21      7265732F 
  22 0066 7574732E 		.ascii	"uts.c\000"
  22      6300
  23              		.align	2
  24              	.LC1:
  25 006c 7379735F 		.ascii	"sys_timeout: timeout != NULL, pool MEMP_SYS_TIMEOUT"
  25      74696D65 
  25      6F75743A 
  25      2074696D 
  25      656F7574 
  26 009f 20697320 		.ascii	" is empty\000"
  26      656D7074 
  26      7900
  27 00a9 000000   		.align	2
  28              	.LC2:
  29 00ac 41737365 		.ascii	"Assertion \"%s\" failed at line %d in %s\012\000"
  29      7274696F 
  29      6E202225 
  29      73222066 
  29      61696C65 
  30              		.section	.text.sys_timeout_abs,"ax",%progbits
  31              		.align	1
  32              		.arch armv7e-m
  33              		.syntax unified
  34              		.thumb
  35              		.thumb_func
  36              		.fpu fpv4-sp-d16
  38              	sys_timeout_abs:
  39              	.LVL0:
ARM GAS  /var/folders/k2/cd9bl_j17z77g23y6ffqb_400000gn/T//ccEkbS20.s 			page 2


  40              	.LFB157:
  41              		.file 1 "/Users/nhantt/STM32Cube/Repository/STM32Cube_FW_F4_V1.26.0/Middlewares/Third_Party/LwIP/s
   1:/Users/nhantt/STM32Cube/Repository/STM32Cube_FW_F4_V1.26.0/Middlewares/Third_Party/LwIP/src/core/timeouts.c **** /**
   2:/Users/nhantt/STM32Cube/Repository/STM32Cube_FW_F4_V1.26.0/Middlewares/Third_Party/LwIP/src/core/timeouts.c ****  * @file
   3:/Users/nhantt/STM32Cube/Repository/STM32Cube_FW_F4_V1.26.0/Middlewares/Third_Party/LwIP/src/core/timeouts.c ****  * Stack-internal timers implementation.
   4:/Users/nhantt/STM32Cube/Repository/STM32Cube_FW_F4_V1.26.0/Middlewares/Third_Party/LwIP/src/core/timeouts.c ****  * This file includes timer callbacks for stack-internal timers as well as
   5:/Users/nhantt/STM32Cube/Repository/STM32Cube_FW_F4_V1.26.0/Middlewares/Third_Party/LwIP/src/core/timeouts.c ****  * functions to set up or stop timers and check for expired timers.
   6:/Users/nhantt/STM32Cube/Repository/STM32Cube_FW_F4_V1.26.0/Middlewares/Third_Party/LwIP/src/core/timeouts.c ****  *
   7:/Users/nhantt/STM32Cube/Repository/STM32Cube_FW_F4_V1.26.0/Middlewares/Third_Party/LwIP/src/core/timeouts.c ****  */
   8:/Users/nhantt/STM32Cube/Repository/STM32Cube_FW_F4_V1.26.0/Middlewares/Third_Party/LwIP/src/core/timeouts.c **** 
   9:/Users/nhantt/STM32Cube/Repository/STM32Cube_FW_F4_V1.26.0/Middlewares/Third_Party/LwIP/src/core/timeouts.c **** /*
  10:/Users/nhantt/STM32Cube/Repository/STM32Cube_FW_F4_V1.26.0/Middlewares/Third_Party/LwIP/src/core/timeouts.c ****  * Copyright (c) 2001-2004 Swedish Institute of Computer Science.
  11:/Users/nhantt/STM32Cube/Repository/STM32Cube_FW_F4_V1.26.0/Middlewares/Third_Party/LwIP/src/core/timeouts.c ****  * All rights reserved.
  12:/Users/nhantt/STM32Cube/Repository/STM32Cube_FW_F4_V1.26.0/Middlewares/Third_Party/LwIP/src/core/timeouts.c ****  *
  13:/Users/nhantt/STM32Cube/Repository/STM32Cube_FW_F4_V1.26.0/Middlewares/Third_Party/LwIP/src/core/timeouts.c ****  * Redistribution and use in source and binary forms, with or without modification,
  14:/Users/nhantt/STM32Cube/Repository/STM32Cube_FW_F4_V1.26.0/Middlewares/Third_Party/LwIP/src/core/timeouts.c ****  * are permitted provided that the following conditions are met:
  15:/Users/nhantt/STM32Cube/Repository/STM32Cube_FW_F4_V1.26.0/Middlewares/Third_Party/LwIP/src/core/timeouts.c ****  *
  16:/Users/nhantt/STM32Cube/Repository/STM32Cube_FW_F4_V1.26.0/Middlewares/Third_Party/LwIP/src/core/timeouts.c ****  * 1. Redistributions of source code must retain the above copyright notice,
  17:/Users/nhantt/STM32Cube/Repository/STM32Cube_FW_F4_V1.26.0/Middlewares/Third_Party/LwIP/src/core/timeouts.c ****  *    this list of conditions and the following disclaimer.
  18:/Users/nhantt/STM32Cube/Repository/STM32Cube_FW_F4_V1.26.0/Middlewares/Third_Party/LwIP/src/core/timeouts.c ****  * 2. Redistributions in binary form must reproduce the above copyright notice,
  19:/Users/nhantt/STM32Cube/Repository/STM32Cube_FW_F4_V1.26.0/Middlewares/Third_Party/LwIP/src/core/timeouts.c ****  *    this list of conditions and the following disclaimer in the documentation
  20:/Users/nhantt/STM32Cube/Repository/STM32Cube_FW_F4_V1.26.0/Middlewares/Third_Party/LwIP/src/core/timeouts.c ****  *    and/or other materials provided with the distribution.
  21:/Users/nhantt/STM32Cube/Repository/STM32Cube_FW_F4_V1.26.0/Middlewares/Third_Party/LwIP/src/core/timeouts.c ****  * 3. The name of the author may not be used to endorse or promote products
  22:/Users/nhantt/STM32Cube/Repository/STM32Cube_FW_F4_V1.26.0/Middlewares/Third_Party/LwIP/src/core/timeouts.c ****  *    derived from this software without specific prior written permission.
  23:/Users/nhantt/STM32Cube/Repository/STM32Cube_FW_F4_V1.26.0/Middlewares/Third_Party/LwIP/src/core/timeouts.c ****  *
  24:/Users/nhantt/STM32Cube/Repository/STM32Cube_FW_F4_V1.26.0/Middlewares/Third_Party/LwIP/src/core/timeouts.c ****  * THIS SOFTWARE IS PROVIDED BY THE AUTHOR ``AS IS'' AND ANY EXPRESS OR IMPLIED
  25:/Users/nhantt/STM32Cube/Repository/STM32Cube_FW_F4_V1.26.0/Middlewares/Third_Party/LwIP/src/core/timeouts.c ****  * WARRANTIES, INCLUDING, BUT NOT LIMITED TO, THE IMPLIED WARRANTIES OF
  26:/Users/nhantt/STM32Cube/Repository/STM32Cube_FW_F4_V1.26.0/Middlewares/Third_Party/LwIP/src/core/timeouts.c ****  * MERCHANTABILITY AND FITNESS FOR A PARTICULAR PURPOSE ARE DISCLAIMED. IN NO EVENT
  27:/Users/nhantt/STM32Cube/Repository/STM32Cube_FW_F4_V1.26.0/Middlewares/Third_Party/LwIP/src/core/timeouts.c ****  * SHALL THE AUTHOR BE LIABLE FOR ANY DIRECT, INDIRECT, INCIDENTAL, SPECIAL,
  28:/Users/nhantt/STM32Cube/Repository/STM32Cube_FW_F4_V1.26.0/Middlewares/Third_Party/LwIP/src/core/timeouts.c ****  * EXEMPLARY, OR CONSEQUENTIAL DAMAGES (INCLUDING, BUT NOT LIMITED TO, PROCUREMENT
  29:/Users/nhantt/STM32Cube/Repository/STM32Cube_FW_F4_V1.26.0/Middlewares/Third_Party/LwIP/src/core/timeouts.c ****  * OF SUBSTITUTE GOODS OR SERVICES; LOSS OF USE, DATA, OR PROFITS; OR BUSINESS
  30:/Users/nhantt/STM32Cube/Repository/STM32Cube_FW_F4_V1.26.0/Middlewares/Third_Party/LwIP/src/core/timeouts.c ****  * INTERRUPTION) HOWEVER CAUSED AND ON ANY THEORY OF LIABILITY, WHETHER IN
  31:/Users/nhantt/STM32Cube/Repository/STM32Cube_FW_F4_V1.26.0/Middlewares/Third_Party/LwIP/src/core/timeouts.c ****  * CONTRACT, STRICT LIABILITY, OR TORT (INCLUDING NEGLIGENCE OR OTHERWISE) ARISING
  32:/Users/nhantt/STM32Cube/Repository/STM32Cube_FW_F4_V1.26.0/Middlewares/Third_Party/LwIP/src/core/timeouts.c ****  * IN ANY WAY OUT OF THE USE OF THIS SOFTWARE, EVEN IF ADVISED OF THE POSSIBILITY
  33:/Users/nhantt/STM32Cube/Repository/STM32Cube_FW_F4_V1.26.0/Middlewares/Third_Party/LwIP/src/core/timeouts.c ****  * OF SUCH DAMAGE.
  34:/Users/nhantt/STM32Cube/Repository/STM32Cube_FW_F4_V1.26.0/Middlewares/Third_Party/LwIP/src/core/timeouts.c ****  *
  35:/Users/nhantt/STM32Cube/Repository/STM32Cube_FW_F4_V1.26.0/Middlewares/Third_Party/LwIP/src/core/timeouts.c ****  * This file is part of the lwIP TCP/IP stack.
  36:/Users/nhantt/STM32Cube/Repository/STM32Cube_FW_F4_V1.26.0/Middlewares/Third_Party/LwIP/src/core/timeouts.c ****  *
  37:/Users/nhantt/STM32Cube/Repository/STM32Cube_FW_F4_V1.26.0/Middlewares/Third_Party/LwIP/src/core/timeouts.c ****  * Author: Adam Dunkels <adam@sics.se>
  38:/Users/nhantt/STM32Cube/Repository/STM32Cube_FW_F4_V1.26.0/Middlewares/Third_Party/LwIP/src/core/timeouts.c ****  *         Simon Goldschmidt
  39:/Users/nhantt/STM32Cube/Repository/STM32Cube_FW_F4_V1.26.0/Middlewares/Third_Party/LwIP/src/core/timeouts.c ****  *
  40:/Users/nhantt/STM32Cube/Repository/STM32Cube_FW_F4_V1.26.0/Middlewares/Third_Party/LwIP/src/core/timeouts.c ****  */
  41:/Users/nhantt/STM32Cube/Repository/STM32Cube_FW_F4_V1.26.0/Middlewares/Third_Party/LwIP/src/core/timeouts.c **** 
  42:/Users/nhantt/STM32Cube/Repository/STM32Cube_FW_F4_V1.26.0/Middlewares/Third_Party/LwIP/src/core/timeouts.c **** #include "lwip/opt.h"
  43:/Users/nhantt/STM32Cube/Repository/STM32Cube_FW_F4_V1.26.0/Middlewares/Third_Party/LwIP/src/core/timeouts.c **** 
  44:/Users/nhantt/STM32Cube/Repository/STM32Cube_FW_F4_V1.26.0/Middlewares/Third_Party/LwIP/src/core/timeouts.c **** #include "lwip/timeouts.h"
  45:/Users/nhantt/STM32Cube/Repository/STM32Cube_FW_F4_V1.26.0/Middlewares/Third_Party/LwIP/src/core/timeouts.c **** #include "lwip/priv/tcp_priv.h"
  46:/Users/nhantt/STM32Cube/Repository/STM32Cube_FW_F4_V1.26.0/Middlewares/Third_Party/LwIP/src/core/timeouts.c **** 
  47:/Users/nhantt/STM32Cube/Repository/STM32Cube_FW_F4_V1.26.0/Middlewares/Third_Party/LwIP/src/core/timeouts.c **** #include "lwip/def.h"
  48:/Users/nhantt/STM32Cube/Repository/STM32Cube_FW_F4_V1.26.0/Middlewares/Third_Party/LwIP/src/core/timeouts.c **** #include "lwip/memp.h"
  49:/Users/nhantt/STM32Cube/Repository/STM32Cube_FW_F4_V1.26.0/Middlewares/Third_Party/LwIP/src/core/timeouts.c **** #include "lwip/priv/tcpip_priv.h"
  50:/Users/nhantt/STM32Cube/Repository/STM32Cube_FW_F4_V1.26.0/Middlewares/Third_Party/LwIP/src/core/timeouts.c **** 
  51:/Users/nhantt/STM32Cube/Repository/STM32Cube_FW_F4_V1.26.0/Middlewares/Third_Party/LwIP/src/core/timeouts.c **** #include "lwip/ip4_frag.h"
  52:/Users/nhantt/STM32Cube/Repository/STM32Cube_FW_F4_V1.26.0/Middlewares/Third_Party/LwIP/src/core/timeouts.c **** #include "lwip/etharp.h"
  53:/Users/nhantt/STM32Cube/Repository/STM32Cube_FW_F4_V1.26.0/Middlewares/Third_Party/LwIP/src/core/timeouts.c **** #include "lwip/dhcp.h"
  54:/Users/nhantt/STM32Cube/Repository/STM32Cube_FW_F4_V1.26.0/Middlewares/Third_Party/LwIP/src/core/timeouts.c **** #include "lwip/autoip.h"
  55:/Users/nhantt/STM32Cube/Repository/STM32Cube_FW_F4_V1.26.0/Middlewares/Third_Party/LwIP/src/core/timeouts.c **** #include "lwip/igmp.h"
ARM GAS  /var/folders/k2/cd9bl_j17z77g23y6ffqb_400000gn/T//ccEkbS20.s 			page 3


  56:/Users/nhantt/STM32Cube/Repository/STM32Cube_FW_F4_V1.26.0/Middlewares/Third_Party/LwIP/src/core/timeouts.c **** #include "lwip/dns.h"
  57:/Users/nhantt/STM32Cube/Repository/STM32Cube_FW_F4_V1.26.0/Middlewares/Third_Party/LwIP/src/core/timeouts.c **** #include "lwip/nd6.h"
  58:/Users/nhantt/STM32Cube/Repository/STM32Cube_FW_F4_V1.26.0/Middlewares/Third_Party/LwIP/src/core/timeouts.c **** #include "lwip/ip6_frag.h"
  59:/Users/nhantt/STM32Cube/Repository/STM32Cube_FW_F4_V1.26.0/Middlewares/Third_Party/LwIP/src/core/timeouts.c **** #include "lwip/mld6.h"
  60:/Users/nhantt/STM32Cube/Repository/STM32Cube_FW_F4_V1.26.0/Middlewares/Third_Party/LwIP/src/core/timeouts.c **** #include "lwip/dhcp6.h"
  61:/Users/nhantt/STM32Cube/Repository/STM32Cube_FW_F4_V1.26.0/Middlewares/Third_Party/LwIP/src/core/timeouts.c **** #include "lwip/sys.h"
  62:/Users/nhantt/STM32Cube/Repository/STM32Cube_FW_F4_V1.26.0/Middlewares/Third_Party/LwIP/src/core/timeouts.c **** #include "lwip/pbuf.h"
  63:/Users/nhantt/STM32Cube/Repository/STM32Cube_FW_F4_V1.26.0/Middlewares/Third_Party/LwIP/src/core/timeouts.c **** 
  64:/Users/nhantt/STM32Cube/Repository/STM32Cube_FW_F4_V1.26.0/Middlewares/Third_Party/LwIP/src/core/timeouts.c **** #if LWIP_DEBUG_TIMERNAMES
  65:/Users/nhantt/STM32Cube/Repository/STM32Cube_FW_F4_V1.26.0/Middlewares/Third_Party/LwIP/src/core/timeouts.c **** #define HANDLER(x) x, #x
  66:/Users/nhantt/STM32Cube/Repository/STM32Cube_FW_F4_V1.26.0/Middlewares/Third_Party/LwIP/src/core/timeouts.c **** #else /* LWIP_DEBUG_TIMERNAMES */
  67:/Users/nhantt/STM32Cube/Repository/STM32Cube_FW_F4_V1.26.0/Middlewares/Third_Party/LwIP/src/core/timeouts.c **** #define HANDLER(x) x
  68:/Users/nhantt/STM32Cube/Repository/STM32Cube_FW_F4_V1.26.0/Middlewares/Third_Party/LwIP/src/core/timeouts.c **** #endif /* LWIP_DEBUG_TIMERNAMES */
  69:/Users/nhantt/STM32Cube/Repository/STM32Cube_FW_F4_V1.26.0/Middlewares/Third_Party/LwIP/src/core/timeouts.c **** 
  70:/Users/nhantt/STM32Cube/Repository/STM32Cube_FW_F4_V1.26.0/Middlewares/Third_Party/LwIP/src/core/timeouts.c **** #define LWIP_MAX_TIMEOUT  0x7fffffff
  71:/Users/nhantt/STM32Cube/Repository/STM32Cube_FW_F4_V1.26.0/Middlewares/Third_Party/LwIP/src/core/timeouts.c **** 
  72:/Users/nhantt/STM32Cube/Repository/STM32Cube_FW_F4_V1.26.0/Middlewares/Third_Party/LwIP/src/core/timeouts.c **** /* Check if timer's expiry time is greater than time and care about u32_t wraparounds */
  73:/Users/nhantt/STM32Cube/Repository/STM32Cube_FW_F4_V1.26.0/Middlewares/Third_Party/LwIP/src/core/timeouts.c **** #define TIME_LESS_THAN(t, compare_to) ( (((u32_t)((t)-(compare_to))) > LWIP_MAX_TIMEOUT) ? 1 : 0 )
  74:/Users/nhantt/STM32Cube/Repository/STM32Cube_FW_F4_V1.26.0/Middlewares/Third_Party/LwIP/src/core/timeouts.c **** 
  75:/Users/nhantt/STM32Cube/Repository/STM32Cube_FW_F4_V1.26.0/Middlewares/Third_Party/LwIP/src/core/timeouts.c **** /** This array contains all stack-internal cyclic timers. To get the number of
  76:/Users/nhantt/STM32Cube/Repository/STM32Cube_FW_F4_V1.26.0/Middlewares/Third_Party/LwIP/src/core/timeouts.c ****  * timers, use LWIP_ARRAYSIZE() */
  77:/Users/nhantt/STM32Cube/Repository/STM32Cube_FW_F4_V1.26.0/Middlewares/Third_Party/LwIP/src/core/timeouts.c **** const struct lwip_cyclic_timer lwip_cyclic_timers[] = {
  78:/Users/nhantt/STM32Cube/Repository/STM32Cube_FW_F4_V1.26.0/Middlewares/Third_Party/LwIP/src/core/timeouts.c **** #if LWIP_TCP
  79:/Users/nhantt/STM32Cube/Repository/STM32Cube_FW_F4_V1.26.0/Middlewares/Third_Party/LwIP/src/core/timeouts.c ****   /* The TCP timer is a special case: it does not have to run always and
  80:/Users/nhantt/STM32Cube/Repository/STM32Cube_FW_F4_V1.26.0/Middlewares/Third_Party/LwIP/src/core/timeouts.c ****      is triggered to start from TCP using tcp_timer_needed() */
  81:/Users/nhantt/STM32Cube/Repository/STM32Cube_FW_F4_V1.26.0/Middlewares/Third_Party/LwIP/src/core/timeouts.c ****   {TCP_TMR_INTERVAL, HANDLER(tcp_tmr)},
  82:/Users/nhantt/STM32Cube/Repository/STM32Cube_FW_F4_V1.26.0/Middlewares/Third_Party/LwIP/src/core/timeouts.c **** #endif /* LWIP_TCP */
  83:/Users/nhantt/STM32Cube/Repository/STM32Cube_FW_F4_V1.26.0/Middlewares/Third_Party/LwIP/src/core/timeouts.c **** #if LWIP_IPV4
  84:/Users/nhantt/STM32Cube/Repository/STM32Cube_FW_F4_V1.26.0/Middlewares/Third_Party/LwIP/src/core/timeouts.c **** #if IP_REASSEMBLY
  85:/Users/nhantt/STM32Cube/Repository/STM32Cube_FW_F4_V1.26.0/Middlewares/Third_Party/LwIP/src/core/timeouts.c ****   {IP_TMR_INTERVAL, HANDLER(ip_reass_tmr)},
  86:/Users/nhantt/STM32Cube/Repository/STM32Cube_FW_F4_V1.26.0/Middlewares/Third_Party/LwIP/src/core/timeouts.c **** #endif /* IP_REASSEMBLY */
  87:/Users/nhantt/STM32Cube/Repository/STM32Cube_FW_F4_V1.26.0/Middlewares/Third_Party/LwIP/src/core/timeouts.c **** #if LWIP_ARP
  88:/Users/nhantt/STM32Cube/Repository/STM32Cube_FW_F4_V1.26.0/Middlewares/Third_Party/LwIP/src/core/timeouts.c ****   {ARP_TMR_INTERVAL, HANDLER(etharp_tmr)},
  89:/Users/nhantt/STM32Cube/Repository/STM32Cube_FW_F4_V1.26.0/Middlewares/Third_Party/LwIP/src/core/timeouts.c **** #endif /* LWIP_ARP */
  90:/Users/nhantt/STM32Cube/Repository/STM32Cube_FW_F4_V1.26.0/Middlewares/Third_Party/LwIP/src/core/timeouts.c **** #if LWIP_DHCP
  91:/Users/nhantt/STM32Cube/Repository/STM32Cube_FW_F4_V1.26.0/Middlewares/Third_Party/LwIP/src/core/timeouts.c ****   {DHCP_COARSE_TIMER_MSECS, HANDLER(dhcp_coarse_tmr)},
  92:/Users/nhantt/STM32Cube/Repository/STM32Cube_FW_F4_V1.26.0/Middlewares/Third_Party/LwIP/src/core/timeouts.c ****   {DHCP_FINE_TIMER_MSECS, HANDLER(dhcp_fine_tmr)},
  93:/Users/nhantt/STM32Cube/Repository/STM32Cube_FW_F4_V1.26.0/Middlewares/Third_Party/LwIP/src/core/timeouts.c **** #endif /* LWIP_DHCP */
  94:/Users/nhantt/STM32Cube/Repository/STM32Cube_FW_F4_V1.26.0/Middlewares/Third_Party/LwIP/src/core/timeouts.c **** #if LWIP_AUTOIP
  95:/Users/nhantt/STM32Cube/Repository/STM32Cube_FW_F4_V1.26.0/Middlewares/Third_Party/LwIP/src/core/timeouts.c ****   {AUTOIP_TMR_INTERVAL, HANDLER(autoip_tmr)},
  96:/Users/nhantt/STM32Cube/Repository/STM32Cube_FW_F4_V1.26.0/Middlewares/Third_Party/LwIP/src/core/timeouts.c **** #endif /* LWIP_AUTOIP */
  97:/Users/nhantt/STM32Cube/Repository/STM32Cube_FW_F4_V1.26.0/Middlewares/Third_Party/LwIP/src/core/timeouts.c **** #if LWIP_IGMP
  98:/Users/nhantt/STM32Cube/Repository/STM32Cube_FW_F4_V1.26.0/Middlewares/Third_Party/LwIP/src/core/timeouts.c ****   {IGMP_TMR_INTERVAL, HANDLER(igmp_tmr)},
  99:/Users/nhantt/STM32Cube/Repository/STM32Cube_FW_F4_V1.26.0/Middlewares/Third_Party/LwIP/src/core/timeouts.c **** #endif /* LWIP_IGMP */
 100:/Users/nhantt/STM32Cube/Repository/STM32Cube_FW_F4_V1.26.0/Middlewares/Third_Party/LwIP/src/core/timeouts.c **** #endif /* LWIP_IPV4 */
 101:/Users/nhantt/STM32Cube/Repository/STM32Cube_FW_F4_V1.26.0/Middlewares/Third_Party/LwIP/src/core/timeouts.c **** #if LWIP_DNS
 102:/Users/nhantt/STM32Cube/Repository/STM32Cube_FW_F4_V1.26.0/Middlewares/Third_Party/LwIP/src/core/timeouts.c ****   {DNS_TMR_INTERVAL, HANDLER(dns_tmr)},
 103:/Users/nhantt/STM32Cube/Repository/STM32Cube_FW_F4_V1.26.0/Middlewares/Third_Party/LwIP/src/core/timeouts.c **** #endif /* LWIP_DNS */
 104:/Users/nhantt/STM32Cube/Repository/STM32Cube_FW_F4_V1.26.0/Middlewares/Third_Party/LwIP/src/core/timeouts.c **** #if LWIP_IPV6
 105:/Users/nhantt/STM32Cube/Repository/STM32Cube_FW_F4_V1.26.0/Middlewares/Third_Party/LwIP/src/core/timeouts.c ****   {ND6_TMR_INTERVAL, HANDLER(nd6_tmr)},
 106:/Users/nhantt/STM32Cube/Repository/STM32Cube_FW_F4_V1.26.0/Middlewares/Third_Party/LwIP/src/core/timeouts.c **** #if LWIP_IPV6_REASS
 107:/Users/nhantt/STM32Cube/Repository/STM32Cube_FW_F4_V1.26.0/Middlewares/Third_Party/LwIP/src/core/timeouts.c ****   {IP6_REASS_TMR_INTERVAL, HANDLER(ip6_reass_tmr)},
 108:/Users/nhantt/STM32Cube/Repository/STM32Cube_FW_F4_V1.26.0/Middlewares/Third_Party/LwIP/src/core/timeouts.c **** #endif /* LWIP_IPV6_REASS */
 109:/Users/nhantt/STM32Cube/Repository/STM32Cube_FW_F4_V1.26.0/Middlewares/Third_Party/LwIP/src/core/timeouts.c **** #if LWIP_IPV6_MLD
 110:/Users/nhantt/STM32Cube/Repository/STM32Cube_FW_F4_V1.26.0/Middlewares/Third_Party/LwIP/src/core/timeouts.c ****   {MLD6_TMR_INTERVAL, HANDLER(mld6_tmr)},
 111:/Users/nhantt/STM32Cube/Repository/STM32Cube_FW_F4_V1.26.0/Middlewares/Third_Party/LwIP/src/core/timeouts.c **** #endif /* LWIP_IPV6_MLD */
 112:/Users/nhantt/STM32Cube/Repository/STM32Cube_FW_F4_V1.26.0/Middlewares/Third_Party/LwIP/src/core/timeouts.c **** #if LWIP_IPV6_DHCP6
ARM GAS  /var/folders/k2/cd9bl_j17z77g23y6ffqb_400000gn/T//ccEkbS20.s 			page 4


 113:/Users/nhantt/STM32Cube/Repository/STM32Cube_FW_F4_V1.26.0/Middlewares/Third_Party/LwIP/src/core/timeouts.c ****   {DHCP6_TIMER_MSECS, HANDLER(dhcp6_tmr)},
 114:/Users/nhantt/STM32Cube/Repository/STM32Cube_FW_F4_V1.26.0/Middlewares/Third_Party/LwIP/src/core/timeouts.c **** #endif /* LWIP_IPV6_DHCP6 */
 115:/Users/nhantt/STM32Cube/Repository/STM32Cube_FW_F4_V1.26.0/Middlewares/Third_Party/LwIP/src/core/timeouts.c **** #endif /* LWIP_IPV6 */
 116:/Users/nhantt/STM32Cube/Repository/STM32Cube_FW_F4_V1.26.0/Middlewares/Third_Party/LwIP/src/core/timeouts.c **** };
 117:/Users/nhantt/STM32Cube/Repository/STM32Cube_FW_F4_V1.26.0/Middlewares/Third_Party/LwIP/src/core/timeouts.c **** const int lwip_num_cyclic_timers = LWIP_ARRAYSIZE(lwip_cyclic_timers);
 118:/Users/nhantt/STM32Cube/Repository/STM32Cube_FW_F4_V1.26.0/Middlewares/Third_Party/LwIP/src/core/timeouts.c **** 
 119:/Users/nhantt/STM32Cube/Repository/STM32Cube_FW_F4_V1.26.0/Middlewares/Third_Party/LwIP/src/core/timeouts.c **** #if LWIP_TIMERS && !LWIP_TIMERS_CUSTOM
 120:/Users/nhantt/STM32Cube/Repository/STM32Cube_FW_F4_V1.26.0/Middlewares/Third_Party/LwIP/src/core/timeouts.c **** 
 121:/Users/nhantt/STM32Cube/Repository/STM32Cube_FW_F4_V1.26.0/Middlewares/Third_Party/LwIP/src/core/timeouts.c **** /** The one and only timeout list */
 122:/Users/nhantt/STM32Cube/Repository/STM32Cube_FW_F4_V1.26.0/Middlewares/Third_Party/LwIP/src/core/timeouts.c **** static struct sys_timeo *next_timeout;
 123:/Users/nhantt/STM32Cube/Repository/STM32Cube_FW_F4_V1.26.0/Middlewares/Third_Party/LwIP/src/core/timeouts.c **** 
 124:/Users/nhantt/STM32Cube/Repository/STM32Cube_FW_F4_V1.26.0/Middlewares/Third_Party/LwIP/src/core/timeouts.c **** static u32_t current_timeout_due_time;
 125:/Users/nhantt/STM32Cube/Repository/STM32Cube_FW_F4_V1.26.0/Middlewares/Third_Party/LwIP/src/core/timeouts.c **** 
 126:/Users/nhantt/STM32Cube/Repository/STM32Cube_FW_F4_V1.26.0/Middlewares/Third_Party/LwIP/src/core/timeouts.c **** #if LWIP_TESTMODE
 127:/Users/nhantt/STM32Cube/Repository/STM32Cube_FW_F4_V1.26.0/Middlewares/Third_Party/LwIP/src/core/timeouts.c **** struct sys_timeo**
 128:/Users/nhantt/STM32Cube/Repository/STM32Cube_FW_F4_V1.26.0/Middlewares/Third_Party/LwIP/src/core/timeouts.c **** sys_timeouts_get_next_timeout(void)
 129:/Users/nhantt/STM32Cube/Repository/STM32Cube_FW_F4_V1.26.0/Middlewares/Third_Party/LwIP/src/core/timeouts.c **** {
 130:/Users/nhantt/STM32Cube/Repository/STM32Cube_FW_F4_V1.26.0/Middlewares/Third_Party/LwIP/src/core/timeouts.c ****   return &next_timeout;
 131:/Users/nhantt/STM32Cube/Repository/STM32Cube_FW_F4_V1.26.0/Middlewares/Third_Party/LwIP/src/core/timeouts.c **** }
 132:/Users/nhantt/STM32Cube/Repository/STM32Cube_FW_F4_V1.26.0/Middlewares/Third_Party/LwIP/src/core/timeouts.c **** #endif
 133:/Users/nhantt/STM32Cube/Repository/STM32Cube_FW_F4_V1.26.0/Middlewares/Third_Party/LwIP/src/core/timeouts.c **** 
 134:/Users/nhantt/STM32Cube/Repository/STM32Cube_FW_F4_V1.26.0/Middlewares/Third_Party/LwIP/src/core/timeouts.c **** #if LWIP_TCP
 135:/Users/nhantt/STM32Cube/Repository/STM32Cube_FW_F4_V1.26.0/Middlewares/Third_Party/LwIP/src/core/timeouts.c **** /** global variable that shows if the tcp timer is currently scheduled or not */
 136:/Users/nhantt/STM32Cube/Repository/STM32Cube_FW_F4_V1.26.0/Middlewares/Third_Party/LwIP/src/core/timeouts.c **** static int tcpip_tcp_timer_active;
 137:/Users/nhantt/STM32Cube/Repository/STM32Cube_FW_F4_V1.26.0/Middlewares/Third_Party/LwIP/src/core/timeouts.c **** 
 138:/Users/nhantt/STM32Cube/Repository/STM32Cube_FW_F4_V1.26.0/Middlewares/Third_Party/LwIP/src/core/timeouts.c **** /**
 139:/Users/nhantt/STM32Cube/Repository/STM32Cube_FW_F4_V1.26.0/Middlewares/Third_Party/LwIP/src/core/timeouts.c ****  * Timer callback function that calls tcp_tmr() and reschedules itself.
 140:/Users/nhantt/STM32Cube/Repository/STM32Cube_FW_F4_V1.26.0/Middlewares/Third_Party/LwIP/src/core/timeouts.c ****  *
 141:/Users/nhantt/STM32Cube/Repository/STM32Cube_FW_F4_V1.26.0/Middlewares/Third_Party/LwIP/src/core/timeouts.c ****  * @param arg unused argument
 142:/Users/nhantt/STM32Cube/Repository/STM32Cube_FW_F4_V1.26.0/Middlewares/Third_Party/LwIP/src/core/timeouts.c ****  */
 143:/Users/nhantt/STM32Cube/Repository/STM32Cube_FW_F4_V1.26.0/Middlewares/Third_Party/LwIP/src/core/timeouts.c **** static void
 144:/Users/nhantt/STM32Cube/Repository/STM32Cube_FW_F4_V1.26.0/Middlewares/Third_Party/LwIP/src/core/timeouts.c **** tcpip_tcp_timer(void *arg)
 145:/Users/nhantt/STM32Cube/Repository/STM32Cube_FW_F4_V1.26.0/Middlewares/Third_Party/LwIP/src/core/timeouts.c **** {
 146:/Users/nhantt/STM32Cube/Repository/STM32Cube_FW_F4_V1.26.0/Middlewares/Third_Party/LwIP/src/core/timeouts.c ****   LWIP_UNUSED_ARG(arg);
 147:/Users/nhantt/STM32Cube/Repository/STM32Cube_FW_F4_V1.26.0/Middlewares/Third_Party/LwIP/src/core/timeouts.c **** 
 148:/Users/nhantt/STM32Cube/Repository/STM32Cube_FW_F4_V1.26.0/Middlewares/Third_Party/LwIP/src/core/timeouts.c ****   /* call TCP timer handler */
 149:/Users/nhantt/STM32Cube/Repository/STM32Cube_FW_F4_V1.26.0/Middlewares/Third_Party/LwIP/src/core/timeouts.c ****   tcp_tmr();
 150:/Users/nhantt/STM32Cube/Repository/STM32Cube_FW_F4_V1.26.0/Middlewares/Third_Party/LwIP/src/core/timeouts.c ****   /* timer still needed? */
 151:/Users/nhantt/STM32Cube/Repository/STM32Cube_FW_F4_V1.26.0/Middlewares/Third_Party/LwIP/src/core/timeouts.c ****   if (tcp_active_pcbs || tcp_tw_pcbs) {
 152:/Users/nhantt/STM32Cube/Repository/STM32Cube_FW_F4_V1.26.0/Middlewares/Third_Party/LwIP/src/core/timeouts.c ****     /* restart timer */
 153:/Users/nhantt/STM32Cube/Repository/STM32Cube_FW_F4_V1.26.0/Middlewares/Third_Party/LwIP/src/core/timeouts.c ****     sys_timeout(TCP_TMR_INTERVAL, tcpip_tcp_timer, NULL);
 154:/Users/nhantt/STM32Cube/Repository/STM32Cube_FW_F4_V1.26.0/Middlewares/Third_Party/LwIP/src/core/timeouts.c ****   } else {
 155:/Users/nhantt/STM32Cube/Repository/STM32Cube_FW_F4_V1.26.0/Middlewares/Third_Party/LwIP/src/core/timeouts.c ****     /* disable timer */
 156:/Users/nhantt/STM32Cube/Repository/STM32Cube_FW_F4_V1.26.0/Middlewares/Third_Party/LwIP/src/core/timeouts.c ****     tcpip_tcp_timer_active = 0;
 157:/Users/nhantt/STM32Cube/Repository/STM32Cube_FW_F4_V1.26.0/Middlewares/Third_Party/LwIP/src/core/timeouts.c ****   }
 158:/Users/nhantt/STM32Cube/Repository/STM32Cube_FW_F4_V1.26.0/Middlewares/Third_Party/LwIP/src/core/timeouts.c **** }
 159:/Users/nhantt/STM32Cube/Repository/STM32Cube_FW_F4_V1.26.0/Middlewares/Third_Party/LwIP/src/core/timeouts.c **** 
 160:/Users/nhantt/STM32Cube/Repository/STM32Cube_FW_F4_V1.26.0/Middlewares/Third_Party/LwIP/src/core/timeouts.c **** /**
 161:/Users/nhantt/STM32Cube/Repository/STM32Cube_FW_F4_V1.26.0/Middlewares/Third_Party/LwIP/src/core/timeouts.c ****  * Called from TCP_REG when registering a new PCB:
 162:/Users/nhantt/STM32Cube/Repository/STM32Cube_FW_F4_V1.26.0/Middlewares/Third_Party/LwIP/src/core/timeouts.c ****  * the reason is to have the TCP timer only running when
 163:/Users/nhantt/STM32Cube/Repository/STM32Cube_FW_F4_V1.26.0/Middlewares/Third_Party/LwIP/src/core/timeouts.c ****  * there are active (or time-wait) PCBs.
 164:/Users/nhantt/STM32Cube/Repository/STM32Cube_FW_F4_V1.26.0/Middlewares/Third_Party/LwIP/src/core/timeouts.c ****  */
 165:/Users/nhantt/STM32Cube/Repository/STM32Cube_FW_F4_V1.26.0/Middlewares/Third_Party/LwIP/src/core/timeouts.c **** void
 166:/Users/nhantt/STM32Cube/Repository/STM32Cube_FW_F4_V1.26.0/Middlewares/Third_Party/LwIP/src/core/timeouts.c **** tcp_timer_needed(void)
 167:/Users/nhantt/STM32Cube/Repository/STM32Cube_FW_F4_V1.26.0/Middlewares/Third_Party/LwIP/src/core/timeouts.c **** {
 168:/Users/nhantt/STM32Cube/Repository/STM32Cube_FW_F4_V1.26.0/Middlewares/Third_Party/LwIP/src/core/timeouts.c ****   LWIP_ASSERT_CORE_LOCKED();
 169:/Users/nhantt/STM32Cube/Repository/STM32Cube_FW_F4_V1.26.0/Middlewares/Third_Party/LwIP/src/core/timeouts.c **** 
ARM GAS  /var/folders/k2/cd9bl_j17z77g23y6ffqb_400000gn/T//ccEkbS20.s 			page 5


 170:/Users/nhantt/STM32Cube/Repository/STM32Cube_FW_F4_V1.26.0/Middlewares/Third_Party/LwIP/src/core/timeouts.c ****   /* timer is off but needed again? */
 171:/Users/nhantt/STM32Cube/Repository/STM32Cube_FW_F4_V1.26.0/Middlewares/Third_Party/LwIP/src/core/timeouts.c ****   if (!tcpip_tcp_timer_active && (tcp_active_pcbs || tcp_tw_pcbs)) {
 172:/Users/nhantt/STM32Cube/Repository/STM32Cube_FW_F4_V1.26.0/Middlewares/Third_Party/LwIP/src/core/timeouts.c ****     /* enable and start timer */
 173:/Users/nhantt/STM32Cube/Repository/STM32Cube_FW_F4_V1.26.0/Middlewares/Third_Party/LwIP/src/core/timeouts.c ****     tcpip_tcp_timer_active = 1;
 174:/Users/nhantt/STM32Cube/Repository/STM32Cube_FW_F4_V1.26.0/Middlewares/Third_Party/LwIP/src/core/timeouts.c ****     sys_timeout(TCP_TMR_INTERVAL, tcpip_tcp_timer, NULL);
 175:/Users/nhantt/STM32Cube/Repository/STM32Cube_FW_F4_V1.26.0/Middlewares/Third_Party/LwIP/src/core/timeouts.c ****   }
 176:/Users/nhantt/STM32Cube/Repository/STM32Cube_FW_F4_V1.26.0/Middlewares/Third_Party/LwIP/src/core/timeouts.c **** }
 177:/Users/nhantt/STM32Cube/Repository/STM32Cube_FW_F4_V1.26.0/Middlewares/Third_Party/LwIP/src/core/timeouts.c **** #endif /* LWIP_TCP */
 178:/Users/nhantt/STM32Cube/Repository/STM32Cube_FW_F4_V1.26.0/Middlewares/Third_Party/LwIP/src/core/timeouts.c **** 
 179:/Users/nhantt/STM32Cube/Repository/STM32Cube_FW_F4_V1.26.0/Middlewares/Third_Party/LwIP/src/core/timeouts.c **** static void
 180:/Users/nhantt/STM32Cube/Repository/STM32Cube_FW_F4_V1.26.0/Middlewares/Third_Party/LwIP/src/core/timeouts.c **** #if LWIP_DEBUG_TIMERNAMES
 181:/Users/nhantt/STM32Cube/Repository/STM32Cube_FW_F4_V1.26.0/Middlewares/Third_Party/LwIP/src/core/timeouts.c **** sys_timeout_abs(u32_t abs_time, sys_timeout_handler handler, void *arg, const char *handler_name)
 182:/Users/nhantt/STM32Cube/Repository/STM32Cube_FW_F4_V1.26.0/Middlewares/Third_Party/LwIP/src/core/timeouts.c **** #else /* LWIP_DEBUG_TIMERNAMES */
 183:/Users/nhantt/STM32Cube/Repository/STM32Cube_FW_F4_V1.26.0/Middlewares/Third_Party/LwIP/src/core/timeouts.c **** sys_timeout_abs(u32_t abs_time, sys_timeout_handler handler, void *arg)
 184:/Users/nhantt/STM32Cube/Repository/STM32Cube_FW_F4_V1.26.0/Middlewares/Third_Party/LwIP/src/core/timeouts.c **** #endif
 185:/Users/nhantt/STM32Cube/Repository/STM32Cube_FW_F4_V1.26.0/Middlewares/Third_Party/LwIP/src/core/timeouts.c **** {
  42              		.loc 1 185 1 view -0
  43              		.cfi_startproc
  44              		@ args = 0, pretend = 0, frame = 0
  45              		@ frame_needed = 0, uses_anonymous_args = 0
  46              		.loc 1 185 1 is_stmt 0 view .LVU1
  47 0000 F8B5     		push	{r3, r4, r5, r6, r7, lr}
  48              	.LCFI0:
  49              		.cfi_def_cfa_offset 24
  50              		.cfi_offset 3, -24
  51              		.cfi_offset 4, -20
  52              		.cfi_offset 5, -16
  53              		.cfi_offset 6, -12
  54              		.cfi_offset 7, -8
  55              		.cfi_offset 14, -4
  56 0002 0446     		mov	r4, r0
  57 0004 0F46     		mov	r7, r1
  58 0006 1646     		mov	r6, r2
 186:/Users/nhantt/STM32Cube/Repository/STM32Cube_FW_F4_V1.26.0/Middlewares/Third_Party/LwIP/src/core/timeouts.c ****   struct sys_timeo *timeout, *t;
  59              		.loc 1 186 3 is_stmt 1 view .LVU2
 187:/Users/nhantt/STM32Cube/Repository/STM32Cube_FW_F4_V1.26.0/Middlewares/Third_Party/LwIP/src/core/timeouts.c **** 
 188:/Users/nhantt/STM32Cube/Repository/STM32Cube_FW_F4_V1.26.0/Middlewares/Third_Party/LwIP/src/core/timeouts.c ****   timeout = (struct sys_timeo *)memp_malloc(MEMP_SYS_TIMEOUT);
  60              		.loc 1 188 3 view .LVU3
  61              		.loc 1 188 33 is_stmt 0 view .LVU4
  62 0008 0620     		movs	r0, #6
  63              	.LVL1:
  64              		.loc 1 188 33 view .LVU5
  65 000a FFF7FEFF 		bl	memp_malloc
  66              	.LVL2:
 189:/Users/nhantt/STM32Cube/Repository/STM32Cube_FW_F4_V1.26.0/Middlewares/Third_Party/LwIP/src/core/timeouts.c ****   if (timeout == NULL) {
  67              		.loc 1 189 3 is_stmt 1 view .LVU6
  68              		.loc 1 189 6 is_stmt 0 view .LVU7
  69 000e 80B1     		cbz	r0, .L10
  70 0010 0546     		mov	r5, r0
 190:/Users/nhantt/STM32Cube/Repository/STM32Cube_FW_F4_V1.26.0/Middlewares/Third_Party/LwIP/src/core/timeouts.c ****     LWIP_ASSERT("sys_timeout: timeout != NULL, pool MEMP_SYS_TIMEOUT is empty", timeout != NULL);
 191:/Users/nhantt/STM32Cube/Repository/STM32Cube_FW_F4_V1.26.0/Middlewares/Third_Party/LwIP/src/core/timeouts.c ****     return;
 192:/Users/nhantt/STM32Cube/Repository/STM32Cube_FW_F4_V1.26.0/Middlewares/Third_Party/LwIP/src/core/timeouts.c ****   }
 193:/Users/nhantt/STM32Cube/Repository/STM32Cube_FW_F4_V1.26.0/Middlewares/Third_Party/LwIP/src/core/timeouts.c **** 
 194:/Users/nhantt/STM32Cube/Repository/STM32Cube_FW_F4_V1.26.0/Middlewares/Third_Party/LwIP/src/core/timeouts.c ****   timeout->next = NULL;
  71              		.loc 1 194 3 is_stmt 1 view .LVU8
  72              		.loc 1 194 17 is_stmt 0 view .LVU9
  73 0012 0023     		movs	r3, #0
ARM GAS  /var/folders/k2/cd9bl_j17z77g23y6ffqb_400000gn/T//ccEkbS20.s 			page 6


  74 0014 0360     		str	r3, [r0]
 195:/Users/nhantt/STM32Cube/Repository/STM32Cube_FW_F4_V1.26.0/Middlewares/Third_Party/LwIP/src/core/timeouts.c ****   timeout->h = handler;
  75              		.loc 1 195 3 is_stmt 1 view .LVU10
  76              		.loc 1 195 14 is_stmt 0 view .LVU11
  77 0016 8760     		str	r7, [r0, #8]
 196:/Users/nhantt/STM32Cube/Repository/STM32Cube_FW_F4_V1.26.0/Middlewares/Third_Party/LwIP/src/core/timeouts.c ****   timeout->arg = arg;
  78              		.loc 1 196 3 is_stmt 1 view .LVU12
  79              		.loc 1 196 16 is_stmt 0 view .LVU13
  80 0018 C660     		str	r6, [r0, #12]
 197:/Users/nhantt/STM32Cube/Repository/STM32Cube_FW_F4_V1.26.0/Middlewares/Third_Party/LwIP/src/core/timeouts.c ****   timeout->time = abs_time;
  81              		.loc 1 197 3 is_stmt 1 view .LVU14
  82              		.loc 1 197 17 is_stmt 0 view .LVU15
  83 001a 4460     		str	r4, [r0, #4]
 198:/Users/nhantt/STM32Cube/Repository/STM32Cube_FW_F4_V1.26.0/Middlewares/Third_Party/LwIP/src/core/timeouts.c **** 
 199:/Users/nhantt/STM32Cube/Repository/STM32Cube_FW_F4_V1.26.0/Middlewares/Third_Party/LwIP/src/core/timeouts.c **** #if LWIP_DEBUG_TIMERNAMES
 200:/Users/nhantt/STM32Cube/Repository/STM32Cube_FW_F4_V1.26.0/Middlewares/Third_Party/LwIP/src/core/timeouts.c ****   timeout->handler_name = handler_name;
 201:/Users/nhantt/STM32Cube/Repository/STM32Cube_FW_F4_V1.26.0/Middlewares/Third_Party/LwIP/src/core/timeouts.c ****   LWIP_DEBUGF(TIMERS_DEBUG, ("sys_timeout: %p abs_time=%"U32_F" handler=%s arg=%p\n",
 202:/Users/nhantt/STM32Cube/Repository/STM32Cube_FW_F4_V1.26.0/Middlewares/Third_Party/LwIP/src/core/timeouts.c ****                              (void *)timeout, abs_time, handler_name, (void *)arg));
 203:/Users/nhantt/STM32Cube/Repository/STM32Cube_FW_F4_V1.26.0/Middlewares/Third_Party/LwIP/src/core/timeouts.c **** #endif /* LWIP_DEBUG_TIMERNAMES */
 204:/Users/nhantt/STM32Cube/Repository/STM32Cube_FW_F4_V1.26.0/Middlewares/Third_Party/LwIP/src/core/timeouts.c **** 
 205:/Users/nhantt/STM32Cube/Repository/STM32Cube_FW_F4_V1.26.0/Middlewares/Third_Party/LwIP/src/core/timeouts.c ****   if (next_timeout == NULL) {
  84              		.loc 1 205 3 is_stmt 1 view .LVU16
  85              		.loc 1 205 20 is_stmt 0 view .LVU17
  86 001c 104B     		ldr	r3, .L12
  87 001e 1A68     		ldr	r2, [r3]
  88              		.loc 1 205 6 view .LVU18
  89 0020 72B1     		cbz	r2, .L11
 206:/Users/nhantt/STM32Cube/Repository/STM32Cube_FW_F4_V1.26.0/Middlewares/Third_Party/LwIP/src/core/timeouts.c ****     next_timeout = timeout;
 207:/Users/nhantt/STM32Cube/Repository/STM32Cube_FW_F4_V1.26.0/Middlewares/Third_Party/LwIP/src/core/timeouts.c ****     return;
 208:/Users/nhantt/STM32Cube/Repository/STM32Cube_FW_F4_V1.26.0/Middlewares/Third_Party/LwIP/src/core/timeouts.c ****   }
 209:/Users/nhantt/STM32Cube/Repository/STM32Cube_FW_F4_V1.26.0/Middlewares/Third_Party/LwIP/src/core/timeouts.c ****   if (TIME_LESS_THAN(timeout->time, next_timeout->time)) {
  90              		.loc 1 209 3 is_stmt 1 view .LVU19
  91              		.loc 1 209 7 is_stmt 0 view .LVU20
  92 0022 5368     		ldr	r3, [r2, #4]
  93 0024 E31A     		subs	r3, r4, r3
  94              		.loc 1 209 6 view .LVU21
  95 0026 002B     		cmp	r3, #0
  96 0028 0FDA     		bge	.L5
 210:/Users/nhantt/STM32Cube/Repository/STM32Cube_FW_F4_V1.26.0/Middlewares/Third_Party/LwIP/src/core/timeouts.c ****     timeout->next = next_timeout;
  97              		.loc 1 210 5 is_stmt 1 view .LVU22
  98              		.loc 1 210 19 is_stmt 0 view .LVU23
  99 002a 0260     		str	r2, [r0]
 211:/Users/nhantt/STM32Cube/Repository/STM32Cube_FW_F4_V1.26.0/Middlewares/Third_Party/LwIP/src/core/timeouts.c ****     next_timeout = timeout;
 100              		.loc 1 211 5 is_stmt 1 view .LVU24
 101              		.loc 1 211 18 is_stmt 0 view .LVU25
 102 002c 0C4B     		ldr	r3, .L12
 103 002e 1860     		str	r0, [r3]
 104              	.LVL3:
 105              	.L1:
 212:/Users/nhantt/STM32Cube/Repository/STM32Cube_FW_F4_V1.26.0/Middlewares/Third_Party/LwIP/src/core/timeouts.c ****   } else {
 213:/Users/nhantt/STM32Cube/Repository/STM32Cube_FW_F4_V1.26.0/Middlewares/Third_Party/LwIP/src/core/timeouts.c ****     for (t = next_timeout; t != NULL; t = t->next) {
 214:/Users/nhantt/STM32Cube/Repository/STM32Cube_FW_F4_V1.26.0/Middlewares/Third_Party/LwIP/src/core/timeouts.c ****       if ((t->next == NULL) || TIME_LESS_THAN(timeout->time, t->next->time)) {
 215:/Users/nhantt/STM32Cube/Repository/STM32Cube_FW_F4_V1.26.0/Middlewares/Third_Party/LwIP/src/core/timeouts.c ****         timeout->next = t->next;
 216:/Users/nhantt/STM32Cube/Repository/STM32Cube_FW_F4_V1.26.0/Middlewares/Third_Party/LwIP/src/core/timeouts.c ****         t->next = timeout;
 217:/Users/nhantt/STM32Cube/Repository/STM32Cube_FW_F4_V1.26.0/Middlewares/Third_Party/LwIP/src/core/timeouts.c ****         break;
 218:/Users/nhantt/STM32Cube/Repository/STM32Cube_FW_F4_V1.26.0/Middlewares/Third_Party/LwIP/src/core/timeouts.c ****       }
 219:/Users/nhantt/STM32Cube/Repository/STM32Cube_FW_F4_V1.26.0/Middlewares/Third_Party/LwIP/src/core/timeouts.c ****     }
ARM GAS  /var/folders/k2/cd9bl_j17z77g23y6ffqb_400000gn/T//ccEkbS20.s 			page 7


 220:/Users/nhantt/STM32Cube/Repository/STM32Cube_FW_F4_V1.26.0/Middlewares/Third_Party/LwIP/src/core/timeouts.c ****   }
 221:/Users/nhantt/STM32Cube/Repository/STM32Cube_FW_F4_V1.26.0/Middlewares/Third_Party/LwIP/src/core/timeouts.c **** }
 106              		.loc 1 221 1 view .LVU26
 107 0030 F8BD     		pop	{r3, r4, r5, r6, r7, pc}
 108              	.LVL4:
 109              	.L10:
 190:/Users/nhantt/STM32Cube/Repository/STM32Cube_FW_F4_V1.26.0/Middlewares/Third_Party/LwIP/src/core/timeouts.c ****     return;
 110              		.loc 1 190 5 is_stmt 1 discriminator 1 view .LVU27
 190:/Users/nhantt/STM32Cube/Repository/STM32Cube_FW_F4_V1.26.0/Middlewares/Third_Party/LwIP/src/core/timeouts.c ****     return;
 111              		.loc 1 190 5 discriminator 1 view .LVU28
 190:/Users/nhantt/STM32Cube/Repository/STM32Cube_FW_F4_V1.26.0/Middlewares/Third_Party/LwIP/src/core/timeouts.c ****     return;
 112              		.loc 1 190 5 discriminator 1 view .LVU29
 190:/Users/nhantt/STM32Cube/Repository/STM32Cube_FW_F4_V1.26.0/Middlewares/Third_Party/LwIP/src/core/timeouts.c ****     return;
 113              		.loc 1 190 5 discriminator 1 view .LVU30
 114 0032 0C4B     		ldr	r3, .L12+4
 115 0034 BE22     		movs	r2, #190
 116 0036 0C49     		ldr	r1, .L12+8
 117 0038 0C48     		ldr	r0, .L12+12
 118              	.LVL5:
 190:/Users/nhantt/STM32Cube/Repository/STM32Cube_FW_F4_V1.26.0/Middlewares/Third_Party/LwIP/src/core/timeouts.c ****     return;
 119              		.loc 1 190 5 is_stmt 0 discriminator 1 view .LVU31
 120 003a FFF7FEFF 		bl	printf
 121              	.LVL6:
 190:/Users/nhantt/STM32Cube/Repository/STM32Cube_FW_F4_V1.26.0/Middlewares/Third_Party/LwIP/src/core/timeouts.c ****     return;
 122              		.loc 1 190 5 is_stmt 1 discriminator 1 view .LVU32
 190:/Users/nhantt/STM32Cube/Repository/STM32Cube_FW_F4_V1.26.0/Middlewares/Third_Party/LwIP/src/core/timeouts.c ****     return;
 123              		.loc 1 190 5 discriminator 1 view .LVU33
 191:/Users/nhantt/STM32Cube/Repository/STM32Cube_FW_F4_V1.26.0/Middlewares/Third_Party/LwIP/src/core/timeouts.c ****   }
 124              		.loc 1 191 5 discriminator 1 view .LVU34
 125 003e F7E7     		b	.L1
 126              	.LVL7:
 127              	.L11:
 206:/Users/nhantt/STM32Cube/Repository/STM32Cube_FW_F4_V1.26.0/Middlewares/Third_Party/LwIP/src/core/timeouts.c ****     return;
 128              		.loc 1 206 5 view .LVU35
 206:/Users/nhantt/STM32Cube/Repository/STM32Cube_FW_F4_V1.26.0/Middlewares/Third_Party/LwIP/src/core/timeouts.c ****     return;
 129              		.loc 1 206 18 is_stmt 0 view .LVU36
 130 0040 1860     		str	r0, [r3]
 207:/Users/nhantt/STM32Cube/Repository/STM32Cube_FW_F4_V1.26.0/Middlewares/Third_Party/LwIP/src/core/timeouts.c ****   }
 131              		.loc 1 207 5 is_stmt 1 view .LVU37
 132 0042 F5E7     		b	.L1
 133              	.LVL8:
 134              	.L6:
 215:/Users/nhantt/STM32Cube/Repository/STM32Cube_FW_F4_V1.26.0/Middlewares/Third_Party/LwIP/src/core/timeouts.c ****         t->next = timeout;
 135              		.loc 1 215 9 view .LVU38
 215:/Users/nhantt/STM32Cube/Repository/STM32Cube_FW_F4_V1.26.0/Middlewares/Third_Party/LwIP/src/core/timeouts.c ****         t->next = timeout;
 136              		.loc 1 215 23 is_stmt 0 view .LVU39
 137 0044 2B60     		str	r3, [r5]
 216:/Users/nhantt/STM32Cube/Repository/STM32Cube_FW_F4_V1.26.0/Middlewares/Third_Party/LwIP/src/core/timeouts.c ****         break;
 138              		.loc 1 216 9 is_stmt 1 view .LVU40
 216:/Users/nhantt/STM32Cube/Repository/STM32Cube_FW_F4_V1.26.0/Middlewares/Third_Party/LwIP/src/core/timeouts.c ****         break;
 139              		.loc 1 216 17 is_stmt 0 view .LVU41
 140 0046 1560     		str	r5, [r2]
 217:/Users/nhantt/STM32Cube/Repository/STM32Cube_FW_F4_V1.26.0/Middlewares/Third_Party/LwIP/src/core/timeouts.c ****       }
 141              		.loc 1 217 9 is_stmt 1 view .LVU42
 142 0048 F2E7     		b	.L1
 143              	.LVL9:
 144              	.L5:
ARM GAS  /var/folders/k2/cd9bl_j17z77g23y6ffqb_400000gn/T//ccEkbS20.s 			page 8


 213:/Users/nhantt/STM32Cube/Repository/STM32Cube_FW_F4_V1.26.0/Middlewares/Third_Party/LwIP/src/core/timeouts.c ****       if ((t->next == NULL) || TIME_LESS_THAN(timeout->time, t->next->time)) {
 145              		.loc 1 213 28 discriminator 1 view .LVU43
 213:/Users/nhantt/STM32Cube/Repository/STM32Cube_FW_F4_V1.26.0/Middlewares/Third_Party/LwIP/src/core/timeouts.c ****       if ((t->next == NULL) || TIME_LESS_THAN(timeout->time, t->next->time)) {
 146              		.loc 1 213 5 is_stmt 0 discriminator 1 view .LVU44
 147 004a 002A     		cmp	r2, #0
 148 004c F0D0     		beq	.L1
 214:/Users/nhantt/STM32Cube/Repository/STM32Cube_FW_F4_V1.26.0/Middlewares/Third_Party/LwIP/src/core/timeouts.c ****         timeout->next = t->next;
 149              		.loc 1 214 7 is_stmt 1 view .LVU45
 214:/Users/nhantt/STM32Cube/Repository/STM32Cube_FW_F4_V1.26.0/Middlewares/Third_Party/LwIP/src/core/timeouts.c ****         timeout->next = t->next;
 150              		.loc 1 214 13 is_stmt 0 view .LVU46
 151 004e 1368     		ldr	r3, [r2]
 214:/Users/nhantt/STM32Cube/Repository/STM32Cube_FW_F4_V1.26.0/Middlewares/Third_Party/LwIP/src/core/timeouts.c ****         timeout->next = t->next;
 152              		.loc 1 214 10 view .LVU47
 153 0050 002B     		cmp	r3, #0
 154 0052 F7D0     		beq	.L6
 214:/Users/nhantt/STM32Cube/Repository/STM32Cube_FW_F4_V1.26.0/Middlewares/Third_Party/LwIP/src/core/timeouts.c ****         timeout->next = t->next;
 155              		.loc 1 214 32 discriminator 1 view .LVU48
 156 0054 5968     		ldr	r1, [r3, #4]
 157 0056 611A     		subs	r1, r4, r1
 214:/Users/nhantt/STM32Cube/Repository/STM32Cube_FW_F4_V1.26.0/Middlewares/Third_Party/LwIP/src/core/timeouts.c ****         timeout->next = t->next;
 158              		.loc 1 214 29 discriminator 1 view .LVU49
 159 0058 0029     		cmp	r1, #0
 160 005a F3DB     		blt	.L6
 213:/Users/nhantt/STM32Cube/Repository/STM32Cube_FW_F4_V1.26.0/Middlewares/Third_Party/LwIP/src/core/timeouts.c ****       if ((t->next == NULL) || TIME_LESS_THAN(timeout->time, t->next->time)) {
 161              		.loc 1 213 41 view .LVU50
 162 005c 1A46     		mov	r2, r3
 163              	.LVL10:
 213:/Users/nhantt/STM32Cube/Repository/STM32Cube_FW_F4_V1.26.0/Middlewares/Third_Party/LwIP/src/core/timeouts.c ****       if ((t->next == NULL) || TIME_LESS_THAN(timeout->time, t->next->time)) {
 164              		.loc 1 213 41 view .LVU51
 165 005e F4E7     		b	.L5
 166              	.L13:
 167              		.align	2
 168              	.L12:
 169 0060 00000000 		.word	.LANCHOR0
 170 0064 00000000 		.word	.LC0
 171 0068 6C000000 		.word	.LC1
 172 006c AC000000 		.word	.LC2
 173              		.cfi_endproc
 174              	.LFE157:
 176              		.section	.text.lwip_cyclic_timer,"ax",%progbits
 177              		.align	1
 178              		.syntax unified
 179              		.thumb
 180              		.thumb_func
 181              		.fpu fpv4-sp-d16
 183              	lwip_cyclic_timer:
 184              	.LVL11:
 185              	.LFB158:
 222:/Users/nhantt/STM32Cube/Repository/STM32Cube_FW_F4_V1.26.0/Middlewares/Third_Party/LwIP/src/core/timeouts.c **** 
 223:/Users/nhantt/STM32Cube/Repository/STM32Cube_FW_F4_V1.26.0/Middlewares/Third_Party/LwIP/src/core/timeouts.c **** /**
 224:/Users/nhantt/STM32Cube/Repository/STM32Cube_FW_F4_V1.26.0/Middlewares/Third_Party/LwIP/src/core/timeouts.c ****  * Timer callback function that calls cyclic->handler() and reschedules itself.
 225:/Users/nhantt/STM32Cube/Repository/STM32Cube_FW_F4_V1.26.0/Middlewares/Third_Party/LwIP/src/core/timeouts.c ****  *
 226:/Users/nhantt/STM32Cube/Repository/STM32Cube_FW_F4_V1.26.0/Middlewares/Third_Party/LwIP/src/core/timeouts.c ****  * @param arg unused argument
 227:/Users/nhantt/STM32Cube/Repository/STM32Cube_FW_F4_V1.26.0/Middlewares/Third_Party/LwIP/src/core/timeouts.c ****  */
 228:/Users/nhantt/STM32Cube/Repository/STM32Cube_FW_F4_V1.26.0/Middlewares/Third_Party/LwIP/src/core/timeouts.c **** #if !LWIP_TESTMODE
 229:/Users/nhantt/STM32Cube/Repository/STM32Cube_FW_F4_V1.26.0/Middlewares/Third_Party/LwIP/src/core/timeouts.c **** static
 230:/Users/nhantt/STM32Cube/Repository/STM32Cube_FW_F4_V1.26.0/Middlewares/Third_Party/LwIP/src/core/timeouts.c **** #endif
ARM GAS  /var/folders/k2/cd9bl_j17z77g23y6ffqb_400000gn/T//ccEkbS20.s 			page 9


 231:/Users/nhantt/STM32Cube/Repository/STM32Cube_FW_F4_V1.26.0/Middlewares/Third_Party/LwIP/src/core/timeouts.c **** void
 232:/Users/nhantt/STM32Cube/Repository/STM32Cube_FW_F4_V1.26.0/Middlewares/Third_Party/LwIP/src/core/timeouts.c **** lwip_cyclic_timer(void *arg)
 233:/Users/nhantt/STM32Cube/Repository/STM32Cube_FW_F4_V1.26.0/Middlewares/Third_Party/LwIP/src/core/timeouts.c **** {
 186              		.loc 1 233 1 is_stmt 1 view -0
 187              		.cfi_startproc
 188              		@ args = 0, pretend = 0, frame = 0
 189              		@ frame_needed = 0, uses_anonymous_args = 0
 190              		.loc 1 233 1 is_stmt 0 view .LVU53
 191 0000 38B5     		push	{r3, r4, r5, lr}
 192              	.LCFI1:
 193              		.cfi_def_cfa_offset 16
 194              		.cfi_offset 3, -16
 195              		.cfi_offset 4, -12
 196              		.cfi_offset 5, -8
 197              		.cfi_offset 14, -4
 198 0002 0446     		mov	r4, r0
 234:/Users/nhantt/STM32Cube/Repository/STM32Cube_FW_F4_V1.26.0/Middlewares/Third_Party/LwIP/src/core/timeouts.c ****   u32_t now;
 199              		.loc 1 234 3 is_stmt 1 view .LVU54
 235:/Users/nhantt/STM32Cube/Repository/STM32Cube_FW_F4_V1.26.0/Middlewares/Third_Party/LwIP/src/core/timeouts.c ****   u32_t next_timeout_time;
 200              		.loc 1 235 3 view .LVU55
 236:/Users/nhantt/STM32Cube/Repository/STM32Cube_FW_F4_V1.26.0/Middlewares/Third_Party/LwIP/src/core/timeouts.c ****   const struct lwip_cyclic_timer *cyclic = (const struct lwip_cyclic_timer *)arg;
 201              		.loc 1 236 3 view .LVU56
 202              	.LVL12:
 237:/Users/nhantt/STM32Cube/Repository/STM32Cube_FW_F4_V1.26.0/Middlewares/Third_Party/LwIP/src/core/timeouts.c **** 
 238:/Users/nhantt/STM32Cube/Repository/STM32Cube_FW_F4_V1.26.0/Middlewares/Third_Party/LwIP/src/core/timeouts.c **** #if LWIP_DEBUG_TIMERNAMES
 239:/Users/nhantt/STM32Cube/Repository/STM32Cube_FW_F4_V1.26.0/Middlewares/Third_Party/LwIP/src/core/timeouts.c ****   LWIP_DEBUGF(TIMERS_DEBUG, ("tcpip: %s()\n", cyclic->handler_name));
 240:/Users/nhantt/STM32Cube/Repository/STM32Cube_FW_F4_V1.26.0/Middlewares/Third_Party/LwIP/src/core/timeouts.c **** #endif
 241:/Users/nhantt/STM32Cube/Repository/STM32Cube_FW_F4_V1.26.0/Middlewares/Third_Party/LwIP/src/core/timeouts.c ****   cyclic->handler();
 203              		.loc 1 241 3 view .LVU57
 204              		.loc 1 241 9 is_stmt 0 view .LVU58
 205 0004 4368     		ldr	r3, [r0, #4]
 206              		.loc 1 241 3 view .LVU59
 207 0006 9847     		blx	r3
 208              	.LVL13:
 242:/Users/nhantt/STM32Cube/Repository/STM32Cube_FW_F4_V1.26.0/Middlewares/Third_Party/LwIP/src/core/timeouts.c **** 
 243:/Users/nhantt/STM32Cube/Repository/STM32Cube_FW_F4_V1.26.0/Middlewares/Third_Party/LwIP/src/core/timeouts.c ****   now = sys_now();
 209              		.loc 1 243 3 is_stmt 1 view .LVU60
 210              		.loc 1 243 9 is_stmt 0 view .LVU61
 211 0008 FFF7FEFF 		bl	sys_now
 212              	.LVL14:
 213 000c 8446     		mov	ip, r0
 214              	.LVL15:
 244:/Users/nhantt/STM32Cube/Repository/STM32Cube_FW_F4_V1.26.0/Middlewares/Third_Party/LwIP/src/core/timeouts.c ****   next_timeout_time = (u32_t)(current_timeout_due_time + cyclic->interval_ms);  /* overflow handled
 215              		.loc 1 244 3 is_stmt 1 view .LVU62
 216              		.loc 1 244 64 is_stmt 0 view .LVU63
 217 000e 2568     		ldr	r5, [r4]
 218              		.loc 1 244 23 view .LVU64
 219 0010 094B     		ldr	r3, .L18
 220 0012 1868     		ldr	r0, [r3]
 221              	.LVL16:
 222              		.loc 1 244 21 view .LVU65
 223 0014 2844     		add	r0, r0, r5
 224              	.LVL17:
 245:/Users/nhantt/STM32Cube/Repository/STM32Cube_FW_F4_V1.26.0/Middlewares/Third_Party/LwIP/src/core/timeouts.c ****   if (TIME_LESS_THAN(next_timeout_time, now)) {
 225              		.loc 1 245 3 is_stmt 1 view .LVU66
 226              		.loc 1 245 7 is_stmt 0 view .LVU67
 227 0016 A0EB0C03 		sub	r3, r0, ip
ARM GAS  /var/folders/k2/cd9bl_j17z77g23y6ffqb_400000gn/T//ccEkbS20.s 			page 10


 228              		.loc 1 245 6 view .LVU68
 229 001a 002B     		cmp	r3, #0
 230 001c 06DA     		bge	.L15
 246:/Users/nhantt/STM32Cube/Repository/STM32Cube_FW_F4_V1.26.0/Middlewares/Third_Party/LwIP/src/core/timeouts.c ****     /* timer would immediately expire again -> "overload" -> restart without any correction */
 247:/Users/nhantt/STM32Cube/Repository/STM32Cube_FW_F4_V1.26.0/Middlewares/Third_Party/LwIP/src/core/timeouts.c **** #if LWIP_DEBUG_TIMERNAMES
 248:/Users/nhantt/STM32Cube/Repository/STM32Cube_FW_F4_V1.26.0/Middlewares/Third_Party/LwIP/src/core/timeouts.c ****     sys_timeout_abs((u32_t)(now + cyclic->interval_ms), lwip_cyclic_timer, arg, cyclic->handler_nam
 249:/Users/nhantt/STM32Cube/Repository/STM32Cube_FW_F4_V1.26.0/Middlewares/Third_Party/LwIP/src/core/timeouts.c **** #else
 250:/Users/nhantt/STM32Cube/Repository/STM32Cube_FW_F4_V1.26.0/Middlewares/Third_Party/LwIP/src/core/timeouts.c ****     sys_timeout_abs((u32_t)(now + cyclic->interval_ms), lwip_cyclic_timer, arg);
 231              		.loc 1 250 5 is_stmt 1 view .LVU69
 232 001e 2246     		mov	r2, r4
 233 0020 0649     		ldr	r1, .L18+4
 234 0022 05EB0C00 		add	r0, r5, ip
 235              	.LVL18:
 236              		.loc 1 250 5 is_stmt 0 view .LVU70
 237 0026 FFF7FEFF 		bl	sys_timeout_abs
 238              	.LVL19:
 239              	.L14:
 251:/Users/nhantt/STM32Cube/Repository/STM32Cube_FW_F4_V1.26.0/Middlewares/Third_Party/LwIP/src/core/timeouts.c **** #endif
 252:/Users/nhantt/STM32Cube/Repository/STM32Cube_FW_F4_V1.26.0/Middlewares/Third_Party/LwIP/src/core/timeouts.c **** 
 253:/Users/nhantt/STM32Cube/Repository/STM32Cube_FW_F4_V1.26.0/Middlewares/Third_Party/LwIP/src/core/timeouts.c ****   } else {
 254:/Users/nhantt/STM32Cube/Repository/STM32Cube_FW_F4_V1.26.0/Middlewares/Third_Party/LwIP/src/core/timeouts.c ****     /* correct cyclic interval with handler execution delay and sys_check_timeouts jitter */
 255:/Users/nhantt/STM32Cube/Repository/STM32Cube_FW_F4_V1.26.0/Middlewares/Third_Party/LwIP/src/core/timeouts.c **** #if LWIP_DEBUG_TIMERNAMES
 256:/Users/nhantt/STM32Cube/Repository/STM32Cube_FW_F4_V1.26.0/Middlewares/Third_Party/LwIP/src/core/timeouts.c ****     sys_timeout_abs(next_timeout_time, lwip_cyclic_timer, arg, cyclic->handler_name);
 257:/Users/nhantt/STM32Cube/Repository/STM32Cube_FW_F4_V1.26.0/Middlewares/Third_Party/LwIP/src/core/timeouts.c **** #else
 258:/Users/nhantt/STM32Cube/Repository/STM32Cube_FW_F4_V1.26.0/Middlewares/Third_Party/LwIP/src/core/timeouts.c ****     sys_timeout_abs(next_timeout_time, lwip_cyclic_timer, arg);
 259:/Users/nhantt/STM32Cube/Repository/STM32Cube_FW_F4_V1.26.0/Middlewares/Third_Party/LwIP/src/core/timeouts.c **** #endif
 260:/Users/nhantt/STM32Cube/Repository/STM32Cube_FW_F4_V1.26.0/Middlewares/Third_Party/LwIP/src/core/timeouts.c ****   }
 261:/Users/nhantt/STM32Cube/Repository/STM32Cube_FW_F4_V1.26.0/Middlewares/Third_Party/LwIP/src/core/timeouts.c **** }
 240              		.loc 1 261 1 view .LVU71
 241 002a 38BD     		pop	{r3, r4, r5, pc}
 242              	.LVL20:
 243              	.L15:
 258:/Users/nhantt/STM32Cube/Repository/STM32Cube_FW_F4_V1.26.0/Middlewares/Third_Party/LwIP/src/core/timeouts.c **** #endif
 244              		.loc 1 258 5 is_stmt 1 view .LVU72
 245 002c 2246     		mov	r2, r4
 246 002e 0349     		ldr	r1, .L18+4
 247 0030 FFF7FEFF 		bl	sys_timeout_abs
 248              	.LVL21:
 249              		.loc 1 261 1 is_stmt 0 view .LVU73
 250 0034 F9E7     		b	.L14
 251              	.L19:
 252 0036 00BF     		.align	2
 253              	.L18:
 254 0038 00000000 		.word	.LANCHOR1
 255 003c 00000000 		.word	lwip_cyclic_timer
 256              		.cfi_endproc
 257              	.LFE158:
 259              		.section	.rodata.sys_timeout.str1.4,"aMS",%progbits,1
 260              		.align	2
 261              	.LC3:
 262 0000 54696D65 		.ascii	"Timeout time too long, max is LWIP_UINT32_MAX/4 mse"
 262      6F757420 
 262      74696D65 
 262      20746F6F 
 262      206C6F6E 
 263 0033 637300   		.ascii	"cs\000"
 264              		.section	.text.sys_timeout,"ax",%progbits
ARM GAS  /var/folders/k2/cd9bl_j17z77g23y6ffqb_400000gn/T//ccEkbS20.s 			page 11


 265              		.align	1
 266              		.global	sys_timeout
 267              		.syntax unified
 268              		.thumb
 269              		.thumb_func
 270              		.fpu fpv4-sp-d16
 272              	sys_timeout:
 273              	.LVL22:
 274              	.LFB160:
 262:/Users/nhantt/STM32Cube/Repository/STM32Cube_FW_F4_V1.26.0/Middlewares/Third_Party/LwIP/src/core/timeouts.c **** 
 263:/Users/nhantt/STM32Cube/Repository/STM32Cube_FW_F4_V1.26.0/Middlewares/Third_Party/LwIP/src/core/timeouts.c **** /** Initialize this module */
 264:/Users/nhantt/STM32Cube/Repository/STM32Cube_FW_F4_V1.26.0/Middlewares/Third_Party/LwIP/src/core/timeouts.c **** void sys_timeouts_init(void)
 265:/Users/nhantt/STM32Cube/Repository/STM32Cube_FW_F4_V1.26.0/Middlewares/Third_Party/LwIP/src/core/timeouts.c **** {
 266:/Users/nhantt/STM32Cube/Repository/STM32Cube_FW_F4_V1.26.0/Middlewares/Third_Party/LwIP/src/core/timeouts.c ****   size_t i;
 267:/Users/nhantt/STM32Cube/Repository/STM32Cube_FW_F4_V1.26.0/Middlewares/Third_Party/LwIP/src/core/timeouts.c ****   /* tcp_tmr() at index 0 is started on demand */
 268:/Users/nhantt/STM32Cube/Repository/STM32Cube_FW_F4_V1.26.0/Middlewares/Third_Party/LwIP/src/core/timeouts.c ****   for (i = (LWIP_TCP ? 1 : 0); i < LWIP_ARRAYSIZE(lwip_cyclic_timers); i++) {
 269:/Users/nhantt/STM32Cube/Repository/STM32Cube_FW_F4_V1.26.0/Middlewares/Third_Party/LwIP/src/core/timeouts.c ****     /* we have to cast via size_t to get rid of const warning
 270:/Users/nhantt/STM32Cube/Repository/STM32Cube_FW_F4_V1.26.0/Middlewares/Third_Party/LwIP/src/core/timeouts.c ****       (this is OK as cyclic_timer() casts back to const* */
 271:/Users/nhantt/STM32Cube/Repository/STM32Cube_FW_F4_V1.26.0/Middlewares/Third_Party/LwIP/src/core/timeouts.c ****     sys_timeout(lwip_cyclic_timers[i].interval_ms, lwip_cyclic_timer, LWIP_CONST_CAST(void *, &lwip
 272:/Users/nhantt/STM32Cube/Repository/STM32Cube_FW_F4_V1.26.0/Middlewares/Third_Party/LwIP/src/core/timeouts.c ****   }
 273:/Users/nhantt/STM32Cube/Repository/STM32Cube_FW_F4_V1.26.0/Middlewares/Third_Party/LwIP/src/core/timeouts.c **** }
 274:/Users/nhantt/STM32Cube/Repository/STM32Cube_FW_F4_V1.26.0/Middlewares/Third_Party/LwIP/src/core/timeouts.c **** 
 275:/Users/nhantt/STM32Cube/Repository/STM32Cube_FW_F4_V1.26.0/Middlewares/Third_Party/LwIP/src/core/timeouts.c **** /**
 276:/Users/nhantt/STM32Cube/Repository/STM32Cube_FW_F4_V1.26.0/Middlewares/Third_Party/LwIP/src/core/timeouts.c ****  * Create a one-shot timer (aka timeout). Timeouts are processed in the
 277:/Users/nhantt/STM32Cube/Repository/STM32Cube_FW_F4_V1.26.0/Middlewares/Third_Party/LwIP/src/core/timeouts.c ****  * following cases:
 278:/Users/nhantt/STM32Cube/Repository/STM32Cube_FW_F4_V1.26.0/Middlewares/Third_Party/LwIP/src/core/timeouts.c ****  * - while waiting for a message using sys_timeouts_mbox_fetch()
 279:/Users/nhantt/STM32Cube/Repository/STM32Cube_FW_F4_V1.26.0/Middlewares/Third_Party/LwIP/src/core/timeouts.c ****  * - by calling sys_check_timeouts() (NO_SYS==1 only)
 280:/Users/nhantt/STM32Cube/Repository/STM32Cube_FW_F4_V1.26.0/Middlewares/Third_Party/LwIP/src/core/timeouts.c ****  *
 281:/Users/nhantt/STM32Cube/Repository/STM32Cube_FW_F4_V1.26.0/Middlewares/Third_Party/LwIP/src/core/timeouts.c ****  * @param msecs time in milliseconds after that the timer should expire
 282:/Users/nhantt/STM32Cube/Repository/STM32Cube_FW_F4_V1.26.0/Middlewares/Third_Party/LwIP/src/core/timeouts.c ****  * @param handler callback function to call when msecs have elapsed
 283:/Users/nhantt/STM32Cube/Repository/STM32Cube_FW_F4_V1.26.0/Middlewares/Third_Party/LwIP/src/core/timeouts.c ****  * @param arg argument to pass to the callback function
 284:/Users/nhantt/STM32Cube/Repository/STM32Cube_FW_F4_V1.26.0/Middlewares/Third_Party/LwIP/src/core/timeouts.c ****  */
 285:/Users/nhantt/STM32Cube/Repository/STM32Cube_FW_F4_V1.26.0/Middlewares/Third_Party/LwIP/src/core/timeouts.c **** #if LWIP_DEBUG_TIMERNAMES
 286:/Users/nhantt/STM32Cube/Repository/STM32Cube_FW_F4_V1.26.0/Middlewares/Third_Party/LwIP/src/core/timeouts.c **** void
 287:/Users/nhantt/STM32Cube/Repository/STM32Cube_FW_F4_V1.26.0/Middlewares/Third_Party/LwIP/src/core/timeouts.c **** sys_timeout_debug(u32_t msecs, sys_timeout_handler handler, void *arg, const char *handler_name)
 288:/Users/nhantt/STM32Cube/Repository/STM32Cube_FW_F4_V1.26.0/Middlewares/Third_Party/LwIP/src/core/timeouts.c **** #else /* LWIP_DEBUG_TIMERNAMES */
 289:/Users/nhantt/STM32Cube/Repository/STM32Cube_FW_F4_V1.26.0/Middlewares/Third_Party/LwIP/src/core/timeouts.c **** void
 290:/Users/nhantt/STM32Cube/Repository/STM32Cube_FW_F4_V1.26.0/Middlewares/Third_Party/LwIP/src/core/timeouts.c **** sys_timeout(u32_t msecs, sys_timeout_handler handler, void *arg)
 291:/Users/nhantt/STM32Cube/Repository/STM32Cube_FW_F4_V1.26.0/Middlewares/Third_Party/LwIP/src/core/timeouts.c **** #endif /* LWIP_DEBUG_TIMERNAMES */
 292:/Users/nhantt/STM32Cube/Repository/STM32Cube_FW_F4_V1.26.0/Middlewares/Third_Party/LwIP/src/core/timeouts.c **** {
 275              		.loc 1 292 1 is_stmt 1 view -0
 276              		.cfi_startproc
 277              		@ args = 0, pretend = 0, frame = 0
 278              		@ frame_needed = 0, uses_anonymous_args = 0
 279              		.loc 1 292 1 is_stmt 0 view .LVU75
 280 0000 70B5     		push	{r4, r5, r6, lr}
 281              	.LCFI2:
 282              		.cfi_def_cfa_offset 16
 283              		.cfi_offset 4, -16
 284              		.cfi_offset 5, -12
 285              		.cfi_offset 6, -8
 286              		.cfi_offset 14, -4
 287 0002 0446     		mov	r4, r0
 288 0004 0D46     		mov	r5, r1
 289 0006 1646     		mov	r6, r2
 293:/Users/nhantt/STM32Cube/Repository/STM32Cube_FW_F4_V1.26.0/Middlewares/Third_Party/LwIP/src/core/timeouts.c ****   u32_t next_timeout_time;
 290              		.loc 1 293 3 is_stmt 1 view .LVU76
ARM GAS  /var/folders/k2/cd9bl_j17z77g23y6ffqb_400000gn/T//ccEkbS20.s 			page 12


 294:/Users/nhantt/STM32Cube/Repository/STM32Cube_FW_F4_V1.26.0/Middlewares/Third_Party/LwIP/src/core/timeouts.c **** 
 295:/Users/nhantt/STM32Cube/Repository/STM32Cube_FW_F4_V1.26.0/Middlewares/Third_Party/LwIP/src/core/timeouts.c ****   LWIP_ASSERT_CORE_LOCKED();
 291              		.loc 1 295 28 view .LVU77
 296:/Users/nhantt/STM32Cube/Repository/STM32Cube_FW_F4_V1.26.0/Middlewares/Third_Party/LwIP/src/core/timeouts.c **** 
 297:/Users/nhantt/STM32Cube/Repository/STM32Cube_FW_F4_V1.26.0/Middlewares/Third_Party/LwIP/src/core/timeouts.c ****   LWIP_ASSERT("Timeout time too long, max is LWIP_UINT32_MAX/4 msecs", msecs <= (LWIP_UINT32_MAX / 
 292              		.loc 1 297 3 view .LVU78
 293              		.loc 1 297 3 view .LVU79
 294 0008 B0F1804F 		cmp	r0, #1073741824
 295 000c 07D2     		bcs	.L23
 296              	.LVL23:
 297              	.L21:
 298              		.loc 1 297 3 discriminator 3 view .LVU80
 299              		.loc 1 297 3 discriminator 3 view .LVU81
 298:/Users/nhantt/STM32Cube/Repository/STM32Cube_FW_F4_V1.26.0/Middlewares/Third_Party/LwIP/src/core/timeouts.c **** 
 299:/Users/nhantt/STM32Cube/Repository/STM32Cube_FW_F4_V1.26.0/Middlewares/Third_Party/LwIP/src/core/timeouts.c ****   next_timeout_time = (u32_t)(sys_now() + msecs); /* overflow handled by TIME_LESS_THAN macro */ 
 300              		.loc 1 299 3 discriminator 3 view .LVU82
 301              		.loc 1 299 31 is_stmt 0 discriminator 3 view .LVU83
 302 000e FFF7FEFF 		bl	sys_now
 303              	.LVL24:
 300:/Users/nhantt/STM32Cube/Repository/STM32Cube_FW_F4_V1.26.0/Middlewares/Third_Party/LwIP/src/core/timeouts.c **** 
 301:/Users/nhantt/STM32Cube/Repository/STM32Cube_FW_F4_V1.26.0/Middlewares/Third_Party/LwIP/src/core/timeouts.c **** #if LWIP_DEBUG_TIMERNAMES
 302:/Users/nhantt/STM32Cube/Repository/STM32Cube_FW_F4_V1.26.0/Middlewares/Third_Party/LwIP/src/core/timeouts.c ****   sys_timeout_abs(next_timeout_time, handler, arg, handler_name);
 303:/Users/nhantt/STM32Cube/Repository/STM32Cube_FW_F4_V1.26.0/Middlewares/Third_Party/LwIP/src/core/timeouts.c **** #else
 304:/Users/nhantt/STM32Cube/Repository/STM32Cube_FW_F4_V1.26.0/Middlewares/Third_Party/LwIP/src/core/timeouts.c ****   sys_timeout_abs(next_timeout_time, handler, arg);
 304              		.loc 1 304 3 is_stmt 1 discriminator 3 view .LVU84
 305 0012 3246     		mov	r2, r6
 306 0014 2946     		mov	r1, r5
 307 0016 2044     		add	r0, r0, r4
 308              	.LVL25:
 309              		.loc 1 304 3 is_stmt 0 discriminator 3 view .LVU85
 310 0018 FFF7FEFF 		bl	sys_timeout_abs
 311              	.LVL26:
 305:/Users/nhantt/STM32Cube/Repository/STM32Cube_FW_F4_V1.26.0/Middlewares/Third_Party/LwIP/src/core/timeouts.c **** #endif
 306:/Users/nhantt/STM32Cube/Repository/STM32Cube_FW_F4_V1.26.0/Middlewares/Third_Party/LwIP/src/core/timeouts.c **** }
 312              		.loc 1 306 1 discriminator 3 view .LVU86
 313 001c 70BD     		pop	{r4, r5, r6, pc}
 314              	.LVL27:
 315              	.L23:
 297:/Users/nhantt/STM32Cube/Repository/STM32Cube_FW_F4_V1.26.0/Middlewares/Third_Party/LwIP/src/core/timeouts.c **** 
 316              		.loc 1 297 3 is_stmt 1 discriminator 1 view .LVU87
 297:/Users/nhantt/STM32Cube/Repository/STM32Cube_FW_F4_V1.26.0/Middlewares/Third_Party/LwIP/src/core/timeouts.c **** 
 317              		.loc 1 297 3 discriminator 1 view .LVU88
 318 001e 044B     		ldr	r3, .L24
 319 0020 40F22912 		movw	r2, #297
 320              	.LVL28:
 297:/Users/nhantt/STM32Cube/Repository/STM32Cube_FW_F4_V1.26.0/Middlewares/Third_Party/LwIP/src/core/timeouts.c **** 
 321              		.loc 1 297 3 is_stmt 0 discriminator 1 view .LVU89
 322 0024 0349     		ldr	r1, .L24+4
 323              	.LVL29:
 297:/Users/nhantt/STM32Cube/Repository/STM32Cube_FW_F4_V1.26.0/Middlewares/Third_Party/LwIP/src/core/timeouts.c **** 
 324              		.loc 1 297 3 discriminator 1 view .LVU90
 325 0026 0448     		ldr	r0, .L24+8
 326              	.LVL30:
 297:/Users/nhantt/STM32Cube/Repository/STM32Cube_FW_F4_V1.26.0/Middlewares/Third_Party/LwIP/src/core/timeouts.c **** 
 327              		.loc 1 297 3 discriminator 1 view .LVU91
 328 0028 FFF7FEFF 		bl	printf
 329              	.LVL31:
ARM GAS  /var/folders/k2/cd9bl_j17z77g23y6ffqb_400000gn/T//ccEkbS20.s 			page 13


 330 002c EFE7     		b	.L21
 331              	.L25:
 332 002e 00BF     		.align	2
 333              	.L24:
 334 0030 00000000 		.word	.LC0
 335 0034 00000000 		.word	.LC3
 336 0038 AC000000 		.word	.LC2
 337              		.cfi_endproc
 338              	.LFE160:
 340              		.section	.text.tcp_timer_needed,"ax",%progbits
 341              		.align	1
 342              		.global	tcp_timer_needed
 343              		.syntax unified
 344              		.thumb
 345              		.thumb_func
 346              		.fpu fpv4-sp-d16
 348              	tcp_timer_needed:
 349              	.LFB156:
 167:/Users/nhantt/STM32Cube/Repository/STM32Cube_FW_F4_V1.26.0/Middlewares/Third_Party/LwIP/src/core/timeouts.c ****   LWIP_ASSERT_CORE_LOCKED();
 350              		.loc 1 167 1 is_stmt 1 view -0
 351              		.cfi_startproc
 352              		@ args = 0, pretend = 0, frame = 0
 353              		@ frame_needed = 0, uses_anonymous_args = 0
 354 0000 08B5     		push	{r3, lr}
 355              	.LCFI3:
 356              		.cfi_def_cfa_offset 8
 357              		.cfi_offset 3, -8
 358              		.cfi_offset 14, -4
 168:/Users/nhantt/STM32Cube/Repository/STM32Cube_FW_F4_V1.26.0/Middlewares/Third_Party/LwIP/src/core/timeouts.c **** 
 359              		.loc 1 168 28 view .LVU93
 171:/Users/nhantt/STM32Cube/Repository/STM32Cube_FW_F4_V1.26.0/Middlewares/Third_Party/LwIP/src/core/timeouts.c ****     /* enable and start timer */
 360              		.loc 1 171 3 view .LVU94
 171:/Users/nhantt/STM32Cube/Repository/STM32Cube_FW_F4_V1.26.0/Middlewares/Third_Party/LwIP/src/core/timeouts.c ****     /* enable and start timer */
 361              		.loc 1 171 7 is_stmt 0 view .LVU95
 362 0002 0A4B     		ldr	r3, .L31
 363 0004 1B68     		ldr	r3, [r3]
 171:/Users/nhantt/STM32Cube/Repository/STM32Cube_FW_F4_V1.26.0/Middlewares/Third_Party/LwIP/src/core/timeouts.c ****     /* enable and start timer */
 364              		.loc 1 171 6 view .LVU96
 365 0006 53B9     		cbnz	r3, .L26
 171:/Users/nhantt/STM32Cube/Repository/STM32Cube_FW_F4_V1.26.0/Middlewares/Third_Party/LwIP/src/core/timeouts.c ****     /* enable and start timer */
 366              		.loc 1 171 35 discriminator 1 view .LVU97
 367 0008 094B     		ldr	r3, .L31+4
 368 000a 1B68     		ldr	r3, [r3]
 171:/Users/nhantt/STM32Cube/Repository/STM32Cube_FW_F4_V1.26.0/Middlewares/Third_Party/LwIP/src/core/timeouts.c ****     /* enable and start timer */
 369              		.loc 1 171 31 discriminator 1 view .LVU98
 370 000c 43B1     		cbz	r3, .L30
 371              	.L28:
 173:/Users/nhantt/STM32Cube/Repository/STM32Cube_FW_F4_V1.26.0/Middlewares/Third_Party/LwIP/src/core/timeouts.c ****     sys_timeout(TCP_TMR_INTERVAL, tcpip_tcp_timer, NULL);
 372              		.loc 1 173 5 is_stmt 1 view .LVU99
 173:/Users/nhantt/STM32Cube/Repository/STM32Cube_FW_F4_V1.26.0/Middlewares/Third_Party/LwIP/src/core/timeouts.c ****     sys_timeout(TCP_TMR_INTERVAL, tcpip_tcp_timer, NULL);
 373              		.loc 1 173 28 is_stmt 0 view .LVU100
 374 000e 074B     		ldr	r3, .L31
 375 0010 0122     		movs	r2, #1
 376 0012 1A60     		str	r2, [r3]
 174:/Users/nhantt/STM32Cube/Repository/STM32Cube_FW_F4_V1.26.0/Middlewares/Third_Party/LwIP/src/core/timeouts.c ****   }
 377              		.loc 1 174 5 is_stmt 1 view .LVU101
 378 0014 0022     		movs	r2, #0
ARM GAS  /var/folders/k2/cd9bl_j17z77g23y6ffqb_400000gn/T//ccEkbS20.s 			page 14


 379 0016 0749     		ldr	r1, .L31+8
 380 0018 FA20     		movs	r0, #250
 381 001a FFF7FEFF 		bl	sys_timeout
 382              	.LVL32:
 383              	.L26:
 176:/Users/nhantt/STM32Cube/Repository/STM32Cube_FW_F4_V1.26.0/Middlewares/Third_Party/LwIP/src/core/timeouts.c **** #endif /* LWIP_TCP */
 384              		.loc 1 176 1 is_stmt 0 view .LVU102
 385 001e 08BD     		pop	{r3, pc}
 386              	.L30:
 171:/Users/nhantt/STM32Cube/Repository/STM32Cube_FW_F4_V1.26.0/Middlewares/Third_Party/LwIP/src/core/timeouts.c ****     /* enable and start timer */
 387              		.loc 1 171 51 discriminator 2 view .LVU103
 388 0020 054B     		ldr	r3, .L31+12
 389 0022 1B68     		ldr	r3, [r3]
 390 0024 002B     		cmp	r3, #0
 391 0026 F2D1     		bne	.L28
 392 0028 F9E7     		b	.L26
 393              	.L32:
 394 002a 00BF     		.align	2
 395              	.L31:
 396 002c 00000000 		.word	.LANCHOR2
 397 0030 00000000 		.word	tcp_active_pcbs
 398 0034 00000000 		.word	tcpip_tcp_timer
 399 0038 00000000 		.word	tcp_tw_pcbs
 400              		.cfi_endproc
 401              	.LFE156:
 403              		.section	.text.tcpip_tcp_timer,"ax",%progbits
 404              		.align	1
 405              		.syntax unified
 406              		.thumb
 407              		.thumb_func
 408              		.fpu fpv4-sp-d16
 410              	tcpip_tcp_timer:
 411              	.LVL33:
 412              	.LFB155:
 145:/Users/nhantt/STM32Cube/Repository/STM32Cube_FW_F4_V1.26.0/Middlewares/Third_Party/LwIP/src/core/timeouts.c ****   LWIP_UNUSED_ARG(arg);
 413              		.loc 1 145 1 is_stmt 1 view -0
 414              		.cfi_startproc
 415              		@ args = 0, pretend = 0, frame = 0
 416              		@ frame_needed = 0, uses_anonymous_args = 0
 145:/Users/nhantt/STM32Cube/Repository/STM32Cube_FW_F4_V1.26.0/Middlewares/Third_Party/LwIP/src/core/timeouts.c ****   LWIP_UNUSED_ARG(arg);
 417              		.loc 1 145 1 is_stmt 0 view .LVU105
 418 0000 08B5     		push	{r3, lr}
 419              	.LCFI4:
 420              		.cfi_def_cfa_offset 8
 421              		.cfi_offset 3, -8
 422              		.cfi_offset 14, -4
 146:/Users/nhantt/STM32Cube/Repository/STM32Cube_FW_F4_V1.26.0/Middlewares/Third_Party/LwIP/src/core/timeouts.c **** 
 423              		.loc 1 146 3 is_stmt 1 view .LVU106
 149:/Users/nhantt/STM32Cube/Repository/STM32Cube_FW_F4_V1.26.0/Middlewares/Third_Party/LwIP/src/core/timeouts.c ****   /* timer still needed? */
 424              		.loc 1 149 3 view .LVU107
 425 0002 FFF7FEFF 		bl	tcp_tmr
 426              	.LVL34:
 151:/Users/nhantt/STM32Cube/Repository/STM32Cube_FW_F4_V1.26.0/Middlewares/Third_Party/LwIP/src/core/timeouts.c ****     /* restart timer */
 427              		.loc 1 151 3 view .LVU108
 151:/Users/nhantt/STM32Cube/Repository/STM32Cube_FW_F4_V1.26.0/Middlewares/Third_Party/LwIP/src/core/timeouts.c ****     /* restart timer */
 428              		.loc 1 151 7 is_stmt 0 view .LVU109
 429 0006 084B     		ldr	r3, .L39
ARM GAS  /var/folders/k2/cd9bl_j17z77g23y6ffqb_400000gn/T//ccEkbS20.s 			page 15


 430 0008 1B68     		ldr	r3, [r3]
 151:/Users/nhantt/STM32Cube/Repository/STM32Cube_FW_F4_V1.26.0/Middlewares/Third_Party/LwIP/src/core/timeouts.c ****     /* restart timer */
 431              		.loc 1 151 6 view .LVU110
 432 000a 2BB1     		cbz	r3, .L38
 433              	.L34:
 153:/Users/nhantt/STM32Cube/Repository/STM32Cube_FW_F4_V1.26.0/Middlewares/Third_Party/LwIP/src/core/timeouts.c ****   } else {
 434              		.loc 1 153 5 is_stmt 1 view .LVU111
 435 000c 0022     		movs	r2, #0
 436 000e 0749     		ldr	r1, .L39+4
 437 0010 FA20     		movs	r0, #250
 438 0012 FFF7FEFF 		bl	sys_timeout
 439              	.LVL35:
 440              	.L33:
 158:/Users/nhantt/STM32Cube/Repository/STM32Cube_FW_F4_V1.26.0/Middlewares/Third_Party/LwIP/src/core/timeouts.c **** 
 441              		.loc 1 158 1 is_stmt 0 view .LVU112
 442 0016 08BD     		pop	{r3, pc}
 443              	.L38:
 151:/Users/nhantt/STM32Cube/Repository/STM32Cube_FW_F4_V1.26.0/Middlewares/Third_Party/LwIP/src/core/timeouts.c ****     /* restart timer */
 444              		.loc 1 151 23 discriminator 1 view .LVU113
 445 0018 054B     		ldr	r3, .L39+8
 446 001a 1B68     		ldr	r3, [r3]
 447 001c 002B     		cmp	r3, #0
 448 001e F5D1     		bne	.L34
 156:/Users/nhantt/STM32Cube/Repository/STM32Cube_FW_F4_V1.26.0/Middlewares/Third_Party/LwIP/src/core/timeouts.c ****   }
 449              		.loc 1 156 5 is_stmt 1 view .LVU114
 156:/Users/nhantt/STM32Cube/Repository/STM32Cube_FW_F4_V1.26.0/Middlewares/Third_Party/LwIP/src/core/timeouts.c ****   }
 450              		.loc 1 156 28 is_stmt 0 view .LVU115
 451 0020 044B     		ldr	r3, .L39+12
 452 0022 0022     		movs	r2, #0
 453 0024 1A60     		str	r2, [r3]
 158:/Users/nhantt/STM32Cube/Repository/STM32Cube_FW_F4_V1.26.0/Middlewares/Third_Party/LwIP/src/core/timeouts.c **** 
 454              		.loc 1 158 1 view .LVU116
 455 0026 F6E7     		b	.L33
 456              	.L40:
 457              		.align	2
 458              	.L39:
 459 0028 00000000 		.word	tcp_active_pcbs
 460 002c 00000000 		.word	tcpip_tcp_timer
 461 0030 00000000 		.word	tcp_tw_pcbs
 462 0034 00000000 		.word	.LANCHOR2
 463              		.cfi_endproc
 464              	.LFE155:
 466              		.section	.text.sys_timeouts_init,"ax",%progbits
 467              		.align	1
 468              		.global	sys_timeouts_init
 469              		.syntax unified
 470              		.thumb
 471              		.thumb_func
 472              		.fpu fpv4-sp-d16
 474              	sys_timeouts_init:
 475              	.LFB159:
 265:/Users/nhantt/STM32Cube/Repository/STM32Cube_FW_F4_V1.26.0/Middlewares/Third_Party/LwIP/src/core/timeouts.c ****   size_t i;
 476              		.loc 1 265 1 is_stmt 1 view -0
 477              		.cfi_startproc
 478              		@ args = 0, pretend = 0, frame = 0
 479              		@ frame_needed = 0, uses_anonymous_args = 0
 480 0000 10B5     		push	{r4, lr}
ARM GAS  /var/folders/k2/cd9bl_j17z77g23y6ffqb_400000gn/T//ccEkbS20.s 			page 16


 481              	.LCFI5:
 482              		.cfi_def_cfa_offset 8
 483              		.cfi_offset 4, -8
 484              		.cfi_offset 14, -4
 266:/Users/nhantt/STM32Cube/Repository/STM32Cube_FW_F4_V1.26.0/Middlewares/Third_Party/LwIP/src/core/timeouts.c ****   /* tcp_tmr() at index 0 is started on demand */
 485              		.loc 1 266 3 view .LVU118
 268:/Users/nhantt/STM32Cube/Repository/STM32Cube_FW_F4_V1.26.0/Middlewares/Third_Party/LwIP/src/core/timeouts.c ****     /* we have to cast via size_t to get rid of const warning
 486              		.loc 1 268 3 view .LVU119
 487              	.LVL36:
 268:/Users/nhantt/STM32Cube/Repository/STM32Cube_FW_F4_V1.26.0/Middlewares/Third_Party/LwIP/src/core/timeouts.c ****     /* we have to cast via size_t to get rid of const warning
 488              		.loc 1 268 10 is_stmt 0 view .LVU120
 489 0002 0124     		movs	r4, #1
 268:/Users/nhantt/STM32Cube/Repository/STM32Cube_FW_F4_V1.26.0/Middlewares/Third_Party/LwIP/src/core/timeouts.c ****     /* we have to cast via size_t to get rid of const warning
 490              		.loc 1 268 3 view .LVU121
 491 0004 08E0     		b	.L42
 492              	.LVL37:
 493              	.L43:
 271:/Users/nhantt/STM32Cube/Repository/STM32Cube_FW_F4_V1.26.0/Middlewares/Third_Party/LwIP/src/core/timeouts.c ****   }
 494              		.loc 1 271 5 is_stmt 1 discriminator 3 view .LVU122
 271:/Users/nhantt/STM32Cube/Repository/STM32Cube_FW_F4_V1.26.0/Middlewares/Third_Party/LwIP/src/core/timeouts.c ****   }
 495              		.loc 1 271 71 is_stmt 0 discriminator 3 view .LVU123
 496 0006 064B     		ldr	r3, .L45
 271:/Users/nhantt/STM32Cube/Repository/STM32Cube_FW_F4_V1.26.0/Middlewares/Third_Party/LwIP/src/core/timeouts.c ****   }
 497              		.loc 1 271 5 discriminator 3 view .LVU124
 498 0008 03EBC402 		add	r2, r3, r4, lsl #3
 499 000c 0549     		ldr	r1, .L45+4
 500 000e 53F83400 		ldr	r0, [r3, r4, lsl #3]
 501 0012 FFF7FEFF 		bl	sys_timeout
 502              	.LVL38:
 268:/Users/nhantt/STM32Cube/Repository/STM32Cube_FW_F4_V1.26.0/Middlewares/Third_Party/LwIP/src/core/timeouts.c ****     /* we have to cast via size_t to get rid of const warning
 503              		.loc 1 268 72 is_stmt 1 discriminator 3 view .LVU125
 268:/Users/nhantt/STM32Cube/Repository/STM32Cube_FW_F4_V1.26.0/Middlewares/Third_Party/LwIP/src/core/timeouts.c ****     /* we have to cast via size_t to get rid of const warning
 504              		.loc 1 268 73 is_stmt 0 discriminator 3 view .LVU126
 505 0016 0134     		adds	r4, r4, #1
 506              	.LVL39:
 507              	.L42:
 268:/Users/nhantt/STM32Cube/Repository/STM32Cube_FW_F4_V1.26.0/Middlewares/Third_Party/LwIP/src/core/timeouts.c ****     /* we have to cast via size_t to get rid of const warning
 508              		.loc 1 268 32 is_stmt 1 discriminator 1 view .LVU127
 268:/Users/nhantt/STM32Cube/Repository/STM32Cube_FW_F4_V1.26.0/Middlewares/Third_Party/LwIP/src/core/timeouts.c ****     /* we have to cast via size_t to get rid of const warning
 509              		.loc 1 268 3 is_stmt 0 discriminator 1 view .LVU128
 510 0018 042C     		cmp	r4, #4
 511 001a F4D9     		bls	.L43
 273:/Users/nhantt/STM32Cube/Repository/STM32Cube_FW_F4_V1.26.0/Middlewares/Third_Party/LwIP/src/core/timeouts.c **** 
 512              		.loc 1 273 1 view .LVU129
 513 001c 10BD     		pop	{r4, pc}
 514              	.LVL40:
 515              	.L46:
 273:/Users/nhantt/STM32Cube/Repository/STM32Cube_FW_F4_V1.26.0/Middlewares/Third_Party/LwIP/src/core/timeouts.c **** 
 516              		.loc 1 273 1 view .LVU130
 517 001e 00BF     		.align	2
 518              	.L45:
 519 0020 00000000 		.word	.LANCHOR3
 520 0024 00000000 		.word	lwip_cyclic_timer
 521              		.cfi_endproc
 522              	.LFE159:
 524              		.section	.text.sys_untimeout,"ax",%progbits
 525              		.align	1
ARM GAS  /var/folders/k2/cd9bl_j17z77g23y6ffqb_400000gn/T//ccEkbS20.s 			page 17


 526              		.global	sys_untimeout
 527              		.syntax unified
 528              		.thumb
 529              		.thumb_func
 530              		.fpu fpv4-sp-d16
 532              	sys_untimeout:
 533              	.LVL41:
 534              	.LFB161:
 307:/Users/nhantt/STM32Cube/Repository/STM32Cube_FW_F4_V1.26.0/Middlewares/Third_Party/LwIP/src/core/timeouts.c **** 
 308:/Users/nhantt/STM32Cube/Repository/STM32Cube_FW_F4_V1.26.0/Middlewares/Third_Party/LwIP/src/core/timeouts.c **** /**
 309:/Users/nhantt/STM32Cube/Repository/STM32Cube_FW_F4_V1.26.0/Middlewares/Third_Party/LwIP/src/core/timeouts.c ****  * Go through timeout list (for this task only) and remove the first matching
 310:/Users/nhantt/STM32Cube/Repository/STM32Cube_FW_F4_V1.26.0/Middlewares/Third_Party/LwIP/src/core/timeouts.c ****  * entry (subsequent entries remain untouched), even though the timeout has not
 311:/Users/nhantt/STM32Cube/Repository/STM32Cube_FW_F4_V1.26.0/Middlewares/Third_Party/LwIP/src/core/timeouts.c ****  * triggered yet.
 312:/Users/nhantt/STM32Cube/Repository/STM32Cube_FW_F4_V1.26.0/Middlewares/Third_Party/LwIP/src/core/timeouts.c ****  *
 313:/Users/nhantt/STM32Cube/Repository/STM32Cube_FW_F4_V1.26.0/Middlewares/Third_Party/LwIP/src/core/timeouts.c ****  * @param handler callback function that would be called by the timeout
 314:/Users/nhantt/STM32Cube/Repository/STM32Cube_FW_F4_V1.26.0/Middlewares/Third_Party/LwIP/src/core/timeouts.c ****  * @param arg callback argument that would be passed to handler
 315:/Users/nhantt/STM32Cube/Repository/STM32Cube_FW_F4_V1.26.0/Middlewares/Third_Party/LwIP/src/core/timeouts.c **** */
 316:/Users/nhantt/STM32Cube/Repository/STM32Cube_FW_F4_V1.26.0/Middlewares/Third_Party/LwIP/src/core/timeouts.c **** void
 317:/Users/nhantt/STM32Cube/Repository/STM32Cube_FW_F4_V1.26.0/Middlewares/Third_Party/LwIP/src/core/timeouts.c **** sys_untimeout(sys_timeout_handler handler, void *arg)
 318:/Users/nhantt/STM32Cube/Repository/STM32Cube_FW_F4_V1.26.0/Middlewares/Third_Party/LwIP/src/core/timeouts.c **** {
 535              		.loc 1 318 1 is_stmt 1 view -0
 536              		.cfi_startproc
 537              		@ args = 0, pretend = 0, frame = 0
 538              		@ frame_needed = 0, uses_anonymous_args = 0
 539              		.loc 1 318 1 is_stmt 0 view .LVU132
 540 0000 08B5     		push	{r3, lr}
 541              	.LCFI6:
 542              		.cfi_def_cfa_offset 8
 543              		.cfi_offset 3, -8
 544              		.cfi_offset 14, -4
 545 0002 8C46     		mov	ip, r1
 319:/Users/nhantt/STM32Cube/Repository/STM32Cube_FW_F4_V1.26.0/Middlewares/Third_Party/LwIP/src/core/timeouts.c ****   struct sys_timeo *prev_t, *t;
 546              		.loc 1 319 3 is_stmt 1 view .LVU133
 320:/Users/nhantt/STM32Cube/Repository/STM32Cube_FW_F4_V1.26.0/Middlewares/Third_Party/LwIP/src/core/timeouts.c **** 
 321:/Users/nhantt/STM32Cube/Repository/STM32Cube_FW_F4_V1.26.0/Middlewares/Third_Party/LwIP/src/core/timeouts.c ****   LWIP_ASSERT_CORE_LOCKED();
 547              		.loc 1 321 28 view .LVU134
 322:/Users/nhantt/STM32Cube/Repository/STM32Cube_FW_F4_V1.26.0/Middlewares/Third_Party/LwIP/src/core/timeouts.c **** 
 323:/Users/nhantt/STM32Cube/Repository/STM32Cube_FW_F4_V1.26.0/Middlewares/Third_Party/LwIP/src/core/timeouts.c ****   if (next_timeout == NULL) {
 548              		.loc 1 323 3 view .LVU135
 549              		.loc 1 323 20 is_stmt 0 view .LVU136
 550 0004 0C4B     		ldr	r3, .L56
 551 0006 1968     		ldr	r1, [r3]
 552              	.LVL42:
 553              		.loc 1 323 6 view .LVU137
 554 0008 A9B1     		cbz	r1, .L47
 324:/Users/nhantt/STM32Cube/Repository/STM32Cube_FW_F4_V1.26.0/Middlewares/Third_Party/LwIP/src/core/timeouts.c ****     return;
 325:/Users/nhantt/STM32Cube/Repository/STM32Cube_FW_F4_V1.26.0/Middlewares/Third_Party/LwIP/src/core/timeouts.c ****   }
 326:/Users/nhantt/STM32Cube/Repository/STM32Cube_FW_F4_V1.26.0/Middlewares/Third_Party/LwIP/src/core/timeouts.c **** 
 327:/Users/nhantt/STM32Cube/Repository/STM32Cube_FW_F4_V1.26.0/Middlewares/Third_Party/LwIP/src/core/timeouts.c ****   for (t = next_timeout, prev_t = NULL; t != NULL; prev_t = t, t = t->next) {
 555              		.loc 1 327 33 view .LVU138
 556 000a 0022     		movs	r2, #0
 557 000c 05E0     		b	.L49
 558              	.LVL43:
 559              	.L55:
 328:/Users/nhantt/STM32Cube/Repository/STM32Cube_FW_F4_V1.26.0/Middlewares/Third_Party/LwIP/src/core/timeouts.c ****     if ((t->h == handler) && (t->arg == arg)) {
 329:/Users/nhantt/STM32Cube/Repository/STM32Cube_FW_F4_V1.26.0/Middlewares/Third_Party/LwIP/src/core/timeouts.c ****       /* We have a match */
 330:/Users/nhantt/STM32Cube/Repository/STM32Cube_FW_F4_V1.26.0/Middlewares/Third_Party/LwIP/src/core/timeouts.c ****       /* Unlink from previous in list */
ARM GAS  /var/folders/k2/cd9bl_j17z77g23y6ffqb_400000gn/T//ccEkbS20.s 			page 18


 331:/Users/nhantt/STM32Cube/Repository/STM32Cube_FW_F4_V1.26.0/Middlewares/Third_Party/LwIP/src/core/timeouts.c ****       if (prev_t == NULL) {
 332:/Users/nhantt/STM32Cube/Repository/STM32Cube_FW_F4_V1.26.0/Middlewares/Third_Party/LwIP/src/core/timeouts.c ****         next_timeout = t->next;
 560              		.loc 1 332 9 is_stmt 1 view .LVU139
 561              		.loc 1 332 25 is_stmt 0 view .LVU140
 562 000e 0A68     		ldr	r2, [r1]
 563              	.LVL44:
 564              		.loc 1 332 22 view .LVU141
 565 0010 094B     		ldr	r3, .L56
 566 0012 1A60     		str	r2, [r3]
 567 0014 0CE0     		b	.L52
 568              	.LVL45:
 569              	.L50:
 327:/Users/nhantt/STM32Cube/Repository/STM32Cube_FW_F4_V1.26.0/Middlewares/Third_Party/LwIP/src/core/timeouts.c ****     if ((t->h == handler) && (t->arg == arg)) {
 570              		.loc 1 327 52 is_stmt 1 discriminator 2 view .LVU142
 327:/Users/nhantt/STM32Cube/Repository/STM32Cube_FW_F4_V1.26.0/Middlewares/Third_Party/LwIP/src/core/timeouts.c ****     if ((t->h == handler) && (t->arg == arg)) {
 571              		.loc 1 327 59 is_stmt 0 discriminator 2 view .LVU143
 572 0016 0A46     		mov	r2, r1
 327:/Users/nhantt/STM32Cube/Repository/STM32Cube_FW_F4_V1.26.0/Middlewares/Third_Party/LwIP/src/core/timeouts.c ****     if ((t->h == handler) && (t->arg == arg)) {
 573              		.loc 1 327 66 discriminator 2 view .LVU144
 574 0018 0968     		ldr	r1, [r1]
 575              	.LVL46:
 576              	.L49:
 327:/Users/nhantt/STM32Cube/Repository/STM32Cube_FW_F4_V1.26.0/Middlewares/Third_Party/LwIP/src/core/timeouts.c ****     if ((t->h == handler) && (t->arg == arg)) {
 577              		.loc 1 327 41 is_stmt 1 discriminator 1 view .LVU145
 327:/Users/nhantt/STM32Cube/Repository/STM32Cube_FW_F4_V1.26.0/Middlewares/Third_Party/LwIP/src/core/timeouts.c ****     if ((t->h == handler) && (t->arg == arg)) {
 578              		.loc 1 327 3 is_stmt 0 discriminator 1 view .LVU146
 579 001a 61B1     		cbz	r1, .L47
 328:/Users/nhantt/STM32Cube/Repository/STM32Cube_FW_F4_V1.26.0/Middlewares/Third_Party/LwIP/src/core/timeouts.c ****     if ((t->h == handler) && (t->arg == arg)) {
 580              		.loc 1 328 5 is_stmt 1 view .LVU147
 328:/Users/nhantt/STM32Cube/Repository/STM32Cube_FW_F4_V1.26.0/Middlewares/Third_Party/LwIP/src/core/timeouts.c ****     if ((t->h == handler) && (t->arg == arg)) {
 581              		.loc 1 328 11 is_stmt 0 view .LVU148
 582 001c 8B68     		ldr	r3, [r1, #8]
 328:/Users/nhantt/STM32Cube/Repository/STM32Cube_FW_F4_V1.26.0/Middlewares/Third_Party/LwIP/src/core/timeouts.c ****     if ((t->h == handler) && (t->arg == arg)) {
 583              		.loc 1 328 8 view .LVU149
 584 001e 8342     		cmp	r3, r0
 585 0020 F9D1     		bne	.L50
 328:/Users/nhantt/STM32Cube/Repository/STM32Cube_FW_F4_V1.26.0/Middlewares/Third_Party/LwIP/src/core/timeouts.c ****     if ((t->h == handler) && (t->arg == arg)) {
 586              		.loc 1 328 32 discriminator 1 view .LVU150
 587 0022 CB68     		ldr	r3, [r1, #12]
 328:/Users/nhantt/STM32Cube/Repository/STM32Cube_FW_F4_V1.26.0/Middlewares/Third_Party/LwIP/src/core/timeouts.c ****     if ((t->h == handler) && (t->arg == arg)) {
 588              		.loc 1 328 27 discriminator 1 view .LVU151
 589 0024 6345     		cmp	r3, ip
 590 0026 F6D1     		bne	.L50
 331:/Users/nhantt/STM32Cube/Repository/STM32Cube_FW_F4_V1.26.0/Middlewares/Third_Party/LwIP/src/core/timeouts.c ****         next_timeout = t->next;
 591              		.loc 1 331 7 is_stmt 1 view .LVU152
 331:/Users/nhantt/STM32Cube/Repository/STM32Cube_FW_F4_V1.26.0/Middlewares/Third_Party/LwIP/src/core/timeouts.c ****         next_timeout = t->next;
 592              		.loc 1 331 10 is_stmt 0 view .LVU153
 593 0028 002A     		cmp	r2, #0
 594 002a F0D0     		beq	.L55
 333:/Users/nhantt/STM32Cube/Repository/STM32Cube_FW_F4_V1.26.0/Middlewares/Third_Party/LwIP/src/core/timeouts.c ****       } else {
 334:/Users/nhantt/STM32Cube/Repository/STM32Cube_FW_F4_V1.26.0/Middlewares/Third_Party/LwIP/src/core/timeouts.c ****         prev_t->next = t->next;
 595              		.loc 1 334 9 is_stmt 1 view .LVU154
 596              		.loc 1 334 25 is_stmt 0 view .LVU155
 597 002c 0B68     		ldr	r3, [r1]
 598              		.loc 1 334 22 view .LVU156
 599 002e 1360     		str	r3, [r2]
 600              	.LVL47:
ARM GAS  /var/folders/k2/cd9bl_j17z77g23y6ffqb_400000gn/T//ccEkbS20.s 			page 19


 601              	.L52:
 335:/Users/nhantt/STM32Cube/Repository/STM32Cube_FW_F4_V1.26.0/Middlewares/Third_Party/LwIP/src/core/timeouts.c ****       }
 336:/Users/nhantt/STM32Cube/Repository/STM32Cube_FW_F4_V1.26.0/Middlewares/Third_Party/LwIP/src/core/timeouts.c ****       memp_free(MEMP_SYS_TIMEOUT, t);
 602              		.loc 1 336 7 is_stmt 1 view .LVU157
 603 0030 0620     		movs	r0, #6
 604              	.LVL48:
 605              		.loc 1 336 7 is_stmt 0 view .LVU158
 606 0032 FFF7FEFF 		bl	memp_free
 607              	.LVL49:
 337:/Users/nhantt/STM32Cube/Repository/STM32Cube_FW_F4_V1.26.0/Middlewares/Third_Party/LwIP/src/core/timeouts.c ****       return;
 608              		.loc 1 337 7 is_stmt 1 view .LVU159
 609              	.L47:
 338:/Users/nhantt/STM32Cube/Repository/STM32Cube_FW_F4_V1.26.0/Middlewares/Third_Party/LwIP/src/core/timeouts.c ****     }
 339:/Users/nhantt/STM32Cube/Repository/STM32Cube_FW_F4_V1.26.0/Middlewares/Third_Party/LwIP/src/core/timeouts.c ****   }
 340:/Users/nhantt/STM32Cube/Repository/STM32Cube_FW_F4_V1.26.0/Middlewares/Third_Party/LwIP/src/core/timeouts.c ****   return;
 341:/Users/nhantt/STM32Cube/Repository/STM32Cube_FW_F4_V1.26.0/Middlewares/Third_Party/LwIP/src/core/timeouts.c **** }
 610              		.loc 1 341 1 is_stmt 0 view .LVU160
 611 0036 08BD     		pop	{r3, pc}
 612              	.L57:
 613              		.align	2
 614              	.L56:
 615 0038 00000000 		.word	.LANCHOR0
 616              		.cfi_endproc
 617              	.LFE161:
 619              		.section	.text.sys_check_timeouts,"ax",%progbits
 620              		.align	1
 621              		.global	sys_check_timeouts
 622              		.syntax unified
 623              		.thumb
 624              		.thumb_func
 625              		.fpu fpv4-sp-d16
 627              	sys_check_timeouts:
 628              	.LFB162:
 342:/Users/nhantt/STM32Cube/Repository/STM32Cube_FW_F4_V1.26.0/Middlewares/Third_Party/LwIP/src/core/timeouts.c **** 
 343:/Users/nhantt/STM32Cube/Repository/STM32Cube_FW_F4_V1.26.0/Middlewares/Third_Party/LwIP/src/core/timeouts.c **** /**
 344:/Users/nhantt/STM32Cube/Repository/STM32Cube_FW_F4_V1.26.0/Middlewares/Third_Party/LwIP/src/core/timeouts.c ****  * @ingroup lwip_nosys
 345:/Users/nhantt/STM32Cube/Repository/STM32Cube_FW_F4_V1.26.0/Middlewares/Third_Party/LwIP/src/core/timeouts.c ****  * Handle timeouts for NO_SYS==1 (i.e. without using
 346:/Users/nhantt/STM32Cube/Repository/STM32Cube_FW_F4_V1.26.0/Middlewares/Third_Party/LwIP/src/core/timeouts.c ****  * tcpip_thread/sys_timeouts_mbox_fetch(). Uses sys_now() to call timeout
 347:/Users/nhantt/STM32Cube/Repository/STM32Cube_FW_F4_V1.26.0/Middlewares/Third_Party/LwIP/src/core/timeouts.c ****  * handler functions when timeouts expire.
 348:/Users/nhantt/STM32Cube/Repository/STM32Cube_FW_F4_V1.26.0/Middlewares/Third_Party/LwIP/src/core/timeouts.c ****  *
 349:/Users/nhantt/STM32Cube/Repository/STM32Cube_FW_F4_V1.26.0/Middlewares/Third_Party/LwIP/src/core/timeouts.c ****  * Must be called periodically from your main loop.
 350:/Users/nhantt/STM32Cube/Repository/STM32Cube_FW_F4_V1.26.0/Middlewares/Third_Party/LwIP/src/core/timeouts.c ****  */
 351:/Users/nhantt/STM32Cube/Repository/STM32Cube_FW_F4_V1.26.0/Middlewares/Third_Party/LwIP/src/core/timeouts.c **** void
 352:/Users/nhantt/STM32Cube/Repository/STM32Cube_FW_F4_V1.26.0/Middlewares/Third_Party/LwIP/src/core/timeouts.c **** sys_check_timeouts(void)
 353:/Users/nhantt/STM32Cube/Repository/STM32Cube_FW_F4_V1.26.0/Middlewares/Third_Party/LwIP/src/core/timeouts.c **** {
 629              		.loc 1 353 1 is_stmt 1 view -0
 630              		.cfi_startproc
 631              		@ args = 0, pretend = 0, frame = 0
 632              		@ frame_needed = 0, uses_anonymous_args = 0
 633 0000 70B5     		push	{r4, r5, r6, lr}
 634              	.LCFI7:
 635              		.cfi_def_cfa_offset 16
 636              		.cfi_offset 4, -16
 637              		.cfi_offset 5, -12
 638              		.cfi_offset 6, -8
 639              		.cfi_offset 14, -4
 354:/Users/nhantt/STM32Cube/Repository/STM32Cube_FW_F4_V1.26.0/Middlewares/Third_Party/LwIP/src/core/timeouts.c ****   u32_t now;
ARM GAS  /var/folders/k2/cd9bl_j17z77g23y6ffqb_400000gn/T//ccEkbS20.s 			page 20


 640              		.loc 1 354 3 view .LVU162
 355:/Users/nhantt/STM32Cube/Repository/STM32Cube_FW_F4_V1.26.0/Middlewares/Third_Party/LwIP/src/core/timeouts.c **** 
 356:/Users/nhantt/STM32Cube/Repository/STM32Cube_FW_F4_V1.26.0/Middlewares/Third_Party/LwIP/src/core/timeouts.c ****   LWIP_ASSERT_CORE_LOCKED();
 641              		.loc 1 356 28 view .LVU163
 357:/Users/nhantt/STM32Cube/Repository/STM32Cube_FW_F4_V1.26.0/Middlewares/Third_Party/LwIP/src/core/timeouts.c **** 
 358:/Users/nhantt/STM32Cube/Repository/STM32Cube_FW_F4_V1.26.0/Middlewares/Third_Party/LwIP/src/core/timeouts.c ****   /* Process only timers expired at the start of the function. */
 359:/Users/nhantt/STM32Cube/Repository/STM32Cube_FW_F4_V1.26.0/Middlewares/Third_Party/LwIP/src/core/timeouts.c ****   now = sys_now();
 642              		.loc 1 359 3 view .LVU164
 643              		.loc 1 359 9 is_stmt 0 view .LVU165
 644 0002 FFF7FEFF 		bl	sys_now
 645              	.LVL50:
 646 0006 0546     		mov	r5, r0
 647              	.LVL51:
 648              		.loc 1 359 9 view .LVU166
 649 0008 11E0     		b	.L61
 650              	.LVL52:
 651              	.L59:
 652              	.LBB2:
 360:/Users/nhantt/STM32Cube/Repository/STM32Cube_FW_F4_V1.26.0/Middlewares/Third_Party/LwIP/src/core/timeouts.c **** 
 361:/Users/nhantt/STM32Cube/Repository/STM32Cube_FW_F4_V1.26.0/Middlewares/Third_Party/LwIP/src/core/timeouts.c ****   do {
 362:/Users/nhantt/STM32Cube/Repository/STM32Cube_FW_F4_V1.26.0/Middlewares/Third_Party/LwIP/src/core/timeouts.c ****     struct sys_timeo *tmptimeout;
 363:/Users/nhantt/STM32Cube/Repository/STM32Cube_FW_F4_V1.26.0/Middlewares/Third_Party/LwIP/src/core/timeouts.c ****     sys_timeout_handler handler;
 364:/Users/nhantt/STM32Cube/Repository/STM32Cube_FW_F4_V1.26.0/Middlewares/Third_Party/LwIP/src/core/timeouts.c ****     void *arg;
 365:/Users/nhantt/STM32Cube/Repository/STM32Cube_FW_F4_V1.26.0/Middlewares/Third_Party/LwIP/src/core/timeouts.c **** 
 366:/Users/nhantt/STM32Cube/Repository/STM32Cube_FW_F4_V1.26.0/Middlewares/Third_Party/LwIP/src/core/timeouts.c ****     PBUF_CHECK_FREE_OOSEQ();
 653              		.loc 1 366 5 is_stmt 1 discriminator 3 view .LVU167
 367:/Users/nhantt/STM32Cube/Repository/STM32Cube_FW_F4_V1.26.0/Middlewares/Third_Party/LwIP/src/core/timeouts.c **** 
 368:/Users/nhantt/STM32Cube/Repository/STM32Cube_FW_F4_V1.26.0/Middlewares/Third_Party/LwIP/src/core/timeouts.c ****     tmptimeout = next_timeout;
 654              		.loc 1 368 5 discriminator 3 view .LVU168
 655              		.loc 1 368 16 is_stmt 0 discriminator 3 view .LVU169
 656 000a 0E4B     		ldr	r3, .L65
 657 000c 1968     		ldr	r1, [r3]
 658              	.LVL53:
 369:/Users/nhantt/STM32Cube/Repository/STM32Cube_FW_F4_V1.26.0/Middlewares/Third_Party/LwIP/src/core/timeouts.c ****     if (tmptimeout == NULL) {
 659              		.loc 1 369 5 is_stmt 1 discriminator 3 view .LVU170
 660              		.loc 1 369 8 is_stmt 0 discriminator 3 view .LVU171
 661 000e C1B1     		cbz	r1, .L58
 370:/Users/nhantt/STM32Cube/Repository/STM32Cube_FW_F4_V1.26.0/Middlewares/Third_Party/LwIP/src/core/timeouts.c ****       return;
 371:/Users/nhantt/STM32Cube/Repository/STM32Cube_FW_F4_V1.26.0/Middlewares/Third_Party/LwIP/src/core/timeouts.c ****     }
 372:/Users/nhantt/STM32Cube/Repository/STM32Cube_FW_F4_V1.26.0/Middlewares/Third_Party/LwIP/src/core/timeouts.c **** 
 373:/Users/nhantt/STM32Cube/Repository/STM32Cube_FW_F4_V1.26.0/Middlewares/Third_Party/LwIP/src/core/timeouts.c ****     if (TIME_LESS_THAN(now, tmptimeout->time)) {
 662              		.loc 1 373 5 is_stmt 1 view .LVU172
 663              		.loc 1 373 9 is_stmt 0 view .LVU173
 664 0010 4B68     		ldr	r3, [r1, #4]
 665 0012 EA1A     		subs	r2, r5, r3
 666              		.loc 1 373 8 view .LVU174
 667 0014 002A     		cmp	r2, #0
 668 0016 14DB     		blt	.L58
 374:/Users/nhantt/STM32Cube/Repository/STM32Cube_FW_F4_V1.26.0/Middlewares/Third_Party/LwIP/src/core/timeouts.c ****       return;
 375:/Users/nhantt/STM32Cube/Repository/STM32Cube_FW_F4_V1.26.0/Middlewares/Third_Party/LwIP/src/core/timeouts.c ****     }
 376:/Users/nhantt/STM32Cube/Repository/STM32Cube_FW_F4_V1.26.0/Middlewares/Third_Party/LwIP/src/core/timeouts.c **** 
 377:/Users/nhantt/STM32Cube/Repository/STM32Cube_FW_F4_V1.26.0/Middlewares/Third_Party/LwIP/src/core/timeouts.c ****     /* Timeout has expired */
 378:/Users/nhantt/STM32Cube/Repository/STM32Cube_FW_F4_V1.26.0/Middlewares/Third_Party/LwIP/src/core/timeouts.c ****     next_timeout = tmptimeout->next;
 669              		.loc 1 378 5 is_stmt 1 view .LVU175
 670              		.loc 1 378 30 is_stmt 0 view .LVU176
 671 0018 0868     		ldr	r0, [r1]
 672              		.loc 1 378 18 view .LVU177
ARM GAS  /var/folders/k2/cd9bl_j17z77g23y6ffqb_400000gn/T//ccEkbS20.s 			page 21


 673 001a 0A4A     		ldr	r2, .L65
 674 001c 1060     		str	r0, [r2]
 379:/Users/nhantt/STM32Cube/Repository/STM32Cube_FW_F4_V1.26.0/Middlewares/Third_Party/LwIP/src/core/timeouts.c ****     handler = tmptimeout->h;
 675              		.loc 1 379 5 is_stmt 1 view .LVU178
 676              		.loc 1 379 13 is_stmt 0 view .LVU179
 677 001e 8C68     		ldr	r4, [r1, #8]
 678              	.LVL54:
 380:/Users/nhantt/STM32Cube/Repository/STM32Cube_FW_F4_V1.26.0/Middlewares/Third_Party/LwIP/src/core/timeouts.c ****     arg = tmptimeout->arg;
 679              		.loc 1 380 5 is_stmt 1 view .LVU180
 680              		.loc 1 380 9 is_stmt 0 view .LVU181
 681 0020 CE68     		ldr	r6, [r1, #12]
 682              	.LVL55:
 381:/Users/nhantt/STM32Cube/Repository/STM32Cube_FW_F4_V1.26.0/Middlewares/Third_Party/LwIP/src/core/timeouts.c ****     current_timeout_due_time = tmptimeout->time;
 683              		.loc 1 381 5 is_stmt 1 view .LVU182
 684              		.loc 1 381 30 is_stmt 0 view .LVU183
 685 0022 094A     		ldr	r2, .L65+4
 686 0024 1360     		str	r3, [r2]
 382:/Users/nhantt/STM32Cube/Repository/STM32Cube_FW_F4_V1.26.0/Middlewares/Third_Party/LwIP/src/core/timeouts.c **** #if LWIP_DEBUG_TIMERNAMES
 383:/Users/nhantt/STM32Cube/Repository/STM32Cube_FW_F4_V1.26.0/Middlewares/Third_Party/LwIP/src/core/timeouts.c ****     if (handler != NULL) {
 384:/Users/nhantt/STM32Cube/Repository/STM32Cube_FW_F4_V1.26.0/Middlewares/Third_Party/LwIP/src/core/timeouts.c ****       LWIP_DEBUGF(TIMERS_DEBUG, ("sct calling h=%s t=%"U32_F" arg=%p\n",
 385:/Users/nhantt/STM32Cube/Repository/STM32Cube_FW_F4_V1.26.0/Middlewares/Third_Party/LwIP/src/core/timeouts.c ****                                  tmptimeout->handler_name, sys_now() - tmptimeout->time, arg));
 386:/Users/nhantt/STM32Cube/Repository/STM32Cube_FW_F4_V1.26.0/Middlewares/Third_Party/LwIP/src/core/timeouts.c ****     }
 387:/Users/nhantt/STM32Cube/Repository/STM32Cube_FW_F4_V1.26.0/Middlewares/Third_Party/LwIP/src/core/timeouts.c **** #endif /* LWIP_DEBUG_TIMERNAMES */
 388:/Users/nhantt/STM32Cube/Repository/STM32Cube_FW_F4_V1.26.0/Middlewares/Third_Party/LwIP/src/core/timeouts.c ****     memp_free(MEMP_SYS_TIMEOUT, tmptimeout);
 687              		.loc 1 388 5 is_stmt 1 view .LVU184
 688 0026 0620     		movs	r0, #6
 689 0028 FFF7FEFF 		bl	memp_free
 690              	.LVL56:
 389:/Users/nhantt/STM32Cube/Repository/STM32Cube_FW_F4_V1.26.0/Middlewares/Third_Party/LwIP/src/core/timeouts.c ****     if (handler != NULL) {
 691              		.loc 1 389 5 view .LVU185
 692              		.loc 1 389 8 is_stmt 0 view .LVU186
 693 002c 34B9     		cbnz	r4, .L64
 694              	.LVL57:
 695              	.L61:
 696              		.loc 1 389 8 view .LVU187
 697              	.LBE2:
 361:/Users/nhantt/STM32Cube/Repository/STM32Cube_FW_F4_V1.26.0/Middlewares/Third_Party/LwIP/src/core/timeouts.c ****     struct sys_timeo *tmptimeout;
 698              		.loc 1 361 3 is_stmt 1 view .LVU188
 699              	.LBB3:
 362:/Users/nhantt/STM32Cube/Repository/STM32Cube_FW_F4_V1.26.0/Middlewares/Third_Party/LwIP/src/core/timeouts.c ****     sys_timeout_handler handler;
 700              		.loc 1 362 5 view .LVU189
 363:/Users/nhantt/STM32Cube/Repository/STM32Cube_FW_F4_V1.26.0/Middlewares/Third_Party/LwIP/src/core/timeouts.c ****     void *arg;
 701              		.loc 1 363 5 view .LVU190
 364:/Users/nhantt/STM32Cube/Repository/STM32Cube_FW_F4_V1.26.0/Middlewares/Third_Party/LwIP/src/core/timeouts.c **** 
 702              		.loc 1 364 5 view .LVU191
 366:/Users/nhantt/STM32Cube/Repository/STM32Cube_FW_F4_V1.26.0/Middlewares/Third_Party/LwIP/src/core/timeouts.c **** 
 703              		.loc 1 366 5 view .LVU192
 366:/Users/nhantt/STM32Cube/Repository/STM32Cube_FW_F4_V1.26.0/Middlewares/Third_Party/LwIP/src/core/timeouts.c **** 
 704              		.loc 1 366 5 view .LVU193
 705 002e 074B     		ldr	r3, .L65+8
 706 0030 1B78     		ldrb	r3, [r3]	@ zero_extendqisi2
 707 0032 002B     		cmp	r3, #0
 708 0034 E9D0     		beq	.L59
 366:/Users/nhantt/STM32Cube/Repository/STM32Cube_FW_F4_V1.26.0/Middlewares/Third_Party/LwIP/src/core/timeouts.c **** 
 709              		.loc 1 366 5 discriminator 1 view .LVU194
 710 0036 FFF7FEFF 		bl	pbuf_free_ooseq
 711              	.LVL58:
ARM GAS  /var/folders/k2/cd9bl_j17z77g23y6ffqb_400000gn/T//ccEkbS20.s 			page 22


 712 003a E6E7     		b	.L59
 713              	.LVL59:
 714              	.L64:
 390:/Users/nhantt/STM32Cube/Repository/STM32Cube_FW_F4_V1.26.0/Middlewares/Third_Party/LwIP/src/core/timeouts.c ****       handler(arg);
 715              		.loc 1 390 7 view .LVU195
 716 003c 3046     		mov	r0, r6
 717 003e A047     		blx	r4
 718              	.LVL60:
 719 0040 F5E7     		b	.L61
 720              	.LVL61:
 721              	.L58:
 722              		.loc 1 390 7 is_stmt 0 view .LVU196
 723              	.LBE3:
 391:/Users/nhantt/STM32Cube/Repository/STM32Cube_FW_F4_V1.26.0/Middlewares/Third_Party/LwIP/src/core/timeouts.c ****     }
 392:/Users/nhantt/STM32Cube/Repository/STM32Cube_FW_F4_V1.26.0/Middlewares/Third_Party/LwIP/src/core/timeouts.c ****     LWIP_TCPIP_THREAD_ALIVE();
 393:/Users/nhantt/STM32Cube/Repository/STM32Cube_FW_F4_V1.26.0/Middlewares/Third_Party/LwIP/src/core/timeouts.c **** 
 394:/Users/nhantt/STM32Cube/Repository/STM32Cube_FW_F4_V1.26.0/Middlewares/Third_Party/LwIP/src/core/timeouts.c ****     /* Repeat until all expired timers have been called */
 395:/Users/nhantt/STM32Cube/Repository/STM32Cube_FW_F4_V1.26.0/Middlewares/Third_Party/LwIP/src/core/timeouts.c ****   } while (1);
 396:/Users/nhantt/STM32Cube/Repository/STM32Cube_FW_F4_V1.26.0/Middlewares/Third_Party/LwIP/src/core/timeouts.c **** }
 724              		.loc 1 396 1 view .LVU197
 725 0042 70BD     		pop	{r4, r5, r6, pc}
 726              	.LVL62:
 727              	.L66:
 728              		.loc 1 396 1 view .LVU198
 729              		.align	2
 730              	.L65:
 731 0044 00000000 		.word	.LANCHOR0
 732 0048 00000000 		.word	.LANCHOR1
 733 004c 00000000 		.word	pbuf_free_ooseq_pending
 734              		.cfi_endproc
 735              	.LFE162:
 737              		.section	.text.sys_restart_timeouts,"ax",%progbits
 738              		.align	1
 739              		.global	sys_restart_timeouts
 740              		.syntax unified
 741              		.thumb
 742              		.thumb_func
 743              		.fpu fpv4-sp-d16
 745              	sys_restart_timeouts:
 746              	.LFB163:
 397:/Users/nhantt/STM32Cube/Repository/STM32Cube_FW_F4_V1.26.0/Middlewares/Third_Party/LwIP/src/core/timeouts.c **** 
 398:/Users/nhantt/STM32Cube/Repository/STM32Cube_FW_F4_V1.26.0/Middlewares/Third_Party/LwIP/src/core/timeouts.c **** /** Rebase the timeout times to the current time.
 399:/Users/nhantt/STM32Cube/Repository/STM32Cube_FW_F4_V1.26.0/Middlewares/Third_Party/LwIP/src/core/timeouts.c ****  * This is necessary if sys_check_timeouts() hasn't been called for a long
 400:/Users/nhantt/STM32Cube/Repository/STM32Cube_FW_F4_V1.26.0/Middlewares/Third_Party/LwIP/src/core/timeouts.c ****  * time (e.g. while saving energy) to prevent all timer functions of that
 401:/Users/nhantt/STM32Cube/Repository/STM32Cube_FW_F4_V1.26.0/Middlewares/Third_Party/LwIP/src/core/timeouts.c ****  * period being called.
 402:/Users/nhantt/STM32Cube/Repository/STM32Cube_FW_F4_V1.26.0/Middlewares/Third_Party/LwIP/src/core/timeouts.c ****  */
 403:/Users/nhantt/STM32Cube/Repository/STM32Cube_FW_F4_V1.26.0/Middlewares/Third_Party/LwIP/src/core/timeouts.c **** void
 404:/Users/nhantt/STM32Cube/Repository/STM32Cube_FW_F4_V1.26.0/Middlewares/Third_Party/LwIP/src/core/timeouts.c **** sys_restart_timeouts(void)
 405:/Users/nhantt/STM32Cube/Repository/STM32Cube_FW_F4_V1.26.0/Middlewares/Third_Party/LwIP/src/core/timeouts.c **** {
 747              		.loc 1 405 1 is_stmt 1 view -0
 748              		.cfi_startproc
 749              		@ args = 0, pretend = 0, frame = 0
 750              		@ frame_needed = 0, uses_anonymous_args = 0
 751 0000 08B5     		push	{r3, lr}
 752              	.LCFI8:
 753              		.cfi_def_cfa_offset 8
 754              		.cfi_offset 3, -8
ARM GAS  /var/folders/k2/cd9bl_j17z77g23y6ffqb_400000gn/T//ccEkbS20.s 			page 23


 755              		.cfi_offset 14, -4
 406:/Users/nhantt/STM32Cube/Repository/STM32Cube_FW_F4_V1.26.0/Middlewares/Third_Party/LwIP/src/core/timeouts.c ****   u32_t now;
 756              		.loc 1 406 3 view .LVU200
 407:/Users/nhantt/STM32Cube/Repository/STM32Cube_FW_F4_V1.26.0/Middlewares/Third_Party/LwIP/src/core/timeouts.c ****   u32_t base;
 757              		.loc 1 407 3 view .LVU201
 408:/Users/nhantt/STM32Cube/Repository/STM32Cube_FW_F4_V1.26.0/Middlewares/Third_Party/LwIP/src/core/timeouts.c ****   struct sys_timeo *t;
 758              		.loc 1 408 3 view .LVU202
 409:/Users/nhantt/STM32Cube/Repository/STM32Cube_FW_F4_V1.26.0/Middlewares/Third_Party/LwIP/src/core/timeouts.c **** 
 410:/Users/nhantt/STM32Cube/Repository/STM32Cube_FW_F4_V1.26.0/Middlewares/Third_Party/LwIP/src/core/timeouts.c ****   if (next_timeout == NULL) {
 759              		.loc 1 410 3 view .LVU203
 760              		.loc 1 410 20 is_stmt 0 view .LVU204
 761 0002 084B     		ldr	r3, .L72
 762 0004 1B68     		ldr	r3, [r3]
 763              		.loc 1 410 6 view .LVU205
 764 0006 63B1     		cbz	r3, .L67
 411:/Users/nhantt/STM32Cube/Repository/STM32Cube_FW_F4_V1.26.0/Middlewares/Third_Party/LwIP/src/core/timeouts.c ****     return;
 412:/Users/nhantt/STM32Cube/Repository/STM32Cube_FW_F4_V1.26.0/Middlewares/Third_Party/LwIP/src/core/timeouts.c ****   }
 413:/Users/nhantt/STM32Cube/Repository/STM32Cube_FW_F4_V1.26.0/Middlewares/Third_Party/LwIP/src/core/timeouts.c **** 
 414:/Users/nhantt/STM32Cube/Repository/STM32Cube_FW_F4_V1.26.0/Middlewares/Third_Party/LwIP/src/core/timeouts.c ****   now = sys_now();
 765              		.loc 1 414 3 is_stmt 1 view .LVU206
 766              		.loc 1 414 9 is_stmt 0 view .LVU207
 767 0008 FFF7FEFF 		bl	sys_now
 768              	.LVL63:
 415:/Users/nhantt/STM32Cube/Repository/STM32Cube_FW_F4_V1.26.0/Middlewares/Third_Party/LwIP/src/core/timeouts.c ****   base = next_timeout->time;
 769              		.loc 1 415 3 is_stmt 1 view .LVU208
 770              		.loc 1 415 22 is_stmt 0 view .LVU209
 771 000c 054B     		ldr	r3, .L72
 772 000e 1A68     		ldr	r2, [r3]
 773              		.loc 1 415 8 view .LVU210
 774 0010 5168     		ldr	r1, [r2, #4]
 775              	.LVL64:
 416:/Users/nhantt/STM32Cube/Repository/STM32Cube_FW_F4_V1.26.0/Middlewares/Third_Party/LwIP/src/core/timeouts.c **** 
 417:/Users/nhantt/STM32Cube/Repository/STM32Cube_FW_F4_V1.26.0/Middlewares/Third_Party/LwIP/src/core/timeouts.c ****   for (t = next_timeout; t != NULL; t = t->next) {
 776              		.loc 1 417 3 is_stmt 1 view .LVU211
 777              		.loc 1 417 3 is_stmt 0 view .LVU212
 778 0012 04E0     		b	.L69
 779              	.L70:
 418:/Users/nhantt/STM32Cube/Repository/STM32Cube_FW_F4_V1.26.0/Middlewares/Third_Party/LwIP/src/core/timeouts.c ****     t->time = (t->time - base) + now;
 780              		.loc 1 418 5 is_stmt 1 discriminator 3 view .LVU213
 781              		.loc 1 418 17 is_stmt 0 discriminator 3 view .LVU214
 782 0014 5368     		ldr	r3, [r2, #4]
 783              		.loc 1 418 24 discriminator 3 view .LVU215
 784 0016 5B1A     		subs	r3, r3, r1
 785              		.loc 1 418 32 discriminator 3 view .LVU216
 786 0018 0344     		add	r3, r3, r0
 787              		.loc 1 418 13 discriminator 3 view .LVU217
 788 001a 5360     		str	r3, [r2, #4]
 417:/Users/nhantt/STM32Cube/Repository/STM32Cube_FW_F4_V1.26.0/Middlewares/Third_Party/LwIP/src/core/timeouts.c ****     t->time = (t->time - base) + now;
 789              		.loc 1 417 37 is_stmt 1 discriminator 3 view .LVU218
 417:/Users/nhantt/STM32Cube/Repository/STM32Cube_FW_F4_V1.26.0/Middlewares/Third_Party/LwIP/src/core/timeouts.c ****     t->time = (t->time - base) + now;
 790              		.loc 1 417 39 is_stmt 0 discriminator 3 view .LVU219
 791 001c 1268     		ldr	r2, [r2]
 792              	.LVL65:
 793              	.L69:
 417:/Users/nhantt/STM32Cube/Repository/STM32Cube_FW_F4_V1.26.0/Middlewares/Third_Party/LwIP/src/core/timeouts.c ****     t->time = (t->time - base) + now;
 794              		.loc 1 417 26 is_stmt 1 discriminator 1 view .LVU220
 417:/Users/nhantt/STM32Cube/Repository/STM32Cube_FW_F4_V1.26.0/Middlewares/Third_Party/LwIP/src/core/timeouts.c ****     t->time = (t->time - base) + now;
ARM GAS  /var/folders/k2/cd9bl_j17z77g23y6ffqb_400000gn/T//ccEkbS20.s 			page 24


 795              		.loc 1 417 3 is_stmt 0 discriminator 1 view .LVU221
 796 001e 002A     		cmp	r2, #0
 797 0020 F8D1     		bne	.L70
 798              	.LVL66:
 799              	.L67:
 419:/Users/nhantt/STM32Cube/Repository/STM32Cube_FW_F4_V1.26.0/Middlewares/Third_Party/LwIP/src/core/timeouts.c ****   }
 420:/Users/nhantt/STM32Cube/Repository/STM32Cube_FW_F4_V1.26.0/Middlewares/Third_Party/LwIP/src/core/timeouts.c **** }
 800              		.loc 1 420 1 view .LVU222
 801 0022 08BD     		pop	{r3, pc}
 802              	.L73:
 803              		.align	2
 804              	.L72:
 805 0024 00000000 		.word	.LANCHOR0
 806              		.cfi_endproc
 807              	.LFE163:
 809              		.section	.rodata.sys_timeouts_sleeptime.str1.4,"aMS",%progbits,1
 810              		.align	2
 811              	.LC4:
 812 0000 696E7661 		.ascii	"invalid sleeptime\000"
 812      6C696420 
 812      736C6565 
 812      7074696D 
 812      6500
 813              		.section	.text.sys_timeouts_sleeptime,"ax",%progbits
 814              		.align	1
 815              		.global	sys_timeouts_sleeptime
 816              		.syntax unified
 817              		.thumb
 818              		.thumb_func
 819              		.fpu fpv4-sp-d16
 821              	sys_timeouts_sleeptime:
 822              	.LFB164:
 421:/Users/nhantt/STM32Cube/Repository/STM32Cube_FW_F4_V1.26.0/Middlewares/Third_Party/LwIP/src/core/timeouts.c **** 
 422:/Users/nhantt/STM32Cube/Repository/STM32Cube_FW_F4_V1.26.0/Middlewares/Third_Party/LwIP/src/core/timeouts.c **** /** Return the time left before the next timeout is due. If no timeouts are
 423:/Users/nhantt/STM32Cube/Repository/STM32Cube_FW_F4_V1.26.0/Middlewares/Third_Party/LwIP/src/core/timeouts.c ****  * enqueued, returns 0xffffffff
 424:/Users/nhantt/STM32Cube/Repository/STM32Cube_FW_F4_V1.26.0/Middlewares/Third_Party/LwIP/src/core/timeouts.c ****  */
 425:/Users/nhantt/STM32Cube/Repository/STM32Cube_FW_F4_V1.26.0/Middlewares/Third_Party/LwIP/src/core/timeouts.c **** u32_t
 426:/Users/nhantt/STM32Cube/Repository/STM32Cube_FW_F4_V1.26.0/Middlewares/Third_Party/LwIP/src/core/timeouts.c **** sys_timeouts_sleeptime(void)
 427:/Users/nhantt/STM32Cube/Repository/STM32Cube_FW_F4_V1.26.0/Middlewares/Third_Party/LwIP/src/core/timeouts.c **** {
 823              		.loc 1 427 1 is_stmt 1 view -0
 824              		.cfi_startproc
 825              		@ args = 0, pretend = 0, frame = 0
 826              		@ frame_needed = 0, uses_anonymous_args = 0
 827 0000 10B5     		push	{r4, lr}
 828              	.LCFI9:
 829              		.cfi_def_cfa_offset 8
 830              		.cfi_offset 4, -8
 831              		.cfi_offset 14, -4
 428:/Users/nhantt/STM32Cube/Repository/STM32Cube_FW_F4_V1.26.0/Middlewares/Third_Party/LwIP/src/core/timeouts.c ****   u32_t now;
 832              		.loc 1 428 3 view .LVU224
 429:/Users/nhantt/STM32Cube/Repository/STM32Cube_FW_F4_V1.26.0/Middlewares/Third_Party/LwIP/src/core/timeouts.c **** 
 430:/Users/nhantt/STM32Cube/Repository/STM32Cube_FW_F4_V1.26.0/Middlewares/Third_Party/LwIP/src/core/timeouts.c ****   LWIP_ASSERT_CORE_LOCKED();
 833              		.loc 1 430 28 view .LVU225
 431:/Users/nhantt/STM32Cube/Repository/STM32Cube_FW_F4_V1.26.0/Middlewares/Third_Party/LwIP/src/core/timeouts.c **** 
 432:/Users/nhantt/STM32Cube/Repository/STM32Cube_FW_F4_V1.26.0/Middlewares/Third_Party/LwIP/src/core/timeouts.c ****   if (next_timeout == NULL) {
 834              		.loc 1 432 3 view .LVU226
 835              		.loc 1 432 20 is_stmt 0 view .LVU227
ARM GAS  /var/folders/k2/cd9bl_j17z77g23y6ffqb_400000gn/T//ccEkbS20.s 			page 25


 836 0002 0D4B     		ldr	r3, .L80
 837 0004 1B68     		ldr	r3, [r3]
 838              		.loc 1 432 6 view .LVU228
 839 0006 83B1     		cbz	r3, .L77
 433:/Users/nhantt/STM32Cube/Repository/STM32Cube_FW_F4_V1.26.0/Middlewares/Third_Party/LwIP/src/core/timeouts.c ****     return SYS_TIMEOUTS_SLEEPTIME_INFINITE;
 434:/Users/nhantt/STM32Cube/Repository/STM32Cube_FW_F4_V1.26.0/Middlewares/Third_Party/LwIP/src/core/timeouts.c ****   }
 435:/Users/nhantt/STM32Cube/Repository/STM32Cube_FW_F4_V1.26.0/Middlewares/Third_Party/LwIP/src/core/timeouts.c ****   now = sys_now();
 840              		.loc 1 435 3 is_stmt 1 view .LVU229
 841              		.loc 1 435 9 is_stmt 0 view .LVU230
 842 0008 FFF7FEFF 		bl	sys_now
 843              	.LVL67:
 436:/Users/nhantt/STM32Cube/Repository/STM32Cube_FW_F4_V1.26.0/Middlewares/Third_Party/LwIP/src/core/timeouts.c ****   if (TIME_LESS_THAN(next_timeout->time, now)) {
 844              		.loc 1 436 3 is_stmt 1 view .LVU231
 845              		.loc 1 436 7 is_stmt 0 view .LVU232
 846 000c 0A4B     		ldr	r3, .L80
 847 000e 1B68     		ldr	r3, [r3]
 848 0010 5C68     		ldr	r4, [r3, #4]
 849              		.loc 1 436 6 view .LVU233
 850 0012 241A     		subs	r4, r4, r0
 851 0014 0CD4     		bmi	.L78
 852              	.LBB4:
 437:/Users/nhantt/STM32Cube/Repository/STM32Cube_FW_F4_V1.26.0/Middlewares/Third_Party/LwIP/src/core/timeouts.c ****     return 0;
 438:/Users/nhantt/STM32Cube/Repository/STM32Cube_FW_F4_V1.26.0/Middlewares/Third_Party/LwIP/src/core/timeouts.c ****   } else {
 439:/Users/nhantt/STM32Cube/Repository/STM32Cube_FW_F4_V1.26.0/Middlewares/Third_Party/LwIP/src/core/timeouts.c ****     u32_t ret = (u32_t)(next_timeout->time - now);
 853              		.loc 1 439 5 is_stmt 1 view .LVU234
 854              	.LVL68:
 440:/Users/nhantt/STM32Cube/Repository/STM32Cube_FW_F4_V1.26.0/Middlewares/Third_Party/LwIP/src/core/timeouts.c ****     LWIP_ASSERT("invalid sleeptime", ret <= LWIP_MAX_TIMEOUT);
 855              		.loc 1 440 5 view .LVU235
 856              		.loc 1 440 5 view .LVU236
 857 0016 002C     		cmp	r4, #0
 858 0018 0BDA     		bge	.L74
 859              		.loc 1 440 5 discriminator 1 view .LVU237
 860              		.loc 1 440 5 discriminator 1 view .LVU238
 861 001a 084B     		ldr	r3, .L80+4
 862 001c 4FF4DC72 		mov	r2, #440
 863 0020 0749     		ldr	r1, .L80+8
 864 0022 0848     		ldr	r0, .L80+12
 865              	.LVL69:
 866              		.loc 1 440 5 is_stmt 0 discriminator 1 view .LVU239
 867 0024 FFF7FEFF 		bl	printf
 868              	.LVL70:
 869              		.loc 1 440 5 is_stmt 1 discriminator 1 view .LVU240
 870              		.loc 1 440 5 discriminator 1 view .LVU241
 441:/Users/nhantt/STM32Cube/Repository/STM32Cube_FW_F4_V1.26.0/Middlewares/Third_Party/LwIP/src/core/timeouts.c ****     return ret;
 871              		.loc 1 441 5 discriminator 1 view .LVU242
 872              		.loc 1 441 12 is_stmt 0 discriminator 1 view .LVU243
 873 0028 03E0     		b	.L74
 874              	.LVL71:
 875              	.L77:
 876              		.loc 1 441 12 discriminator 1 view .LVU244
 877              	.LBE4:
 433:/Users/nhantt/STM32Cube/Repository/STM32Cube_FW_F4_V1.26.0/Middlewares/Third_Party/LwIP/src/core/timeouts.c ****   }
 878              		.loc 1 433 12 view .LVU245
 879 002a 4FF0FF34 		mov	r4, #-1
 880 002e 00E0     		b	.L74
 881              	.LVL72:
 882              	.L78:
ARM GAS  /var/folders/k2/cd9bl_j17z77g23y6ffqb_400000gn/T//ccEkbS20.s 			page 26


 437:/Users/nhantt/STM32Cube/Repository/STM32Cube_FW_F4_V1.26.0/Middlewares/Third_Party/LwIP/src/core/timeouts.c ****   } else {
 883              		.loc 1 437 12 view .LVU246
 884 0030 0024     		movs	r4, #0
 885              	.LVL73:
 886              	.L74:
 442:/Users/nhantt/STM32Cube/Repository/STM32Cube_FW_F4_V1.26.0/Middlewares/Third_Party/LwIP/src/core/timeouts.c ****   }
 443:/Users/nhantt/STM32Cube/Repository/STM32Cube_FW_F4_V1.26.0/Middlewares/Third_Party/LwIP/src/core/timeouts.c **** }
 887              		.loc 1 443 1 view .LVU247
 888 0032 2046     		mov	r0, r4
 889 0034 10BD     		pop	{r4, pc}
 890              	.L81:
 891 0036 00BF     		.align	2
 892              	.L80:
 893 0038 00000000 		.word	.LANCHOR0
 894 003c 00000000 		.word	.LC0
 895 0040 00000000 		.word	.LC4
 896 0044 AC000000 		.word	.LC2
 897              		.cfi_endproc
 898              	.LFE164:
 900              		.global	lwip_num_cyclic_timers
 901              		.global	lwip_cyclic_timers
 902              		.section	.bss.current_timeout_due_time,"aw",%nobits
 903              		.align	2
 904              		.set	.LANCHOR1,. + 0
 907              	current_timeout_due_time:
 908 0000 00000000 		.space	4
 909              		.section	.bss.next_timeout,"aw",%nobits
 910              		.align	2
 911              		.set	.LANCHOR0,. + 0
 914              	next_timeout:
 915 0000 00000000 		.space	4
 916              		.section	.bss.tcpip_tcp_timer_active,"aw",%nobits
 917              		.align	2
 918              		.set	.LANCHOR2,. + 0
 921              	tcpip_tcp_timer_active:
 922 0000 00000000 		.space	4
 923              		.section	.rodata.lwip_cyclic_timers,"a"
 924              		.align	2
 925              		.set	.LANCHOR3,. + 0
 928              	lwip_cyclic_timers:
 929 0000 FA000000 		.word	250
 930 0004 00000000 		.word	tcp_tmr
 931 0008 E8030000 		.word	1000
 932 000c 00000000 		.word	ip_reass_tmr
 933 0010 E8030000 		.word	1000
 934 0014 00000000 		.word	etharp_tmr
 935 0018 60EA0000 		.word	60000
 936 001c 00000000 		.word	dhcp_coarse_tmr
 937 0020 F4010000 		.word	500
 938 0024 00000000 		.word	dhcp_fine_tmr
 939              		.section	.rodata.lwip_num_cyclic_timers,"a"
 940              		.align	2
 943              	lwip_num_cyclic_timers:
 944 0000 05000000 		.word	5
 945              		.text
 946              	.Letext0:
 947              		.file 2 "/Users/nhantt/tools/stm32/gcc-arm-none-eabi-10-2020-q4-major/arm-none-eabi/include/machin
ARM GAS  /var/folders/k2/cd9bl_j17z77g23y6ffqb_400000gn/T//ccEkbS20.s 			page 27


 948              		.file 3 "/Users/nhantt/tools/stm32/gcc-arm-none-eabi-10-2020-q4-major/arm-none-eabi/include/sys/_s
 949              		.file 4 "/Users/nhantt/tools/stm32/gcc-arm-none-eabi-10-2020-q4-major/lib/gcc/arm-none-eabi/10.2.1
 950              		.file 5 "/Users/nhantt/STM32Cube/Repository/STM32Cube_FW_F4_V1.26.0/Middlewares/Third_Party/LwIP/s
 951              		.file 6 "/Users/nhantt/STM32Cube/Repository/STM32Cube_FW_F4_V1.26.0/Middlewares/Third_Party/LwIP/s
 952              		.file 7 "/Users/nhantt/STM32Cube/Repository/STM32Cube_FW_F4_V1.26.0/Middlewares/Third_Party/LwIP/s
 953              		.file 8 "/Users/nhantt/STM32Cube/Repository/STM32Cube_FW_F4_V1.26.0/Middlewares/Third_Party/LwIP/s
 954              		.file 9 "/Users/nhantt/STM32Cube/Repository/STM32Cube_FW_F4_V1.26.0/Middlewares/Third_Party/LwIP/s
 955              		.file 10 "/Users/nhantt/STM32Cube/Repository/STM32Cube_FW_F4_V1.26.0/Middlewares/Third_Party/LwIP/
 956              		.file 11 "/Users/nhantt/STM32Cube/Repository/STM32Cube_FW_F4_V1.26.0/Middlewares/Third_Party/LwIP/
 957              		.file 12 "/Users/nhantt/STM32Cube/Repository/STM32Cube_FW_F4_V1.26.0/Middlewares/Third_Party/LwIP/
 958              		.file 13 "/Users/nhantt/STM32Cube/Repository/STM32Cube_FW_F4_V1.26.0/Middlewares/Third_Party/LwIP/
 959              		.file 14 "/Users/nhantt/STM32Cube/Repository/STM32Cube_FW_F4_V1.26.0/Middlewares/Third_Party/LwIP/
 960              		.file 15 "/Users/nhantt/STM32Cube/Repository/STM32Cube_FW_F4_V1.26.0/Middlewares/Third_Party/LwIP/
 961              		.file 16 "/Users/nhantt/tools/stm32/gcc-arm-none-eabi-10-2020-q4-major/arm-none-eabi/include/stdio
 962              		.file 17 "/Users/nhantt/STM32Cube/Repository/STM32Cube_FW_F4_V1.26.0/Middlewares/Third_Party/LwIP/
 963              		.file 18 "/Users/nhantt/STM32Cube/Repository/STM32Cube_FW_F4_V1.26.0/Middlewares/Third_Party/LwIP/
ARM GAS  /var/folders/k2/cd9bl_j17z77g23y6ffqb_400000gn/T//ccEkbS20.s 			page 28

